                                                                      Page 1
                                                              C:\Users\nhuliyap\AppData\Local\Temp\gh_00006oo1.s
Command Line: C:\ghs\comp_201517\ease850.exe -w -elf -b0 -I../source/common -I../source/ProjectCompiler -I../source/ProjectCfg -I../source/SwcApplTpms -I../source/SwcApplTpms/Intface -I../source/SwcApplEcuM -I../source/SwcServiceEcuM -I../source/SwcServiceNvM -I../source/SwcServiceOs -I../source/SwcServiceStartUp -I../source/McalAdc -I../source/McalDio -I../source/McalGpt -I../source/McalMcu -I../source/McalWdg -I../source/wrappers -I../source/wrappers/McalAta -I../source/McalLin -I../source/McalCan -I../source/wrappers/OS -I../source/McalFls -I../source/EcuabFee -I../source/EcuabMemIf -I../source/wrappers/VStdLib -I../source/wrappers/Crc -I../source/wrappers/FBL_APPL -I../source/wrappers/CAN_MANAGER -I../source/wrappers/NVM_MANAGER -I../source/wrappers/DEM_MANAGER -I../source/wrappers/RDC_MANAGER -I../source/wrappers/ENV_MANAGER -I../source/wrappers/SYS_MANAGER -I../source/wrappers/EcuabCanIf -I../source/wrappers/SwcServiceCanSM -I../source/wrappers/SwcServiceCanTp -I../source/wrappers/SwcServiceCanTp_PreCompile -I../source/wrappers/SwcServiceCom -I../source/wrappers/SwcServiceComM -I../source/wrappers/SwcServiceComStack -I../source/wrappers/SwcServiceDcm -I../source/wrappers/SwcServicePduR -I../source/wrappers/SwcServiceEcuM -I../source/wrappers/Bfx -I../source/wrappers/SwcServiceDem -I../source/SwcServiceDet -I../source/SwcServiceFiM -I../source/wrappers/LibAutosarDiag -I../source/wrappers/rba_BswSrv -I../source/SwcServiceSchM -I../source/wrappers/SwcServiceComM/Integration -I../source/wrappers/SwcServicePduR/Integration -I../source/wrappers/EcuabCanIf/Integration -I../source/wrappers/SwcServiceCom/Integration -I../source/wrappers/SwcServiceCanTp/Integration -I../source/wrappers/SwcServiceEcuM/Integration -I../source/SwcServiceDet/Integration -I../source/wrappers/SwcServiceDcm/Integration -I../source/wrappers/SwcServiceDem/Integration -I../source/SwcServiceFiM/Integration -I../source/wrappers/EcuabCanIf/api -I../source/wrappers/SwcServiceCom/api -I../source/wrappers/SwcServiceComM/api -I../source/wrappers/SwcServicePduR/api -I../source/wrappers/Bfx/api -I../source/SwcServiceDet/api -I../source/SwcServiceFiM/api -I../source/wrappers/LibAutosarDiag/api -I../source/wrappers/rba_BswSrv/api -IC:\ghs\comp_201517\lib\rh850 -cg_underscore -cpu=rh850g3k -no_v850_simd -rh850_fpsimd=none -nomacro -patch_dbo=C:\_ECU2\ECU_Rivian_A1\Target\repo_projects\pRealEcu\cL_R2023.09.01\make\output\objects\busmsg.dbo -source=busmsg.c -o output\objects\gh_00006oo1.o -list=output\list\busmsg.lst C:\Users\nhuliyap\AppData\Local\Temp\gh_00006oo1.s 
Original File: C:\Users\nhuliyap\AppData\Local\Temp\gh_00006oo1.s
Source File: busmsg.c
Directory: C:\_ECU2\ECU_Rivian_A1\Target\repo_projects\pRealEcu\cL_R2023.09.01\make
Host OS: Windows
EASE: Copyright (C) 1983-2015 Green Hills Software.  All Rights Reserved.
Release: Compiler v2015.1.7
Build Directory: [Directory] BTOWORKER6:c:/build_2015_1_bto/2015-10-21.2100-2015_1_bto/win32-comp-ecom
Revision: [VCInfo] http://toolsvc/branches/release-branch-70-bto/src@544153 (built by build)
Revision Date: Thu Oct 22 07:50:13 2015

Release Date: Thu Oct 22 09:32:32 2015

                           1 --Driver Command: ccv850 ../source/SwcApplTpms/busmsg.c -cpu=rh850 -fhard
                           2 --		-ignore_callt_state_in_interrupts -large_sda -misalign_pack
                           3 --		-nofarcalls -nofloatio -no_callt -Ogeneral -Onounroll
                           4 --		-prepare_dispose -registermode=32 -reserve_r2 -sda=0
                           5 --		-shorten_loads -Wshadow --brief_diagnostics --no_commons
                           6 --		--no_wrap_diagnostics --prototype_errors --short_enum -list -G
                           7 --		-dual_debug -dwarf -X5523 -lnk=-no_xda_modifications -D
                           8 --		NOT_READY_FOR_TESTING_OR_DEPLOYMENT -D IBTCM_SW_ANPASSUNGEN -D
                           9 --		BUILD_LORDSTOWN -c -inline_prologue -I../source/common
                          10 --		-I../source/ProjectCompiler -I../source/ProjectCfg
                          11 --		-I../source/SwcApplTpms -I../source/SwcApplTpms/Intface
                          12 --		-I../source/SwcApplEcuM -I../source/SwcServiceEcuM
                          13 --		-I../source/SwcServiceNvM -I../source/SwcServiceOs
                          14 --		-I../source/SwcServiceStartUp -I../source/McalAdc
                          15 --		-I../source/McalDio -I../source/McalGpt -I../source/McalMcu
                          16 --		-I../source/McalWdg -I../source/wrappers
                          17 --		-I../source/wrappers/McalAta -I../source/McalLin
                          18 --		-I../source/McalCan -I../source/wrappers/OS -I../source/McalFls
                          19 --		-I../source/EcuabFee -I../source/EcuabMemIf
                          20 --		-I../source/wrappers/VStdLib -I../source/wrappers
                          21 --		-I../source/wrappers/Crc -I../source/wrappers/FBL_APPL
                          22 --		-I../source/wrappers/CAN_MANAGER -I../source/wrappers/NVM_MANAGER
                          23 --		-I../source/wrappers/DEM_MANAGER -I../source/wrappers/RDC_MANAGER
                          24 --		-I../source/wrappers/ENV_MANAGER -I../source/wrappers/SYS_MANAGER
                          25 --		-I../source/wrappers/EcuabCanIf
                          26 --		-I../source/wrappers/SwcServiceCanSM
                          27 --		-I../source/wrappers/SwcServiceCanTp
                          28 --		-I../source/wrappers/SwcServiceCanTp_PreCompile
                          29 --		-I../source/wrappers/SwcServiceCom
                          30 --		-I../source/wrappers/SwcServiceComM
                          31 --		-I../source/wrappers/SwcServiceComStack
                          32 --		-I../source/wrappers/SwcServiceDcm
                          33 --		-I../source/wrappers/SwcServicePduR
                          34 --		-I../source/wrappers/SwcServiceEcuM -I../source/wrappers/Bfx
                          35 --		-I../source/wrappers/SwcServiceDem -I../source/SwcServiceDet
                          36 --		-I../source/SwcServiceFiM -I../source/wrappers/LibAutosarDiag
                          37 --		-I../source/wrappers/rba_BswSrv -I../source/SwcServiceSchM
                          38 --		-I../source/wrappers/SwcServiceComM/Integration
                          39 --		-I../source/wrappers/SwcServicePduR/Integration
                          40 --		-I../source/wrappers/EcuabCanIf/Integration
                          41 --		-I../source/wrappers/SwcServiceCom/Integration
                          42 --		-I../source/wrappers/SwcServiceCanTp/Integration
                          43 --		-I../source/wrappers/SwcServiceEcuM/Integration
                          44 --		-I../source/SwcServiceDet/Integration
                          45 --		-I../source/wrappers/SwcServiceDcm/Integration
                          46 --		-I../source/wrappers/SwcServiceDem/Integration
                          47 --		-I../source/SwcServiceFiM/Integration
                          48 --		-I../source/wrappers/EcuabCanIf/api
                          49 --		-I../source/wrappers/SwcServiceCom/api
                          50 --		-I../source/wrappers/SwcServiceComM/api

                                                                      Page 2
                                                              C:\Users\nhuliyap\AppData\Local\Temp\gh_00006oo1.s
                          51 --		-I../source/wrappers/SwcServicePduR/api
                          52 --		-I../source/wrappers/Bfx/api -I../source/SwcServiceDet/api
                          53 --		-I../source/SwcServiceFiM/api
                          54 --		-I../source/wrappers/LibAutosarDiag/api
                          55 --		-I../source/wrappers/rba_BswSrv/api -object_dir=output/objects
                          56 --		-list_dir=output/list
                          57 --Source File:   ../source/SwcApplTpms/busmsg.c
                          58 --Directory:     
                          59 --		C:\_ECU2\ECU_Rivian_A1\Target\repo_projects\pRealEcu\cL_R2023.09.01\make
                          60 --Compile Date:  Wed Sep 06 08:49:49 2023
                          61 --Host OS:       Win32
                          62 --Version:       C-RH850 2015.1.7 RELEASE VERSION
                          63 --Release:       Compiler v2015.1.7
                          64 --Revision Date: Thu Oct 22 08:06:12 2015
                          65 --Release Date:  Thu Oct 22 09:34:32 2015
                          66 -- ecom  -g -w -OM
                          67 	.text
                          68 ..bof.C.3A.5C_ECU2.5CECU_Rivian_A1.5CTarget.5Crepo_projects.5CpRealEcu.5CcL_R2023.2E09.2E01.5Cmake.5Coutput.5Cobjects.5Cbusmsg...43.3A.5C_ECU2.5CECU_Rivian_A1.5CTarget.5Crepo_projects.5CpRealEcu.5CcL_R2023.2E09.2E01.5Cmake..64F8210D..0::
                          69 	.align	2
                          70 ..gh.f.f.1.e.0:
                          71 	.type	..gh.f.f.1.e.0,@object
                          72 	.size	..gh.f.f.1.e.0,0
                          73 	.global	_BusMsgInit
                          74 _BusMsgInit:
                          75 --	    .bf
                          76 .LDW01:
00000000 008a             77 	mov	0,r17
                          78 .L6:
00000002 320600000000*    79 	mov	.L48,r18
                          80 --line86
                          81 ..lin.C.3A.5C_ECU2.5CECU_Rivian_A1.5CTarget.5Crepo_projects.5CpRealEcu.5CcL_R2023.2E09.2E01.5Cmake.5Coutput.5Cobjects.5Cbusmsg.1::
                          82 .LDWlin1:
00000008 11f0             83 	mov	r17,ep
0000000a d2f1             84 	add	r18,ep
0000000c 1f7a             85 	mov	-1,r15
0000000e 418a             86 	add	1,r17
00000010 847b             87 	sst.b	r15,4[ep]
00000012 8803             88 	sst.b	zero,8[ep]
00000014 807b             89 	sst.b	r15,0[ep]
00000016 648a             90 	cmp	4,r17
00000018 d1f5*            91 	bl	.L6
                          92 --line91
                          93 ..lin.C.3A.5C_ECU2.5CECU_Rivian_A1.5CTarget.5Crepo_projects.5CpRealEcu.5CcL_R2023.2E09.2E01.5Cmake.5Coutput.5Cobjects.5Cbusmsg.2::
                          94 .LDWlin2:
0000001a 0182             95 	mov	1,r16
0000001c 12f0             96 	mov	r18,ep
0000001e 9583             97 	sst.b	r16,21[ep]
00000020 9683             98 	sst.b	r16,22[ep]
00000022 9783             99 	sst.b	r16,23[ep]
00000024 9883            100 	sst.b	r16,24[ep]
00000026 9403            101 	sst.b	zero,20[ep]
00000028 008a            102 	mov	0,r17
                         103 .L9:
0000002a 11f0            104 	mov	r17,ep
0000002c d2f1            105 	add	r18,ep
0000002e 418a            106 	add	1,r17
00000030 8c03            107 	sst.b	zero,12[ep]
00000032 668a            108 	cmp	6,r17
00000034 b1fd*           109 	bl	.L9
                         110 --	    .ef
                         111 .LDW11:

                                                                      Page 3
                                                              C:\Users\nhuliyap\AppData\Local\Temp\gh_00006oo1.s
                         112 --line102
                         113 ..lin.C.3A.5C_ECU2.5CECU_Rivian_A1.5CTarget.5Crepo_projects.5CpRealEcu.5CcL_R2023.2E09.2E01.5Cmake.5Coutput.5Cobjects.5Cbusmsg.3::
                         114 .LDWlin3:
00000036 7f00            115 	jmp	[lp]
                         116 	.global	___ghs_eofn_BusMsgInit
                         117 ___ghs_eofn_BusMsgInit:
                         118 	.type	_BusMsgInit,@function
                         119 	.size	_BusMsgInit,.-_BusMsgInit
                         120 	.align	2
                         121 --_i	r17	local
                         122 
                         123 	.section ".bss","awb"
                         124 	.align	4
                         125 .L48:
                         126 	.type	.L48,@object
                         127 	.size	.L48,0
                         128 	.global	_ucTyreTemperature..C.3A.5C_ECU2.5CECU_Rivian_A1.5CTarget.5Crepo_projects.5CpRealEcu.5CcL_R2023.2E09.2E01.5Cmake.5Coutput.5Cobjects.5Cbusmsg.
                         129 _ucTyreTemperature..C.3A.5C_ECU2.5CECU_Rivian_A1.5CTarget.5Crepo_projects.5CpRealEcu.5CcL_R2023.2E09.2E01.5Cmake.5Coutput.5Cobjects.5Cbusmsg.:
00000000 00000000        130 _ucTyreTemperature:	.space	4
                         131 	.type	_ucTyreTemperature..C.3A.5C_ECU2.5CECU_Rivian_A1.5CTarget.5Crepo_projects.5CpRealEcu.5CcL_R2023.2E09.2E01.5Cmake.5Coutput.5Cobjects.5Cbusmsg.,@object
                         132 	.size	_ucTyreTemperature..C.3A.5C_ECU2.5CECU_Rivian_A1.5CTarget.5Crepo_projects.5CpRealEcu.5CcL_R2023.2E09.2E01.5Cmake.5Coutput.5Cobjects.5Cbusmsg.,4
                         133 	.type	_ucTyreTemperature,@object
                         134 	.size	_ucTyreTemperature,4
                         135 	.global	_ucTyrePressUncomp..C.3A.5C_ECU2.5CECU_Rivian_A1.5CTarget.5Crepo_projects.5CpRealEcu.5CcL_R2023.2E09.2E01.5Cmake.5Coutput.5Cobjects.5Cbusmsg.
                         136 _ucTyrePressUncomp..C.3A.5C_ECU2.5CECU_Rivian_A1.5CTarget.5Crepo_projects.5CpRealEcu.5CcL_R2023.2E09.2E01.5Cmake.5Coutput.5Cobjects.5Cbusmsg.:
00000004 00000000        137 _ucTyrePressUncomp:	.space	4
                         138 	.type	_ucTyrePressUncomp..C.3A.5C_ECU2.5CECU_Rivian_A1.5CTarget.5Crepo_projects.5CpRealEcu.5CcL_R2023.2E09.2E01.5Cmake.5Coutput.5Cobjects.5Cbusmsg.,@object
                         139 	.size	_ucTyrePressUncomp..C.3A.5C_ECU2.5CECU_Rivian_A1.5CTarget.5Crepo_projects.5CpRealEcu.5CcL_R2023.2E09.2E01.5Cmake.5Coutput.5Cobjects.5Cbusmsg.,4
                         140 	.type	_ucTyrePressUncomp,@object
                         141 	.size	_ucTyrePressUncomp,4
                         142 	.global	_ucTyreWarning..C.3A.5C_ECU2.5CECU_Rivian_A1.5CTarget.5Crepo_projects.5CpRealEcu.5CcL_R2023.2E09.2E01.5Cmake.5Coutput.5Cobjects.5Cbusmsg.
                         143 _ucTyreWarning..C.3A.5C_ECU2.5CECU_Rivian_A1.5CTarget.5Crepo_projects.5CpRealEcu.5CcL_R2023.2E09.2E01.5Cmake.5Coutput.5Cobjects.5Cbusmsg.:
00000008 00000000        144 _ucTyreWarning:	.space	4
                         145 	.type	_ucTyreWarning..C.3A.5C_ECU2.5CECU_Rivian_A1.5CTarget.5Crepo_projects.5CpRealEcu.5CcL_R2023.2E09.2E01.5Cmake.5Coutput.5Cobjects.5Cbusmsg.,@object
                         146 	.size	_ucTyreWarning..C.3A.5C_ECU2.5CECU_Rivian_A1.5CTarget.5Crepo_projects.5CpRealEcu.5CcL_R2023.2E09.2E01.5Cmake.5Coutput.5Cobjects.5Cbusmsg.,4
                         147 	.type	_ucTyreWarning,@object
                         148 	.size	_ucTyreWarning,4
                         149 	.global	_bTextFlags..C.3A.5C_ECU2.5CECU_Rivian_A1.5CTarget.5Crepo_projects.5CpRealEcu.5CcL_R2023.2E09.2E01.5Cmake.5Coutput.5Cobjects.5Cbusmsg.
                         150 _bTextFlags..C.3A.5C_ECU2.5CECU_Rivian_A1.5CTarget.5Crepo_projects.5CpRealEcu.5CcL_R2023.2E09.2E01.5Cmake.5Coutput.5Cobjects.5Cbusmsg.:
0000000c 000000000000    151 _bTextFlags:	.space	6
00000012 0000            152 	.space	2
                         153 	.type	_bTextFlags..C.3A.5C_ECU2.5CECU_Rivian_A1.5CTarget.5Crepo_projects.5CpRealEcu.5CcL_R2023.2E09.2E01.5Cmake.5Coutput.5Cobjects.5Cbusmsg.,@object
                         154 	.size	_bTextFlags..C.3A.5C_ECU2.5CECU_Rivian_A1.5CTarget.5Crepo_projects.5CpRealEcu.5CcL_R2023.2E09.2E01.5Cmake.5Coutput.5Cobjects.5Cbusmsg.,8
                         155 	.type	_bTextFlags,@object
                         156 	.size	_bTextFlags,8
                         157 	.global	_ucTyreTemperatureWarning..C.3A.5C_ECU2.5CECU_Rivian_A1.5CTarget.5Crepo_projects.5CpRealEcu.5CcL_R2023.2E09.2E01.5Cmake.5Coutput.5Cobjects.5Cbusmsg.
                         158 _ucTyreTemperatureWarning..C.3A.5C_ECU2.5CECU_Rivian_A1.5CTarget.5Crepo_projects.5CpRealEcu.5CcL_R2023.2E09.2E01.5Cmake.5Coutput.5Cobjects.5Cbusmsg.:
00000014 00              159 _ucTyreTemperatureWarning:	.space	1
                         160 	.type	_ucTyreTemperatureWarning..C.3A.5C_ECU2.5CECU_Rivian_A1.5CTarget.5Crepo_projects.5CpRealEcu.5CcL_R2023.2E09.2E01.5Cmake.5Coutput.5Cobjects.5Cbusmsg.,@object
                         161 	.size	_ucTyreTemperatureWarning..C.3A.5C_ECU2.5CECU_Rivian_A1.5CTarget.5Crepo_projects.5CpRealEcu.5CcL_R2023.2E09.2E01.5Cmake.5Coutput.5Cobjects.5Cbusmsg.,1
                         162 	.type	_ucTyreTemperatureWarning,@object
                         163 	.size	_ucTyreTemperatureWarning,1
                         164 	.global	_bTyreValidVL..C.3A.5C_ECU2.5CECU_Rivian_A1.5CTarget.5Crepo_projects.5CpRealEcu.5CcL_R2023.2E09.2E01.5Cmake.5Coutput.5Cobjects.5Cbusmsg.
                         165 _bTyreValidVL..C.3A.5C_ECU2.5CECU_Rivian_A1.5CTarget.5Crepo_projects.5CpRealEcu.5CcL_R2023.2E09.2E01.5Cmake.5Coutput.5Cobjects.5Cbusmsg.:
00000015 00              166 _bTyreValidVL:	.space	1
                         167 	.type	_bTyreValidVL..C.3A.5C_ECU2.5CECU_Rivian_A1.5CTarget.5Crepo_projects.5CpRealEcu.5CcL_R2023.2E09.2E01.5Cmake.5Coutput.5Cobjects.5Cbusmsg.,@object
                         168 	.size	_bTyreValidVL..C.3A.5C_ECU2.5CECU_Rivian_A1.5CTarget.5Crepo_projects.5CpRealEcu.5CcL_R2023.2E09.2E01.5Cmake.5Coutput.5Cobjects.5Cbusmsg.,1
                         169 	.type	_bTyreValidVL,@object
                         170 	.size	_bTyreValidVL,1
                         171 	.global	_bTyreValidVR..C.3A.5C_ECU2.5CECU_Rivian_A1.5CTarget.5Crepo_projects.5CpRealEcu.5CcL_R2023.2E09.2E01.5Cmake.5Coutput.5Cobjects.5Cbusmsg.
                         172 _bTyreValidVR..C.3A.5C_ECU2.5CECU_Rivian_A1.5CTarget.5Crepo_projects.5CpRealEcu.5CcL_R2023.2E09.2E01.5Cmake.5Coutput.5Cobjects.5Cbusmsg.:

                                                                      Page 4
                                                              C:\Users\nhuliyap\AppData\Local\Temp\gh_00006oo1.s
00000016 00              173 _bTyreValidVR:	.space	1
                         174 	.type	_bTyreValidVR..C.3A.5C_ECU2.5CECU_Rivian_A1.5CTarget.5Crepo_projects.5CpRealEcu.5CcL_R2023.2E09.2E01.5Cmake.5Coutput.5Cobjects.5Cbusmsg.,@object
                         175 	.size	_bTyreValidVR..C.3A.5C_ECU2.5CECU_Rivian_A1.5CTarget.5Crepo_projects.5CpRealEcu.5CcL_R2023.2E09.2E01.5Cmake.5Coutput.5Cobjects.5Cbusmsg.,1
                         176 	.type	_bTyreValidVR,@object
                         177 	.size	_bTyreValidVR,1
                         178 	.global	_bTyreValidHL..C.3A.5C_ECU2.5CECU_Rivian_A1.5CTarget.5Crepo_projects.5CpRealEcu.5CcL_R2023.2E09.2E01.5Cmake.5Coutput.5Cobjects.5Cbusmsg.
                         179 _bTyreValidHL..C.3A.5C_ECU2.5CECU_Rivian_A1.5CTarget.5Crepo_projects.5CpRealEcu.5CcL_R2023.2E09.2E01.5Cmake.5Coutput.5Cobjects.5Cbusmsg.:
00000017 00              180 _bTyreValidHL:	.space	1
                         181 	.type	_bTyreValidHL..C.3A.5C_ECU2.5CECU_Rivian_A1.5CTarget.5Crepo_projects.5CpRealEcu.5CcL_R2023.2E09.2E01.5Cmake.5Coutput.5Cobjects.5Cbusmsg.,@object
                         182 	.size	_bTyreValidHL..C.3A.5C_ECU2.5CECU_Rivian_A1.5CTarget.5Crepo_projects.5CpRealEcu.5CcL_R2023.2E09.2E01.5Cmake.5Coutput.5Cobjects.5Cbusmsg.,1
                         183 	.type	_bTyreValidHL,@object
                         184 	.size	_bTyreValidHL,1
                         185 	.global	_bTyreValidHR..C.3A.5C_ECU2.5CECU_Rivian_A1.5CTarget.5Crepo_projects.5CpRealEcu.5CcL_R2023.2E09.2E01.5Cmake.5Coutput.5Cobjects.5Cbusmsg.
                         186 _bTyreValidHR..C.3A.5C_ECU2.5CECU_Rivian_A1.5CTarget.5Crepo_projects.5CpRealEcu.5CcL_R2023.2E09.2E01.5Cmake.5Coutput.5Cobjects.5Cbusmsg.:
00000018 00              187 _bTyreValidHR:	.space	1
                         188 	.type	_bTyreValidHR..C.3A.5C_ECU2.5CECU_Rivian_A1.5CTarget.5Crepo_projects.5CpRealEcu.5CcL_R2023.2E09.2E01.5Cmake.5Coutput.5Cobjects.5Cbusmsg.,@object
                         189 	.size	_bTyreValidHR..C.3A.5C_ECU2.5CECU_Rivian_A1.5CTarget.5Crepo_projects.5CpRealEcu.5CcL_R2023.2E09.2E01.5Cmake.5Coutput.5Cobjects.5Cbusmsg.,1
                         190 	.type	_bTyreValidHR,@object
                         191 	.size	_bTyreValidHR,1
                         192 	.data
                         193 	.text
                         194 	.align	2
                         195 	.align	2
                         196 ..gh.f.f.1.e.1:
                         197 	.type	..gh.f.f.1.e.1,@object
                         198 	.size	..gh.f.f.1.e.1,0
                         199 	.global	_BusMsgClr
                         200 _BusMsgClr:
                         201 --	    .bf
                         202 .LDW21:
00000038 008a            203 	mov	0,r17
                         204 .L104:
0000003a 320600000000*   205 	mov	_ucTyrePressUncomp,r18
                         206 --line109
                         207 ..lin.C.3A.5C_ECU2.5CECU_Rivian_A1.5CTarget.5Crepo_projects.5CpRealEcu.5CcL_R2023.2E09.2E01.5Cmake.5Coutput.5Cobjects.5Cbusmsg.4::
                         208 .LDWlin4:
00000040 11f0            209 	mov	r17,ep
00000042 d2f1            210 	add	r18,ep
00000044 1f72            211 	mov	-1,r14
00000046 418a            212 	add	1,r17
00000048 8073            213 	sst.b	r14,0[ep]
0000004a 8403            214 	sst.b	zero,4[ep]
0000004c 648a            215 	cmp	4,r17
0000004e e1f5*           216 	bl	.L104
                         217 --line113
                         218 ..lin.C.3A.5C_ECU2.5CECU_Rivian_A1.5CTarget.5Crepo_projects.5CpRealEcu.5CcL_R2023.2E09.2E01.5Cmake.5Coutput.5Cobjects.5Cbusmsg.5::
                         219 .LDWlin5:
00000050 0182            220 	mov	1,r16
00000052 12f0            221 	mov	r18,ep
00000054 9183            222 	sst.b	r16,17[ep]
00000056 9283            223 	sst.b	r16,18[ep]
00000058 9383            224 	sst.b	r16,19[ep]
0000005a 9483            225 	sst.b	r16,20[ep]
0000005c 008a            226 	mov	0,r17
                         227 .L107:
0000005e 11f0            228 	mov	r17,ep
00000060 d2f1            229 	add	r18,ep
00000062 418a            230 	add	1,r17
00000064 8803            231 	sst.b	zero,8[ep]
00000066 668a            232 	cmp	6,r17
00000068 b1fd*           233 	bl	.L107

                                                                      Page 5
                                                              C:\Users\nhuliyap\AppData\Local\Temp\gh_00006oo1.s
                         234 --line123
                         235 ..lin.C.3A.5C_ECU2.5CECU_Rivian_A1.5CTarget.5Crepo_projects.5CpRealEcu.5CcL_R2023.2E09.2E01.5Cmake.5Coutput.5Cobjects.5Cbusmsg.6::
                         236 .LDWlin6:
0000006a 0932            237 	mov	9,r6
0000006c 80070000*       238 	jr	_SilaPutState
                         239 --	    .ef
                         240 .LDW31:
                         241 	.global	___ghs_eofn_BusMsgClr
                         242 ___ghs_eofn_BusMsgClr:
                         243 	.type	_BusMsgClr,@function
                         244 	.size	_BusMsgClr,.-_BusMsgClr
                         245 	.align	2
                         246 --_i	r17	local
                         247 
                         248 	.data
                         249 	.text
                         250 	.align	2
                         251 	.align	2
                         252 ..gh.f.f.1.e.2:
                         253 	.type	..gh.f.f.1.e.2,@object
                         254 	.size	..gh.f.f.1.e.2,0
                         255 	.global	_BusMsgTemperatureClear
                         256 _BusMsgTemperatureClear:
                         257 --	    .bf
                         258 .LDW41:
00000070 008a            259 	mov	0,r17
                         260 .L212:
00000072 320600000000*   261 	mov	_ucTyreTemperature,r18
                         262 --line131
                         263 ..lin.C.3A.5C_ECU2.5CECU_Rivian_A1.5CTarget.5Crepo_projects.5CpRealEcu.5CcL_R2023.2E09.2E01.5Cmake.5Coutput.5Cobjects.5Cbusmsg.7::
                         264 .LDWlin7:
00000078 11f0            265 	mov	r17,ep
0000007a d2f1            266 	add	r18,ep
0000007c 1f7a            267 	mov	-1,r15
0000007e 418a            268 	add	1,r17
00000080 807b            269 	sst.b	r15,0[ep]
00000082 648a            270 	cmp	4,r17
00000084 f1f5*           271 	bl	.L212
00000086 008a            272 	mov	0,r17
                         273 .L215:
                         274 --line136
                         275 ..lin.C.3A.5C_ECU2.5CECU_Rivian_A1.5CTarget.5Crepo_projects.5CpRealEcu.5CcL_R2023.2E09.2E01.5Cmake.5Coutput.5Cobjects.5Cbusmsg.8::
                         276 .LDWlin8:
00000088 11f0            277 	mov	r17,ep
0000008a d2f1            278 	add	r18,ep
0000008c 418a            279 	add	1,r17
0000008e 8c03            280 	sst.b	zero,12[ep]
00000090 668a            281 	cmp	6,r17
00000092 b1fd*           282 	bl	.L215
                         283 --	    .ef
                         284 .LDW51:
                         285 --line138
                         286 ..lin.C.3A.5C_ECU2.5CECU_Rivian_A1.5CTarget.5Crepo_projects.5CpRealEcu.5CcL_R2023.2E09.2E01.5Cmake.5Coutput.5Cobjects.5Cbusmsg.9::
                         287 .LDWlin9:
00000094 7f00            288 	jmp	[lp]
                         289 	.global	___ghs_eofn_BusMsgTemperatureClear
                         290 ___ghs_eofn_BusMsgTemperatureClear:
                         291 	.type	_BusMsgTemperatureClear,@function
                         292 	.size	_BusMsgTemperatureClear,.-_BusMsgTemperatureClear
                         293 	.align	2
                         294 --_U8_Counter	r17	local

                                                                      Page 6
                                                              C:\Users\nhuliyap\AppData\Local\Temp\gh_00006oo1.s
                         295 
                         296 	.data
                         297 	.text
                         298 	.align	2
                         299 	.align	2
                         300 ..gh.f.f.1.e.3:
                         301 	.type	..gh.f.f.1.e.3,@object
                         302 	.size	..gh.f.f.1.e.3,0
                         303 	.global	_BusMsgPutTemperature
                         304 _BusMsgPutTemperature:
00000096 8600            305 	zxb	r6
                         306 --	    .bf
                         307 .LDW61:
00000098 6432            308 	cmp	4,r6
0000009a e905*           309 	bnl	.L303
                         310 --line145
                         311 ..lin.C.3A.5C_ECU2.5CECU_Rivian_A1.5CTarget.5Crepo_projects.5CpRealEcu.5CcL_R2023.2E09.2E01.5Cmake.5Coutput.5Cobjects.5Cbusmsg.10::
                         312 .LDWlin10:
0000009c 3e0600000000*   313 	mov	_ucTyreTemperature,ep
000000a2 c6f1            314 	add	r6,ep
000000a4 803b            315 	sst.b	r7,0[ep]
                         316 .L303:
                         317 --	    .ef
                         318 .LDW71:
                         319 --line147
                         320 ..lin.C.3A.5C_ECU2.5CECU_Rivian_A1.5CTarget.5Crepo_projects.5CpRealEcu.5CcL_R2023.2E09.2E01.5Cmake.5Coutput.5Cobjects.5Cbusmsg.11::
                         321 .LDWlin11:
000000a6 7f00            322 	jmp	[lp]
                         323 	.global	___ghs_eofn_BusMsgPutTemperature
                         324 ___ghs_eofn_BusMsgPutTemperature:
                         325 	.type	_BusMsgPutTemperature,@function
                         326 	.size	_BusMsgPutTemperature,.-_BusMsgPutTemperature
                         327 	.align	2
                         328 
                         329 --_ucId	r6	param
                         330 --_ucTemperature	r7	param
                         331 
                         332 	.data
                         333 	.text
                         334 	.align	2
                         335 	.align	2
                         336 ..gh.f.f.1.e.4:
                         337 	.type	..gh.f.f.1.e.4,@object
                         338 	.size	..gh.f.f.1.e.4,0
                         339 	.global	_BusMsgGetTemperature
                         340 _BusMsgGetTemperature:
000000a8 8600            341 	zxb	r6
                         342 --	    .bf
                         343 .LDW81:
000000aa 6432            344 	cmp	4,r6
000000ac f905*           345 	bnl	.L379
                         346 --line155
                         347 ..lin.C.3A.5C_ECU2.5CECU_Rivian_A1.5CTarget.5Crepo_projects.5CpRealEcu.5CcL_R2023.2E09.2E01.5Cmake.5Coutput.5Cobjects.5Cbusmsg.12::
                         348 .LDWlin12:
000000ae 3e0600000000*   349 	mov	_ucTyreTemperature,ep
000000b4 c6f1            350 	add	r6,ep
000000b6 6050            351 	sld.bu	0[ep],r10
000000b8 7f00            352 	jmp	[lp]
                         353 .L379:
000000ba 2056ff00        354 	movea	255,zero,r10
                         355 --	    .ef

                                                                      Page 7
                                                              C:\Users\nhuliyap\AppData\Local\Temp\gh_00006oo1.s
                         356 .LDW91:
                         357 --line161
                         358 ..lin.C.3A.5C_ECU2.5CECU_Rivian_A1.5CTarget.5Crepo_projects.5CpRealEcu.5CcL_R2023.2E09.2E01.5Cmake.5Coutput.5Cobjects.5Cbusmsg.13::
                         359 .LDWlin13:
000000be 7f00            360 	jmp	[lp]
                         361 	.global	___ghs_eofn_BusMsgGetTemperature
                         362 ___ghs_eofn_BusMsgGetTemperature:
                         363 	.type	_BusMsgGetTemperature,@function
                         364 	.size	_BusMsgGetTemperature,.-_BusMsgGetTemperature
                         365 	.align	2
                         366 --_U8_Temperature	r10	local
                         367 
                         368 --_ucId	r6	param
                         369 
                         370 	.data
                         371 	.text
                         372 	.align	2
                         373 	.align	2
                         374 ..gh.f.f.1.e.5:
                         375 	.type	..gh.f.f.1.e.5,@object
                         376 	.size	..gh.f.f.1.e.5,0
                         377 	.global	_BusMsgPutTyrePressUncomp
                         378 _BusMsgPutTyrePressUncomp:
000000c0 8600            379 	zxb	r6
                         380 --	    .bf
                         381 .LDW02:
000000c2 6432            382 	cmp	4,r6
000000c4 e905*           383 	bnl	.L458
                         384 --line169
                         385 ..lin.C.3A.5C_ECU2.5CECU_Rivian_A1.5CTarget.5Crepo_projects.5CpRealEcu.5CcL_R2023.2E09.2E01.5Cmake.5Coutput.5Cobjects.5Cbusmsg.14::
                         386 .LDWlin14:
000000c6 3e0600000000*   387 	mov	_ucTyrePressUncomp,ep
000000cc c6f1            388 	add	r6,ep
000000ce 803b            389 	sst.b	r7,0[ep]
                         390 .L458:
                         391 --	    .ef
                         392 .LDW12:
                         393 --line171
                         394 ..lin.C.3A.5C_ECU2.5CECU_Rivian_A1.5CTarget.5Crepo_projects.5CpRealEcu.5CcL_R2023.2E09.2E01.5Cmake.5Coutput.5Cobjects.5Cbusmsg.15::
                         395 .LDWlin15:
000000d0 7f00            396 	jmp	[lp]
                         397 	.global	___ghs_eofn_BusMsgPutTyrePressUncomp
                         398 ___ghs_eofn_BusMsgPutTyrePressUncomp:
                         399 	.type	_BusMsgPutTyrePressUncomp,@function
                         400 	.size	_BusMsgPutTyrePressUncomp,.-_BusMsgPutTyrePressUncomp
                         401 	.align	2
                         402 
                         403 --_ucId	r6	param
                         404 --_ucpress	r7	param
                         405 
                         406 	.data
                         407 	.text
                         408 	.align	2
                         409 	.align	2
                         410 ..gh.f.f.1.e.6:
                         411 	.type	..gh.f.f.1.e.6,@object
                         412 	.size	..gh.f.f.1.e.6,0
                         413 	.global	_BusMsgGetTyrePressUncomp
                         414 _BusMsgGetTyrePressUncomp:
000000d2 8600            415 	zxb	r6
                         416 --	    .bf

                                                                      Page 8
                                                              C:\Users\nhuliyap\AppData\Local\Temp\gh_00006oo1.s
                         417 .LDW22:
000000d4 2056ff00        418 	movea	255,zero,r10
000000d8 6432            419 	cmp	4,r6
000000da e905*           420 	bnl	.L519
                         421 --line178
                         422 ..lin.C.3A.5C_ECU2.5CECU_Rivian_A1.5CTarget.5Crepo_projects.5CpRealEcu.5CcL_R2023.2E09.2E01.5Cmake.5Coutput.5Cobjects.5Cbusmsg.16::
                         423 .LDWlin16:
000000dc 3e0600000000*   424 	mov	_ucTyrePressUncomp,ep
000000e2 c6f1            425 	add	r6,ep
000000e4 6050            426 	sld.bu	0[ep],r10
                         427 .L519:
                         428 --	    .ef
                         429 .LDW32:
                         430 --line182
                         431 ..lin.C.3A.5C_ECU2.5CECU_Rivian_A1.5CTarget.5Crepo_projects.5CpRealEcu.5CcL_R2023.2E09.2E01.5Cmake.5Coutput.5Cobjects.5Cbusmsg.17::
                         432 .LDWlin17:
000000e6 7f00            433 	jmp	[lp]
                         434 	.global	___ghs_eofn_BusMsgGetTyrePressUncomp
                         435 ___ghs_eofn_BusMsgGetTyrePressUncomp:
                         436 	.type	_BusMsgGetTyrePressUncomp,@function
                         437 	.size	_BusMsgGetTyrePressUncomp,.-_BusMsgGetTyrePressUncomp
                         438 	.align	2
                         439 
                         440 --_ucId	r6	param
                         441 
                         442 	.data
                         443 	.text
                         444 	.align	2
                         445 	.align	2
                         446 ..gh.f.f.1.e.7:
                         447 	.type	..gh.f.f.1.e.7,@object
                         448 	.size	..gh.f.f.1.e.7,0
                         449 	.global	_BusMsgPutTemperatureWarning
                         450 _BusMsgPutTemperatureWarning:
000000e8 320600000000*   451 	mov	_ucTyreTemperatureWarning,r18
                         452 --	    .bf
                         453 .LDW42:
                         454 --line187
                         455 ..lin.C.3A.5C_ECU2.5CECU_Rivian_A1.5CTarget.5Crepo_projects.5CpRealEcu.5CcL_R2023.2E09.2E01.5Cmake.5Coutput.5Cobjects.5Cbusmsg.18::
                         456 .LDWlin18:
000000ee 019a            457 	mov	1,r19
000000f0 928f0100        458 	ld.bu	0[r18],r17
000000f4 d83a            459 	shl	24,r7
000000f6 d205*           460 	be	.L599
                         461 --line189
                         462 ..lin.C.3A.5C_ECU2.5CECU_Rivian_A1.5CTarget.5Crepo_projects.5CpRealEcu.5CcL_R2023.2E09.2E01.5Cmake.5Coutput.5Cobjects.5Cbusmsg.19::
                         463 .LDWlin19:
000000f8 e69fc230        464 	shl	r6,r19,r6
000000fc 0689            465 	or	r6,r17
000000fe d505*           466 	br	.L597
                         467 .L599:
                         468 --line192
                         469 ..lin.C.3A.5C_ECU2.5CECU_Rivian_A1.5CTarget.5Crepo_projects.5CpRealEcu.5CcL_R2023.2E09.2E01.5Cmake.5Coutput.5Cobjects.5Cbusmsg.20::
                         470 .LDWlin20:
00000100 e69fc298        471 	shl	r6,r19,r19
00000104 3380            472 	not	r19,r16
00000106 5089            473 	and	r16,r17
                         474 .L597:
00000108 528f0000        475 	st.b	r17,0[r18]
                         476 --	    .ef
                         477 .LDW52:

                                                                      Page 9
                                                              C:\Users\nhuliyap\AppData\Local\Temp\gh_00006oo1.s
0000010c 7f00            478 	jmp	[lp]
                         479 	.global	___ghs_eofn_BusMsgPutTemperatureWarning
                         480 ___ghs_eofn_BusMsgPutTemperatureWarning:
                         481 	.type	_BusMsgPutTemperatureWarning,@function
                         482 	.size	_BusMsgPutTemperatureWarning,.-_BusMsgPutTemperatureWarning
                         483 	.align	2
                         484 
                         485 --_ucId	r6	param
                         486 --_BO_IsTemperatureWarningActive	r7	param
                         487 
                         488 	.data
                         489 	.text
                         490 	.align	2
                         491 	.align	2
                         492 ..gh.f.f.1.e.8:
                         493 	.type	..gh.f.f.1.e.8,@object
                         494 	.size	..gh.f.f.1.e.8,0
                         495 	.global	_BusMsgGetTemperatureWarning
                         496 _BusMsgGetTemperatureWarning:
                         497 --	    .bf
                         498 .LDW62:
0000010e 40960000*       499 	movhi	hi(_ucTyreTemperatureWarning),zero,r18
00000112 92970100*       500 	ld.bu	lo(_ucTyreTemperatureWarning)[r18],r18
00000116 e697a298        501 	sar	r6,r18,r19
0000011a d3560100        502 	andi	1,r19,r10
                         503 --	    .ef
                         504 .LDW72:
                         505 --line197
                         506 ..lin.C.3A.5C_ECU2.5CECU_Rivian_A1.5CTarget.5Crepo_projects.5CpRealEcu.5CcL_R2023.2E09.2E01.5Cmake.5Coutput.5Cobjects.5Cbusmsg.21::
                         507 .LDWlin21:
0000011e 7f00            508 	jmp	[lp]
                         509 	.global	___ghs_eofn_BusMsgGetTemperatureWarning
                         510 ___ghs_eofn_BusMsgGetTemperatureWarning:
                         511 	.type	_BusMsgGetTemperatureWarning,@function
                         512 	.size	_BusMsgGetTemperatureWarning,.-_BusMsgGetTemperatureWarning
                         513 	.align	2
                         514 
                         515 --_ucId	r6	param
                         516 
                         517 	.data
                         518 	.text
                         519 	.align	2
                         520 	.align	2
                         521 ..gh.f.f.1.e.9:
                         522 	.type	..gh.f.f.1.e.9,@object
                         523 	.size	..gh.f.f.1.e.9,0
                         524 	.global	_BusMsgPutWarning
                         525 _BusMsgPutWarning:
00000120 8600            526 	zxb	r6
                         527 --	    .bf
                         528 .LDW82:
00000122 6432            529 	cmp	4,r6
00000124 e905*           530 	bnl	.L725
                         531 --line217
                         532 ..lin.C.3A.5C_ECU2.5CECU_Rivian_A1.5CTarget.5Crepo_projects.5CpRealEcu.5CcL_R2023.2E09.2E01.5Cmake.5Coutput.5Cobjects.5Cbusmsg.22::
                         533 .LDWlin22:
00000126 3e0600000000*   534 	mov	_ucTyreWarning,ep
0000012c c6f1            535 	add	r6,ep
0000012e 803b            536 	sst.b	r7,0[ep]
                         537 .L725:
                         538 --	    .ef

                                                                      Page 10
                                                              C:\Users\nhuliyap\AppData\Local\Temp\gh_00006oo1.s
                         539 .LDW92:
                         540 --line219
                         541 ..lin.C.3A.5C_ECU2.5CECU_Rivian_A1.5CTarget.5Crepo_projects.5CpRealEcu.5CcL_R2023.2E09.2E01.5Cmake.5Coutput.5Cobjects.5Cbusmsg.23::
                         542 .LDWlin23:
00000130 7f00            543 	jmp	[lp]
                         544 	.global	___ghs_eofn_BusMsgPutWarning
                         545 ___ghs_eofn_BusMsgPutWarning:
                         546 	.type	_BusMsgPutWarning,@function
                         547 	.size	_BusMsgPutWarning,.-_BusMsgPutWarning
                         548 	.align	2
                         549 
                         550 --_ucId	r6	param
                         551 --_ucwarning	r7	param
                         552 
                         553 	.data
                         554 	.text
                         555 	.align	2
                         556 	.align	2
                         557 ..gh.f.f.1.e.10:
                         558 	.type	..gh.f.f.1.e.10,@object
                         559 	.size	..gh.f.f.1.e.10,0
                         560 	.global	_BusMsgGetWarning
                         561 _BusMsgGetWarning:
00000132 8600            562 	zxb	r6
                         563 --	    .bf
                         564 .LDW03:
00000134 6432            565 	cmp	4,r6
00000136 f905*           566 	bnl	.L793
                         567 --line229
                         568 ..lin.C.3A.5C_ECU2.5CECU_Rivian_A1.5CTarget.5Crepo_projects.5CpRealEcu.5CcL_R2023.2E09.2E01.5Cmake.5Coutput.5Cobjects.5Cbusmsg.24::
                         569 .LDWlin24:
00000138 3e0600000000*   570 	mov	_ucTyreWarning,ep
0000013e c6f1            571 	add	r6,ep
00000140 6050            572 	sld.bu	0[ep],r10
00000142 7f00            573 	jmp	[lp]
                         574 .L793:
00000144 0052            575 	mov	0,r10
                         576 --	    .ef
                         577 .LDW13:
                         578 --line231
                         579 ..lin.C.3A.5C_ECU2.5CECU_Rivian_A1.5CTarget.5Crepo_projects.5CpRealEcu.5CcL_R2023.2E09.2E01.5Cmake.5Coutput.5Cobjects.5Cbusmsg.25::
                         580 .LDWlin25:
00000146 7f00            581 	jmp	[lp]
                         582 	.global	___ghs_eofn_BusMsgGetWarning
                         583 ___ghs_eofn_BusMsgGetWarning:
                         584 	.type	_BusMsgGetWarning,@function
                         585 	.size	_BusMsgGetWarning,.-_BusMsgGetWarning
                         586 	.align	2
                         587 --_ucHelp	r10	local
                         588 
                         589 --_ucId	r6	param
                         590 
                         591 	.data
                         592 	.text
                         593 	.align	2
                         594 	.align	2
                         595 ..gh.f.f.1.e.11:
                         596 	.type	..gh.f.f.1.e.11,@object
                         597 	.size	..gh.f.f.1.e.11,0
                         598 	.global	_BusMsgPutTyrePressValidVL
                         599 _BusMsgPutTyrePressValidVL:

                                                                      Page 11
                                                              C:\Users\nhuliyap\AppData\Local\Temp\gh_00006oo1.s
                         600 --	    .bf
                         601 .LDW23:
00000148 405e0000*       602 	movhi	hi(_bTyreValidVL),zero,r11
0000014c 4b370000*       603 	st.b	r6,lo(_bTyreValidVL)[r11]
                         604 --	    .ef
                         605 .LDW33:
                         606 --line237
                         607 ..lin.C.3A.5C_ECU2.5CECU_Rivian_A1.5CTarget.5Crepo_projects.5CpRealEcu.5CcL_R2023.2E09.2E01.5Cmake.5Coutput.5Cobjects.5Cbusmsg.26::
                         608 .LDWlin26:
00000150 7f00            609 	jmp	[lp]
                         610 	.global	___ghs_eofn_BusMsgPutTyrePressValidVL
                         611 ___ghs_eofn_BusMsgPutTyrePressValidVL:
                         612 	.type	_BusMsgPutTyrePressValidVL,@function
                         613 	.size	_BusMsgPutTyrePressValidVL,.-_BusMsgPutTyrePressValidVL
                         614 	.align	2
                         615 
                         616 --_bstate	r6	param
                         617 
                         618 	.data
                         619 	.text
                         620 	.align	2
                         621 	.align	2
                         622 ..gh.f.f.1.e.12:
                         623 	.type	..gh.f.f.1.e.12,@object
                         624 	.size	..gh.f.f.1.e.12,0
                         625 	.global	_BusMsgGetTyrePressValidVL
                         626 _BusMsgGetTyrePressValidVL:
                         627 --	    .bf
                         628 .LDW43:
00000152 40560000*       629 	movhi	hi(_bTyreValidVL),zero,r10
00000156 8a570100*       630 	ld.bu	lo(_bTyreValidVL)[r10],r10
                         631 --	    .ef
                         632 .LDW53:
                         633 --line239
                         634 ..lin.C.3A.5C_ECU2.5CECU_Rivian_A1.5CTarget.5Crepo_projects.5CpRealEcu.5CcL_R2023.2E09.2E01.5Cmake.5Coutput.5Cobjects.5Cbusmsg.27::
                         635 .LDWlin27:
0000015a 7f00            636 	jmp	[lp]
                         637 	.global	___ghs_eofn_BusMsgGetTyrePressValidVL
                         638 ___ghs_eofn_BusMsgGetTyrePressValidVL:
                         639 	.type	_BusMsgGetTyrePressValidVL,@function
                         640 	.size	_BusMsgGetTyrePressValidVL,.-_BusMsgGetTyrePressValidVL
                         641 	.align	2
                         642 
                         643 	.data
                         644 	.text
                         645 	.align	2
                         646 	.align	2
                         647 ..gh.f.f.1.e.13:
                         648 	.type	..gh.f.f.1.e.13,@object
                         649 	.size	..gh.f.f.1.e.13,0
                         650 	.global	_BusMsgPutTyrePressValidVR
                         651 _BusMsgPutTyrePressValidVR:
                         652 --	    .bf
                         653 .LDW63:
0000015c 405e0000*       654 	movhi	hi(_bTyreValidVR),zero,r11
00000160 4b370000*       655 	st.b	r6,lo(_bTyreValidVR)[r11]
                         656 --	    .ef
                         657 .LDW73:
                         658 --line246
                         659 ..lin.C.3A.5C_ECU2.5CECU_Rivian_A1.5CTarget.5Crepo_projects.5CpRealEcu.5CcL_R2023.2E09.2E01.5Cmake.5Coutput.5Cobjects.5Cbusmsg.28::
                         660 .LDWlin28:

                                                                      Page 12
                                                              C:\Users\nhuliyap\AppData\Local\Temp\gh_00006oo1.s
00000164 7f00            661 	jmp	[lp]
                         662 	.global	___ghs_eofn_BusMsgPutTyrePressValidVR
                         663 ___ghs_eofn_BusMsgPutTyrePressValidVR:
                         664 	.type	_BusMsgPutTyrePressValidVR,@function
                         665 	.size	_BusMsgPutTyrePressValidVR,.-_BusMsgPutTyrePressValidVR
                         666 	.align	2
                         667 
                         668 --_bstate	r6	param
                         669 
                         670 	.data
                         671 	.text
                         672 	.align	2
                         673 	.align	2
                         674 ..gh.f.f.1.e.14:
                         675 	.type	..gh.f.f.1.e.14,@object
                         676 	.size	..gh.f.f.1.e.14,0
                         677 	.global	_BusMsgGetTyrePressValidVR
                         678 _BusMsgGetTyrePressValidVR:
                         679 --	    .bf
                         680 .LDW83:
00000166 40560000*       681 	movhi	hi(_bTyreValidVR),zero,r10
0000016a 8a570100*       682 	ld.bu	lo(_bTyreValidVR)[r10],r10
                         683 --	    .ef
                         684 .LDW93:
                         685 --line248
                         686 ..lin.C.3A.5C_ECU2.5CECU_Rivian_A1.5CTarget.5Crepo_projects.5CpRealEcu.5CcL_R2023.2E09.2E01.5Cmake.5Coutput.5Cobjects.5Cbusmsg.29::
                         687 .LDWlin29:
0000016e 7f00            688 	jmp	[lp]
                         689 	.global	___ghs_eofn_BusMsgGetTyrePressValidVR
                         690 ___ghs_eofn_BusMsgGetTyrePressValidVR:
                         691 	.type	_BusMsgGetTyrePressValidVR,@function
                         692 	.size	_BusMsgGetTyrePressValidVR,.-_BusMsgGetTyrePressValidVR
                         693 	.align	2
                         694 
                         695 	.data
                         696 	.text
                         697 	.align	2
                         698 	.align	2
                         699 ..gh.f.f.1.e.15:
                         700 	.type	..gh.f.f.1.e.15,@object
                         701 	.size	..gh.f.f.1.e.15,0
                         702 	.global	_BusMsgPutTyrePressValidHL
                         703 _BusMsgPutTyrePressValidHL:
                         704 --	    .bf
                         705 .LDW04:
00000170 405e0000*       706 	movhi	hi(_bTyreValidHL),zero,r11
00000174 4b370000*       707 	st.b	r6,lo(_bTyreValidHL)[r11]
                         708 --	    .ef
                         709 .LDW14:
                         710 --line255
                         711 ..lin.C.3A.5C_ECU2.5CECU_Rivian_A1.5CTarget.5Crepo_projects.5CpRealEcu.5CcL_R2023.2E09.2E01.5Cmake.5Coutput.5Cobjects.5Cbusmsg.30::
                         712 .LDWlin30:
00000178 7f00            713 	jmp	[lp]
                         714 	.global	___ghs_eofn_BusMsgPutTyrePressValidHL
                         715 ___ghs_eofn_BusMsgPutTyrePressValidHL:
                         716 	.type	_BusMsgPutTyrePressValidHL,@function
                         717 	.size	_BusMsgPutTyrePressValidHL,.-_BusMsgPutTyrePressValidHL
                         718 	.align	2
                         719 
                         720 --_bstate	r6	param
                         721 

                                                                      Page 13
                                                              C:\Users\nhuliyap\AppData\Local\Temp\gh_00006oo1.s
                         722 	.data
                         723 	.text
                         724 	.align	2
                         725 	.align	2
                         726 ..gh.f.f.1.e.16:
                         727 	.type	..gh.f.f.1.e.16,@object
                         728 	.size	..gh.f.f.1.e.16,0
                         729 	.global	_BusMsgGetTyrePressValidHL
                         730 _BusMsgGetTyrePressValidHL:
                         731 --	    .bf
                         732 .LDW24:
0000017a 40560000*       733 	movhi	hi(_bTyreValidHL),zero,r10
0000017e 8a570100*       734 	ld.bu	lo(_bTyreValidHL)[r10],r10
                         735 --	    .ef
                         736 .LDW34:
                         737 --line257
                         738 ..lin.C.3A.5C_ECU2.5CECU_Rivian_A1.5CTarget.5Crepo_projects.5CpRealEcu.5CcL_R2023.2E09.2E01.5Cmake.5Coutput.5Cobjects.5Cbusmsg.31::
                         739 .LDWlin31:
00000182 7f00            740 	jmp	[lp]
                         741 	.global	___ghs_eofn_BusMsgGetTyrePressValidHL
                         742 ___ghs_eofn_BusMsgGetTyrePressValidHL:
                         743 	.type	_BusMsgGetTyrePressValidHL,@function
                         744 	.size	_BusMsgGetTyrePressValidHL,.-_BusMsgGetTyrePressValidHL
                         745 	.align	2
                         746 
                         747 	.data
                         748 	.text
                         749 	.align	2
                         750 	.align	2
                         751 ..gh.f.f.1.e.17:
                         752 	.type	..gh.f.f.1.e.17,@object
                         753 	.size	..gh.f.f.1.e.17,0
                         754 	.global	_BusMsgPutTyrePressValidHR
                         755 _BusMsgPutTyrePressValidHR:
                         756 --	    .bf
                         757 .LDW44:
00000184 405e0000*       758 	movhi	hi(_bTyreValidHR),zero,r11
00000188 4b370000*       759 	st.b	r6,lo(_bTyreValidHR)[r11]
                         760 --	    .ef
                         761 .LDW54:
                         762 --line264
                         763 ..lin.C.3A.5C_ECU2.5CECU_Rivian_A1.5CTarget.5Crepo_projects.5CpRealEcu.5CcL_R2023.2E09.2E01.5Cmake.5Coutput.5Cobjects.5Cbusmsg.32::
                         764 .LDWlin32:
0000018c 7f00            765 	jmp	[lp]
                         766 	.global	___ghs_eofn_BusMsgPutTyrePressValidHR
                         767 ___ghs_eofn_BusMsgPutTyrePressValidHR:
                         768 	.type	_BusMsgPutTyrePressValidHR,@function
                         769 	.size	_BusMsgPutTyrePressValidHR,.-_BusMsgPutTyrePressValidHR
                         770 	.align	2
                         771 
                         772 --_bstate	r6	param
                         773 
                         774 	.data
                         775 	.text
                         776 	.align	2
                         777 	.align	2
                         778 ..gh.f.f.1.e.18:
                         779 	.type	..gh.f.f.1.e.18,@object
                         780 	.size	..gh.f.f.1.e.18,0
                         781 	.global	_BusMsgGetTyrePressValidHR
                         782 _BusMsgGetTyrePressValidHR:

                                                                      Page 14
                                                              C:\Users\nhuliyap\AppData\Local\Temp\gh_00006oo1.s
                         783 --	    .bf
                         784 .LDW64:
0000018e 40560000*       785 	movhi	hi(_bTyreValidHR),zero,r10
00000192 8a570100*       786 	ld.bu	lo(_bTyreValidHR)[r10],r10
                         787 --	    .ef
                         788 .LDW74:
                         789 --line266
                         790 ..lin.C.3A.5C_ECU2.5CECU_Rivian_A1.5CTarget.5Crepo_projects.5CpRealEcu.5CcL_R2023.2E09.2E01.5Cmake.5Coutput.5Cobjects.5Cbusmsg.33::
                         791 .LDWlin33:
00000196 7f00            792 	jmp	[lp]
                         793 	.global	___ghs_eofn_BusMsgGetTyrePressValidHR
                         794 ___ghs_eofn_BusMsgGetTyrePressValidHR:
                         795 	.type	_BusMsgGetTyrePressValidHR,@function
                         796 	.size	_BusMsgGetTyrePressValidHR,.-_BusMsgGetTyrePressValidHR
                         797 	.align	2
                         798 
                         799 	.data
                         800 	.text
                         801 	.align	2
                         802 	.align	2
                         803 ..gh.f.f.1.e.19:
                         804 	.type	..gh.f.f.1.e.19,@object
                         805 	.size	..gh.f.f.1.e.19,0
                         806 	.global	_BusMsgPutTextflag
                         807 _BusMsgPutTextflag:
00000198 8600            808 	zxb	r6
                         809 --	    .bf
                         810 .LDW84:
0000019a 6632            811 	cmp	6,r6
0000019c e905*           812 	bnl	.L1253
                         813 --line275
                         814 ..lin.C.3A.5C_ECU2.5CECU_Rivian_A1.5CTarget.5Crepo_projects.5CpRealEcu.5CcL_R2023.2E09.2E01.5Cmake.5Coutput.5Cobjects.5Cbusmsg.34::
                         815 .LDWlin34:
0000019e 3e0600000000*   816 	mov	_bTextFlags,ep
000001a4 c6f1            817 	add	r6,ep
000001a6 803b            818 	sst.b	r7,0[ep]
                         819 .L1253:
                         820 --	    .ef
                         821 .LDW94:
                         822 --line277
                         823 ..lin.C.3A.5C_ECU2.5CECU_Rivian_A1.5CTarget.5Crepo_projects.5CpRealEcu.5CcL_R2023.2E09.2E01.5Cmake.5Coutput.5Cobjects.5Cbusmsg.35::
                         824 .LDWlin35:
000001a8 7f00            825 	jmp	[lp]
                         826 	.global	___ghs_eofn_BusMsgPutTextflag
                         827 ___ghs_eofn_BusMsgPutTextflag:
                         828 	.type	_BusMsgPutTextflag,@function
                         829 	.size	_BusMsgPutTextflag,.-_BusMsgPutTextflag
                         830 	.align	2
                         831 
                         832 --_ucId	r6	param
                         833 --_bstate	r7	param
                         834 
                         835 	.data
                         836 	.text
                         837 	.align	2
                         838 	.align	2
                         839 ..gh.f.f.1.e.20:
                         840 	.type	..gh.f.f.1.e.20,@object
                         841 	.size	..gh.f.f.1.e.20,0
                         842 	.global	_BusMsgGetTextflag
                         843 _BusMsgGetTextflag:

                                                                      Page 15
                                                              C:\Users\nhuliyap\AppData\Local\Temp\gh_00006oo1.s
000001aa 8600            844 	zxb	r6
                         845 --	    .bf
                         846 .LDW05:
000001ac 6632            847 	cmp	6,r6
000001ae f905*           848 	bnl	.L1321
                         849 --line287
                         850 ..lin.C.3A.5C_ECU2.5CECU_Rivian_A1.5CTarget.5Crepo_projects.5CpRealEcu.5CcL_R2023.2E09.2E01.5Cmake.5Coutput.5Cobjects.5Cbusmsg.36::
                         851 .LDWlin36:
000001b0 3e0600000000*   852 	mov	_bTextFlags,ep
000001b6 c6f1            853 	add	r6,ep
000001b8 6050            854 	sld.bu	0[ep],r10
000001ba 7f00            855 	jmp	[lp]
                         856 .L1321:
000001bc 0052            857 	mov	0,r10
                         858 --	    .ef
                         859 .LDW15:
                         860 --line290
                         861 ..lin.C.3A.5C_ECU2.5CECU_Rivian_A1.5CTarget.5Crepo_projects.5CpRealEcu.5CcL_R2023.2E09.2E01.5Cmake.5Coutput.5Cobjects.5Cbusmsg.37::
                         862 .LDWlin37:
000001be 7f00            863 	jmp	[lp]
                         864 	.global	___ghs_eofn_BusMsgGetTextflag
                         865 ___ghs_eofn_BusMsgGetTextflag:
                         866 	.type	_BusMsgGetTextflag,@function
                         867 	.size	_BusMsgGetTextflag,.-_BusMsgGetTextflag
                         868 	.align	2
                         869 --_bHelp	r10	local
                         870 
                         871 --_ucId	r6	param
                         872 
                         873 	.data
                         874 	.text
                         875 	.align	2
                         876 	.align	2
                         877 ..gh.f.f.1.e.21:
                         878 	.type	..gh.f.f.1.e.21,@object
                         879 	.size	..gh.f.f.1.e.21,0
                         880 	.global	_GETbNoWarnPartSurv..C.3A.5C_ECU2.5CECU_Rivian_A1.5CTarget.5Crepo_projects.5CpRealEcu.5CcL_R2023.2E09.2E01.5Cmake.5Coutput.5Cobjects.5Cbusmsg.
                         881 _GETbNoWarnPartSurv..C.3A.5C_ECU2.5CECU_Rivian_A1.5CTarget.5Crepo_projects.5CpRealEcu.5CcL_R2023.2E09.2E01.5Cmake.5Coutput.5Cobjects.5Cbusmsg.:
                         882 _GETbNoWarnPartSurv:
000001c0 8007e110        883 	prepare	{r27,r28,r29,r31},0
000001c4 06d8            884 	mov	r6,r27
000001c6 9b00            885 	zxb	r27
                         886 --	    .bf
                         887 .LDW25:
000001c8 00ea            888 	mov	0,r29
000001ca 64da            889 	cmp	4,r27
000001cc f91d*           890 	bnl	.L1404
                         891 --line579
                         892 ..lin.C.3A.5C_ECU2.5CECU_Rivian_A1.5CTarget.5Crepo_projects.5CpRealEcu.5CcL_R2023.2E09.2E01.5Cmake.5Coutput.5Cobjects.5Cbusmsg.38::
                         893 .LDWlin38:
                         894 	jarl	_GETucReErrorStatusEE,lp
                         894 <EXPANSION BEGIN>
                         894 jarl22 _GETucReErrorStatusEE , lp 
000001ce 80ff0000*       894 <EXPANSION END>
000001d2 0172            895 	mov	1,r14
000001d4 fb77c2e0        896 	shl	r27,r14,r28
000001d8 9c00            897 	zxb	r28
000001da 1c90            898 	mov	r28,r18
000001dc 4a91            899 	and	r10,r18
000001de fc91            900 	cmp	r28,r18
000001e0 e2ef0000        901 	setfe	r29

                                                                      Page 16
                                                              C:\Users\nhuliyap\AppData\Local\Temp\gh_00006oo1.s
                         902 --line584
                         903 ..lin.C.3A.5C_ECU2.5CECU_Rivian_A1.5CTarget.5Crepo_projects.5CpRealEcu.5CcL_R2023.2E09.2E01.5Cmake.5Coutput.5Cobjects.5Cbusmsg.39::
                         904 .LDWlin39:
                         905 	jarl	_GETucReErrorStatusEE,lp
                         905 <EXPANSION BEGIN>
                         905 jarl22 _GETucReErrorStatusEE , lp 
000001e4 80ff0000*       905 <EXPANSION END>
000001e8 20761000        906 	movea	16,zero,r14
000001ec fb77c278        907 	shl	r27,r14,r15
000001f0 8f00            908 	zxb	r15
000001f2 0f88            909 	mov	r15,r17
000001f4 4a89            910 	and	r10,r17
000001f6 ef89            911 	cmp	r15,r17
000001f8 e1ef04eb        912 	cmove	1,r29,r29
                         913 --line589
                         914 ..lin.C.3A.5C_ECU2.5CECU_Rivian_A1.5CTarget.5Crepo_projects.5CpRealEcu.5CcL_R2023.2E09.2E01.5Cmake.5Coutput.5Cobjects.5Cbusmsg.40::
                         915 .LDWlin40:
                         916 	jarl	_GETucReHeatUpStatusEE,lp
                         916 <EXPANSION BEGIN>
                         916 jarl22 _GETucReHeatUpStatusEE , lp 
000001fc 80ff0000*       916 <EXPANSION END>
00000200 1c80            917 	mov	r28,r16
00000202 4a81            918 	and	r10,r16
00000204 fc81            919 	cmp	r28,r16
                         920 --line591
                         921 ..lin.C.3A.5C_ECU2.5CECU_Rivian_A1.5CTarget.5Crepo_projects.5CpRealEcu.5CcL_R2023.2E09.2E01.5Cmake.5Coutput.5Cobjects.5Cbusmsg.41::
                         922 .LDWlin41:
00000206 e1ef04eb        923 	cmove	1,r29,r29
                         924 .L1404:
0000020a 1d50            925 	mov	r29,r10
                         926 --	    .ef
                         927 .LDW35:
0000020c 4006ff10        928 	dispose	0,{r27,r28,r29,r31},[lp]
                         929 ___ghs_eofn_GETbNoWarnPartSurv:
                         930 	.type	_GETbNoWarnPartSurv,@function
                         931 	.size	_GETbNoWarnPartSurv,.-_GETbNoWarnPartSurv
                         932 	.type	_GETbNoWarnPartSurv..C.3A.5C_ECU2.5CECU_Rivian_A1.5CTarget.5Crepo_projects.5CpRealEcu.5CcL_R2023.2E09.2E01.5Cmake.5Coutput.5Cobjects.5Cbusmsg.,@function
                         933 	.size	_GETbNoWarnPartSurv..C.3A.5C_ECU2.5CECU_Rivian_A1.5CTarget.5Crepo_projects.5CpRealEcu.5CcL_R2023.2E09.2E01.5Cmake.5Coutput.5Cobjects.5Cbusmsg.,.-_GETbNoWarnPartSurv..C.3A.5C_ECU2.5CECU_Rivian_A1.5CTarget.5Crepo_projects.5CpRealEcu.5CcL_R2023.2E09.2E01.5Cmake.5Coutput.5Cobjects.5Cbusmsg.
                         934 	.align	2
                         935 --_ucRet	r29	local
                         936 
                         937 --_ucPos	r27	param
                         938 
                         939 	.section ".bss","awb"
                         940 .L1484:
                         941 	.type	.L1484,@object
                         942 	.size	.L1484,0
                         943 	.data
                         944 	.text
                         945 	.align	2
                         946 	.align	2
                         947 ..gh.f.f.1.e.22:
                         948 	.type	..gh.f.f.1.e.22,@object
                         949 	.size	..gh.f.f.1.e.22,0
                         950 	.global	_BusMsgDetermineErrCounter..C.3A.5C_ECU2.5CECU_Rivian_A1.5CTarget.5Crepo_projects.5CpRealEcu.5CcL_R2023.2E09.2E01.5Cmake.5Coutput.5Cobjects.5Cbusmsg.
                         951 _BusMsgDetermineErrCounter..C.3A.5C_ECU2.5CECU_Rivian_A1.5CTarget.5Crepo_projects.5CpRealEcu.5CcL_R2023.2E09.2E01.5Cmake.5Coutput.5Cobjects.5Cbusmsg.:
                         952 _BusMsgDetermineErrCounter:
00000210 80076100        953 	prepare	{r29,r31},0
                         954 --	    .bf
                         955 .LDW45:
00000214 0032            956 	mov	0,r6

                                                                      Page 17
                                                              C:\Users\nhuliyap\AppData\Local\Temp\gh_00006oo1.s
                         957 	jarl	_GETbNoWarnPartSurv,lp
                         957 <EXPANSION BEGIN>
                         957 jarl22 _GETbNoWarnPartSurv , lp 
00000216 bfffaaff*       957 <EXPANSION END>
0000021a 6152            958 	cmp	1,r10
0000021c e05714eb        959 	cmovne	0,r10,r29
                         960 --line857
                         961 ..lin.C.3A.5C_ECU2.5CECU_Rivian_A1.5CTarget.5Crepo_projects.5CpRealEcu.5CcL_R2023.2E09.2E01.5Cmake.5Coutput.5Cobjects.5Cbusmsg.42::
                         962 .LDWlin42:
00000220 0232            963 	mov	2,r6
                         964 	jarl	_GETbNoWarnPartSurv,lp
                         964 <EXPANSION BEGIN>
                         964 jarl22 _GETbNoWarnPartSurv , lp 
00000222 bfff9eff*       964 <EXPANSION END>
00000226 6152            965 	cmp	1,r10
00000228 ba05*           966 	bne	.L1535
                         967 --line859
                         968 ..lin.C.3A.5C_ECU2.5CECU_Rivian_A1.5CTarget.5Crepo_projects.5CpRealEcu.5CcL_R2023.2E09.2E01.5Cmake.5Coutput.5Cobjects.5Cbusmsg.43::
                         969 .LDWlin43:
0000022a cae9            970 	add	r10,r29
0000022c 9d00            971 	zxb	r29
                         972 .L1535:
0000022e 0132            973 	mov	1,r6
                         974 	jarl	_GETbNoWarnPartSurv,lp
                         974 <EXPANSION BEGIN>
                         974 jarl22 _GETbNoWarnPartSurv , lp 
00000230 bfff90ff*       974 <EXPANSION END>
00000234 6152            975 	cmp	1,r10
00000236 ba05*           976 	bne	.L1537
                         977 --line864
                         978 ..lin.C.3A.5C_ECU2.5CECU_Rivian_A1.5CTarget.5Crepo_projects.5CpRealEcu.5CcL_R2023.2E09.2E01.5Cmake.5Coutput.5Cobjects.5Cbusmsg.44::
                         979 .LDWlin44:
00000238 cae9            980 	add	r10,r29
0000023a 9d00            981 	zxb	r29
                         982 .L1537:
0000023c 0332            983 	mov	3,r6
                         984 	jarl	_GETbNoWarnPartSurv,lp
                         984 <EXPANSION BEGIN>
                         984 jarl22 _GETbNoWarnPartSurv , lp 
0000023e bfff82ff*       984 <EXPANSION END>
00000242 6152            985 	cmp	1,r10
00000244 ba05*           986 	bne	.L1539
                         987 --line869
                         988 ..lin.C.3A.5C_ECU2.5CECU_Rivian_A1.5CTarget.5Crepo_projects.5CpRealEcu.5CcL_R2023.2E09.2E01.5Cmake.5Coutput.5Cobjects.5Cbusmsg.45::
                         989 .LDWlin45:
00000246 cae9            990 	add	r10,r29
00000248 9d00            991 	zxb	r29
                         992 .L1539:
0000024a 1d50            993 	mov	r29,r10
                         994 --	    .ef
                         995 .LDW55:
0000024c 40067f00        996 	dispose	0,{r29,r31},[lp]
                         997 ___ghs_eofn_BusMsgDetermineErrCounter:
                         998 	.type	_BusMsgDetermineErrCounter,@function
                         999 	.size	_BusMsgDetermineErrCounter,.-_BusMsgDetermineErrCounter
                        1000 	.type	_BusMsgDetermineErrCounter..C.3A.5C_ECU2.5CECU_Rivian_A1.5CTarget.5Crepo_projects.5CpRealEcu.5CcL_R2023.2E09.2E01.5Cmake.5Coutput.5Cobjects.5Cbusmsg.,@function
                        1001 	.size	_BusMsgDetermineErrCounter..C.3A.5C_ECU2.5CECU_Rivian_A1.5CTarget.5Crepo_projects.5CpRealEcu.5CcL_R2023.2E09.2E01.5Cmake.5Coutput.5Cobjects.5Cbusmsg.,.-_BusMsgDetermineErrCounter..C.3A.5C_ECU2.5CECU_Rivian_A1.5CTarget.5Crepo_projects.5CpRealEcu.5CcL_R2023.2E09.2E01.5Cmake.5Coutput.5Cobjects.5Cbusmsg.
                        1002 	.align	2
                        1003 --_ucReErrCount	r29	local
                        1004 
                        1005 	.section ".bss","awb"

                                                                      Page 18
                                                              C:\Users\nhuliyap\AppData\Local\Temp\gh_00006oo1.s
                        1006 .L1639:
                        1007 	.type	.L1639,@object
                        1008 	.size	.L1639,0
                        1009 	.data
                        1010 	.text
                        1011 	.align	2
                        1012 	.align	2
                        1013 ..gh.f.f.1.e.23:
                        1014 	.type	..gh.f.f.1.e.23,@object
                        1015 	.size	..gh.f.f.1.e.23,0
                        1016 	.global	_BusMsgCheckWarningsFrontLeft..C.3A.5C_ECU2.5CECU_Rivian_A1.5CTarget.5Crepo_projects.5CpRealEcu.5CcL_R2023.2E09.2E01.5Cmake.5Coutput.5Cobjects.5Cbusmsg.
                        1017 _BusMsgCheckWarningsFrontLeft..C.3A.5C_ECU2.5CECU_Rivian_A1.5CTarget.5Crepo_projects.5CpRealEcu.5CcL_R2023.2E09.2E01.5Cmake.5Coutput.5Cobjects.5Cbusmsg.:
                        1018 _BusMsgCheckWarningsFrontLeft:
00000250 80076100       1019 	prepare	{r29,r31},0
                        1020 --	    .bf
                        1021 .LDW65:
00000254 0032           1022 	mov	0,r6
                        1023 	jarl	_GETbNoWarnPartSurv,lp
                        1023 <EXPANSION BEGIN>
                        1023 jarl22 _GETbNoWarnPartSurv , lp 
00000256 bfff6aff*      1023 <EXPANSION END>
0000025a 6152           1024 	cmp	1,r10
0000025c e205*          1025 	be	.L1717
0000025e 0032           1026 	mov	0,r6
                        1027 	jarl	_BusMsgGetTextflag,lp
                        1027 <EXPANSION BEGIN>
                        1027 jarl22 _BusMsgGetTextflag , lp 
00000260 bfff4aff*      1027 <EXPANSION END>
00000264 6152           1028 	cmp	1,r10
00000266 aa0d*          1029 	bne	.L1716
                        1030 .L1717:
                        1031 --line602
                        1032 ..lin.C.3A.5C_ECU2.5CECU_Rivian_A1.5CTarget.5Crepo_projects.5CpRealEcu.5CcL_R2023.2E09.2E01.5Cmake.5Coutput.5Cobjects.5Cbusmsg.46::
                        1033 .LDWlin46:
00000268 0032           1034 	mov	0,r6
0000026a 0638           1035 	mov	r6,r7
                        1036 	jarl	_BusMsgPutWarning,lp
                        1036 <EXPANSION BEGIN>
                        1036 jarl22 _BusMsgPutWarning , lp 
0000026c bfffb4fe*      1036 <EXPANSION END>
                        1037 --line603
                        1038 ..lin.C.3A.5C_ECU2.5CECU_Rivian_A1.5CTarget.5Crepo_projects.5CpRealEcu.5CcL_R2023.2E09.2E01.5Cmake.5Coutput.5Cobjects.5Cbusmsg.47::
                        1039 .LDWlin47:
00000270 0b32           1040 	mov	11,r6
                        1041 	jarl	_SilaPutState,lp
                        1041 <EXPANSION BEGIN>
                        1041 jarl22 _SilaPutState , lp 
00000272 80ff0000*      1041 <EXPANSION END>
00000276 40067f00       1042 	dispose	0,{r29,r31},[lp]
                        1043 .L1716:
                        1044 --line607
                        1045 ..lin.C.3A.5C_ECU2.5CECU_Rivian_A1.5CTarget.5Crepo_projects.5CpRealEcu.5CcL_R2023.2E09.2E01.5Cmake.5Coutput.5Cobjects.5Cbusmsg.48::
                        1046 .LDWlin48:
0000027a 3d0600000000*  1047 	mov	_aucWheelPosWarn,r29
00000280 9d970100       1048 	ld.bu	0[r29],r18
00000284 0032           1049 	mov	0,r6
00000286 d2060100       1050 	andi	1,r18,zero
0000028a 820d*          1051 	be	.L1720
                        1052 --line609
                        1053 ..lin.C.3A.5C_ECU2.5CECU_Rivian_A1.5CTarget.5Crepo_projects.5CpRealEcu.5CcL_R2023.2E09.2E01.5Cmake.5Coutput.5Cobjects.5Cbusmsg.49::
                        1054 .LDWlin49:

                                                                      Page 19
                                                              C:\Users\nhuliyap\AppData\Local\Temp\gh_00006oo1.s
0000028c 023a           1055 	mov	2,r7
                        1056 	jarl	_BusMsgPutWarning,lp
                        1056 <EXPANSION BEGIN>
                        1056 jarl22 _BusMsgPutWarning , lp 
0000028e bfff92fe*      1056 <EXPANSION END>
                        1057 --line610
                        1058 ..lin.C.3A.5C_ECU2.5CECU_Rivian_A1.5CTarget.5Crepo_projects.5CpRealEcu.5CcL_R2023.2E09.2E01.5Cmake.5Coutput.5Cobjects.5Cbusmsg.50::
                        1059 .LDWlin50:
00000292 0a32           1060 	mov	10,r6
                        1061 	jarl	_SilaPutState,lp
                        1061 <EXPANSION BEGIN>
                        1061 jarl22 _SilaPutState , lp 
00000294 80ff0000*      1061 <EXPANSION END>
00000298 f515*          1062 	br	.L1722
                        1063 .L1720:
                        1064 --line614
                        1065 ..lin.C.3A.5C_ECU2.5CECU_Rivian_A1.5CTarget.5Crepo_projects.5CpRealEcu.5CcL_R2023.2E09.2E01.5Cmake.5Coutput.5Cobjects.5Cbusmsg.51::
                        1066 .LDWlin51:
0000029a d2060800       1067 	andi	8,r18,zero
0000029e 820d*          1068 	be	.L1723
                        1069 --line616
                        1070 ..lin.C.3A.5C_ECU2.5CECU_Rivian_A1.5CTarget.5Crepo_projects.5CpRealEcu.5CcL_R2023.2E09.2E01.5Cmake.5Coutput.5Cobjects.5Cbusmsg.52::
                        1071 .LDWlin52:
000002a0 043a           1072 	mov	4,r7
                        1073 	jarl	_BusMsgPutWarning,lp
                        1073 <EXPANSION BEGIN>
                        1073 jarl22 _BusMsgPutWarning , lp 
000002a2 bfff7efe*      1073 <EXPANSION END>
                        1074 --line617
                        1075 ..lin.C.3A.5C_ECU2.5CECU_Rivian_A1.5CTarget.5Crepo_projects.5CpRealEcu.5CcL_R2023.2E09.2E01.5Cmake.5Coutput.5Cobjects.5Cbusmsg.53::
                        1076 .LDWlin53:
000002a6 0a32           1077 	mov	10,r6
                        1078 	jarl	_SilaPutState,lp
                        1078 <EXPANSION BEGIN>
                        1078 jarl22 _SilaPutState , lp 
000002a8 80ff0000*      1078 <EXPANSION END>
000002ac d50d*          1079 	br	.L1722
                        1080 .L1723:
                        1081 --line621
                        1082 ..lin.C.3A.5C_ECU2.5CECU_Rivian_A1.5CTarget.5Crepo_projects.5CpRealEcu.5CcL_R2023.2E09.2E01.5Cmake.5Coutput.5Cobjects.5Cbusmsg.54::
                        1083 .LDWlin54:
000002ae 8892           1084 	shr	8,r18
000002b0 890d*          1085 	bnl	.L1726
                        1086 --line623
                        1087 ..lin.C.3A.5C_ECU2.5CECU_Rivian_A1.5CTarget.5Crepo_projects.5CpRealEcu.5CcL_R2023.2E09.2E01.5Cmake.5Coutput.5Cobjects.5Cbusmsg.55::
                        1088 .LDWlin55:
000002b2 033a           1089 	mov	3,r7
                        1090 	jarl	_BusMsgPutWarning,lp
                        1090 <EXPANSION BEGIN>
                        1090 jarl22 _BusMsgPutWarning , lp 
000002b4 bfff6cfe*      1090 <EXPANSION END>
                        1091 --line624
                        1092 ..lin.C.3A.5C_ECU2.5CECU_Rivian_A1.5CTarget.5Crepo_projects.5CpRealEcu.5CcL_R2023.2E09.2E01.5Cmake.5Coutput.5Cobjects.5Cbusmsg.56::
                        1093 .LDWlin56:
000002b8 0a32           1094 	mov	10,r6
                        1095 	jarl	_SilaPutState,lp
                        1095 <EXPANSION BEGIN>
                        1095 jarl22 _SilaPutState , lp 
000002ba 80ff0000*      1095 <EXPANSION END>
000002be c505*          1096 	br	.L1722
                        1097 .L1726:

                                                                      Page 20
                                                              C:\Users\nhuliyap\AppData\Local\Temp\gh_00006oo1.s
                        1098 --line628
                        1099 ..lin.C.3A.5C_ECU2.5CECU_Rivian_A1.5CTarget.5Crepo_projects.5CpRealEcu.5CcL_R2023.2E09.2E01.5Cmake.5Coutput.5Cobjects.5Cbusmsg.57::
                        1100 .LDWlin57:
000002c0 013a           1101 	mov	1,r7
                        1102 	jarl	_BusMsgPutWarning,lp
                        1102 <EXPANSION BEGIN>
                        1102 jarl22 _BusMsgPutWarning , lp 
000002c2 bfff5efe*      1102 <EXPANSION END>
                        1103 .L1722:
                        1104 --line633
                        1105 ..lin.C.3A.5C_ECU2.5CECU_Rivian_A1.5CTarget.5Crepo_projects.5CpRealEcu.5CcL_R2023.2E09.2E01.5Cmake.5Coutput.5Cobjects.5Cbusmsg.58::
                        1106 .LDWlin58:
000002c6 ddf70000       1107 	tst1	6,0[r29]
000002ca 0032           1108 	mov	0,r6
000002cc ea3f0000       1109 	setfne	r7
                        1110 	jarl	_BusMsgPutTemperatureWarning,lp
                        1110 <EXPANSION BEGIN>
                        1110 jarl22 _BusMsgPutTemperatureWarning , lp 
000002d0 bfff18fe*      1110 <EXPANSION END>
                        1111 --	    .ef
                        1112 .LDW75:
                        1113 --line642
                        1114 ..lin.C.3A.5C_ECU2.5CECU_Rivian_A1.5CTarget.5Crepo_projects.5CpRealEcu.5CcL_R2023.2E09.2E01.5Cmake.5Coutput.5Cobjects.5Cbusmsg.59::
                        1115 .LDWlin59:
000002d4 40067f00       1116 	dispose	0,{r29,r31},[lp]
                        1117 ___ghs_eofn_BusMsgCheckWarningsFrontLeft:
                        1118 	.type	_BusMsgCheckWarningsFrontLeft,@function
                        1119 	.size	_BusMsgCheckWarningsFrontLeft,.-_BusMsgCheckWarningsFrontLeft
                        1120 	.type	_BusMsgCheckWarningsFrontLeft..C.3A.5C_ECU2.5CECU_Rivian_A1.5CTarget.5Crepo_projects.5CpRealEcu.5CcL_R2023.2E09.2E01.5Cmake.5Coutput.5Cobjects.5Cbusmsg.,@function
                        1121 	.size	_BusMsgCheckWarningsFrontLeft..C.3A.5C_ECU2.5CECU_Rivian_A1.5CTarget.5Crepo_projects.5CpRealEcu.5CcL_R2023.2E09.2E01.5Cmake.5Coutput.5Cobjects.5Cbusmsg.,.-_BusMsgCheckWarningsFrontLeft..C.3A.5C_ECU2.5CECU_Rivian_A1.5CTarget.5Crepo_projects.5CpRealEcu.5CcL_R2023.2E09.2E01.5Cmake.5Coutput.5Cobjects.5Cbusmsg.
                        1122 	.align	2
                        1123 
                        1124 	.section ".bss","awb"
                        1125 .L1821:
                        1126 	.type	.L1821,@object
                        1127 	.size	.L1821,0
                        1128 	.data
                        1129 	.text
                        1130 	.align	2
                        1131 	.align	2
                        1132 ..gh.f.f.1.e.24:
                        1133 	.type	..gh.f.f.1.e.24,@object
                        1134 	.size	..gh.f.f.1.e.24,0
                        1135 	.global	_BusMsgCheckWarningsFrontRight..C.3A.5C_ECU2.5CECU_Rivian_A1.5CTarget.5Crepo_projects.5CpRealEcu.5CcL_R2023.2E09.2E01.5Cmake.5Coutput.5Cobjects.5Cbusmsg.
                        1136 _BusMsgCheckWarningsFrontRight..C.3A.5C_ECU2.5CECU_Rivian_A1.5CTarget.5Crepo_projects.5CpRealEcu.5CcL_R2023.2E09.2E01.5Cmake.5Coutput.5Cobjects.5Cbusmsg.:
                        1137 _BusMsgCheckWarningsFrontRight:
000002d8 80076100       1138 	prepare	{r29,r31},0
                        1139 --	    .bf
                        1140 .LDW85:
000002dc 0132           1141 	mov	1,r6
                        1142 	jarl	_GETbNoWarnPartSurv,lp
                        1142 <EXPANSION BEGIN>
                        1142 jarl22 _GETbNoWarnPartSurv , lp 
000002de bfffe2fe*      1142 <EXPANSION END>
000002e2 6152           1143 	cmp	1,r10
000002e4 e205*          1144 	be	.L1948
000002e6 0032           1145 	mov	0,r6
                        1146 	jarl	_BusMsgGetTextflag,lp
                        1146 <EXPANSION BEGIN>
                        1146 jarl22 _BusMsgGetTextflag , lp 
000002e8 bfffc2fe*      1146 <EXPANSION END>

                                                                      Page 21
                                                              C:\Users\nhuliyap\AppData\Local\Temp\gh_00006oo1.s
000002ec 6152           1147 	cmp	1,r10
000002ee aa0d*          1148 	bne	.L1947
                        1149 .L1948:
                        1150 --line648
                        1151 ..lin.C.3A.5C_ECU2.5CECU_Rivian_A1.5CTarget.5Crepo_projects.5CpRealEcu.5CcL_R2023.2E09.2E01.5Cmake.5Coutput.5Cobjects.5Cbusmsg.60::
                        1152 .LDWlin60:
000002f0 0a30           1153 	mov	r10,r6
000002f2 003a           1154 	mov	0,r7
                        1155 	jarl	_BusMsgPutWarning,lp
                        1155 <EXPANSION BEGIN>
                        1155 jarl22 _BusMsgPutWarning , lp 
000002f4 bfff2cfe*      1155 <EXPANSION END>
                        1156 --line649
                        1157 ..lin.C.3A.5C_ECU2.5CECU_Rivian_A1.5CTarget.5Crepo_projects.5CpRealEcu.5CcL_R2023.2E09.2E01.5Cmake.5Coutput.5Cobjects.5Cbusmsg.61::
                        1158 .LDWlin61:
000002f8 0b32           1159 	mov	11,r6
                        1160 	jarl	_SilaPutState,lp
                        1160 <EXPANSION BEGIN>
                        1160 jarl22 _SilaPutState , lp 
000002fa 80ff0000*      1160 <EXPANSION END>
000002fe 40067f00       1161 	dispose	0,{r29,r31},[lp]
                        1162 .L1947:
                        1163 --line653
                        1164 ..lin.C.3A.5C_ECU2.5CECU_Rivian_A1.5CTarget.5Crepo_projects.5CpRealEcu.5CcL_R2023.2E09.2E01.5Cmake.5Coutput.5Cobjects.5Cbusmsg.62::
                        1165 .LDWlin62:
00000302 3d0600000000*  1166 	mov	_aucWheelPosWarn+1,r29
00000308 9d970100       1167 	ld.bu	0[r29],r18
0000030c 0132           1168 	mov	1,r6
0000030e d2060100       1169 	andi	1,r18,zero
00000312 820d*          1170 	be	.L1951
                        1171 --line655
                        1172 ..lin.C.3A.5C_ECU2.5CECU_Rivian_A1.5CTarget.5Crepo_projects.5CpRealEcu.5CcL_R2023.2E09.2E01.5Cmake.5Coutput.5Cobjects.5Cbusmsg.63::
                        1173 .LDWlin63:
00000314 023a           1174 	mov	2,r7
                        1175 	jarl	_BusMsgPutWarning,lp
                        1175 <EXPANSION BEGIN>
                        1175 jarl22 _BusMsgPutWarning , lp 
00000316 bfff0afe*      1175 <EXPANSION END>
                        1176 --line656
                        1177 ..lin.C.3A.5C_ECU2.5CECU_Rivian_A1.5CTarget.5Crepo_projects.5CpRealEcu.5CcL_R2023.2E09.2E01.5Cmake.5Coutput.5Cobjects.5Cbusmsg.64::
                        1178 .LDWlin64:
0000031a 0a32           1179 	mov	10,r6
                        1180 	jarl	_SilaPutState,lp
                        1180 <EXPANSION BEGIN>
                        1180 jarl22 _SilaPutState , lp 
0000031c 80ff0000*      1180 <EXPANSION END>
00000320 f515*          1181 	br	.L1953
                        1182 .L1951:
                        1183 --line660
                        1184 ..lin.C.3A.5C_ECU2.5CECU_Rivian_A1.5CTarget.5Crepo_projects.5CpRealEcu.5CcL_R2023.2E09.2E01.5Cmake.5Coutput.5Cobjects.5Cbusmsg.65::
                        1185 .LDWlin65:
00000322 d2060800       1186 	andi	8,r18,zero
00000326 820d*          1187 	be	.L1954
                        1188 --line662
                        1189 ..lin.C.3A.5C_ECU2.5CECU_Rivian_A1.5CTarget.5Crepo_projects.5CpRealEcu.5CcL_R2023.2E09.2E01.5Cmake.5Coutput.5Cobjects.5Cbusmsg.66::
                        1190 .LDWlin66:
00000328 043a           1191 	mov	4,r7
                        1192 	jarl	_BusMsgPutWarning,lp
                        1192 <EXPANSION BEGIN>
                        1192 jarl22 _BusMsgPutWarning , lp 
0000032a bffff6fd*      1192 <EXPANSION END>

                                                                      Page 22
                                                              C:\Users\nhuliyap\AppData\Local\Temp\gh_00006oo1.s
                        1193 --line663
                        1194 ..lin.C.3A.5C_ECU2.5CECU_Rivian_A1.5CTarget.5Crepo_projects.5CpRealEcu.5CcL_R2023.2E09.2E01.5Cmake.5Coutput.5Cobjects.5Cbusmsg.67::
                        1195 .LDWlin67:
0000032e 0a32           1196 	mov	10,r6
                        1197 	jarl	_SilaPutState,lp
                        1197 <EXPANSION BEGIN>
                        1197 jarl22 _SilaPutState , lp 
00000330 80ff0000*      1197 <EXPANSION END>
00000334 d50d*          1198 	br	.L1953
                        1199 .L1954:
                        1200 --line667
                        1201 ..lin.C.3A.5C_ECU2.5CECU_Rivian_A1.5CTarget.5Crepo_projects.5CpRealEcu.5CcL_R2023.2E09.2E01.5Cmake.5Coutput.5Cobjects.5Cbusmsg.68::
                        1202 .LDWlin68:
00000336 8892           1203 	shr	8,r18
00000338 890d*          1204 	bnl	.L1957
                        1205 --line669
                        1206 ..lin.C.3A.5C_ECU2.5CECU_Rivian_A1.5CTarget.5Crepo_projects.5CpRealEcu.5CcL_R2023.2E09.2E01.5Cmake.5Coutput.5Cobjects.5Cbusmsg.69::
                        1207 .LDWlin69:
0000033a 033a           1208 	mov	3,r7
                        1209 	jarl	_BusMsgPutWarning,lp
                        1209 <EXPANSION BEGIN>
                        1209 jarl22 _BusMsgPutWarning , lp 
0000033c bfffe4fd*      1209 <EXPANSION END>
                        1210 --line670
                        1211 ..lin.C.3A.5C_ECU2.5CECU_Rivian_A1.5CTarget.5Crepo_projects.5CpRealEcu.5CcL_R2023.2E09.2E01.5Cmake.5Coutput.5Cobjects.5Cbusmsg.70::
                        1212 .LDWlin70:
00000340 0a32           1213 	mov	10,r6
                        1214 	jarl	_SilaPutState,lp
                        1214 <EXPANSION BEGIN>
                        1214 jarl22 _SilaPutState , lp 
00000342 80ff0000*      1214 <EXPANSION END>
00000346 c505*          1215 	br	.L1953
                        1216 .L1957:
                        1217 --line674
                        1218 ..lin.C.3A.5C_ECU2.5CECU_Rivian_A1.5CTarget.5Crepo_projects.5CpRealEcu.5CcL_R2023.2E09.2E01.5Cmake.5Coutput.5Cobjects.5Cbusmsg.71::
                        1219 .LDWlin71:
00000348 0638           1220 	mov	r6,r7
                        1221 	jarl	_BusMsgPutWarning,lp
                        1221 <EXPANSION BEGIN>
                        1221 jarl22 _BusMsgPutWarning , lp 
0000034a bfffd6fd*      1221 <EXPANSION END>
                        1222 .L1953:
                        1223 --line679
                        1224 ..lin.C.3A.5C_ECU2.5CECU_Rivian_A1.5CTarget.5Crepo_projects.5CpRealEcu.5CcL_R2023.2E09.2E01.5Cmake.5Coutput.5Cobjects.5Cbusmsg.72::
                        1225 .LDWlin72:
0000034e 9d970100       1226 	ld.bu	0[r29],r18
00000352 0132           1227 	mov	1,r6
00000354 d29e4000       1228 	andi	64,r18,r19
00000358 e19f143b       1229 	cmovne	1,r19,r7
                        1230 	jarl	_BusMsgPutTemperatureWarning,lp
                        1230 <EXPANSION BEGIN>
                        1230 jarl22 _BusMsgPutTemperatureWarning , lp 
0000035c bfff8cfd*      1230 <EXPANSION END>
                        1231 --	    .ef
                        1232 .LDW95:
                        1233 --line688
                        1234 ..lin.C.3A.5C_ECU2.5CECU_Rivian_A1.5CTarget.5Crepo_projects.5CpRealEcu.5CcL_R2023.2E09.2E01.5Cmake.5Coutput.5Cobjects.5Cbusmsg.73::
                        1235 .LDWlin73:
00000360 40067f00       1236 	dispose	0,{r29,r31},[lp]
                        1237 ___ghs_eofn_BusMsgCheckWarningsFrontRight:
                        1238 	.type	_BusMsgCheckWarningsFrontRight,@function

                                                                      Page 23
                                                              C:\Users\nhuliyap\AppData\Local\Temp\gh_00006oo1.s
                        1239 	.size	_BusMsgCheckWarningsFrontRight,.-_BusMsgCheckWarningsFrontRight
                        1240 	.type	_BusMsgCheckWarningsFrontRight..C.3A.5C_ECU2.5CECU_Rivian_A1.5CTarget.5Crepo_projects.5CpRealEcu.5CcL_R2023.2E09.2E01.5Cmake.5Coutput.5Cobjects.5Cbusmsg.,@function
                        1241 	.size	_BusMsgCheckWarningsFrontRight..C.3A.5C_ECU2.5CECU_Rivian_A1.5CTarget.5Crepo_projects.5CpRealEcu.5CcL_R2023.2E09.2E01.5Cmake.5Coutput.5Cobjects.5Cbusmsg.,.-_BusMsgCheckWarningsFrontRight..C.3A.5C_ECU2.5CECU_Rivian_A1.5CTarget.5Crepo_projects.5CpRealEcu.5CcL_R2023.2E09.2E01.5Cmake.5Coutput.5Cobjects.5Cbusmsg.
                        1242 	.align	2
                        1243 
                        1244 	.section ".bss","awb"
                        1245 .L2045:
                        1246 	.type	.L2045,@object
                        1247 	.size	.L2045,0
                        1248 	.data
                        1249 	.text
                        1250 	.align	2
                        1251 	.align	2
                        1252 ..gh.f.f.1.e.25:
                        1253 	.type	..gh.f.f.1.e.25,@object
                        1254 	.size	..gh.f.f.1.e.25,0
                        1255 	.global	_BusMsgCheckWarningsRearLeft..C.3A.5C_ECU2.5CECU_Rivian_A1.5CTarget.5Crepo_projects.5CpRealEcu.5CcL_R2023.2E09.2E01.5Cmake.5Coutput.5Cobjects.5Cbusmsg.
                        1256 _BusMsgCheckWarningsRearLeft..C.3A.5C_ECU2.5CECU_Rivian_A1.5CTarget.5Crepo_projects.5CpRealEcu.5CcL_R2023.2E09.2E01.5Cmake.5Coutput.5Cobjects.5Cbusmsg.:
                        1257 _BusMsgCheckWarningsRearLeft:
00000364 80076100       1258 	prepare	{r29,r31},0
                        1259 --	    .bf
                        1260 .LDW06:
00000368 0232           1261 	mov	2,r6
                        1262 	jarl	_GETbNoWarnPartSurv,lp
                        1262 <EXPANSION BEGIN>
                        1262 jarl22 _GETbNoWarnPartSurv , lp 
0000036a bfff56fe*      1262 <EXPANSION END>
0000036e 6152           1263 	cmp	1,r10
00000370 e205*          1264 	be	.L2172
00000372 0032           1265 	mov	0,r6
                        1266 	jarl	_BusMsgGetTextflag,lp
                        1266 <EXPANSION BEGIN>
                        1266 jarl22 _BusMsgGetTextflag , lp 
00000374 bfff36fe*      1266 <EXPANSION END>
00000378 6152           1267 	cmp	1,r10
0000037a aa0d*          1268 	bne	.L2171
                        1269 .L2172:
                        1270 --line694
                        1271 ..lin.C.3A.5C_ECU2.5CECU_Rivian_A1.5CTarget.5Crepo_projects.5CpRealEcu.5CcL_R2023.2E09.2E01.5Cmake.5Coutput.5Cobjects.5Cbusmsg.74::
                        1272 .LDWlin74:
0000037c 0232           1273 	mov	2,r6
0000037e 003a           1274 	mov	0,r7
                        1275 	jarl	_BusMsgPutWarning,lp
                        1275 <EXPANSION BEGIN>
                        1275 jarl22 _BusMsgPutWarning , lp 
00000380 bfffa0fd*      1275 <EXPANSION END>
                        1276 --line695
                        1277 ..lin.C.3A.5C_ECU2.5CECU_Rivian_A1.5CTarget.5Crepo_projects.5CpRealEcu.5CcL_R2023.2E09.2E01.5Cmake.5Coutput.5Cobjects.5Cbusmsg.75::
                        1278 .LDWlin75:
00000384 0b32           1279 	mov	11,r6
                        1280 	jarl	_SilaPutState,lp
                        1280 <EXPANSION BEGIN>
                        1280 jarl22 _SilaPutState , lp 
00000386 80ff0000*      1280 <EXPANSION END>
0000038a 40067f00       1281 	dispose	0,{r29,r31},[lp]
                        1282 .L2171:
                        1283 --line699
                        1284 ..lin.C.3A.5C_ECU2.5CECU_Rivian_A1.5CTarget.5Crepo_projects.5CpRealEcu.5CcL_R2023.2E09.2E01.5Cmake.5Coutput.5Cobjects.5Cbusmsg.76::
                        1285 .LDWlin76:
0000038e 3d0600000000*  1286 	mov	_aucWheelPosWarn+2,r29
00000394 9d970100       1287 	ld.bu	0[r29],r18

                                                                      Page 24
                                                              C:\Users\nhuliyap\AppData\Local\Temp\gh_00006oo1.s
00000398 0232           1288 	mov	2,r6
0000039a d2060100       1289 	andi	1,r18,zero
0000039e 820d*          1290 	be	.L2175
                        1291 --line701
                        1292 ..lin.C.3A.5C_ECU2.5CECU_Rivian_A1.5CTarget.5Crepo_projects.5CpRealEcu.5CcL_R2023.2E09.2E01.5Cmake.5Coutput.5Cobjects.5Cbusmsg.77::
                        1293 .LDWlin77:
000003a0 0638           1294 	mov	r6,r7
                        1295 	jarl	_BusMsgPutWarning,lp
                        1295 <EXPANSION BEGIN>
                        1295 jarl22 _BusMsgPutWarning , lp 
000003a2 bfff7efd*      1295 <EXPANSION END>
                        1296 --line702
                        1297 ..lin.C.3A.5C_ECU2.5CECU_Rivian_A1.5CTarget.5Crepo_projects.5CpRealEcu.5CcL_R2023.2E09.2E01.5Cmake.5Coutput.5Cobjects.5Cbusmsg.78::
                        1298 .LDWlin78:
000003a6 0a32           1299 	mov	10,r6
                        1300 	jarl	_SilaPutState,lp
                        1300 <EXPANSION BEGIN>
                        1300 jarl22 _SilaPutState , lp 
000003a8 80ff0000*      1300 <EXPANSION END>
000003ac f515*          1301 	br	.L2177
                        1302 .L2175:
                        1303 --line706
                        1304 ..lin.C.3A.5C_ECU2.5CECU_Rivian_A1.5CTarget.5Crepo_projects.5CpRealEcu.5CcL_R2023.2E09.2E01.5Cmake.5Coutput.5Cobjects.5Cbusmsg.79::
                        1305 .LDWlin79:
000003ae d2060800       1306 	andi	8,r18,zero
000003b2 820d*          1307 	be	.L2178
                        1308 --line708
                        1309 ..lin.C.3A.5C_ECU2.5CECU_Rivian_A1.5CTarget.5Crepo_projects.5CpRealEcu.5CcL_R2023.2E09.2E01.5Cmake.5Coutput.5Cobjects.5Cbusmsg.80::
                        1310 .LDWlin80:
000003b4 043a           1311 	mov	4,r7
                        1312 	jarl	_BusMsgPutWarning,lp
                        1312 <EXPANSION BEGIN>
                        1312 jarl22 _BusMsgPutWarning , lp 
000003b6 bfff6afd*      1312 <EXPANSION END>
                        1313 --line709
                        1314 ..lin.C.3A.5C_ECU2.5CECU_Rivian_A1.5CTarget.5Crepo_projects.5CpRealEcu.5CcL_R2023.2E09.2E01.5Cmake.5Coutput.5Cobjects.5Cbusmsg.81::
                        1315 .LDWlin81:
000003ba 0a32           1316 	mov	10,r6
                        1317 	jarl	_SilaPutState,lp
                        1317 <EXPANSION BEGIN>
                        1317 jarl22 _SilaPutState , lp 
000003bc 80ff0000*      1317 <EXPANSION END>
000003c0 d50d*          1318 	br	.L2177
                        1319 .L2178:
                        1320 --line713
                        1321 ..lin.C.3A.5C_ECU2.5CECU_Rivian_A1.5CTarget.5Crepo_projects.5CpRealEcu.5CcL_R2023.2E09.2E01.5Cmake.5Coutput.5Cobjects.5Cbusmsg.82::
                        1322 .LDWlin82:
000003c2 8892           1323 	shr	8,r18
000003c4 890d*          1324 	bnl	.L2181
                        1325 --line715
                        1326 ..lin.C.3A.5C_ECU2.5CECU_Rivian_A1.5CTarget.5Crepo_projects.5CpRealEcu.5CcL_R2023.2E09.2E01.5Cmake.5Coutput.5Cobjects.5Cbusmsg.83::
                        1327 .LDWlin83:
000003c6 033a           1328 	mov	3,r7
                        1329 	jarl	_BusMsgPutWarning,lp
                        1329 <EXPANSION BEGIN>
                        1329 jarl22 _BusMsgPutWarning , lp 
000003c8 bfff58fd*      1329 <EXPANSION END>
                        1330 --line716
                        1331 ..lin.C.3A.5C_ECU2.5CECU_Rivian_A1.5CTarget.5Crepo_projects.5CpRealEcu.5CcL_R2023.2E09.2E01.5Cmake.5Coutput.5Cobjects.5Cbusmsg.84::
                        1332 .LDWlin84:
000003cc 0a32           1333 	mov	10,r6

                                                                      Page 25
                                                              C:\Users\nhuliyap\AppData\Local\Temp\gh_00006oo1.s
                        1334 	jarl	_SilaPutState,lp
                        1334 <EXPANSION BEGIN>
                        1334 jarl22 _SilaPutState , lp 
000003ce 80ff0000*      1334 <EXPANSION END>
000003d2 c505*          1335 	br	.L2177
                        1336 .L2181:
                        1337 --line720
                        1338 ..lin.C.3A.5C_ECU2.5CECU_Rivian_A1.5CTarget.5Crepo_projects.5CpRealEcu.5CcL_R2023.2E09.2E01.5Cmake.5Coutput.5Cobjects.5Cbusmsg.85::
                        1339 .LDWlin85:
000003d4 013a           1340 	mov	1,r7
                        1341 	jarl	_BusMsgPutWarning,lp
                        1341 <EXPANSION BEGIN>
                        1341 jarl22 _BusMsgPutWarning , lp 
000003d6 bfff4afd*      1341 <EXPANSION END>
                        1342 .L2177:
                        1343 --line725
                        1344 ..lin.C.3A.5C_ECU2.5CECU_Rivian_A1.5CTarget.5Crepo_projects.5CpRealEcu.5CcL_R2023.2E09.2E01.5Cmake.5Coutput.5Cobjects.5Cbusmsg.86::
                        1345 .LDWlin86:
000003da 9d970100       1346 	ld.bu	0[r29],r18
000003de 0232           1347 	mov	2,r6
000003e0 d29e4000       1348 	andi	64,r18,r19
000003e4 e19f143b       1349 	cmovne	1,r19,r7
                        1350 	jarl	_BusMsgPutTemperatureWarning,lp
                        1350 <EXPANSION BEGIN>
                        1350 jarl22 _BusMsgPutTemperatureWarning , lp 
000003e8 bfff00fd*      1350 <EXPANSION END>
                        1351 --	    .ef
                        1352 .LDW16:
                        1353 --line734
                        1354 ..lin.C.3A.5C_ECU2.5CECU_Rivian_A1.5CTarget.5Crepo_projects.5CpRealEcu.5CcL_R2023.2E09.2E01.5Cmake.5Coutput.5Cobjects.5Cbusmsg.87::
                        1355 .LDWlin87:
000003ec 40067f00       1356 	dispose	0,{r29,r31},[lp]
                        1357 ___ghs_eofn_BusMsgCheckWarningsRearLeft:
                        1358 	.type	_BusMsgCheckWarningsRearLeft,@function
                        1359 	.size	_BusMsgCheckWarningsRearLeft,.-_BusMsgCheckWarningsRearLeft
                        1360 	.type	_BusMsgCheckWarningsRearLeft..C.3A.5C_ECU2.5CECU_Rivian_A1.5CTarget.5Crepo_projects.5CpRealEcu.5CcL_R2023.2E09.2E01.5Cmake.5Coutput.5Cobjects.5Cbusmsg.,@function
                        1361 	.size	_BusMsgCheckWarningsRearLeft..C.3A.5C_ECU2.5CECU_Rivian_A1.5CTarget.5Crepo_projects.5CpRealEcu.5CcL_R2023.2E09.2E01.5Cmake.5Coutput.5Cobjects.5Cbusmsg.,.-_BusMsgCheckWarningsRearLeft..C.3A.5C_ECU2.5CECU_Rivian_A1.5CTarget.5Crepo_projects.5CpRealEcu.5CcL_R2023.2E09.2E01.5Cmake.5Coutput.5Cobjects.5Cbusmsg.
                        1362 	.align	2
                        1363 
                        1364 	.section ".bss","awb"
                        1365 .L2269:
                        1366 	.type	.L2269,@object
                        1367 	.size	.L2269,0
                        1368 	.data
                        1369 	.text
                        1370 	.align	2
                        1371 	.align	2
                        1372 ..gh.f.f.1.e.26:
                        1373 	.type	..gh.f.f.1.e.26,@object
                        1374 	.size	..gh.f.f.1.e.26,0
                        1375 	.global	_BusMsgCheckWarningsRearRight..C.3A.5C_ECU2.5CECU_Rivian_A1.5CTarget.5Crepo_projects.5CpRealEcu.5CcL_R2023.2E09.2E01.5Cmake.5Coutput.5Cobjects.5Cbusmsg.
                        1376 _BusMsgCheckWarningsRearRight..C.3A.5C_ECU2.5CECU_Rivian_A1.5CTarget.5Crepo_projects.5CpRealEcu.5CcL_R2023.2E09.2E01.5Cmake.5Coutput.5Cobjects.5Cbusmsg.:
                        1377 _BusMsgCheckWarningsRearRight:
000003f0 80076100       1378 	prepare	{r29,r31},0
                        1379 --	    .bf
                        1380 .LDW26:
000003f4 0332           1381 	mov	3,r6
                        1382 	jarl	_GETbNoWarnPartSurv,lp
                        1382 <EXPANSION BEGIN>
                        1382 jarl22 _GETbNoWarnPartSurv , lp 
000003f6 bfffcafd*      1382 <EXPANSION END>

                                                                      Page 26
                                                              C:\Users\nhuliyap\AppData\Local\Temp\gh_00006oo1.s
000003fa 6152           1383 	cmp	1,r10
000003fc e205*          1384 	be	.L2396
000003fe 0032           1385 	mov	0,r6
                        1386 	jarl	_BusMsgGetTextflag,lp
                        1386 <EXPANSION BEGIN>
                        1386 jarl22 _BusMsgGetTextflag , lp 
00000400 bfffaafd*      1386 <EXPANSION END>
00000404 6152           1387 	cmp	1,r10
00000406 aa0d*          1388 	bne	.L2395
                        1389 .L2396:
                        1390 --line740
                        1391 ..lin.C.3A.5C_ECU2.5CECU_Rivian_A1.5CTarget.5Crepo_projects.5CpRealEcu.5CcL_R2023.2E09.2E01.5Cmake.5Coutput.5Cobjects.5Cbusmsg.88::
                        1392 .LDWlin88:
00000408 0332           1393 	mov	3,r6
0000040a 003a           1394 	mov	0,r7
                        1395 	jarl	_BusMsgPutWarning,lp
                        1395 <EXPANSION BEGIN>
                        1395 jarl22 _BusMsgPutWarning , lp 
0000040c bfff14fd*      1395 <EXPANSION END>
                        1396 --line741
                        1397 ..lin.C.3A.5C_ECU2.5CECU_Rivian_A1.5CTarget.5Crepo_projects.5CpRealEcu.5CcL_R2023.2E09.2E01.5Cmake.5Coutput.5Cobjects.5Cbusmsg.89::
                        1398 .LDWlin89:
00000410 0b32           1399 	mov	11,r6
                        1400 	jarl	_SilaPutState,lp
                        1400 <EXPANSION BEGIN>
                        1400 jarl22 _SilaPutState , lp 
00000412 80ff0000*      1400 <EXPANSION END>
00000416 40067f00       1401 	dispose	0,{r29,r31},[lp]
                        1402 .L2395:
                        1403 --line745
                        1404 ..lin.C.3A.5C_ECU2.5CECU_Rivian_A1.5CTarget.5Crepo_projects.5CpRealEcu.5CcL_R2023.2E09.2E01.5Cmake.5Coutput.5Cobjects.5Cbusmsg.90::
                        1405 .LDWlin90:
0000041a 3d0600000000*  1406 	mov	_aucWheelPosWarn+3,r29
00000420 9d970100       1407 	ld.bu	0[r29],r18
00000424 0332           1408 	mov	3,r6
00000426 d2060100       1409 	andi	1,r18,zero
0000042a 820d*          1410 	be	.L2399
                        1411 --line747
                        1412 ..lin.C.3A.5C_ECU2.5CECU_Rivian_A1.5CTarget.5Crepo_projects.5CpRealEcu.5CcL_R2023.2E09.2E01.5Cmake.5Coutput.5Cobjects.5Cbusmsg.91::
                        1413 .LDWlin91:
0000042c 023a           1414 	mov	2,r7
                        1415 	jarl	_BusMsgPutWarning,lp
                        1415 <EXPANSION BEGIN>
                        1415 jarl22 _BusMsgPutWarning , lp 
0000042e bffff2fc*      1415 <EXPANSION END>
                        1416 --line748
                        1417 ..lin.C.3A.5C_ECU2.5CECU_Rivian_A1.5CTarget.5Crepo_projects.5CpRealEcu.5CcL_R2023.2E09.2E01.5Cmake.5Coutput.5Cobjects.5Cbusmsg.92::
                        1418 .LDWlin92:
00000432 0a32           1419 	mov	10,r6
                        1420 	jarl	_SilaPutState,lp
                        1420 <EXPANSION BEGIN>
                        1420 jarl22 _SilaPutState , lp 
00000434 80ff0000*      1420 <EXPANSION END>
00000438 f515*          1421 	br	.L2401
                        1422 .L2399:
                        1423 --line752
                        1424 ..lin.C.3A.5C_ECU2.5CECU_Rivian_A1.5CTarget.5Crepo_projects.5CpRealEcu.5CcL_R2023.2E09.2E01.5Cmake.5Coutput.5Cobjects.5Cbusmsg.93::
                        1425 .LDWlin93:
0000043a d2060800       1426 	andi	8,r18,zero
0000043e 820d*          1427 	be	.L2402
                        1428 --line754

                                                                      Page 27
                                                              C:\Users\nhuliyap\AppData\Local\Temp\gh_00006oo1.s
                        1429 ..lin.C.3A.5C_ECU2.5CECU_Rivian_A1.5CTarget.5Crepo_projects.5CpRealEcu.5CcL_R2023.2E09.2E01.5Cmake.5Coutput.5Cobjects.5Cbusmsg.94::
                        1430 .LDWlin94:
00000440 043a           1431 	mov	4,r7
                        1432 	jarl	_BusMsgPutWarning,lp
                        1432 <EXPANSION BEGIN>
                        1432 jarl22 _BusMsgPutWarning , lp 
00000442 bfffdefc*      1432 <EXPANSION END>
                        1433 --line755
                        1434 ..lin.C.3A.5C_ECU2.5CECU_Rivian_A1.5CTarget.5Crepo_projects.5CpRealEcu.5CcL_R2023.2E09.2E01.5Cmake.5Coutput.5Cobjects.5Cbusmsg.95::
                        1435 .LDWlin95:
00000446 0a32           1436 	mov	10,r6
                        1437 	jarl	_SilaPutState,lp
                        1437 <EXPANSION BEGIN>
                        1437 jarl22 _SilaPutState , lp 
00000448 80ff0000*      1437 <EXPANSION END>
0000044c d50d*          1438 	br	.L2401
                        1439 .L2402:
                        1440 --line759
                        1441 ..lin.C.3A.5C_ECU2.5CECU_Rivian_A1.5CTarget.5Crepo_projects.5CpRealEcu.5CcL_R2023.2E09.2E01.5Cmake.5Coutput.5Cobjects.5Cbusmsg.96::
                        1442 .LDWlin96:
0000044e 8892           1443 	shr	8,r18
00000450 890d*          1444 	bnl	.L2405
                        1445 --line761
                        1446 ..lin.C.3A.5C_ECU2.5CECU_Rivian_A1.5CTarget.5Crepo_projects.5CpRealEcu.5CcL_R2023.2E09.2E01.5Cmake.5Coutput.5Cobjects.5Cbusmsg.97::
                        1447 .LDWlin97:
00000452 0638           1448 	mov	r6,r7
                        1449 	jarl	_BusMsgPutWarning,lp
                        1449 <EXPANSION BEGIN>
                        1449 jarl22 _BusMsgPutWarning , lp 
00000454 bfffccfc*      1449 <EXPANSION END>
                        1450 --line762
                        1451 ..lin.C.3A.5C_ECU2.5CECU_Rivian_A1.5CTarget.5Crepo_projects.5CpRealEcu.5CcL_R2023.2E09.2E01.5Cmake.5Coutput.5Cobjects.5Cbusmsg.98::
                        1452 .LDWlin98:
00000458 0a32           1453 	mov	10,r6
                        1454 	jarl	_SilaPutState,lp
                        1454 <EXPANSION BEGIN>
                        1454 jarl22 _SilaPutState , lp 
0000045a 80ff0000*      1454 <EXPANSION END>
0000045e c505*          1455 	br	.L2401
                        1456 .L2405:
                        1457 --line766
                        1458 ..lin.C.3A.5C_ECU2.5CECU_Rivian_A1.5CTarget.5Crepo_projects.5CpRealEcu.5CcL_R2023.2E09.2E01.5Cmake.5Coutput.5Cobjects.5Cbusmsg.99::
                        1459 .LDWlin99:
00000460 013a           1460 	mov	1,r7
                        1461 	jarl	_BusMsgPutWarning,lp
                        1461 <EXPANSION BEGIN>
                        1461 jarl22 _BusMsgPutWarning , lp 
00000462 bfffbefc*      1461 <EXPANSION END>
                        1462 .L2401:
                        1463 --line771
                        1464 ..lin.C.3A.5C_ECU2.5CECU_Rivian_A1.5CTarget.5Crepo_projects.5CpRealEcu.5CcL_R2023.2E09.2E01.5Cmake.5Coutput.5Cobjects.5Cbusmsg.100::
                        1465 .LDWlin100:
00000466 9d970100       1466 	ld.bu	0[r29],r18
0000046a 0332           1467 	mov	3,r6
0000046c d29e4000       1468 	andi	64,r18,r19
00000470 e19f143b       1469 	cmovne	1,r19,r7
                        1470 	jarl	_BusMsgPutTemperatureWarning,lp
                        1470 <EXPANSION BEGIN>
                        1470 jarl22 _BusMsgPutTemperatureWarning , lp 
00000474 bfff74fc*      1470 <EXPANSION END>
                        1471 --	    .ef

                                                                      Page 28
                                                              C:\Users\nhuliyap\AppData\Local\Temp\gh_00006oo1.s
                        1472 .LDW36:
                        1473 --line780
                        1474 ..lin.C.3A.5C_ECU2.5CECU_Rivian_A1.5CTarget.5Crepo_projects.5CpRealEcu.5CcL_R2023.2E09.2E01.5Cmake.5Coutput.5Cobjects.5Cbusmsg.101::
                        1475 .LDWlin101:
00000478 40067f00       1476 	dispose	0,{r29,r31},[lp]
                        1477 ___ghs_eofn_BusMsgCheckWarningsRearRight:
                        1478 	.type	_BusMsgCheckWarningsRearRight,@function
                        1479 	.size	_BusMsgCheckWarningsRearRight,.-_BusMsgCheckWarningsRearRight
                        1480 	.type	_BusMsgCheckWarningsRearRight..C.3A.5C_ECU2.5CECU_Rivian_A1.5CTarget.5Crepo_projects.5CpRealEcu.5CcL_R2023.2E09.2E01.5Cmake.5Coutput.5Cobjects.5Cbusmsg.,@function
                        1481 	.size	_BusMsgCheckWarningsRearRight..C.3A.5C_ECU2.5CECU_Rivian_A1.5CTarget.5Crepo_projects.5CpRealEcu.5CcL_R2023.2E09.2E01.5Cmake.5Coutput.5Cobjects.5Cbusmsg.,.-_BusMsgCheckWarningsRearRight..C.3A.5C_ECU2.5CECU_Rivian_A1.5CTarget.5Crepo_projects.5CpRealEcu.5CcL_R2023.2E09.2E01.5Cmake.5Coutput.5Cobjects.5Cbusmsg.
                        1482 	.align	2
                        1483 
                        1484 	.section ".bss","awb"
                        1485 .L2493:
                        1486 	.type	.L2493,@object
                        1487 	.size	.L2493,0
                        1488 	.data
                        1489 	.text
                        1490 	.align	2
                        1491 	.align	2
                        1492 ..gh.f.f.1.e.27:
                        1493 	.type	..gh.f.f.1.e.27,@object
                        1494 	.size	..gh.f.f.1.e.27,0
                        1495 	.global	_BusMsgCheckWarningsUnknownPos..C.3A.5C_ECU2.5CECU_Rivian_A1.5CTarget.5Crepo_projects.5CpRealEcu.5CcL_R2023.2E09.2E01.5Cmake.5Coutput.5Cobjects.5Cbusmsg.
                        1496 _BusMsgCheckWarningsUnknownPos..C.3A.5C_ECU2.5CECU_Rivian_A1.5CTarget.5Crepo_projects.5CpRealEcu.5CcL_R2023.2E09.2E01.5Cmake.5Coutput.5Cobjects.5Cbusmsg.:
                        1497 _BusMsgCheckWarningsUnknownPos:
0000047c 80076100       1498 	prepare	{r29,r31},0
                        1499 --	    .bf
                        1500 .LDW46:
00000480 0032           1501 	mov	0,r6
                        1502 	jarl	_BusMsgGetTextflag,lp
                        1502 <EXPANSION BEGIN>
                        1502 jarl22 _BusMsgGetTextflag , lp 
00000482 bfff28fd*      1502 <EXPANSION END>
00000486 0032           1503 	mov	0,r6
00000488 6152           1504 	cmp	1,r10
0000048a aa15*          1505 	bne	.L2619
                        1506 --line786
                        1507 ..lin.C.3A.5C_ECU2.5CECU_Rivian_A1.5CTarget.5Crepo_projects.5CpRealEcu.5CcL_R2023.2E09.2E01.5Cmake.5Coutput.5Cobjects.5Cbusmsg.102::
                        1508 .LDWlin102:
0000048c 0638           1509 	mov	r6,r7
                        1510 	jarl	_BusMsgPutWarning,lp
                        1510 <EXPANSION BEGIN>
                        1510 jarl22 _BusMsgPutWarning , lp 
0000048e bfff92fc*      1510 <EXPANSION END>
                        1511 --line787
                        1512 ..lin.C.3A.5C_ECU2.5CECU_Rivian_A1.5CTarget.5Crepo_projects.5CpRealEcu.5CcL_R2023.2E09.2E01.5Cmake.5Coutput.5Cobjects.5Cbusmsg.103::
                        1513 .LDWlin103:
00000492 0a30           1514 	mov	r10,r6
                        1515 	jarl	_BusMsgPutWarning,lp
                        1515 <EXPANSION BEGIN>
                        1515 jarl22 _BusMsgPutWarning , lp 
00000494 bfff8cfc*      1515 <EXPANSION END>
                        1516 --line788
                        1517 ..lin.C.3A.5C_ECU2.5CECU_Rivian_A1.5CTarget.5Crepo_projects.5CpRealEcu.5CcL_R2023.2E09.2E01.5Cmake.5Coutput.5Cobjects.5Cbusmsg.104::
                        1518 .LDWlin104:
00000498 0232           1519 	mov	2,r6
                        1520 	jarl	_BusMsgPutWarning,lp
                        1520 <EXPANSION BEGIN>
                        1520 jarl22 _BusMsgPutWarning , lp 
0000049a bfff86fc*      1520 <EXPANSION END>

                                                                      Page 29
                                                              C:\Users\nhuliyap\AppData\Local\Temp\gh_00006oo1.s
                        1521 --line789
                        1522 ..lin.C.3A.5C_ECU2.5CECU_Rivian_A1.5CTarget.5Crepo_projects.5CpRealEcu.5CcL_R2023.2E09.2E01.5Cmake.5Coutput.5Cobjects.5Cbusmsg.105::
                        1523 .LDWlin105:
0000049e 0332           1524 	mov	3,r6
                        1525 	jarl	_BusMsgPutWarning,lp
                        1525 <EXPANSION BEGIN>
                        1525 jarl22 _BusMsgPutWarning , lp 
000004a0 bfff80fc*      1525 <EXPANSION END>
                        1526 --line790
                        1527 ..lin.C.3A.5C_ECU2.5CECU_Rivian_A1.5CTarget.5Crepo_projects.5CpRealEcu.5CcL_R2023.2E09.2E01.5Cmake.5Coutput.5Cobjects.5Cbusmsg.106::
                        1528 .LDWlin106:
000004a4 0b32           1529 	mov	11,r6
                        1530 	jarl	_SilaPutState,lp
                        1530 <EXPANSION BEGIN>
                        1530 jarl22 _SilaPutState , lp 
000004a6 80ff0000*      1530 <EXPANSION END>
000004aa 40067f00       1531 	dispose	0,{r29,r31},[lp]
                        1532 .L2619:
                        1533 --line794
                        1534 ..lin.C.3A.5C_ECU2.5CECU_Rivian_A1.5CTarget.5Crepo_projects.5CpRealEcu.5CcL_R2023.2E09.2E01.5Cmake.5Coutput.5Cobjects.5Cbusmsg.107::
                        1535 .LDWlin107:
000004ae 3d0600000000*  1536 	mov	_aucWheelPosWarn+4,r29
000004b4 9d970100       1537 	ld.bu	0[r29],r18
000004b8 d2060100       1538 	andi	1,r18,zero
000004bc 9215*          1539 	be	.L2622
                        1540 --line796
                        1541 ..lin.C.3A.5C_ECU2.5CECU_Rivian_A1.5CTarget.5Crepo_projects.5CpRealEcu.5CcL_R2023.2E09.2E01.5Cmake.5Coutput.5Cobjects.5Cbusmsg.108::
                        1542 .LDWlin108:
000004be 023a           1543 	mov	2,r7
                        1544 	jarl	_BusMsgPutWarning,lp
                        1544 <EXPANSION BEGIN>
                        1544 jarl22 _BusMsgPutWarning , lp 
000004c0 bfff60fc*      1544 <EXPANSION END>
                        1545 --line797
                        1546 ..lin.C.3A.5C_ECU2.5CECU_Rivian_A1.5CTarget.5Crepo_projects.5CpRealEcu.5CcL_R2023.2E09.2E01.5Cmake.5Coutput.5Cobjects.5Cbusmsg.109::
                        1547 .LDWlin109:
000004c4 0132           1548 	mov	1,r6
                        1549 	jarl	_BusMsgPutWarning,lp
                        1549 <EXPANSION BEGIN>
                        1549 jarl22 _BusMsgPutWarning , lp 
000004c6 bfff5afc*      1549 <EXPANSION END>
                        1550 --line798
                        1551 ..lin.C.3A.5C_ECU2.5CECU_Rivian_A1.5CTarget.5Crepo_projects.5CpRealEcu.5CcL_R2023.2E09.2E01.5Cmake.5Coutput.5Cobjects.5Cbusmsg.110::
                        1552 .LDWlin110:
000004ca 0730           1553 	mov	r7,r6
                        1554 	jarl	_BusMsgPutWarning,lp
                        1554 <EXPANSION BEGIN>
                        1554 jarl22 _BusMsgPutWarning , lp 
000004cc bfff54fc*      1554 <EXPANSION END>
                        1555 --line799
                        1556 ..lin.C.3A.5C_ECU2.5CECU_Rivian_A1.5CTarget.5Crepo_projects.5CpRealEcu.5CcL_R2023.2E09.2E01.5Cmake.5Coutput.5Cobjects.5Cbusmsg.111::
                        1557 .LDWlin111:
000004d0 0332           1558 	mov	3,r6
                        1559 	jarl	_BusMsgPutWarning,lp
                        1559 <EXPANSION BEGIN>
                        1559 jarl22 _BusMsgPutWarning , lp 
000004d2 bfff4efc*      1559 <EXPANSION END>
                        1560 --line800
                        1561 ..lin.C.3A.5C_ECU2.5CECU_Rivian_A1.5CTarget.5Crepo_projects.5CpRealEcu.5CcL_R2023.2E09.2E01.5Cmake.5Coutput.5Cobjects.5Cbusmsg.112::
                        1562 .LDWlin112:
000004d6 0a32           1563 	mov	10,r6

                                                                      Page 30
                                                              C:\Users\nhuliyap\AppData\Local\Temp\gh_00006oo1.s
                        1564 	jarl	_SilaPutState,lp
                        1564 <EXPANSION BEGIN>
                        1564 jarl22 _SilaPutState , lp 
000004d8 80ff0000*      1564 <EXPANSION END>
000004dc a535*          1565 	br	.L2624
                        1566 .L2622:
                        1567 --line804
                        1568 ..lin.C.3A.5C_ECU2.5CECU_Rivian_A1.5CTarget.5Crepo_projects.5CpRealEcu.5CcL_R2023.2E09.2E01.5Cmake.5Coutput.5Cobjects.5Cbusmsg.113::
                        1569 .LDWlin113:
000004de d2060800       1570 	andi	8,r18,zero
000004e2 9215*          1571 	be	.L2625
                        1572 --line806
                        1573 ..lin.C.3A.5C_ECU2.5CECU_Rivian_A1.5CTarget.5Crepo_projects.5CpRealEcu.5CcL_R2023.2E09.2E01.5Cmake.5Coutput.5Cobjects.5Cbusmsg.114::
                        1574 .LDWlin114:
000004e4 043a           1575 	mov	4,r7
                        1576 	jarl	_BusMsgPutWarning,lp
                        1576 <EXPANSION BEGIN>
                        1576 jarl22 _BusMsgPutWarning , lp 
000004e6 bfff3afc*      1576 <EXPANSION END>
                        1577 --line807
                        1578 ..lin.C.3A.5C_ECU2.5CECU_Rivian_A1.5CTarget.5Crepo_projects.5CpRealEcu.5CcL_R2023.2E09.2E01.5Cmake.5Coutput.5Cobjects.5Cbusmsg.115::
                        1579 .LDWlin115:
000004ea 0132           1580 	mov	1,r6
                        1581 	jarl	_BusMsgPutWarning,lp
                        1581 <EXPANSION BEGIN>
                        1581 jarl22 _BusMsgPutWarning , lp 
000004ec bfff34fc*      1581 <EXPANSION END>
                        1582 --line808
                        1583 ..lin.C.3A.5C_ECU2.5CECU_Rivian_A1.5CTarget.5Crepo_projects.5CpRealEcu.5CcL_R2023.2E09.2E01.5Cmake.5Coutput.5Cobjects.5Cbusmsg.116::
                        1584 .LDWlin116:
000004f0 0232           1585 	mov	2,r6
                        1586 	jarl	_BusMsgPutWarning,lp
                        1586 <EXPANSION BEGIN>
                        1586 jarl22 _BusMsgPutWarning , lp 
000004f2 bfff2efc*      1586 <EXPANSION END>
                        1587 --line809
                        1588 ..lin.C.3A.5C_ECU2.5CECU_Rivian_A1.5CTarget.5Crepo_projects.5CpRealEcu.5CcL_R2023.2E09.2E01.5Cmake.5Coutput.5Cobjects.5Cbusmsg.117::
                        1589 .LDWlin117:
000004f6 0332           1590 	mov	3,r6
                        1591 	jarl	_BusMsgPutWarning,lp
                        1591 <EXPANSION BEGIN>
                        1591 jarl22 _BusMsgPutWarning , lp 
000004f8 bfff28fc*      1591 <EXPANSION END>
                        1592 --line810
                        1593 ..lin.C.3A.5C_ECU2.5CECU_Rivian_A1.5CTarget.5Crepo_projects.5CpRealEcu.5CcL_R2023.2E09.2E01.5Cmake.5Coutput.5Cobjects.5Cbusmsg.118::
                        1594 .LDWlin118:
000004fc 0a32           1595 	mov	10,r6
                        1596 	jarl	_SilaPutState,lp
                        1596 <EXPANSION BEGIN>
                        1596 jarl22 _SilaPutState , lp 
000004fe 80ff0000*      1596 <EXPANSION END>
00000502 f51d*          1597 	br	.L2624
                        1598 .L2625:
                        1599 --line814
                        1600 ..lin.C.3A.5C_ECU2.5CECU_Rivian_A1.5CTarget.5Crepo_projects.5CpRealEcu.5CcL_R2023.2E09.2E01.5Cmake.5Coutput.5Cobjects.5Cbusmsg.119::
                        1601 .LDWlin119:
00000504 8892           1602 	shr	8,r18
00000506 9915*          1603 	bnl	.L2628
                        1604 --line816
                        1605 ..lin.C.3A.5C_ECU2.5CECU_Rivian_A1.5CTarget.5Crepo_projects.5CpRealEcu.5CcL_R2023.2E09.2E01.5Cmake.5Coutput.5Cobjects.5Cbusmsg.120::
                        1606 .LDWlin120:

                                                                      Page 31
                                                              C:\Users\nhuliyap\AppData\Local\Temp\gh_00006oo1.s
00000508 033a           1607 	mov	3,r7
                        1608 	jarl	_BusMsgPutWarning,lp
                        1608 <EXPANSION BEGIN>
                        1608 jarl22 _BusMsgPutWarning , lp 
0000050a bfff16fc*      1608 <EXPANSION END>
                        1609 --line817
                        1610 ..lin.C.3A.5C_ECU2.5CECU_Rivian_A1.5CTarget.5Crepo_projects.5CpRealEcu.5CcL_R2023.2E09.2E01.5Cmake.5Coutput.5Cobjects.5Cbusmsg.121::
                        1611 .LDWlin121:
0000050e 0132           1612 	mov	1,r6
                        1613 	jarl	_BusMsgPutWarning,lp
                        1613 <EXPANSION BEGIN>
                        1613 jarl22 _BusMsgPutWarning , lp 
00000510 bfff10fc*      1613 <EXPANSION END>
                        1614 --line818
                        1615 ..lin.C.3A.5C_ECU2.5CECU_Rivian_A1.5CTarget.5Crepo_projects.5CpRealEcu.5CcL_R2023.2E09.2E01.5Cmake.5Coutput.5Cobjects.5Cbusmsg.122::
                        1616 .LDWlin122:
00000514 0232           1617 	mov	2,r6
                        1618 	jarl	_BusMsgPutWarning,lp
                        1618 <EXPANSION BEGIN>
                        1618 jarl22 _BusMsgPutWarning , lp 
00000516 bfff0afc*      1618 <EXPANSION END>
                        1619 --line819
                        1620 ..lin.C.3A.5C_ECU2.5CECU_Rivian_A1.5CTarget.5Crepo_projects.5CpRealEcu.5CcL_R2023.2E09.2E01.5Cmake.5Coutput.5Cobjects.5Cbusmsg.123::
                        1621 .LDWlin123:
0000051a 0730           1622 	mov	r7,r6
                        1623 	jarl	_BusMsgPutWarning,lp
                        1623 <EXPANSION BEGIN>
                        1623 jarl22 _BusMsgPutWarning , lp 
0000051c bfff04fc*      1623 <EXPANSION END>
                        1624 --line820
                        1625 ..lin.C.3A.5C_ECU2.5CECU_Rivian_A1.5CTarget.5Crepo_projects.5CpRealEcu.5CcL_R2023.2E09.2E01.5Cmake.5Coutput.5Cobjects.5Cbusmsg.124::
                        1626 .LDWlin124:
00000520 0a32           1627 	mov	10,r6
                        1628 	jarl	_SilaPutState,lp
                        1628 <EXPANSION BEGIN>
                        1628 jarl22 _SilaPutState , lp 
00000522 80ff0000*      1628 <EXPANSION END>
00000526 d50d*          1629 	br	.L2624
                        1630 .L2628:
                        1631 --line824
                        1632 ..lin.C.3A.5C_ECU2.5CECU_Rivian_A1.5CTarget.5Crepo_projects.5CpRealEcu.5CcL_R2023.2E09.2E01.5Cmake.5Coutput.5Cobjects.5Cbusmsg.125::
                        1633 .LDWlin125:
00000528 013a           1634 	mov	1,r7
                        1635 	jarl	_BusMsgPutWarning,lp
                        1635 <EXPANSION BEGIN>
                        1635 jarl22 _BusMsgPutWarning , lp 
0000052a bffff6fb*      1635 <EXPANSION END>
                        1636 --line825
                        1637 ..lin.C.3A.5C_ECU2.5CECU_Rivian_A1.5CTarget.5Crepo_projects.5CpRealEcu.5CcL_R2023.2E09.2E01.5Cmake.5Coutput.5Cobjects.5Cbusmsg.126::
                        1638 .LDWlin126:
0000052e 0730           1639 	mov	r7,r6
                        1640 	jarl	_BusMsgPutWarning,lp
                        1640 <EXPANSION BEGIN>
                        1640 jarl22 _BusMsgPutWarning , lp 
00000530 bffff0fb*      1640 <EXPANSION END>
                        1641 --line826
                        1642 ..lin.C.3A.5C_ECU2.5CECU_Rivian_A1.5CTarget.5Crepo_projects.5CpRealEcu.5CcL_R2023.2E09.2E01.5Cmake.5Coutput.5Cobjects.5Cbusmsg.127::
                        1643 .LDWlin127:
00000534 0232           1644 	mov	2,r6
                        1645 	jarl	_BusMsgPutWarning,lp
                        1645 <EXPANSION BEGIN>

                                                                      Page 32
                                                              C:\Users\nhuliyap\AppData\Local\Temp\gh_00006oo1.s
                        1645 jarl22 _BusMsgPutWarning , lp 
00000536 bfffeafb*      1645 <EXPANSION END>
                        1646 --line827
                        1647 ..lin.C.3A.5C_ECU2.5CECU_Rivian_A1.5CTarget.5Crepo_projects.5CpRealEcu.5CcL_R2023.2E09.2E01.5Cmake.5Coutput.5Cobjects.5Cbusmsg.128::
                        1648 .LDWlin128:
0000053a 0332           1649 	mov	3,r6
                        1650 	jarl	_BusMsgPutWarning,lp
                        1650 <EXPANSION BEGIN>
                        1650 jarl22 _BusMsgPutWarning , lp 
0000053c bfffe4fb*      1650 <EXPANSION END>
                        1651 .L2624:
                        1652 --line832
                        1653 ..lin.C.3A.5C_ECU2.5CECU_Rivian_A1.5CTarget.5Crepo_projects.5CpRealEcu.5CcL_R2023.2E09.2E01.5Cmake.5Coutput.5Cobjects.5Cbusmsg.129::
                        1654 .LDWlin129:
00000540 0032           1655 	mov	0,r6
00000542 ddf70000       1656 	tst1	6,0[r29]
00000546 a215*          1657 	be	.L2631
                        1658 --line834
                        1659 ..lin.C.3A.5C_ECU2.5CECU_Rivian_A1.5CTarget.5Crepo_projects.5CpRealEcu.5CcL_R2023.2E09.2E01.5Cmake.5Coutput.5Cobjects.5Cbusmsg.130::
                        1660 .LDWlin130:
00000548 013a           1661 	mov	1,r7
                        1662 	jarl	_BusMsgPutTemperatureWarning,lp
                        1662 <EXPANSION BEGIN>
                        1662 jarl22 _BusMsgPutTemperatureWarning , lp 
0000054a bfff9efb*      1662 <EXPANSION END>
                        1663 --line835
                        1664 ..lin.C.3A.5C_ECU2.5CECU_Rivian_A1.5CTarget.5Crepo_projects.5CpRealEcu.5CcL_R2023.2E09.2E01.5Cmake.5Coutput.5Cobjects.5Cbusmsg.131::
                        1665 .LDWlin131:
0000054e 0132           1666 	mov	1,r6
00000550 0638           1667 	mov	r6,r7
                        1668 	jarl	_BusMsgPutTemperatureWarning,lp
                        1668 <EXPANSION BEGIN>
                        1668 jarl22 _BusMsgPutTemperatureWarning , lp 
00000552 bfff96fb*      1668 <EXPANSION END>
                        1669 --line836
                        1670 ..lin.C.3A.5C_ECU2.5CECU_Rivian_A1.5CTarget.5Crepo_projects.5CpRealEcu.5CcL_R2023.2E09.2E01.5Cmake.5Coutput.5Cobjects.5Cbusmsg.132::
                        1671 .LDWlin132:
00000556 0232           1672 	mov	2,r6
00000558 013a           1673 	mov	1,r7
                        1674 	jarl	_BusMsgPutTemperatureWarning,lp
                        1674 <EXPANSION BEGIN>
                        1674 jarl22 _BusMsgPutTemperatureWarning , lp 
0000055a bfff8efb*      1674 <EXPANSION END>
                        1675 --line837
                        1676 ..lin.C.3A.5C_ECU2.5CECU_Rivian_A1.5CTarget.5Crepo_projects.5CpRealEcu.5CcL_R2023.2E09.2E01.5Cmake.5Coutput.5Cobjects.5Cbusmsg.133::
                        1677 .LDWlin133:
0000055e 0332           1678 	mov	3,r6
00000560 013a           1679 	mov	1,r7
                        1680 	jarl	_BusMsgPutTemperatureWarning,lp
                        1680 <EXPANSION BEGIN>
                        1680 jarl22 _BusMsgPutTemperatureWarning , lp 
00000562 bfff86fb*      1680 <EXPANSION END>
00000566 40067f00       1681 	dispose	0,{r29,r31},[lp]
                        1682 .L2631:
                        1683 --line841
                        1684 ..lin.C.3A.5C_ECU2.5CECU_Rivian_A1.5CTarget.5Crepo_projects.5CpRealEcu.5CcL_R2023.2E09.2E01.5Cmake.5Coutput.5Cobjects.5Cbusmsg.134::
                        1685 .LDWlin134:
0000056a 0638           1686 	mov	r6,r7
                        1687 	jarl	_BusMsgPutTemperatureWarning,lp
                        1687 <EXPANSION BEGIN>
                        1687 jarl22 _BusMsgPutTemperatureWarning , lp 

                                                                      Page 33
                                                              C:\Users\nhuliyap\AppData\Local\Temp\gh_00006oo1.s
0000056c bfff7cfb*      1687 <EXPANSION END>
                        1688 --line842
                        1689 ..lin.C.3A.5C_ECU2.5CECU_Rivian_A1.5CTarget.5Crepo_projects.5CpRealEcu.5CcL_R2023.2E09.2E01.5Cmake.5Coutput.5Cobjects.5Cbusmsg.135::
                        1690 .LDWlin135:
00000570 0132           1691 	mov	1,r6
00000572 003a           1692 	mov	0,r7
                        1693 	jarl	_BusMsgPutTemperatureWarning,lp
                        1693 <EXPANSION BEGIN>
                        1693 jarl22 _BusMsgPutTemperatureWarning , lp 
00000574 bfff74fb*      1693 <EXPANSION END>
                        1694 --line843
                        1695 ..lin.C.3A.5C_ECU2.5CECU_Rivian_A1.5CTarget.5Crepo_projects.5CpRealEcu.5CcL_R2023.2E09.2E01.5Cmake.5Coutput.5Cobjects.5Cbusmsg.136::
                        1696 .LDWlin136:
00000578 0232           1697 	mov	2,r6
0000057a 003a           1698 	mov	0,r7
                        1699 	jarl	_BusMsgPutTemperatureWarning,lp
                        1699 <EXPANSION BEGIN>
                        1699 jarl22 _BusMsgPutTemperatureWarning , lp 
0000057c bfff6cfb*      1699 <EXPANSION END>
                        1700 --line844
                        1701 ..lin.C.3A.5C_ECU2.5CECU_Rivian_A1.5CTarget.5Crepo_projects.5CpRealEcu.5CcL_R2023.2E09.2E01.5Cmake.5Coutput.5Cobjects.5Cbusmsg.137::
                        1702 .LDWlin137:
00000580 0332           1703 	mov	3,r6
00000582 003a           1704 	mov	0,r7
                        1705 	jarl	_BusMsgPutTemperatureWarning,lp
                        1705 <EXPANSION BEGIN>
                        1705 jarl22 _BusMsgPutTemperatureWarning , lp 
00000584 bfff64fb*      1705 <EXPANSION END>
                        1706 --	    .ef
                        1707 .LDW56:
                        1708 --line847
                        1709 ..lin.C.3A.5C_ECU2.5CECU_Rivian_A1.5CTarget.5Crepo_projects.5CpRealEcu.5CcL_R2023.2E09.2E01.5Cmake.5Coutput.5Cobjects.5Cbusmsg.138::
                        1710 .LDWlin138:
00000588 40067f00       1711 	dispose	0,{r29,r31},[lp]
                        1712 ___ghs_eofn_BusMsgCheckWarningsUnknownPos:
                        1713 	.type	_BusMsgCheckWarningsUnknownPos,@function
                        1714 	.size	_BusMsgCheckWarningsUnknownPos,.-_BusMsgCheckWarningsUnknownPos
                        1715 	.type	_BusMsgCheckWarningsUnknownPos..C.3A.5C_ECU2.5CECU_Rivian_A1.5CTarget.5Crepo_projects.5CpRealEcu.5CcL_R2023.2E09.2E01.5Cmake.5Coutput.5Cobjects.5Cbusmsg.,@function
                        1716 	.size	_BusMsgCheckWarningsUnknownPos..C.3A.5C_ECU2.5CECU_Rivian_A1.5CTarget.5Crepo_projects.5CpRealEcu.5CcL_R2023.2E09.2E01.5Cmake.5Coutput.5Cobjects.5Cbusmsg.,.-_BusMsgCheckWarningsUnknownPos..C.3A.5C_ECU2.5CECU_Rivian_A1.5CTarget.5Crepo_projects.5CpRealEcu.5CcL_R2023.2E09.2E01.5Cmake.5Coutput.5Cobjects.5Cbusmsg.
                        1717 	.align	2
                        1718 
                        1719 	.section ".bss","awb"
                        1720 .L2712:
                        1721 	.type	.L2712,@object
                        1722 	.size	.L2712,0
                        1723 	.data
                        1724 	.text
                        1725 	.align	2
                        1726 	.align	2
                        1727 ..gh.f.f.1.e.28:
                        1728 	.type	..gh.f.f.1.e.28,@object
                        1729 	.size	..gh.f.f.1.e.28,0
                        1730 	.global	_BusMsgDoTeleFinished
                        1731 _BusMsgDoTeleFinished:
0000058c 80076100       1732 	prepare	{r29,r31},0
                        1733 --	    .bf
                        1734 .LDW66:
                        1735 	jarl	_BusMsgClr,lp
                        1735 <EXPANSION BEGIN>
                        1735 jarl22 _BusMsgClr , lp 
00000590 bfffa8fa*      1735 <EXPANSION END>

                                                                      Page 34
                                                              C:\Users\nhuliyap\AppData\Local\Temp\gh_00006oo1.s
                        1736 --line302
                        1737 ..lin.C.3A.5C_ECU2.5CECU_Rivian_A1.5CTarget.5Crepo_projects.5CpRealEcu.5CcL_R2023.2E09.2E01.5Cmake.5Coutput.5Cobjects.5Cbusmsg.139::
                        1738 .LDWlin139:
                        1739 	jarl	_GetSystem_DefectECUState,lp
                        1739 <EXPANSION BEGIN>
                        1739 jarl22 _GetSystem_DefectECUState , lp 
00000594 80ff0000*      1739 <EXPANSION END>
00000598 6152           1740 	cmp	1,r10
0000059a c21d*          1741 	be	.L2838
0000059c 20360110       1742 	movea	4097,zero,r6
                        1743 	jarl	_ushGetBetriebszustandBZ,lp
                        1743 <EXPANSION BEGIN>
                        1743 jarl22 _ushGetBetriebszustandBZ , lp 
000005a0 80ff0000*      1743 <EXPANSION END>
000005a4 0a0600f0       1744 	addi	-4096,r10,zero
000005a8 d215*          1745 	be	.L2838
000005aa 20361300       1746 	movea	19,zero,r6
                        1747 	jarl	_DTC_GetActiveStatusOfDTC,lp
                        1747 <EXPANSION BEGIN>
                        1747 jarl22 _DTC_GetActiveStatusOfDTC , lp 
000005ae 80ff0000*      1747 <EXPANSION END>
000005b2 6152           1748 	cmp	1,r10
000005b4 e2370433       1749 	cmove	2,r6,r6
000005b8 8215*          1750 	be	.L3032
                        1751 --line313
                        1752 ..lin.C.3A.5C_ECU2.5CECU_Rivian_A1.5CTarget.5Crepo_projects.5CpRealEcu.5CcL_R2023.2E09.2E01.5Cmake.5Coutput.5Cobjects.5Cbusmsg.140::
                        1753 .LDWlin140:
                        1754 	jarl	_GETbHfIntLatchEE,lp
                        1754 <EXPANSION BEGIN>
                        1754 jarl22 _GETbHfIntLatchEE , lp 
000005ba 80ff0000*      1754 <EXPANSION END>
000005be 6152           1755 	cmp	1,r10
000005c0 b20d*          1756 	be	.L2843
000005c2 20361700       1757 	movea	23,zero,r6
                        1758 	jarl	_DTC_GetActiveStatusOfDTC,lp
                        1758 <EXPANSION BEGIN>
                        1758 jarl22 _DTC_GetActiveStatusOfDTC , lp 
000005c6 80ff0000*      1758 <EXPANSION END>
000005ca 6152           1759 	cmp	1,r10
000005cc ca0d*          1760 	bne	.L2841
000005ce 0332           1761 	mov	3,r6
000005d0 c505*          1762 	br	.L3032
                        1763 .L2838:
                        1764 --line308
                        1765 ..lin.C.3A.5C_ECU2.5CECU_Rivian_A1.5CTarget.5Crepo_projects.5CpRealEcu.5CcL_R2023.2E09.2E01.5Cmake.5Coutput.5Cobjects.5Cbusmsg.141::
                        1766 .LDWlin141:
000005d2 0232           1767 	mov	2,r6
000005d4 a505*          1768 	br	.L3032
                        1769 .L2843:
                        1770 --line316
                        1771 ..lin.C.3A.5C_ECU2.5CECU_Rivian_A1.5CTarget.5Crepo_projects.5CpRealEcu.5CcL_R2023.2E09.2E01.5Cmake.5Coutput.5Cobjects.5Cbusmsg.142::
                        1772 .LDWlin142:
000005d6 0332           1773 	mov	3,r6
                        1774 .L3032:
000005d8 013a           1775 	mov	1,r7
                        1776 	jarl	_BusMsgPutTextflag,lp
                        1776 <EXPANSION BEGIN>
                        1776 jarl22 _BusMsgPutTextflag , lp 
000005da bfffbefb*      1776 <EXPANSION END>
000005de 0b32           1777 	mov	11,r6
                        1778 	jarl	_SilaPutState,lp

                                                                      Page 35
                                                              C:\Users\nhuliyap\AppData\Local\Temp\gh_00006oo1.s
                        1778 <EXPANSION BEGIN>
                        1778 jarl22 _SilaPutState , lp 
000005e0 80ff0000*      1778 <EXPANSION END>
                        1779 .L2841:
                        1780 --line321
                        1781 ..lin.C.3A.5C_ECU2.5CECU_Rivian_A1.5CTarget.5Crepo_projects.5CpRealEcu.5CcL_R2023.2E09.2E01.5Cmake.5Coutput.5Cobjects.5Cbusmsg.143::
                        1782 .LDWlin143:
000005e4 20361000       1783 	movea	16,zero,r6
                        1784 	jarl	_bGetBitBetriebszustandBZ,lp
                        1784 <EXPANSION BEGIN>
                        1784 jarl22 _bGetBitBetriebszustandBZ , lp 
000005e8 80ff0000*      1784 <EXPANSION END>
000005ec 6152           1785 	cmp	1,r10
000005ee aa15*          1786 	bne	.L2845
                        1787 --line323
                        1788 ..lin.C.3A.5C_ECU2.5CECU_Rivian_A1.5CTarget.5Crepo_projects.5CpRealEcu.5CcL_R2023.2E09.2E01.5Cmake.5Coutput.5Cobjects.5Cbusmsg.144::
                        1789 .LDWlin144:
                        1790 	jarl	_BusMsgDetermineErrCounter,lp
                        1790 <EXPANSION BEGIN>
                        1790 jarl22 _BusMsgDetermineErrCounter , lp 
000005f0 bfff20fc*      1790 <EXPANSION END>
                        1791 --line325
                        1792 ..lin.C.3A.5C_ECU2.5CECU_Rivian_A1.5CTarget.5Crepo_projects.5CpRealEcu.5CcL_R2023.2E09.2E01.5Cmake.5Coutput.5Cobjects.5Cbusmsg.145::
                        1793 .LDWlin145:
000005f4 6152           1794 	cmp	1,r10
000005f6 d305*          1795 	bnh	.L2847
                        1796 --line328
                        1797 ..lin.C.3A.5C_ECU2.5CECU_Rivian_A1.5CTarget.5Crepo_projects.5CpRealEcu.5CcL_R2023.2E09.2E01.5Cmake.5Coutput.5Cobjects.5Cbusmsg.146::
                        1798 .LDWlin146:
000005f8 0032           1799 	mov	0,r6
000005fa 013a           1800 	mov	1,r7
                        1801 	jarl	_BusMsgPutTextflag,lp
                        1801 <EXPANSION BEGIN>
                        1801 jarl22 _BusMsgPutTextflag , lp 
000005fc bfff9cfb*      1801 <EXPANSION END>
                        1802 .L2847:
                        1803 --line331
                        1804 ..lin.C.3A.5C_ECU2.5CECU_Rivian_A1.5CTarget.5Crepo_projects.5CpRealEcu.5CcL_R2023.2E09.2E01.5Cmake.5Coutput.5Cobjects.5Cbusmsg.147::
                        1805 .LDWlin147:
                        1806 	jarl	_BusMsgCheckWarningsFrontLeft,lp
                        1806 <EXPANSION BEGIN>
                        1806 jarl22 _BusMsgCheckWarningsFrontLeft , lp 
00000600 bfff50fc*      1806 <EXPANSION END>
                        1807 --line333
                        1808 ..lin.C.3A.5C_ECU2.5CECU_Rivian_A1.5CTarget.5Crepo_projects.5CpRealEcu.5CcL_R2023.2E09.2E01.5Cmake.5Coutput.5Cobjects.5Cbusmsg.148::
                        1809 .LDWlin148:
                        1810 	jarl	_BusMsgCheckWarningsFrontRight,lp
                        1810 <EXPANSION BEGIN>
                        1810 jarl22 _BusMsgCheckWarningsFrontRight , lp 
00000604 bfffd4fc*      1810 <EXPANSION END>
                        1811 --line335
                        1812 ..lin.C.3A.5C_ECU2.5CECU_Rivian_A1.5CTarget.5Crepo_projects.5CpRealEcu.5CcL_R2023.2E09.2E01.5Cmake.5Coutput.5Cobjects.5Cbusmsg.149::
                        1813 .LDWlin149:
                        1814 	jarl	_BusMsgCheckWarningsRearLeft,lp
                        1814 <EXPANSION BEGIN>
                        1814 jarl22 _BusMsgCheckWarningsRearLeft , lp 
00000608 bfff5cfd*      1814 <EXPANSION END>
                        1815 --line337
                        1816 ..lin.C.3A.5C_ECU2.5CECU_Rivian_A1.5CTarget.5Crepo_projects.5CpRealEcu.5CcL_R2023.2E09.2E01.5Cmake.5Coutput.5Cobjects.5Cbusmsg.150::
                        1817 .LDWlin150:
                        1818 	jarl	_BusMsgCheckWarningsRearRight,lp

                                                                      Page 36
                                                              C:\Users\nhuliyap\AppData\Local\Temp\gh_00006oo1.s
                        1818 <EXPANSION BEGIN>
                        1818 jarl22 _BusMsgCheckWarningsRearRight , lp 
0000060c bfffe4fd*      1818 <EXPANSION END>
00000610 b51d*          1819 	br	.L2849
                        1820 .L2845:
                        1821 --line342
                        1822 ..lin.C.3A.5C_ECU2.5CECU_Rivian_A1.5CTarget.5Crepo_projects.5CpRealEcu.5CcL_R2023.2E09.2E01.5Cmake.5Coutput.5Cobjects.5Cbusmsg.151::
                        1823 .LDWlin151:
00000612 0132           1824 	mov	1,r6
                        1825 	jarl	_bGetBitBetriebszustandBZ,lp
                        1825 <EXPANSION BEGIN>
                        1825 jarl22 _bGetBitBetriebszustandBZ , lp 
00000614 80ff0000*      1825 <EXPANSION END>
00000618 6152           1826 	cmp	1,r10
0000061a c20d*          1827 	be	.L2851
0000061c 0832           1828 	mov	8,r6
                        1829 	jarl	_bGetBitBetriebszustandBZ,lp
                        1829 <EXPANSION BEGIN>
                        1829 jarl22 _bGetBitBetriebszustandBZ , lp 
0000061e 80ff0000*      1829 <EXPANSION END>
00000622 6152           1830 	cmp	1,r10
00000624 9a15*          1831 	bne	.L2849
00000626 20364000       1832 	movea	64,zero,r6
                        1833 	jarl	_bGetBitBetriebszustandBZ,lp
                        1833 <EXPANSION BEGIN>
                        1833 jarl22 _bGetBitBetriebszustandBZ , lp 
0000062a 80ff0000*      1833 <EXPANSION END>
0000062e 6152           1834 	cmp	1,r10
00000630 ba0d*          1835 	bne	.L2849
                        1836 .L2851:
                        1837 --line345
                        1838 ..lin.C.3A.5C_ECU2.5CECU_Rivian_A1.5CTarget.5Crepo_projects.5CpRealEcu.5CcL_R2023.2E09.2E01.5Cmake.5Coutput.5Cobjects.5Cbusmsg.152::
                        1839 .LDWlin152:
                        1840 	jarl	_BusMsgDetermineErrCounter,lp
                        1840 <EXPANSION BEGIN>
                        1840 jarl22 _BusMsgDetermineErrCounter , lp 
00000632 bfffdefb*      1840 <EXPANSION END>
                        1841 --line347
                        1842 ..lin.C.3A.5C_ECU2.5CECU_Rivian_A1.5CTarget.5Crepo_projects.5CpRealEcu.5CcL_R2023.2E09.2E01.5Cmake.5Coutput.5Cobjects.5Cbusmsg.153::
                        1843 .LDWlin153:
00000636 6152           1844 	cmp	1,r10
00000638 d305*          1845 	bnh	.L2854
                        1846 --line350
                        1847 ..lin.C.3A.5C_ECU2.5CECU_Rivian_A1.5CTarget.5Crepo_projects.5CpRealEcu.5CcL_R2023.2E09.2E01.5Cmake.5Coutput.5Cobjects.5Cbusmsg.154::
                        1848 .LDWlin154:
0000063a 0032           1849 	mov	0,r6
0000063c 013a           1850 	mov	1,r7
                        1851 	jarl	_BusMsgPutTextflag,lp
                        1851 <EXPANSION BEGIN>
                        1851 jarl22 _BusMsgPutTextflag , lp 
0000063e bfff5afb*      1851 <EXPANSION END>
                        1852 .L2854:
                        1853 --line353
                        1854 ..lin.C.3A.5C_ECU2.5CECU_Rivian_A1.5CTarget.5Crepo_projects.5CpRealEcu.5CcL_R2023.2E09.2E01.5Cmake.5Coutput.5Cobjects.5Cbusmsg.155::
                        1855 .LDWlin155:
                        1856 	jarl	_BusMsgCheckWarningsUnknownPos,lp
                        1856 <EXPANSION BEGIN>
                        1856 jarl22 _BusMsgCheckWarningsUnknownPos , lp 
00000642 bfff3afe*      1856 <EXPANSION END>
                        1857 .L2849:
                        1858 --line359

                                                                      Page 37
                                                              C:\Users\nhuliyap\AppData\Local\Temp\gh_00006oo1.s
                        1859 ..lin.C.3A.5C_ECU2.5CECU_Rivian_A1.5CTarget.5Crepo_projects.5CpRealEcu.5CcL_R2023.2E09.2E01.5Cmake.5Coutput.5Cobjects.5Cbusmsg.156::
                        1860 .LDWlin156:
00000646 0032           1861 	mov	0,r6
                        1862 	jarl	_ucGetIndexOfHistoryWP,lp
                        1862 <EXPANSION BEGIN>
                        1862 jarl22 _ucGetIndexOfHistoryWP , lp 
00000648 80ff0000*      1862 <EXPANSION END>
0000064c 0a30           1863 	mov	r10,r6
                        1864 	jarl	_GETusFolgeAusfallCntSTATISTICS,lp
                        1864 <EXPANSION BEGIN>
                        1864 jarl22 _GETusFolgeAusfallCntSTATISTICS , lp 
0000064e 80ff0000*      1864 <EXPANSION END>
00000652 0ae8           1865 	mov	r10,r29
                        1866 --line360
                        1867 ..lin.C.3A.5C_ECU2.5CECU_Rivian_A1.5CTarget.5Crepo_projects.5CpRealEcu.5CcL_R2023.2E09.2E01.5Cmake.5Coutput.5Cobjects.5Cbusmsg.157::
                        1868 .LDWlin157:
00000654 0032           1869 	mov	0,r6
                        1870 	jarl	_GETbNoWarnPartSurv,lp
                        1870 <EXPANSION BEGIN>
                        1870 jarl22 _GETbNoWarnPartSurv , lp 
00000656 bfff6afb*      1870 <EXPANSION END>
0000065a 6152           1871 	cmp	1,r10
0000065c e215*          1872 	be	.L2858
0000065e 0032           1873 	mov	0,r6
                        1874 	jarl	_BusMsgGetTextflag,lp
                        1874 <EXPANSION BEGIN>
                        1874 jarl22 _BusMsgGetTextflag , lp 
00000660 bfff4afb*      1874 <EXPANSION END>
00000664 6152           1875 	cmp	1,r10
00000666 9215*          1876 	be	.L2858
00000668 0232           1877 	mov	2,r6
                        1878 	jarl	_BusMsgGetTextflag,lp
                        1878 <EXPANSION BEGIN>
                        1878 jarl22 _BusMsgGetTextflag , lp 
0000066a bfff40fb*      1878 <EXPANSION END>
0000066e 6152           1879 	cmp	1,r10
00000670 ca05*          1880 	bne	.L2859
00000672 1d067bff       1881 	addi	-133,r29,zero
00000676 910d*          1882 	bl	.L2858
                        1883 .L2859:
00000678 0332           1884 	mov	3,r6
                        1885 	jarl	_BusMsgGetTextflag,lp
                        1885 <EXPANSION BEGIN>
                        1885 jarl22 _BusMsgGetTextflag , lp 
0000067a bfff30fb*      1885 <EXPANSION END>
0000067e 6152           1886 	cmp	1,r10
00000680 9a15*          1887 	bne	.L2857
00000682 1d067bff       1888 	addi	-133,r29,zero
00000686 e90d*          1889 	bnl	.L2857
                        1890 .L2858:
                        1891 --line367
                        1892 ..lin.C.3A.5C_ECU2.5CECU_Rivian_A1.5CTarget.5Crepo_projects.5CpRealEcu.5CcL_R2023.2E09.2E01.5Cmake.5Coutput.5Cobjects.5Cbusmsg.158::
                        1893 .LDWlin158:
00000688 0032           1894 	mov	0,r6
0000068a 203eff00       1895 	movea	255,zero,r7
                        1896 	jarl	_BusMsgPutTyrePressUncomp,lp
                        1896 <EXPANSION BEGIN>
                        1896 jarl22 _BusMsgPutTyrePressUncomp , lp 
0000068e bfff32fa*      1896 <EXPANSION END>
                        1897 --line368
                        1898 ..lin.C.3A.5C_ECU2.5CECU_Rivian_A1.5CTarget.5Crepo_projects.5CpRealEcu.5CcL_R2023.2E09.2E01.5Cmake.5Coutput.5Cobjects.5Cbusmsg.159::

                                                                      Page 38
                                                              C:\Users\nhuliyap\AppData\Local\Temp\gh_00006oo1.s
                        1899 .LDWlin159:
00000692 0a30           1900 	mov	r10,r6
                        1901 	jarl	_BusMsgPutTyrePressValidVL,lp
                        1901 <EXPANSION BEGIN>
                        1901 jarl22 _BusMsgPutTyrePressValidVL , lp 
00000694 bfffb4fa*      1901 <EXPANSION END>
                        1902 --line369
                        1903 ..lin.C.3A.5C_ECU2.5CECU_Rivian_A1.5CTarget.5Crepo_projects.5CpRealEcu.5CcL_R2023.2E09.2E01.5Cmake.5Coutput.5Cobjects.5Cbusmsg.160::
                        1904 .LDWlin160:
00000698 0032           1905 	mov	0,r6
0000069a 0638           1906 	mov	r6,r7
                        1907 	jarl	_BusMsgPutWarning,lp
                        1907 <EXPANSION BEGIN>
                        1907 jarl22 _BusMsgPutWarning , lp 
0000069c bfff84fa*      1907 <EXPANSION END>
000006a0 e515*          1908 	br	.L2864
                        1909 .L2857:
                        1910 --line372
                        1911 ..lin.C.3A.5C_ECU2.5CECU_Rivian_A1.5CTarget.5Crepo_projects.5CpRealEcu.5CcL_R2023.2E09.2E01.5Cmake.5Coutput.5Cobjects.5Cbusmsg.161::
                        1912 .LDWlin161:
000006a2 0032           1913 	mov	0,r6
                        1914 	jarl	_ucGetValidTyrePressureRelAtPosPD,lp
                        1914 <EXPANSION BEGIN>
                        1914 jarl22 _ucGetValidTyrePressureRelAtPosPD , lp 
000006a4 80ff0000*      1914 <EXPANSION END>
                        1915 --line374
                        1916 ..lin.C.3A.5C_ECU2.5CECU_Rivian_A1.5CTarget.5Crepo_projects.5CpRealEcu.5CcL_R2023.2E09.2E01.5Cmake.5Coutput.5Cobjects.5Cbusmsg.162::
                        1917 .LDWlin162:
000006a8 0032           1918 	mov	0,r6
000006aa 0a0601ff       1919 	addi	-255,r10,zero
000006ae 990d*          1920 	bnl	.L2865
                        1921 --line377
                        1922 ..lin.C.3A.5C_ECU2.5CECU_Rivian_A1.5CTarget.5Crepo_projects.5CpRealEcu.5CcL_R2023.2E09.2E01.5Cmake.5Coutput.5Cobjects.5Cbusmsg.163::
                        1923 .LDWlin163:
000006b0 203eff00       1924 	movea	255,zero,r7
                        1925 	jarl	_BusMsgPutTyrePressUncomp,lp
                        1925 <EXPANSION BEGIN>
                        1925 jarl22 _BusMsgPutTyrePressUncomp , lp 
000006b4 bfff0cfa*      1925 <EXPANSION END>
                        1926 --line379
                        1927 ..lin.C.3A.5C_ECU2.5CECU_Rivian_A1.5CTarget.5Crepo_projects.5CpRealEcu.5CcL_R2023.2E09.2E01.5Cmake.5Coutput.5Cobjects.5Cbusmsg.164::
                        1928 .LDWlin164:
000006b8 0132           1929 	mov	1,r6
                        1930 	jarl	_BusMsgPutTyrePressValidVL,lp
                        1930 <EXPANSION BEGIN>
                        1930 jarl22 _BusMsgPutTyrePressValidVL , lp 
000006ba bfff8efa*      1930 <EXPANSION END>
000006be f505*          1931 	br	.L2864
                        1932 .L2865:
000006c0 0a38           1933 	mov	r10,r7
                        1934 --line382
                        1935 ..lin.C.3A.5C_ECU2.5CECU_Rivian_A1.5CTarget.5Crepo_projects.5CpRealEcu.5CcL_R2023.2E09.2E01.5Cmake.5Coutput.5Cobjects.5Cbusmsg.165::
                        1936 .LDWlin165:
                        1937 	jarl	_BusMsgPutTyrePressUncomp,lp
                        1937 <EXPANSION BEGIN>
                        1937 jarl22 _BusMsgPutTyrePressUncomp , lp 
000006c2 bffffef9*      1937 <EXPANSION END>
                        1938 --line384
                        1939 ..lin.C.3A.5C_ECU2.5CECU_Rivian_A1.5CTarget.5Crepo_projects.5CpRealEcu.5CcL_R2023.2E09.2E01.5Cmake.5Coutput.5Cobjects.5Cbusmsg.166::
                        1940 .LDWlin166:
000006c6 0032           1941 	mov	0,r6

                                                                      Page 39
                                                              C:\Users\nhuliyap\AppData\Local\Temp\gh_00006oo1.s
                        1942 	jarl	_BusMsgPutTyrePressValidVL,lp
                        1942 <EXPANSION BEGIN>
                        1942 jarl22 _BusMsgPutTyrePressValidVL , lp 
000006c8 bfff80fa*      1942 <EXPANSION END>
                        1943 .L2864:
                        1944 --line388
                        1945 ..lin.C.3A.5C_ECU2.5CECU_Rivian_A1.5CTarget.5Crepo_projects.5CpRealEcu.5CcL_R2023.2E09.2E01.5Cmake.5Coutput.5Cobjects.5Cbusmsg.167::
                        1946 .LDWlin167:
000006cc 0132           1947 	mov	1,r6
                        1948 	jarl	_ucGetIndexOfHistoryWP,lp
                        1948 <EXPANSION BEGIN>
                        1948 jarl22 _ucGetIndexOfHistoryWP , lp 
000006ce 80ff0000*      1948 <EXPANSION END>
000006d2 0a30           1949 	mov	r10,r6
                        1950 	jarl	_GETusFolgeAusfallCntSTATISTICS,lp
                        1950 <EXPANSION BEGIN>
                        1950 jarl22 _GETusFolgeAusfallCntSTATISTICS , lp 
000006d4 80ff0000*      1950 <EXPANSION END>
000006d8 0ae8           1951 	mov	r10,r29
                        1952 --line389
                        1953 ..lin.C.3A.5C_ECU2.5CECU_Rivian_A1.5CTarget.5Crepo_projects.5CpRealEcu.5CcL_R2023.2E09.2E01.5Cmake.5Coutput.5Cobjects.5Cbusmsg.168::
                        1954 .LDWlin168:
000006da 0132           1955 	mov	1,r6
                        1956 	jarl	_GETbNoWarnPartSurv,lp
                        1956 <EXPANSION BEGIN>
                        1956 jarl22 _GETbNoWarnPartSurv , lp 
000006dc bfffe4fa*      1956 <EXPANSION END>
000006e0 6152           1957 	cmp	1,r10
000006e2 e215*          1958 	be	.L2869
000006e4 0032           1959 	mov	0,r6
                        1960 	jarl	_BusMsgGetTextflag,lp
                        1960 <EXPANSION BEGIN>
                        1960 jarl22 _BusMsgGetTextflag , lp 
000006e6 bfffc4fa*      1960 <EXPANSION END>
000006ea 6152           1961 	cmp	1,r10
000006ec 9215*          1962 	be	.L2869
000006ee 0232           1963 	mov	2,r6
                        1964 	jarl	_BusMsgGetTextflag,lp
                        1964 <EXPANSION BEGIN>
                        1964 jarl22 _BusMsgGetTextflag , lp 
000006f0 bfffbafa*      1964 <EXPANSION END>
000006f4 6152           1965 	cmp	1,r10
000006f6 ca05*          1966 	bne	.L2870
000006f8 1d067bff       1967 	addi	-133,r29,zero
000006fc 910d*          1968 	bl	.L2869
                        1969 .L2870:
000006fe 0332           1970 	mov	3,r6
                        1971 	jarl	_BusMsgGetTextflag,lp
                        1971 <EXPANSION BEGIN>
                        1971 jarl22 _BusMsgGetTextflag , lp 
00000700 bfffaafa*      1971 <EXPANSION END>
00000704 6152           1972 	cmp	1,r10
00000706 8a15*          1973 	bne	.L2868
00000708 1d067bff       1974 	addi	-133,r29,zero
0000070c d90d*          1975 	bnl	.L2868
                        1976 .L2869:
                        1977 --line396
                        1978 ..lin.C.3A.5C_ECU2.5CECU_Rivian_A1.5CTarget.5Crepo_projects.5CpRealEcu.5CcL_R2023.2E09.2E01.5Cmake.5Coutput.5Cobjects.5Cbusmsg.169::
                        1979 .LDWlin169:
0000070e 0a30           1980 	mov	r10,r6
00000710 203eff00       1981 	movea	255,zero,r7

                                                                      Page 40
                                                              C:\Users\nhuliyap\AppData\Local\Temp\gh_00006oo1.s
                        1982 	jarl	_BusMsgPutTyrePressUncomp,lp
                        1982 <EXPANSION BEGIN>
                        1982 jarl22 _BusMsgPutTyrePressUncomp , lp 
00000714 bfffacf9*      1982 <EXPANSION END>
                        1983 --line397
                        1984 ..lin.C.3A.5C_ECU2.5CECU_Rivian_A1.5CTarget.5Crepo_projects.5CpRealEcu.5CcL_R2023.2E09.2E01.5Cmake.5Coutput.5Cobjects.5Cbusmsg.170::
                        1985 .LDWlin170:
00000718 0a30           1986 	mov	r10,r6
                        1987 	jarl	_BusMsgPutTyrePressValidVR,lp
                        1987 <EXPANSION BEGIN>
                        1987 jarl22 _BusMsgPutTyrePressValidVR , lp 
0000071a bfff42fa*      1987 <EXPANSION END>
                        1988 --line398
                        1989 ..lin.C.3A.5C_ECU2.5CECU_Rivian_A1.5CTarget.5Crepo_projects.5CpRealEcu.5CcL_R2023.2E09.2E01.5Cmake.5Coutput.5Cobjects.5Cbusmsg.171::
                        1990 .LDWlin171:
0000071e 003a           1991 	mov	0,r7
                        1992 	jarl	_BusMsgPutWarning,lp
                        1992 <EXPANSION BEGIN>
                        1992 jarl22 _BusMsgPutWarning , lp 
00000720 bfff00fa*      1992 <EXPANSION END>
00000724 e515*          1993 	br	.L2875
                        1994 .L2868:
                        1995 --line401
                        1996 ..lin.C.3A.5C_ECU2.5CECU_Rivian_A1.5CTarget.5Crepo_projects.5CpRealEcu.5CcL_R2023.2E09.2E01.5Cmake.5Coutput.5Cobjects.5Cbusmsg.172::
                        1997 .LDWlin172:
00000726 0132           1998 	mov	1,r6
                        1999 	jarl	_ucGetValidTyrePressureRelAtPosPD,lp
                        1999 <EXPANSION BEGIN>
                        1999 jarl22 _ucGetValidTyrePressureRelAtPosPD , lp 
00000728 80ff0000*      1999 <EXPANSION END>
                        2000 --line403
                        2001 ..lin.C.3A.5C_ECU2.5CECU_Rivian_A1.5CTarget.5Crepo_projects.5CpRealEcu.5CcL_R2023.2E09.2E01.5Cmake.5Coutput.5Cobjects.5Cbusmsg.173::
                        2002 .LDWlin173:
0000072c 0132           2003 	mov	1,r6
0000072e 0a0601ff       2004 	addi	-255,r10,zero
00000732 990d*          2005 	bnl	.L2876
                        2006 --line406
                        2007 ..lin.C.3A.5C_ECU2.5CECU_Rivian_A1.5CTarget.5Crepo_projects.5CpRealEcu.5CcL_R2023.2E09.2E01.5Cmake.5Coutput.5Cobjects.5Cbusmsg.174::
                        2008 .LDWlin174:
00000734 203eff00       2009 	movea	255,zero,r7
                        2010 	jarl	_BusMsgPutTyrePressUncomp,lp
                        2010 <EXPANSION BEGIN>
                        2010 jarl22 _BusMsgPutTyrePressUncomp , lp 
00000738 bfff88f9*      2010 <EXPANSION END>
                        2011 --line408
                        2012 ..lin.C.3A.5C_ECU2.5CECU_Rivian_A1.5CTarget.5Crepo_projects.5CpRealEcu.5CcL_R2023.2E09.2E01.5Cmake.5Coutput.5Cobjects.5Cbusmsg.175::
                        2013 .LDWlin175:
0000073c 0132           2014 	mov	1,r6
                        2015 	jarl	_BusMsgPutTyrePressValidVR,lp
                        2015 <EXPANSION BEGIN>
                        2015 jarl22 _BusMsgPutTyrePressValidVR , lp 
0000073e bfff1efa*      2015 <EXPANSION END>
00000742 f505*          2016 	br	.L2875
                        2017 .L2876:
00000744 0a38           2018 	mov	r10,r7
                        2019 --line411
                        2020 ..lin.C.3A.5C_ECU2.5CECU_Rivian_A1.5CTarget.5Crepo_projects.5CpRealEcu.5CcL_R2023.2E09.2E01.5Cmake.5Coutput.5Cobjects.5Cbusmsg.176::
                        2021 .LDWlin176:
                        2022 	jarl	_BusMsgPutTyrePressUncomp,lp
                        2022 <EXPANSION BEGIN>
                        2022 jarl22 _BusMsgPutTyrePressUncomp , lp 

                                                                      Page 41
                                                              C:\Users\nhuliyap\AppData\Local\Temp\gh_00006oo1.s
00000746 bfff7af9*      2022 <EXPANSION END>
                        2023 --line413
                        2024 ..lin.C.3A.5C_ECU2.5CECU_Rivian_A1.5CTarget.5Crepo_projects.5CpRealEcu.5CcL_R2023.2E09.2E01.5Cmake.5Coutput.5Cobjects.5Cbusmsg.177::
                        2025 .LDWlin177:
0000074a 0032           2026 	mov	0,r6
                        2027 	jarl	_BusMsgPutTyrePressValidVR,lp
                        2027 <EXPANSION BEGIN>
                        2027 jarl22 _BusMsgPutTyrePressValidVR , lp 
0000074c bfff10fa*      2027 <EXPANSION END>
                        2028 .L2875:
                        2029 --line417
                        2030 ..lin.C.3A.5C_ECU2.5CECU_Rivian_A1.5CTarget.5Crepo_projects.5CpRealEcu.5CcL_R2023.2E09.2E01.5Cmake.5Coutput.5Cobjects.5Cbusmsg.178::
                        2031 .LDWlin178:
00000750 0232           2032 	mov	2,r6
                        2033 	jarl	_ucGetIndexOfHistoryWP,lp
                        2033 <EXPANSION BEGIN>
                        2033 jarl22 _ucGetIndexOfHistoryWP , lp 
00000752 80ff0000*      2033 <EXPANSION END>
00000756 0a30           2034 	mov	r10,r6
                        2035 	jarl	_GETusFolgeAusfallCntSTATISTICS,lp
                        2035 <EXPANSION BEGIN>
                        2035 jarl22 _GETusFolgeAusfallCntSTATISTICS , lp 
00000758 80ff0000*      2035 <EXPANSION END>
0000075c 0ae8           2036 	mov	r10,r29
                        2037 --line418
                        2038 ..lin.C.3A.5C_ECU2.5CECU_Rivian_A1.5CTarget.5Crepo_projects.5CpRealEcu.5CcL_R2023.2E09.2E01.5Cmake.5Coutput.5Cobjects.5Cbusmsg.179::
                        2039 .LDWlin179:
0000075e 0232           2040 	mov	2,r6
                        2041 	jarl	_GETbNoWarnPartSurv,lp
                        2041 <EXPANSION BEGIN>
                        2041 jarl22 _GETbNoWarnPartSurv , lp 
00000760 bfff60fa*      2041 <EXPANSION END>
00000764 6152           2042 	cmp	1,r10
00000766 e215*          2043 	be	.L2880
00000768 0032           2044 	mov	0,r6
                        2045 	jarl	_BusMsgGetTextflag,lp
                        2045 <EXPANSION BEGIN>
                        2045 jarl22 _BusMsgGetTextflag , lp 
0000076a bfff40fa*      2045 <EXPANSION END>
0000076e 6152           2046 	cmp	1,r10
00000770 9215*          2047 	be	.L2880
00000772 0232           2048 	mov	2,r6
                        2049 	jarl	_BusMsgGetTextflag,lp
                        2049 <EXPANSION BEGIN>
                        2049 jarl22 _BusMsgGetTextflag , lp 
00000774 bfff36fa*      2049 <EXPANSION END>
00000778 6152           2050 	cmp	1,r10
0000077a ca05*          2051 	bne	.L2881
0000077c 1d067bff       2052 	addi	-133,r29,zero
00000780 910d*          2053 	bl	.L2880
                        2054 .L2881:
00000782 0332           2055 	mov	3,r6
                        2056 	jarl	_BusMsgGetTextflag,lp
                        2056 <EXPANSION BEGIN>
                        2056 jarl22 _BusMsgGetTextflag , lp 
00000784 bfff26fa*      2056 <EXPANSION END>
00000788 6152           2057 	cmp	1,r10
0000078a 9a15*          2058 	bne	.L2879
0000078c 1d067bff       2059 	addi	-133,r29,zero
00000790 e90d*          2060 	bnl	.L2879
                        2061 .L2880:

                                                                      Page 42
                                                              C:\Users\nhuliyap\AppData\Local\Temp\gh_00006oo1.s
                        2062 --line425
                        2063 ..lin.C.3A.5C_ECU2.5CECU_Rivian_A1.5CTarget.5Crepo_projects.5CpRealEcu.5CcL_R2023.2E09.2E01.5Cmake.5Coutput.5Cobjects.5Cbusmsg.180::
                        2064 .LDWlin180:
00000792 0232           2065 	mov	2,r6
00000794 203eff00       2066 	movea	255,zero,r7
                        2067 	jarl	_BusMsgPutTyrePressUncomp,lp
                        2067 <EXPANSION BEGIN>
                        2067 jarl22 _BusMsgPutTyrePressUncomp , lp 
00000798 bfff28f9*      2067 <EXPANSION END>
                        2068 --line426
                        2069 ..lin.C.3A.5C_ECU2.5CECU_Rivian_A1.5CTarget.5Crepo_projects.5CpRealEcu.5CcL_R2023.2E09.2E01.5Cmake.5Coutput.5Cobjects.5Cbusmsg.181::
                        2070 .LDWlin181:
0000079c 0a30           2071 	mov	r10,r6
                        2072 	jarl	_BusMsgPutTyrePressValidHL,lp
                        2072 <EXPANSION BEGIN>
                        2072 jarl22 _BusMsgPutTyrePressValidHL , lp 
0000079e bfffd2f9*      2072 <EXPANSION END>
                        2073 --line427
                        2074 ..lin.C.3A.5C_ECU2.5CECU_Rivian_A1.5CTarget.5Crepo_projects.5CpRealEcu.5CcL_R2023.2E09.2E01.5Cmake.5Coutput.5Cobjects.5Cbusmsg.182::
                        2075 .LDWlin182:
000007a2 0232           2076 	mov	2,r6
000007a4 003a           2077 	mov	0,r7
                        2078 	jarl	_BusMsgPutWarning,lp
                        2078 <EXPANSION BEGIN>
                        2078 jarl22 _BusMsgPutWarning , lp 
000007a6 bfff7af9*      2078 <EXPANSION END>
000007aa e515*          2079 	br	.L2886
                        2080 .L2879:
                        2081 --line430
                        2082 ..lin.C.3A.5C_ECU2.5CECU_Rivian_A1.5CTarget.5Crepo_projects.5CpRealEcu.5CcL_R2023.2E09.2E01.5Cmake.5Coutput.5Cobjects.5Cbusmsg.183::
                        2083 .LDWlin183:
000007ac 0232           2084 	mov	2,r6
                        2085 	jarl	_ucGetValidTyrePressureRelAtPosPD,lp
                        2085 <EXPANSION BEGIN>
                        2085 jarl22 _ucGetValidTyrePressureRelAtPosPD , lp 
000007ae 80ff0000*      2085 <EXPANSION END>
                        2086 --line432
                        2087 ..lin.C.3A.5C_ECU2.5CECU_Rivian_A1.5CTarget.5Crepo_projects.5CpRealEcu.5CcL_R2023.2E09.2E01.5Cmake.5Coutput.5Cobjects.5Cbusmsg.184::
                        2088 .LDWlin184:
000007b2 0232           2089 	mov	2,r6
000007b4 0a0601ff       2090 	addi	-255,r10,zero
000007b8 990d*          2091 	bnl	.L2887
                        2092 --line435
                        2093 ..lin.C.3A.5C_ECU2.5CECU_Rivian_A1.5CTarget.5Crepo_projects.5CpRealEcu.5CcL_R2023.2E09.2E01.5Cmake.5Coutput.5Cobjects.5Cbusmsg.185::
                        2094 .LDWlin185:
000007ba 203eff00       2095 	movea	255,zero,r7
                        2096 	jarl	_BusMsgPutTyrePressUncomp,lp
                        2096 <EXPANSION BEGIN>
                        2096 jarl22 _BusMsgPutTyrePressUncomp , lp 
000007be bfff02f9*      2096 <EXPANSION END>
                        2097 --line437
                        2098 ..lin.C.3A.5C_ECU2.5CECU_Rivian_A1.5CTarget.5Crepo_projects.5CpRealEcu.5CcL_R2023.2E09.2E01.5Cmake.5Coutput.5Cobjects.5Cbusmsg.186::
                        2099 .LDWlin186:
000007c2 0132           2100 	mov	1,r6
                        2101 	jarl	_BusMsgPutTyrePressValidHL,lp
                        2101 <EXPANSION BEGIN>
                        2101 jarl22 _BusMsgPutTyrePressValidHL , lp 
000007c4 bfffacf9*      2101 <EXPANSION END>
000007c8 f505*          2102 	br	.L2886
                        2103 .L2887:
000007ca 0a38           2104 	mov	r10,r7

                                                                      Page 43
                                                              C:\Users\nhuliyap\AppData\Local\Temp\gh_00006oo1.s
                        2105 --line440
                        2106 ..lin.C.3A.5C_ECU2.5CECU_Rivian_A1.5CTarget.5Crepo_projects.5CpRealEcu.5CcL_R2023.2E09.2E01.5Cmake.5Coutput.5Cobjects.5Cbusmsg.187::
                        2107 .LDWlin187:
                        2108 	jarl	_BusMsgPutTyrePressUncomp,lp
                        2108 <EXPANSION BEGIN>
                        2108 jarl22 _BusMsgPutTyrePressUncomp , lp 
000007cc bffff4f8*      2108 <EXPANSION END>
                        2109 --line442
                        2110 ..lin.C.3A.5C_ECU2.5CECU_Rivian_A1.5CTarget.5Crepo_projects.5CpRealEcu.5CcL_R2023.2E09.2E01.5Cmake.5Coutput.5Cobjects.5Cbusmsg.188::
                        2111 .LDWlin188:
000007d0 0032           2112 	mov	0,r6
                        2113 	jarl	_BusMsgPutTyrePressValidHL,lp
                        2113 <EXPANSION BEGIN>
                        2113 jarl22 _BusMsgPutTyrePressValidHL , lp 
000007d2 bfff9ef9*      2113 <EXPANSION END>
                        2114 .L2886:
                        2115 --line446
                        2116 ..lin.C.3A.5C_ECU2.5CECU_Rivian_A1.5CTarget.5Crepo_projects.5CpRealEcu.5CcL_R2023.2E09.2E01.5Cmake.5Coutput.5Cobjects.5Cbusmsg.189::
                        2117 .LDWlin189:
000007d6 0332           2118 	mov	3,r6
                        2119 	jarl	_ucGetIndexOfHistoryWP,lp
                        2119 <EXPANSION BEGIN>
                        2119 jarl22 _ucGetIndexOfHistoryWP , lp 
000007d8 80ff0000*      2119 <EXPANSION END>
000007dc 0a30           2120 	mov	r10,r6
                        2121 	jarl	_GETusFolgeAusfallCntSTATISTICS,lp
                        2121 <EXPANSION BEGIN>
                        2121 jarl22 _GETusFolgeAusfallCntSTATISTICS , lp 
000007de 80ff0000*      2121 <EXPANSION END>
000007e2 0ae8           2122 	mov	r10,r29
                        2123 --line447
                        2124 ..lin.C.3A.5C_ECU2.5CECU_Rivian_A1.5CTarget.5Crepo_projects.5CpRealEcu.5CcL_R2023.2E09.2E01.5Cmake.5Coutput.5Cobjects.5Cbusmsg.190::
                        2125 .LDWlin190:
000007e4 0332           2126 	mov	3,r6
                        2127 	jarl	_GETbNoWarnPartSurv,lp
                        2127 <EXPANSION BEGIN>
                        2127 jarl22 _GETbNoWarnPartSurv , lp 
000007e6 bfffdaf9*      2127 <EXPANSION END>
000007ea 6152           2128 	cmp	1,r10
000007ec e215*          2129 	be	.L2891
000007ee 0032           2130 	mov	0,r6
                        2131 	jarl	_BusMsgGetTextflag,lp
                        2131 <EXPANSION BEGIN>
                        2131 jarl22 _BusMsgGetTextflag , lp 
000007f0 bfffbaf9*      2131 <EXPANSION END>
000007f4 6152           2132 	cmp	1,r10
000007f6 9215*          2133 	be	.L2891
000007f8 0232           2134 	mov	2,r6
                        2135 	jarl	_BusMsgGetTextflag,lp
                        2135 <EXPANSION BEGIN>
                        2135 jarl22 _BusMsgGetTextflag , lp 
000007fa bfffb0f9*      2135 <EXPANSION END>
000007fe 6152           2136 	cmp	1,r10
00000800 ca05*          2137 	bne	.L2892
00000802 1d067bff       2138 	addi	-133,r29,zero
00000806 910d*          2139 	bl	.L2891
                        2140 .L2892:
00000808 0332           2141 	mov	3,r6
                        2142 	jarl	_BusMsgGetTextflag,lp
                        2142 <EXPANSION BEGIN>
                        2142 jarl22 _BusMsgGetTextflag , lp 

                                                                      Page 44
                                                              C:\Users\nhuliyap\AppData\Local\Temp\gh_00006oo1.s
0000080a bfffa0f9*      2142 <EXPANSION END>
0000080e 6152           2143 	cmp	1,r10
00000810 aa15*          2144 	bne	.L2890
00000812 1d067bff       2145 	addi	-133,r29,zero
00000816 f90d*          2146 	bnl	.L2890
                        2147 .L2891:
                        2148 --line454
                        2149 ..lin.C.3A.5C_ECU2.5CECU_Rivian_A1.5CTarget.5Crepo_projects.5CpRealEcu.5CcL_R2023.2E09.2E01.5Cmake.5Coutput.5Cobjects.5Cbusmsg.191::
                        2150 .LDWlin191:
00000818 0332           2151 	mov	3,r6
0000081a 203eff00       2152 	movea	255,zero,r7
                        2153 	jarl	_BusMsgPutTyrePressUncomp,lp
                        2153 <EXPANSION BEGIN>
                        2153 jarl22 _BusMsgPutTyrePressUncomp , lp 
0000081e bfffa2f8*      2153 <EXPANSION END>
                        2154 --line455
                        2155 ..lin.C.3A.5C_ECU2.5CECU_Rivian_A1.5CTarget.5Crepo_projects.5CpRealEcu.5CcL_R2023.2E09.2E01.5Cmake.5Coutput.5Cobjects.5Cbusmsg.192::
                        2156 .LDWlin192:
00000822 0a30           2157 	mov	r10,r6
                        2158 	jarl	_BusMsgPutTyrePressValidHR,lp
                        2158 <EXPANSION BEGIN>
                        2158 jarl22 _BusMsgPutTyrePressValidHR , lp 
00000824 bfff60f9*      2158 <EXPANSION END>
                        2159 --line456
                        2160 ..lin.C.3A.5C_ECU2.5CECU_Rivian_A1.5CTarget.5Crepo_projects.5CpRealEcu.5CcL_R2023.2E09.2E01.5Cmake.5Coutput.5Cobjects.5Cbusmsg.193::
                        2161 .LDWlin193:
00000828 0332           2162 	mov	3,r6
0000082a 003a           2163 	mov	0,r7
                        2164 	jarl	_BusMsgPutWarning,lp
                        2164 <EXPANSION BEGIN>
                        2164 jarl22 _BusMsgPutWarning , lp 
0000082c bffff4f8*      2164 <EXPANSION END>
00000830 40067f00       2165 	dispose	0,{r29,r31},[lp]
                        2166 .L2890:
                        2167 --line459
                        2168 ..lin.C.3A.5C_ECU2.5CECU_Rivian_A1.5CTarget.5Crepo_projects.5CpRealEcu.5CcL_R2023.2E09.2E01.5Cmake.5Coutput.5Cobjects.5Cbusmsg.194::
                        2169 .LDWlin194:
00000834 0332           2170 	mov	3,r6
                        2171 	jarl	_ucGetValidTyrePressureRelAtPosPD,lp
                        2171 <EXPANSION BEGIN>
                        2171 jarl22 _ucGetValidTyrePressureRelAtPosPD , lp 
00000836 80ff0000*      2171 <EXPANSION END>
                        2172 --line461
                        2173 ..lin.C.3A.5C_ECU2.5CECU_Rivian_A1.5CTarget.5Crepo_projects.5CpRealEcu.5CcL_R2023.2E09.2E01.5Cmake.5Coutput.5Cobjects.5Cbusmsg.195::
                        2174 .LDWlin195:
0000083a 0332           2175 	mov	3,r6
0000083c 0a0601ff       2176 	addi	-255,r10,zero
00000840 a90d*          2177 	bnl	.L2898
                        2178 --line464
                        2179 ..lin.C.3A.5C_ECU2.5CECU_Rivian_A1.5CTarget.5Crepo_projects.5CpRealEcu.5CcL_R2023.2E09.2E01.5Cmake.5Coutput.5Cobjects.5Cbusmsg.196::
                        2180 .LDWlin196:
00000842 203eff00       2181 	movea	255,zero,r7
                        2182 	jarl	_BusMsgPutTyrePressUncomp,lp
                        2182 <EXPANSION BEGIN>
                        2182 jarl22 _BusMsgPutTyrePressUncomp , lp 
00000846 bfff7af8*      2182 <EXPANSION END>
                        2183 --line466
                        2184 ..lin.C.3A.5C_ECU2.5CECU_Rivian_A1.5CTarget.5Crepo_projects.5CpRealEcu.5CcL_R2023.2E09.2E01.5Cmake.5Coutput.5Cobjects.5Cbusmsg.197::
                        2185 .LDWlin197:
0000084a 0132           2186 	mov	1,r6
                        2187 	jarl	_BusMsgPutTyrePressValidHR,lp

                                                                      Page 45
                                                              C:\Users\nhuliyap\AppData\Local\Temp\gh_00006oo1.s
                        2187 <EXPANSION BEGIN>
                        2187 jarl22 _BusMsgPutTyrePressValidHR , lp 
0000084c bfff38f9*      2187 <EXPANSION END>
00000850 40067f00       2188 	dispose	0,{r29,r31},[lp]
                        2189 .L2898:
00000854 0a38           2190 	mov	r10,r7
                        2191 --line469
                        2192 ..lin.C.3A.5C_ECU2.5CECU_Rivian_A1.5CTarget.5Crepo_projects.5CpRealEcu.5CcL_R2023.2E09.2E01.5Cmake.5Coutput.5Cobjects.5Cbusmsg.198::
                        2193 .LDWlin198:
                        2194 	jarl	_BusMsgPutTyrePressUncomp,lp
                        2194 <EXPANSION BEGIN>
                        2194 jarl22 _BusMsgPutTyrePressUncomp , lp 
00000856 bfff6af8*      2194 <EXPANSION END>
                        2195 --line471
                        2196 ..lin.C.3A.5C_ECU2.5CECU_Rivian_A1.5CTarget.5Crepo_projects.5CpRealEcu.5CcL_R2023.2E09.2E01.5Cmake.5Coutput.5Cobjects.5Cbusmsg.199::
                        2197 .LDWlin199:
0000085a 0032           2198 	mov	0,r6
                        2199 	jarl	_BusMsgPutTyrePressValidHR,lp
                        2199 <EXPANSION BEGIN>
                        2199 jarl22 _BusMsgPutTyrePressValidHR , lp 
0000085c bfff28f9*      2199 <EXPANSION END>
                        2200 --	    .ef
                        2201 .LDW76:
                        2202 --line480
                        2203 ..lin.C.3A.5C_ECU2.5CECU_Rivian_A1.5CTarget.5Crepo_projects.5CpRealEcu.5CcL_R2023.2E09.2E01.5Cmake.5Coutput.5Cobjects.5Cbusmsg.200::
                        2204 .LDWlin200:
00000860 40067f00       2205 	dispose	0,{r29,r31},[lp]
                        2206 	.global	___ghs_eofn_BusMsgDoTeleFinished
                        2207 ___ghs_eofn_BusMsgDoTeleFinished:
                        2208 	.type	_BusMsgDoTeleFinished,@function
                        2209 	.size	_BusMsgDoTeleFinished,.-_BusMsgDoTeleFinished
                        2210 	.align	2
                        2211 --_ucTemp1	r7	local
                        2212 --_usTempNoRxTime	r29	local
                        2213 
                        2214 	.section ".bss","awb"
                        2215 .L3273:
                        2216 	.type	.L3273,@object
                        2217 	.size	.L3273,0
                        2218 	.data
                        2219 	.text
                        2220 	.align	2
                        2221 	.align	2
                        2222 ..gh.f.f.1.e.29:
                        2223 	.type	..gh.f.f.1.e.29,@object
                        2224 	.size	..gh.f.f.1.e.29,0
                        2225 	.global	_BusMsgDetermineTemperatures
                        2226 _BusMsgDetermineTemperatures:
00000864 80076100       2227 	prepare	{r29,r31},0
                        2228 --	    .bf
                        2229 .LDW86:
                        2230 	jarl	_BusMsgTemperatureClear,lp
                        2230 <EXPANSION BEGIN>
                        2230 jarl22 _BusMsgTemperatureClear , lp 
00000868 bfff08f8*      2230 <EXPANSION END>
                        2231 --line489
                        2232 ..lin.C.3A.5C_ECU2.5CECU_Rivian_A1.5CTarget.5Crepo_projects.5CpRealEcu.5CcL_R2023.2E09.2E01.5Cmake.5Coutput.5Cobjects.5Cbusmsg.201::
                        2233 .LDWlin201:
                        2234 	jarl	_GetSystem_DefectECUState,lp
                        2234 <EXPANSION BEGIN>
                        2234 jarl22 _GetSystem_DefectECUState , lp 

                                                                      Page 46
                                                              C:\Users\nhuliyap\AppData\Local\Temp\gh_00006oo1.s
0000086c 80ff0000*      2234 <EXPANSION END>
00000870 6152           2235 	cmp	1,r10
00000872 c21d*          2236 	be	.L3815
00000874 20360110       2237 	movea	4097,zero,r6
                        2238 	jarl	_ushGetBetriebszustandBZ,lp
                        2238 <EXPANSION BEGIN>
                        2238 jarl22 _ushGetBetriebszustandBZ , lp 
00000878 80ff0000*      2238 <EXPANSION END>
0000087c 0a0600f0       2239 	addi	-4096,r10,zero
00000880 d215*          2240 	be	.L3815
00000882 20361300       2241 	movea	19,zero,r6
                        2242 	jarl	_DTC_GetActiveStatusOfDTC,lp
                        2242 <EXPANSION BEGIN>
                        2242 jarl22 _DTC_GetActiveStatusOfDTC , lp 
00000886 80ff0000*      2242 <EXPANSION END>
0000088a 6152           2243 	cmp	1,r10
0000088c e2370433       2244 	cmove	2,r6,r6
00000890 8215*          2245 	be	.L3944
                        2246 --line496
                        2247 ..lin.C.3A.5C_ECU2.5CECU_Rivian_A1.5CTarget.5Crepo_projects.5CpRealEcu.5CcL_R2023.2E09.2E01.5Cmake.5Coutput.5Cobjects.5Cbusmsg.202::
                        2248 .LDWlin202:
                        2249 	jarl	_GETbHfIntLatchEE,lp
                        2249 <EXPANSION BEGIN>
                        2249 jarl22 _GETbHfIntLatchEE , lp 
00000892 80ff0000*      2249 <EXPANSION END>
00000896 6152           2250 	cmp	1,r10
00000898 b20d*          2251 	be	.L3820
0000089a 20361700       2252 	movea	23,zero,r6
                        2253 	jarl	_DTC_GetActiveStatusOfDTC,lp
                        2253 <EXPANSION BEGIN>
                        2253 jarl22 _DTC_GetActiveStatusOfDTC , lp 
0000089e 80ff0000*      2253 <EXPANSION END>
000008a2 6152           2254 	cmp	1,r10
000008a4 9a0d*          2255 	bne	.L3818
000008a6 0332           2256 	mov	3,r6
000008a8 c505*          2257 	br	.L3944
                        2258 .L3815:
                        2259 --line492
                        2260 ..lin.C.3A.5C_ECU2.5CECU_Rivian_A1.5CTarget.5Crepo_projects.5CpRealEcu.5CcL_R2023.2E09.2E01.5Cmake.5Coutput.5Cobjects.5Cbusmsg.203::
                        2261 .LDWlin203:
000008aa 0232           2262 	mov	2,r6
000008ac a505*          2263 	br	.L3944
                        2264 .L3820:
                        2265 --line499
                        2266 ..lin.C.3A.5C_ECU2.5CECU_Rivian_A1.5CTarget.5Crepo_projects.5CpRealEcu.5CcL_R2023.2E09.2E01.5Cmake.5Coutput.5Cobjects.5Cbusmsg.204::
                        2267 .LDWlin204:
000008ae 0332           2268 	mov	3,r6
                        2269 .L3944:
000008b0 013a           2270 	mov	1,r7
                        2271 	jarl	_BusMsgPutTextflag,lp
                        2271 <EXPANSION BEGIN>
                        2271 jarl22 _BusMsgPutTextflag , lp 
000008b2 bfffe6f8*      2271 <EXPANSION END>
                        2272 .L3818:
                        2273 --line503
                        2274 ..lin.C.3A.5C_ECU2.5CECU_Rivian_A1.5CTarget.5Crepo_projects.5CpRealEcu.5CcL_R2023.2E09.2E01.5Cmake.5Coutput.5Cobjects.5Cbusmsg.205::
                        2275 .LDWlin205:
                        2276 	jarl	_BusMsgDetermineErrCounter,lp
                        2276 <EXPANSION BEGIN>
                        2276 jarl22 _BusMsgDetermineErrCounter , lp 
000008b6 bfff5af9*      2276 <EXPANSION END>

                                                                      Page 47
                                                              C:\Users\nhuliyap\AppData\Local\Temp\gh_00006oo1.s
                        2277 --line505
                        2278 ..lin.C.3A.5C_ECU2.5CECU_Rivian_A1.5CTarget.5Crepo_projects.5CpRealEcu.5CcL_R2023.2E09.2E01.5Cmake.5Coutput.5Cobjects.5Cbusmsg.206::
                        2279 .LDWlin206:
000008ba 6152           2280 	cmp	1,r10
000008bc d305*          2281 	bnh	.L3822
                        2282 --line508
                        2283 ..lin.C.3A.5C_ECU2.5CECU_Rivian_A1.5CTarget.5Crepo_projects.5CpRealEcu.5CcL_R2023.2E09.2E01.5Cmake.5Coutput.5Cobjects.5Cbusmsg.207::
                        2284 .LDWlin207:
000008be 0032           2285 	mov	0,r6
000008c0 013a           2286 	mov	1,r7
                        2287 	jarl	_BusMsgPutTextflag,lp
                        2287 <EXPANSION BEGIN>
                        2287 jarl22 _BusMsgPutTextflag , lp 
000008c2 bfffd6f8*      2287 <EXPANSION END>
                        2288 .L3822:
                        2289 --line511
                        2290 ..lin.C.3A.5C_ECU2.5CECU_Rivian_A1.5CTarget.5Crepo_projects.5CpRealEcu.5CcL_R2023.2E09.2E01.5Cmake.5Coutput.5Cobjects.5Cbusmsg.208::
                        2291 .LDWlin208:
000008c6 0032           2292 	mov	0,r6
                        2293 	jarl	_ucGetIndexOfHistoryWP,lp
                        2293 <EXPANSION BEGIN>
                        2293 jarl22 _ucGetIndexOfHistoryWP , lp 
000008c8 80ff0000*      2293 <EXPANSION END>
000008cc 0a30           2294 	mov	r10,r6
                        2295 	jarl	_GETusFolgeAusfallCntSTATISTICS,lp
                        2295 <EXPANSION BEGIN>
                        2295 jarl22 _GETusFolgeAusfallCntSTATISTICS , lp 
000008ce 80ff0000*      2295 <EXPANSION END>
000008d2 0ae8           2296 	mov	r10,r29
                        2297 --line512
                        2298 ..lin.C.3A.5C_ECU2.5CECU_Rivian_A1.5CTarget.5Crepo_projects.5CpRealEcu.5CcL_R2023.2E09.2E01.5Cmake.5Coutput.5Cobjects.5Cbusmsg.209::
                        2299 .LDWlin209:
000008d4 0032           2300 	mov	0,r6
                        2301 	jarl	_GETbNoWarnPartSurv,lp
                        2301 <EXPANSION BEGIN>
                        2301 jarl22 _GETbNoWarnPartSurv , lp 
000008d6 bfffeaf8*      2301 <EXPANSION END>
000008da 6152           2302 	cmp	1,r10
000008dc e215*          2303 	be	.L3825
000008de 0032           2304 	mov	0,r6
                        2305 	jarl	_BusMsgGetTextflag,lp
                        2305 <EXPANSION BEGIN>
                        2305 jarl22 _BusMsgGetTextflag , lp 
000008e0 bfffcaf8*      2305 <EXPANSION END>
000008e4 6152           2306 	cmp	1,r10
000008e6 9215*          2307 	be	.L3825
000008e8 0232           2308 	mov	2,r6
                        2309 	jarl	_BusMsgGetTextflag,lp
                        2309 <EXPANSION BEGIN>
                        2309 jarl22 _BusMsgGetTextflag , lp 
000008ea bfffc0f8*      2309 <EXPANSION END>
000008ee 6152           2310 	cmp	1,r10
000008f0 ca05*          2311 	bne	.L3826
000008f2 1d067bff       2312 	addi	-133,r29,zero
000008f6 910d*          2313 	bl	.L3825
                        2314 .L3826:
000008f8 0332           2315 	mov	3,r6
                        2316 	jarl	_BusMsgGetTextflag,lp
                        2316 <EXPANSION BEGIN>
                        2316 jarl22 _BusMsgGetTextflag , lp 
000008fa bfffb0f8*      2316 <EXPANSION END>

                                                                      Page 48
                                                              C:\Users\nhuliyap\AppData\Local\Temp\gh_00006oo1.s
000008fe 6152           2317 	cmp	1,r10
00000900 fa05*          2318 	bne	.L3824
00000902 1d067bff       2319 	addi	-133,r29,zero
00000906 c905*          2320 	bnl	.L3824
                        2321 .L3825:
                        2322 --line519
                        2323 ..lin.C.3A.5C_ECU2.5CECU_Rivian_A1.5CTarget.5Crepo_projects.5CpRealEcu.5CcL_R2023.2E09.2E01.5Cmake.5Coutput.5Cobjects.5Cbusmsg.210::
                        2324 .LDWlin210:
00000908 203eff00       2325 	movea	255,zero,r7
0000090c d505*          2326 	br	.L3831
                        2327 .L3824:
                        2328 --line522
                        2329 ..lin.C.3A.5C_ECU2.5CECU_Rivian_A1.5CTarget.5Crepo_projects.5CpRealEcu.5CcL_R2023.2E09.2E01.5Cmake.5Coutput.5Cobjects.5Cbusmsg.211::
                        2330 .LDWlin211:
0000090e 0032           2331 	mov	0,r6
                        2332 	jarl	_ucGetValidTemperatureRelAtPosPD,lp
                        2332 <EXPANSION BEGIN>
                        2332 jarl22 _ucGetValidTemperatureRelAtPosPD , lp 
00000910 80ff0000*      2332 <EXPANSION END>
                        2333 --line523
                        2334 ..lin.C.3A.5C_ECU2.5CECU_Rivian_A1.5CTarget.5Crepo_projects.5CpRealEcu.5CcL_R2023.2E09.2E01.5Cmake.5Coutput.5Cobjects.5Cbusmsg.212::
                        2335 .LDWlin212:
00000914 0a38           2336 	mov	r10,r7
                        2337 .L3831:
00000916 0032           2338 	mov	0,r6
                        2339 	jarl	_BusMsgPutTemperature,lp
                        2339 <EXPANSION BEGIN>
                        2339 jarl22 _BusMsgPutTemperature , lp 
00000918 bfff7ef7*      2339 <EXPANSION END>
0000091c 0132           2340 	mov	1,r6
                        2341 	jarl	_ucGetIndexOfHistoryWP,lp
                        2341 <EXPANSION BEGIN>
                        2341 jarl22 _ucGetIndexOfHistoryWP , lp 
0000091e 80ff0000*      2341 <EXPANSION END>
00000922 0a30           2342 	mov	r10,r6
                        2343 	jarl	_GETusFolgeAusfallCntSTATISTICS,lp
                        2343 <EXPANSION BEGIN>
                        2343 jarl22 _GETusFolgeAusfallCntSTATISTICS , lp 
00000924 80ff0000*      2343 <EXPANSION END>
00000928 0ae8           2344 	mov	r10,r29
                        2345 --line527
                        2346 ..lin.C.3A.5C_ECU2.5CECU_Rivian_A1.5CTarget.5Crepo_projects.5CpRealEcu.5CcL_R2023.2E09.2E01.5Cmake.5Coutput.5Cobjects.5Cbusmsg.213::
                        2347 .LDWlin213:
0000092a 0132           2348 	mov	1,r6
                        2349 	jarl	_GETbNoWarnPartSurv,lp
                        2349 <EXPANSION BEGIN>
                        2349 jarl22 _GETbNoWarnPartSurv , lp 
0000092c bfff94f8*      2349 <EXPANSION END>
00000930 6152           2350 	cmp	1,r10
00000932 e215*          2351 	be	.L3833
00000934 0032           2352 	mov	0,r6
                        2353 	jarl	_BusMsgGetTextflag,lp
                        2353 <EXPANSION BEGIN>
                        2353 jarl22 _BusMsgGetTextflag , lp 
00000936 bfff74f8*      2353 <EXPANSION END>
0000093a 6152           2354 	cmp	1,r10
0000093c 9215*          2355 	be	.L3833
0000093e 0232           2356 	mov	2,r6
                        2357 	jarl	_BusMsgGetTextflag,lp
                        2357 <EXPANSION BEGIN>
                        2357 jarl22 _BusMsgGetTextflag , lp 

                                                                      Page 49
                                                              C:\Users\nhuliyap\AppData\Local\Temp\gh_00006oo1.s
00000940 bfff6af8*      2357 <EXPANSION END>
00000944 6152           2358 	cmp	1,r10
00000946 ca05*          2359 	bne	.L3834
00000948 1d067bff       2360 	addi	-133,r29,zero
0000094c 910d*          2361 	bl	.L3833
                        2362 .L3834:
0000094e 0332           2363 	mov	3,r6
                        2364 	jarl	_BusMsgGetTextflag,lp
                        2364 <EXPANSION BEGIN>
                        2364 jarl22 _BusMsgGetTextflag , lp 
00000950 bfff5af8*      2364 <EXPANSION END>
00000954 6152           2365 	cmp	1,r10
00000956 fa05*          2366 	bne	.L3832
00000958 1d067bff       2367 	addi	-133,r29,zero
0000095c c905*          2368 	bnl	.L3832
                        2369 .L3833:
                        2370 --line534
                        2371 ..lin.C.3A.5C_ECU2.5CECU_Rivian_A1.5CTarget.5Crepo_projects.5CpRealEcu.5CcL_R2023.2E09.2E01.5Cmake.5Coutput.5Cobjects.5Cbusmsg.214::
                        2372 .LDWlin214:
0000095e 203eff00       2373 	movea	255,zero,r7
00000962 d505*          2374 	br	.L3839
                        2375 .L3832:
                        2376 --line537
                        2377 ..lin.C.3A.5C_ECU2.5CECU_Rivian_A1.5CTarget.5Crepo_projects.5CpRealEcu.5CcL_R2023.2E09.2E01.5Cmake.5Coutput.5Cobjects.5Cbusmsg.215::
                        2378 .LDWlin215:
00000964 0132           2379 	mov	1,r6
                        2380 	jarl	_ucGetValidTemperatureRelAtPosPD,lp
                        2380 <EXPANSION BEGIN>
                        2380 jarl22 _ucGetValidTemperatureRelAtPosPD , lp 
00000966 80ff0000*      2380 <EXPANSION END>
                        2381 --line538
                        2382 ..lin.C.3A.5C_ECU2.5CECU_Rivian_A1.5CTarget.5Crepo_projects.5CpRealEcu.5CcL_R2023.2E09.2E01.5Cmake.5Coutput.5Cobjects.5Cbusmsg.216::
                        2383 .LDWlin216:
0000096a 0a38           2384 	mov	r10,r7
                        2385 .L3839:
0000096c 0132           2386 	mov	1,r6
                        2387 	jarl	_BusMsgPutTemperature,lp
                        2387 <EXPANSION BEGIN>
                        2387 jarl22 _BusMsgPutTemperature , lp 
0000096e bfff28f7*      2387 <EXPANSION END>
00000972 0232           2388 	mov	2,r6
                        2389 	jarl	_ucGetIndexOfHistoryWP,lp
                        2389 <EXPANSION BEGIN>
                        2389 jarl22 _ucGetIndexOfHistoryWP , lp 
00000974 80ff0000*      2389 <EXPANSION END>
00000978 0a30           2390 	mov	r10,r6
                        2391 	jarl	_GETusFolgeAusfallCntSTATISTICS,lp
                        2391 <EXPANSION BEGIN>
                        2391 jarl22 _GETusFolgeAusfallCntSTATISTICS , lp 
0000097a 80ff0000*      2391 <EXPANSION END>
0000097e 0ae8           2392 	mov	r10,r29
                        2393 --line542
                        2394 ..lin.C.3A.5C_ECU2.5CECU_Rivian_A1.5CTarget.5Crepo_projects.5CpRealEcu.5CcL_R2023.2E09.2E01.5Cmake.5Coutput.5Cobjects.5Cbusmsg.217::
                        2395 .LDWlin217:
00000980 0232           2396 	mov	2,r6
                        2397 	jarl	_GETbNoWarnPartSurv,lp
                        2397 <EXPANSION BEGIN>
                        2397 jarl22 _GETbNoWarnPartSurv , lp 
00000982 bfff3ef8*      2397 <EXPANSION END>
00000986 6152           2398 	cmp	1,r10
00000988 e215*          2399 	be	.L3841

                                                                      Page 50
                                                              C:\Users\nhuliyap\AppData\Local\Temp\gh_00006oo1.s
0000098a 0032           2400 	mov	0,r6
                        2401 	jarl	_BusMsgGetTextflag,lp
                        2401 <EXPANSION BEGIN>
                        2401 jarl22 _BusMsgGetTextflag , lp 
0000098c bfff1ef8*      2401 <EXPANSION END>
00000990 6152           2402 	cmp	1,r10
00000992 9215*          2403 	be	.L3841
00000994 0232           2404 	mov	2,r6
                        2405 	jarl	_BusMsgGetTextflag,lp
                        2405 <EXPANSION BEGIN>
                        2405 jarl22 _BusMsgGetTextflag , lp 
00000996 bfff14f8*      2405 <EXPANSION END>
0000099a 6152           2406 	cmp	1,r10
0000099c ca05*          2407 	bne	.L3842
0000099e 1d067bff       2408 	addi	-133,r29,zero
000009a2 910d*          2409 	bl	.L3841
                        2410 .L3842:
000009a4 0332           2411 	mov	3,r6
                        2412 	jarl	_BusMsgGetTextflag,lp
                        2412 <EXPANSION BEGIN>
                        2412 jarl22 _BusMsgGetTextflag , lp 
000009a6 bfff04f8*      2412 <EXPANSION END>
000009aa 6152           2413 	cmp	1,r10
000009ac fa05*          2414 	bne	.L3840
000009ae 1d067bff       2415 	addi	-133,r29,zero
000009b2 c905*          2416 	bnl	.L3840
                        2417 .L3841:
                        2418 --line549
                        2419 ..lin.C.3A.5C_ECU2.5CECU_Rivian_A1.5CTarget.5Crepo_projects.5CpRealEcu.5CcL_R2023.2E09.2E01.5Cmake.5Coutput.5Cobjects.5Cbusmsg.218::
                        2420 .LDWlin218:
000009b4 203eff00       2421 	movea	255,zero,r7
000009b8 d505*          2422 	br	.L3847
                        2423 .L3840:
                        2424 --line552
                        2425 ..lin.C.3A.5C_ECU2.5CECU_Rivian_A1.5CTarget.5Crepo_projects.5CpRealEcu.5CcL_R2023.2E09.2E01.5Cmake.5Coutput.5Cobjects.5Cbusmsg.219::
                        2426 .LDWlin219:
000009ba 0232           2427 	mov	2,r6
                        2428 	jarl	_ucGetValidTemperatureRelAtPosPD,lp
                        2428 <EXPANSION BEGIN>
                        2428 jarl22 _ucGetValidTemperatureRelAtPosPD , lp 
000009bc 80ff0000*      2428 <EXPANSION END>
                        2429 --line553
                        2430 ..lin.C.3A.5C_ECU2.5CECU_Rivian_A1.5CTarget.5Crepo_projects.5CpRealEcu.5CcL_R2023.2E09.2E01.5Cmake.5Coutput.5Cobjects.5Cbusmsg.220::
                        2431 .LDWlin220:
000009c0 0a38           2432 	mov	r10,r7
                        2433 .L3847:
000009c2 0232           2434 	mov	2,r6
                        2435 	jarl	_BusMsgPutTemperature,lp
                        2435 <EXPANSION BEGIN>
                        2435 jarl22 _BusMsgPutTemperature , lp 
000009c4 bfffd2f6*      2435 <EXPANSION END>
000009c8 0332           2436 	mov	3,r6
                        2437 	jarl	_ucGetIndexOfHistoryWP,lp
                        2437 <EXPANSION BEGIN>
                        2437 jarl22 _ucGetIndexOfHistoryWP , lp 
000009ca 80ff0000*      2437 <EXPANSION END>
000009ce 0a30           2438 	mov	r10,r6
                        2439 	jarl	_GETusFolgeAusfallCntSTATISTICS,lp
                        2439 <EXPANSION BEGIN>
                        2439 jarl22 _GETusFolgeAusfallCntSTATISTICS , lp 
000009d0 80ff0000*      2439 <EXPANSION END>

                                                                      Page 51
                                                              C:\Users\nhuliyap\AppData\Local\Temp\gh_00006oo1.s
000009d4 0ae8           2440 	mov	r10,r29
                        2441 --line557
                        2442 ..lin.C.3A.5C_ECU2.5CECU_Rivian_A1.5CTarget.5Crepo_projects.5CpRealEcu.5CcL_R2023.2E09.2E01.5Cmake.5Coutput.5Cobjects.5Cbusmsg.221::
                        2443 .LDWlin221:
000009d6 0332           2444 	mov	3,r6
                        2445 	jarl	_GETbNoWarnPartSurv,lp
                        2445 <EXPANSION BEGIN>
                        2445 jarl22 _GETbNoWarnPartSurv , lp 
000009d8 bfffe8f7*      2445 <EXPANSION END>
000009dc 6152           2446 	cmp	1,r10
000009de e215*          2447 	be	.L3849
000009e0 0032           2448 	mov	0,r6
                        2449 	jarl	_BusMsgGetTextflag,lp
                        2449 <EXPANSION BEGIN>
                        2449 jarl22 _BusMsgGetTextflag , lp 
000009e2 bfffc8f7*      2449 <EXPANSION END>
000009e6 6152           2450 	cmp	1,r10
000009e8 9215*          2451 	be	.L3849
000009ea 0232           2452 	mov	2,r6
                        2453 	jarl	_BusMsgGetTextflag,lp
                        2453 <EXPANSION BEGIN>
                        2453 jarl22 _BusMsgGetTextflag , lp 
000009ec bfffbef7*      2453 <EXPANSION END>
000009f0 6152           2454 	cmp	1,r10
000009f2 ca05*          2455 	bne	.L3850
000009f4 1d067bff       2456 	addi	-133,r29,zero
000009f8 910d*          2457 	bl	.L3849
                        2458 .L3850:
000009fa 0332           2459 	mov	3,r6
                        2460 	jarl	_BusMsgGetTextflag,lp
                        2460 <EXPANSION BEGIN>
                        2460 jarl22 _BusMsgGetTextflag , lp 
000009fc bfffaef7*      2460 <EXPANSION END>
00000a00 6152           2461 	cmp	1,r10
00000a02 fa05*          2462 	bne	.L3848
00000a04 1d067bff       2463 	addi	-133,r29,zero
00000a08 c905*          2464 	bnl	.L3848
                        2465 .L3849:
                        2466 --line564
                        2467 ..lin.C.3A.5C_ECU2.5CECU_Rivian_A1.5CTarget.5Crepo_projects.5CpRealEcu.5CcL_R2023.2E09.2E01.5Cmake.5Coutput.5Cobjects.5Cbusmsg.222::
                        2468 .LDWlin222:
00000a0a 203eff00       2469 	movea	255,zero,r7
00000a0e d505*          2470 	br	.L3945
                        2471 .L3848:
                        2472 --line567
                        2473 ..lin.C.3A.5C_ECU2.5CECU_Rivian_A1.5CTarget.5Crepo_projects.5CpRealEcu.5CcL_R2023.2E09.2E01.5Cmake.5Coutput.5Cobjects.5Cbusmsg.223::
                        2474 .LDWlin223:
00000a10 0332           2475 	mov	3,r6
                        2476 	jarl	_ucGetValidTemperatureRelAtPosPD,lp
                        2476 <EXPANSION BEGIN>
                        2476 jarl22 _ucGetValidTemperatureRelAtPosPD , lp 
00000a12 80ff0000*      2476 <EXPANSION END>
                        2477 --line568
                        2478 ..lin.C.3A.5C_ECU2.5CECU_Rivian_A1.5CTarget.5Crepo_projects.5CpRealEcu.5CcL_R2023.2E09.2E01.5Cmake.5Coutput.5Cobjects.5Cbusmsg.224::
                        2479 .LDWlin224:
00000a16 0a38           2480 	mov	r10,r7
                        2481 .L3945:
00000a18 0332           2482 	mov	3,r6
                        2483 	jarl	_BusMsgPutTemperature,lp
                        2483 <EXPANSION BEGIN>
                        2483 jarl22 _BusMsgPutTemperature , lp 

                                                                      Page 52
                                                              C:\Users\nhuliyap\AppData\Local\Temp\gh_00006oo1.s
00000a1a bfff7cf6*      2483 <EXPANSION END>
                        2484 --	    .ef
                        2485 .LDW96:
                        2486 --line570
                        2487 ..lin.C.3A.5C_ECU2.5CECU_Rivian_A1.5CTarget.5Crepo_projects.5CpRealEcu.5CcL_R2023.2E09.2E01.5Cmake.5Coutput.5Cobjects.5Cbusmsg.225::
                        2488 .LDWlin225:
00000a1e 40067f00       2489 	dispose	0,{r29,r31},[lp]
                        2490 	.global	___ghs_eofn_BusMsgDetermineTemperatures
                        2491 ___ghs_eofn_BusMsgDetermineTemperatures:
                        2492 	.type	_BusMsgDetermineTemperatures,@function
                        2493 	.size	_BusMsgDetermineTemperatures,.-_BusMsgDetermineTemperatures
                        2494 	.align	2
                        2495 --_usTempNoRxTime	r29	local
                        2496 
                        2497 	.section ".bss","awb"
                        2498 .L4126:
                        2499 	.type	.L4126,@object
                        2500 	.size	.L4126,0
                        2501 	.data
                        2502 	.text
                        2503 	.align	2
                        2504 --_aucWheelPosWarn	_aucWheelPosWarn	import
                        2505 --_ucTyreTemperature	_ucTyreTemperature	static
                        2506 --_ucTyrePressUncomp	_ucTyrePressUncomp	static
                        2507 --_ucTyreWarning	_ucTyreWarning	static
                        2508 --_ucTyreTemperatureWarning	_ucTyreTemperatureWarning	static
                        2509 --_bTyreValidVL	_bTyreValidVL	static
                        2510 --_bTyreValidVR	_bTyreValidVR	static
                        2511 --_bTyreValidHL	_bTyreValidHL	static
                        2512 --_bTyreValidHR	_bTyreValidHR	static
                        2513 --_bTextFlags	_bTextFlags	static
                        2514 
                        2515 	.data
                        2516 	.ghsnote version,17
                        2517 	.ghsnote tools,3
                        2518 	.ghsnote options,144
                        2519 	.text
                        2520 	.align	2
                        2521 ..eof.C.3A.5C_ECU2.5CECU_Rivian_A1.5CTarget.5Crepo_projects.5CpRealEcu.5CcL_R2023.2E09.2E01.5Cmake.5Coutput.5Cobjects.5Cbusmsg...43.3A.5C_ECU2.5CECU_Rivian_A1.5CTarget.5Crepo_projects.5CpRealEcu.5CcL_R2023.2E09.2E01.5Cmake..64F8210D..0::
                        2522 	.section	.debug_info
                        2523 .Ldw_begin:
00000000 b5140000       2524 	.word	.Ldw_end-.Ldw_begin-4
00000004 0200           2525 	.byte	2,0
00000006 00000000*      2526 	.word	.Ldw_abbr_begin
0000000a 04             2527 	.byte	4
                        2528 	.section	.debug_abbrev
                        2529 .Ldw_abbr_begin:
                        2530 	.section	.debug_info
0000000b 01             2531 	.byte	1
0000000c 00000000*      2532 	.word	..bof.C.3A.5C_ECU2.5CECU_Rivian_A1.5CTarget.5Crepo_projects.5CpRealEcu.5CcL_R2023.2E09.2E01.5Cmake.5Coutput.5Cobjects.5Cbusmsg...43.3A.5C_ECU2.5CECU_Rivian_A1.5CTarget.5Crepo_projects.5CpRealEcu.5CcL_R2023.2E09.2E01.5Cmake..64F8210D..0
00000010 00000000*      2533 	.word	..eof.C.3A.5C_ECU2.5CECU_Rivian_A1.5CTarget.5Crepo_projects.5CpRealEcu.5CcL_R2023.2E09.2E01.5Cmake.5Coutput.5Cobjects.5Cbusmsg...43.3A.5C_ECU2.5CECU_Rivian_A1.5CTarget.5Crepo_projects.5CpRealEcu.5CcL_R2023.2E09.2E01.5Cmake..64F8210D..0
00000014 2e2e2f736f75   2534 	.strz	"../source/SwcApplTpms/busmsg.c"
0000001a 7263652f5377 
00000020 634170706c54 
00000026 706d732f6275 
0000002c 736d73672e63 
00000032 00 
00000033 433a5c5f4543   2535 	.strz	"C:\\_ECU2\\ECU_Rivian_A1\\Target\\repo_projects\\pRealEcu\\cL_R2023.09.01\\make"
00000039 55325c454355 
0000003f 5f5269766961 
00000045 6e5f41315c54 

                                                                      Page 53
                                                              C:\Users\nhuliyap\AppData\Local\Temp\gh_00006oo1.s
0000004b 61726765745c 
00000051 7265706f5f70 
00000057 726f6a656374 
0000005d 735c70526561 
00000063 6c4563755c63 
00000069 4c5f52323032 
0000006f 332e30392e30 
00000075 315c6d616b65 
0000007b 00 
0000007c 474853204320   2536 	.strz	"GHS C 2015.1.7 [dual]"
00000082 323031352e31 
00000088 2e37205b6475 
0000008e 616c5d00 
00000092 0100           2537 	.byte	1,0
00000094 00000000*      2538 	.word	.Ldw_line_begin
00000098 00000000*      2539 	.word	.Ldw_macinfo_begin
0000009c 00             2540 	.byte	0
                        2541 
                        2542 	.section	.debug_abbrev
00000000 01             2543 	.byte	1
00000001 11             2544 	.byte	17
00000002 01             2545 	.byte	1
00000003 1101           2546 	.byte	17,1
00000005 1201           2547 	.byte	18,1
00000007 0308           2548 	.byte	3,8
00000009 1b08           2549 	.byte	27,8
0000000b 2508           2550 	.byte	37,8
0000000d 1305           2551 	.byte	19,5
0000000f 1006           2552 	.byte	16,6
00000011 4306           2553 	.byte	67,6
00000013 420b           2554 	.byte	66,11
00000015 0000           2555 	.byte	0,0
                        2556 
                        2557 	.section	.debug_line
                        2558 .Ldw_line_begin:
00000000 bd0f0000       2559 	.word	.Ldw_line_end-.Ldw_line_begin-4
00000004 0200           2560 	.byte	2,0
00000006 00000000*      2561 	.word	.Ldw_lpro_end-.Ldw_lpro_begin
                        2562 .Ldw_lpro_begin:
0000000a 01             2563 	.byte	1
0000000b 00             2564 	.byte	0
0000000c 00             2565 	.byte	0
0000000d 04             2566 	.byte	4
0000000e 0a             2567 	.byte	10
0000000f 000101         2568 	.byte	0,1,1
00000012 010100         2569 	.byte	1,1,0
00000015 000001         2570 	.byte	0,0,1
00000018 00             2571 	.byte	0
00000019 2e2e2f736f75   2572 	.strz	"../source/SwcApplTpms/busmsg.c"
0000001f 7263652f5377 
00000025 634170706c54 
0000002b 706d732f6275 
00000031 736d73672e63 
00000037 00 
00000038 000000         2573 	.byte	0,0,0
0000003b 2e2e2f736f75   2574 	.strz	"../source/SwcApplTpms/iTpms_Interface.hpp"
00000041 7263652f5377 
00000047 634170706c54 
0000004d 706d732f6954 
00000053 706d735f496e 
00000059 746572666163 

                                                                      Page 54
                                                              C:\Users\nhuliyap\AppData\Local\Temp\gh_00006oo1.s
0000005f 652e68707000 
00000065 000000         2575 	.byte	0,0,0
00000068 2e2e2f736f75   2576 	.strz	"../source/SwcApplTpms/Tpms_Rte_Data_Type.hpp"
0000006e 7263652f5377 
00000074 634170706c54 
0000007a 706d732f5470 
00000080 6d735f527465 
00000086 5f446174615f 
0000008c 547970652e68 
00000092 707000 
00000095 000000         2577 	.byte	0,0,0
00000098 2e2e2f736f75   2578 	.strz	"../source/McalMcu/Types.hpp"
0000009e 7263652f4d63 
000000a4 616c4d63752f 
000000aa 54797065732e 
000000b0 68707000 
000000b4 000000         2579 	.byte	0,0,0
000000b7 2e2e2f736f75   2580 	.strz	"../source/common/Std_Types.hpp"
000000bd 7263652f636f 
000000c3 6d6d6f6e2f53 
000000c9 74645f547970 
000000cf 65732e687070 
000000d5 00 
000000d6 000000         2581 	.byte	0,0,0
000000d9 2e2e2f736f75   2582 	.strz	"../source/common/Platform_Types.hpp"
000000df 7263652f636f 
000000e5 6d6d6f6e2f50 
000000eb 6c6174666f72 
000000f1 6d5f54797065 
000000f7 732e68707000 
000000fd 000000         2583 	.byte	0,0,0
00000100 2e2e2f736f75   2584 	.strz	"../source/common/Compiler.hpp"
00000106 7263652f636f 
0000010c 6d6d6f6e2f43 
00000112 6f6d70696c65 
00000118 722e68707000 
0000011e 000000         2585 	.byte	0,0,0
00000121 2e2e2f736f75   2586 	.strz	"../source/ProjectCompiler/Compiler_Cfg.hpp"
00000127 7263652f5072 
0000012d 6f6a65637443 
00000133 6f6d70696c65 
00000139 722f436f6d70 
0000013f 696c65725f43 
00000145 66672e687070 
0000014b 00 
0000014c 000000         2587 	.byte	0,0,0
0000014f 2e2e2f736f75   2588 	.strz	"../source/ProjectCompiler/CompilerCfg_SwcServiceOs.hpp"
00000155 7263652f5072 
0000015b 6f6a65637443 
00000161 6f6d70696c65 
00000167 722f436f6d70 
0000016d 696c65724366 
00000173 675f53776353 
00000179 657276696365 
0000017f 4f732e687070 
00000185 00 
00000186 000000         2589 	.byte	0,0,0
00000189 2e2e2f736f75   2590 	.strz	"../source/SwcApplTpms/SwcApplTpms_Rte.hpp"
0000018f 7263652f5377 
00000195 634170706c54 
0000019b 706d732f5377 

                                                                      Page 55
                                                              C:\Users\nhuliyap\AppData\Local\Temp\gh_00006oo1.s
000001a1 634170706c54 
000001a7 706d735f5274 
000001ad 652e68707000 
000001b3 000000         2591 	.byte	0,0,0
000001b6 2e2e2f736f75   2592 	.strz	"../source/SwcApplTpms/SwcApplTpms_Rte_Type.hpp"
000001bc 7263652f5377 
000001c2 634170706c54 
000001c8 706d732f5377 
000001ce 634170706c54 
000001d4 706d735f5274 
000001da 655f54797065 
000001e0 2e68707000 
000001e5 000000         2593 	.byte	0,0,0
000001e8 2e2e2f736f75   2594 	.strz	"../source/ProjectCfg/SwcApplTpms_NvM_If.hpp"
000001ee 7263652f5072 
000001f4 6f6a65637443 
000001fa 66672f537763 
00000200 4170706c5470 
00000206 6d735f4e764d 
0000020c 5f49662e6870 
00000212 7000 
00000214 000000         2595 	.byte	0,0,0
00000217 2e2e2f736f75   2596 	.strz	"../source/SwcApplTpms/WallocX.hpp"
0000021d 7263652f5377 
00000223 634170706c54 
00000229 706d732f5761 
0000022f 6c6c6f63582e 
00000235 68707000 
00000239 000000         2597 	.byte	0,0,0
0000023c 2e2e2f736f75   2598 	.strz	"../source/SwcApplTpms/Intface/busmsgX.hpp"
00000242 7263652f5377 
00000248 634170706c54 
0000024e 706d732f496e 
00000254 74666163652f 
0000025a 6275736d7367 
00000260 582e68707000 
00000266 000000         2599 	.byte	0,0,0
00000269 2e2e2f736f75   2600 	.strz	"../source/SwcApplTpms/busmsg.hpp"
0000026f 7263652f5377 
00000275 634170706c54 
0000027b 706d732f6275 
00000281 736d73672e68 
00000287 707000 
0000028a 000000         2601 	.byte	0,0,0
0000028d 2e2e2f736f75   2602 	.strz	"../source/SwcApplTpms/Intface/silaX.hpp"
00000293 7263652f5377 
00000299 634170706c54 
0000029f 706d732f496e 
000002a5 74666163652f 
000002ab 73696c61582e 
000002b1 68707000 
000002b5 000000         2603 	.byte	0,0,0
000002b8 2e2e2f736f75   2604 	.strz	"../source/SwcApplTpms/ProcDatX.hpp"
000002be 7263652f5377 
000002c4 634170706c54 
000002ca 706d732f5072 
000002d0 6f6344617458 
000002d6 2e68707000 
000002db 000000         2605 	.byte	0,0,0
000002de 2e2e2f736f75   2606 	.strz	"../source/SwcApplTpms/Intface/tss_stdx.hpp"
000002e4 7263652f5377 

                                                                      Page 56
                                                              C:\Users\nhuliyap\AppData\Local\Temp\gh_00006oo1.s
000002ea 634170706c54 
000002f0 706d732f496e 
000002f6 74666163652f 
000002fc 7473735f7374 
00000302 64782e687070 
00000308 00 
00000309 000000         2607 	.byte	0,0,0
0000030c 2e2e2f736f75   2608 	.strz	"../source/ProjectCfg/CfgSwcApplTpms.hpp"
00000312 7263652f5072 
00000318 6f6a65637443 
0000031e 66672f436667 
00000324 537763417070 
0000032a 6c54706d732e 
00000330 68707000 
00000334 000000         2609 	.byte	0,0,0
00000337 2e2e2f736f75   2610 	.strz	"../source/SwcApplTpms/cd_decoder_x.hpp"
0000033d 7263652f5377 
00000343 634170706c54 
00000349 706d732f6364 
0000034f 5f6465636f64 
00000355 65725f782e68 
0000035b 707000 
0000035e 000000         2611 	.byte	0,0,0
00000361 2e2e2f736f75   2612 	.strz	"../source/SwcApplTpms/USWarnX.hpp"
00000367 7263652f5377 
0000036d 634170706c54 
00000373 706d732f5553 
00000379 5761726e582e 
0000037f 68707000 
00000383 000000         2613 	.byte	0,0,0
00000386 2e2e2f736f75   2614 	.strz	"../source/SwcApplTpms/global.hpp"
0000038c 7263652f5377 
00000392 634170706c54 
00000398 706d732f676c 
0000039e 6f62616c2e68 
000003a4 707000 
000003a7 000000         2615 	.byte	0,0,0
000003aa 2e2e2f736f75   2616 	.strz	"../source/SwcApplTpms/state_bzX.hpp"
000003b0 7263652f5377 
000003b6 634170706c54 
000003bc 706d732f7374 
000003c2 6174655f627a 
000003c8 582e68707000 
000003ce 000000         2617 	.byte	0,0,0
000003d1 2e2e2f736f75   2618 	.strz	"../source/SwcApplTpms/statisticsX.hpp"
000003d7 7263652f5377 
000003dd 634170706c54 
000003e3 706d732f7374 
000003e9 617469737469 
000003ef 6373582e6870 
000003f5 7000 
000003f7 000000         2619 	.byte	0,0,0
000003fa 2e2e2f736f75   2620 	.strz	"../source/ProjectCfg/CfgSwcApplTpms_IDOM.hpp"
00000400 7263652f5072 
00000406 6f6a65637443 
0000040c 66672f436667 
00000412 537763417070 
00000418 6c54706d735f 
0000041e 49444f4d2e68 
00000424 707000 
00000427 000000         2621 	.byte	0,0,0

                                                                      Page 57
                                                              C:\Users\nhuliyap\AppData\Local\Temp\gh_00006oo1.s
0000042a 2e2e2f736f75   2622 	.strz	"../source/SwcApplTpms/SwcApplTpms_DTC_If.hpp"
00000430 7263652f5377 
00000436 634170706c54 
0000043c 706d732f5377 
00000442 634170706c54 
00000448 706d735f4454 
0000044e 435f49662e68 
00000454 707000 
00000457 000000         2623 	.byte	0,0,0
0000045a 00             2624 	.byte	0
                        2625 .Ldw_lpro_end:
                        2626 	.section	.debug_macinfo
                        2627 .Ldw_macinfo_begin:
                        2628 	.section	.debug_frame
                        2629 .LDW_4d5e980:
00000000 00000000*      2630 	.word	.LDW_unq_2-.LDW_unq_1
                        2631 .LDW_unq_1:
00000004 ffffffff       2632 	.byte	255,255,255,255
00000008 01             2633 	.byte	1
00000009 00             2634 	.byte	0
0000000a 01             2635 	.byte	1
0000000b 01             2636 	.byte	1
0000000c 1f             2637 	.byte	31
0000000d 0c             2638 	.byte	12
0000000e 03             2639 	.byte	3
0000000f 00             2640 	.byte	0
00000010 07             2641 	.byte	7
00000011 00             2642 	.byte	0
00000012 07             2643 	.byte	7
00000013 01             2644 	.byte	1
00000014 07             2645 	.byte	7
00000015 02             2646 	.byte	2
00000016 07             2647 	.byte	7
00000017 03             2648 	.byte	3
00000018 07             2649 	.byte	7
00000019 04             2650 	.byte	4
0000001a 07             2651 	.byte	7
0000001b 05             2652 	.byte	5
0000001c 07             2653 	.byte	7
0000001d 06             2654 	.byte	6
0000001e 07             2655 	.byte	7
0000001f 07             2656 	.byte	7
00000020 07             2657 	.byte	7
00000021 08             2658 	.byte	8
00000022 07             2659 	.byte	7
00000023 09             2660 	.byte	9
00000024 07             2661 	.byte	7
00000025 0a             2662 	.byte	10
00000026 07             2663 	.byte	7
00000027 0b             2664 	.byte	11
00000028 07             2665 	.byte	7
00000029 0c             2666 	.byte	12
0000002a 07             2667 	.byte	7
0000002b 0d             2668 	.byte	13
0000002c 07             2669 	.byte	7
0000002d 0e             2670 	.byte	14
0000002e 07             2671 	.byte	7
0000002f 0f             2672 	.byte	15
00000030 07             2673 	.byte	7
00000031 10             2674 	.byte	16
00000032 07             2675 	.byte	7

                                                                      Page 58
                                                              C:\Users\nhuliyap\AppData\Local\Temp\gh_00006oo1.s
00000033 11             2676 	.byte	17
00000034 07             2677 	.byte	7
00000035 12             2678 	.byte	18
00000036 07             2679 	.byte	7
00000037 13             2680 	.byte	19
00000038 08             2681 	.byte	8
00000039 14             2682 	.byte	20
0000003a 08             2683 	.byte	8
0000003b 15             2684 	.byte	21
0000003c 08             2685 	.byte	8
0000003d 16             2686 	.byte	22
0000003e 08             2687 	.byte	8
0000003f 17             2688 	.byte	23
00000040 08             2689 	.byte	8
00000041 18             2690 	.byte	24
00000042 08             2691 	.byte	8
00000043 19             2692 	.byte	25
00000044 08             2693 	.byte	8
00000045 1a             2694 	.byte	26
00000046 08             2695 	.byte	8
00000047 1b             2696 	.byte	27
00000048 08             2697 	.byte	8
00000049 1c             2698 	.byte	28
0000004a 08             2699 	.byte	8
0000004b 1d             2700 	.byte	29
0000004c 07             2701 	.byte	7
0000004d 1e             2702 	.byte	30
0000004e 08             2703 	.byte	8
0000004f 1f             2704 	.byte	31
00000050 07             2705 	.byte	7
00000051 20             2706 	.byte	32
00000052 07             2707 	.byte	7
00000053 21             2708 	.byte	33
00000054 07             2709 	.byte	7
00000055 22             2710 	.byte	34
00000056 07             2711 	.byte	7
00000057 23             2712 	.byte	35
00000058 07             2713 	.byte	7
00000059 24             2714 	.byte	36
0000005a 07             2715 	.byte	7
0000005b 25             2716 	.byte	37
0000005c 07             2717 	.byte	7
0000005d 26             2718 	.byte	38
0000005e 07             2719 	.byte	7
0000005f 27             2720 	.byte	39
00000060 07             2721 	.byte	7
00000061 28             2722 	.byte	40
00000062 07             2723 	.byte	7
00000063 29             2724 	.byte	41
00000064 07             2725 	.byte	7
00000065 2a             2726 	.byte	42
00000066 07             2727 	.byte	7
00000067 2b             2728 	.byte	43
00000068 07             2729 	.byte	7
00000069 2c             2730 	.byte	44
0000006a 07             2731 	.byte	7
0000006b 2d             2732 	.byte	45
0000006c 07             2733 	.byte	7
0000006d 2e             2734 	.byte	46
0000006e 07             2735 	.byte	7
0000006f 2f             2736 	.byte	47

                                                                      Page 59
                                                              C:\Users\nhuliyap\AppData\Local\Temp\gh_00006oo1.s
00000070 07             2737 	.byte	7
00000071 30             2738 	.byte	48
00000072 07             2739 	.byte	7
00000073 31             2740 	.byte	49
00000074 07             2741 	.byte	7
00000075 32             2742 	.byte	50
00000076 07             2743 	.byte	7
00000077 33             2744 	.byte	51
00000078 07             2745 	.byte	7
00000079 34             2746 	.byte	52
0000007a 07             2747 	.byte	7
0000007b 35             2748 	.byte	53
0000007c 07             2749 	.byte	7
0000007d 36             2750 	.byte	54
0000007e 07             2751 	.byte	7
0000007f 37             2752 	.byte	55
00000080 07             2753 	.byte	7
00000081 38             2754 	.byte	56
00000082 07             2755 	.byte	7
00000083 39             2756 	.byte	57
00000084 07             2757 	.byte	7
00000085 3a             2758 	.byte	58
00000086 07             2759 	.byte	7
00000087 3b             2760 	.byte	59
00000088 07             2761 	.byte	7
00000089 3c             2762 	.byte	60
0000008a 07             2763 	.byte	7
0000008b 3d             2764 	.byte	61
0000008c 07             2765 	.byte	7
0000008d 3e             2766 	.byte	62
0000008e 07             2767 	.byte	7
0000008f 3f             2768 	.byte	63
                        2769 .LDW_unq_2:
                        2770 	.section	.debug_info
                        2771 .LDW_49473e0:
0000009d 45             2772 	.byte	69
0000009e 01             2773 	.byte	1
                        2774 
                        2775 	.section	.debug_abbrev
00000017 45             2776 	.byte	69
00000018 15             2777 	.byte	21
00000019 01             2778 	.byte	1
0000001a 270c           2779 	.byte	39,12
0000001c 0000           2780 	.byte	0,0
                        2781 
                        2782 	.section	.debug_info
0000009f 00             2783 	.byte	0
                        2784 
                        2785 .LDW_49471b0:
000000a0 25             2786 	.byte	37
000000a1 756e7369676e   2787 	.strz	"unsigned char"
000000a7 656420636861 
000000ad 7200 
000000af 08             2788 	.byte	8
000000b0 01             2789 	.byte	1
                        2790 
                        2791 	.section	.debug_abbrev
0000001e 25             2792 	.byte	37
0000001f 24             2793 	.byte	36
00000020 00             2794 	.byte	0
00000021 0308           2795 	.byte	3,8

                                                                      Page 60
                                                              C:\Users\nhuliyap\AppData\Local\Temp\gh_00006oo1.s
00000023 3e0b           2796 	.byte	62,11
00000025 0b0b           2797 	.byte	11,11
00000027 0000           2798 	.byte	0,0
                        2799 
                        2800 	.section	.debug_info
                        2801 .LDW_4946d88:
000000b1 45             2802 	.byte	69
000000b2 01             2803 	.byte	1
                        2804 
000000b3 00             2805 	.byte	0
                        2806 
                        2807 .LDW_49471e8:
000000b4 45             2808 	.byte	69
000000b5 01             2809 	.byte	1
                        2810 
000000b6 00             2811 	.byte	0
                        2812 
                        2813 .LDW_4946dc0:
000000b7 45             2814 	.byte	69
000000b8 01             2815 	.byte	1
                        2816 
                        2817 .LDW_498e8b0:
000000b9 12             2818 	.byte	18
000000ba 00000000*      2819 	.word	.LDW_4c87210
000000be 00             2820 	.byte	0
                        2821 
                        2822 	.section	.debug_abbrev
00000029 12             2823 	.byte	18
0000002a 05             2824 	.byte	5
0000002b 00             2825 	.byte	0
0000002c 4910           2826 	.byte	73,16
0000002e 4b0c           2827 	.byte	75,12
00000030 0000           2828 	.byte	0,0
                        2829 
                        2830 	.section	.debug_info
                        2831 .LDW_498e940:
000000bf 12             2832 	.byte	18
000000c0 00000000*      2833 	.word	.LDW_4c87210
000000c4 00             2834 	.byte	0
                        2835 
000000c5 00             2836 	.byte	0
                        2837 
                        2838 .LDW_4946df8:
000000c6 44             2839 	.byte	68
000000c7 00000000*      2840 	.word	.LDW_4c87210
000000cb 01             2841 	.byte	1
                        2842 
                        2843 	.section	.debug_abbrev
00000032 44             2844 	.byte	68
00000033 15             2845 	.byte	21
00000034 01             2846 	.byte	1
00000035 4910           2847 	.byte	73,16
00000037 270c           2848 	.byte	39,12
00000039 0000           2849 	.byte	0,0
                        2850 
                        2851 	.section	.debug_info
                        2852 .LDW_498e3d0:
000000cc 12             2853 	.byte	18
000000cd 00000000*      2854 	.word	.LDW_4c87210
000000d1 00             2855 	.byte	0
                        2856 

                                                                      Page 61
                                                              C:\Users\nhuliyap\AppData\Local\Temp\gh_00006oo1.s
000000d2 00             2857 	.byte	0
                        2858 
                        2859 .LDW_4946e30:
000000d3 45             2860 	.byte	69
000000d4 01             2861 	.byte	1
                        2862 
                        2863 .LDW_498e490:
000000d5 12             2864 	.byte	18
000000d6 00000000*      2865 	.word	.LDW_4c87210
000000da 00             2866 	.byte	0
                        2867 
                        2868 .LDW_498e4c0:
000000db 12             2869 	.byte	18
000000dc 00000000*      2870 	.word	.LDW_4c87210
000000e0 00             2871 	.byte	0
                        2872 
000000e1 00             2873 	.byte	0
                        2874 
                        2875 .LDW_49474c0:
000000e2 44             2876 	.byte	68
000000e3 00000000*      2877 	.word	.LDW_4c87210
000000e7 01             2878 	.byte	1
                        2879 
                        2880 .LDW_498e580:
000000e8 12             2881 	.byte	18
000000e9 00000000*      2882 	.word	.LDW_4c87210
000000ed 00             2883 	.byte	0
                        2884 
000000ee 00             2885 	.byte	0
                        2886 
                        2887 .LDW_4947450:
000000ef 45             2888 	.byte	69
000000f0 01             2889 	.byte	1
                        2890 
                        2891 .LDW_498e5e0:
000000f1 12             2892 	.byte	18
000000f2 00000000*      2893 	.word	.LDW_4c87210
000000f6 00             2894 	.byte	0
                        2895 
                        2896 .LDW_498e640:
000000f7 12             2897 	.byte	18
000000f8 00000000*      2898 	.word	.LDW_4989f00
000000fc 00             2899 	.byte	0
                        2900 
000000fd 00             2901 	.byte	0
                        2902 
                        2903 .LDW_4947488:
000000fe 44             2904 	.byte	68
000000ff 00000000*      2905 	.word	.LDW_4989f00
00000103 01             2906 	.byte	1
                        2907 
                        2908 .LDW_498e6a0:
00000104 12             2909 	.byte	18
00000105 00000000*      2910 	.word	.LDW_4c87210
00000109 00             2911 	.byte	0
                        2912 
0000010a 00             2913 	.byte	0
                        2914 
                        2915 .LDW_4d95d78:
0000010b 45             2916 	.byte	69
0000010c 01             2917 	.byte	1

                                                                      Page 62
                                                              C:\Users\nhuliyap\AppData\Local\Temp\gh_00006oo1.s
                        2918 
                        2919 .LDW_498ea30:
0000010d 12             2920 	.byte	18
0000010e 00000000*      2921 	.word	.LDW_4c87210
00000112 00             2922 	.byte	0
                        2923 
                        2924 .LDW_498ea60:
00000113 12             2925 	.byte	18
00000114 00000000*      2926 	.word	.LDW_4c87210
00000118 00             2927 	.byte	0
                        2928 
00000119 00             2929 	.byte	0
                        2930 
                        2931 .LDW_4d95a68:
0000011a 44             2932 	.byte	68
0000011b 00000000*      2933 	.word	.LDW_4c87210
0000011f 01             2934 	.byte	1
                        2935 
                        2936 .LDW_498eb50:
00000120 12             2937 	.byte	18
00000121 00000000*      2938 	.word	.LDW_4c87210
00000125 00             2939 	.byte	0
                        2940 
00000126 00             2941 	.byte	0
                        2942 
                        2943 .LDW_4d95950:
00000127 45             2944 	.byte	69
00000128 01             2945 	.byte	1
                        2946 
                        2947 .LDW_498eaf0:
00000129 12             2948 	.byte	18
0000012a 00000000*      2949 	.word	.LDW_4989f00
0000012e 00             2950 	.byte	0
                        2951 
0000012f 00             2952 	.byte	0
                        2953 
                        2954 .LDW_4d95c28:
00000130 44             2955 	.byte	68
00000131 00000000*      2956 	.word	.LDW_4989f00
00000135 01             2957 	.byte	1
                        2958 
00000136 00             2959 	.byte	0
                        2960 
                        2961 .LDW_4d95d08:
00000137 45             2962 	.byte	69
00000138 01             2963 	.byte	1
                        2964 
                        2965 .LDW_4d96298:
00000139 12             2966 	.byte	18
0000013a 00000000*      2967 	.word	.LDW_4989f00
0000013e 00             2968 	.byte	0
                        2969 
0000013f 00             2970 	.byte	0
                        2971 
                        2972 .LDW_4d95c60:
00000140 44             2973 	.byte	68
00000141 00000000*      2974 	.word	.LDW_4989f00
00000145 01             2975 	.byte	1
                        2976 
00000146 00             2977 	.byte	0
                        2978 

                                                                      Page 63
                                                              C:\Users\nhuliyap\AppData\Local\Temp\gh_00006oo1.s
                        2979 .LDW_4d95db0:
00000147 45             2980 	.byte	69
00000148 01             2981 	.byte	1
                        2982 
                        2983 .LDW_4d95fc8:
00000149 12             2984 	.byte	18
0000014a 00000000*      2985 	.word	.LDW_4989f00
0000014e 00             2986 	.byte	0
                        2987 
0000014f 00             2988 	.byte	0
                        2989 
                        2990 .LDW_4d95988:
00000150 44             2991 	.byte	68
00000151 00000000*      2992 	.word	.LDW_4989f00
00000155 01             2993 	.byte	1
                        2994 
00000156 00             2995 	.byte	0
                        2996 
                        2997 .LDW_4d95d40:
00000157 45             2998 	.byte	69
00000158 01             2999 	.byte	1
                        3000 
                        3001 .LDW_4d962f8:
00000159 12             3002 	.byte	18
0000015a 00000000*      3003 	.word	.LDW_4989f00
0000015e 00             3004 	.byte	0
                        3005 
0000015f 00             3006 	.byte	0
                        3007 
                        3008 .LDW_4d95838:
00000160 44             3009 	.byte	68
00000161 00000000*      3010 	.word	.LDW_4989f00
00000165 01             3011 	.byte	1
                        3012 
00000166 00             3013 	.byte	0
                        3014 
                        3015 .LDW_4d95e58:
00000167 45             3016 	.byte	69
00000168 01             3017 	.byte	1
                        3018 
                        3019 .LDW_4d96478:
00000169 12             3020 	.byte	18
0000016a 00000000*      3021 	.word	.LDW_4c87210
0000016e 00             3022 	.byte	0
                        3023 
                        3024 .LDW_4d960b8:
0000016f 12             3025 	.byte	18
00000170 00000000*      3026 	.word	.LDW_4989f00
00000174 00             3027 	.byte	0
                        3028 
00000175 00             3029 	.byte	0
                        3030 
                        3031 .LDW_4d95870:
00000176 44             3032 	.byte	68
00000177 00000000*      3033 	.word	.LDW_4989f00
0000017b 01             3034 	.byte	1
                        3035 
                        3036 .LDW_4d96358:
0000017c 12             3037 	.byte	18
0000017d 00000000*      3038 	.word	.LDW_4c87210
00000181 00             3039 	.byte	0

                                                                      Page 64
                                                              C:\Users\nhuliyap\AppData\Local\Temp\gh_00006oo1.s
                        3040 
00000182 00             3041 	.byte	0
                        3042 
                        3043 .LDW_4d95de8:
00000183 45             3044 	.byte	69
00000184 01             3045 	.byte	1
                        3046 
00000185 00             3047 	.byte	0
                        3048 
                        3049 .LDW_4d95bb8:
00000186 25             3050 	.byte	37
00000187 756e7369676e   3051 	.strz	"unsigned short"
0000018d 65642073686f 
00000193 727400 
00000196 07             3052 	.byte	7
00000197 02             3053 	.byte	2
                        3054 
                        3055 .LDW_4d95918:
00000198 45             3056 	.byte	69
00000199 01             3057 	.byte	1
                        3058 
0000019a 00             3059 	.byte	0
                        3060 
                        3061 .LDW_4d329f8:
0000019b 29             3062 	.byte	41
0000019c 00000000*      3063 	.word	.LDW_4c87210
                        3064 
                        3065 	.section	.debug_abbrev
0000003b 29             3066 	.byte	41
0000003c 26             3067 	.byte	38
0000003d 00             3068 	.byte	0
0000003e 4910           3069 	.byte	73,16
00000040 0000           3070 	.byte	0,0
                        3071 
                        3072 	.section	.debug_info
                        3073 .LDW_4d95bf0:
000001a0 44             3074 	.byte	68
000001a1 00000000*      3075 	.word	.LDW_4989f00
000001a5 01             3076 	.byte	1
                        3077 
                        3078 .LDW_4d96088:
000001a6 12             3079 	.byte	18
000001a7 00000000*      3080 	.word	.LDW_4d329f8
000001ab 00             3081 	.byte	0
                        3082 
000001ac 00             3083 	.byte	0
                        3084 
                        3085 .LDW_4d959c0:
000001ad 45             3086 	.byte	69
000001ae 01             3087 	.byte	1
                        3088 
000001af 00             3089 	.byte	0
                        3090 
                        3091 .LDW_4d95a30:
000001b0 45             3092 	.byte	69
000001b1 01             3093 	.byte	1
                        3094 
000001b2 00             3095 	.byte	0
                        3096 
                        3097 .LDW_4d95c98:
000001b3 45             3098 	.byte	69

                                                                      Page 65
                                                              C:\Users\nhuliyap\AppData\Local\Temp\gh_00006oo1.s
000001b4 01             3099 	.byte	1
                        3100 
000001b5 00             3101 	.byte	0
                        3102 
                        3103 .LDW_4d95aa0:
000001b6 45             3104 	.byte	69
000001b7 01             3105 	.byte	1
                        3106 
000001b8 00             3107 	.byte	0
                        3108 
                        3109 .LDW_4d95b10:
000001b9 45             3110 	.byte	69
000001ba 01             3111 	.byte	1
                        3112 
000001bb 00             3113 	.byte	0
                        3114 
                        3115 .LDW_4d95ad8:
000001bc 44             3116 	.byte	68
000001bd 00000000*      3117 	.word	.LDW_4c87210
000001c1 01             3118 	.byte	1
                        3119 
000001c2 00             3120 	.byte	0
                        3121 
                        3122 .LDW_4d957c8:
000001c3 25             3123 	.byte	37
000001c4 756e7369676e   3124 	.strz	"unsigned int"
000001ca 656420696e74 
000001d0 00 
000001d1 07             3125 	.byte	7
000001d2 04             3126 	.byte	4
                        3127 
                        3128 .LDW_4d95ec8:
000001d3 25             3129 	.byte	37
000001d4 696e7400       3130 	.strz	"int"
000001d8 05             3131 	.byte	5
000001d9 04             3132 	.byte	4
                        3133 
                        3134 .LDW_4d95e90:
000001da 2f             3135 	.byte	47
000001db 00000000*      3136 	.word	.LDW_4c87210
                        3137 
                        3138 	.section	.debug_abbrev
00000042 2f             3139 	.byte	47
00000043 0f             3140 	.byte	15
00000044 00             3141 	.byte	0
00000045 4910           3142 	.byte	73,16
00000047 0000           3143 	.byte	0,0
                        3144 
                        3145 	.section	.debug_info
                        3146 .LDW_4dc5db0:
000001df 3a             3147 	.byte	58
000001e0 00             3148 	.byte	0
000001e1 05             3149 	.byte	5
000001e2 00000000*      3150 	.word	.LDW_49471b0
                        3151 
                        3152 	.section	.debug_abbrev
00000049 3a             3153 	.byte	58
0000004a 01             3154 	.byte	1
0000004b 01             3155 	.byte	1
0000004c 090b           3156 	.byte	9,11
0000004e 0b0f           3157 	.byte	11,15

                                                                      Page 66
                                                              C:\Users\nhuliyap\AppData\Local\Temp\gh_00006oo1.s
00000050 4910           3158 	.byte	73,16
00000052 0000           3159 	.byte	0,0
                        3160 
                        3161 	.section	.debug_info
000001e6 32             3162 	.byte	50
000001e7 00000000*      3163 	.word	.LDW_4d95ec8
000001eb 04             3164 	.byte	4
000001ec 00             3165 	.byte	0
000001ed 04             3166 	.byte	4
                        3167 
                        3168 	.section	.debug_abbrev
00000054 32             3169 	.byte	50
00000055 21             3170 	.byte	33
00000056 00             3171 	.byte	0
00000057 4910           3172 	.byte	73,16
00000059 0b0f           3173 	.byte	11,15
0000005b 220d           3174 	.byte	34,13
0000005d 2f0d           3175 	.byte	47,13
0000005f 0000           3176 	.byte	0,0
                        3177 
                        3178 	.section	.debug_info
000001ee 00             3179 	.byte	0
                        3180 
                        3181 .LDW_4dc5750:
000001ef 3a             3182 	.byte	58
000001f0 00             3183 	.byte	0
000001f1 04             3184 	.byte	4
000001f2 00000000*      3185 	.word	.LDW_4c87210
                        3186 
000001f6 32             3187 	.byte	50
000001f7 00000000*      3188 	.word	.LDW_4d95ec8
000001fb 04             3189 	.byte	4
000001fc 00             3190 	.byte	0
000001fd 03             3191 	.byte	3
                        3192 
000001fe 00             3193 	.byte	0
                        3194 
                        3195 .LDW_4dc5ec0:
000001ff 3a             3196 	.byte	58
00000200 00             3197 	.byte	0
00000201 04             3198 	.byte	4
00000202 00000000*      3199 	.word	.LDW_4c87210
                        3200 
00000206 32             3201 	.byte	50
00000207 00000000*      3202 	.word	.LDW_4d95ec8
0000020b 04             3203 	.byte	4
0000020c 00             3204 	.byte	0
0000020d 03             3205 	.byte	3
                        3206 
0000020e 00             3207 	.byte	0
                        3208 
                        3209 .LDW_4dc50f0:
0000020f 3a             3210 	.byte	58
00000210 00             3211 	.byte	0
00000211 04             3212 	.byte	4
00000212 00000000*      3213 	.word	.LDW_4c87210
                        3214 
00000216 32             3215 	.byte	50
00000217 00000000*      3216 	.word	.LDW_4d95ec8
0000021b 04             3217 	.byte	4
0000021c 00             3218 	.byte	0

                                                                      Page 67
                                                              C:\Users\nhuliyap\AppData\Local\Temp\gh_00006oo1.s
0000021d 03             3219 	.byte	3
                        3220 
0000021e 00             3221 	.byte	0
                        3222 
                        3223 .LDW_4dc5530:
0000021f 3a             3224 	.byte	58
00000220 00             3225 	.byte	0
00000221 06             3226 	.byte	6
00000222 00000000*      3227 	.word	.LDW_4989f00
                        3228 
00000226 32             3229 	.byte	50
00000227 00000000*      3230 	.word	.LDW_4d95ec8
0000022b 04             3231 	.byte	4
0000022c 00             3232 	.byte	0
0000022d 05             3233 	.byte	5
                        3234 
0000022e 00             3235 	.byte	0
                        3236 
                        3237 .LDW_4dcace0:
0000022f 44             3238 	.byte	68
00000230 00000000*      3239 	.word	.LDW_4989f00
00000234 01             3240 	.byte	1
                        3241 
00000235 00             3242 	.byte	0
                        3243 
                        3244 .LDW_4dcc1a8:
00000236 44             3245 	.byte	68
00000237 00000000*      3246 	.word	.LDW_49471b0
0000023b 01             3247 	.byte	1
                        3248 
                        3249 .LDW_4dcb3d8:
0000023c 12             3250 	.byte	18
0000023d 00000000*      3251 	.word	.LDW_49471b0
00000241 00             3252 	.byte	0
                        3253 
00000242 00             3254 	.byte	0
                        3255 
                        3256 .LDW_4dcc138:
00000243 2f             3257 	.byte	47
00000244 00000000*      3258 	.word	.LDW_49471b0
                        3259 
                        3260 .LDW_4dcf218:
00000248 44             3261 	.byte	68
00000249 00000000*      3262 	.word	.LDW_4c87210
0000024d 01             3263 	.byte	1
                        3264 
0000024e 00             3265 	.byte	0
                        3266 
                        3267 .LDW_4dcecd8:
0000024f 44             3268 	.byte	68
00000250 00000000*      3269 	.word	.LDW_4c87210
00000254 01             3270 	.byte	1
                        3271 
00000255 00             3272 	.byte	0
                        3273 
                        3274 .LDW_4dd1718:
00000256 44             3275 	.byte	68
00000257 00000000*      3276 	.word	.LDW_4989f00
0000025b 01             3277 	.byte	1
                        3278 
0000025c 00             3279 	.byte	0

                                                                      Page 68
                                                              C:\Users\nhuliyap\AppData\Local\Temp\gh_00006oo1.s
                        3280 
                        3281 .LDW_4dd22a0:
0000025d 45             3282 	.byte	69
0000025e 01             3283 	.byte	1
                        3284 
                        3285 .LDW_4dd3820:
0000025f 12             3286 	.byte	18
00000260 00000000*      3287 	.word	.LDW_4dc3660
00000264 00             3288 	.byte	0
                        3289 
00000265 00             3290 	.byte	0
                        3291 
                        3292 .LDW_4dd2930:
00000266 44             3293 	.byte	68
00000267 00000000*      3294 	.word	.LDW_4c87210
0000026b 01             3295 	.byte	1
                        3296 
                        3297 .LDW_4dd3640:
0000026c 12             3298 	.byte	18
0000026d 00000000*      3299 	.word	.LDW_4c87210
00000271 00             3300 	.byte	0
                        3301 
00000272 00             3302 	.byte	0
                        3303 
                        3304 .LDW_4dd2700:
00000273 44             3305 	.byte	68
00000274 00000000*      3306 	.word	.LDW_4c87210
00000278 01             3307 	.byte	1
                        3308 
                        3309 .LDW_4dd3580:
00000279 12             3310 	.byte	18
0000027a 00000000*      3311 	.word	.LDW_4c87210
0000027e 00             3312 	.byte	0
                        3313 
0000027f 00             3314 	.byte	0
                        3315 
                        3316 .LDW_4dd8a68:
00000280 44             3317 	.byte	68
00000281 00000000*      3318 	.word	.LDW_4989f00
00000285 01             3319 	.byte	1
                        3320 
                        3321 .LDW_4dd31c0:
00000286 12             3322 	.byte	18
00000287 00000000*      3323 	.word	.LDW_4d32d10
0000028b 00             3324 	.byte	0
                        3325 
0000028c 00             3326 	.byte	0
                        3327 
                        3328 .LDW_4dd8bb8:
0000028d 44             3329 	.byte	68
0000028e 00000000*      3330 	.word	.LDW_4d32d10
00000292 01             3331 	.byte	1
                        3332 
                        3333 .LDW_4dd3010:
00000293 12             3334 	.byte	18
00000294 00000000*      3335 	.word	.LDW_4d32d10
00000298 00             3336 	.byte	0
                        3337 
00000299 00             3338 	.byte	0
                        3339 
                        3340 .LDW_4dd8b80:

                                                                      Page 69
                                                              C:\Users\nhuliyap\AppData\Local\Temp\gh_00006oo1.s
0000029a 44             3341 	.byte	68
0000029b 00000000*      3342 	.word	.LDW_4d32d10
0000029f 01             3343 	.byte	1
                        3344 
                        3345 .LDW_4dd2fe0:
000002a0 12             3346 	.byte	18
000002a1 00000000*      3347 	.word	.LDW_4c87210
000002a5 00             3348 	.byte	0
                        3349 
000002a6 00             3350 	.byte	0
                        3351 
                        3352 .LDW_4dd8020:
000002a7 44             3353 	.byte	68
000002a8 00000000*      3354 	.word	.LDW_4989f00
000002ac 01             3355 	.byte	1
                        3356 
                        3357 .LDW_4ddae88:
000002ad 12             3358 	.byte	18
000002ae 00000000*      3359 	.word	.LDW_4c87210
000002b2 00             3360 	.byte	0
                        3361 
000002b3 00             3362 	.byte	0
                        3363 
                        3364 .LDW_4989f00:
000002b4 28             3365 	.byte	40
000002b5 626f6f6c6561   3366 	.strz	"boolean"
000002bb 6e00 
000002bd 4e             3367 	.byte	78
000002be 49             3368 	.byte	73
000002bf 06             3369 	.byte	6
000002c0 00000000*      3370 	.word	.LDW_49471b0
                        3371 
                        3372 	.section	.debug_abbrev
00000061 28             3373 	.byte	40
00000062 16             3374 	.byte	22
00000063 00             3375 	.byte	0
00000064 0308           3376 	.byte	3,8
00000066 3b0f           3377 	.byte	59,15
00000068 390f           3378 	.byte	57,15
0000006a 3a0f           3379 	.byte	58,15
0000006c 4910           3380 	.byte	73,16
0000006e 0000           3381 	.byte	0,0
                        3382 
                        3383 	.section	.debug_info
                        3384 .LDW_4c87210:
000002c4 28             3385 	.byte	40
000002c5 75696e743800   3386 	.strz	"uint8"
000002cb 50             3387 	.byte	80
000002cc 4b             3388 	.byte	75
000002cd 06             3389 	.byte	6
000002ce 00000000*      3390 	.word	.LDW_49471b0
                        3391 
                        3392 .LDW_4d32d10:
000002d2 28             3393 	.byte	40
000002d3 75696e743136   3394 	.strz	"uint16"
000002d9 00 
000002da 52             3395 	.byte	82
000002db 4a             3396 	.byte	74
000002dc 06             3397 	.byte	6
000002dd 00000000*      3398 	.word	.LDW_4d95bb8
                        3399 

                                                                      Page 70
                                                              C:\Users\nhuliyap\AppData\Local\Temp\gh_00006oo1.s
                        3400 .LDW_4c875e8:
000002e1 2e             3401 	.byte	46
000002e2 54504d534572   3402 	.strz	"TPMSErrorType"
000002e8 726f72547970 
000002ee 6500 
000002f0 16             3403 	.byte	22
000002f1 0e             3404 	.byte	14
000002f2 02             3405 	.byte	2
000002f3 01             3406 	.byte	1
000002f4 01             3407 	.byte	1
                        3408 
                        3409 	.section	.debug_abbrev
00000070 2e             3410 	.byte	46
00000071 04             3411 	.byte	4
00000072 01             3412 	.byte	1
00000073 0308           3413 	.byte	3,8
00000075 3b0f           3414 	.byte	59,15
00000077 390f           3415 	.byte	57,15
00000079 3a0f           3416 	.byte	58,15
0000007b 0b0f           3417 	.byte	11,15
0000007d 320b           3418 	.byte	50,11
0000007f 0000           3419 	.byte	0,0
                        3420 
                        3421 	.section	.debug_info
                        3422 .LDW_4d33210:
000002f5 2d             3423 	.byte	45
000002f6 455f54504d53   3424 	.strz	"E_TPMS_ERROR_WS_LIFE_TIME_FL_CNT_LOW"
000002fc 5f4552524f52 
00000302 5f57535f4c49 
00000308 46455f54494d 
0000030e 455f464c5f43 
00000314 4e545f4c4f57 
0000031a 00 
0000031b 18             3425 	.byte	24
0000031c 03             3426 	.byte	3
0000031d 02             3427 	.byte	2
0000031e 00             3428 	.byte	0
                        3429 
                        3430 	.section	.debug_abbrev
00000081 2d             3431 	.byte	45
00000082 28             3432 	.byte	40
00000083 00             3433 	.byte	0
00000084 0308           3434 	.byte	3,8
00000086 3b0f           3435 	.byte	59,15
00000088 390f           3436 	.byte	57,15
0000008a 3a0f           3437 	.byte	58,15
0000008c 1c0d           3438 	.byte	28,13
0000008e 0000           3439 	.byte	0,0
                        3440 
                        3441 	.section	.debug_info
                        3442 .LDW_4d33250:
0000031f 2d             3443 	.byte	45
00000320 455f54504d53   3444 	.strz	"E_TPMS_ERROR_WS_LIFE_TIME_FR_CNT_LOW"
00000326 5f4552524f52 
0000032c 5f57535f4c49 
00000332 46455f54494d 
00000338 455f46525f43 
0000033e 4e545f4c4f57 
00000344 00 
00000345 19             3445 	.byte	25
00000346 07             3446 	.byte	7

                                                                      Page 71
                                                              C:\Users\nhuliyap\AppData\Local\Temp\gh_00006oo1.s
00000347 02             3447 	.byte	2
00000348 01             3448 	.byte	1
                        3449 
                        3450 .LDW_4d33290:
00000349 2d             3451 	.byte	45
0000034a 455f54504d53   3452 	.strz	"E_TPMS_ERROR_WS_LIFE_TIME_RR_CNT_LOW"
00000350 5f4552524f52 
00000356 5f57535f4c49 
0000035c 46455f54494d 
00000362 455f52525f43 
00000368 4e545f4c4f57 
0000036e 00 
0000036f 1a             3453 	.byte	26
00000370 07             3454 	.byte	7
00000371 02             3455 	.byte	2
00000372 02             3456 	.byte	2
                        3457 
                        3458 .LDW_4d332d0:
00000373 2d             3459 	.byte	45
00000374 455f54504d53   3460 	.strz	"E_TPMS_ERROR_WS_LIFE_TIME_RL_CNT_LOW"
0000037a 5f4552524f52 
00000380 5f57535f4c49 
00000386 46455f54494d 
0000038c 455f524c5f43 
00000392 4e545f4c4f57 
00000398 00 
00000399 1b             3461 	.byte	27
0000039a 07             3462 	.byte	7
0000039b 02             3463 	.byte	2
0000039c 03             3464 	.byte	3
                        3465 
                        3466 .LDW_4d33310:
0000039d 2d             3467 	.byte	45
0000039e 455f54504d53   3468 	.strz	"E_TPMS_ERROR_WS_DEFECT_FL"
000003a4 5f4552524f52 
000003aa 5f57535f4445 
000003b0 464543545f46 
000003b6 4c00 
000003b8 1c             3469 	.byte	28
000003b9 07             3470 	.byte	7
000003ba 02             3471 	.byte	2
000003bb 04             3472 	.byte	4
                        3473 
                        3474 .LDW_4d33350:
000003bc 2d             3475 	.byte	45
000003bd 455f54504d53   3476 	.strz	"E_TPMS_ERROR_WS_DEFECT_FR"
000003c3 5f4552524f52 
000003c9 5f57535f4445 
000003cf 464543545f46 
000003d5 5200 
000003d7 1d             3477 	.byte	29
000003d8 07             3478 	.byte	7
000003d9 02             3479 	.byte	2
000003da 05             3480 	.byte	5
                        3481 
                        3482 .LDW_4d33390:
000003db 2d             3483 	.byte	45
000003dc 455f54504d53   3484 	.strz	"E_TPMS_ERROR_WS_DEFECT_RR"
000003e2 5f4552524f52 
000003e8 5f57535f4445 
000003ee 464543545f52 

                                                                      Page 72
                                                              C:\Users\nhuliyap\AppData\Local\Temp\gh_00006oo1.s
000003f4 5200 
000003f6 1e             3485 	.byte	30
000003f7 07             3486 	.byte	7
000003f8 02             3487 	.byte	2
000003f9 06             3488 	.byte	6
                        3489 
                        3490 .LDW_4d333d0:
000003fa 2d             3491 	.byte	45
000003fb 455f54504d53   3492 	.strz	"E_TPMS_ERROR_WS_DEFECT_RL"
00000401 5f4552524f52 
00000407 5f57535f4445 
0000040d 464543545f52 
00000413 4c00 
00000415 1f             3493 	.byte	31
00000416 07             3494 	.byte	7
00000417 02             3495 	.byte	2
00000418 07             3496 	.byte	7
                        3497 
                        3498 .LDW_4d33410:
00000419 2d             3499 	.byte	45
0000041a 455f54504d53   3500 	.strz	"E_TPMS_ERROR_WS_DEFECT_UNKNOWN_POS"
00000420 5f4552524f52 
00000426 5f57535f4445 
0000042c 464543545f55 
00000432 4e4b4e4f574e 
00000438 5f504f5300 
0000043d 20             3501 	.byte	32
0000043e 07             3502 	.byte	7
0000043f 02             3503 	.byte	2
00000440 08             3504 	.byte	8
                        3505 
                        3506 .LDW_4c60378:
00000441 2d             3507 	.byte	45
00000442 455f54504d53   3508 	.strz	"E_TPMS_ERROR_WS_MISSING_FL"
00000448 5f4552524f52 
0000044e 5f57535f4d49 
00000454 5353494e475f 
0000045a 464c00 
0000045d 21             3509 	.byte	33
0000045e 07             3510 	.byte	7
0000045f 02             3511 	.byte	2
00000460 09             3512 	.byte	9
                        3513 
                        3514 .LDW_4c60738:
00000461 2d             3515 	.byte	45
00000462 455f54504d53   3516 	.strz	"E_TPMS_ERROR_WS_MISSING_FR"
00000468 5f4552524f52 
0000046e 5f57535f4d49 
00000474 5353494e475f 
0000047a 465200 
0000047d 22             3517 	.byte	34
0000047e 07             3518 	.byte	7
0000047f 02             3519 	.byte	2
00000480 0a             3520 	.byte	10
                        3521 
                        3522 .LDW_4c60338:
00000481 2d             3523 	.byte	45
00000482 455f54504d53   3524 	.strz	"E_TPMS_ERROR_WS_MISSING_RR"
00000488 5f4552524f52 
0000048e 5f57535f4d49 
00000494 5353494e475f 

                                                                      Page 73
                                                              C:\Users\nhuliyap\AppData\Local\Temp\gh_00006oo1.s
0000049a 525200 
0000049d 23             3525 	.byte	35
0000049e 07             3526 	.byte	7
0000049f 02             3527 	.byte	2
000004a0 0b             3528 	.byte	11
                        3529 
                        3530 .LDW_4c60178:
000004a1 2d             3531 	.byte	45
000004a2 455f54504d53   3532 	.strz	"E_TPMS_ERROR_WS_MISSING_RL"
000004a8 5f4552524f52 
000004ae 5f57535f4d49 
000004b4 5353494e475f 
000004ba 524c00 
000004bd 24             3533 	.byte	36
000004be 07             3534 	.byte	7
000004bf 02             3535 	.byte	2
000004c0 0c             3536 	.byte	12
                        3537 
                        3538 .LDW_4c60638:
000004c1 2d             3539 	.byte	45
000004c2 455f54504d53   3540 	.strz	"E_TPMS_ERROR_WS_MISSING_UNKNOWN_POS"
000004c8 5f4552524f52 
000004ce 5f57535f4d49 
000004d4 5353494e475f 
000004da 554e4b4e4f57 
000004e0 4e5f504f5300 
000004e6 25             3541 	.byte	37
000004e7 07             3542 	.byte	7
000004e8 02             3543 	.byte	2
000004e9 0d             3544 	.byte	13
                        3545 
                        3546 .LDW_4c602f8:
000004ea 2d             3547 	.byte	45
000004eb 455f54504d53   3548 	.strz	"E_TPMS_ERROR_WS_OVER_TEMP_FL"
000004f1 5f4552524f52 
000004f7 5f57535f4f56 
000004fd 45525f54454d 
00000503 505f464c00 
00000508 26             3549 	.byte	38
00000509 07             3550 	.byte	7
0000050a 02             3551 	.byte	2
0000050b 0e             3552 	.byte	14
                        3553 
                        3554 .LDW_4c601b8:
0000050c 2d             3555 	.byte	45
0000050d 455f54504d53   3556 	.strz	"E_TPMS_ERROR_WS_OVER_TEMP_FR"
00000513 5f4552524f52 
00000519 5f57535f4f56 
0000051f 45525f54454d 
00000525 505f465200 
0000052a 27             3557 	.byte	39
0000052b 07             3558 	.byte	7
0000052c 02             3559 	.byte	2
0000052d 0f             3560 	.byte	15
                        3561 
                        3562 .LDW_4c60478:
0000052e 2d             3563 	.byte	45
0000052f 455f54504d53   3564 	.strz	"E_TPMS_ERROR_WS_OVER_TEMP_RR"
00000535 5f4552524f52 
0000053b 5f57535f4f56 
00000541 45525f54454d 

                                                                      Page 74
                                                              C:\Users\nhuliyap\AppData\Local\Temp\gh_00006oo1.s
00000547 505f525200 
0000054c 28             3565 	.byte	40
0000054d 07             3566 	.byte	7
0000054e 02             3567 	.byte	2
0000054f 10             3568 	.byte	16
                        3569 
                        3570 .LDW_4c60578:
00000550 2d             3571 	.byte	45
00000551 455f54504d53   3572 	.strz	"E_TPMS_ERROR_WS_OVER_TEMP_RL"
00000557 5f4552524f52 
0000055d 5f57535f4f56 
00000563 45525f54454d 
00000569 505f524c00 
0000056e 29             3573 	.byte	41
0000056f 07             3574 	.byte	7
00000570 02             3575 	.byte	2
00000571 11             3576 	.byte	17
                        3577 
                        3578 .LDW_4c606b8:
00000572 2d             3579 	.byte	45
00000573 455f54504d53   3580 	.strz	"E_TPMS_ERROR_AXLE_LOCATE_FAIL"
00000579 5f4552524f52 
0000057f 5f41584c455f 
00000585 4c4f43415445 
0000058b 5f4641494c00 
00000591 2a             3581 	.byte	42
00000592 07             3582 	.byte	7
00000593 02             3583 	.byte	2
00000594 12             3584 	.byte	18
                        3585 
                        3586 .LDW_4c602b8:
00000595 2d             3587 	.byte	45
00000596 455f54504d53   3588 	.strz	"E_TPMS_ERROR_NO_QUALIFIED_SENSOR_SIGNALS"
0000059c 5f4552524f52 
000005a2 5f4e4f5f5155 
000005a8 414c49464945 
000005ae 445f53454e53 
000005b4 4f525f534947 
000005ba 4e414c5300 
000005bf 2b             3589 	.byte	43
000005c0 07             3590 	.byte	7
000005c1 02             3591 	.byte	2
000005c2 13             3592 	.byte	19
                        3593 
                        3594 .LDW_4c606f8:
000005c3 2d             3595 	.byte	45
000005c4 455f54504d53   3596 	.strz	"E_TPMS_ERROR_DETECTED_TOO_MANY_SENSORS"
000005ca 5f4552524f52 
000005d0 5f4445544543 
000005d6 5445445f544f 
000005dc 4f5f4d414e59 
000005e2 5f53454e534f 
000005e8 525300 
000005eb 2c             3597 	.byte	44
000005ec 07             3598 	.byte	7
000005ed 02             3599 	.byte	2
000005ee 14             3600 	.byte	20
                        3601 
                        3602 .LDW_4c60138:
000005ef 2d             3603 	.byte	45
000005f0 455f54504d53   3604 	.strz	"E_TPMS_ERROR_NOT_FUNCTIONING_DUE_TO_ECU_INTERNAL_FAULT"

                                                                      Page 75
                                                              C:\Users\nhuliyap\AppData\Local\Temp\gh_00006oo1.s
000005f6 5f4552524f52 
000005fc 5f4e4f545f46 
00000602 554e4354494f 
00000608 4e494e475f44 
0000060e 55455f544f5f 
00000614 4543555f494e 
0000061a 5445524e414c 
00000620 5f4641554c54 
00000626 00 
00000627 2d             3605 	.byte	45
00000628 07             3606 	.byte	7
00000629 02             3607 	.byte	2
0000062a 15             3608 	.byte	21
                        3609 
                        3610 .LDW_4c600b8:
0000062b 2d             3611 	.byte	45
0000062c 455f54504d53   3612 	.strz	"E_TPMS_ERROR_WS_MISSING_DURING_CONTINUOUS_INVALID_SPEED"
00000632 5f4552524f52 
00000638 5f57535f4d49 
0000063e 5353494e475f 
00000644 445552494e47 
0000064a 5f434f4e5449 
00000650 4e554f55535f 
00000656 494e56414c49 
0000065c 445f53504545 
00000662 4400 
00000664 2e             3613 	.byte	46
00000665 07             3614 	.byte	7
00000666 02             3615 	.byte	2
00000667 16             3616 	.byte	22
                        3617 
                        3618 .LDW_4c605b8:
00000668 2d             3619 	.byte	45
00000669 455f54504d53   3620 	.strz	"E_TPMS_ERROR_RF_INTERFERENCE"
0000066f 5f4552524f52 
00000675 5f52465f494e 
0000067b 544552464552 
00000681 454e434500 
00000686 2f             3621 	.byte	47
00000687 07             3622 	.byte	7
00000688 02             3623 	.byte	2
00000689 17             3624 	.byte	23
                        3625 
                        3626 .LDW_4c604b8:
0000068a 2d             3627 	.byte	45
0000068b 455f54504d53   3628 	.strz	"E_TPMS_ERROR_AUTOLOCATION_FAILED"
00000691 5f4552524f52 
00000697 5f4155544f4c 
0000069d 4f434154494f 
000006a3 4e5f4641494c 
000006a9 454400 
000006ac 30             3629 	.byte	48
000006ad 07             3630 	.byte	7
000006ae 02             3631 	.byte	2
000006af 18             3632 	.byte	24
                        3633 
                        3634 .LDW_4c60078:
000006b0 2d             3635 	.byte	45
000006b1 455f54504d53   3636 	.strz	"E_TPMS_ERROR_MAX_NUMBER"
000006b7 5f4552524f52 
000006bd 5f4d41585f4e 

                                                                      Page 76
                                                              C:\Users\nhuliyap\AppData\Local\Temp\gh_00006oo1.s
000006c3 554d42455200 
000006c9 31             3637 	.byte	49
000006ca 07             3638 	.byte	7
000006cb 02             3639 	.byte	2
000006cc 19             3640 	.byte	25
                        3641 
000006cd 00             3642 	.byte	0
                        3643 
                        3644 .LDW_4d336c0:
000006ce 2e             3645 	.byte	46
000006cf 00             3646 	.byte	0
000006d0 0b             3647 	.byte	11
000006d1 0d             3648 	.byte	13
000006d2 10             3649 	.byte	16
000006d3 01             3650 	.byte	1
000006d4 01             3651 	.byte	1
                        3652 
                        3653 .LDW_4dc1e48:
000006d5 2d             3654 	.byte	45
000006d6 53494c415f53   3655 	.strz	"SILA_STATE_CHECK"
000006dc 544154455f43 
000006e2 4845434b00 
000006e7 0c             3656 	.byte	12
000006e8 03             3657 	.byte	3
000006e9 10             3658 	.byte	16
000006ea 00             3659 	.byte	0
                        3660 
                        3661 .LDW_4dc1bc8:
000006eb 2d             3662 	.byte	45
000006ec 53494c415f53   3663 	.strz	"SILA_STATE_NORMAL_OFF"
000006f2 544154455f4e 
000006f8 4f524d414c5f 
000006fe 4f464600 
00000702 0d             3664 	.byte	13
00000703 07             3665 	.byte	7
00000704 10             3666 	.byte	16
00000705 09             3667 	.byte	9
                        3668 
                        3669 .LDW_4dc1c08:
00000706 2d             3670 	.byte	45
00000707 53494c415f53   3671 	.strz	"SILA_STATE_PERMANENT_ON"
0000070d 544154455f50 
00000713 45524d414e45 
00000719 4e545f4f4e00 
0000071f 0e             3672 	.byte	14
00000720 07             3673 	.byte	7
00000721 10             3674 	.byte	16
00000722 0a             3675 	.byte	10
                        3676 
                        3677 .LDW_4dc1dc8:
00000723 2d             3678 	.byte	45
00000724 53494c415f53   3679 	.strz	"SILA_STATE_MALFUNCTIONFLASH"
0000072a 544154455f4d 
00000730 414c46554e43 
00000736 54494f4e464c 
0000073c 41534800 
00000740 0f             3680 	.byte	15
00000741 07             3681 	.byte	7
00000742 10             3682 	.byte	16
00000743 0b             3683 	.byte	11
                        3684 

                                                                      Page 77
                                                              C:\Users\nhuliyap\AppData\Local\Temp\gh_00006oo1.s
00000744 00             3685 	.byte	0
                        3686 
                        3687 .LDW_4dc3660:
00000745 28             3688 	.byte	40
00000746 7453696c6153   3689 	.strz	"tSilaStateType"
0000074c 746174655479 
00000752 706500 
00000755 10             3690 	.byte	16
00000756 02             3691 	.byte	2
00000757 10             3692 	.byte	16
00000758 00000000*      3693 	.word	.LDW_4d336c0
                        3694 
                        3695 .LDW_4dc7418:
0000075c 05             3696 	.byte	5
0000075d 617563576865   3697 	.strz	"aucWheelPosWarn"
00000763 656c506f7357 
00000769 61726e00 
0000076d 8801           3698 	.byte	136,1
0000076f 16             3699 	.byte	22
00000770 15             3700 	.byte	21
00000771 00000000*      3701 	.word	.LDW_4dc5db0
00000775 01             3702 	.byte	1
00000776 01             3703 	.byte	1
                        3704 
                        3705 	.section	.debug_abbrev
00000090 05             3706 	.byte	5
00000091 34             3707 	.byte	52
00000092 00             3708 	.byte	0
00000093 0308           3709 	.byte	3,8
00000095 3b0f           3710 	.byte	59,15
00000097 390f           3711 	.byte	57,15
00000099 3a0f           3712 	.byte	58,15
0000009b 4910           3713 	.byte	73,16
0000009d 3f0c           3714 	.byte	63,12
0000009f 3c0c           3715 	.byte	60,12
000000a1 0000           3716 	.byte	0,0
                        3717 
                        3718 	.section	.debug_info
                        3719 .LDW_4dc7578:
00000777 04             3720 	.byte	4
00000778 756354797265   3721 	.strz	"ucTyreTemperature"
0000077e 54656d706572 
00000784 617475726500 
0000078a 31             3722 	.byte	49
0000078b 0e             3723 	.byte	14
0000078c 01             3724 	.byte	1
0000078d 00000000*      3725 	.word	.LDW_4dc5750
00000791 00             3726 	.byte	0
00000792 00             3727 	.byte	0
00000793 0503           3728 	.byte	5,3
00000795 00000000*      3729 	.word	_ucTyreTemperature..C.3A.5C_ECU2.5CECU_Rivian_A1.5CTarget.5Crepo_projects.5CpRealEcu.5CcL_R2023.2E09.2E01.5Cmake.5Coutput.5Cobjects.5Cbusmsg.
                        3730 
                        3731 	.section	.debug_abbrev
000000a3 04             3732 	.byte	4
000000a4 34             3733 	.byte	52
000000a5 00             3734 	.byte	0
000000a6 0308           3735 	.byte	3,8
000000a8 3b0f           3736 	.byte	59,15
000000aa 390f           3737 	.byte	57,15
000000ac 3a0f           3738 	.byte	58,15
000000ae 4910           3739 	.byte	73,16

                                                                      Page 78
                                                              C:\Users\nhuliyap\AppData\Local\Temp\gh_00006oo1.s
000000b0 3f0c           3740 	.byte	63,12
000000b2 3c0c           3741 	.byte	60,12
000000b4 020a           3742 	.byte	2,10
000000b6 0000           3743 	.byte	0,0
                        3744 
                        3745 	.section	.debug_info
                        3746 .LDW_4dc7788:
00000799 04             3747 	.byte	4
0000079a 756354797265   3748 	.strz	"ucTyrePressUncomp"
000007a0 507265737355 
000007a6 6e636f6d7000 
000007ac 33             3749 	.byte	51
000007ad 0e             3750 	.byte	14
000007ae 01             3751 	.byte	1
000007af 00000000*      3752 	.word	.LDW_4dc5ec0
000007b3 00             3753 	.byte	0
000007b4 00             3754 	.byte	0
000007b5 0503           3755 	.byte	5,3
000007b7 00000000*      3756 	.word	_ucTyrePressUncomp..C.3A.5C_ECU2.5CECU_Rivian_A1.5CTarget.5Crepo_projects.5CpRealEcu.5CcL_R2023.2E09.2E01.5Cmake.5Coutput.5Cobjects.5Cbusmsg.
                        3757 
                        3758 .LDW_4dc77e0:
000007bb 04             3759 	.byte	4
000007bc 756354797265   3760 	.strz	"ucTyreWarning"
000007c2 5761726e696e 
000007c8 6700 
000007ca 35             3761 	.byte	53
000007cb 0e             3762 	.byte	14
000007cc 01             3763 	.byte	1
000007cd 00000000*      3764 	.word	.LDW_4dc50f0
000007d1 00             3765 	.byte	0
000007d2 00             3766 	.byte	0
000007d3 0503           3767 	.byte	5,3
000007d5 00000000*      3768 	.word	_ucTyreWarning..C.3A.5C_ECU2.5CECU_Rivian_A1.5CTarget.5Crepo_projects.5CpRealEcu.5CcL_R2023.2E09.2E01.5Cmake.5Coutput.5Cobjects.5Cbusmsg.
                        3769 
                        3770 .LDW_4dc7260:
000007d9 04             3771 	.byte	4
000007da 756354797265   3772 	.strz	"ucTyreTemperatureWarning"
000007e0 54656d706572 
000007e6 617475726557 
000007ec 61726e696e67 
000007f2 00 
000007f3 37             3773 	.byte	55
000007f4 0e             3774 	.byte	14
000007f5 01             3775 	.byte	1
000007f6 00000000*      3776 	.word	.LDW_4c87210
000007fa 00             3777 	.byte	0
000007fb 00             3778 	.byte	0
000007fc 0503           3779 	.byte	5,3
000007fe 00000000*      3780 	.word	_ucTyreTemperatureWarning..C.3A.5C_ECU2.5CECU_Rivian_A1.5CTarget.5Crepo_projects.5CpRealEcu.5CcL_R2023.2E09.2E01.5Cmake.5Coutput.5Cobjects.5Cbusmsg.
                        3781 
                        3782 .LDW_4dc7838:
00000802 04             3783 	.byte	4
00000803 625479726556   3784 	.strz	"bTyreValidVL"
00000809 616c6964564c 
0000080f 00 
00000810 39             3785 	.byte	57
00000811 10             3786 	.byte	16
00000812 01             3787 	.byte	1
00000813 00000000*      3788 	.word	.LDW_4989f00
00000817 00             3789 	.byte	0
00000818 00             3790 	.byte	0

                                                                      Page 79
                                                              C:\Users\nhuliyap\AppData\Local\Temp\gh_00006oo1.s
00000819 0503           3791 	.byte	5,3
0000081b 00000000*      3792 	.word	_bTyreValidVL..C.3A.5C_ECU2.5CECU_Rivian_A1.5CTarget.5Crepo_projects.5CpRealEcu.5CcL_R2023.2E09.2E01.5Cmake.5Coutput.5Cobjects.5Cbusmsg.
                        3793 
                        3794 .LDW_4dc7680:
0000081f 04             3795 	.byte	4
00000820 625479726556   3796 	.strz	"bTyreValidVR"
00000826 616c69645652 
0000082c 00 
0000082d 3b             3797 	.byte	59
0000082e 10             3798 	.byte	16
0000082f 01             3799 	.byte	1
00000830 00000000*      3800 	.word	.LDW_4989f00
00000834 00             3801 	.byte	0
00000835 00             3802 	.byte	0
00000836 0503           3803 	.byte	5,3
00000838 00000000*      3804 	.word	_bTyreValidVR..C.3A.5C_ECU2.5CECU_Rivian_A1.5CTarget.5Crepo_projects.5CpRealEcu.5CcL_R2023.2E09.2E01.5Cmake.5Coutput.5Cobjects.5Cbusmsg.
                        3805 
                        3806 .LDW_4dc76d8:
0000083c 04             3807 	.byte	4
0000083d 625479726556   3808 	.strz	"bTyreValidHL"
00000843 616c6964484c 
00000849 00 
0000084a 3d             3809 	.byte	61
0000084b 10             3810 	.byte	16
0000084c 01             3811 	.byte	1
0000084d 00000000*      3812 	.word	.LDW_4989f00
00000851 00             3813 	.byte	0
00000852 00             3814 	.byte	0
00000853 0503           3815 	.byte	5,3
00000855 00000000*      3816 	.word	_bTyreValidHL..C.3A.5C_ECU2.5CECU_Rivian_A1.5CTarget.5Crepo_projects.5CpRealEcu.5CcL_R2023.2E09.2E01.5Cmake.5Coutput.5Cobjects.5Cbusmsg.
                        3817 
                        3818 .LDW_4dc7470:
00000859 04             3819 	.byte	4
0000085a 625479726556   3820 	.strz	"bTyreValidHR"
00000860 616c69644852 
00000866 00 
00000867 3f             3821 	.byte	63
00000868 10             3822 	.byte	16
00000869 01             3823 	.byte	1
0000086a 00000000*      3824 	.word	.LDW_4989f00
0000086e 00             3825 	.byte	0
0000086f 00             3826 	.byte	0
00000870 0503           3827 	.byte	5,3
00000872 00000000*      3828 	.word	_bTyreValidHR..C.3A.5C_ECU2.5CECU_Rivian_A1.5CTarget.5Crepo_projects.5CpRealEcu.5CcL_R2023.2E09.2E01.5Cmake.5Coutput.5Cobjects.5Cbusmsg.
                        3829 
                        3830 .LDW_4dc7310:
00000876 04             3831 	.byte	4
00000877 625465787446   3832 	.strz	"bTextFlags"
0000087d 6c61677300 
00000882 41             3833 	.byte	65
00000883 10             3834 	.byte	16
00000884 01             3835 	.byte	1
00000885 00000000*      3836 	.word	.LDW_4dc5530
00000889 00             3837 	.byte	0
0000088a 00             3838 	.byte	0
0000088b 0503           3839 	.byte	5,3
0000088d 00000000*      3840 	.word	_bTextFlags..C.3A.5C_ECU2.5CECU_Rivian_A1.5CTarget.5Crepo_projects.5CpRealEcu.5CcL_R2023.2E09.2E01.5Cmake.5Coutput.5Cobjects.5Cbusmsg.
                        3841 
                        3842 .LDW_4dca358:
00000891 16             3843 	.byte	22
00000892 476574537973   3844 	.strz	"GetSystem_DefectECUState"

                                                                      Page 80
                                                              C:\Users\nhuliyap\AppData\Local\Temp\gh_00006oo1.s
00000898 74656d5f4465 
0000089e 666563744543 
000008a4 555374617465 
000008aa 00 
000008ab 54             3845 	.byte	84
000008ac 10             3846 	.byte	16
000008ad 0a             3847 	.byte	10
000008ae 00000000*      3848 	.word	.LDW_4989f00
000008b2 01             3849 	.byte	1
000008b3 00             3850 	.byte	0
000008b4 01             3851 	.byte	1
000008b5 01             3852 	.byte	1
000008b6 00             3853 	.byte	0
000008b7 01             3854 	.byte	1
                        3855 
                        3856 	.section	.debug_abbrev
000000b8 16             3857 	.byte	22
000000b9 2e             3858 	.byte	46
000000ba 01             3859 	.byte	1
000000bb 0308           3860 	.byte	3,8
000000bd 3b0f           3861 	.byte	59,15
000000bf 390f           3862 	.byte	57,15
000000c1 3a0f           3863 	.byte	58,15
000000c3 4910           3864 	.byte	73,16
000000c5 3c0c           3865 	.byte	60,12
000000c7 200b           3866 	.byte	32,11
000000c9 3f0c           3867 	.byte	63,12
000000cb 320b           3868 	.byte	50,11
000000cd 4c0b           3869 	.byte	76,11
000000cf 270c           3870 	.byte	39,12
000000d1 0000           3871 	.byte	0,0
                        3872 
                        3873 	.section	.debug_info
000008b8 00             3874 	.byte	0
                        3875 
                        3876 .LDW_4dcdc58:
000008b9 16             3877 	.byte	22
000008ba 756347657449   3878 	.strz	"ucGetIndexOfHistoryWP"
000008c0 6e6465784f66 
000008c6 486973746f72 
000008cc 79575000 
000008d0 aa01           3879 	.byte	170,1
000008d2 16             3880 	.byte	22
000008d3 0d             3881 	.byte	13
000008d4 00000000*      3882 	.word	.LDW_49471b0
000008d8 01             3883 	.byte	1
000008d9 00             3884 	.byte	0
000008da 01             3885 	.byte	1
000008db 01             3886 	.byte	1
000008dc 00             3887 	.byte	0
000008dd 01             3888 	.byte	1
                        3889 
000008de 00             3890 	.byte	0
                        3891 
                        3892 .LDW_4dcd668:
000008df 16             3893 	.byte	22
000008e0 474554756352   3894 	.strz	"GETucReErrorStatusEE"
000008e6 654572726f72 
000008ec 537461747573 
000008f2 454500 
000008f5 71             3895 	.byte	113

                                                                      Page 81
                                                              C:\Users\nhuliyap\AppData\Local\Temp\gh_00006oo1.s
000008f6 10             3896 	.byte	16
000008f7 0c             3897 	.byte	12
000008f8 00000000*      3898 	.word	.LDW_4c87210
000008fc 01             3899 	.byte	1
000008fd 00             3900 	.byte	0
000008fe 01             3901 	.byte	1
000008ff 01             3902 	.byte	1
00000900 00             3903 	.byte	0
00000901 01             3904 	.byte	1
                        3905 
00000902 00             3906 	.byte	0
                        3907 
                        3908 .LDW_4dcd9f8:
00000903 16             3909 	.byte	22
00000904 474554756352   3910 	.strz	"GETucReHeatUpStatusEE"
0000090a 654865617455 
00000910 705374617475 
00000916 73454500 
0000091a 73             3911 	.byte	115
0000091b 10             3912 	.byte	16
0000091c 0c             3913 	.byte	12
0000091d 00000000*      3914 	.word	.LDW_4c87210
00000921 01             3915 	.byte	1
00000922 00             3916 	.byte	0
00000923 01             3917 	.byte	1
00000924 01             3918 	.byte	1
00000925 00             3919 	.byte	0
00000926 01             3920 	.byte	1
                        3921 
00000927 00             3922 	.byte	0
                        3923 
                        3924 .LDW_4dcff80:
00000928 16             3925 	.byte	22
00000929 474554624866   3926 	.strz	"GETbHfIntLatchEE"
0000092f 496e744c6174 
00000935 6368454500 
0000093a 7e             3927 	.byte	126
0000093b 10             3928 	.byte	16
0000093c 0c             3929 	.byte	12
0000093d 00000000*      3930 	.word	.LDW_4989f00
00000941 01             3931 	.byte	1
00000942 00             3932 	.byte	0
00000943 01             3933 	.byte	1
00000944 01             3934 	.byte	1
00000945 00             3935 	.byte	0
00000946 01             3936 	.byte	1
                        3937 
00000947 00             3938 	.byte	0
                        3939 
                        3940 .LDW_4dd3e20:
00000948 15             3941 	.byte	21
00000949 53696c615075   3942 	.strz	"SilaPutState"
0000094f 745374617465 
00000955 00 
00000956 14             3943 	.byte	20
00000957 0e             3944 	.byte	14
00000958 10             3945 	.byte	16
00000959 01             3946 	.byte	1
0000095a 00             3947 	.byte	0
0000095b 01             3948 	.byte	1
0000095c 01             3949 	.byte	1

                                                                      Page 82
                                                              C:\Users\nhuliyap\AppData\Local\Temp\gh_00006oo1.s
0000095d 00             3950 	.byte	0
0000095e 01             3951 	.byte	1
                        3952 
                        3953 	.section	.debug_abbrev
000000d3 15             3954 	.byte	21
000000d4 2e             3955 	.byte	46
000000d5 01             3956 	.byte	1
000000d6 0308           3957 	.byte	3,8
000000d8 3b0f           3958 	.byte	59,15
000000da 390f           3959 	.byte	57,15
000000dc 3a0f           3960 	.byte	58,15
000000de 3c0c           3961 	.byte	60,12
000000e0 200b           3962 	.byte	32,11
000000e2 3f0c           3963 	.byte	63,12
000000e4 320b           3964 	.byte	50,11
000000e6 4c0b           3965 	.byte	76,11
000000e8 270c           3966 	.byte	39,12
000000ea 0000           3967 	.byte	0,0
                        3968 
                        3969 	.section	.debug_info
0000095f 00             3970 	.byte	0
                        3971 
                        3972 .LDW_4dd4540:
00000960 16             3973 	.byte	22
00000961 756347657456   3974 	.strz	"ucGetValidTyrePressureRelAtPosPD"
00000967 616c69645479 
0000096d 726550726573 
00000973 737572655265 
00000979 6c4174506f73 
0000097f 504400 
00000982 49             3975 	.byte	73
00000983 0e             3976 	.byte	14
00000984 11             3977 	.byte	17
00000985 00000000*      3978 	.word	.LDW_4c87210
00000989 01             3979 	.byte	1
0000098a 00             3980 	.byte	0
0000098b 01             3981 	.byte	1
0000098c 01             3982 	.byte	1
0000098d 00             3983 	.byte	0
0000098e 01             3984 	.byte	1
                        3985 
0000098f 00             3986 	.byte	0
                        3987 
                        3988 .LDW_4dd47a0:
00000990 16             3989 	.byte	22
00000991 756347657456   3990 	.strz	"ucGetValidTemperatureRelAtPosPD"
00000997 616c69645465 
0000099d 6d7065726174 
000009a3 75726552656c 
000009a9 4174506f7350 
000009af 4400 
000009b1 4a             3991 	.byte	74
000009b2 0e             3992 	.byte	14
000009b3 11             3993 	.byte	17
000009b4 00000000*      3994 	.word	.LDW_4c87210
000009b8 01             3995 	.byte	1
000009b9 00             3996 	.byte	0
000009ba 01             3997 	.byte	1
000009bb 01             3998 	.byte	1
000009bc 00             3999 	.byte	0
000009bd 01             4000 	.byte	1

                                                                      Page 83
                                                              C:\Users\nhuliyap\AppData\Local\Temp\gh_00006oo1.s
                        4001 
000009be 00             4002 	.byte	0
                        4003 
                        4004 .LDW_4dd78e0:
000009bf 16             4005 	.byte	22
000009c0 624765744269   4006 	.strz	"bGetBitBetriebszustandBZ"
000009c6 744265747269 
000009cc 6562737a7573 
000009d2 74616e64425a 
000009d8 00 
000009d9 27             4007 	.byte	39
000009da 10             4008 	.byte	16
000009db 17             4009 	.byte	23
000009dc 00000000*      4010 	.word	.LDW_4989f00
000009e0 01             4011 	.byte	1
000009e1 00             4012 	.byte	0
000009e2 01             4013 	.byte	1
000009e3 01             4014 	.byte	1
000009e4 00             4015 	.byte	0
000009e5 01             4016 	.byte	1
                        4017 
000009e6 00             4018 	.byte	0
                        4019 
                        4020 .LDW_4dd7a10:
000009e7 16             4021 	.byte	22
000009e8 757368476574   4022 	.strz	"ushGetBetriebszustandBZ"
000009ee 426574726965 
000009f4 62737a757374 
000009fa 616e64425a00 
00000a00 28             4023 	.byte	40
00000a01 0f             4024 	.byte	15
00000a02 17             4025 	.byte	23
00000a03 00000000*      4026 	.word	.LDW_4d32d10
00000a07 01             4027 	.byte	1
00000a08 00             4028 	.byte	0
00000a09 01             4029 	.byte	1
00000a0a 01             4030 	.byte	1
00000a0b 00             4031 	.byte	0
00000a0c 01             4032 	.byte	1
                        4033 
00000a0d 00             4034 	.byte	0
                        4035 
                        4036 .LDW_4dd7128:
00000a0e 16             4037 	.byte	22
00000a0f 474554757346   4038 	.strz	"GETusFolgeAusfallCntSTATISTICS"
00000a15 6f6c67654175 
00000a1b 7366616c6c43 
00000a21 6e7453544154 
00000a27 495354494353 
00000a2d 00 
00000a2e 09             4039 	.byte	9
00000a2f 0f             4040 	.byte	15
00000a30 18             4041 	.byte	24
00000a31 00000000*      4042 	.word	.LDW_4d32d10
00000a35 01             4043 	.byte	1
00000a36 00             4044 	.byte	0
00000a37 01             4045 	.byte	1
00000a38 01             4046 	.byte	1
00000a39 00             4047 	.byte	0
00000a3a 01             4048 	.byte	1
                        4049 

                                                                      Page 84
                                                              C:\Users\nhuliyap\AppData\Local\Temp\gh_00006oo1.s
00000a3b 00             4050 	.byte	0
                        4051 
                        4052 .LDW_4dda008:
00000a3c 16             4053 	.byte	22
00000a3d 4454435f4765   4054 	.strz	"DTC_GetActiveStatusOfDTC"
00000a43 744163746976 
00000a49 655374617475 
00000a4f 734f66445443 
00000a55 00 
00000a56 77             4055 	.byte	119
00000a57 10             4056 	.byte	16
00000a58 1a             4057 	.byte	26
00000a59 00000000*      4058 	.word	.LDW_4989f00
00000a5d 01             4059 	.byte	1
00000a5e 00             4060 	.byte	0
00000a5f 01             4061 	.byte	1
00000a60 01             4062 	.byte	1
00000a61 00             4063 	.byte	0
00000a62 01             4064 	.byte	1
                        4065 
00000a63 00             4066 	.byte	0
                        4067 
                        4068 .LDW_4c87178:
00000a64 13             4069 	.byte	19
00000a65 4275734d7367   4070 	.strz	"BusMsgInit"
00000a6b 496e697400 
00000a70 51             4071 	.byte	81
00000a71 06             4072 	.byte	6
00000a72 01             4073 	.byte	1
00000a73 00000000*      4074 	.word	_BusMsgInit
00000a77 00000000*      4075 	.word	___ghs_eofn_BusMsgInit
00000a7b 0153           4076 	.byte	1,83
00000a7d 02             4077 	.byte	2
00000a7e 00             4078 	.byte	0
00000a7f 02             4079 	.byte	2
00000a80 00             4080 	.byte	0
00000a81 00             4081 	.byte	0
00000a82 00             4082 	.byte	0
00000a83 00             4083 	.byte	0
00000a84 01             4084 	.byte	1
00000a85 01             4085 	.byte	1
00000a86 00             4086 	.byte	0
00000a87 01             4087 	.byte	1
                        4088 
                        4089 	.section	.debug_abbrev
000000ec 13             4090 	.byte	19
000000ed 2e             4091 	.byte	46
000000ee 01             4092 	.byte	1
000000ef 0308           4093 	.byte	3,8
000000f1 3b0f           4094 	.byte	59,15
000000f3 390f           4095 	.byte	57,15
000000f5 3a0f           4096 	.byte	58,15
000000f7 1101           4097 	.byte	17,1
000000f9 1201           4098 	.byte	18,1
000000fb 400a           4099 	.byte	64,10
000000fd 8341           4100 	.byte	131,65
000000ff 0f             4101 	.byte	15
00000100 8741           4102 	.byte	135,65
00000102 0d             4103 	.byte	13
00000103 8541           4104 	.byte	133,65
00000105 0f             4105 	.byte	15

                                                                      Page 85
                                                              C:\Users\nhuliyap\AppData\Local\Temp\gh_00006oo1.s
00000106 8641           4106 	.byte	134,65
00000108 0d             4107 	.byte	13
00000109 9241           4108 	.byte	146,65
0000010b 0f             4109 	.byte	15
0000010c 3c0c           4110 	.byte	60,12
0000010e 200b           4111 	.byte	32,11
00000110 3f0c           4112 	.byte	63,12
00000112 320b           4113 	.byte	50,11
00000114 4c0b           4114 	.byte	76,11
00000116 270c           4115 	.byte	39,12
00000118 0000           4116 	.byte	0,0
                        4117 
                        4118 	.section	.debug_frame
                        4119 .LDW_4dc1848:
00000090 00000000*      4120 	.word	.LDW_unq_4-.LDW_unq_3
                        4121 .LDW_unq_3:
00000094 00000000*      4122 	.word	.LDW_4d5e980
00000098 00000000*      4123 	.word	_BusMsgInit
0000009c 00000000*      4124 	.word	___ghs_eofn_BusMsgInit-_BusMsgInit
000000a0 01             4125 	.byte	1
000000a1 00000000*      4126 	.word	.LDW11
000000a5 00             4127 	.byte	0
000000a6 00             4128 	.byte	0
000000a7 00             4129 	.byte	0
                        4130 .LDW_unq_4:
                        4131 	.section	.debug_line
0000045b 000502         4132 	.byte	0,5,2
0000045e 00000000*      4133 	.word	_BusMsgInit
00000462 06             4134 	.byte	6
00000463 03             4135 	.byte	3
00000464 d300           4136 	.byte	211,0
00000466 02             4137 	.byte	2
00000467 00             4138 	.byte	0
00000468 01             4139 	.byte	1
00000469 02             4140 	.byte	2
0000046a 02             4141 	.byte	2
0000046b 000502         4142 	.byte	0,5,2
0000046e 00000000*      4143 	.word	.LDWlin1
00000472 0c             4144 	.byte	12
00000473 03             4145 	.byte	3
00000474 7e             4146 	.byte	126
00000475 02             4147 	.byte	2
00000476 06             4148 	.byte	6
00000477 01             4149 	.byte	1
00000478 1d             4150 	.byte	29
00000479 13             4151 	.byte	19
0000047a 000502         4152 	.byte	0,5,2
0000047d 00000000*      4153 	.word	.LDWlin2
00000481 0b             4154 	.byte	11
00000482 0c             4155 	.byte	12
00000483 23             4156 	.byte	35
00000484 13             4157 	.byte	19
00000485 13             4158 	.byte	19
00000486 14             4159 	.byte	20
00000487 14             4160 	.byte	20
00000488 02             4161 	.byte	2
00000489 02             4162 	.byte	2
0000048a 0c             4163 	.byte	12
0000048b 03             4164 	.byte	3
0000048c 7e             4165 	.byte	126
0000048d 02             4166 	.byte	2

                                                                      Page 86
                                                              C:\Users\nhuliyap\AppData\Local\Temp\gh_00006oo1.s
0000048e 04             4167 	.byte	4
0000048f 01             4168 	.byte	1
00000490 000502         4169 	.byte	0,5,2
00000493 00000000*      4170 	.word	.LDWlin3
00000497 0d             4171 	.byte	13
00000498 0b             4172 	.byte	11
00000499 02             4173 	.byte	2
0000049a 02             4174 	.byte	2
0000049b 000101         4175 	.byte	0,1,1
                        4176 	.section	.debug_info
                        4177 .LDW_498e460:
00000a88 1d             4178 	.byte	29
00000a89 00000000*      4179 	.word	.LDW01
00000a8d 00000000*      4180 	.word	.LDW11
                        4181 
                        4182 	.section	.debug_abbrev
0000011a 1d             4183 	.byte	29
0000011b 0b             4184 	.byte	11
0000011c 01             4185 	.byte	1
0000011d 1101           4186 	.byte	17,1
0000011f 1201           4187 	.byte	18,1
00000121 0000           4188 	.byte	0,0
                        4189 
                        4190 	.section	.debug_info
                        4191 .LDW_4c87268:
00000a91 04             4192 	.byte	4
00000a92 6900           4193 	.strz	"i"
00000a94 52             4194 	.byte	82
00000a95 09             4195 	.byte	9
00000a96 01             4196 	.byte	1
00000a97 00000000*      4197 	.word	.LDW_4c87210
00000a9b 00             4198 	.byte	0
00000a9c 00             4199 	.byte	0
00000a9d 0161           4200 	.byte	1,97
                        4201 
00000a9f 00             4202 	.byte	0
                        4203 
00000aa0 00             4204 	.byte	0
                        4205 
                        4206 .LDW_4c872c0:
00000aa1 13             4207 	.byte	19
00000aa2 4275734d7367   4208 	.strz	"BusMsgClr"
00000aa8 436c7200 
00000aac 68             4209 	.byte	104
00000aad 06             4210 	.byte	6
00000aae 01             4211 	.byte	1
00000aaf 00000000*      4212 	.word	_BusMsgClr
00000ab3 00000000*      4213 	.word	___ghs_eofn_BusMsgClr
00000ab7 0153           4214 	.byte	1,83
00000ab9 02             4215 	.byte	2
00000aba 00             4216 	.byte	0
00000abb 02             4217 	.byte	2
00000abc 00             4218 	.byte	0
00000abd 00             4219 	.byte	0
00000abe 00             4220 	.byte	0
00000abf 00             4221 	.byte	0
00000ac0 01             4222 	.byte	1
00000ac1 01             4223 	.byte	1
00000ac2 00             4224 	.byte	0
00000ac3 01             4225 	.byte	1
                        4226 

                                                                      Page 87
                                                              C:\Users\nhuliyap\AppData\Local\Temp\gh_00006oo1.s
                        4227 	.section	.debug_frame
                        4228 .LDW_4dc1988:
000000a8 00000000*      4229 	.word	.LDW_unq_6-.LDW_unq_5
                        4230 .LDW_unq_5:
000000ac 00000000*      4231 	.word	.LDW_4d5e980
000000b0 00000000*      4232 	.word	_BusMsgClr
000000b4 00000000*      4233 	.word	___ghs_eofn_BusMsgClr-_BusMsgClr
000000b8 01             4234 	.byte	1
000000b9 00000000*      4235 	.word	.LDW31
000000bd 00             4236 	.byte	0
000000be 00             4237 	.byte	0
000000bf 00             4238 	.byte	0
                        4239 .LDW_unq_6:
                        4240 	.section	.debug_line
0000049e 000502         4241 	.byte	0,5,2
000004a1 00000000*      4242 	.word	_BusMsgClr
000004a5 06             4243 	.byte	6
000004a6 03             4244 	.byte	3
000004a7 ea00           4245 	.byte	234,0
000004a9 02             4246 	.byte	2
000004aa 00             4247 	.byte	0
000004ab 01             4248 	.byte	1
000004ac 02             4249 	.byte	2
000004ad 02             4250 	.byte	2
000004ae 000502         4251 	.byte	0,5,2
000004b1 00000000*      4252 	.word	.LDWlin4
000004b5 0c             4253 	.byte	12
000004b6 03             4254 	.byte	3
000004b7 7e             4255 	.byte	126
000004b8 02             4256 	.byte	2
000004b9 06             4257 	.byte	6
000004ba 01             4258 	.byte	1
000004bb 1d             4259 	.byte	29
000004bc 000502         4260 	.byte	0,5,2
000004bf 00000000*      4261 	.word	.LDWlin5
000004c3 0b             4262 	.byte	11
000004c4 0c             4263 	.byte	12
000004c5 23             4264 	.byte	35
000004c6 13             4265 	.byte	19
000004c7 13             4266 	.byte	19
000004c8 14             4267 	.byte	20
000004c9 02             4268 	.byte	2
000004ca 02             4269 	.byte	2
000004cb 0c             4270 	.byte	12
000004cc 03             4271 	.byte	3
000004cd 7e             4272 	.byte	126
000004ce 02             4273 	.byte	2
000004cf 04             4274 	.byte	4
000004d0 01             4275 	.byte	1
000004d1 000502         4276 	.byte	0,5,2
000004d4 00000000*      4277 	.word	.LDWlin6
000004d8 0d             4278 	.byte	13
000004d9 0c             4279 	.byte	12
000004da 02             4280 	.byte	2
000004db 06             4281 	.byte	6
000004dc 000101         4282 	.byte	0,1,1
                        4283 	.section	.debug_info
                        4284 .LDW_498e850:
00000ac4 1d             4285 	.byte	29
00000ac5 00000000*      4286 	.word	.LDW21
00000ac9 00000000*      4287 	.word	.LDW31

                                                                      Page 88
                                                              C:\Users\nhuliyap\AppData\Local\Temp\gh_00006oo1.s
                        4288 
                        4289 .LDW_4c87358:
00000acd 04             4290 	.byte	4
00000ace 6900           4291 	.strz	"i"
00000ad0 69             4292 	.byte	105
00000ad1 09             4293 	.byte	9
00000ad2 01             4294 	.byte	1
00000ad3 00000000*      4295 	.word	.LDW_4c87210
00000ad7 00             4296 	.byte	0
00000ad8 00             4297 	.byte	0
00000ad9 0161           4298 	.byte	1,97
                        4299 
00000adb 00             4300 	.byte	0
                        4301 
00000adc 00             4302 	.byte	0
                        4303 
                        4304 .LDW_4c873b0:
00000add 13             4305 	.byte	19
00000ade 4275734d7367   4306 	.strz	"BusMsgTemperatureClear"
00000ae4 54656d706572 
00000aea 617475726543 
00000af0 6c65617200 
00000af5 7e             4307 	.byte	126
00000af6 06             4308 	.byte	6
00000af7 01             4309 	.byte	1
00000af8 00000000*      4310 	.word	_BusMsgTemperatureClear
00000afc 00000000*      4311 	.word	___ghs_eofn_BusMsgTemperatureClear
00000b00 0153           4312 	.byte	1,83
00000b02 02             4313 	.byte	2
00000b03 00             4314 	.byte	0
00000b04 02             4315 	.byte	2
00000b05 00             4316 	.byte	0
00000b06 00             4317 	.byte	0
00000b07 00             4318 	.byte	0
00000b08 00             4319 	.byte	0
00000b09 01             4320 	.byte	1
00000b0a 01             4321 	.byte	1
00000b0b 00             4322 	.byte	0
00000b0c 01             4323 	.byte	1
                        4324 
                        4325 	.section	.debug_frame
                        4326 .LDW_4dc16c8:
000000c0 00000000*      4327 	.word	.LDW_unq_8-.LDW_unq_7
                        4328 .LDW_unq_7:
000000c4 00000000*      4329 	.word	.LDW_4d5e980
000000c8 00000000*      4330 	.word	_BusMsgTemperatureClear
000000cc 00000000*      4331 	.word	___ghs_eofn_BusMsgTemperatureClear-_BusMsgTemperatureClear
000000d0 01             4332 	.byte	1
000000d1 00000000*      4333 	.word	.LDW51
000000d5 00             4334 	.byte	0
000000d6 00             4335 	.byte	0
000000d7 00             4336 	.byte	0
                        4337 .LDW_unq_8:
                        4338 	.section	.debug_line
000004df 000502         4339 	.byte	0,5,2
000004e2 00000000*      4340 	.word	_BusMsgTemperatureClear
000004e6 06             4341 	.byte	6
000004e7 03             4342 	.byte	3
000004e8 8001           4343 	.byte	128,1
000004ea 02             4344 	.byte	2
000004eb 00             4345 	.byte	0

                                                                      Page 89
                                                              C:\Users\nhuliyap\AppData\Local\Temp\gh_00006oo1.s
000004ec 01             4346 	.byte	1
000004ed 02             4347 	.byte	2
000004ee 02             4348 	.byte	2
000004ef 000502         4349 	.byte	0,5,2
000004f2 00000000*      4350 	.word	.LDWlin7
000004f6 0c             4351 	.byte	12
000004f7 03             4352 	.byte	3
000004f8 7e             4353 	.byte	126
000004f9 02             4354 	.byte	2
000004fa 06             4355 	.byte	6
000004fb 01             4356 	.byte	1
000004fc 25             4357 	.byte	37
000004fd 0c             4358 	.byte	12
000004fe 000502         4359 	.byte	0,5,2
00000501 00000000*      4360 	.word	.LDWlin8
00000505 0c             4361 	.byte	12
00000506 03             4362 	.byte	3
00000507 7e             4363 	.byte	126
00000508 02             4364 	.byte	2
00000509 04             4365 	.byte	4
0000050a 01             4366 	.byte	1
0000050b 000502         4367 	.byte	0,5,2
0000050e 00000000*      4368 	.word	.LDWlin9
00000512 0d             4369 	.byte	13
00000513 0b             4370 	.byte	11
00000514 02             4371 	.byte	2
00000515 02             4372 	.byte	2
00000516 000101         4373 	.byte	0,1,1
                        4374 	.section	.debug_info
                        4375 .LDW_498e880:
00000b0d 1d             4376 	.byte	29
00000b0e 00000000*      4377 	.word	.LDW41
00000b12 00000000*      4378 	.word	.LDW51
                        4379 
                        4380 .LDW_4c87448:
00000b16 04             4381 	.byte	4
00000b17 55385f436f75   4382 	.strz	"U8_Counter"
00000b1d 6e74657200 
00000b22 7f             4383 	.byte	127
00000b23 09             4384 	.byte	9
00000b24 01             4385 	.byte	1
00000b25 00000000*      4386 	.word	.LDW_4c87210
00000b29 00             4387 	.byte	0
00000b2a 00             4388 	.byte	0
00000b2b 0161           4389 	.byte	1,97
                        4390 
00000b2d 00             4391 	.byte	0
                        4392 
00000b2e 00             4393 	.byte	0
                        4394 
                        4395 .LDW_4c874a0:
00000b2f 13             4396 	.byte	19
00000b30 4275734d7367   4397 	.strz	"BusMsgPutTemperature"
00000b36 50757454656d 
00000b3c 706572617475 
00000b42 726500 
00000b45 8c01           4398 	.byte	140,1
00000b47 06             4399 	.byte	6
00000b48 01             4400 	.byte	1
00000b49 00000000*      4401 	.word	_BusMsgPutTemperature
00000b4d 00000000*      4402 	.word	___ghs_eofn_BusMsgPutTemperature

                                                                      Page 90
                                                              C:\Users\nhuliyap\AppData\Local\Temp\gh_00006oo1.s
00000b51 0153           4403 	.byte	1,83
00000b53 02             4404 	.byte	2
00000b54 00             4405 	.byte	0
00000b55 02             4406 	.byte	2
00000b56 00             4407 	.byte	0
00000b57 00             4408 	.byte	0
00000b58 00             4409 	.byte	0
00000b59 00             4410 	.byte	0
00000b5a 01             4411 	.byte	1
00000b5b 01             4412 	.byte	1
00000b5c 00             4413 	.byte	0
00000b5d 01             4414 	.byte	1
                        4415 
                        4416 	.section	.debug_frame
                        4417 .LDW_4dc1208:
000000d8 00000000*      4418 	.word	.LDW_unq_a-.LDW_unq_9
                        4419 .LDW_unq_9:
000000dc 00000000*      4420 	.word	.LDW_4d5e980
000000e0 00000000*      4421 	.word	_BusMsgPutTemperature
000000e4 00000000*      4422 	.word	___ghs_eofn_BusMsgPutTemperature-_BusMsgPutTemperature
000000e8 01             4423 	.byte	1
000000e9 00000000*      4424 	.word	.LDW71
000000ed 00             4425 	.byte	0
000000ee 00             4426 	.byte	0
000000ef 00             4427 	.byte	0
                        4428 .LDW_unq_a:
                        4429 	.section	.debug_line
00000519 000502         4430 	.byte	0,5,2
0000051c 00000000*      4431 	.word	_BusMsgPutTemperature
00000520 03             4432 	.byte	3
00000521 8c01           4433 	.byte	140,1
00000523 02             4434 	.byte	2
00000524 00             4435 	.byte	0
00000525 01             4436 	.byte	1
00000526 06             4437 	.byte	6
00000527 14             4438 	.byte	20
00000528 000502         4439 	.byte	0,5,2
0000052b 00000000*      4440 	.word	.LDWlin10
0000052f 0b             4441 	.byte	11
00000530 0b             4442 	.byte	11
00000531 000502         4443 	.byte	0,5,2
00000534 00000000*      4444 	.word	.LDWlin11
00000538 0b             4445 	.byte	11
00000539 02             4446 	.byte	2
0000053a 00             4447 	.byte	0
0000053b 0b             4448 	.byte	11
0000053c 02             4449 	.byte	2
0000053d 02             4450 	.byte	2
0000053e 000101         4451 	.byte	0,1,1
                        4452 	.section	.debug_info
                        4453 .LDW_4c87538:
00000b5e 0f             4454 	.byte	15
00000b5f 7563496400     4455 	.strz	"ucId"
00000b64 8c01           4456 	.byte	140,1
00000b66 21             4457 	.byte	33
00000b67 01             4458 	.byte	1
00000b68 00000000*      4459 	.word	.LDW_4c87210
00000b6c 00             4460 	.byte	0
00000b6d 0156           4461 	.byte	1,86
                        4462 
                        4463 	.section	.debug_abbrev

                                                                      Page 91
                                                              C:\Users\nhuliyap\AppData\Local\Temp\gh_00006oo1.s
00000123 0f             4464 	.byte	15
00000124 05             4465 	.byte	5
00000125 00             4466 	.byte	0
00000126 0308           4467 	.byte	3,8
00000128 3b0f           4468 	.byte	59,15
0000012a 390f           4469 	.byte	57,15
0000012c 3a0f           4470 	.byte	58,15
0000012e 4910           4471 	.byte	73,16
00000130 4b0c           4472 	.byte	75,12
00000132 020a           4473 	.byte	2,10
00000134 0000           4474 	.byte	0,0
                        4475 
                        4476 	.section	.debug_info
                        4477 .LDW_4c87590:
00000b6f 0f             4478 	.byte	15
00000b70 756354656d70   4479 	.strz	"ucTemperature"
00000b76 657261747572 
00000b7c 6500 
00000b7e 8c01           4480 	.byte	140,1
00000b80 2d             4481 	.byte	45
00000b81 01             4482 	.byte	1
00000b82 00000000*      4483 	.word	.LDW_4c87210
00000b86 00             4484 	.byte	0
00000b87 0157           4485 	.byte	1,87
                        4486 
                        4487 .LDW_498e970:
00000b89 1d             4488 	.byte	29
00000b8a 00000000*      4489 	.word	.LDW61
00000b8e 00000000*      4490 	.word	.LDW71
                        4491 
00000b92 00             4492 	.byte	0
                        4493 
00000b93 00             4494 	.byte	0
                        4495 
                        4496 .LDW_4989b80:
00000b94 14             4497 	.byte	20
00000b95 4275734d7367   4498 	.strz	"BusMsgGetTemperature"
00000b9b 47657454656d 
00000ba1 706572617475 
00000ba7 726500 
00000baa 9501           4499 	.byte	149,1
00000bac 07             4500 	.byte	7
00000bad 01             4501 	.byte	1
00000bae 00000000*      4502 	.word	.LDW_4c87210
00000bb2 00000000*      4503 	.word	_BusMsgGetTemperature
00000bb6 00000000*      4504 	.word	___ghs_eofn_BusMsgGetTemperature
00000bba 0153           4505 	.byte	1,83
00000bbc 02             4506 	.byte	2
00000bbd 00             4507 	.byte	0
00000bbe 02             4508 	.byte	2
00000bbf 00             4509 	.byte	0
00000bc0 00             4510 	.byte	0
00000bc1 00             4511 	.byte	0
00000bc2 00             4512 	.byte	0
00000bc3 01             4513 	.byte	1
00000bc4 01             4514 	.byte	1
00000bc5 00             4515 	.byte	0
00000bc6 01             4516 	.byte	1
                        4517 
                        4518 	.section	.debug_abbrev
00000136 14             4519 	.byte	20

                                                                      Page 92
                                                              C:\Users\nhuliyap\AppData\Local\Temp\gh_00006oo1.s
00000137 2e             4520 	.byte	46
00000138 01             4521 	.byte	1
00000139 0308           4522 	.byte	3,8
0000013b 3b0f           4523 	.byte	59,15
0000013d 390f           4524 	.byte	57,15
0000013f 3a0f           4525 	.byte	58,15
00000141 4910           4526 	.byte	73,16
00000143 1101           4527 	.byte	17,1
00000145 1201           4528 	.byte	18,1
00000147 400a           4529 	.byte	64,10
00000149 8341           4530 	.byte	131,65
0000014b 0f             4531 	.byte	15
0000014c 8741           4532 	.byte	135,65
0000014e 0d             4533 	.byte	13
0000014f 8541           4534 	.byte	133,65
00000151 0f             4535 	.byte	15
00000152 8641           4536 	.byte	134,65
00000154 0d             4537 	.byte	13
00000155 9241           4538 	.byte	146,65
00000157 0f             4539 	.byte	15
00000158 3c0c           4540 	.byte	60,12
0000015a 200b           4541 	.byte	32,11
0000015c 3f0c           4542 	.byte	63,12
0000015e 320b           4543 	.byte	50,11
00000160 4c0b           4544 	.byte	76,11
00000162 270c           4545 	.byte	39,12
00000164 0000           4546 	.byte	0,0
                        4547 
                        4548 	.section	.debug_frame
                        4549 .LDW_4dc1688:
000000f0 00000000*      4550 	.word	.LDW_unq_c-.LDW_unq_b
                        4551 .LDW_unq_b:
000000f4 00000000*      4552 	.word	.LDW_4d5e980
000000f8 00000000*      4553 	.word	_BusMsgGetTemperature
000000fc 00000000*      4554 	.word	___ghs_eofn_BusMsgGetTemperature-_BusMsgGetTemperature
00000100 01             4555 	.byte	1
00000101 00000000*      4556 	.word	.LDW91
00000105 00             4557 	.byte	0
00000106 00             4558 	.byte	0
00000107 00             4559 	.byte	0
                        4560 .LDW_unq_c:
                        4561 	.section	.debug_line
00000541 000502         4562 	.byte	0,5,2
00000544 00000000*      4563 	.word	_BusMsgGetTemperature
00000548 03             4564 	.byte	3
00000549 9501           4565 	.byte	149,1
0000054b 02             4566 	.byte	2
0000054c 00             4567 	.byte	0
0000054d 01             4568 	.byte	1
0000054e 06             4569 	.byte	6
0000054f 15             4570 	.byte	21
00000550 000502         4571 	.byte	0,5,2
00000553 00000000*      4572 	.word	.LDWlin12
00000557 0b             4573 	.byte	11
00000558 0b             4574 	.byte	11
00000559 000502         4575 	.byte	0,5,2
0000055c 00000000*      4576 	.word	.LDWlin13
00000560 0b             4577 	.byte	11
00000561 0b             4578 	.byte	11
00000562 0c             4579 	.byte	12
00000563 02             4580 	.byte	2

                                                                      Page 93
                                                              C:\Users\nhuliyap\AppData\Local\Temp\gh_00006oo1.s
00000564 00             4581 	.byte	0
00000565 0c             4582 	.byte	12
00000566 02             4583 	.byte	2
00000567 02             4584 	.byte	2
00000568 000101         4585 	.byte	0,1,1
                        4586 	.section	.debug_info
                        4587 .LDW_4989c18:
00000bc7 0f             4588 	.byte	15
00000bc8 7563496400     4589 	.strz	"ucId"
00000bcd 9501           4590 	.byte	149,1
00000bcf 22             4591 	.byte	34
00000bd0 01             4592 	.byte	1
00000bd1 00000000*      4593 	.word	.LDW_4c87210
00000bd5 00             4594 	.byte	0
00000bd6 0156           4595 	.byte	1,86
                        4596 
                        4597 .LDW_498e400:
00000bd8 1d             4598 	.byte	29
00000bd9 00000000*      4599 	.word	.LDW81
00000bdd 00000000*      4600 	.word	.LDW91
                        4601 
                        4602 .LDW_4989c70:
00000be1 04             4603 	.byte	4
00000be2 55385f54656d   4604 	.strz	"U8_Temperature"
00000be8 706572617475 
00000bee 726500 
00000bf1 9701           4605 	.byte	151,1
00000bf3 09             4606 	.byte	9
00000bf4 01             4607 	.byte	1
00000bf5 00000000*      4608 	.word	.LDW_4c87210
00000bf9 00             4609 	.byte	0
00000bfa 00             4610 	.byte	0
00000bfb 015a           4611 	.byte	1,90
                        4612 
00000bfd 00             4613 	.byte	0
                        4614 
00000bfe 00             4615 	.byte	0
                        4616 
                        4617 .LDW_4989cc8:
00000bff 13             4618 	.byte	19
00000c00 4275734d7367   4619 	.strz	"BusMsgPutTyrePressUncomp"
00000c06 507574547972 
00000c0c 655072657373 
00000c12 556e636f6d70 
00000c18 00 
00000c19 a401           4620 	.byte	164,1
00000c1b 06             4621 	.byte	6
00000c1c 01             4622 	.byte	1
00000c1d 00000000*      4623 	.word	_BusMsgPutTyrePressUncomp
00000c21 00000000*      4624 	.word	___ghs_eofn_BusMsgPutTyrePressUncomp
00000c25 0153           4625 	.byte	1,83
00000c27 02             4626 	.byte	2
00000c28 00             4627 	.byte	0
00000c29 02             4628 	.byte	2
00000c2a 00             4629 	.byte	0
00000c2b 00             4630 	.byte	0
00000c2c 00             4631 	.byte	0
00000c2d 00             4632 	.byte	0
00000c2e 01             4633 	.byte	1
00000c2f 01             4634 	.byte	1
00000c30 00             4635 	.byte	0

                                                                      Page 94
                                                              C:\Users\nhuliyap\AppData\Local\Temp\gh_00006oo1.s
00000c31 01             4636 	.byte	1
                        4637 
                        4638 	.section	.debug_frame
                        4639 .LDW_4dc0fc8:
00000108 00000000*      4640 	.word	.LDW_unq_e-.LDW_unq_d
                        4641 .LDW_unq_d:
0000010c 00000000*      4642 	.word	.LDW_4d5e980
00000110 00000000*      4643 	.word	_BusMsgPutTyrePressUncomp
00000114 00000000*      4644 	.word	___ghs_eofn_BusMsgPutTyrePressUncomp-_BusMsgPutTyrePressUncomp
00000118 01             4645 	.byte	1
00000119 00000000*      4646 	.word	.LDW12
0000011d 00             4647 	.byte	0
0000011e 00             4648 	.byte	0
0000011f 00             4649 	.byte	0
                        4650 .LDW_unq_e:
                        4651 	.section	.debug_line
0000056b 000502         4652 	.byte	0,5,2
0000056e 00000000*      4653 	.word	_BusMsgPutTyrePressUncomp
00000572 03             4654 	.byte	3
00000573 a401           4655 	.byte	164,1
00000575 02             4656 	.byte	2
00000576 00             4657 	.byte	0
00000577 01             4658 	.byte	1
00000578 06             4659 	.byte	6
00000579 14             4660 	.byte	20
0000057a 000502         4661 	.byte	0,5,2
0000057d 00000000*      4662 	.word	.LDWlin14
00000581 0b             4663 	.byte	11
00000582 0b             4664 	.byte	11
00000583 000502         4665 	.byte	0,5,2
00000586 00000000*      4666 	.word	.LDWlin15
0000058a 0b             4667 	.byte	11
0000058b 02             4668 	.byte	2
0000058c 00             4669 	.byte	0
0000058d 0b             4670 	.byte	11
0000058e 02             4671 	.byte	2
0000058f 02             4672 	.byte	2
00000590 000101         4673 	.byte	0,1,1
                        4674 	.section	.debug_info
                        4675 .LDW_4989d60:
00000c32 0f             4676 	.byte	15
00000c33 7563496400     4677 	.strz	"ucId"
00000c38 a401           4678 	.byte	164,1
00000c3a 25             4679 	.byte	37
00000c3b 01             4680 	.byte	1
00000c3c 00000000*      4681 	.word	.LDW_4c87210
00000c40 00             4682 	.byte	0
00000c41 0156           4683 	.byte	1,86
                        4684 
                        4685 .LDW_4989db8:
00000c43 0f             4686 	.byte	15
00000c44 756370726573   4687 	.strz	"ucpress"
00000c4a 7300 
00000c4c a401           4688 	.byte	164,1
00000c4e 31             4689 	.byte	49
00000c4f 01             4690 	.byte	1
00000c50 00000000*      4691 	.word	.LDW_4c87210
00000c54 00             4692 	.byte	0
00000c55 0157           4693 	.byte	1,87
                        4694 
                        4695 .LDW_498e4f0:

                                                                      Page 95
                                                              C:\Users\nhuliyap\AppData\Local\Temp\gh_00006oo1.s
00000c57 1d             4696 	.byte	29
00000c58 00000000*      4697 	.word	.LDW02
00000c5c 00000000*      4698 	.word	.LDW12
                        4699 
00000c60 00             4700 	.byte	0
                        4701 
00000c61 00             4702 	.byte	0
                        4703 
                        4704 .LDW_4989e10:
00000c62 14             4705 	.byte	20
00000c63 4275734d7367   4706 	.strz	"BusMsgGetTyrePressUncomp"
00000c69 476574547972 
00000c6f 655072657373 
00000c75 556e636f6d70 
00000c7b 00 
00000c7c ad01           4707 	.byte	173,1
00000c7e 07             4708 	.byte	7
00000c7f 01             4709 	.byte	1
00000c80 00000000*      4710 	.word	.LDW_4c87210
00000c84 00000000*      4711 	.word	_BusMsgGetTyrePressUncomp
00000c88 00000000*      4712 	.word	___ghs_eofn_BusMsgGetTyrePressUncomp
00000c8c 0153           4713 	.byte	1,83
00000c8e 02             4714 	.byte	2
00000c8f 00             4715 	.byte	0
00000c90 02             4716 	.byte	2
00000c91 00             4717 	.byte	0
00000c92 00             4718 	.byte	0
00000c93 00             4719 	.byte	0
00000c94 00             4720 	.byte	0
00000c95 01             4721 	.byte	1
00000c96 01             4722 	.byte	1
00000c97 00             4723 	.byte	0
00000c98 01             4724 	.byte	1
                        4725 
                        4726 	.section	.debug_frame
                        4727 .LDW_4dc14c8:
00000120 00000000*      4728 	.word	.LDW_unq_10-.LDW_unq_f
                        4729 .LDW_unq_f:
00000124 00000000*      4730 	.word	.LDW_4d5e980
00000128 00000000*      4731 	.word	_BusMsgGetTyrePressUncomp
0000012c 00000000*      4732 	.word	___ghs_eofn_BusMsgGetTyrePressUncomp-_BusMsgGetTyrePressUncomp
00000130 01             4733 	.byte	1
00000131 00000000*      4734 	.word	.LDW32
00000135 00             4735 	.byte	0
00000136 00             4736 	.byte	0
00000137 00             4737 	.byte	0
                        4738 .LDW_unq_10:
                        4739 	.section	.debug_line
00000593 000502         4740 	.byte	0,5,2
00000596 00000000*      4741 	.word	_BusMsgGetTyrePressUncomp
0000059a 03             4742 	.byte	3
0000059b ad01           4743 	.byte	173,1
0000059d 02             4744 	.byte	2
0000059e 00             4745 	.byte	0
0000059f 01             4746 	.byte	1
000005a0 06             4747 	.byte	6
000005a1 14             4748 	.byte	20
000005a2 000502         4749 	.byte	0,5,2
000005a5 00000000*      4750 	.word	.LDWlin16
000005a9 0b             4751 	.byte	11
000005aa 0b             4752 	.byte	11

                                                                      Page 96
                                                              C:\Users\nhuliyap\AppData\Local\Temp\gh_00006oo1.s
000005ab 000502         4753 	.byte	0,5,2
000005ae 00000000*      4754 	.word	.LDWlin17
000005b2 03             4755 	.byte	3
000005b3 04             4756 	.byte	4
000005b4 02             4757 	.byte	2
000005b5 00             4758 	.byte	0
000005b6 01             4759 	.byte	1
000005b7 02             4760 	.byte	2
000005b8 00             4761 	.byte	0
000005b9 06             4762 	.byte	6
000005ba 02             4763 	.byte	2
000005bb 00             4764 	.byte	0
000005bc 02             4765 	.byte	2
000005bd 02             4766 	.byte	2
000005be 000101         4767 	.byte	0,1,1
                        4768 	.section	.debug_info
                        4769 .LDW_4989ea8:
00000c99 0f             4770 	.byte	15
00000c9a 7563496400     4771 	.strz	"ucId"
00000c9f ad01           4772 	.byte	173,1
00000ca1 26             4773 	.byte	38
00000ca2 01             4774 	.byte	1
00000ca3 00000000*      4775 	.word	.LDW_4c87210
00000ca7 00             4776 	.byte	0
00000ca8 0156           4777 	.byte	1,86
                        4778 
                        4779 .LDW_498e610:
00000caa 1d             4780 	.byte	29
00000cab 00000000*      4781 	.word	.LDW22
00000caf 00000000*      4782 	.word	.LDW32
                        4783 
00000cb3 00             4784 	.byte	0
                        4785 
00000cb4 00             4786 	.byte	0
                        4787 
                        4788 .LDW_4989f58:
00000cb5 13             4789 	.byte	19
00000cb6 4275734d7367   4790 	.strz	"BusMsgPutTemperatureWarning"
00000cbc 50757454656d 
00000cc2 706572617475 
00000cc8 72655761726e 
00000cce 696e6700 
00000cd2 b901           4791 	.byte	185,1
00000cd4 06             4792 	.byte	6
00000cd5 01             4793 	.byte	1
00000cd6 00000000*      4794 	.word	_BusMsgPutTemperatureWarning
00000cda 00000000*      4795 	.word	___ghs_eofn_BusMsgPutTemperatureWarning
00000cde 0153           4796 	.byte	1,83
00000ce0 02             4797 	.byte	2
00000ce1 00             4798 	.byte	0
00000ce2 02             4799 	.byte	2
00000ce3 00             4800 	.byte	0
00000ce4 00             4801 	.byte	0
00000ce5 00             4802 	.byte	0
00000ce6 00             4803 	.byte	0
00000ce7 01             4804 	.byte	1
00000ce8 01             4805 	.byte	1
00000ce9 00             4806 	.byte	0
00000cea 01             4807 	.byte	1
                        4808 
                        4809 	.section	.debug_frame

                                                                      Page 97
                                                              C:\Users\nhuliyap\AppData\Local\Temp\gh_00006oo1.s
                        4810 .LDW_4dc1248:
00000138 00000000*      4811 	.word	.LDW_unq_12-.LDW_unq_11
                        4812 .LDW_unq_11:
0000013c 00000000*      4813 	.word	.LDW_4d5e980
00000140 00000000*      4814 	.word	_BusMsgPutTemperatureWarning
00000144 00000000*      4815 	.word	___ghs_eofn_BusMsgPutTemperatureWarning-_BusMsgPutTemperatureWarning
00000148 01             4816 	.byte	1
00000149 00000000*      4817 	.word	.LDW52
0000014d 00             4818 	.byte	0
0000014e 00             4819 	.byte	0
0000014f 00             4820 	.byte	0
                        4821 .LDW_unq_12:
                        4822 	.section	.debug_line
000005c1 000502         4823 	.byte	0,5,2
000005c4 00000000*      4824 	.word	_BusMsgPutTemperatureWarning
000005c8 03             4825 	.byte	3
000005c9 b901           4826 	.byte	185,1
000005cb 02             4827 	.byte	2
000005cc 00             4828 	.byte	0
000005cd 01             4829 	.byte	1
000005ce 06             4830 	.byte	6
000005cf 000502         4831 	.byte	0,5,2
000005d2 00000000*      4832 	.word	.LDWlin18
000005d6 0b             4833 	.byte	11
000005d7 000502         4834 	.byte	0,5,2
000005da 00000000*      4835 	.word	.LDWlin19
000005de 0b             4836 	.byte	11
000005df 0b             4837 	.byte	11
000005e0 000502         4838 	.byte	0,5,2
000005e3 00000000*      4839 	.word	.LDWlin20
000005e7 0b             4840 	.byte	11
000005e8 0b             4841 	.byte	11
000005e9 0b             4842 	.byte	11
000005ea 3b             4843 	.byte	59
000005eb 02             4844 	.byte	2
000005ec 00             4845 	.byte	0
000005ed 0b             4846 	.byte	11
000005ee 02             4847 	.byte	2
000005ef 02             4848 	.byte	2
000005f0 000101         4849 	.byte	0,1,1
                        4850 	.section	.debug_info
                        4851 .LDW_4989ff0:
00000ceb 0f             4852 	.byte	15
00000cec 7563496400     4853 	.strz	"ucId"
00000cf1 b901           4854 	.byte	185,1
00000cf3 28             4855 	.byte	40
00000cf4 01             4856 	.byte	1
00000cf5 00000000*      4857 	.word	.LDW_4c87210
00000cf9 00             4858 	.byte	0
00000cfa 0156           4859 	.byte	1,86
                        4860 
                        4861 .LDW_498a048:
00000cfc 0f             4862 	.byte	15
00000cfd 424f5f497354   4863 	.strz	"BO_IsTemperatureWarningActive"
00000d03 656d70657261 
00000d09 747572655761 
00000d0f 726e696e6741 
00000d15 637469766500 
00000d1b b901           4864 	.byte	185,1
00000d1d 36             4865 	.byte	54
00000d1e 01             4866 	.byte	1

                                                                      Page 98
                                                              C:\Users\nhuliyap\AppData\Local\Temp\gh_00006oo1.s
00000d1f 00000000*      4867 	.word	.LDW_4989f00
00000d23 00             4868 	.byte	0
00000d24 0157           4869 	.byte	1,87
                        4870 
                        4871 .LDW_498e670:
00000d26 1d             4872 	.byte	29
00000d27 00000000*      4873 	.word	.LDW42
00000d2b 00000000*      4874 	.word	.LDW52
                        4875 
00000d2f 00             4876 	.byte	0
                        4877 
00000d30 00             4878 	.byte	0
                        4879 
                        4880 .LDW_498a0a0:
00000d31 14             4881 	.byte	20
00000d32 4275734d7367   4882 	.strz	"BusMsgGetTemperatureWarning"
00000d38 47657454656d 
00000d3e 706572617475 
00000d44 72655761726e 
00000d4a 696e6700 
00000d4e c401           4883 	.byte	196,1
00000d50 09             4884 	.byte	9
00000d51 01             4885 	.byte	1
00000d52 00000000*      4886 	.word	.LDW_4989f00
00000d56 00000000*      4887 	.word	_BusMsgGetTemperatureWarning
00000d5a 00000000*      4888 	.word	___ghs_eofn_BusMsgGetTemperatureWarning
00000d5e 0153           4889 	.byte	1,83
00000d60 02             4890 	.byte	2
00000d61 00             4891 	.byte	0
00000d62 02             4892 	.byte	2
00000d63 00             4893 	.byte	0
00000d64 00             4894 	.byte	0
00000d65 00             4895 	.byte	0
00000d66 00             4896 	.byte	0
00000d67 01             4897 	.byte	1
00000d68 01             4898 	.byte	1
00000d69 00             4899 	.byte	0
00000d6a 01             4900 	.byte	1
                        4901 
                        4902 	.section	.debug_frame
                        4903 .LDW_4dc1188:
00000150 00000000*      4904 	.word	.LDW_unq_14-.LDW_unq_13
                        4905 .LDW_unq_13:
00000154 00000000*      4906 	.word	.LDW_4d5e980
00000158 00000000*      4907 	.word	_BusMsgGetTemperatureWarning
0000015c 00000000*      4908 	.word	___ghs_eofn_BusMsgGetTemperatureWarning-_BusMsgGetTemperatureWarning
00000160 01             4909 	.byte	1
00000161 00000000*      4910 	.word	.LDW72
00000165 00             4911 	.byte	0
00000166 00             4912 	.byte	0
00000167 00             4913 	.byte	0
                        4914 .LDW_unq_14:
                        4915 	.section	.debug_line
000005f3 000502         4916 	.byte	0,5,2
000005f6 00000000*      4917 	.word	_BusMsgGetTemperatureWarning
000005fa 06             4918 	.byte	6
000005fb 03             4919 	.byte	3
000005fc c901           4920 	.byte	201,1
000005fe 02             4921 	.byte	2
000005ff 00             4922 	.byte	0
00000600 01             4923 	.byte	1

                                                                      Page 99
                                                              C:\Users\nhuliyap\AppData\Local\Temp\gh_00006oo1.s
00000601 06             4924 	.byte	6
00000602 000502         4925 	.byte	0,5,2
00000605 00000000*      4926 	.word	.LDWlin21
00000609 02             4927 	.byte	2
0000060a 00             4928 	.byte	0
0000060b 02             4929 	.byte	2
0000060c 02             4930 	.byte	2
0000060d 000101         4931 	.byte	0,1,1
                        4932 	.section	.debug_info
                        4933 .LDW_498a138:
00000d6b 0f             4934 	.byte	15
00000d6c 7563496400     4935 	.strz	"ucId"
00000d71 c401           4936 	.byte	196,1
00000d73 2b             4937 	.byte	43
00000d74 01             4938 	.byte	1
00000d75 00000000*      4939 	.word	.LDW_4c87210
00000d79 00             4940 	.byte	0
00000d7a 0156           4941 	.byte	1,86
                        4942 
                        4943 .LDW_498eac0:
00000d7c 1d             4944 	.byte	29
00000d7d 00000000*      4945 	.word	.LDW62
00000d81 00000000*      4946 	.word	.LDW72
                        4947 
                        4948 .LDW_4d327e8:
00000d85 05             4949 	.byte	5
00000d86 424f5f497354   4950 	.strz	"BO_IsTemperatureWarningActive"
00000d8c 656d70657261 
00000d92 747572655761 
00000d98 726e696e6741 
00000d9e 637469766500 
00000da4 c601           4951 	.byte	198,1
00000da6 0b             4952 	.byte	11
00000da7 01             4953 	.byte	1
00000da8 00000000*      4954 	.word	.LDW_4989f00
00000dac 00             4955 	.byte	0
00000dad 00             4956 	.byte	0
                        4957 
00000dae 00             4958 	.byte	0
                        4959 
00000daf 00             4960 	.byte	0
                        4961 
                        4962 .LDW_498a190:
00000db0 13             4963 	.byte	19
00000db1 4275734d7367   4964 	.strz	"BusMsgPutWarning"
00000db7 507574576172 
00000dbd 6e696e6700 
00000dc2 cd01           4965 	.byte	205,1
00000dc4 06             4966 	.byte	6
00000dc5 01             4967 	.byte	1
00000dc6 00000000*      4968 	.word	_BusMsgPutWarning
00000dca 00000000*      4969 	.word	___ghs_eofn_BusMsgPutWarning
00000dce 0153           4970 	.byte	1,83
00000dd0 02             4971 	.byte	2
00000dd1 00             4972 	.byte	0
00000dd2 02             4973 	.byte	2
00000dd3 00             4974 	.byte	0
00000dd4 00             4975 	.byte	0
00000dd5 00             4976 	.byte	0
00000dd6 00             4977 	.byte	0
00000dd7 01             4978 	.byte	1

                                                                      Page 100
                                                              C:\Users\nhuliyap\AppData\Local\Temp\gh_00006oo1.s
00000dd8 01             4979 	.byte	1
00000dd9 00             4980 	.byte	0
00000dda 01             4981 	.byte	1
                        4982 
                        4983 	.section	.debug_frame
                        4984 .LDW_4dc1548:
00000168 00000000*      4985 	.word	.LDW_unq_16-.LDW_unq_15
                        4986 .LDW_unq_15:
0000016c 00000000*      4987 	.word	.LDW_4d5e980
00000170 00000000*      4988 	.word	_BusMsgPutWarning
00000174 00000000*      4989 	.word	___ghs_eofn_BusMsgPutWarning-_BusMsgPutWarning
00000178 01             4990 	.byte	1
00000179 00000000*      4991 	.word	.LDW92
0000017d 00             4992 	.byte	0
0000017e 00             4993 	.byte	0
0000017f 00             4994 	.byte	0
                        4995 .LDW_unq_16:
                        4996 	.section	.debug_line
00000610 000502         4997 	.byte	0,5,2
00000613 00000000*      4998 	.word	_BusMsgPutWarning
00000617 03             4999 	.byte	3
00000618 cd01           5000 	.byte	205,1
0000061a 02             5001 	.byte	2
0000061b 00             5002 	.byte	0
0000061c 01             5003 	.byte	1
0000061d 06             5004 	.byte	6
0000061e 14             5005 	.byte	20
0000061f 000502         5006 	.byte	0,5,2
00000622 00000000*      5007 	.word	.LDWlin22
00000626 0b             5008 	.byte	11
00000627 03             5009 	.byte	3
00000628 08             5010 	.byte	8
00000629 02             5011 	.byte	2
0000062a 00             5012 	.byte	0
0000062b 01             5013 	.byte	1
0000062c 000502         5014 	.byte	0,5,2
0000062f 00000000*      5015 	.word	.LDWlin23
00000633 0b             5016 	.byte	11
00000634 02             5017 	.byte	2
00000635 00             5018 	.byte	0
00000636 0b             5019 	.byte	11
00000637 02             5020 	.byte	2
00000638 02             5021 	.byte	2
00000639 000101         5022 	.byte	0,1,1
                        5023 	.section	.debug_info
                        5024 .LDW_4d328f0:
00000ddb 0f             5025 	.byte	15
00000ddc 7563496400     5026 	.strz	"ucId"
00000de1 cd01           5027 	.byte	205,1
00000de3 1d             5028 	.byte	29
00000de4 01             5029 	.byte	1
00000de5 00000000*      5030 	.word	.LDW_4c87210
00000de9 00             5031 	.byte	0
00000dea 0156           5032 	.byte	1,86
                        5033 
                        5034 .LDW_4d32e18:
00000dec 0f             5035 	.byte	15
00000ded 75637761726e   5036 	.strz	"ucwarning"
00000df3 696e6700 
00000df7 cd01           5037 	.byte	205,1
00000df9 29             5038 	.byte	41

                                                                      Page 101
                                                              C:\Users\nhuliyap\AppData\Local\Temp\gh_00006oo1.s
00000dfa 01             5039 	.byte	1
00000dfb 00000000*      5040 	.word	.LDW_4c87210
00000dff 00             5041 	.byte	0
00000e00 0157           5042 	.byte	1,87
                        5043 
                        5044 .LDW_498eb20:
00000e02 1d             5045 	.byte	29
00000e03 00000000*      5046 	.word	.LDW82
00000e07 00000000*      5047 	.word	.LDW92
                        5048 
00000e0b 00             5049 	.byte	0
                        5050 
00000e0c 00             5051 	.byte	0
                        5052 
                        5053 .LDW_498a228:
00000e0d 14             5054 	.byte	20
00000e0e 4275734d7367   5055 	.strz	"BusMsgGetWarning"
00000e14 476574576172 
00000e1a 6e696e6700 
00000e1f dd01           5056 	.byte	221,1
00000e21 07             5057 	.byte	7
00000e22 01             5058 	.byte	1
00000e23 00000000*      5059 	.word	.LDW_4c87210
00000e27 00000000*      5060 	.word	_BusMsgGetWarning
00000e2b 00000000*      5061 	.word	___ghs_eofn_BusMsgGetWarning
00000e2f 0153           5062 	.byte	1,83
00000e31 02             5063 	.byte	2
00000e32 00             5064 	.byte	0
00000e33 02             5065 	.byte	2
00000e34 00             5066 	.byte	0
00000e35 00             5067 	.byte	0
00000e36 00             5068 	.byte	0
00000e37 00             5069 	.byte	0
00000e38 01             5070 	.byte	1
00000e39 01             5071 	.byte	1
00000e3a 00             5072 	.byte	0
00000e3b 01             5073 	.byte	1
                        5074 
                        5075 	.section	.debug_frame
                        5076 .LDW_4dc1308:
00000180 00000000*      5077 	.word	.LDW_unq_18-.LDW_unq_17
                        5078 .LDW_unq_17:
00000184 00000000*      5079 	.word	.LDW_4d5e980
00000188 00000000*      5080 	.word	_BusMsgGetWarning
0000018c 00000000*      5081 	.word	___ghs_eofn_BusMsgGetWarning-_BusMsgGetWarning
00000190 01             5082 	.byte	1
00000191 00000000*      5083 	.word	.LDW13
00000195 00             5084 	.byte	0
00000196 00             5085 	.byte	0
00000197 00             5086 	.byte	0
                        5087 .LDW_unq_18:
                        5088 	.section	.debug_line
0000063c 000502         5089 	.byte	0,5,2
0000063f 00000000*      5090 	.word	_BusMsgGetWarning
00000643 03             5091 	.byte	3
00000644 dd01           5092 	.byte	221,1
00000646 02             5093 	.byte	2
00000647 00             5094 	.byte	0
00000648 01             5095 	.byte	1
00000649 06             5096 	.byte	6
0000064a 03             5097 	.byte	3

                                                                      Page 102
                                                              C:\Users\nhuliyap\AppData\Local\Temp\gh_00006oo1.s
0000064b 05             5098 	.byte	5
0000064c 02             5099 	.byte	2
0000064d 02             5100 	.byte	2
0000064e 01             5101 	.byte	1
0000064f 000502         5102 	.byte	0,5,2
00000652 00000000*      5103 	.word	.LDWlin24
00000656 0b             5104 	.byte	11
00000657 0b             5105 	.byte	11
00000658 000502         5106 	.byte	0,5,2
0000065b 00000000*      5107 	.word	.LDWlin25
0000065f 0b             5108 	.byte	11
00000660 02             5109 	.byte	2
00000661 00             5110 	.byte	0
00000662 0b             5111 	.byte	11
00000663 02             5112 	.byte	2
00000664 02             5113 	.byte	2
00000665 000101         5114 	.byte	0,1,1
                        5115 	.section	.debug_info
                        5116 .LDW_4d32c60:
00000e3c 0f             5117 	.byte	15
00000e3d 7563496400     5118 	.strz	"ucId"
00000e42 dd01           5119 	.byte	221,1
00000e44 1e             5120 	.byte	30
00000e45 01             5121 	.byte	1
00000e46 00000000*      5122 	.word	.LDW_4c87210
00000e4a 00             5123 	.byte	0
00000e4b 0156           5124 	.byte	1,86
                        5125 
                        5126 .LDW_498ea90:
00000e4d 1d             5127 	.byte	29
00000e4e 00000000*      5128 	.word	.LDW03
00000e52 00000000*      5129 	.word	.LDW13
                        5130 
                        5131 .LDW_4d32a50:
00000e56 04             5132 	.byte	4
00000e57 756348656c70   5133 	.strz	"ucHelp"
00000e5d 00 
00000e5e df01           5134 	.byte	223,1
00000e60 09             5135 	.byte	9
00000e61 01             5136 	.byte	1
00000e62 00000000*      5137 	.word	.LDW_4c87210
00000e66 00             5138 	.byte	0
00000e67 00             5139 	.byte	0
00000e68 015a           5140 	.byte	1,90
                        5141 
00000e6a 00             5142 	.byte	0
                        5143 
00000e6b 00             5144 	.byte	0
                        5145 
                        5146 .LDW_498a2c0:
00000e6c 13             5147 	.byte	19
00000e6d 4275734d7367   5148 	.strz	"BusMsgPutTyrePressValidVL"
00000e73 507574547972 
00000e79 655072657373 
00000e7f 56616c696456 
00000e85 4c00 
00000e87 ea01           5149 	.byte	234,1
00000e89 06             5150 	.byte	6
00000e8a 01             5151 	.byte	1
00000e8b 00000000*      5152 	.word	_BusMsgPutTyrePressValidVL
00000e8f 00000000*      5153 	.word	___ghs_eofn_BusMsgPutTyrePressValidVL

                                                                      Page 103
                                                              C:\Users\nhuliyap\AppData\Local\Temp\gh_00006oo1.s
00000e93 0153           5154 	.byte	1,83
00000e95 02             5155 	.byte	2
00000e96 00             5156 	.byte	0
00000e97 02             5157 	.byte	2
00000e98 00             5158 	.byte	0
00000e99 00             5159 	.byte	0
00000e9a 00             5160 	.byte	0
00000e9b 00             5161 	.byte	0
00000e9c 01             5162 	.byte	1
00000e9d 01             5163 	.byte	1
00000e9e 00             5164 	.byte	0
00000e9f 01             5165 	.byte	1
                        5166 
                        5167 	.section	.debug_frame
                        5168 .LDW_4dc1108:
00000198 00000000*      5169 	.word	.LDW_unq_1a-.LDW_unq_19
                        5170 .LDW_unq_19:
0000019c 00000000*      5171 	.word	.LDW_4d5e980
000001a0 00000000*      5172 	.word	_BusMsgPutTyrePressValidVL
000001a4 00000000*      5173 	.word	___ghs_eofn_BusMsgPutTyrePressValidVL-_BusMsgPutTyrePressValidVL
000001a8 01             5174 	.byte	1
000001a9 00000000*      5175 	.word	.LDW33
000001ad 00             5176 	.byte	0
000001ae 00             5177 	.byte	0
000001af 00             5178 	.byte	0
                        5179 .LDW_unq_1a:
                        5180 	.section	.debug_line
00000668 000502         5181 	.byte	0,5,2
0000066b 00000000*      5182 	.word	_BusMsgPutTyrePressValidVL
0000066f 06             5183 	.byte	6
00000670 03             5184 	.byte	3
00000671 eb01           5185 	.byte	235,1
00000673 02             5186 	.byte	2
00000674 00             5187 	.byte	0
00000675 01             5188 	.byte	1
00000676 000502         5189 	.byte	0,5,2
00000679 00000000*      5190 	.word	.LDWlin26
0000067d 0b             5191 	.byte	11
0000067e 02             5192 	.byte	2
0000067f 02             5193 	.byte	2
00000680 000101         5194 	.byte	0,1,1
                        5195 	.section	.debug_info
                        5196 .LDW_4d32dc0:
00000ea0 0f             5197 	.byte	15
00000ea1 627374617465   5198 	.strz	"bstate"
00000ea7 00 
00000ea8 ea01           5199 	.byte	234,1
00000eaa 28             5200 	.byte	40
00000eab 01             5201 	.byte	1
00000eac 00000000*      5202 	.word	.LDW_4989f00
00000eb0 00             5203 	.byte	0
00000eb1 0156           5204 	.byte	1,86
                        5205 
                        5206 .LDW_498ea00:
00000eb3 1d             5207 	.byte	29
00000eb4 00000000*      5208 	.word	.LDW23
00000eb8 00000000*      5209 	.word	.LDW33
                        5210 
00000ebc 00             5211 	.byte	0
                        5212 
00000ebd 00             5213 	.byte	0

                                                                      Page 104
                                                              C:\Users\nhuliyap\AppData\Local\Temp\gh_00006oo1.s
                        5214 
                        5215 .LDW_4d32f18:
00000ebe 14             5216 	.byte	20
00000ebf 4275734d7367   5217 	.strz	"BusMsgGetTyrePressValidVL"
00000ec5 476574547972 
00000ecb 655072657373 
00000ed1 56616c696456 
00000ed7 4c00 
00000ed9 ef01           5218 	.byte	239,1
00000edb 09             5219 	.byte	9
00000edc 01             5220 	.byte	1
00000edd 00000000*      5221 	.word	.LDW_4989f00
00000ee1 00000000*      5222 	.word	_BusMsgGetTyrePressValidVL
00000ee5 00000000*      5223 	.word	___ghs_eofn_BusMsgGetTyrePressValidVL
00000ee9 0153           5224 	.byte	1,83
00000eeb 02             5225 	.byte	2
00000eec 00             5226 	.byte	0
00000eed 02             5227 	.byte	2
00000eee 00             5228 	.byte	0
00000eef 00             5229 	.byte	0
00000ef0 00             5230 	.byte	0
00000ef1 00             5231 	.byte	0
00000ef2 01             5232 	.byte	1
00000ef3 01             5233 	.byte	1
00000ef4 00             5234 	.byte	0
00000ef5 01             5235 	.byte	1
                        5236 
                        5237 	.section	.debug_frame
                        5238 .LDW_4dc13c8:
000001b0 00000000*      5239 	.word	.LDW_unq_1c-.LDW_unq_1b
                        5240 .LDW_unq_1b:
000001b4 00000000*      5241 	.word	.LDW_4d5e980
000001b8 00000000*      5242 	.word	_BusMsgGetTyrePressValidVL
000001bc 00000000*      5243 	.word	___ghs_eofn_BusMsgGetTyrePressValidVL-_BusMsgGetTyrePressValidVL
000001c0 01             5244 	.byte	1
000001c1 00000000*      5245 	.word	.LDW53
000001c5 00             5246 	.byte	0
000001c6 00             5247 	.byte	0
000001c7 00             5248 	.byte	0
                        5249 .LDW_unq_1c:
                        5250 	.section	.debug_line
00000683 000502         5251 	.byte	0,5,2
00000686 00000000*      5252 	.word	_BusMsgGetTyrePressValidVL
0000068a 06             5253 	.byte	6
0000068b 03             5254 	.byte	3
0000068c ef01           5255 	.byte	239,1
0000068e 02             5256 	.byte	2
0000068f 00             5257 	.byte	0
00000690 01             5258 	.byte	1
00000691 06             5259 	.byte	6
00000692 000502         5260 	.byte	0,5,2
00000695 00000000*      5261 	.word	.LDWlin27
00000699 02             5262 	.byte	2
0000069a 00             5263 	.byte	0
0000069b 02             5264 	.byte	2
0000069c 02             5265 	.byte	2
0000069d 000101         5266 	.byte	0,1,1
                        5267 	.section	.debug_info
                        5268 .LDW_498e9d0:
00000ef6 1d             5269 	.byte	29
00000ef7 00000000*      5270 	.word	.LDW43

                                                                      Page 105
                                                              C:\Users\nhuliyap\AppData\Local\Temp\gh_00006oo1.s
00000efb 00000000*      5271 	.word	.LDW53
                        5272 
00000eff 00             5273 	.byte	0
                        5274 
00000f00 00             5275 	.byte	0
                        5276 
                        5277 .LDW_4d32fb0:
00000f01 13             5278 	.byte	19
00000f02 4275734d7367   5279 	.strz	"BusMsgPutTyrePressValidVR"
00000f08 507574547972 
00000f0e 655072657373 
00000f14 56616c696456 
00000f1a 5200 
00000f1c f301           5280 	.byte	243,1
00000f1e 06             5281 	.byte	6
00000f1f 01             5282 	.byte	1
00000f20 00000000*      5283 	.word	_BusMsgPutTyrePressValidVR
00000f24 00000000*      5284 	.word	___ghs_eofn_BusMsgPutTyrePressValidVR
00000f28 0153           5285 	.byte	1,83
00000f2a 02             5286 	.byte	2
00000f2b 00             5287 	.byte	0
00000f2c 02             5288 	.byte	2
00000f2d 00             5289 	.byte	0
00000f2e 00             5290 	.byte	0
00000f2f 00             5291 	.byte	0
00000f30 00             5292 	.byte	0
00000f31 01             5293 	.byte	1
00000f32 01             5294 	.byte	1
00000f33 00             5295 	.byte	0
00000f34 01             5296 	.byte	1
                        5297 
                        5298 	.section	.debug_frame
                        5299 .LDW_4dc1708:
000001c8 00000000*      5300 	.word	.LDW_unq_1e-.LDW_unq_1d
                        5301 .LDW_unq_1d:
000001cc 00000000*      5302 	.word	.LDW_4d5e980
000001d0 00000000*      5303 	.word	_BusMsgPutTyrePressValidVR
000001d4 00000000*      5304 	.word	___ghs_eofn_BusMsgPutTyrePressValidVR-_BusMsgPutTyrePressValidVR
000001d8 01             5305 	.byte	1
000001d9 00000000*      5306 	.word	.LDW73
000001dd 00             5307 	.byte	0
000001de 00             5308 	.byte	0
000001df 00             5309 	.byte	0
                        5310 .LDW_unq_1e:
                        5311 	.section	.debug_line
000006a0 000502         5312 	.byte	0,5,2
000006a3 00000000*      5313 	.word	_BusMsgPutTyrePressValidVR
000006a7 06             5314 	.byte	6
000006a8 03             5315 	.byte	3
000006a9 f401           5316 	.byte	244,1
000006ab 02             5317 	.byte	2
000006ac 00             5318 	.byte	0
000006ad 01             5319 	.byte	1
000006ae 000502         5320 	.byte	0,5,2
000006b1 00000000*      5321 	.word	.LDWlin28
000006b5 0b             5322 	.byte	11
000006b6 02             5323 	.byte	2
000006b7 02             5324 	.byte	2
000006b8 000101         5325 	.byte	0,1,1
                        5326 	.section	.debug_info
                        5327 .LDW_4d32790:

                                                                      Page 106
                                                              C:\Users\nhuliyap\AppData\Local\Temp\gh_00006oo1.s
00000f35 0f             5328 	.byte	15
00000f36 627374617465   5329 	.strz	"bstate"
00000f3c 00 
00000f3d f301           5330 	.byte	243,1
00000f3f 28             5331 	.byte	40
00000f40 01             5332 	.byte	1
00000f41 00000000*      5333 	.word	.LDW_4989f00
00000f45 00             5334 	.byte	0
00000f46 0156           5335 	.byte	1,86
                        5336 
                        5337 .LDW_4d962c8:
00000f48 1d             5338 	.byte	29
00000f49 00000000*      5339 	.word	.LDW63
00000f4d 00000000*      5340 	.word	.LDW73
                        5341 
00000f51 00             5342 	.byte	0
                        5343 
00000f52 00             5344 	.byte	0
                        5345 
                        5346 .LDW_4d33048:
00000f53 14             5347 	.byte	20
00000f54 4275734d7367   5348 	.strz	"BusMsgGetTyrePressValidVR"
00000f5a 476574547972 
00000f60 655072657373 
00000f66 56616c696456 
00000f6c 5200 
00000f6e f801           5349 	.byte	248,1
00000f70 09             5350 	.byte	9
00000f71 01             5351 	.byte	1
00000f72 00000000*      5352 	.word	.LDW_4989f00
00000f76 00000000*      5353 	.word	_BusMsgGetTyrePressValidVR
00000f7a 00000000*      5354 	.word	___ghs_eofn_BusMsgGetTyrePressValidVR
00000f7e 0153           5355 	.byte	1,83
00000f80 02             5356 	.byte	2
00000f81 00             5357 	.byte	0
00000f82 02             5358 	.byte	2
00000f83 00             5359 	.byte	0
00000f84 00             5360 	.byte	0
00000f85 00             5361 	.byte	0
00000f86 00             5362 	.byte	0
00000f87 01             5363 	.byte	1
00000f88 01             5364 	.byte	1
00000f89 00             5365 	.byte	0
00000f8a 01             5366 	.byte	1
                        5367 
                        5368 	.section	.debug_frame
                        5369 .LDW_4e699f0:
000001e0 00000000*      5370 	.word	.LDW_unq_20-.LDW_unq_1f
                        5371 .LDW_unq_1f:
000001e4 00000000*      5372 	.word	.LDW_4d5e980
000001e8 00000000*      5373 	.word	_BusMsgGetTyrePressValidVR
000001ec 00000000*      5374 	.word	___ghs_eofn_BusMsgGetTyrePressValidVR-_BusMsgGetTyrePressValidVR
000001f0 01             5375 	.byte	1
000001f1 00000000*      5376 	.word	.LDW93
000001f5 00             5377 	.byte	0
000001f6 00             5378 	.byte	0
000001f7 00             5379 	.byte	0
                        5380 .LDW_unq_20:
                        5381 	.section	.debug_line
000006bb 000502         5382 	.byte	0,5,2
000006be 00000000*      5383 	.word	_BusMsgGetTyrePressValidVR

                                                                      Page 107
                                                              C:\Users\nhuliyap\AppData\Local\Temp\gh_00006oo1.s
000006c2 06             5384 	.byte	6
000006c3 03             5385 	.byte	3
000006c4 f801           5386 	.byte	248,1
000006c6 02             5387 	.byte	2
000006c7 00             5388 	.byte	0
000006c8 01             5389 	.byte	1
000006c9 06             5390 	.byte	6
000006ca 000502         5391 	.byte	0,5,2
000006cd 00000000*      5392 	.word	.LDWlin29
000006d1 02             5393 	.byte	2
000006d2 00             5394 	.byte	0
000006d3 02             5395 	.byte	2
000006d4 02             5396 	.byte	2
000006d5 000101         5397 	.byte	0,1,1
                        5398 	.section	.debug_info
                        5399 .LDW_4d96028:
00000f8b 1d             5400 	.byte	29
00000f8c 00000000*      5401 	.word	.LDW83
00000f90 00000000*      5402 	.word	.LDW93
                        5403 
00000f94 00             5404 	.byte	0
                        5405 
00000f95 00             5406 	.byte	0
                        5407 
                        5408 .LDW_4d330e0:
00000f96 13             5409 	.byte	19
00000f97 4275734d7367   5410 	.strz	"BusMsgPutTyrePressValidHL"
00000f9d 507574547972 
00000fa3 655072657373 
00000fa9 56616c696448 
00000faf 4c00 
00000fb1 fc01           5411 	.byte	252,1
00000fb3 06             5412 	.byte	6
00000fb4 01             5413 	.byte	1
00000fb5 00000000*      5414 	.word	_BusMsgPutTyrePressValidHL
00000fb9 00000000*      5415 	.word	___ghs_eofn_BusMsgPutTyrePressValidHL
00000fbd 0153           5416 	.byte	1,83
00000fbf 02             5417 	.byte	2
00000fc0 00             5418 	.byte	0
00000fc1 02             5419 	.byte	2
00000fc2 00             5420 	.byte	0
00000fc3 00             5421 	.byte	0
00000fc4 00             5422 	.byte	0
00000fc5 00             5423 	.byte	0
00000fc6 01             5424 	.byte	1
00000fc7 01             5425 	.byte	1
00000fc8 00             5426 	.byte	0
00000fc9 01             5427 	.byte	1
                        5428 
                        5429 	.section	.debug_frame
                        5430 .LDW_4e69a70:
000001f8 00000000*      5431 	.word	.LDW_unq_22-.LDW_unq_21
                        5432 .LDW_unq_21:
000001fc 00000000*      5433 	.word	.LDW_4d5e980
00000200 00000000*      5434 	.word	_BusMsgPutTyrePressValidHL
00000204 00000000*      5435 	.word	___ghs_eofn_BusMsgPutTyrePressValidHL-_BusMsgPutTyrePressValidHL
00000208 01             5436 	.byte	1
00000209 00000000*      5437 	.word	.LDW14
0000020d 00             5438 	.byte	0
0000020e 00             5439 	.byte	0
0000020f 00             5440 	.byte	0

                                                                      Page 108
                                                              C:\Users\nhuliyap\AppData\Local\Temp\gh_00006oo1.s
                        5441 .LDW_unq_22:
                        5442 	.section	.debug_line
000006d8 000502         5443 	.byte	0,5,2
000006db 00000000*      5444 	.word	_BusMsgPutTyrePressValidHL
000006df 06             5445 	.byte	6
000006e0 03             5446 	.byte	3
000006e1 fd01           5447 	.byte	253,1
000006e3 02             5448 	.byte	2
000006e4 00             5449 	.byte	0
000006e5 01             5450 	.byte	1
000006e6 000502         5451 	.byte	0,5,2
000006e9 00000000*      5452 	.word	.LDWlin30
000006ed 0b             5453 	.byte	11
000006ee 02             5454 	.byte	2
000006ef 02             5455 	.byte	2
000006f0 000101         5456 	.byte	0,1,1
                        5457 	.section	.debug_info
                        5458 .LDW_4d32b00:
00000fca 0f             5459 	.byte	15
00000fcb 627374617465   5460 	.strz	"bstate"
00000fd1 00 
00000fd2 fc01           5461 	.byte	252,1
00000fd4 28             5462 	.byte	40
00000fd5 01             5463 	.byte	1
00000fd6 00000000*      5464 	.word	.LDW_4989f00
00000fda 00             5465 	.byte	0
00000fdb 0156           5466 	.byte	1,86
                        5467 
                        5468 .LDW_4d96538:
00000fdd 1d             5469 	.byte	29
00000fde 00000000*      5470 	.word	.LDW04
00000fe2 00000000*      5471 	.word	.LDW14
                        5472 
00000fe6 00             5473 	.byte	0
                        5474 
00000fe7 00             5475 	.byte	0
                        5476 
                        5477 .LDW_4d33178:
00000fe8 14             5478 	.byte	20
00000fe9 4275734d7367   5479 	.strz	"BusMsgGetTyrePressValidHL"
00000fef 476574547972 
00000ff5 655072657373 
00000ffb 56616c696448 
00001001 4c00 
00001003 8102           5480 	.byte	129,2
00001005 09             5481 	.byte	9
00001006 01             5482 	.byte	1
00001007 00000000*      5483 	.word	.LDW_4989f00
0000100b 00000000*      5484 	.word	_BusMsgGetTyrePressValidHL
0000100f 00000000*      5485 	.word	___ghs_eofn_BusMsgGetTyrePressValidHL
00001013 0153           5486 	.byte	1,83
00001015 02             5487 	.byte	2
00001016 00             5488 	.byte	0
00001017 02             5489 	.byte	2
00001018 00             5490 	.byte	0
00001019 00             5491 	.byte	0
0000101a 00             5492 	.byte	0
0000101b 00             5493 	.byte	0
0000101c 01             5494 	.byte	1
0000101d 01             5495 	.byte	1
0000101e 00             5496 	.byte	0

                                                                      Page 109
                                                              C:\Users\nhuliyap\AppData\Local\Temp\gh_00006oo1.s
0000101f 01             5497 	.byte	1
                        5498 
                        5499 	.section	.debug_frame
                        5500 .LDW_4e69b30:
00000210 00000000*      5501 	.word	.LDW_unq_24-.LDW_unq_23
                        5502 .LDW_unq_23:
00000214 00000000*      5503 	.word	.LDW_4d5e980
00000218 00000000*      5504 	.word	_BusMsgGetTyrePressValidHL
0000021c 00000000*      5505 	.word	___ghs_eofn_BusMsgGetTyrePressValidHL-_BusMsgGetTyrePressValidHL
00000220 01             5506 	.byte	1
00000221 00000000*      5507 	.word	.LDW34
00000225 00             5508 	.byte	0
00000226 00             5509 	.byte	0
00000227 00             5510 	.byte	0
                        5511 .LDW_unq_24:
                        5512 	.section	.debug_line
000006f3 000502         5513 	.byte	0,5,2
000006f6 00000000*      5514 	.word	_BusMsgGetTyrePressValidHL
000006fa 06             5515 	.byte	6
000006fb 03             5516 	.byte	3
000006fc 8102           5517 	.byte	129,2
000006fe 02             5518 	.byte	2
000006ff 00             5519 	.byte	0
00000700 01             5520 	.byte	1
00000701 06             5521 	.byte	6
00000702 000502         5522 	.byte	0,5,2
00000705 00000000*      5523 	.word	.LDWlin31
00000709 02             5524 	.byte	2
0000070a 00             5525 	.byte	0
0000070b 02             5526 	.byte	2
0000070c 02             5527 	.byte	2
0000070d 000101         5528 	.byte	0,1,1
                        5529 	.section	.debug_info
                        5530 .LDW_4d960e8:
00001020 1d             5531 	.byte	29
00001021 00000000*      5532 	.word	.LDW24
00001025 00000000*      5533 	.word	.LDW34
                        5534 
00001029 00             5535 	.byte	0
                        5536 
0000102a 00             5537 	.byte	0
                        5538 
                        5539 .LDW_4d97328:
0000102b 13             5540 	.byte	19
0000102c 4275734d7367   5541 	.strz	"BusMsgPutTyrePressValidHR"
00001032 507574547972 
00001038 655072657373 
0000103e 56616c696448 
00001044 5200 
00001046 8502           5542 	.byte	133,2
00001048 06             5543 	.byte	6
00001049 01             5544 	.byte	1
0000104a 00000000*      5545 	.word	_BusMsgPutTyrePressValidHR
0000104e 00000000*      5546 	.word	___ghs_eofn_BusMsgPutTyrePressValidHR
00001052 0153           5547 	.byte	1,83
00001054 02             5548 	.byte	2
00001055 00             5549 	.byte	0
00001056 02             5550 	.byte	2
00001057 00             5551 	.byte	0
00001058 00             5552 	.byte	0
00001059 00             5553 	.byte	0

                                                                      Page 110
                                                              C:\Users\nhuliyap\AppData\Local\Temp\gh_00006oo1.s
0000105a 00             5554 	.byte	0
0000105b 01             5555 	.byte	1
0000105c 01             5556 	.byte	1
0000105d 00             5557 	.byte	0
0000105e 01             5558 	.byte	1
                        5559 
                        5560 	.section	.debug_frame
                        5561 .LDW_4e69d30:
00000228 00000000*      5562 	.word	.LDW_unq_26-.LDW_unq_25
                        5563 .LDW_unq_25:
0000022c 00000000*      5564 	.word	.LDW_4d5e980
00000230 00000000*      5565 	.word	_BusMsgPutTyrePressValidHR
00000234 00000000*      5566 	.word	___ghs_eofn_BusMsgPutTyrePressValidHR-_BusMsgPutTyrePressValidHR
00000238 01             5567 	.byte	1
00000239 00000000*      5568 	.word	.LDW54
0000023d 00             5569 	.byte	0
0000023e 00             5570 	.byte	0
0000023f 00             5571 	.byte	0
                        5572 .LDW_unq_26:
                        5573 	.section	.debug_line
00000710 000502         5574 	.byte	0,5,2
00000713 00000000*      5575 	.word	_BusMsgPutTyrePressValidHR
00000717 06             5576 	.byte	6
00000718 03             5577 	.byte	3
00000719 8602           5578 	.byte	134,2
0000071b 02             5579 	.byte	2
0000071c 00             5580 	.byte	0
0000071d 01             5581 	.byte	1
0000071e 000502         5582 	.byte	0,5,2
00000721 00000000*      5583 	.word	.LDWlin32
00000725 0b             5584 	.byte	11
00000726 02             5585 	.byte	2
00000727 02             5586 	.byte	2
00000728 000101         5587 	.byte	0,1,1
                        5588 	.section	.debug_info
                        5589 .LDW_4d32aa8:
0000105f 0f             5590 	.byte	15
00001060 627374617465   5591 	.strz	"bstate"
00001066 00 
00001067 8502           5592 	.byte	133,2
00001069 28             5593 	.byte	40
0000106a 01             5594 	.byte	1
0000106b 00000000*      5595 	.word	.LDW_4989f00
0000106f 00             5596 	.byte	0
00001070 0156           5597 	.byte	1,86
                        5598 
                        5599 .LDW_4d96568:
00001072 1d             5600 	.byte	29
00001073 00000000*      5601 	.word	.LDW44
00001077 00000000*      5602 	.word	.LDW54
                        5603 
0000107b 00             5604 	.byte	0
                        5605 
0000107c 00             5606 	.byte	0
                        5607 
                        5608 .LDW_4d97c10:
0000107d 14             5609 	.byte	20
0000107e 4275734d7367   5610 	.strz	"BusMsgGetTyrePressValidHR"
00001084 476574547972 
0000108a 655072657373 
00001090 56616c696448 

                                                                      Page 111
                                                              C:\Users\nhuliyap\AppData\Local\Temp\gh_00006oo1.s
00001096 5200 
00001098 8a02           5611 	.byte	138,2
0000109a 09             5612 	.byte	9
0000109b 01             5613 	.byte	1
0000109c 00000000*      5614 	.word	.LDW_4989f00
000010a0 00000000*      5615 	.word	_BusMsgGetTyrePressValidHR
000010a4 00000000*      5616 	.word	___ghs_eofn_BusMsgGetTyrePressValidHR
000010a8 0153           5617 	.byte	1,83
000010aa 02             5618 	.byte	2
000010ab 00             5619 	.byte	0
000010ac 02             5620 	.byte	2
000010ad 00             5621 	.byte	0
000010ae 00             5622 	.byte	0
000010af 00             5623 	.byte	0
000010b0 00             5624 	.byte	0
000010b1 01             5625 	.byte	1
000010b2 01             5626 	.byte	1
000010b3 00             5627 	.byte	0
000010b4 01             5628 	.byte	1
                        5629 
                        5630 	.section	.debug_frame
                        5631 .LDW_4e69c30:
00000240 00000000*      5632 	.word	.LDW_unq_28-.LDW_unq_27
                        5633 .LDW_unq_27:
00000244 00000000*      5634 	.word	.LDW_4d5e980
00000248 00000000*      5635 	.word	_BusMsgGetTyrePressValidHR
0000024c 00000000*      5636 	.word	___ghs_eofn_BusMsgGetTyrePressValidHR-_BusMsgGetTyrePressValidHR
00000250 01             5637 	.byte	1
00000251 00000000*      5638 	.word	.LDW74
00000255 00             5639 	.byte	0
00000256 00             5640 	.byte	0
00000257 00             5641 	.byte	0
                        5642 .LDW_unq_28:
                        5643 	.section	.debug_line
0000072b 000502         5644 	.byte	0,5,2
0000072e 00000000*      5645 	.word	_BusMsgGetTyrePressValidHR
00000732 06             5646 	.byte	6
00000733 03             5647 	.byte	3
00000734 8a02           5648 	.byte	138,2
00000736 02             5649 	.byte	2
00000737 00             5650 	.byte	0
00000738 01             5651 	.byte	1
00000739 06             5652 	.byte	6
0000073a 000502         5653 	.byte	0,5,2
0000073d 00000000*      5654 	.word	.LDWlin33
00000741 02             5655 	.byte	2
00000742 00             5656 	.byte	0
00000743 02             5657 	.byte	2
00000744 02             5658 	.byte	2
00000745 000101         5659 	.byte	0,1,1
                        5660 	.section	.debug_info
                        5661 .LDW_4d96328:
000010b5 1d             5662 	.byte	29
000010b6 00000000*      5663 	.word	.LDW64
000010ba 00000000*      5664 	.word	.LDW74
                        5665 
000010be 00             5666 	.byte	0
                        5667 
000010bf 00             5668 	.byte	0
                        5669 
                        5670 .LDW_4d97dd8:

                                                                      Page 112
                                                              C:\Users\nhuliyap\AppData\Local\Temp\gh_00006oo1.s
000010c0 13             5671 	.byte	19
000010c1 4275734d7367   5672 	.strz	"BusMsgPutTextflag"
000010c7 507574546578 
000010cd 74666c616700 
000010d3 8e02           5673 	.byte	142,2
000010d5 06             5674 	.byte	6
000010d6 01             5675 	.byte	1
000010d7 00000000*      5676 	.word	_BusMsgPutTextflag
000010db 00000000*      5677 	.word	___ghs_eofn_BusMsgPutTextflag
000010df 0153           5678 	.byte	1,83
000010e1 02             5679 	.byte	2
000010e2 00             5680 	.byte	0
000010e3 02             5681 	.byte	2
000010e4 00             5682 	.byte	0
000010e5 00             5683 	.byte	0
000010e6 00             5684 	.byte	0
000010e7 00             5685 	.byte	0
000010e8 01             5686 	.byte	1
000010e9 01             5687 	.byte	1
000010ea 00             5688 	.byte	0
000010eb 01             5689 	.byte	1
                        5690 
                        5691 	.section	.debug_frame
                        5692 .LDW_4e69cb0:
00000258 00000000*      5693 	.word	.LDW_unq_2a-.LDW_unq_29
                        5694 .LDW_unq_29:
0000025c 00000000*      5695 	.word	.LDW_4d5e980
00000260 00000000*      5696 	.word	_BusMsgPutTextflag
00000264 00000000*      5697 	.word	___ghs_eofn_BusMsgPutTextflag-_BusMsgPutTextflag
00000268 01             5698 	.byte	1
00000269 00000000*      5699 	.word	.LDW94
0000026d 00             5700 	.byte	0
0000026e 00             5701 	.byte	0
0000026f 00             5702 	.byte	0
                        5703 .LDW_unq_2a:
                        5704 	.section	.debug_line
00000748 000502         5705 	.byte	0,5,2
0000074b 00000000*      5706 	.word	_BusMsgPutTextflag
0000074f 03             5707 	.byte	3
00000750 8e02           5708 	.byte	142,2
00000752 02             5709 	.byte	2
00000753 00             5710 	.byte	0
00000754 01             5711 	.byte	1
00000755 06             5712 	.byte	6
00000756 14             5713 	.byte	20
00000757 000502         5714 	.byte	0,5,2
0000075a 00000000*      5715 	.word	.LDWlin34
0000075e 0b             5716 	.byte	11
0000075f 0b             5717 	.byte	11
00000760 000502         5718 	.byte	0,5,2
00000763 00000000*      5719 	.word	.LDWlin35
00000767 0b             5720 	.byte	11
00000768 02             5721 	.byte	2
00000769 00             5722 	.byte	0
0000076a 0b             5723 	.byte	11
0000076b 02             5724 	.byte	2
0000076c 02             5725 	.byte	2
0000076d 000101         5726 	.byte	0,1,1
                        5727 	.section	.debug_info
                        5728 .LDW_4d32b58:
000010ec 0f             5729 	.byte	15

                                                                      Page 113
                                                              C:\Users\nhuliyap\AppData\Local\Temp\gh_00006oo1.s
000010ed 7563496400     5730 	.strz	"ucId"
000010f2 8e02           5731 	.byte	142,2
000010f4 1e             5732 	.byte	30
000010f5 01             5733 	.byte	1
000010f6 00000000*      5734 	.word	.LDW_4c87210
000010fa 00             5735 	.byte	0
000010fb 0156           5736 	.byte	1,86
                        5737 
                        5738 .LDW_4d32e70:
000010fd 0f             5739 	.byte	15
000010fe 627374617465   5740 	.strz	"bstate"
00001104 00 
00001105 8e02           5741 	.byte	142,2
00001107 2c             5742 	.byte	44
00001108 01             5743 	.byte	1
00001109 00000000*      5744 	.word	.LDW_4989f00
0000110d 00             5745 	.byte	0
0000110e 0157           5746 	.byte	1,87
                        5747 
                        5748 .LDW_4d96448:
00001110 1d             5749 	.byte	29
00001111 00000000*      5750 	.word	.LDW84
00001115 00000000*      5751 	.word	.LDW94
                        5752 
00001119 00             5753 	.byte	0
                        5754 
0000111a 00             5755 	.byte	0
                        5756 
                        5757 .LDW_4d97620:
0000111b 14             5758 	.byte	20
0000111c 4275734d7367   5759 	.strz	"BusMsgGetTextflag"
00001122 476574546578 
00001128 74666c616700 
0000112e 9702           5760 	.byte	151,2
00001130 09             5761 	.byte	9
00001131 01             5762 	.byte	1
00001132 00000000*      5763 	.word	.LDW_4989f00
00001136 00000000*      5764 	.word	_BusMsgGetTextflag
0000113a 00000000*      5765 	.word	___ghs_eofn_BusMsgGetTextflag
0000113e 0153           5766 	.byte	1,83
00001140 02             5767 	.byte	2
00001141 00             5768 	.byte	0
00001142 02             5769 	.byte	2
00001143 00             5770 	.byte	0
00001144 00             5771 	.byte	0
00001145 00             5772 	.byte	0
00001146 00             5773 	.byte	0
00001147 01             5774 	.byte	1
00001148 01             5775 	.byte	1
00001149 00             5776 	.byte	0
0000114a 01             5777 	.byte	1
                        5778 
                        5779 	.section	.debug_frame
                        5780 .LDW_4e69ff0:
00000270 00000000*      5781 	.word	.LDW_unq_2c-.LDW_unq_2b
                        5782 .LDW_unq_2b:
00000274 00000000*      5783 	.word	.LDW_4d5e980
00000278 00000000*      5784 	.word	_BusMsgGetTextflag
0000027c 00000000*      5785 	.word	___ghs_eofn_BusMsgGetTextflag-_BusMsgGetTextflag
00000280 01             5786 	.byte	1
00000281 00000000*      5787 	.word	.LDW15

                                                                      Page 114
                                                              C:\Users\nhuliyap\AppData\Local\Temp\gh_00006oo1.s
00000285 00             5788 	.byte	0
00000286 00             5789 	.byte	0
00000287 00             5790 	.byte	0
                        5791 .LDW_unq_2c:
                        5792 	.section	.debug_line
00000770 000502         5793 	.byte	0,5,2
00000773 00000000*      5794 	.word	_BusMsgGetTextflag
00000777 03             5795 	.byte	3
00000778 9702           5796 	.byte	151,2
0000077a 02             5797 	.byte	2
0000077b 00             5798 	.byte	0
0000077c 01             5799 	.byte	1
0000077d 06             5800 	.byte	6
0000077e 03             5801 	.byte	3
0000077f 05             5802 	.byte	5
00000780 02             5803 	.byte	2
00000781 02             5804 	.byte	2
00000782 01             5805 	.byte	1
00000783 000502         5806 	.byte	0,5,2
00000786 00000000*      5807 	.word	.LDWlin36
0000078a 0b             5808 	.byte	11
0000078b 0b             5809 	.byte	11
0000078c 000502         5810 	.byte	0,5,2
0000078f 00000000*      5811 	.word	.LDWlin37
00000793 0b             5812 	.byte	11
00000794 02             5813 	.byte	2
00000795 00             5814 	.byte	0
00000796 0c             5815 	.byte	12
00000797 02             5816 	.byte	2
00000798 02             5817 	.byte	2
00000799 000101         5818 	.byte	0,1,1
                        5819 	.section	.debug_info
                        5820 .LDW_4d32840:
0000114b 0f             5821 	.byte	15
0000114c 7563496400     5822 	.strz	"ucId"
00001151 9702           5823 	.byte	151,2
00001153 21             5824 	.byte	33
00001154 01             5825 	.byte	1
00001155 00000000*      5826 	.word	.LDW_4c87210
00001159 00             5827 	.byte	0
0000115a 0156           5828 	.byte	1,86
                        5829 
                        5830 .LDW_4d963e8:
0000115c 1d             5831 	.byte	29
0000115d 00000000*      5832 	.word	.LDW05
00001161 00000000*      5833 	.word	.LDW15
                        5834 
                        5835 .LDW_4d32cb8:
00001165 04             5836 	.byte	4
00001166 6248656c7000   5837 	.strz	"bHelp"
0000116c 9902           5838 	.byte	153,2
0000116e 0b             5839 	.byte	11
0000116f 01             5840 	.byte	1
00001170 00000000*      5841 	.word	.LDW_4989f00
00001174 00             5842 	.byte	0
00001175 00             5843 	.byte	0
00001176 015a           5844 	.byte	1,90
                        5845 
00001178 00             5846 	.byte	0
                        5847 
00001179 00             5848 	.byte	0

                                                                      Page 115
                                                              C:\Users\nhuliyap\AppData\Local\Temp\gh_00006oo1.s
                        5849 
                        5850 .LDW_4d974f0:
0000117a 13             5851 	.byte	19
0000117b 4275734d7367   5852 	.strz	"BusMsgDoTeleFinished"
00001181 446f54656c65 
00001187 46696e697368 
0000118d 656400 
00001190 a502           5853 	.byte	165,2
00001192 06             5854 	.byte	6
00001193 01             5855 	.byte	1
00001194 00000000*      5856 	.word	_BusMsgDoTeleFinished
00001198 00000000*      5857 	.word	___ghs_eofn_BusMsgDoTeleFinished
0000119c 0153           5858 	.byte	1,83
0000119e 828080800a     5859 	.byte	130,128,128,128,10
000011a3 08             5860 	.byte	8
000011a4 03             5861 	.byte	3
000011a5 08             5862 	.byte	8
000011a6 00             5863 	.byte	0
000011a7 00             5864 	.byte	0
000011a8 00             5865 	.byte	0
000011a9 01             5866 	.byte	1
000011aa 01             5867 	.byte	1
000011ab 00             5868 	.byte	0
000011ac 01             5869 	.byte	1
                        5870 
                        5871 	.section	.debug_frame
                        5872 .LDW_4ee41c8:
00000288 00000000*      5873 	.word	.LDW_unq_2e-.LDW_unq_2d
                        5874 .LDW_unq_2d:
0000028c 00000000*      5875 	.word	.LDW_4d5e980
00000290 00000000*      5876 	.word	_BusMsgDoTeleFinished
00000294 00000000*      5877 	.word	___ghs_eofn_BusMsgDoTeleFinished-_BusMsgDoTeleFinished
00000298 44             5878 	.byte	68
00000299 9f             5879 	.byte	159
0000029a 00             5880 	.byte	0
0000029b 40             5881 	.byte	64
0000029c 9d             5882 	.byte	157
0000029d 04             5883 	.byte	4
0000029e 01             5884 	.byte	1
0000029f 00000000*      5885 	.word	.LDW76
000002a3 00             5886 	.byte	0
                        5887 .LDW_unq_2e:
                        5888 	.section	.debug_line
0000079c 000502         5889 	.byte	0,5,2
0000079f 00000000*      5890 	.word	_BusMsgDoTeleFinished
000007a3 03             5891 	.byte	3
000007a4 a402           5892 	.byte	164,2
000007a6 02             5893 	.byte	2
000007a7 00             5894 	.byte	0
000007a8 01             5895 	.byte	1
000007a9 06             5896 	.byte	6
000007aa 03             5897 	.byte	3
000007ab 05             5898 	.byte	5
000007ac 02             5899 	.byte	2
000007ad 04             5900 	.byte	4
000007ae 01             5901 	.byte	1
000007af 000502         5902 	.byte	0,5,2
000007b2 00000000*      5903 	.word	.LDWlin139
000007b6 03             5904 	.byte	3
000007b7 04             5905 	.byte	4
000007b8 02             5906 	.byte	2

                                                                      Page 116
                                                              C:\Users\nhuliyap\AppData\Local\Temp\gh_00006oo1.s
000007b9 00             5907 	.byte	0
000007ba 01             5908 	.byte	1
000007bb 000502         5909 	.byte	0,5,2
000007be 00000000*      5910 	.word	.LDWlin140
000007c2 03             5911 	.byte	3
000007c3 08             5912 	.byte	8
000007c4 02             5913 	.byte	2
000007c5 00             5914 	.byte	0
000007c6 01             5915 	.byte	1
000007c7 0b             5916 	.byte	11
000007c8 0c             5917 	.byte	12
000007c9 000502         5918 	.byte	0,5,2
000007cc 00000000*      5919 	.word	.LDWlin141
000007d0 03             5920 	.byte	3
000007d1 79             5921 	.byte	121
000007d2 02             5922 	.byte	2
000007d3 00             5923 	.byte	0
000007d4 01             5924 	.byte	1
000007d5 0c             5925 	.byte	12
000007d6 000502         5926 	.byte	0,5,2
000007d9 00000000*      5927 	.word	.LDWlin142
000007dd 03             5928 	.byte	3
000007de 06             5929 	.byte	6
000007df 02             5930 	.byte	2
000007e0 00             5931 	.byte	0
000007e1 01             5932 	.byte	1
000007e2 0c             5933 	.byte	12
000007e3 06             5934 	.byte	6
000007e4 13             5935 	.byte	19
000007e5 03             5936 	.byte	3
000007e6 78             5937 	.byte	120
000007e7 02             5938 	.byte	2
000007e8 00             5939 	.byte	0
000007e9 01             5940 	.byte	1
000007ea 03             5941 	.byte	3
000007eb 07             5942 	.byte	7
000007ec 02             5943 	.byte	2
000007ed 00             5944 	.byte	0
000007ee 01             5945 	.byte	1
000007ef 06             5946 	.byte	6
000007f0 000502         5947 	.byte	0,5,2
000007f3 00000000*      5948 	.word	.LDWlin143
000007f7 0c             5949 	.byte	12
000007f8 02             5950 	.byte	2
000007f9 00             5951 	.byte	0
000007fa 0b             5952 	.byte	11
000007fb 02             5953 	.byte	2
000007fc 00             5954 	.byte	0
000007fd 0c             5955 	.byte	12
000007fe 000502         5956 	.byte	0,5,2
00000801 00000000*      5957 	.word	.LDWlin144
00000805 0b             5958 	.byte	11
00000806 0b             5959 	.byte	11
00000807 000502         5960 	.byte	0,5,2
0000080a 00000000*      5961 	.word	.LDWlin145
0000080e 0c             5962 	.byte	12
0000080f 000502         5963 	.byte	0,5,2
00000812 00000000*      5964 	.word	.LDWlin146
00000816 0b             5965 	.byte	11
00000817 0c             5966 	.byte	12
00000818 000502         5967 	.byte	0,5,2

                                                                      Page 117
                                                              C:\Users\nhuliyap\AppData\Local\Temp\gh_00006oo1.s
0000081b 00000000*      5968 	.word	.LDWlin147
0000081f 0b             5969 	.byte	11
00000820 02             5970 	.byte	2
00000821 00             5971 	.byte	0
00000822 0c             5972 	.byte	12
00000823 000502         5973 	.byte	0,5,2
00000826 00000000*      5974 	.word	.LDWlin148
0000082a 0c             5975 	.byte	12
0000082b 000502         5976 	.byte	0,5,2
0000082e 00000000*      5977 	.word	.LDWlin149
00000832 0c             5978 	.byte	12
00000833 000502         5979 	.byte	0,5,2
00000836 00000000*      5980 	.word	.LDWlin150
0000083a 0c             5981 	.byte	12
0000083b 000502         5982 	.byte	0,5,2
0000083e 00000000*      5983 	.word	.LDWlin151
00000842 0c             5984 	.byte	12
00000843 0b             5985 	.byte	11
00000844 0c             5986 	.byte	12
00000845 000502         5987 	.byte	0,5,2
00000848 00000000*      5988 	.word	.LDWlin152
0000084c 0c             5989 	.byte	12
0000084d 0b             5990 	.byte	11
0000084e 000502         5991 	.byte	0,5,2
00000851 00000000*      5992 	.word	.LDWlin153
00000855 0c             5993 	.byte	12
00000856 000502         5994 	.byte	0,5,2
00000859 00000000*      5995 	.word	.LDWlin154
0000085d 0b             5996 	.byte	11
0000085e 0c             5997 	.byte	12
0000085f 000502         5998 	.byte	0,5,2
00000862 00000000*      5999 	.word	.LDWlin155
00000866 0b             6000 	.byte	11
00000867 02             6001 	.byte	2
00000868 00             6002 	.byte	0
00000869 0c             6003 	.byte	12
0000086a 000502         6004 	.byte	0,5,2
0000086d 00000000*      6005 	.word	.LDWlin156
00000871 0b             6006 	.byte	11
00000872 0b             6007 	.byte	11
00000873 0b             6008 	.byte	11
00000874 02             6009 	.byte	2
00000875 00             6010 	.byte	0
00000876 0b             6011 	.byte	11
00000877 02             6012 	.byte	2
00000878 00             6013 	.byte	0
00000879 0c             6014 	.byte	12
0000087a 000502         6015 	.byte	0,5,2
0000087d 00000000*      6016 	.word	.LDWlin157
00000881 0b             6017 	.byte	11
00000882 000502         6018 	.byte	0,5,2
00000885 00000000*      6019 	.word	.LDWlin158
00000889 03             6020 	.byte	3
0000088a 05             6021 	.byte	5
0000088b 02             6022 	.byte	2
0000088c 00             6023 	.byte	0
0000088d 01             6024 	.byte	1
0000088e 0c             6025 	.byte	12
0000088f 000502         6026 	.byte	0,5,2
00000892 00000000*      6027 	.word	.LDWlin159
00000896 0b             6028 	.byte	11

                                                                      Page 118
                                                              C:\Users\nhuliyap\AppData\Local\Temp\gh_00006oo1.s
00000897 000502         6029 	.byte	0,5,2
0000089a 00000000*      6030 	.word	.LDWlin160
0000089e 0b             6031 	.byte	11
0000089f 000502         6032 	.byte	0,5,2
000008a2 00000000*      6033 	.word	.LDWlin161
000008a6 0b             6034 	.byte	11
000008a7 0b             6035 	.byte	11
000008a8 0b             6036 	.byte	11
000008a9 000502         6037 	.byte	0,5,2
000008ac 00000000*      6038 	.word	.LDWlin162
000008b0 0c             6039 	.byte	12
000008b1 000502         6040 	.byte	0,5,2
000008b4 00000000*      6041 	.word	.LDWlin163
000008b8 0b             6042 	.byte	11
000008b9 0c             6043 	.byte	12
000008ba 000502         6044 	.byte	0,5,2
000008bd 00000000*      6045 	.word	.LDWlin164
000008c1 0c             6046 	.byte	12
000008c2 000502         6047 	.byte	0,5,2
000008c5 00000000*      6048 	.word	.LDWlin165
000008c9 0b             6049 	.byte	11
000008ca 0b             6050 	.byte	11
000008cb 0b             6051 	.byte	11
000008cc 000502         6052 	.byte	0,5,2
000008cf 00000000*      6053 	.word	.LDWlin166
000008d3 0c             6054 	.byte	12
000008d4 000502         6055 	.byte	0,5,2
000008d7 00000000*      6056 	.word	.LDWlin167
000008db 0b             6057 	.byte	11
000008dc 02             6058 	.byte	2
000008dd 00             6059 	.byte	0
000008de 0b             6060 	.byte	11
000008df 02             6061 	.byte	2
000008e0 00             6062 	.byte	0
000008e1 0c             6063 	.byte	12
000008e2 000502         6064 	.byte	0,5,2
000008e5 00000000*      6065 	.word	.LDWlin168
000008e9 0b             6066 	.byte	11
000008ea 000502         6067 	.byte	0,5,2
000008ed 00000000*      6068 	.word	.LDWlin169
000008f1 03             6069 	.byte	3
000008f2 05             6070 	.byte	5
000008f3 02             6071 	.byte	2
000008f4 00             6072 	.byte	0
000008f5 01             6073 	.byte	1
000008f6 0c             6074 	.byte	12
000008f7 000502         6075 	.byte	0,5,2
000008fa 00000000*      6076 	.word	.LDWlin170
000008fe 0b             6077 	.byte	11
000008ff 000502         6078 	.byte	0,5,2
00000902 00000000*      6079 	.word	.LDWlin171
00000906 0b             6080 	.byte	11
00000907 000502         6081 	.byte	0,5,2
0000090a 00000000*      6082 	.word	.LDWlin172
0000090e 0b             6083 	.byte	11
0000090f 0b             6084 	.byte	11
00000910 0b             6085 	.byte	11
00000911 000502         6086 	.byte	0,5,2
00000914 00000000*      6087 	.word	.LDWlin173
00000918 0c             6088 	.byte	12
00000919 000502         6089 	.byte	0,5,2

                                                                      Page 119
                                                              C:\Users\nhuliyap\AppData\Local\Temp\gh_00006oo1.s
0000091c 00000000*      6090 	.word	.LDWlin174
00000920 0b             6091 	.byte	11
00000921 0c             6092 	.byte	12
00000922 000502         6093 	.byte	0,5,2
00000925 00000000*      6094 	.word	.LDWlin175
00000929 0c             6095 	.byte	12
0000092a 000502         6096 	.byte	0,5,2
0000092d 00000000*      6097 	.word	.LDWlin176
00000931 0b             6098 	.byte	11
00000932 0b             6099 	.byte	11
00000933 0b             6100 	.byte	11
00000934 000502         6101 	.byte	0,5,2
00000937 00000000*      6102 	.word	.LDWlin177
0000093b 0c             6103 	.byte	12
0000093c 000502         6104 	.byte	0,5,2
0000093f 00000000*      6105 	.word	.LDWlin178
00000943 0b             6106 	.byte	11
00000944 02             6107 	.byte	2
00000945 00             6108 	.byte	0
00000946 0b             6109 	.byte	11
00000947 02             6110 	.byte	2
00000948 00             6111 	.byte	0
00000949 0c             6112 	.byte	12
0000094a 000502         6113 	.byte	0,5,2
0000094d 00000000*      6114 	.word	.LDWlin179
00000951 0b             6115 	.byte	11
00000952 000502         6116 	.byte	0,5,2
00000955 00000000*      6117 	.word	.LDWlin180
00000959 03             6118 	.byte	3
0000095a 05             6119 	.byte	5
0000095b 02             6120 	.byte	2
0000095c 00             6121 	.byte	0
0000095d 01             6122 	.byte	1
0000095e 0c             6123 	.byte	12
0000095f 000502         6124 	.byte	0,5,2
00000962 00000000*      6125 	.word	.LDWlin181
00000966 0b             6126 	.byte	11
00000967 000502         6127 	.byte	0,5,2
0000096a 00000000*      6128 	.word	.LDWlin182
0000096e 0b             6129 	.byte	11
0000096f 000502         6130 	.byte	0,5,2
00000972 00000000*      6131 	.word	.LDWlin183
00000976 0b             6132 	.byte	11
00000977 0b             6133 	.byte	11
00000978 0b             6134 	.byte	11
00000979 000502         6135 	.byte	0,5,2
0000097c 00000000*      6136 	.word	.LDWlin184
00000980 0c             6137 	.byte	12
00000981 000502         6138 	.byte	0,5,2
00000984 00000000*      6139 	.word	.LDWlin185
00000988 0b             6140 	.byte	11
00000989 0c             6141 	.byte	12
0000098a 000502         6142 	.byte	0,5,2
0000098d 00000000*      6143 	.word	.LDWlin186
00000991 0c             6144 	.byte	12
00000992 000502         6145 	.byte	0,5,2
00000995 00000000*      6146 	.word	.LDWlin187
00000999 0b             6147 	.byte	11
0000099a 0b             6148 	.byte	11
0000099b 0b             6149 	.byte	11
0000099c 000502         6150 	.byte	0,5,2

                                                                      Page 120
                                                              C:\Users\nhuliyap\AppData\Local\Temp\gh_00006oo1.s
0000099f 00000000*      6151 	.word	.LDWlin188
000009a3 0c             6152 	.byte	12
000009a4 000502         6153 	.byte	0,5,2
000009a7 00000000*      6154 	.word	.LDWlin189
000009ab 0b             6155 	.byte	11
000009ac 02             6156 	.byte	2
000009ad 00             6157 	.byte	0
000009ae 0b             6158 	.byte	11
000009af 02             6159 	.byte	2
000009b0 00             6160 	.byte	0
000009b1 0c             6161 	.byte	12
000009b2 000502         6162 	.byte	0,5,2
000009b5 00000000*      6163 	.word	.LDWlin190
000009b9 0b             6164 	.byte	11
000009ba 000502         6165 	.byte	0,5,2
000009bd 00000000*      6166 	.word	.LDWlin191
000009c1 03             6167 	.byte	3
000009c2 05             6168 	.byte	5
000009c3 02             6169 	.byte	2
000009c4 00             6170 	.byte	0
000009c5 01             6171 	.byte	1
000009c6 0c             6172 	.byte	12
000009c7 000502         6173 	.byte	0,5,2
000009ca 00000000*      6174 	.word	.LDWlin192
000009ce 0b             6175 	.byte	11
000009cf 000502         6176 	.byte	0,5,2
000009d2 00000000*      6177 	.word	.LDWlin193
000009d6 0b             6178 	.byte	11
000009d7 000502         6179 	.byte	0,5,2
000009da 00000000*      6180 	.word	.LDWlin194
000009de 0b             6181 	.byte	11
000009df 0b             6182 	.byte	11
000009e0 0b             6183 	.byte	11
000009e1 000502         6184 	.byte	0,5,2
000009e4 00000000*      6185 	.word	.LDWlin195
000009e8 0c             6186 	.byte	12
000009e9 000502         6187 	.byte	0,5,2
000009ec 00000000*      6188 	.word	.LDWlin196
000009f0 0b             6189 	.byte	11
000009f1 0c             6190 	.byte	12
000009f2 000502         6191 	.byte	0,5,2
000009f5 00000000*      6192 	.word	.LDWlin197
000009f9 0c             6193 	.byte	12
000009fa 000502         6194 	.byte	0,5,2
000009fd 00000000*      6195 	.word	.LDWlin198
00000a01 0b             6196 	.byte	11
00000a02 0b             6197 	.byte	11
00000a03 0b             6198 	.byte	11
00000a04 000502         6199 	.byte	0,5,2
00000a07 00000000*      6200 	.word	.LDWlin199
00000a0b 0c             6201 	.byte	12
00000a0c 000502         6202 	.byte	0,5,2
00000a0f 00000000*      6203 	.word	.LDWlin200
00000a13 0b             6204 	.byte	11
00000a14 02             6205 	.byte	2
00000a15 00             6206 	.byte	0
00000a16 0b             6207 	.byte	11
00000a17 02             6208 	.byte	2
00000a18 00             6209 	.byte	0
00000a19 03             6210 	.byte	3
00000a1a 07             6211 	.byte	7

                                                                      Page 121
                                                              C:\Users\nhuliyap\AppData\Local\Temp\gh_00006oo1.s
00000a1b 02             6212 	.byte	2
00000a1c 00             6213 	.byte	0
00000a1d 01             6214 	.byte	1
00000a1e 02             6215 	.byte	2
00000a1f 04             6216 	.byte	4
00000a20 000101         6217 	.byte	0,1,1
                        6218 	.section	.debug_info
                        6219 .LDW_4d96388:
000011ad 1d             6220 	.byte	29
000011ae 00000000*      6221 	.word	.LDW66
000011b2 00000000*      6222 	.word	.LDW76
                        6223 
                        6224 .LDW_4d32738:
000011b6 04             6225 	.byte	4
000011b7 756354656d70   6226 	.strz	"ucTemp1"
000011bd 3100 
000011bf a602           6227 	.byte	166,2
000011c1 09             6228 	.byte	9
000011c2 01             6229 	.byte	1
000011c3 00000000*      6230 	.word	.LDW_4c87210
000011c7 00             6231 	.byte	0
000011c8 00             6232 	.byte	0
000011c9 0157           6233 	.byte	1,87
                        6234 
                        6235 .LDW_4d32d68:
000011cb 05             6236 	.byte	5
000011cc 756352654572   6237 	.strz	"ucReErrCount"
000011d2 72436f756e74 
000011d8 00 
000011d9 a702           6238 	.byte	167,2
000011db 09             6239 	.byte	9
000011dc 01             6240 	.byte	1
000011dd 00000000*      6241 	.word	.LDW_4c87210
000011e1 00             6242 	.byte	0
000011e2 00             6243 	.byte	0
                        6244 
                        6245 .LDW_4d32bb0:
000011e3 04             6246 	.byte	4
000011e4 757354656d70   6247 	.strz	"usTempNoRxTime"
000011ea 4e6f52785469 
000011f0 6d6500 
000011f3 a802           6248 	.byte	168,2
000011f5 0a             6249 	.byte	10
000011f6 01             6250 	.byte	1
000011f7 00000000*      6251 	.word	.LDW_4d32d10
000011fb 00             6252 	.byte	0
000011fc 00             6253 	.byte	0
000011fd 016d           6254 	.byte	1,109
                        6255 
000011ff 00             6256 	.byte	0
                        6257 
00001200 00             6258 	.byte	0
                        6259 
                        6260 .LDW_4d97160:
00001201 13             6261 	.byte	19
00001202 4275734d7367   6262 	.strz	"BusMsgDetermineTemperatures"
00001208 44657465726d 
0000120e 696e6554656d 
00001214 706572617475 
0000121a 72657300 
0000121e e203           6263 	.byte	226,3

                                                                      Page 122
                                                              C:\Users\nhuliyap\AppData\Local\Temp\gh_00006oo1.s
00001220 06             6264 	.byte	6
00001221 01             6265 	.byte	1
00001222 00000000*      6266 	.word	_BusMsgDetermineTemperatures
00001226 00000000*      6267 	.word	___ghs_eofn_BusMsgDetermineTemperatures
0000122a 0153           6268 	.byte	1,83
0000122c 828080800a     6269 	.byte	130,128,128,128,10
00001231 08             6270 	.byte	8
00001232 03             6271 	.byte	3
00001233 08             6272 	.byte	8
00001234 00             6273 	.byte	0
00001235 00             6274 	.byte	0
00001236 00             6275 	.byte	0
00001237 01             6276 	.byte	1
00001238 01             6277 	.byte	1
00001239 00             6278 	.byte	0
0000123a 01             6279 	.byte	1
                        6280 
                        6281 	.section	.debug_frame
                        6282 .LDW_4ee4008:
000002a4 00000000*      6283 	.word	.LDW_unq_30-.LDW_unq_2f
                        6284 .LDW_unq_2f:
000002a8 00000000*      6285 	.word	.LDW_4d5e980
000002ac 00000000*      6286 	.word	_BusMsgDetermineTemperatures
000002b0 00000000*      6287 	.word	___ghs_eofn_BusMsgDetermineTemperatures-_BusMsgDetermineTemperatures
000002b4 44             6288 	.byte	68
000002b5 9f             6289 	.byte	159
000002b6 00             6290 	.byte	0
000002b7 40             6291 	.byte	64
000002b8 9d             6292 	.byte	157
000002b9 04             6293 	.byte	4
000002ba 01             6294 	.byte	1
000002bb 00000000*      6295 	.word	.LDW96
000002bf 00             6296 	.byte	0
                        6297 .LDW_unq_30:
                        6298 	.section	.debug_line
00000a23 000502         6299 	.byte	0,5,2
00000a26 00000000*      6300 	.word	_BusMsgDetermineTemperatures
00000a2a 03             6301 	.byte	3
00000a2b e103           6302 	.byte	225,3
00000a2d 02             6303 	.byte	2
00000a2e 00             6304 	.byte	0
00000a2f 01             6305 	.byte	1
00000a30 06             6306 	.byte	6
00000a31 03             6307 	.byte	3
00000a32 05             6308 	.byte	5
00000a33 02             6309 	.byte	2
00000a34 04             6310 	.byte	4
00000a35 01             6311 	.byte	1
00000a36 000502         6312 	.byte	0,5,2
00000a39 00000000*      6313 	.word	.LDWlin201
00000a3d 0c             6314 	.byte	12
00000a3e 000502         6315 	.byte	0,5,2
00000a41 00000000*      6316 	.word	.LDWlin202
00000a45 03             6317 	.byte	3
00000a46 04             6318 	.byte	4
00000a47 02             6319 	.byte	2
00000a48 00             6320 	.byte	0
00000a49 01             6321 	.byte	1
00000a4a 0b             6322 	.byte	11
00000a4b 0c             6323 	.byte	12
00000a4c 000502         6324 	.byte	0,5,2

                                                                      Page 123
                                                              C:\Users\nhuliyap\AppData\Local\Temp\gh_00006oo1.s
00000a4f 00000000*      6325 	.word	.LDWlin203
00000a53 03             6326 	.byte	3
00000a54 7a             6327 	.byte	122
00000a55 02             6328 	.byte	2
00000a56 00             6329 	.byte	0
00000a57 01             6330 	.byte	1
00000a58 0c             6331 	.byte	12
00000a59 000502         6332 	.byte	0,5,2
00000a5c 00000000*      6333 	.word	.LDWlin204
00000a60 03             6334 	.byte	3
00000a61 05             6335 	.byte	5
00000a62 02             6336 	.byte	2
00000a63 00             6337 	.byte	0
00000a64 01             6338 	.byte	1
00000a65 0c             6339 	.byte	12
00000a66 000502         6340 	.byte	0,5,2
00000a69 00000000*      6341 	.word	.LDWlin205
00000a6d 0b             6342 	.byte	11
00000a6e 02             6343 	.byte	2
00000a6f 00             6344 	.byte	0
00000a70 0b             6345 	.byte	11
00000a71 02             6346 	.byte	2
00000a72 00             6347 	.byte	0
00000a73 0c             6348 	.byte	12
00000a74 000502         6349 	.byte	0,5,2
00000a77 00000000*      6350 	.word	.LDWlin206
00000a7b 0c             6351 	.byte	12
00000a7c 000502         6352 	.byte	0,5,2
00000a7f 00000000*      6353 	.word	.LDWlin207
00000a83 0b             6354 	.byte	11
00000a84 0c             6355 	.byte	12
00000a85 000502         6356 	.byte	0,5,2
00000a88 00000000*      6357 	.word	.LDWlin208
00000a8c 0b             6358 	.byte	11
00000a8d 02             6359 	.byte	2
00000a8e 00             6360 	.byte	0
00000a8f 0c             6361 	.byte	12
00000a90 000502         6362 	.byte	0,5,2
00000a93 00000000*      6363 	.word	.LDWlin209
00000a97 0b             6364 	.byte	11
00000a98 000502         6365 	.byte	0,5,2
00000a9b 00000000*      6366 	.word	.LDWlin210
00000a9f 03             6367 	.byte	3
00000aa0 05             6368 	.byte	5
00000aa1 02             6369 	.byte	2
00000aa2 00             6370 	.byte	0
00000aa3 01             6371 	.byte	1
00000aa4 0c             6372 	.byte	12
00000aa5 000502         6373 	.byte	0,5,2
00000aa8 00000000*      6374 	.word	.LDWlin211
00000aac 0b             6375 	.byte	11
00000aad 0b             6376 	.byte	11
00000aae 0b             6377 	.byte	11
00000aaf 000502         6378 	.byte	0,5,2
00000ab2 00000000*      6379 	.word	.LDWlin212
00000ab6 0b             6380 	.byte	11
00000ab7 13             6381 	.byte	19
00000ab8 02             6382 	.byte	2
00000ab9 00             6383 	.byte	0
00000aba 0c             6384 	.byte	12
00000abb 000502         6385 	.byte	0,5,2

                                                                      Page 124
                                                              C:\Users\nhuliyap\AppData\Local\Temp\gh_00006oo1.s
00000abe 00000000*      6386 	.word	.LDWlin213
00000ac2 0b             6387 	.byte	11
00000ac3 000502         6388 	.byte	0,5,2
00000ac6 00000000*      6389 	.word	.LDWlin214
00000aca 03             6390 	.byte	3
00000acb 05             6391 	.byte	5
00000acc 02             6392 	.byte	2
00000acd 00             6393 	.byte	0
00000ace 01             6394 	.byte	1
00000acf 0c             6395 	.byte	12
00000ad0 000502         6396 	.byte	0,5,2
00000ad3 00000000*      6397 	.word	.LDWlin215
00000ad7 0b             6398 	.byte	11
00000ad8 0b             6399 	.byte	11
00000ad9 0b             6400 	.byte	11
00000ada 000502         6401 	.byte	0,5,2
00000add 00000000*      6402 	.word	.LDWlin216
00000ae1 0b             6403 	.byte	11
00000ae2 13             6404 	.byte	19
00000ae3 02             6405 	.byte	2
00000ae4 00             6406 	.byte	0
00000ae5 0c             6407 	.byte	12
00000ae6 000502         6408 	.byte	0,5,2
00000ae9 00000000*      6409 	.word	.LDWlin217
00000aed 0b             6410 	.byte	11
00000aee 000502         6411 	.byte	0,5,2
00000af1 00000000*      6412 	.word	.LDWlin218
00000af5 03             6413 	.byte	3
00000af6 05             6414 	.byte	5
00000af7 02             6415 	.byte	2
00000af8 00             6416 	.byte	0
00000af9 01             6417 	.byte	1
00000afa 0c             6418 	.byte	12
00000afb 000502         6419 	.byte	0,5,2
00000afe 00000000*      6420 	.word	.LDWlin219
00000b02 0b             6421 	.byte	11
00000b03 0b             6422 	.byte	11
00000b04 0b             6423 	.byte	11
00000b05 000502         6424 	.byte	0,5,2
00000b08 00000000*      6425 	.word	.LDWlin220
00000b0c 0b             6426 	.byte	11
00000b0d 13             6427 	.byte	19
00000b0e 02             6428 	.byte	2
00000b0f 00             6429 	.byte	0
00000b10 0c             6430 	.byte	12
00000b11 000502         6431 	.byte	0,5,2
00000b14 00000000*      6432 	.word	.LDWlin221
00000b18 0b             6433 	.byte	11
00000b19 000502         6434 	.byte	0,5,2
00000b1c 00000000*      6435 	.word	.LDWlin222
00000b20 03             6436 	.byte	3
00000b21 05             6437 	.byte	5
00000b22 02             6438 	.byte	2
00000b23 00             6439 	.byte	0
00000b24 01             6440 	.byte	1
00000b25 0c             6441 	.byte	12
00000b26 000502         6442 	.byte	0,5,2
00000b29 00000000*      6443 	.word	.LDWlin223
00000b2d 0b             6444 	.byte	11
00000b2e 0b             6445 	.byte	11
00000b2f 0b             6446 	.byte	11

                                                                      Page 125
                                                              C:\Users\nhuliyap\AppData\Local\Temp\gh_00006oo1.s
00000b30 000502         6447 	.byte	0,5,2
00000b33 00000000*      6448 	.word	.LDWlin224
00000b37 0b             6449 	.byte	11
00000b38 000502         6450 	.byte	0,5,2
00000b3b 00000000*      6451 	.word	.LDWlin225
00000b3f 0b             6452 	.byte	11
00000b40 02             6453 	.byte	2
00000b41 00             6454 	.byte	0
00000b42 0b             6455 	.byte	11
00000b43 02             6456 	.byte	2
00000b44 04             6457 	.byte	4
00000b45 000101         6458 	.byte	0,1,1
                        6459 	.section	.debug_info
                        6460 .LDW_4d961d8:
0000123b 1d             6461 	.byte	29
0000123c 00000000*      6462 	.word	.LDW86
00001240 00000000*      6463 	.word	.LDW96
                        6464 
                        6465 .LDW_4d32898:
00001244 05             6466 	.byte	5
00001245 756354656d70   6467 	.strz	"ucTemperature"
0000124b 657261747572 
00001251 6500 
00001253 e303           6468 	.byte	227,3
00001255 09             6469 	.byte	9
00001256 01             6470 	.byte	1
00001257 00000000*      6471 	.word	.LDW_4c87210
0000125b 00             6472 	.byte	0
0000125c 00             6473 	.byte	0
                        6474 
                        6475 .LDW_4d32948:
0000125d 05             6476 	.byte	5
0000125e 756352654572   6477 	.strz	"ucReErrCount"
00001264 72436f756e74 
0000126a 00 
0000126b e403           6478 	.byte	228,3
0000126d 09             6479 	.byte	9
0000126e 01             6480 	.byte	1
0000126f 00000000*      6481 	.word	.LDW_4c87210
00001273 00             6482 	.byte	0
00001274 00             6483 	.byte	0
                        6484 
                        6485 .LDW_4d329a0:
00001275 04             6486 	.byte	4
00001276 757354656d70   6487 	.strz	"usTempNoRxTime"
0000127c 4e6f52785469 
00001282 6d6500 
00001285 e503           6488 	.byte	229,3
00001287 0a             6489 	.byte	10
00001288 01             6490 	.byte	1
00001289 00000000*      6491 	.word	.LDW_4d32d10
0000128d 00             6492 	.byte	0
0000128e 00             6493 	.byte	0
0000128f 016d           6494 	.byte	1,109
                        6495 
00001291 00             6496 	.byte	0
                        6497 
00001292 00             6498 	.byte	0
                        6499 
                        6500 .LDW_4d97918:
00001293 14             6501 	.byte	20

                                                                      Page 126
                                                              C:\Users\nhuliyap\AppData\Local\Temp\gh_00006oo1.s
00001294 474554624e6f   6502 	.strz	"GETbNoWarnPartSurv"
0000129a 5761726e5061 
000012a0 727453757276 
000012a6 00 
000012a7 bc04           6503 	.byte	188,4
000012a9 10             6504 	.byte	16
000012aa 01             6505 	.byte	1
000012ab 00000000*      6506 	.word	.LDW_4989f00
000012af 00000000*      6507 	.word	_GETbNoWarnPartSurv..C.3A.5C_ECU2.5CECU_Rivian_A1.5CTarget.5Crepo_projects.5CpRealEcu.5CcL_R2023.2E09.2E01.5Cmake.5Coutput.5Cobjects.5Cbusmsg.
000012b3 00000000*      6508 	.word	___ghs_eofn_GETbNoWarnPartSurv
000012b7 0153           6509 	.byte	1,83
000012b9 828080c00b     6510 	.byte	130,128,128,192,11
000012be 10             6511 	.byte	16
000012bf 03             6512 	.byte	3
000012c0 10             6513 	.byte	16
000012c1 00             6514 	.byte	0
000012c2 00             6515 	.byte	0
000012c3 00             6516 	.byte	0
000012c4 00             6517 	.byte	0
000012c5 01             6518 	.byte	1
000012c6 00             6519 	.byte	0
000012c7 01             6520 	.byte	1
                        6521 
                        6522 	.section	.debug_frame
                        6523 .LDW_4e69e70:
000002c0 00000000*      6524 	.word	.LDW_unq_32-.LDW_unq_31
                        6525 .LDW_unq_31:
000002c4 00000000*      6526 	.word	.LDW_4d5e980
000002c8 00000000*      6527 	.word	_GETbNoWarnPartSurv..C.3A.5C_ECU2.5CECU_Rivian_A1.5CTarget.5Crepo_projects.5CpRealEcu.5CcL_R2023.2E09.2E01.5Cmake.5Coutput.5Cobjects.5Cbusmsg.
000002cc 00000000*      6528 	.word	___ghs_eofn_GETbNoWarnPartSurv-_GETbNoWarnPartSurv..C.3A.5C_ECU2.5CECU_Rivian_A1.5CTarget.5Crepo_projects.5CpRealEcu.5CcL_R2023.2E09.2E01.5Cmake.5Coutput.5Cobjects.5Cbusmsg.
000002d0 44             6529 	.byte	68
000002d1 9f             6530 	.byte	159
000002d2 00             6531 	.byte	0
000002d3 40             6532 	.byte	64
000002d4 9d             6533 	.byte	157
000002d5 04             6534 	.byte	4
000002d6 40             6535 	.byte	64
000002d7 9c             6536 	.byte	156
000002d8 08             6537 	.byte	8
000002d9 40             6538 	.byte	64
000002da 9b             6539 	.byte	155
000002db 0c             6540 	.byte	12
000002dc 01             6541 	.byte	1
000002dd 00000000*      6542 	.word	.LDW35
000002e1 00             6543 	.byte	0
000002e2 00             6544 	.byte	0
000002e3 00             6545 	.byte	0
                        6546 .LDW_unq_32:
                        6547 	.section	.debug_line
00000b48 000502         6548 	.byte	0,5,2
00000b4b 00000000*      6549 	.word	_GETbNoWarnPartSurv..C.3A.5C_ECU2.5CECU_Rivian_A1.5CTarget.5Crepo_projects.5CpRealEcu.5CcL_R2023.2E09.2E01.5Cmake.5Coutput.5Cobjects.5Cbusmsg.
00000b4f 03             6550 	.byte	3
00000b50 bc04           6551 	.byte	188,4
00000b52 02             6552 	.byte	2
00000b53 00             6553 	.byte	0
00000b54 01             6554 	.byte	1
00000b55 06             6555 	.byte	6
00000b56 2b             6556 	.byte	43
00000b57 14             6557 	.byte	20
00000b58 000502         6558 	.byte	0,5,2
00000b5b 00000000*      6559 	.word	.LDWlin38

                                                                      Page 127
                                                              C:\Users\nhuliyap\AppData\Local\Temp\gh_00006oo1.s
00000b5f 0b             6560 	.byte	11
00000b60 0c             6561 	.byte	12
00000b61 000502         6562 	.byte	0,5,2
00000b64 00000000*      6563 	.word	.LDWlin39
00000b68 0b             6564 	.byte	11
00000b69 0c             6565 	.byte	12
00000b6a 02             6566 	.byte	2
00000b6b 00             6567 	.byte	0
00000b6c 0c             6568 	.byte	12
00000b6d 000502         6569 	.byte	0,5,2
00000b70 00000000*      6570 	.word	.LDWlin40
00000b74 0b             6571 	.byte	11
00000b75 0c             6572 	.byte	12
00000b76 02             6573 	.byte	2
00000b77 00             6574 	.byte	0
00000b78 0c             6575 	.byte	12
00000b79 000502         6576 	.byte	0,5,2
00000b7c 00000000*      6577 	.word	.LDWlin41
00000b80 0b             6578 	.byte	11
00000b81 0b             6579 	.byte	11
00000b82 1b             6580 	.byte	27
00000b83 02             6581 	.byte	2
00000b84 00             6582 	.byte	0
00000b85 0b             6583 	.byte	11
00000b86 02             6584 	.byte	2
00000b87 00             6585 	.byte	0
00000b88 0c             6586 	.byte	12
00000b89 06             6587 	.byte	6
00000b8a 02             6588 	.byte	2
00000b8b 02             6589 	.byte	2
00000b8c 02             6590 	.byte	2
00000b8d 04             6591 	.byte	4
00000b8e 000101         6592 	.byte	0,1,1
                        6593 	.section	.debug_info
                        6594 .LDW_4d32c08:
000012c8 0f             6595 	.byte	15
000012c9 7563506f7300   6596 	.strz	"ucPos"
000012cf bc04           6597 	.byte	188,4
000012d1 30             6598 	.byte	48
000012d2 01             6599 	.byte	1
000012d3 00000000*      6600 	.word	.LDW_4d329f8
000012d7 00             6601 	.byte	0
000012d8 016b           6602 	.byte	1,107
                        6603 
                        6604 .LDW_4d96058:
000012da 1d             6605 	.byte	29
000012db 00000000*      6606 	.word	.LDW25
000012df 00000000*      6607 	.word	.LDW35
                        6608 
                        6609 .LDW_4db0698:
000012e3 04             6610 	.byte	4
000012e4 756352657400   6611 	.strz	"ucRet"
000012ea be04           6612 	.byte	190,4
000012ec 09             6613 	.byte	9
000012ed 01             6614 	.byte	1
000012ee 00000000*      6615 	.word	.LDW_4c87210
000012f2 00             6616 	.byte	0
000012f3 00             6617 	.byte	0
000012f4 016d           6618 	.byte	1,109
                        6619 
000012f6 00             6620 	.byte	0

                                                                      Page 128
                                                              C:\Users\nhuliyap\AppData\Local\Temp\gh_00006oo1.s
                        6621 
000012f7 00             6622 	.byte	0
                        6623 
                        6624 .LDW_4d979b0:
000012f8 13             6625 	.byte	19
000012f9 4275734d7367   6626 	.strz	"BusMsgCheckWarningsFrontLeft"
000012ff 436865636b57 
00001305 61726e696e67 
0000130b 7346726f6e74 
00001311 4c65667400 
00001316 d604           6627 	.byte	214,4
00001318 0d             6628 	.byte	13
00001319 01             6629 	.byte	1
0000131a 00000000*      6630 	.word	_BusMsgCheckWarningsFrontLeft..C.3A.5C_ECU2.5CECU_Rivian_A1.5CTarget.5Crepo_projects.5CpRealEcu.5CcL_R2023.2E09.2E01.5Cmake.5Coutput.5Cobjects.5Cbusmsg.
0000131e 00000000*      6631 	.word	___ghs_eofn_BusMsgCheckWarningsFrontLeft
00001322 0153           6632 	.byte	1,83
00001324 828080800a     6633 	.byte	130,128,128,128,10
00001329 08             6634 	.byte	8
0000132a 03             6635 	.byte	3
0000132b 08             6636 	.byte	8
0000132c 00             6637 	.byte	0
0000132d 00             6638 	.byte	0
0000132e 00             6639 	.byte	0
0000132f 00             6640 	.byte	0
00001330 01             6641 	.byte	1
00001331 00             6642 	.byte	0
00001332 01             6643 	.byte	1
                        6644 
                        6645 	.section	.debug_frame
                        6646 .LDW_4e69530:
000002e4 00000000*      6647 	.word	.LDW_unq_34-.LDW_unq_33
                        6648 .LDW_unq_33:
000002e8 00000000*      6649 	.word	.LDW_4d5e980
000002ec 00000000*      6650 	.word	_BusMsgCheckWarningsFrontLeft..C.3A.5C_ECU2.5CECU_Rivian_A1.5CTarget.5Crepo_projects.5CpRealEcu.5CcL_R2023.2E09.2E01.5Cmake.5Coutput.5Cobjects.5Cbusmsg.
000002f0 00000000*      6651 	.word	___ghs_eofn_BusMsgCheckWarningsFrontLeft-_BusMsgCheckWarningsFrontLeft..C.3A.5C_ECU2.5CECU_Rivian_A1.5CTarget.5Crepo_projects.5CpRealEcu.5CcL_R2023.2E09.2E01.5Cmake.5Coutput.5Cobjects.5Cbusmsg.
000002f4 44             6652 	.byte	68
000002f5 9f             6653 	.byte	159
000002f6 00             6654 	.byte	0
000002f7 40             6655 	.byte	64
000002f8 9d             6656 	.byte	157
000002f9 04             6657 	.byte	4
000002fa 01             6658 	.byte	1
000002fb 00000000*      6659 	.word	.LDW75
000002ff 00             6660 	.byte	0
                        6661 .LDW_unq_34:
                        6662 	.section	.debug_line
00000b91 000502         6663 	.byte	0,5,2
00000b94 00000000*      6664 	.word	_BusMsgCheckWarningsFrontLeft..C.3A.5C_ECU2.5CECU_Rivian_A1.5CTarget.5Crepo_projects.5CpRealEcu.5CcL_R2023.2E09.2E01.5Cmake.5Coutput.5Cobjects.5Cbusmsg.
00000b98 03             6665 	.byte	3
00000b99 d504           6666 	.byte	213,4
00000b9b 02             6667 	.byte	2
00000b9c 00             6668 	.byte	0
00000b9d 01             6669 	.byte	1
00000b9e 06             6670 	.byte	6
00000b9f 1b             6671 	.byte	27
00000ba0 000502         6672 	.byte	0,5,2
00000ba3 00000000*      6673 	.word	.LDWlin46
00000ba7 0b             6674 	.byte	11
00000ba8 0c             6675 	.byte	12
00000ba9 000502         6676 	.byte	0,5,2
00000bac 00000000*      6677 	.word	.LDWlin47

                                                                      Page 129
                                                              C:\Users\nhuliyap\AppData\Local\Temp\gh_00006oo1.s
00000bb0 0b             6678 	.byte	11
00000bb1 000502         6679 	.byte	0,5,2
00000bb4 00000000*      6680 	.word	.LDWlin48
00000bb8 0b             6681 	.byte	11
00000bb9 0b             6682 	.byte	11
00000bba 0c             6683 	.byte	12
00000bbb 000502         6684 	.byte	0,5,2
00000bbe 00000000*      6685 	.word	.LDWlin49
00000bc2 0b             6686 	.byte	11
00000bc3 0b             6687 	.byte	11
00000bc4 000502         6688 	.byte	0,5,2
00000bc7 00000000*      6689 	.word	.LDWlin50
00000bcb 0b             6690 	.byte	11
00000bcc 000502         6691 	.byte	0,5,2
00000bcf 00000000*      6692 	.word	.LDWlin51
00000bd3 0b             6693 	.byte	11
00000bd4 0b             6694 	.byte	11
00000bd5 0c             6695 	.byte	12
00000bd6 000502         6696 	.byte	0,5,2
00000bd9 00000000*      6697 	.word	.LDWlin52
00000bdd 0b             6698 	.byte	11
00000bde 0b             6699 	.byte	11
00000bdf 000502         6700 	.byte	0,5,2
00000be2 00000000*      6701 	.word	.LDWlin53
00000be6 0b             6702 	.byte	11
00000be7 000502         6703 	.byte	0,5,2
00000bea 00000000*      6704 	.word	.LDWlin54
00000bee 0b             6705 	.byte	11
00000bef 0b             6706 	.byte	11
00000bf0 0c             6707 	.byte	12
00000bf1 000502         6708 	.byte	0,5,2
00000bf4 00000000*      6709 	.word	.LDWlin55
00000bf8 0b             6710 	.byte	11
00000bf9 0b             6711 	.byte	11
00000bfa 000502         6712 	.byte	0,5,2
00000bfd 00000000*      6713 	.word	.LDWlin56
00000c01 0b             6714 	.byte	11
00000c02 000502         6715 	.byte	0,5,2
00000c05 00000000*      6716 	.word	.LDWlin57
00000c09 0b             6717 	.byte	11
00000c0a 0b             6718 	.byte	11
00000c0b 0c             6719 	.byte	12
00000c0c 000502         6720 	.byte	0,5,2
00000c0f 00000000*      6721 	.word	.LDWlin58
00000c13 0b             6722 	.byte	11
00000c14 02             6723 	.byte	2
00000c15 00             6724 	.byte	0
00000c16 0b             6725 	.byte	11
00000c17 02             6726 	.byte	2
00000c18 00             6727 	.byte	0
00000c19 0b             6728 	.byte	11
00000c1a 02             6729 	.byte	2
00000c1b 00             6730 	.byte	0
00000c1c 0c             6731 	.byte	12
00000c1d 23             6732 	.byte	35
00000c1e 0c             6733 	.byte	12
00000c1f 0b             6734 	.byte	11
00000c20 0c             6735 	.byte	12
00000c21 000502         6736 	.byte	0,5,2
00000c24 00000000*      6737 	.word	.LDWlin59
00000c28 0b             6738 	.byte	11

                                                                      Page 130
                                                              C:\Users\nhuliyap\AppData\Local\Temp\gh_00006oo1.s
00000c29 02             6739 	.byte	2
00000c2a 00             6740 	.byte	0
00000c2b 0b             6741 	.byte	11
00000c2c 02             6742 	.byte	2
00000c2d 00             6743 	.byte	0
00000c2e 0b             6744 	.byte	11
00000c2f 02             6745 	.byte	2
00000c30 04             6746 	.byte	4
00000c31 000101         6747 	.byte	0,1,1
                        6748 	.section	.debug_info
                        6749 .LDW_4d96418:
00001333 1d             6750 	.byte	29
00001334 00000000*      6751 	.word	.LDW65
00001338 00000000*      6752 	.word	.LDW75
                        6753 
0000133c 00             6754 	.byte	0
                        6755 
0000133d 00             6756 	.byte	0
                        6757 
                        6758 .LDW_4d97750:
0000133e 13             6759 	.byte	19
0000133f 4275734d7367   6760 	.strz	"BusMsgCheckWarningsFrontRight"
00001345 436865636b57 
0000134b 61726e696e67 
00001351 7346726f6e74 
00001357 526967687400 
0000135d 8405           6761 	.byte	132,5
0000135f 0d             6762 	.byte	13
00001360 01             6763 	.byte	1
00001361 00000000*      6764 	.word	_BusMsgCheckWarningsFrontRight..C.3A.5C_ECU2.5CECU_Rivian_A1.5CTarget.5Crepo_projects.5CpRealEcu.5CcL_R2023.2E09.2E01.5Cmake.5Coutput.5Cobjects.5Cbusmsg.
00001365 00000000*      6765 	.word	___ghs_eofn_BusMsgCheckWarningsFrontRight
00001369 0153           6766 	.byte	1,83
0000136b 828080800a     6767 	.byte	130,128,128,128,10
00001370 08             6768 	.byte	8
00001371 03             6769 	.byte	3
00001372 08             6770 	.byte	8
00001373 00             6771 	.byte	0
00001374 00             6772 	.byte	0
00001375 00             6773 	.byte	0
00001376 00             6774 	.byte	0
00001377 01             6775 	.byte	1
00001378 00             6776 	.byte	0
00001379 01             6777 	.byte	1
                        6778 
                        6779 	.section	.debug_frame
                        6780 .LDW_4e69770:
00000300 00000000*      6781 	.word	.LDW_unq_36-.LDW_unq_35
                        6782 .LDW_unq_35:
00000304 00000000*      6783 	.word	.LDW_4d5e980
00000308 00000000*      6784 	.word	_BusMsgCheckWarningsFrontRight..C.3A.5C_ECU2.5CECU_Rivian_A1.5CTarget.5Crepo_projects.5CpRealEcu.5CcL_R2023.2E09.2E01.5Cmake.5Coutput.5Cobjects.5Cbusmsg.
0000030c 00000000*      6785 	.word	___ghs_eofn_BusMsgCheckWarningsFrontRight-_BusMsgCheckWarningsFrontRight..C.3A.5C_ECU2.5CECU_Rivian_A1.5CTarget.5Crepo_projects.5CpRealEcu.5CcL_R2023.2E09.2E01.5Cmake.5Coutput.5Cobjects.5Cbusmsg.
00000310 44             6786 	.byte	68
00000311 9f             6787 	.byte	159
00000312 00             6788 	.byte	0
00000313 40             6789 	.byte	64
00000314 9d             6790 	.byte	157
00000315 04             6791 	.byte	4
00000316 01             6792 	.byte	1
00000317 00000000*      6793 	.word	.LDW95
0000031b 00             6794 	.byte	0
                        6795 .LDW_unq_36:

                                                                      Page 131
                                                              C:\Users\nhuliyap\AppData\Local\Temp\gh_00006oo1.s
                        6796 	.section	.debug_line
00000c34 000502         6797 	.byte	0,5,2
00000c37 00000000*      6798 	.word	_BusMsgCheckWarningsFrontRight..C.3A.5C_ECU2.5CECU_Rivian_A1.5CTarget.5Crepo_projects.5CpRealEcu.5CcL_R2023.2E09.2E01.5Cmake.5Coutput.5Cobjects.5Cbusmsg.
00000c3b 03             6799 	.byte	3
00000c3c 8305           6800 	.byte	131,5
00000c3e 02             6801 	.byte	2
00000c3f 00             6802 	.byte	0
00000c40 01             6803 	.byte	1
00000c41 06             6804 	.byte	6
00000c42 1b             6805 	.byte	27
00000c43 000502         6806 	.byte	0,5,2
00000c46 00000000*      6807 	.word	.LDWlin60
00000c4a 0b             6808 	.byte	11
00000c4b 0c             6809 	.byte	12
00000c4c 000502         6810 	.byte	0,5,2
00000c4f 00000000*      6811 	.word	.LDWlin61
00000c53 0b             6812 	.byte	11
00000c54 000502         6813 	.byte	0,5,2
00000c57 00000000*      6814 	.word	.LDWlin62
00000c5b 0b             6815 	.byte	11
00000c5c 0b             6816 	.byte	11
00000c5d 0c             6817 	.byte	12
00000c5e 000502         6818 	.byte	0,5,2
00000c61 00000000*      6819 	.word	.LDWlin63
00000c65 0b             6820 	.byte	11
00000c66 0b             6821 	.byte	11
00000c67 000502         6822 	.byte	0,5,2
00000c6a 00000000*      6823 	.word	.LDWlin64
00000c6e 0b             6824 	.byte	11
00000c6f 000502         6825 	.byte	0,5,2
00000c72 00000000*      6826 	.word	.LDWlin65
00000c76 0b             6827 	.byte	11
00000c77 0b             6828 	.byte	11
00000c78 0c             6829 	.byte	12
00000c79 000502         6830 	.byte	0,5,2
00000c7c 00000000*      6831 	.word	.LDWlin66
00000c80 0b             6832 	.byte	11
00000c81 0b             6833 	.byte	11
00000c82 000502         6834 	.byte	0,5,2
00000c85 00000000*      6835 	.word	.LDWlin67
00000c89 0b             6836 	.byte	11
00000c8a 000502         6837 	.byte	0,5,2
00000c8d 00000000*      6838 	.word	.LDWlin68
00000c91 0b             6839 	.byte	11
00000c92 0b             6840 	.byte	11
00000c93 0c             6841 	.byte	12
00000c94 000502         6842 	.byte	0,5,2
00000c97 00000000*      6843 	.word	.LDWlin69
00000c9b 0b             6844 	.byte	11
00000c9c 0b             6845 	.byte	11
00000c9d 000502         6846 	.byte	0,5,2
00000ca0 00000000*      6847 	.word	.LDWlin70
00000ca4 0b             6848 	.byte	11
00000ca5 000502         6849 	.byte	0,5,2
00000ca8 00000000*      6850 	.word	.LDWlin71
00000cac 0b             6851 	.byte	11
00000cad 0b             6852 	.byte	11
00000cae 0c             6853 	.byte	12
00000caf 000502         6854 	.byte	0,5,2
00000cb2 00000000*      6855 	.word	.LDWlin72
00000cb6 0b             6856 	.byte	11

                                                                      Page 132
                                                              C:\Users\nhuliyap\AppData\Local\Temp\gh_00006oo1.s
00000cb7 02             6857 	.byte	2
00000cb8 00             6858 	.byte	0
00000cb9 0b             6859 	.byte	11
00000cba 02             6860 	.byte	2
00000cbb 00             6861 	.byte	0
00000cbc 0b             6862 	.byte	11
00000cbd 02             6863 	.byte	2
00000cbe 00             6864 	.byte	0
00000cbf 0c             6865 	.byte	12
00000cc0 33             6866 	.byte	51
00000cc1 0c             6867 	.byte	12
00000cc2 0b             6868 	.byte	11
00000cc3 0c             6869 	.byte	12
00000cc4 000502         6870 	.byte	0,5,2
00000cc7 00000000*      6871 	.word	.LDWlin73
00000ccb 0b             6872 	.byte	11
00000ccc 02             6873 	.byte	2
00000ccd 00             6874 	.byte	0
00000cce 0b             6875 	.byte	11
00000ccf 02             6876 	.byte	2
00000cd0 00             6877 	.byte	0
00000cd1 0b             6878 	.byte	11
00000cd2 02             6879 	.byte	2
00000cd3 04             6880 	.byte	4
00000cd4 000101         6881 	.byte	0,1,1
                        6882 	.section	.debug_info
                        6883 .LDW_4d961a8:
0000137a 1d             6884 	.byte	29
0000137b 00000000*      6885 	.word	.LDW85
0000137f 00000000*      6886 	.word	.LDW95
                        6887 
00001383 00             6888 	.byte	0
                        6889 
00001384 00             6890 	.byte	0
                        6891 
                        6892 .LDW_4d976b8:
00001385 13             6893 	.byte	19
00001386 4275734d7367   6894 	.strz	"BusMsgCheckWarningsRearLeft"
0000138c 436865636b57 
00001392 61726e696e67 
00001398 73526561724c 
0000139e 65667400 
000013a2 b205           6895 	.byte	178,5
000013a4 0d             6896 	.byte	13
000013a5 01             6897 	.byte	1
000013a6 00000000*      6898 	.word	_BusMsgCheckWarningsRearLeft..C.3A.5C_ECU2.5CECU_Rivian_A1.5CTarget.5Crepo_projects.5CpRealEcu.5CcL_R2023.2E09.2E01.5Cmake.5Coutput.5Cobjects.5Cbusmsg.
000013aa 00000000*      6899 	.word	___ghs_eofn_BusMsgCheckWarningsRearLeft
000013ae 0153           6900 	.byte	1,83
000013b0 828080800a     6901 	.byte	130,128,128,128,10
000013b5 08             6902 	.byte	8
000013b6 03             6903 	.byte	3
000013b7 08             6904 	.byte	8
000013b8 00             6905 	.byte	0
000013b9 00             6906 	.byte	0
000013ba 00             6907 	.byte	0
000013bb 00             6908 	.byte	0
000013bc 01             6909 	.byte	1
000013bd 00             6910 	.byte	0
000013be 01             6911 	.byte	1
                        6912 
                        6913 	.section	.debug_frame

                                                                      Page 133
                                                              C:\Users\nhuliyap\AppData\Local\Temp\gh_00006oo1.s
                        6914 .LDW_4e692f0:
0000031c 00000000*      6915 	.word	.LDW_unq_38-.LDW_unq_37
                        6916 .LDW_unq_37:
00000320 00000000*      6917 	.word	.LDW_4d5e980
00000324 00000000*      6918 	.word	_BusMsgCheckWarningsRearLeft..C.3A.5C_ECU2.5CECU_Rivian_A1.5CTarget.5Crepo_projects.5CpRealEcu.5CcL_R2023.2E09.2E01.5Cmake.5Coutput.5Cobjects.5Cbusmsg.
00000328 00000000*      6919 	.word	___ghs_eofn_BusMsgCheckWarningsRearLeft-_BusMsgCheckWarningsRearLeft..C.3A.5C_ECU2.5CECU_Rivian_A1.5CTarget.5Crepo_projects.5CpRealEcu.5CcL_R2023.2E09.2E01.5Cmake.5Coutput.5Cobjects.5Cbusmsg.
0000032c 44             6920 	.byte	68
0000032d 9f             6921 	.byte	159
0000032e 00             6922 	.byte	0
0000032f 40             6923 	.byte	64
00000330 9d             6924 	.byte	157
00000331 04             6925 	.byte	4
00000332 01             6926 	.byte	1
00000333 00000000*      6927 	.word	.LDW16
00000337 00             6928 	.byte	0
                        6929 .LDW_unq_38:
                        6930 	.section	.debug_line
00000cd7 000502         6931 	.byte	0,5,2
00000cda 00000000*      6932 	.word	_BusMsgCheckWarningsRearLeft..C.3A.5C_ECU2.5CECU_Rivian_A1.5CTarget.5Crepo_projects.5CpRealEcu.5CcL_R2023.2E09.2E01.5Cmake.5Coutput.5Cobjects.5Cbusmsg.
00000cde 03             6933 	.byte	3
00000cdf b105           6934 	.byte	177,5
00000ce1 02             6935 	.byte	2
00000ce2 00             6936 	.byte	0
00000ce3 01             6937 	.byte	1
00000ce4 06             6938 	.byte	6
00000ce5 1b             6939 	.byte	27
00000ce6 000502         6940 	.byte	0,5,2
00000ce9 00000000*      6941 	.word	.LDWlin74
00000ced 0b             6942 	.byte	11
00000cee 0c             6943 	.byte	12
00000cef 000502         6944 	.byte	0,5,2
00000cf2 00000000*      6945 	.word	.LDWlin75
00000cf6 0b             6946 	.byte	11
00000cf7 000502         6947 	.byte	0,5,2
00000cfa 00000000*      6948 	.word	.LDWlin76
00000cfe 0b             6949 	.byte	11
00000cff 0b             6950 	.byte	11
00000d00 0c             6951 	.byte	12
00000d01 000502         6952 	.byte	0,5,2
00000d04 00000000*      6953 	.word	.LDWlin77
00000d08 0b             6954 	.byte	11
00000d09 0b             6955 	.byte	11
00000d0a 000502         6956 	.byte	0,5,2
00000d0d 00000000*      6957 	.word	.LDWlin78
00000d11 0b             6958 	.byte	11
00000d12 000502         6959 	.byte	0,5,2
00000d15 00000000*      6960 	.word	.LDWlin79
00000d19 0b             6961 	.byte	11
00000d1a 0b             6962 	.byte	11
00000d1b 0c             6963 	.byte	12
00000d1c 000502         6964 	.byte	0,5,2
00000d1f 00000000*      6965 	.word	.LDWlin80
00000d23 0b             6966 	.byte	11
00000d24 0b             6967 	.byte	11
00000d25 000502         6968 	.byte	0,5,2
00000d28 00000000*      6969 	.word	.LDWlin81
00000d2c 0b             6970 	.byte	11
00000d2d 000502         6971 	.byte	0,5,2
00000d30 00000000*      6972 	.word	.LDWlin82
00000d34 0b             6973 	.byte	11
00000d35 0b             6974 	.byte	11

                                                                      Page 134
                                                              C:\Users\nhuliyap\AppData\Local\Temp\gh_00006oo1.s
00000d36 0c             6975 	.byte	12
00000d37 000502         6976 	.byte	0,5,2
00000d3a 00000000*      6977 	.word	.LDWlin83
00000d3e 0b             6978 	.byte	11
00000d3f 0b             6979 	.byte	11
00000d40 000502         6980 	.byte	0,5,2
00000d43 00000000*      6981 	.word	.LDWlin84
00000d47 0b             6982 	.byte	11
00000d48 000502         6983 	.byte	0,5,2
00000d4b 00000000*      6984 	.word	.LDWlin85
00000d4f 0b             6985 	.byte	11
00000d50 0b             6986 	.byte	11
00000d51 0c             6987 	.byte	12
00000d52 000502         6988 	.byte	0,5,2
00000d55 00000000*      6989 	.word	.LDWlin86
00000d59 0b             6990 	.byte	11
00000d5a 02             6991 	.byte	2
00000d5b 00             6992 	.byte	0
00000d5c 0b             6993 	.byte	11
00000d5d 02             6994 	.byte	2
00000d5e 00             6995 	.byte	0
00000d5f 0b             6996 	.byte	11
00000d60 02             6997 	.byte	2
00000d61 00             6998 	.byte	0
00000d62 0c             6999 	.byte	12
00000d63 33             7000 	.byte	51
00000d64 0c             7001 	.byte	12
00000d65 0b             7002 	.byte	11
00000d66 0c             7003 	.byte	12
00000d67 000502         7004 	.byte	0,5,2
00000d6a 00000000*      7005 	.word	.LDWlin87
00000d6e 0b             7006 	.byte	11
00000d6f 02             7007 	.byte	2
00000d70 00             7008 	.byte	0
00000d71 0b             7009 	.byte	11
00000d72 02             7010 	.byte	2
00000d73 00             7011 	.byte	0
00000d74 0b             7012 	.byte	11
00000d75 02             7013 	.byte	2
00000d76 04             7014 	.byte	4
00000d77 000101         7015 	.byte	0,1,1
                        7016 	.section	.debug_info
                        7017 .LDW_4d96118:
000013bf 1d             7018 	.byte	29
000013c0 00000000*      7019 	.word	.LDW06
000013c4 00000000*      7020 	.word	.LDW16
                        7021 
000013c8 00             7022 	.byte	0
                        7023 
000013c9 00             7024 	.byte	0
                        7025 
                        7026 .LDW_4d96f98:
000013ca 13             7027 	.byte	19
000013cb 4275734d7367   7028 	.strz	"BusMsgCheckWarningsRearRight"
000013d1 436865636b57 
000013d7 61726e696e67 
000013dd 735265617252 
000013e3 6967687400 
000013e8 e005           7029 	.byte	224,5
000013ea 0d             7030 	.byte	13
000013eb 01             7031 	.byte	1

                                                                      Page 135
                                                              C:\Users\nhuliyap\AppData\Local\Temp\gh_00006oo1.s
000013ec 00000000*      7032 	.word	_BusMsgCheckWarningsRearRight..C.3A.5C_ECU2.5CECU_Rivian_A1.5CTarget.5Crepo_projects.5CpRealEcu.5CcL_R2023.2E09.2E01.5Cmake.5Coutput.5Cobjects.5Cbusmsg.
000013f0 00000000*      7033 	.word	___ghs_eofn_BusMsgCheckWarningsRearRight
000013f4 0153           7034 	.byte	1,83
000013f6 828080800a     7035 	.byte	130,128,128,128,10
000013fb 08             7036 	.byte	8
000013fc 03             7037 	.byte	3
000013fd 08             7038 	.byte	8
000013fe 00             7039 	.byte	0
000013ff 00             7040 	.byte	0
00001400 00             7041 	.byte	0
00001401 00             7042 	.byte	0
00001402 01             7043 	.byte	1
00001403 00             7044 	.byte	0
00001404 01             7045 	.byte	1
                        7046 
                        7047 	.section	.debug_frame
                        7048 .LDW_4e69230:
00000338 00000000*      7049 	.word	.LDW_unq_3a-.LDW_unq_39
                        7050 .LDW_unq_39:
0000033c 00000000*      7051 	.word	.LDW_4d5e980
00000340 00000000*      7052 	.word	_BusMsgCheckWarningsRearRight..C.3A.5C_ECU2.5CECU_Rivian_A1.5CTarget.5Crepo_projects.5CpRealEcu.5CcL_R2023.2E09.2E01.5Cmake.5Coutput.5Cobjects.5Cbusmsg.
00000344 00000000*      7053 	.word	___ghs_eofn_BusMsgCheckWarningsRearRight-_BusMsgCheckWarningsRearRight..C.3A.5C_ECU2.5CECU_Rivian_A1.5CTarget.5Crepo_projects.5CpRealEcu.5CcL_R2023.2E09.2E01.5Cmake.5Coutput.5Cobjects.5Cbusmsg.
00000348 44             7054 	.byte	68
00000349 9f             7055 	.byte	159
0000034a 00             7056 	.byte	0
0000034b 40             7057 	.byte	64
0000034c 9d             7058 	.byte	157
0000034d 04             7059 	.byte	4
0000034e 01             7060 	.byte	1
0000034f 00000000*      7061 	.word	.LDW36
00000353 00             7062 	.byte	0
                        7063 .LDW_unq_3a:
                        7064 	.section	.debug_line
00000d7a 000502         7065 	.byte	0,5,2
00000d7d 00000000*      7066 	.word	_BusMsgCheckWarningsRearRight..C.3A.5C_ECU2.5CECU_Rivian_A1.5CTarget.5Crepo_projects.5CpRealEcu.5CcL_R2023.2E09.2E01.5Cmake.5Coutput.5Cobjects.5Cbusmsg.
00000d81 03             7067 	.byte	3
00000d82 df05           7068 	.byte	223,5
00000d84 02             7069 	.byte	2
00000d85 00             7070 	.byte	0
00000d86 01             7071 	.byte	1
00000d87 06             7072 	.byte	6
00000d88 1b             7073 	.byte	27
00000d89 000502         7074 	.byte	0,5,2
00000d8c 00000000*      7075 	.word	.LDWlin88
00000d90 0b             7076 	.byte	11
00000d91 0c             7077 	.byte	12
00000d92 000502         7078 	.byte	0,5,2
00000d95 00000000*      7079 	.word	.LDWlin89
00000d99 0b             7080 	.byte	11
00000d9a 000502         7081 	.byte	0,5,2
00000d9d 00000000*      7082 	.word	.LDWlin90
00000da1 0b             7083 	.byte	11
00000da2 0b             7084 	.byte	11
00000da3 0c             7085 	.byte	12
00000da4 000502         7086 	.byte	0,5,2
00000da7 00000000*      7087 	.word	.LDWlin91
00000dab 0b             7088 	.byte	11
00000dac 0b             7089 	.byte	11
00000dad 000502         7090 	.byte	0,5,2
00000db0 00000000*      7091 	.word	.LDWlin92
00000db4 0b             7092 	.byte	11

                                                                      Page 136
                                                              C:\Users\nhuliyap\AppData\Local\Temp\gh_00006oo1.s
00000db5 000502         7093 	.byte	0,5,2
00000db8 00000000*      7094 	.word	.LDWlin93
00000dbc 0b             7095 	.byte	11
00000dbd 0b             7096 	.byte	11
00000dbe 0c             7097 	.byte	12
00000dbf 000502         7098 	.byte	0,5,2
00000dc2 00000000*      7099 	.word	.LDWlin94
00000dc6 0b             7100 	.byte	11
00000dc7 0b             7101 	.byte	11
00000dc8 000502         7102 	.byte	0,5,2
00000dcb 00000000*      7103 	.word	.LDWlin95
00000dcf 0b             7104 	.byte	11
00000dd0 000502         7105 	.byte	0,5,2
00000dd3 00000000*      7106 	.word	.LDWlin96
00000dd7 0b             7107 	.byte	11
00000dd8 0b             7108 	.byte	11
00000dd9 0c             7109 	.byte	12
00000dda 000502         7110 	.byte	0,5,2
00000ddd 00000000*      7111 	.word	.LDWlin97
00000de1 0b             7112 	.byte	11
00000de2 0b             7113 	.byte	11
00000de3 000502         7114 	.byte	0,5,2
00000de6 00000000*      7115 	.word	.LDWlin98
00000dea 0b             7116 	.byte	11
00000deb 000502         7117 	.byte	0,5,2
00000dee 00000000*      7118 	.word	.LDWlin99
00000df2 0b             7119 	.byte	11
00000df3 0b             7120 	.byte	11
00000df4 0c             7121 	.byte	12
00000df5 000502         7122 	.byte	0,5,2
00000df8 00000000*      7123 	.word	.LDWlin100
00000dfc 0b             7124 	.byte	11
00000dfd 02             7125 	.byte	2
00000dfe 00             7126 	.byte	0
00000dff 0b             7127 	.byte	11
00000e00 02             7128 	.byte	2
00000e01 00             7129 	.byte	0
00000e02 0b             7130 	.byte	11
00000e03 02             7131 	.byte	2
00000e04 00             7132 	.byte	0
00000e05 0c             7133 	.byte	12
00000e06 33             7134 	.byte	51
00000e07 0c             7135 	.byte	12
00000e08 0b             7136 	.byte	11
00000e09 0c             7137 	.byte	12
00000e0a 000502         7138 	.byte	0,5,2
00000e0d 00000000*      7139 	.word	.LDWlin101
00000e11 0b             7140 	.byte	11
00000e12 02             7141 	.byte	2
00000e13 00             7142 	.byte	0
00000e14 0b             7143 	.byte	11
00000e15 02             7144 	.byte	2
00000e16 00             7145 	.byte	0
00000e17 0b             7146 	.byte	11
00000e18 02             7147 	.byte	2
00000e19 04             7148 	.byte	4
00000e1a 000101         7149 	.byte	0,1,1
                        7150 	.section	.debug_info
                        7151 .LDW_4d963b8:
00001405 1d             7152 	.byte	29
00001406 00000000*      7153 	.word	.LDW26

                                                                      Page 137
                                                              C:\Users\nhuliyap\AppData\Local\Temp\gh_00006oo1.s
0000140a 00000000*      7154 	.word	.LDW36
                        7155 
0000140e 00             7156 	.byte	0
                        7157 
0000140f 00             7158 	.byte	0
                        7159 
                        7160 .LDW_4d97588:
00001410 13             7161 	.byte	19
00001411 4275734d7367   7162 	.strz	"BusMsgCheckWarningsUnknownPos"
00001417 436865636b57 
0000141d 61726e696e67 
00001423 73556e6b6e6f 
00001429 776e506f7300 
0000142f 8e06           7163 	.byte	142,6
00001431 0d             7164 	.byte	13
00001432 01             7165 	.byte	1
00001433 00000000*      7166 	.word	_BusMsgCheckWarningsUnknownPos..C.3A.5C_ECU2.5CECU_Rivian_A1.5CTarget.5Crepo_projects.5CpRealEcu.5CcL_R2023.2E09.2E01.5Cmake.5Coutput.5Cobjects.5Cbusmsg.
00001437 00000000*      7167 	.word	___ghs_eofn_BusMsgCheckWarningsUnknownPos
0000143b 0153           7168 	.byte	1,83
0000143d 828080800a     7169 	.byte	130,128,128,128,10
00001442 08             7170 	.byte	8
00001443 03             7171 	.byte	3
00001444 08             7172 	.byte	8
00001445 00             7173 	.byte	0
00001446 00             7174 	.byte	0
00001447 00             7175 	.byte	0
00001448 00             7176 	.byte	0
00001449 01             7177 	.byte	1
0000144a 00             7178 	.byte	0
0000144b 01             7179 	.byte	1
                        7180 
                        7181 	.section	.debug_frame
                        7182 .LDW_4ee4288:
00000354 00000000*      7183 	.word	.LDW_unq_3c-.LDW_unq_3b
                        7184 .LDW_unq_3b:
00000358 00000000*      7185 	.word	.LDW_4d5e980
0000035c 00000000*      7186 	.word	_BusMsgCheckWarningsUnknownPos..C.3A.5C_ECU2.5CECU_Rivian_A1.5CTarget.5Crepo_projects.5CpRealEcu.5CcL_R2023.2E09.2E01.5Cmake.5Coutput.5Cobjects.5Cbusmsg.
00000360 00000000*      7187 	.word	___ghs_eofn_BusMsgCheckWarningsUnknownPos-_BusMsgCheckWarningsUnknownPos..C.3A.5C_ECU2.5CECU_Rivian_A1.5CTarget.5Crepo_projects.5CpRealEcu.5CcL_R2023.2E09.2E01.5Cmake.5Coutput.5Cobjects.5Cbusmsg.
00000364 44             7188 	.byte	68
00000365 9f             7189 	.byte	159
00000366 00             7190 	.byte	0
00000367 40             7191 	.byte	64
00000368 9d             7192 	.byte	157
00000369 04             7193 	.byte	4
0000036a 01             7194 	.byte	1
0000036b 00000000*      7195 	.word	.LDW56
0000036f 00             7196 	.byte	0
                        7197 .LDW_unq_3c:
                        7198 	.section	.debug_line
00000e1d 000502         7199 	.byte	0,5,2
00000e20 00000000*      7200 	.word	_BusMsgCheckWarningsUnknownPos..C.3A.5C_ECU2.5CECU_Rivian_A1.5CTarget.5Crepo_projects.5CpRealEcu.5CcL_R2023.2E09.2E01.5Cmake.5Coutput.5Cobjects.5Cbusmsg.
00000e24 03             7201 	.byte	3
00000e25 8d06           7202 	.byte	141,6
00000e27 02             7203 	.byte	2
00000e28 00             7204 	.byte	0
00000e29 01             7205 	.byte	1
00000e2a 06             7206 	.byte	6
00000e2b 1b             7207 	.byte	27
00000e2c 000502         7208 	.byte	0,5,2
00000e2f 00000000*      7209 	.word	.LDWlin102
00000e33 0b             7210 	.byte	11

                                                                      Page 138
                                                              C:\Users\nhuliyap\AppData\Local\Temp\gh_00006oo1.s
00000e34 0c             7211 	.byte	12
00000e35 000502         7212 	.byte	0,5,2
00000e38 00000000*      7213 	.word	.LDWlin103
00000e3c 0b             7214 	.byte	11
00000e3d 000502         7215 	.byte	0,5,2
00000e40 00000000*      7216 	.word	.LDWlin104
00000e44 0b             7217 	.byte	11
00000e45 000502         7218 	.byte	0,5,2
00000e48 00000000*      7219 	.word	.LDWlin105
00000e4c 0b             7220 	.byte	11
00000e4d 000502         7221 	.byte	0,5,2
00000e50 00000000*      7222 	.word	.LDWlin106
00000e54 0b             7223 	.byte	11
00000e55 000502         7224 	.byte	0,5,2
00000e58 00000000*      7225 	.word	.LDWlin107
00000e5c 0b             7226 	.byte	11
00000e5d 0b             7227 	.byte	11
00000e5e 0c             7228 	.byte	12
00000e5f 000502         7229 	.byte	0,5,2
00000e62 00000000*      7230 	.word	.LDWlin108
00000e66 0b             7231 	.byte	11
00000e67 0b             7232 	.byte	11
00000e68 000502         7233 	.byte	0,5,2
00000e6b 00000000*      7234 	.word	.LDWlin109
00000e6f 0b             7235 	.byte	11
00000e70 000502         7236 	.byte	0,5,2
00000e73 00000000*      7237 	.word	.LDWlin110
00000e77 0b             7238 	.byte	11
00000e78 000502         7239 	.byte	0,5,2
00000e7b 00000000*      7240 	.word	.LDWlin111
00000e7f 0b             7241 	.byte	11
00000e80 000502         7242 	.byte	0,5,2
00000e83 00000000*      7243 	.word	.LDWlin112
00000e87 0b             7244 	.byte	11
00000e88 000502         7245 	.byte	0,5,2
00000e8b 00000000*      7246 	.word	.LDWlin113
00000e8f 0b             7247 	.byte	11
00000e90 0b             7248 	.byte	11
00000e91 0c             7249 	.byte	12
00000e92 000502         7250 	.byte	0,5,2
00000e95 00000000*      7251 	.word	.LDWlin114
00000e99 0b             7252 	.byte	11
00000e9a 0b             7253 	.byte	11
00000e9b 000502         7254 	.byte	0,5,2
00000e9e 00000000*      7255 	.word	.LDWlin115
00000ea2 0b             7256 	.byte	11
00000ea3 000502         7257 	.byte	0,5,2
00000ea6 00000000*      7258 	.word	.LDWlin116
00000eaa 0b             7259 	.byte	11
00000eab 000502         7260 	.byte	0,5,2
00000eae 00000000*      7261 	.word	.LDWlin117
00000eb2 0b             7262 	.byte	11
00000eb3 000502         7263 	.byte	0,5,2
00000eb6 00000000*      7264 	.word	.LDWlin118
00000eba 0b             7265 	.byte	11
00000ebb 000502         7266 	.byte	0,5,2
00000ebe 00000000*      7267 	.word	.LDWlin119
00000ec2 0b             7268 	.byte	11
00000ec3 0b             7269 	.byte	11
00000ec4 0c             7270 	.byte	12
00000ec5 000502         7271 	.byte	0,5,2

                                                                      Page 139
                                                              C:\Users\nhuliyap\AppData\Local\Temp\gh_00006oo1.s
00000ec8 00000000*      7272 	.word	.LDWlin120
00000ecc 0b             7273 	.byte	11
00000ecd 0b             7274 	.byte	11
00000ece 000502         7275 	.byte	0,5,2
00000ed1 00000000*      7276 	.word	.LDWlin121
00000ed5 0b             7277 	.byte	11
00000ed6 000502         7278 	.byte	0,5,2
00000ed9 00000000*      7279 	.word	.LDWlin122
00000edd 0b             7280 	.byte	11
00000ede 000502         7281 	.byte	0,5,2
00000ee1 00000000*      7282 	.word	.LDWlin123
00000ee5 0b             7283 	.byte	11
00000ee6 000502         7284 	.byte	0,5,2
00000ee9 00000000*      7285 	.word	.LDWlin124
00000eed 0b             7286 	.byte	11
00000eee 000502         7287 	.byte	0,5,2
00000ef1 00000000*      7288 	.word	.LDWlin125
00000ef5 0b             7289 	.byte	11
00000ef6 0b             7290 	.byte	11
00000ef7 0c             7291 	.byte	12
00000ef8 000502         7292 	.byte	0,5,2
00000efb 00000000*      7293 	.word	.LDWlin126
00000eff 0b             7294 	.byte	11
00000f00 000502         7295 	.byte	0,5,2
00000f03 00000000*      7296 	.word	.LDWlin127
00000f07 0b             7297 	.byte	11
00000f08 000502         7298 	.byte	0,5,2
00000f0b 00000000*      7299 	.word	.LDWlin128
00000f0f 0b             7300 	.byte	11
00000f10 000502         7301 	.byte	0,5,2
00000f13 00000000*      7302 	.word	.LDWlin129
00000f17 0b             7303 	.byte	11
00000f18 02             7304 	.byte	2
00000f19 00             7305 	.byte	0
00000f1a 0b             7306 	.byte	11
00000f1b 02             7307 	.byte	2
00000f1c 00             7308 	.byte	0
00000f1d 0b             7309 	.byte	11
00000f1e 02             7310 	.byte	2
00000f1f 00             7311 	.byte	0
00000f20 0c             7312 	.byte	12
00000f21 000502         7313 	.byte	0,5,2
00000f24 00000000*      7314 	.word	.LDWlin130
00000f28 0b             7315 	.byte	11
00000f29 0b             7316 	.byte	11
00000f2a 000502         7317 	.byte	0,5,2
00000f2d 00000000*      7318 	.word	.LDWlin131
00000f31 0b             7319 	.byte	11
00000f32 000502         7320 	.byte	0,5,2
00000f35 00000000*      7321 	.word	.LDWlin132
00000f39 0b             7322 	.byte	11
00000f3a 000502         7323 	.byte	0,5,2
00000f3d 00000000*      7324 	.word	.LDWlin133
00000f41 0b             7325 	.byte	11
00000f42 000502         7326 	.byte	0,5,2
00000f45 00000000*      7327 	.word	.LDWlin134
00000f49 0b             7328 	.byte	11
00000f4a 0b             7329 	.byte	11
00000f4b 0c             7330 	.byte	12
00000f4c 000502         7331 	.byte	0,5,2
00000f4f 00000000*      7332 	.word	.LDWlin135

                                                                      Page 140
                                                              C:\Users\nhuliyap\AppData\Local\Temp\gh_00006oo1.s
00000f53 0b             7333 	.byte	11
00000f54 000502         7334 	.byte	0,5,2
00000f57 00000000*      7335 	.word	.LDWlin136
00000f5b 0b             7336 	.byte	11
00000f5c 000502         7337 	.byte	0,5,2
00000f5f 00000000*      7338 	.word	.LDWlin137
00000f63 0b             7339 	.byte	11
00000f64 000502         7340 	.byte	0,5,2
00000f67 00000000*      7341 	.word	.LDWlin138
00000f6b 0b             7342 	.byte	11
00000f6c 02             7343 	.byte	2
00000f6d 00             7344 	.byte	0
00000f6e 0b             7345 	.byte	11
00000f6f 02             7346 	.byte	2
00000f70 00             7347 	.byte	0
00000f71 0b             7348 	.byte	11
00000f72 02             7349 	.byte	2
00000f73 04             7350 	.byte	4
00000f74 000101         7351 	.byte	0,1,1
                        7352 	.section	.debug_info
                        7353 .LDW_4d964a8:
0000144c 1d             7354 	.byte	29
0000144d 00000000*      7355 	.word	.LDW46
00001451 00000000*      7356 	.word	.LDW56
                        7357 
00001455 00             7358 	.byte	0
                        7359 
00001456 00             7360 	.byte	0
                        7361 
                        7362 .LDW_4d97290:
00001457 14             7363 	.byte	20
00001458 4275734d7367   7364 	.strz	"BusMsgDetermineErrCounter"
0000145e 44657465726d 
00001464 696e65457272 
0000146a 436f756e7465 
00001470 7200 
00001472 d106           7365 	.byte	209,6
00001474 0e             7366 	.byte	14
00001475 01             7367 	.byte	1
00001476 00000000*      7368 	.word	.LDW_4c87210
0000147a 00000000*      7369 	.word	_BusMsgDetermineErrCounter..C.3A.5C_ECU2.5CECU_Rivian_A1.5CTarget.5Crepo_projects.5CpRealEcu.5CcL_R2023.2E09.2E01.5Cmake.5Coutput.5Cobjects.5Cbusmsg.
0000147e 00000000*      7370 	.word	___ghs_eofn_BusMsgDetermineErrCounter
00001482 0153           7371 	.byte	1,83
00001484 828080800a     7372 	.byte	130,128,128,128,10
00001489 08             7373 	.byte	8
0000148a 03             7374 	.byte	3
0000148b 08             7375 	.byte	8
0000148c 00             7376 	.byte	0
0000148d 00             7377 	.byte	0
0000148e 00             7378 	.byte	0
0000148f 00             7379 	.byte	0
00001490 01             7380 	.byte	1
00001491 00             7381 	.byte	0
00001492 01             7382 	.byte	1
                        7383 
                        7384 	.section	.debug_frame
                        7385 .LDW_4e696f0:
00000370 00000000*      7386 	.word	.LDW_unq_3e-.LDW_unq_3d
                        7387 .LDW_unq_3d:
00000374 00000000*      7388 	.word	.LDW_4d5e980
00000378 00000000*      7389 	.word	_BusMsgDetermineErrCounter..C.3A.5C_ECU2.5CECU_Rivian_A1.5CTarget.5Crepo_projects.5CpRealEcu.5CcL_R2023.2E09.2E01.5Cmake.5Coutput.5Cobjects.5Cbusmsg.

                                                                      Page 141
                                                              C:\Users\nhuliyap\AppData\Local\Temp\gh_00006oo1.s
0000037c 00000000*      7390 	.word	___ghs_eofn_BusMsgDetermineErrCounter-_BusMsgDetermineErrCounter..C.3A.5C_ECU2.5CECU_Rivian_A1.5CTarget.5Crepo_projects.5CpRealEcu.5CcL_R2023.2E09.2E01.5Cmake.5Coutput.5Cobjects.5Cbusmsg.
00000380 44             7391 	.byte	68
00000381 9f             7392 	.byte	159
00000382 00             7393 	.byte	0
00000383 40             7394 	.byte	64
00000384 9d             7395 	.byte	157
00000385 04             7396 	.byte	4
00000386 01             7397 	.byte	1
00000387 00000000*      7398 	.word	.LDW55
0000038b 00             7399 	.byte	0
                        7400 .LDW_unq_3e:
                        7401 	.section	.debug_line
00000f77 000502         7402 	.byte	0,5,2
00000f7a 00000000*      7403 	.word	_BusMsgDetermineErrCounter..C.3A.5C_ECU2.5CECU_Rivian_A1.5CTarget.5Crepo_projects.5CpRealEcu.5CcL_R2023.2E09.2E01.5Cmake.5Coutput.5Cobjects.5Cbusmsg.
00000f7e 03             7404 	.byte	3
00000f7f d006           7405 	.byte	208,6
00000f81 02             7406 	.byte	2
00000f82 00             7407 	.byte	0
00000f83 01             7408 	.byte	1
00000f84 06             7409 	.byte	6
00000f85 1d             7410 	.byte	29
00000f86 000502         7411 	.byte	0,5,2
00000f89 00000000*      7412 	.word	.LDWlin42
00000f8d 0b             7413 	.byte	11
00000f8e 0c             7414 	.byte	12
00000f8f 02             7415 	.byte	2
00000f90 00             7416 	.byte	0
00000f91 0c             7417 	.byte	12
00000f92 000502         7418 	.byte	0,5,2
00000f95 00000000*      7419 	.word	.LDWlin43
00000f99 0b             7420 	.byte	11
00000f9a 0b             7421 	.byte	11
00000f9b 1b             7422 	.byte	27
00000f9c 02             7423 	.byte	2
00000f9d 00             7424 	.byte	0
00000f9e 0c             7425 	.byte	12
00000f9f 000502         7426 	.byte	0,5,2
00000fa2 00000000*      7427 	.word	.LDWlin44
00000fa6 0b             7428 	.byte	11
00000fa7 0b             7429 	.byte	11
00000fa8 1b             7430 	.byte	27
00000fa9 02             7431 	.byte	2
00000faa 00             7432 	.byte	0
00000fab 0c             7433 	.byte	12
00000fac 000502         7434 	.byte	0,5,2
00000faf 00000000*      7435 	.word	.LDWlin45
00000fb3 0b             7436 	.byte	11
00000fb4 0b             7437 	.byte	11
00000fb5 1b             7438 	.byte	27
00000fb6 02             7439 	.byte	2
00000fb7 00             7440 	.byte	0
00000fb8 0c             7441 	.byte	12
00000fb9 06             7442 	.byte	6
00000fba 02             7443 	.byte	2
00000fbb 02             7444 	.byte	2
00000fbc 02             7445 	.byte	2
00000fbd 04             7446 	.byte	4
00000fbe 000101         7447 	.byte	0,1,1
                        7448 	.section	.debug_info
                        7449 .LDW_4d96508:
00001493 1d             7450 	.byte	29

                                                                      Page 142
                                                              C:\Users\nhuliyap\AppData\Local\Temp\gh_00006oo1.s
00001494 00000000*      7451 	.word	.LDW45
00001498 00000000*      7452 	.word	.LDW55
                        7453 
                        7454 .LDW_4db04e0:
0000149c 04             7455 	.byte	4
0000149d 756352654572   7456 	.strz	"ucReErrCount"
000014a3 72436f756e74 
000014a9 00 
000014aa d206           7457 	.byte	210,6
000014ac 09             7458 	.byte	9
000014ad 01             7459 	.byte	1
000014ae 00000000*      7460 	.word	.LDW_4c87210
000014b2 00             7461 	.byte	0
000014b3 00             7462 	.byte	0
000014b4 016d           7463 	.byte	1,109
                        7464 
000014b6 00             7465 	.byte	0
                        7466 
000014b7 00             7467 	.byte	0
                        7468 
000014b8 00             7469 	.byte	0
                        7470 
                        7471 	.section	.debug_line
                        7472 .Ldw_line_end:
                        7473 	.section	.debug_macinfo
00000000 01             7474 	.byte	1
00000001 00             7475 	.byte	0
00000002 5f5f6768735f   7476 	.strz	"__ghs__ 1"
00000008 5f203100 
0000000c 01             7477 	.byte	1
0000000d 00             7478 	.byte	0
0000000e 5f5f4c4c4f4e   7479 	.strz	"__LLONG_BIT 64"
00000014 475f42495420 
0000001a 363400 
0000001d 01             7480 	.byte	1
0000001e 00             7481 	.byte	0
0000001f 494254434d5f   7482 	.strz	"IBTCM_SW_ANPASSUNGEN 1"
00000025 53575f414e50 
0000002b 415353554e47 
00000031 454e203100 
00000036 01             7483 	.byte	1
00000037 00             7484 	.byte	0
00000038 4255494c445f   7485 	.strz	"BUILD_LORDSTOWN 1"
0000003e 4c4f52445354 
00000044 4f574e203100 
0000004a 03             7486 	.byte	3
0000004b 00             7487 	.byte	0
0000004c 01             7488 	.byte	1
0000004d 03             7489 	.byte	3
0000004e 04             7490 	.byte	4
0000004f 02             7491 	.byte	2
00000050 03             7492 	.byte	3
00000051 06             7493 	.byte	6
00000052 03             7494 	.byte	3
00000053 03             7495 	.byte	3
00000054 04             7496 	.byte	4
00000055 04             7497 	.byte	4
00000056 03             7498 	.byte	3
00000057 07             7499 	.byte	7
00000058 05             7500 	.byte	5
00000059 03             7501 	.byte	3

                                                                      Page 143
                                                              C:\Users\nhuliyap\AppData\Local\Temp\gh_00006oo1.s
0000005a 1c             7502 	.byte	28
0000005b 06             7503 	.byte	6
0000005c 01             7504 	.byte	1
0000005d 3c             7505 	.byte	60
0000005e 545255452031   7506 	.strz	"TRUE 1u"
00000064 7500 
00000066 01             7507 	.byte	1
00000067 40             7508 	.byte	64
00000068 46414c534520   7509 	.strz	"FALSE 0u"
0000006e 307500 
00000071 04             7510 	.byte	4
00000072 03             7511 	.byte	3
00000073 1d             7512 	.byte	29
00000074 07             7513 	.byte	7
00000075 03             7514 	.byte	3
00000076 1b             7515 	.byte	27
00000077 08             7516 	.byte	8
00000078 03             7517 	.byte	3
00000079 54             7518 	.byte	84
0000007a 09             7519 	.byte	9
0000007b 04             7520 	.byte	4
0000007c 04             7521 	.byte	4
0000007d 04             7522 	.byte	4
0000007e 04             7523 	.byte	4
0000007f 04             7524 	.byte	4
00000080 01             7525 	.byte	1
00000081 0e             7526 	.byte	14
00000082 50524f445543   7527 	.strz	"PRODUCTION_SW 0x0"
00000088 54494f4e5f53 
0000008e 572030783000 
00000094 01             7528 	.byte	1
00000095 0f             7529 	.byte	15
00000096 444556454c4f   7530 	.strz	"DEVELOPMENT_SW 0x1"
0000009c 504d454e545f 
000000a2 535720307831 
000000a8 00 
000000a9 01             7531 	.byte	1
000000aa 10             7532 	.byte	16
000000ab 53575f434154   7533 	.strz	"SW_CATEGORY PRODUCTION_SW"
000000b1 45474f525920 
000000b7 50524f445543 
000000bd 54494f4e5f53 
000000c3 5700 
000000c5 04             7534 	.byte	4
000000c6 01             7535 	.byte	1
000000c7 08             7536 	.byte	8
000000c8 4d41585f5349   7537 	.strz	"MAX_SIZE_WS_TELEGRAM 16U"
000000ce 5a455f57535f 
000000d4 54454c454752 
000000da 414d20313655 
000000e0 00 
000000e1 01             7538 	.byte	1
000000e2 11             7539 	.byte	17
000000e3 4e564d5f424c   7540 	.strz	"NVM_BLOCK_TYPE uint32"
000000e9 4f434b5f5459 
000000ef 50452075696e 
000000f5 74333200 
000000f9 04             7541 	.byte	4
000000fa 03             7542 	.byte	3
000000fb 05             7543 	.byte	5
000000fc 0a             7544 	.byte	10

                                                                      Page 144
                                                              C:\Users\nhuliyap\AppData\Local\Temp\gh_00006oo1.s
000000fd 03             7545 	.byte	3
000000fe 06             7546 	.byte	6
000000ff 0b             7547 	.byte	11
00000100 04             7548 	.byte	4
00000101 01             7549 	.byte	1
00000102 08             7550 	.byte	8
00000103 535441544943   7551 	.strz	"STATIC static"
00000109 207374617469 
0000010f 6300 
00000111 01             7552 	.byte	1
00000112 18             7553 	.byte	24
00000113 53454e534f52   7554 	.strz	"SENSOR_AUFLOESUNG_25MBAR "
00000119 5f4155464c4f 
0000011f 4553554e475f 
00000125 32354d424152 
0000012b 2000 
0000012d 04             7555 	.byte	4
0000012e 03             7556 	.byte	3
0000012f 06             7557 	.byte	6
00000130 0c             7558 	.byte	12
00000131 03             7559 	.byte	3
00000132 1b             7560 	.byte	27
00000133 0d             7561 	.byte	13
00000134 01             7562 	.byte	1
00000135 9d01           7563 	.byte	157,1
00000137 4650412000     7564 	.strz	"FPA "
0000013c 01             7565 	.byte	1
0000013d 9f01           7566 	.byte	159,1
0000013f 4142535f5465   7567 	.strz	"ABS_Test_LOG_ENABLE "
00000145 73745f4c4f47 
0000014b 5f454e41424c 
00000151 452000 
00000154 04             7568 	.byte	4
00000155 04             7569 	.byte	4
00000156 03             7570 	.byte	3
00000157 07             7571 	.byte	7
00000158 0e             7572 	.byte	14
00000159 01             7573 	.byte	1
0000015a 0b             7574 	.byte	11
0000015b 4255534d5347   7575 	.strz	"BUSMSG_NUMBER_OF_TYRES ( (uint8) 4 )"
00000161 5f4e554d4245 
00000167 525f4f465f54 
0000016d 595245532028 
00000173 202875696e74 
00000179 382920342029 
0000017f 00 
00000180 01             7576 	.byte	1
00000181 0c             7577 	.byte	12
00000182 4255534d5347   7578 	.strz	"BUSMSG_TYRE_VL ( (uint8) 0 )"
00000188 5f545952455f 
0000018e 564c20282028 
00000194 75696e743829 
0000019a 2030202900 
0000019f 01             7579 	.byte	1
000001a0 0d             7580 	.byte	13
000001a1 4255534d5347   7581 	.strz	"BUSMSG_TYRE_VR ( (uint8) 1 )"
000001a7 5f545952455f 
000001ad 565220282028 
000001b3 75696e743829 
000001b9 2031202900 
000001be 01             7582 	.byte	1

                                                                      Page 145
                                                              C:\Users\nhuliyap\AppData\Local\Temp\gh_00006oo1.s
000001bf 0e             7583 	.byte	14
000001c0 4255534d5347   7584 	.strz	"BUSMSG_TYRE_HL ( (uint8) 2 )"
000001c6 5f545952455f 
000001cc 484c20282028 
000001d2 75696e743829 
000001d8 2032202900 
000001dd 01             7585 	.byte	1
000001de 0f             7586 	.byte	15
000001df 4255534d5347   7587 	.strz	"BUSMSG_TYRE_HR ( (uint8) 3 )"
000001e5 5f545952455f 
000001eb 485220282028 
000001f1 75696e743829 
000001f7 2033202900 
000001fc 01             7588 	.byte	1
000001fd 11             7589 	.byte	17
000001fe 4255534d5347   7590 	.strz	"BUSMSG_WARN_UNKNOWN ( (uint8) 0 )"
00000204 5f5741524e5f 
0000020a 554e4b4e4f57 
00000210 4e2028202875 
00000216 696e74382920 
0000021c 30202900 
00000220 01             7591 	.byte	1
00000221 12             7592 	.byte	18
00000222 4255534d5347   7593 	.strz	"BUSMSG_WARN_NOMINAL ( (uint8) 1 )"
00000228 5f5741524e5f 
0000022e 4e4f4d494e41 
00000234 4c2028202875 
0000023a 696e74382920 
00000240 31202900 
00000244 01             7594 	.byte	1
00000245 13             7595 	.byte	19
00000246 4255534d5347   7596 	.strz	"BUSMSG_WARN_HARD ( (uint8) 2 )"
0000024c 5f5741524e5f 
00000252 484152442028 
00000258 202875696e74 
0000025e 382920322029 
00000264 00 
00000265 01             7597 	.byte	1
00000266 14             7598 	.byte	20
00000267 4255534d5347   7599 	.strz	"BUSMSG_WARN_SOFT ( (uint8) 3 )"
0000026d 5f5741524e5f 
00000273 534f46542028 
00000279 202875696e74 
0000027f 382920332029 
00000285 00 
00000286 01             7600 	.byte	1
00000287 15             7601 	.byte	21
00000288 4255534d5347   7602 	.strz	"BUSMSG_WARN_PUNCTURE ( (uint8) 4 )"
0000028e 5f5741524e5f 
00000294 50554e435455 
0000029a 524520282028 
000002a0 75696e743829 
000002a6 2034202900 
000002ab 01             7603 	.byte	1
000002ac 17             7604 	.byte	23
000002ad 4255534d5347   7605 	.strz	"BUSMSG_TEMPERATURE_NO_WARNING ((uint8) 0U)"
000002b3 5f54454d5045 
000002b9 524154555245 
000002bf 5f4e4f5f5741 
000002c5 524e494e4720 
000002cb 282875696e74 

                                                                      Page 146
                                                              C:\Users\nhuliyap\AppData\Local\Temp\gh_00006oo1.s
000002d1 382920305529 
000002d7 00 
000002d8 01             7606 	.byte	1
000002d9 19             7607 	.byte	25
000002da 4255534d5347   7608 	.strz	"BUSMSG_TYREPRESS_VALID ( (uint8) 0 )"
000002e0 5f5459524550 
000002e6 524553535f56 
000002ec 414c49442028 
000002f2 202875696e74 
000002f8 382920302029 
000002fe 00 
000002ff 01             7609 	.byte	1
00000300 1a             7610 	.byte	26
00000301 4255534d5347   7611 	.strz	"BUSMSG_TYREPRESS_INVALID ( (uint8) 1 )"
00000307 5f5459524550 
0000030d 524553535f49 
00000313 4e56414c4944 
00000319 202820287569 
0000031f 6e7438292031 
00000325 202900 
00000328 01             7612 	.byte	1
00000329 1c             7613 	.byte	28
0000032a 4255534d5347   7614 	.strz	"BUSMSG_NUMBER_OF_TEXTFLAGS ( (uint8) 6 )"
00000330 5f4e554d4245 
00000336 525f4f465f54 
0000033c 455854464c41 
00000342 475320282028 
00000348 75696e743829 
0000034e 2036202900 
00000353 01             7615 	.byte	1
00000354 1d             7616 	.byte	29
00000355 4255534d5347   7617 	.strz	"BUSMSG_TEXTFLAG_1 ( (uint8) 0 )"
0000035b 5f5445585446 
00000361 4c41475f3120 
00000367 28202875696e 
0000036d 743829203020 
00000373 2900 
00000375 01             7618 	.byte	1
00000376 1f             7619 	.byte	31
00000377 4255534d5347   7620 	.strz	"BUSMSG_TEXTFLAG_3 ( (uint8) 2 )"
0000037d 5f5445585446 
00000383 4c41475f3320 
00000389 28202875696e 
0000038f 743829203220 
00000395 2900 
00000397 01             7621 	.byte	1
00000398 20             7622 	.byte	32
00000399 4255534d5347   7623 	.strz	"BUSMSG_TEXTFLAG_4 ( (uint8) 3 )"
0000039f 5f5445585446 
000003a5 4c41475f3420 
000003ab 28202875696e 
000003b1 743829203320 
000003b7 2900 
000003b9 01             7624 	.byte	1
000003ba 30             7625 	.byte	48
000003bb 63496e76616c   7626 	.strz	"cInvalidPressureCAN 0xFF"
000003c1 696450726573 
000003c7 737572654341 
000003cd 4e2030784646 
000003d3 00 
000003d4 01             7627 	.byte	1

                                                                      Page 147
                                                              C:\Users\nhuliyap\AppData\Local\Temp\gh_00006oo1.s
000003d5 31             7628 	.byte	49
000003d6 63496e76616c   7629 	.strz	"cInvalidTemperatureCAN 0xFF"
000003dc 696454656d70 
000003e2 657261747572 
000003e8 6543414e2030 
000003ee 78464600 
000003f2 04             7630 	.byte	4
000003f3 03             7631 	.byte	3
000003f4 08             7632 	.byte	8
000003f5 0f             7633 	.byte	15
000003f6 01             7634 	.byte	1
000003f7 0c             7635 	.byte	12
000003f8 474554624e6f   7636 	.strz	"GETbNoWarnPartSurvVL() ( GETbNoWarnPartSurv(BUSMSG_TYRE_VL) )"
000003fe 5761726e5061 
00000404 727453757276 
0000040a 564c28292028 
00000410 20474554624e 
00000416 6f5761726e50 
0000041c 617274537572 
00000422 76284255534d 
00000428 53475f545952 
0000042e 455f564c2920 
00000434 2900 
00000436 01             7637 	.byte	1
00000437 0d             7638 	.byte	13
00000438 474554624e6f   7639 	.strz	"GETbNoWarnPartSurvVR() ( GETbNoWarnPartSurv(BUSMSG_TYRE_VR) )"
0000043e 5761726e5061 
00000444 727453757276 
0000044a 565228292028 
00000450 20474554624e 
00000456 6f5761726e50 
0000045c 617274537572 
00000462 76284255534d 
00000468 53475f545952 
0000046e 455f56522920 
00000474 2900 
00000476 01             7640 	.byte	1
00000477 0e             7641 	.byte	14
00000478 474554624e6f   7642 	.strz	"GETbNoWarnPartSurvHL() ( GETbNoWarnPartSurv(BUSMSG_TYRE_HL) )"
0000047e 5761726e5061 
00000484 727453757276 
0000048a 484c28292028 
00000490 20474554624e 
00000496 6f5761726e50 
0000049c 617274537572 
000004a2 76284255534d 
000004a8 53475f545952 
000004ae 455f484c2920 
000004b4 2900 
000004b6 01             7643 	.byte	1
000004b7 0f             7644 	.byte	15
000004b8 474554624e6f   7645 	.strz	"GETbNoWarnPartSurvHR() ( GETbNoWarnPartSurv(BUSMSG_TYRE_HR) )"
000004be 5761726e5061 
000004c4 727453757276 
000004ca 485228292028 
000004d0 20474554624e 
000004d6 6f5761726e50 
000004dc 617274537572 
000004e2 76284255534d 
000004e8 53475f545952 
000004ee 455f48522920 

                                                                      Page 148
                                                              C:\Users\nhuliyap\AppData\Local\Temp\gh_00006oo1.s
000004f4 2900 
000004f6 04             7646 	.byte	4
000004f7 03             7647 	.byte	3
000004f8 09             7648 	.byte	9
000004f9 10             7649 	.byte	16
000004fa 04             7650 	.byte	4
000004fb 03             7651 	.byte	3
000004fc 0a             7652 	.byte	10
000004fd 11             7653 	.byte	17
000004fe 03             7654 	.byte	3
000004ff 04             7655 	.byte	4
00000500 12             7656 	.byte	18
00000501 03             7657 	.byte	3
00000502 08             7658 	.byte	8
00000503 13             7659 	.byte	19
00000504 01             7660 	.byte	1
00000505 1f             7661 	.byte	31
00000506 46494c544552   7662 	.strz	"FILTER_SYMC_CAN_MSGS "
0000050c 5f53594d435f 
00000512 43414e5f4d53 
00000518 47532000 
0000051c 01             7663 	.byte	1
0000051d 20             7664 	.byte	32
0000051e 444554454354   7665 	.strz	"DETECT_SYMC_WALLOC_DTC "
00000524 5f53594d435f 
0000052a 57414c4c4f43 
00000530 5f4454432000 
00000536 04             7666 	.byte	4
00000537 01             7667 	.byte	1
00000538 12             7668 	.byte	18
00000539 63526164506f   7669 	.strz	"cRadPosVL ( (uint8) 0 )"
0000053f 73564c202820 
00000545 2875696e7438 
0000054b 292030202900 
00000551 01             7670 	.byte	1
00000552 13             7671 	.byte	19
00000553 63526164506f   7672 	.strz	"cRadPosVR ( (uint8) 1 )"
00000559 735652202820 
0000055f 2875696e7438 
00000565 292031202900 
0000056b 01             7673 	.byte	1
0000056c 14             7674 	.byte	20
0000056d 63526164506f   7675 	.strz	"cRadPosHL ( (uint8) 2 )"
00000573 73484c202820 
00000579 2875696e7438 
0000057f 292032202900 
00000585 01             7676 	.byte	1
00000586 15             7677 	.byte	21
00000587 63526164506f   7678 	.strz	"cRadPosHR ( (uint8) 3 )"
0000058d 734852202820 
00000593 2875696e7438 
00000599 292033202900 
0000059f 01             7679 	.byte	1
000005a0 1e             7680 	.byte	30
000005a1 63496e76616c   7681 	.strz	"cInvalidREpressure ( (uint8) 0xff )"
000005a7 696452457072 
000005ad 657373757265 
000005b3 202820287569 
000005b9 6e7438292030 
000005bf 786666202900 
000005c5 04             7682 	.byte	4

                                                                      Page 149
                                                              C:\Users\nhuliyap\AppData\Local\Temp\gh_00006oo1.s
000005c6 03             7683 	.byte	3
000005c7 06             7684 	.byte	6
000005c8 14             7685 	.byte	20
000005c9 01             7686 	.byte	1
000005ca 14             7687 	.byte	20
000005cb 634d6178414b   7688 	.strz	"cMaxAK35DataBytes 14U"
000005d1 333544617461 
000005d7 427974657320 
000005dd 31345500 
000005e1 04             7689 	.byte	4
000005e2 04             7690 	.byte	4
000005e3 03             7691 	.byte	3
000005e4 0b             7692 	.byte	11
000005e5 15             7693 	.byte	21
000005e6 03             7694 	.byte	3
000005e7 06             7695 	.byte	6
000005e8 16             7696 	.byte	22
000005e9 01             7697 	.byte	1
000005ea 0e             7698 	.byte	14
000005eb 70625f514143   7699 	.strz	"pb_QACStatic_160503 "
000005f1 537461746963 
000005f7 5f3136303530 
000005fd 332000 
00000600 01             7700 	.byte	1
00000601 16             7701 	.byte	22
00000602 75634d617850   7702 	.strz	"ucMaxPosc 4"
00000608 6f7363203400 
0000060e 01             7703 	.byte	1
0000060f 17             7704 	.byte	23
00000610 756353756d57   7705 	.strz	"ucSumWEc (unsigned char) 4"
00000616 45632028756e 
0000061c 7369676e6564 
00000622 206368617229 
00000628 203400 
0000062b 04             7706 	.byte	4
0000062c 01             7707 	.byte	1
0000062d 2c             7708 	.byte	44
0000062e 7563504d696e   7709 	.strz	"ucPMinc (unsigned char) 0x01"
00000634 632028756e73 
0000063a 69676e656420 
00000640 636861722920 
00000646 3078303100 
0000064b 01             7710 	.byte	1
0000064c 2f             7711 	.byte	47
0000064d 756344485763   7712 	.strz	"ucDHWc (unsigned char) 0x08"
00000653 2028756e7369 
00000659 676e65642063 
0000065f 686172292030 
00000665 78303800 
00000669 01             7713 	.byte	1
0000066a 32             7714 	.byte	50
0000066b 756354576320   7715 	.strz	"ucTWc (unsigned char) 0x40"
00000671 28756e736967 
00000677 6e6564206368 
0000067d 617229203078 
00000683 343000 
00000686 01             7716 	.byte	1
00000687 33             7717 	.byte	51
00000688 756345754663   7718 	.strz	"ucEuFc (unsigned char) 0x80"
0000068e 2028756e7369 
00000694 676e65642063 

                                                                      Page 150
                                                              C:\Users\nhuliyap\AppData\Local\Temp\gh_00006oo1.s
0000069a 686172292030 
000006a0 78383000 
000006a4 01             7719 	.byte	1
000006a5 4c             7720 	.byte	76
000006a6 75635750464c   7721 	.strz	"ucWPFLc (unsigned char) 0"
000006ac 632028756e73 
000006b2 69676e656420 
000006b8 636861722920 
000006be 3000 
000006c0 01             7722 	.byte	1
000006c1 4d             7723 	.byte	77
000006c2 756357504652   7724 	.strz	"ucWPFRc (unsigned char) 1"
000006c8 632028756e73 
000006ce 69676e656420 
000006d4 636861722920 
000006da 3100 
000006dc 01             7725 	.byte	1
000006dd 4e             7726 	.byte	78
000006de 75635750524c   7727 	.strz	"ucWPRLc (unsigned char) 2"
000006e4 632028756e73 
000006ea 69676e656420 
000006f0 636861722920 
000006f6 3200 
000006f8 01             7728 	.byte	1
000006f9 4f             7729 	.byte	79
000006fa 756357505252   7730 	.strz	"ucWPRRc (unsigned char) 3"
00000700 632028756e73 
00000706 69676e656420 
0000070c 636861722920 
00000712 3300 
00000714 01             7731 	.byte	1
00000715 50             7732 	.byte	80
00000716 756357504e41   7733 	.strz	"ucWPNAc (unsigned char) 4"
0000071c 632028756e73 
00000722 69676e656420 
00000728 636861722920 
0000072e 3400 
00000730 01             7734 	.byte	1
00000731 8a01           7735 	.byte	138,1
00000733 47455462504d   7736 	.strz	"GETbPMFL() ( (aucWheelPosWarn[ucWPFLc] & ucPMinc) == ucPMinc )"
00000739 464c28292028 
0000073f 202861756357 
00000745 6865656c506f 
0000074b 735761726e5b 
00000751 75635750464c 
00000757 635d20262075 
0000075d 63504d696e63 
00000763 29203d3d2075 
00000769 63504d696e63 
0000076f 202900 
00000772 01             7737 	.byte	1
00000773 8b01           7738 	.byte	139,1
00000775 47455462504d   7739 	.strz	"GETbPMFR() ( (aucWheelPosWarn[ucWPFRc] & ucPMinc) == ucPMinc )"
0000077b 465228292028 
00000781 202861756357 
00000787 6865656c506f 
0000078d 735761726e5b 
00000793 756357504652 
00000799 635d20262075 
0000079f 63504d696e63 
000007a5 29203d3d2075 

                                                                      Page 151
                                                              C:\Users\nhuliyap\AppData\Local\Temp\gh_00006oo1.s
000007ab 63504d696e63 
000007b1 202900 
000007b4 01             7740 	.byte	1
000007b5 8c01           7741 	.byte	140,1
000007b7 47455462504d   7742 	.strz	"GETbPMRL() ( (aucWheelPosWarn[ucWPRLc] & ucPMinc) == ucPMinc )"
000007bd 524c28292028 
000007c3 202861756357 
000007c9 6865656c506f 
000007cf 735761726e5b 
000007d5 75635750524c 
000007db 635d20262075 
000007e1 63504d696e63 
000007e7 29203d3d2075 
000007ed 63504d696e63 
000007f3 202900 
000007f6 01             7743 	.byte	1
000007f7 8d01           7744 	.byte	141,1
000007f9 47455462504d   7745 	.strz	"GETbPMRR() ( (aucWheelPosWarn[ucWPRRc] & ucPMinc) == ucPMinc )"
000007ff 525228292028 
00000805 202861756357 
0000080b 6865656c506f 
00000811 735761726e5b 
00000817 756357505252 
0000081d 635d20262075 
00000823 63504d696e63 
00000829 29203d3d2075 
0000082f 63504d696e63 
00000835 202900 
00000838 01             7746 	.byte	1
00000839 8e01           7747 	.byte	142,1
0000083b 47455462504d   7748 	.strz	"GETbPMNA() ( (aucWheelPosWarn[ucWPNAc] & ucPMinc) == ucPMinc )"
00000841 4e4128292028 
00000847 202861756357 
0000084d 6865656c506f 
00000853 735761726e5b 
00000859 756357504e41 
0000085f 635d20262075 
00000865 63504d696e63 
0000086b 29203d3d2075 
00000871 63504d696e63 
00000877 202900 
0000087a 01             7749 	.byte	1
0000087b 9301           7750 	.byte	147,1
0000087d 474554624448   7751 	.strz	"GETbDHWFL() ( (aucWheelPosWarn[ucWPFLc] & ucDHWc) == ucDHWc )"
00000883 57464c282920 
00000889 282028617563 
0000088f 576865656c50 
00000895 6f735761726e 
0000089b 5b7563575046 
000008a1 4c635d202620 
000008a7 756344485763 
000008ad 29203d3d2075 
000008b3 634448576320 
000008b9 2900 
000008bb 01             7752 	.byte	1
000008bc 9401           7753 	.byte	148,1
000008be 474554624448   7754 	.strz	"GETbDHWFR() ( (aucWheelPosWarn[ucWPFRc] & ucDHWc) == ucDHWc )"
000008c4 574652282920 
000008ca 282028617563 
000008d0 576865656c50 
000008d6 6f735761726e 

                                                                      Page 152
                                                              C:\Users\nhuliyap\AppData\Local\Temp\gh_00006oo1.s
000008dc 5b7563575046 
000008e2 52635d202620 
000008e8 756344485763 
000008ee 29203d3d2075 
000008f4 634448576320 
000008fa 2900 
000008fc 01             7755 	.byte	1
000008fd 9501           7756 	.byte	149,1
000008ff 474554624448   7757 	.strz	"GETbDHWRL() ( (aucWheelPosWarn[ucWPRLc] & ucDHWc) == ucDHWc )"
00000905 57524c282920 
0000090b 282028617563 
00000911 576865656c50 
00000917 6f735761726e 
0000091d 5b7563575052 
00000923 4c635d202620 
00000929 756344485763 
0000092f 29203d3d2075 
00000935 634448576320 
0000093b 2900 
0000093d 01             7758 	.byte	1
0000093e 9601           7759 	.byte	150,1
00000940 474554624448   7760 	.strz	"GETbDHWRR() ( (aucWheelPosWarn[ucWPRRc] & ucDHWc) == ucDHWc )"
00000946 575252282920 
0000094c 282028617563 
00000952 576865656c50 
00000958 6f735761726e 
0000095e 5b7563575052 
00000964 52635d202620 
0000096a 756344485763 
00000970 29203d3d2075 
00000976 634448576320 
0000097c 2900 
0000097e 01             7761 	.byte	1
0000097f 9701           7762 	.byte	151,1
00000981 474554624448   7763 	.strz	"GETbDHWNA() ( (aucWheelPosWarn[ucWPNAc] & ucDHWc) == ucDHWc )"
00000987 574e41282920 
0000098d 282028617563 
00000993 576865656c50 
00000999 6f735761726e 
0000099f 5b756357504e 
000009a5 41635d202620 
000009ab 756344485763 
000009b1 29203d3d2075 
000009b7 634448576320 
000009bd 2900 
000009bf 01             7764 	.byte	1
000009c0 a501           7765 	.byte	165,1
000009c2 474554625045   7766 	.strz	"GETbPECEFL() ( (aucWheelPosWarn[ucWPFLc] & ucEuFc) == ucEuFc )"
000009c8 4345464c2829 
000009ce 202820286175 
000009d4 63576865656c 
000009da 506f73576172 
000009e0 6e5b75635750 
000009e6 464c635d2026 
000009ec 207563457546 
000009f2 6329203d3d20 
000009f8 756345754663 
000009fe 202900 
00000a01 01             7767 	.byte	1
00000a02 a601           7768 	.byte	166,1
00000a04 474554625045   7769 	.strz	"GETbPECEFR() ( (aucWheelPosWarn[ucWPFRc] & ucEuFc) == ucEuFc )"

                                                                      Page 153
                                                              C:\Users\nhuliyap\AppData\Local\Temp\gh_00006oo1.s
00000a0a 434546522829 
00000a10 202820286175 
00000a16 63576865656c 
00000a1c 506f73576172 
00000a22 6e5b75635750 
00000a28 4652635d2026 
00000a2e 207563457546 
00000a34 6329203d3d20 
00000a3a 756345754663 
00000a40 202900 
00000a43 01             7770 	.byte	1
00000a44 a701           7771 	.byte	167,1
00000a46 474554625045   7772 	.strz	"GETbPECERL() ( (aucWheelPosWarn[ucWPRLc] & ucEuFc) == ucEuFc )"
00000a4c 4345524c2829 
00000a52 202820286175 
00000a58 63576865656c 
00000a5e 506f73576172 
00000a64 6e5b75635750 
00000a6a 524c635d2026 
00000a70 207563457546 
00000a76 6329203d3d20 
00000a7c 756345754663 
00000a82 202900 
00000a85 01             7773 	.byte	1
00000a86 a801           7774 	.byte	168,1
00000a88 474554625045   7775 	.strz	"GETbPECERR() ( (aucWheelPosWarn[ucWPRRc] & ucEuFc) == ucEuFc )"
00000a8e 434552522829 
00000a94 202820286175 
00000a9a 63576865656c 
00000aa0 506f73576172 
00000aa6 6e5b75635750 
00000aac 5252635d2026 
00000ab2 207563457546 
00000ab8 6329203d3d20 
00000abe 756345754663 
00000ac4 202900 
00000ac7 01             7776 	.byte	1
00000ac8 a901           7777 	.byte	169,1
00000aca 474554625045   7778 	.strz	"GETbPECENA() ( (aucWheelPosWarn[ucWPNAc] & ucEuFc) == ucEuFc )"
00000ad0 43454e412829 
00000ad6 202820286175 
00000adc 63576865656c 
00000ae2 506f73576172 
00000ae8 6e5b75635750 
00000aee 4e41635d2026 
00000af4 207563457546 
00000afa 6329203d3d20 
00000b00 756345754663 
00000b06 202900 
00000b09 01             7779 	.byte	1
00000b0a ab01           7780 	.byte	171,1
00000b0c 474554625457   7781 	.strz	"GETbTWFL() ( (aucWheelPosWarn[ucWPFLc] & ucTWc) == ucTWc )"
00000b12 464c28292028 
00000b18 202861756357 
00000b1e 6865656c506f 
00000b24 735761726e5b 
00000b2a 75635750464c 
00000b30 635d20262075 
00000b36 635457632920 
00000b3c 3d3d20756354 
00000b42 5763202900 

                                                                      Page 154
                                                              C:\Users\nhuliyap\AppData\Local\Temp\gh_00006oo1.s
00000b47 01             7782 	.byte	1
00000b48 ac01           7783 	.byte	172,1
00000b4a 474554625457   7784 	.strz	"GETbTWFR() ( (aucWheelPosWarn[ucWPFRc] & ucTWc) == ucTWc )"
00000b50 465228292028 
00000b56 202861756357 
00000b5c 6865656c506f 
00000b62 735761726e5b 
00000b68 756357504652 
00000b6e 635d20262075 
00000b74 635457632920 
00000b7a 3d3d20756354 
00000b80 5763202900 
00000b85 01             7785 	.byte	1
00000b86 ad01           7786 	.byte	173,1
00000b88 474554625457   7787 	.strz	"GETbTWRL() ( (aucWheelPosWarn[ucWPRLc] & ucTWc) == ucTWc )"
00000b8e 524c28292028 
00000b94 202861756357 
00000b9a 6865656c506f 
00000ba0 735761726e5b 
00000ba6 75635750524c 
00000bac 635d20262075 
00000bb2 635457632920 
00000bb8 3d3d20756354 
00000bbe 5763202900 
00000bc3 01             7788 	.byte	1
00000bc4 ae01           7789 	.byte	174,1
00000bc6 474554625457   7790 	.strz	"GETbTWRR() ( (aucWheelPosWarn[ucWPRRc] & ucTWc) == ucTWc )"
00000bcc 525228292028 
00000bd2 202861756357 
00000bd8 6865656c506f 
00000bde 735761726e5b 
00000be4 756357505252 
00000bea 635d20262075 
00000bf0 635457632920 
00000bf6 3d3d20756354 
00000bfc 5763202900 
00000c01 01             7791 	.byte	1
00000c02 af01           7792 	.byte	175,1
00000c04 474554625457   7793 	.strz	"GETbTWNA() ( (aucWheelPosWarn[ucWPNAc] & ucTWc) == ucTWc )"
00000c0a 4e4128292028 
00000c10 202861756357 
00000c16 6865656c506f 
00000c1c 735761726e5b 
00000c22 756357504e41 
00000c28 635d20262075 
00000c2e 635457632920 
00000c34 3d3d20756354 
00000c3a 5763202900 
00000c3f 04             7794 	.byte	4
00000c40 03             7795 	.byte	3
00000c41 0c             7796 	.byte	12
00000c42 17             7797 	.byte	23
00000c43 01             7798 	.byte	1
00000c44 09             7799 	.byte	9
00000c45 6345525f4649   7800 	.strz	"cER_FINISH ((uint16) 0x0001)"
00000c4b 4e4953482028 
00000c51 2875696e7431 
00000c57 362920307830 
00000c5d 3030312900 
00000c62 01             7801 	.byte	1
00000c63 0c             7802 	.byte	12

                                                                      Page 155
                                                              C:\Users\nhuliyap\AppData\Local\Temp\gh_00006oo1.s
00000c64 63454947454e   7803 	.strz	"cEIGENRAD ((uint16) 0x0008)"
00000c6a 524144202828 
00000c70 75696e743136 
00000c76 292030783030 
00000c7c 30382900 
00000c80 01             7804 	.byte	1
00000c81 0d             7805 	.byte	13
00000c82 635a5547454f   7806 	.strz	"cZUGEORDNET ((uint16) 0x0010)"
00000c88 52444e455420 
00000c8e 282875696e74 
00000c94 313629203078 
00000c9a 303031302900 
00000ca0 01             7807 	.byte	1
00000ca1 0f             7808 	.byte	15
00000ca2 63484953545f   7809 	.strz	"cHIST_PRELOAD ((uint16) 0x0040)"
00000ca8 5052454c4f41 
00000cae 442028287569 
00000cb4 6e7431362920 
00000cba 307830303430 
00000cc0 2900 
00000cc2 01             7810 	.byte	1
00000cc3 15             7811 	.byte	21
00000cc4 635a4f5f5449   7812 	.strz	"cZO_TIMEOUT ((uint16) 0x1000)"
00000cca 4d454f555420 
00000cd0 282875696e74 
00000cd6 313629203078 
00000cdc 313030302900 
00000ce2 04             7813 	.byte	4
00000ce3 03             7814 	.byte	3
00000ce4 0e             7815 	.byte	14
00000ce5 18             7816 	.byte	24
00000ce6 04             7817 	.byte	4
00000ce7 03             7818 	.byte	3
00000ce8 0f             7819 	.byte	15
00000ce9 19             7820 	.byte	25
00000cea 01             7821 	.byte	1
00000ceb 2b             7822 	.byte	43
00000cec 75634d617846   7823 	.strz	"ucMaxFF4RFInterference ((unsigned char)133)"
00000cf2 46345246496e 
00000cf8 746572666572 
00000cfe 656e63652028 
00000d04 28756e736967 
00000d0a 6e6564206368 
00000d10 617229313333 
00000d16 2900 
00000d18 04             7824 	.byte	4
00000d19 03             7825 	.byte	3
00000d1a 10             7826 	.byte	16
00000d1b 1a             7827 	.byte	26
00000d1c 01             7828 	.byte	1
00000d1d 11             7829 	.byte	17
00000d1e 635a4f5f4552   7830 	.strz	"cZO_ERR_NO_QUALIFIED_SENSOR_SIGNALS (uint8)E_TPMS_ERROR_NO_QUALIFIED_SENSOR_SIGNALS"
00000d24 525f4e4f5f51 
00000d2a 55414c494649 
00000d30 45445f53454e 
00000d36 534f525f5349 
00000d3c 474e414c5320 
00000d42 2875696e7438 
00000d48 29455f54504d 
00000d4e 535f4552524f 
00000d54 525f4e4f5f51 

                                                                      Page 156
                                                              C:\Users\nhuliyap\AppData\Local\Temp\gh_00006oo1.s
00000d5a 55414c494649 
00000d60 45445f53454e 
00000d66 534f525f5349 
00000d6c 474e414c5300 
00000d72 01             7831 	.byte	1
00000d73 68             7832 	.byte	104
00000d74 635a4f5f4552   7833 	.strz	"cZO_ERR_RF_INTERFERENCE (uint8)E_TPMS_ERROR_RF_INTERFERENCE"
00000d7a 525f52465f49 
00000d80 4e5445524645 
00000d86 52454e434520 
00000d8c 2875696e7438 
00000d92 29455f54504d 
00000d98 535f4552524f 
00000d9e 525f52465f49 
00000da4 4e5445524645 
00000daa 52454e434500 
00000db0 04             7834 	.byte	4
00000db1 01             7835 	.byte	1
00000db2 2a             7836 	.byte	42
00000db3 54455854464c   7837 	.strz	"TEXTFLAGS_INVALID ( (boolean) FALSE )"
00000db9 4147535f494e 
00000dbf 56414c494420 
00000dc5 282028626f6f 
00000dcb 6c65616e2920 
00000dd1 46414c534520 
00000dd7 2900 
00000dd9 04             7838 	.byte	4
00000dda 00             7839 	.byte	0
                        7840 	.section	.debug_abbrev
00000166 00             7841 	.byte	0
                        7842 	.section	.debug_info
                        7843 .Ldw_end:
                        7844 .rh850_flags REGMODE32,DATA_ALIGN8,GP_FIX,EP_NONFIX,TP_FIX,REG2_RESERVE,G3K,GHS_MISALIGN,SDA_EXTRA_REGS_0
