                                                                      Page 1
                                                              C:\Users\nhuliyap\AppData\Local\Temp\gh_000048k1.s
Command Line: C:\ghs\comp_201517\ease850.exe -w -elf -b0 -I../source/common -I../source/ProjectCompiler -I../source/ProjectCfg -I../source/SwcApplTpms -I../source/SwcApplTpms/Intface -I../source/SwcApplEcuM -I../source/SwcServiceEcuM -I../source/SwcServiceNvM -I../source/SwcServiceOs -I../source/SwcServiceStartUp -I../source/McalAdc -I../source/McalDio -I../source/McalGpt -I../source/McalMcu -I../source/McalWdg -I../source/wrappers -I../source/wrappers/McalAta -I../source/McalLin -I../source/McalCan -I../source/wrappers/OS -I../source/McalFls -I../source/EcuabFee -I../source/EcuabMemIf -I../source/wrappers/VStdLib -I../source/wrappers/Crc -I../source/wrappers/FBL_APPL -I../source/wrappers/CAN_MANAGER -I../source/wrappers/NVM_MANAGER -I../source/wrappers/DEM_MANAGER -I../source/wrappers/RDC_MANAGER -I../source/wrappers/ENV_MANAGER -I../source/wrappers/SYS_MANAGER -I../source/wrappers/EcuabCanIf -I../source/wrappers/SwcServiceCanSM -I../source/wrappers/SwcServiceCanTp -I../source/wrappers/SwcServiceCanTp_PreCompile -I../source/wrappers/SwcServiceCom -I../source/wrappers/SwcServiceComM -I../source/wrappers/SwcServiceComStack -I../source/wrappers/SwcServiceDcm -I../source/wrappers/SwcServicePduR -I../source/wrappers/SwcServiceEcuM -I../source/wrappers/Bfx -I../source/wrappers/SwcServiceDem -I../source/SwcServiceDet -I../source/SwcServiceFiM -I../source/wrappers/LibAutosarDiag -I../source/wrappers/rba_BswSrv -I../source/SwcServiceSchM -I../source/wrappers/SwcServiceComM/Integration -I../source/wrappers/SwcServicePduR/Integration -I../source/wrappers/EcuabCanIf/Integration -I../source/wrappers/SwcServiceCom/Integration -I../source/wrappers/SwcServiceCanTp/Integration -I../source/wrappers/SwcServiceEcuM/Integration -I../source/SwcServiceDet/Integration -I../source/wrappers/SwcServiceDcm/Integration -I../source/wrappers/SwcServiceDem/Integration -I../source/SwcServiceFiM/Integration -I../source/wrappers/EcuabCanIf/api -I../source/wrappers/SwcServiceCom/api -I../source/wrappers/SwcServiceComM/api -I../source/wrappers/SwcServicePduR/api -I../source/wrappers/Bfx/api -I../source/SwcServiceDet/api -I../source/SwcServiceFiM/api -I../source/wrappers/LibAutosarDiag/api -I../source/wrappers/rba_BswSrv/api -IC:\ghs\comp_201517\lib\rh850 -cg_underscore -cpu=rh850g3k -no_v850_simd -rh850_fpsimd=none -nomacro -patch_dbo=C:\_ECU2\ECU_Rivian_A1\Target\repo_projects\pRealEcu\cL_R2023.09.01\make\output\objects\ProductionFlashInterface.dbo -source=ProductionFlashInterface.c -o output\objects\gh_000048k1.o -list=output\list\ProductionFlashInterface.lst C:\Users\nhuliyap\AppData\Local\Temp\gh_000048k1.s 
Original File: C:\Users\nhuliyap\AppData\Local\Temp\gh_000048k1.s
Source File: ProductionFlashInterface.c
Directory: C:\_ECU2\ECU_Rivian_A1\Target\repo_projects\pRealEcu\cL_R2023.09.01\make
Host OS: Windows
EASE: Copyright (C) 1983-2015 Green Hills Software.  All Rights Reserved.
Release: Compiler v2015.1.7
Build Directory: [Directory] BTOWORKER6:c:/build_2015_1_bto/2015-10-21.2100-2015_1_bto/win32-comp-ecom
Revision: [VCInfo] http://toolsvc/branches/release-branch-70-bto/src@544153 (built by build)
Revision Date: Thu Oct 22 07:50:13 2015

Release Date: Thu Oct 22 09:32:32 2015

                           1 --Driver Command: ccv850
                           2 --		../source/wrappers/NVM_MANAGER/ProductionFlashInterface.c
                           3 --		-cpu=rh850 -fhard -ignore_callt_state_in_interrupts -large_sda
                           4 --		-misalign_pack -nofarcalls -nofloatio -no_callt -Ogeneral
                           5 --		-Onounroll -prepare_dispose -registermode=32 -reserve_r2 -sda=0
                           6 --		-shorten_loads -Wshadow --brief_diagnostics --no_commons
                           7 --		--no_wrap_diagnostics --prototype_errors --short_enum -list -G
                           8 --		-dual_debug -dwarf -X5523 -lnk=-no_xda_modifications -D
                           9 --		NOT_READY_FOR_TESTING_OR_DEPLOYMENT -D IBTCM_SW_ANPASSUNGEN -D
                          10 --		BUILD_LORDSTOWN -c -inline_prologue -I../source/common
                          11 --		-I../source/ProjectCompiler -I../source/ProjectCfg
                          12 --		-I../source/SwcApplTpms -I../source/SwcApplTpms/Intface
                          13 --		-I../source/SwcApplEcuM -I../source/SwcServiceEcuM
                          14 --		-I../source/SwcServiceNvM -I../source/SwcServiceOs
                          15 --		-I../source/SwcServiceStartUp -I../source/McalAdc
                          16 --		-I../source/McalDio -I../source/McalGpt -I../source/McalMcu
                          17 --		-I../source/McalWdg -I../source/wrappers
                          18 --		-I../source/wrappers/McalAta -I../source/McalLin
                          19 --		-I../source/McalCan -I../source/wrappers/OS -I../source/McalFls
                          20 --		-I../source/EcuabFee -I../source/EcuabMemIf
                          21 --		-I../source/wrappers/VStdLib -I../source/wrappers
                          22 --		-I../source/wrappers/Crc -I../source/wrappers/FBL_APPL
                          23 --		-I../source/wrappers/CAN_MANAGER -I../source/wrappers/NVM_MANAGER
                          24 --		-I../source/wrappers/DEM_MANAGER -I../source/wrappers/RDC_MANAGER
                          25 --		-I../source/wrappers/ENV_MANAGER -I../source/wrappers/SYS_MANAGER
                          26 --		-I../source/wrappers/EcuabCanIf
                          27 --		-I../source/wrappers/SwcServiceCanSM
                          28 --		-I../source/wrappers/SwcServiceCanTp
                          29 --		-I../source/wrappers/SwcServiceCanTp_PreCompile
                          30 --		-I../source/wrappers/SwcServiceCom
                          31 --		-I../source/wrappers/SwcServiceComM
                          32 --		-I../source/wrappers/SwcServiceComStack
                          33 --		-I../source/wrappers/SwcServiceDcm
                          34 --		-I../source/wrappers/SwcServicePduR
                          35 --		-I../source/wrappers/SwcServiceEcuM -I../source/wrappers/Bfx
                          36 --		-I../source/wrappers/SwcServiceDem -I../source/SwcServiceDet
                          37 --		-I../source/SwcServiceFiM -I../source/wrappers/LibAutosarDiag
                          38 --		-I../source/wrappers/rba_BswSrv -I../source/SwcServiceSchM
                          39 --		-I../source/wrappers/SwcServiceComM/Integration
                          40 --		-I../source/wrappers/SwcServicePduR/Integration
                          41 --		-I../source/wrappers/EcuabCanIf/Integration
                          42 --		-I../source/wrappers/SwcServiceCom/Integration
                          43 --		-I../source/wrappers/SwcServiceCanTp/Integration
                          44 --		-I../source/wrappers/SwcServiceEcuM/Integration
                          45 --		-I../source/SwcServiceDet/Integration
                          46 --		-I../source/wrappers/SwcServiceDcm/Integration
                          47 --		-I../source/wrappers/SwcServiceDem/Integration
                          48 --		-I../source/SwcServiceFiM/Integration
                          49 --		-I../source/wrappers/EcuabCanIf/api
                          50 --		-I../source/wrappers/SwcServiceCom/api

                                                                      Page 2
                                                              C:\Users\nhuliyap\AppData\Local\Temp\gh_000048k1.s
                          51 --		-I../source/wrappers/SwcServiceComM/api
                          52 --		-I../source/wrappers/SwcServicePduR/api
                          53 --		-I../source/wrappers/Bfx/api -I../source/SwcServiceDet/api
                          54 --		-I../source/SwcServiceFiM/api
                          55 --		-I../source/wrappers/LibAutosarDiag/api
                          56 --		-I../source/wrappers/rba_BswSrv/api -object_dir=output/objects
                          57 --		-list_dir=output/list
                          58 --Source File:   ../source/wrappers/NVM_MANAGER/ProductionFlashInterface.c
                          59 --Directory:     
                          60 --		C:\_ECU2\ECU_Rivian_A1\Target\repo_projects\pRealEcu\cL_R2023.09.01\make
                          61 --Compile Date:  Wed Sep 06 08:59:07 2023
                          62 --Host OS:       Win32
                          63 --Version:       C-RH850 2015.1.7 RELEASE VERSION
                          64 --Release:       Compiler v2015.1.7
                          65 --Revision Date: Thu Oct 22 08:06:12 2015
                          66 --Release Date:  Thu Oct 22 09:34:32 2015
                          67 -- ecom  -g -w -OM
                          68 	.text
                          69 ..bof.C.3A.5C_ECU2.5CECU_Rivian_A1.5CTarget.5Crepo_projects.5CpRealEcu.5CcL_R2023.2E09.2E01.5Cmake.5Coutput.5Cobjects.5CProductionFlashInterface...43.3A.5C_ECU2.5CECU_Rivian_A1.5CTarget.5Crepo_projects.5CpRealEcu.5CcL_R2023.2E09.2E01.5Cmake..64F8233B..0::
                          70 ..gh.beginasm.0:
                          71 	.type	..gh.beginasm.0,@object
                          72 	.size	..gh.beginasm.0,0
                          73 
                          74 
                          75 
                          76 
                          77 
                          78 
                          79 
                          80     .set  regframe, 21
                          81 
                          82 
                          83     .set  framesize, regframe*4
                          84 
                          85 ..gh.endasm.1:
                          86 	.type	..gh.endasm.1,@object
                          87 	.size	..gh.endasm.1,0
                          88 	.text
                          89 	.align	2
                          90 ..gh.f.f.1.e.2:
                          91 	.type	..gh.f.f.1.e.2,@object
                          92 	.size	..gh.f.f.1.e.2,0
                          93 	.global	_PRODFLASH__GetAddressOfMember..C.3A.5C_ECU2.5CECU_Rivian_A1.5CTarget.5Crepo_projects.5CpRealEcu.5CcL_R2023.2E09.2E01.5Cmake.5Coutput.5Cobjects.5CProductionFlashInterface.
                          94 _PRODFLASH__GetAddressOfMember..C.3A.5C_ECU2.5CECU_Rivian_A1.5CTarget.5Crepo_projects.5CpRealEcu.5CcL_R2023.2E09.2E01.5Cmake.5Coutput.5Cobjects.5CProductionFlashInterface.:
                          95 _PRODFLASH__GetAddressOfMember:
00000000 a600             96 	sxb	r6
                          97 --	    .bf
                          98 .LDW01:
00000002 0052             99 	mov	0,r10
00000004 0606deff        100 	addi	-34,r6,zero
00000008 e1076501*       101 	bl	.L2
0000000c 320600000000*   102 	mov	_DCM__UN_ProductionDataFlash,r18
00000012 c232            103 	shl	2,r6
00000014 e60600000000*   104 	jmp	.L242[r6]
                         105 .L242:
0000001a 80078800*       106 	jr	.L6
0000001e 80078800*       107 	jr	.L7
00000022 80078a00*       108 	jr	.L8
00000026 80078c00*       109 	jr	.L9
0000002a 80078e00*       110 	jr	.L10
0000002e 80079000*       111 	jr	.L11

                                                                      Page 3
                                                              C:\Users\nhuliyap\AppData\Local\Temp\gh_000048k1.s
00000032 80079200*       112 	jr	.L12
00000036 80079400*       113 	jr	.L13
0000003a 80079600*       114 	jr	.L14
0000003e 80079800*       115 	jr	.L15
00000042 80079a00*       116 	jr	.L16
00000046 80079c00*       117 	jr	.L17
0000004a 80079e00*       118 	jr	.L18
0000004e 8007a000*       119 	jr	.L19
00000052 8007a200*       120 	jr	.L20
00000056 8007a400*       121 	jr	.L21
0000005a 8007a600*       122 	jr	.L22
0000005e 8007a800*       123 	jr	.L23
00000062 8007aa00*       124 	jr	.L24
00000066 8007ac00*       125 	jr	.L25
0000006a 8007ae00*       126 	jr	.L26
0000006e 8007b000*       127 	jr	.L27
00000072 8007b200*       128 	jr	.L28
00000076 8007b400*       129 	jr	.L29
0000007a 8007b600*       130 	jr	.L30
0000007e 8007b800*       131 	jr	.L31
00000082 8007ba00*       132 	jr	.L32
00000086 8007bc00*       133 	jr	.L33
0000008a 8007be00*       134 	jr	.L34
0000008e 8007c000*       135 	jr	.L35
00000092 8007c200*       136 	jr	.L36
00000096 8007c400*       137 	jr	.L37
0000009a 8007c600*       138 	jr	.L38
0000009e 8007c800*       139 	jr	.L39
                         140 .L6:
                         141 --line22
                         142 ..lin.C.3A.5C_ECU2.5CECU_Rivian_A1.5CTarget.5Crepo_projects.5CpRealEcu.5CcL_R2023.2E09.2E01.5Cmake.5Coutput.5Cobjects.5CProductionFlashInterface.1::
                         143 .LDWlin1:
000000a2 1250            144 	mov	r18,r10
000000a4 7f00            145 	jmp	[lp]
                         146 .L7:
                         147 --line25
                         148 ..lin.C.3A.5C_ECU2.5CECU_Rivian_A1.5CTarget.5Crepo_projects.5CpRealEcu.5CcL_R2023.2E09.2E01.5Cmake.5Coutput.5Cobjects.5CProductionFlashInterface.2::
                         149 .LDWlin2:
000000a6 12561000        150 	addi	16,r18,r10
000000aa 7f00            151 	jmp	[lp]
                         152 .L8:
                         153 --line28
                         154 ..lin.C.3A.5C_ECU2.5CECU_Rivian_A1.5CTarget.5Crepo_projects.5CpRealEcu.5CcL_R2023.2E09.2E01.5Cmake.5Coutput.5Cobjects.5CProductionFlashInterface.3::
                         155 .LDWlin3:
000000ac 12561a00        156 	addi	26,r18,r10
000000b0 7f00            157 	jmp	[lp]
                         158 .L9:
                         159 --line31
                         160 ..lin.C.3A.5C_ECU2.5CECU_Rivian_A1.5CTarget.5Crepo_projects.5CpRealEcu.5CcL_R2023.2E09.2E01.5Cmake.5Coutput.5Cobjects.5CProductionFlashInterface.4::
                         161 .LDWlin4:
000000b2 12562400        162 	addi	36,r18,r10
000000b6 7f00            163 	jmp	[lp]
                         164 .L10:
                         165 --line34
                         166 ..lin.C.3A.5C_ECU2.5CECU_Rivian_A1.5CTarget.5Crepo_projects.5CpRealEcu.5CcL_R2023.2E09.2E01.5Cmake.5Coutput.5Cobjects.5CProductionFlashInterface.5::
                         167 .LDWlin5:
000000b8 12562700        168 	addi	39,r18,r10
000000bc 7f00            169 	jmp	[lp]
                         170 .L11:
                         171 --line37
                         172 ..lin.C.3A.5C_ECU2.5CECU_Rivian_A1.5CTarget.5Crepo_projects.5CpRealEcu.5CcL_R2023.2E09.2E01.5Cmake.5Coutput.5Cobjects.5CProductionFlashInterface.6::

                                                                      Page 4
                                                              C:\Users\nhuliyap\AppData\Local\Temp\gh_000048k1.s
                         173 .LDWlin6:
000000be 12562a00        174 	addi	42,r18,r10
000000c2 7f00            175 	jmp	[lp]
                         176 .L12:
                         177 --line40
                         178 ..lin.C.3A.5C_ECU2.5CECU_Rivian_A1.5CTarget.5Crepo_projects.5CpRealEcu.5CcL_R2023.2E09.2E01.5Cmake.5Coutput.5Cobjects.5CProductionFlashInterface.7::
                         179 .LDWlin7:
000000c4 12562d00        180 	addi	45,r18,r10
000000c8 7f00            181 	jmp	[lp]
                         182 .L13:
                         183 --line43
                         184 ..lin.C.3A.5C_ECU2.5CECU_Rivian_A1.5CTarget.5Crepo_projects.5CpRealEcu.5CcL_R2023.2E09.2E01.5Cmake.5Coutput.5Cobjects.5CProductionFlashInterface.8::
                         185 .LDWlin8:
000000ca 12563700        186 	addi	55,r18,r10
000000ce 7f00            187 	jmp	[lp]
                         188 .L14:
                         189 --line46
                         190 ..lin.C.3A.5C_ECU2.5CECU_Rivian_A1.5CTarget.5Crepo_projects.5CpRealEcu.5CcL_R2023.2E09.2E01.5Cmake.5Coutput.5Cobjects.5CProductionFlashInterface.9::
                         191 .LDWlin9:
000000d0 12564100        192 	addi	65,r18,r10
000000d4 7f00            193 	jmp	[lp]
                         194 .L15:
                         195 --line49
                         196 ..lin.C.3A.5C_ECU2.5CECU_Rivian_A1.5CTarget.5Crepo_projects.5CpRealEcu.5CcL_R2023.2E09.2E01.5Cmake.5Coutput.5Cobjects.5CProductionFlashInterface.10::
                         197 .LDWlin10:
000000d6 12564300        198 	addi	67,r18,r10
000000da 7f00            199 	jmp	[lp]
                         200 .L16:
                         201 --line52
                         202 ..lin.C.3A.5C_ECU2.5CECU_Rivian_A1.5CTarget.5Crepo_projects.5CpRealEcu.5CcL_R2023.2E09.2E01.5Cmake.5Coutput.5Cobjects.5CProductionFlashInterface.11::
                         203 .LDWlin11:
000000dc 12564900        204 	addi	73,r18,r10
000000e0 7f00            205 	jmp	[lp]
                         206 .L17:
                         207 --line55
                         208 ..lin.C.3A.5C_ECU2.5CECU_Rivian_A1.5CTarget.5Crepo_projects.5CpRealEcu.5CcL_R2023.2E09.2E01.5Cmake.5Coutput.5Cobjects.5CProductionFlashInterface.12::
                         209 .LDWlin12:
000000e2 12565200        210 	addi	82,r18,r10
000000e6 7f00            211 	jmp	[lp]
                         212 .L18:
                         213 --line58
                         214 ..lin.C.3A.5C_ECU2.5CECU_Rivian_A1.5CTarget.5Crepo_projects.5CpRealEcu.5CcL_R2023.2E09.2E01.5Cmake.5Coutput.5Cobjects.5CProductionFlashInterface.13::
                         215 .LDWlin13:
000000e8 12566600        216 	addi	102,r18,r10
000000ec 7f00            217 	jmp	[lp]
                         218 .L19:
                         219 --line61
                         220 ..lin.C.3A.5C_ECU2.5CECU_Rivian_A1.5CTarget.5Crepo_projects.5CpRealEcu.5CcL_R2023.2E09.2E01.5Cmake.5Coutput.5Cobjects.5CProductionFlashInterface.14::
                         221 .LDWlin14:
000000ee 12566900        222 	addi	105,r18,r10
000000f2 7f00            223 	jmp	[lp]
                         224 .L20:
                         225 --line64
                         226 ..lin.C.3A.5C_ECU2.5CECU_Rivian_A1.5CTarget.5Crepo_projects.5CpRealEcu.5CcL_R2023.2E09.2E01.5Cmake.5Coutput.5Cobjects.5CProductionFlashInterface.15::
                         227 .LDWlin15:
000000f4 12567d00        228 	addi	125,r18,r10
000000f8 7f00            229 	jmp	[lp]
                         230 .L21:
                         231 --line67
                         232 ..lin.C.3A.5C_ECU2.5CECU_Rivian_A1.5CTarget.5Crepo_projects.5CpRealEcu.5CcL_R2023.2E09.2E01.5Cmake.5Coutput.5Cobjects.5CProductionFlashInterface.16::
                         233 .LDWlin16:

                                                                      Page 5
                                                              C:\Users\nhuliyap\AppData\Local\Temp\gh_000048k1.s
000000fa 12568000        234 	addi	128,r18,r10
000000fe 7f00            235 	jmp	[lp]
                         236 .L22:
                         237 --line70
                         238 ..lin.C.3A.5C_ECU2.5CECU_Rivian_A1.5CTarget.5Crepo_projects.5CpRealEcu.5CcL_R2023.2E09.2E01.5Cmake.5Coutput.5Cobjects.5CProductionFlashInterface.17::
                         239 .LDWlin17:
00000100 12569100        240 	addi	145,r18,r10
00000104 7f00            241 	jmp	[lp]
                         242 .L23:
                         243 --line73
                         244 ..lin.C.3A.5C_ECU2.5CECU_Rivian_A1.5CTarget.5Crepo_projects.5CpRealEcu.5CcL_R2023.2E09.2E01.5Cmake.5Coutput.5Cobjects.5CProductionFlashInterface.18::
                         245 .LDWlin18:
00000106 12569200        246 	addi	146,r18,r10
0000010a 7f00            247 	jmp	[lp]
                         248 .L24:
                         249 --line76
                         250 ..lin.C.3A.5C_ECU2.5CECU_Rivian_A1.5CTarget.5Crepo_projects.5CpRealEcu.5CcL_R2023.2E09.2E01.5Cmake.5Coutput.5Cobjects.5CProductionFlashInterface.19::
                         251 .LDWlin19:
0000010c 12569300        252 	addi	147,r18,r10
00000110 7f00            253 	jmp	[lp]
                         254 .L25:
                         255 --line79
                         256 ..lin.C.3A.5C_ECU2.5CECU_Rivian_A1.5CTarget.5Crepo_projects.5CpRealEcu.5CcL_R2023.2E09.2E01.5Cmake.5Coutput.5Cobjects.5CProductionFlashInterface.20::
                         257 .LDWlin20:
00000112 12569500        258 	addi	149,r18,r10
00000116 7f00            259 	jmp	[lp]
                         260 .L26:
                         261 --line82
                         262 ..lin.C.3A.5C_ECU2.5CECU_Rivian_A1.5CTarget.5Crepo_projects.5CpRealEcu.5CcL_R2023.2E09.2E01.5Cmake.5Coutput.5Cobjects.5CProductionFlashInterface.21::
                         263 .LDWlin21:
00000118 12569600        264 	addi	150,r18,r10
0000011c 7f00            265 	jmp	[lp]
                         266 .L27:
                         267 --line85
                         268 ..lin.C.3A.5C_ECU2.5CECU_Rivian_A1.5CTarget.5Crepo_projects.5CpRealEcu.5CcL_R2023.2E09.2E01.5Cmake.5Coutput.5Cobjects.5CProductionFlashInterface.22::
                         269 .LDWlin22:
0000011e 12569700        270 	addi	151,r18,r10
00000122 7f00            271 	jmp	[lp]
                         272 .L28:
                         273 --line88
                         274 ..lin.C.3A.5C_ECU2.5CECU_Rivian_A1.5CTarget.5Crepo_projects.5CpRealEcu.5CcL_R2023.2E09.2E01.5Cmake.5Coutput.5Cobjects.5CProductionFlashInterface.23::
                         275 .LDWlin23:
00000124 12569900        276 	addi	153,r18,r10
00000128 7f00            277 	jmp	[lp]
                         278 .L29:
                         279 --line91
                         280 ..lin.C.3A.5C_ECU2.5CECU_Rivian_A1.5CTarget.5Crepo_projects.5CpRealEcu.5CcL_R2023.2E09.2E01.5Cmake.5Coutput.5Cobjects.5CProductionFlashInterface.24::
                         281 .LDWlin24:
0000012a 1256bc00        282 	addi	188,r18,r10
0000012e 7f00            283 	jmp	[lp]
                         284 .L30:
                         285 --line94
                         286 ..lin.C.3A.5C_ECU2.5CECU_Rivian_A1.5CTarget.5Crepo_projects.5CpRealEcu.5CcL_R2023.2E09.2E01.5Cmake.5Coutput.5Cobjects.5CProductionFlashInterface.25::
                         287 .LDWlin25:
00000130 1256ce00        288 	addi	206,r18,r10
00000134 7f00            289 	jmp	[lp]
                         290 .L31:
                         291 --line97
                         292 ..lin.C.3A.5C_ECU2.5CECU_Rivian_A1.5CTarget.5Crepo_projects.5CpRealEcu.5CcL_R2023.2E09.2E01.5Cmake.5Coutput.5Cobjects.5CProductionFlashInterface.26::
                         293 .LDWlin26:
00000136 1256f100        294 	addi	241,r18,r10

                                                                      Page 6
                                                              C:\Users\nhuliyap\AppData\Local\Temp\gh_000048k1.s
0000013a 7f00            295 	jmp	[lp]
                         296 .L32:
                         297 --line100
                         298 ..lin.C.3A.5C_ECU2.5CECU_Rivian_A1.5CTarget.5Crepo_projects.5CpRealEcu.5CcL_R2023.2E09.2E01.5Cmake.5Coutput.5Cobjects.5CProductionFlashInterface.27::
                         299 .LDWlin27:
0000013c 12560301        300 	addi	259,r18,r10
00000140 7f00            301 	jmp	[lp]
                         302 .L33:
                         303 --line103
                         304 ..lin.C.3A.5C_ECU2.5CECU_Rivian_A1.5CTarget.5Crepo_projects.5CpRealEcu.5CcL_R2023.2E09.2E01.5Cmake.5Coutput.5Cobjects.5CProductionFlashInterface.28::
                         305 .LDWlin28:
00000142 12561301        306 	addi	275,r18,r10
00000146 7f00            307 	jmp	[lp]
                         308 .L34:
                         309 --line106
                         310 ..lin.C.3A.5C_ECU2.5CECU_Rivian_A1.5CTarget.5Crepo_projects.5CpRealEcu.5CcL_R2023.2E09.2E01.5Cmake.5Coutput.5Cobjects.5CProductionFlashInterface.29::
                         311 .LDWlin29:
00000148 12561701        312 	addi	279,r18,r10
0000014c 7f00            313 	jmp	[lp]
                         314 .L35:
                         315 --line109
                         316 ..lin.C.3A.5C_ECU2.5CECU_Rivian_A1.5CTarget.5Crepo_projects.5CpRealEcu.5CcL_R2023.2E09.2E01.5Cmake.5Coutput.5Cobjects.5CProductionFlashInterface.30::
                         317 .LDWlin30:
0000014e 12561801        318 	addi	280,r18,r10
00000152 7f00            319 	jmp	[lp]
                         320 .L36:
                         321 --line112
                         322 ..lin.C.3A.5C_ECU2.5CECU_Rivian_A1.5CTarget.5Crepo_projects.5CpRealEcu.5CcL_R2023.2E09.2E01.5Cmake.5Coutput.5Cobjects.5CProductionFlashInterface.31::
                         323 .LDWlin31:
00000154 12564001        324 	addi	320,r18,r10
00000158 7f00            325 	jmp	[lp]
                         326 .L37:
                         327 --line115
                         328 ..lin.C.3A.5C_ECU2.5CECU_Rivian_A1.5CTarget.5Crepo_projects.5CpRealEcu.5CcL_R2023.2E09.2E01.5Cmake.5Coutput.5Cobjects.5CProductionFlashInterface.32::
                         329 .LDWlin32:
0000015a 12564201        330 	addi	322,r18,r10
0000015e 7f00            331 	jmp	[lp]
                         332 .L38:
                         333 --line118
                         334 ..lin.C.3A.5C_ECU2.5CECU_Rivian_A1.5CTarget.5Crepo_projects.5CpRealEcu.5CcL_R2023.2E09.2E01.5Cmake.5Coutput.5Cobjects.5CProductionFlashInterface.33::
                         335 .LDWlin33:
00000160 1256c007        336 	addi	1984,r18,r10
00000164 7f00            337 	jmp	[lp]
                         338 .L39:
                         339 --line121
                         340 ..lin.C.3A.5C_ECU2.5CECU_Rivian_A1.5CTarget.5Crepo_projects.5CpRealEcu.5CcL_R2023.2E09.2E01.5Cmake.5Coutput.5Cobjects.5CProductionFlashInterface.34::
                         341 .LDWlin34:
00000166 1256d007        342 	addi	2000,r18,r10
0000016a 7f00            343 	jmp	[lp]
                         344 .L2:
                         345 --	    .ef
                         346 .LDW11:
                         347 --line126
                         348 ..lin.C.3A.5C_ECU2.5CECU_Rivian_A1.5CTarget.5Crepo_projects.5CpRealEcu.5CcL_R2023.2E09.2E01.5Cmake.5Coutput.5Cobjects.5CProductionFlashInterface.35::
                         349 .LDWlin35:
0000016c 7f00            350 	jmp	[lp]
                         351 ___ghs_eofn_PRODFLASH__GetAddressOfMember:
                         352 	.type	_PRODFLASH__GetAddressOfMember,@function
                         353 	.size	_PRODFLASH__GetAddressOfMember,.-_PRODFLASH__GetAddressOfMember
                         354 	.type	_PRODFLASH__GetAddressOfMember..C.3A.5C_ECU2.5CECU_Rivian_A1.5CTarget.5Crepo_projects.5CpRealEcu.5CcL_R2023.2E09.2E01.5Cmake.5Coutput.5Cobjects.5CProductionFlashInterface.,@function
                         355 	.size	_PRODFLASH__GetAddressOfMember..C.3A.5C_ECU2.5CECU_Rivian_A1.5CTarget.5Crepo_projects.5CpRealEcu.5CcL_R2023.2E09.2E01.5Cmake.5Coutput.5Cobjects.5CProductionFlashInterface.,.-_PRODFLASH__GetAddressOfMember..C.3A.5C_ECU2.5CECU_Rivian_A1.5CTarget.5Crepo_projects.5CpRealEcu.5CcL_R2023.2E09.2E01.5Cmake.5Coutput.5Cobjects.5CProductionFlashInterface.

                                                                      Page 7
                                                              C:\Users\nhuliyap\AppData\Local\Temp\gh_000048k1.s
                         356 	.align	2
                         357 --_U32_AddressOfMember	r10	local
                         358 
                         359 --_EN_Member	r6	param
                         360 
                         361 	.section ".bss","awb"
                         362 .L240:
                         363 	.type	.L240,@object
                         364 	.size	.L240,0
                         365 	.section ".production_data","awb"
                         366 	.align	4
                         367 	.global	_DCM__UN_ProductionDataFlash..C.3A.5C_ECU2.5CECU_Rivian_A1.5CTarget.5Crepo_projects.5CpRealEcu.5CcL_R2023.2E09.2E01.5Cmake.5Coutput.5Cobjects.5CProductionFlashInterface.
                         368 _DCM__UN_ProductionDataFlash..C.3A.5C_ECU2.5CECU_Rivian_A1.5CTarget.5Crepo_projects.5CpRealEcu.5CcL_R2023.2E09.2E01.5Cmake.5Coutput.5Cobjects.5CProductionFlashInterface.:
00000000 000000000000    369 _DCM__UN_ProductionDataFlash:	.space	2048
00000006 000000000000 
0000000c 000000000000 
00000012 000000000000 
00000018 000000000000 
0000001e 000000000000 
00000024 000000000000 
0000002a 000000000000 
00000030 000000000000 
00000036 000000000000 
0000003c 000000000000 
00000042 000000000000 
00000048 000000000000 
0000004e 000000000000 
00000054 000000000000 
0000005a 000000000000 
00000060 000000000000 
00000066 000000000000 
0000006c 000000000000 
00000072 000000000000 
00000078 000000000000 
0000007e 000000000000 
00000084 000000000000 
0000008a 000000000000 
00000090 000000000000 
00000096 000000000000 
0000009c 000000000000 
000000a2 000000000000 
000000a8 000000000000 
000000ae 000000000000 
000000b4 000000000000 
000000ba 000000000000 
000000c0 000000000000 
000000c6 000000000000 
000000cc 000000000000 
000000d2 000000000000 
000000d8 000000000000 
000000de 000000000000 
000000e4 000000000000 
000000ea 000000000000 
000000f0 000000000000 
000000f6 000000000000 
000000fc 00000000 
                         370 	.type	_DCM__UN_ProductionDataFlash..C.3A.5C_ECU2.5CECU_Rivian_A1.5CTarget.5Crepo_projects.5CpRealEcu.5CcL_R2023.2E09.2E01.5Cmake.5Coutput.5Cobjects.5CProductionFlashInterface.,@object
                         371 	.size	_DCM__UN_ProductionDataFlash..C.3A.5C_ECU2.5CECU_Rivian_A1.5CTarget.5Crepo_projects.5CpRealEcu.5CcL_R2023.2E09.2E01.5Cmake.5Coutput.5Cobjects.5CProductionFlashInterface.,2048
                         372 	.type	_DCM__UN_ProductionDataFlash,@object
                         373 	.size	_DCM__UN_ProductionDataFlash,2048
                         374 	.data

                                                                      Page 8
                                                              C:\Users\nhuliyap\AppData\Local\Temp\gh_000048k1.s
                         375 	.ghsnote jtable,2097156,.L242,.L242,.L242,34
                         376 	.text
                         377 	.align	2
                         378 	.align	2
                         379 ..gh.f.f.1.e.3:
                         380 	.type	..gh.f.f.1.e.3,@object
                         381 	.size	..gh.f.f.1.e.3,0
                         382 	.global	_PRODFLASH__GetStartBlockNumber..C.3A.5C_ECU2.5CECU_Rivian_A1.5CTarget.5Crepo_projects.5CpRealEcu.5CcL_R2023.2E09.2E01.5Cmake.5Coutput.5Cobjects.5CProductionFlashInterface.
                         383 _PRODFLASH__GetStartBlockNumber..C.3A.5C_ECU2.5CECU_Rivian_A1.5CTarget.5Crepo_projects.5CpRealEcu.5CcL_R2023.2E09.2E01.5Cmake.5Coutput.5Cobjects.5CProductionFlashInterface.:
                         384 _PRODFLASH__GetStartBlockNumber:
                         385 --	    .bf
                         386 .LDW21:
0000016e 330600000000*   387 	mov	_DCM__UN_ProductionDataFlash,r19
00000174 b331            388 	sub	r19,r6
00000176 8632            389 	shr	6,r6
00000178 0650            390 	mov	r6,r10
0000017a 8a00            391 	zxb	r10
                         392 --	    .ef
                         393 .LDW31:
                         394 --line130
                         395 ..lin.C.3A.5C_ECU2.5CECU_Rivian_A1.5CTarget.5Crepo_projects.5CpRealEcu.5CcL_R2023.2E09.2E01.5Cmake.5Coutput.5Cobjects.5CProductionFlashInterface.36::
                         396 .LDWlin36:
0000017c 7f00            397 	jmp	[lp]
                         398 ___ghs_eofn_PRODFLASH__GetStartBlockNumber:
                         399 	.type	_PRODFLASH__GetStartBlockNumber,@function
                         400 	.size	_PRODFLASH__GetStartBlockNumber,.-_PRODFLASH__GetStartBlockNumber
                         401 	.type	_PRODFLASH__GetStartBlockNumber..C.3A.5C_ECU2.5CECU_Rivian_A1.5CTarget.5Crepo_projects.5CpRealEcu.5CcL_R2023.2E09.2E01.5Cmake.5Coutput.5Cobjects.5CProductionFlashInterface.,@function
                         402 	.size	_PRODFLASH__GetStartBlockNumber..C.3A.5C_ECU2.5CECU_Rivian_A1.5CTarget.5Crepo_projects.5CpRealEcu.5CcL_R2023.2E09.2E01.5Cmake.5Coutput.5Cobjects.5CProductionFlashInterface.,.-_PRODFLASH__GetStartBlockNumber..C.3A.5C_ECU2.5CECU_Rivian_A1.5CTarget.5Crepo_projects.5CpRealEcu.5CcL_R2023.2E09.2E01.5Cmake.5Coutput.5Cobjects.5CProductionFlashInterface.
                         403 	.align	2
                         404 
                         405 --_U32_AddressOfMember	r6	param
                         406 
                         407 	.section ".bss","awb"
                         408 .L612:
                         409 	.type	.L612,@object
                         410 	.size	.L612,0
                         411 	.data
                         412 	.text
                         413 	.align	2
                         414 	.align	2
                         415 ..gh.f.f.1.e.4:
                         416 	.type	..gh.f.f.1.e.4,@object
                         417 	.size	..gh.f.f.1.e.4,0
                         418 	.global	_PRODFLASH__GetEndBlockNumber..C.3A.5C_ECU2.5CECU_Rivian_A1.5CTarget.5Crepo_projects.5CpRealEcu.5CcL_R2023.2E09.2E01.5Cmake.5Coutput.5Cobjects.5CProductionFlashInterface.
                         419 _PRODFLASH__GetEndBlockNumber..C.3A.5C_ECU2.5CECU_Rivian_A1.5CTarget.5Crepo_projects.5CpRealEcu.5CcL_R2023.2E09.2E01.5Cmake.5Coutput.5Cobjects.5CProductionFlashInterface.:
                         420 _PRODFLASH__GetEndBlockNumber:
                         421 --	    .bf
                         422 .LDW41:
0000017e 330600000000*   423 	mov	_DCM__UN_ProductionDataFlash,r19
00000184 b331            424 	sub	r19,r6
00000186 c639            425 	add	r6,r7
00000188 863a            426 	shr	6,r7
0000018a 0750            427 	mov	r7,r10
0000018c 8a00            428 	zxb	r10
                         429 --	    .ef
                         430 .LDW51:
                         431 --line140
                         432 ..lin.C.3A.5C_ECU2.5CECU_Rivian_A1.5CTarget.5Crepo_projects.5CpRealEcu.5CcL_R2023.2E09.2E01.5Cmake.5Coutput.5Cobjects.5CProductionFlashInterface.37::
                         433 .LDWlin37:
0000018e 7f00            434 	jmp	[lp]
                         435 ___ghs_eofn_PRODFLASH__GetEndBlockNumber:

                                                                      Page 9
                                                              C:\Users\nhuliyap\AppData\Local\Temp\gh_000048k1.s
                         436 	.type	_PRODFLASH__GetEndBlockNumber,@function
                         437 	.size	_PRODFLASH__GetEndBlockNumber,.-_PRODFLASH__GetEndBlockNumber
                         438 	.type	_PRODFLASH__GetEndBlockNumber..C.3A.5C_ECU2.5CECU_Rivian_A1.5CTarget.5Crepo_projects.5CpRealEcu.5CcL_R2023.2E09.2E01.5Cmake.5Coutput.5Cobjects.5CProductionFlashInterface.,@function
                         439 	.size	_PRODFLASH__GetEndBlockNumber..C.3A.5C_ECU2.5CECU_Rivian_A1.5CTarget.5Crepo_projects.5CpRealEcu.5CcL_R2023.2E09.2E01.5Cmake.5Coutput.5Cobjects.5CProductionFlashInterface.,.-_PRODFLASH__GetEndBlockNumber..C.3A.5C_ECU2.5CECU_Rivian_A1.5CTarget.5Crepo_projects.5CpRealEcu.5CcL_R2023.2E09.2E01.5Cmake.5Coutput.5Cobjects.5CProductionFlashInterface.
                         440 	.align	2
                         441 
                         442 --_U32_AddressOfMember	r6	param
                         443 --_U16_SizeOfMember	r7	param
                         444 
                         445 	.section ".bss","awb"
                         446 .L660:
                         447 	.type	.L660,@object
                         448 	.size	.L660,0
                         449 	.data
                         450 	.text
                         451 	.align	2
                         452 	.align	2
                         453 ..gh.f.f.1.e.5:
                         454 	.type	..gh.f.f.1.e.5,@object
                         455 	.size	..gh.f.f.1.e.5,0
                         456 	.global	_PRODFLASH__EraseFlashBlock..C.3A.5C_ECU2.5CECU_Rivian_A1.5CTarget.5Crepo_projects.5CpRealEcu.5CcL_R2023.2E09.2E01.5Cmake.5Coutput.5Cobjects.5CProductionFlashInterface.
                         457 _PRODFLASH__EraseFlashBlock..C.3A.5C_ECU2.5CECU_Rivian_A1.5CTarget.5Crepo_projects.5CpRealEcu.5CcL_R2023.2E09.2E01.5Cmake.5Coutput.5Cobjects.5CProductionFlashInterface.:
                         458 _PRODFLASH__EraseFlashBlock:
00000190 88072300        459 	prepare	{r31},4,sp
00000194 8600            460 	zxb	r6
                         461 --	    .bf
                         462 .LDW61:
00000196 8003            463 	sst.b	zero,0[ep]
00000198 0535            464 	sst.w	r6,8[ep]
0000019a 0192            465 	mov	1,r18
0000019c 8694            466 	sst.h	r18,12[ep]
0000019e 8e93            467 	sst.b	r18,14[ep]
000001a0 0330            468 	mov	sp,r6
                         469 	jarl	_R_FDL_Execute,lp
                         469 <EXPANSION BEGIN>
                         469 jarl22 _R_FDL_Execute , lp 
000001a2 80ff0000*       469 <EXPANSION END>
                         470 --line161
                         471 ..lin.C.3A.5C_ECU2.5CECU_Rivian_A1.5CTarget.5Crepo_projects.5CpRealEcu.5CcL_R2023.2E09.2E01.5Cmake.5Coutput.5Cobjects.5CProductionFlashInterface.38::
                         472 .LDWlin38:
000001a6 b505*           473 	br	.L680
                         474 .L682:
                         475 --line163
                         476 ..lin.C.3A.5C_ECU2.5CECU_Rivian_A1.5CTarget.5Crepo_projects.5CpRealEcu.5CcL_R2023.2E09.2E01.5Cmake.5Coutput.5Cobjects.5CProductionFlashInterface.39::
                         477 .LDWlin39:
                         478 	jarl	_R_FDL_Handler,lp
                         478 <EXPANSION BEGIN>
                         478 jarl22 _R_FDL_Handler , lp 
000001a8 80ff0000*       478 <EXPANSION END>
                         479 .L680:
                         480 --line161
                         481 ..lin.C.3A.5C_ECU2.5CECU_Rivian_A1.5CTarget.5Crepo_projects.5CpRealEcu.5CcL_R2023.2E09.2E01.5Cmake.5Coutput.5Cobjects.5CProductionFlashInterface.40::
                         482 .LDWlin40:
000001ac 039f0f00        483 	ld.b	15[sp],r19
000001b0 619a            484 	cmp	1,r19
000001b2 b2fd*           485 	be	.L682
                         486 --line166
                         487 ..lin.C.3A.5C_ECU2.5CECU_Rivian_A1.5CTarget.5Crepo_projects.5CpRealEcu.5CcL_R2023.2E09.2E01.5Cmake.5Coutput.5Cobjects.5CProductionFlashInterface.41::
                         488 .LDWlin41:
000001b4 03970f00        489 	ld.b	15[sp],r18
                         490 --	    .ef

                                                                      Page 10
                                                              C:\Users\nhuliyap\AppData\Local\Temp\gh_000048k1.s
                         491 .LDW71:
000001b8 48063f00        492 	dispose	4,{r31},[lp]
                         493 ___ghs_eofn_PRODFLASH__EraseFlashBlock:
                         494 	.type	_PRODFLASH__EraseFlashBlock,@function
                         495 	.size	_PRODFLASH__EraseFlashBlock,.-_PRODFLASH__EraseFlashBlock
                         496 	.type	_PRODFLASH__EraseFlashBlock..C.3A.5C_ECU2.5CECU_Rivian_A1.5CTarget.5Crepo_projects.5CpRealEcu.5CcL_R2023.2E09.2E01.5Cmake.5Coutput.5Cobjects.5CProductionFlashInterface.,@function
                         497 	.size	_PRODFLASH__EraseFlashBlock..C.3A.5C_ECU2.5CECU_Rivian_A1.5CTarget.5Crepo_projects.5CpRealEcu.5CcL_R2023.2E09.2E01.5Cmake.5Coutput.5Cobjects.5CProductionFlashInterface.,.-_PRODFLASH__EraseFlashBlock..C.3A.5C_ECU2.5CECU_Rivian_A1.5CTarget.5Crepo_projects.5CpRealEcu.5CcL_R2023.2E09.2E01.5Cmake.5Coutput.5Cobjects.5CProductionFlashInterface.
                         498 	.align	2
                         499 --_S_FdlRequest	0[sp]	local
                         500 
                         501 --_U8_BlockNumber	r6	param
                         502 
                         503 	.section ".bss","awb"
                         504 .L726:
                         505 	.type	.L726,@object
                         506 	.size	.L726,0
                         507 	.data
                         508 	.text
                         509 	.align	2
                         510 	.align	2
                         511 ..gh.f.f.1.e.6:
                         512 	.type	..gh.f.f.1.e.6,@object
                         513 	.size	..gh.f.f.1.e.6,0
                         514 	.global	_PRODFLASH__WriteFlashBlock..C.3A.5C_ECU2.5CECU_Rivian_A1.5CTarget.5Crepo_projects.5CpRealEcu.5CcL_R2023.2E09.2E01.5Cmake.5Coutput.5Cobjects.5CProductionFlashInterface.
                         515 _PRODFLASH__WriteFlashBlock..C.3A.5C_ECU2.5CECU_Rivian_A1.5CTarget.5Crepo_projects.5CpRealEcu.5CcL_R2023.2E09.2E01.5Cmake.5Coutput.5Cobjects.5CProductionFlashInterface.:
                         516 _PRODFLASH__WriteFlashBlock:
000001bc 88072300        517 	prepare	{r31},4,sp
000001c0 8600            518 	zxb	r6
                         519 --	    .bf
                         520 .LDW81:
000001c2 019a            521 	mov	1,r19
000001c4 809b            522 	sst.b	r19,0[ep]
000001c6 c632            523 	shl	6,r6
000001c8 0535            524 	sst.w	r6,8[ep]
000001ca 20364000        525 	movea	64,zero,r6
000001ce 8634            526 	sst.h	r6,12[ep]
000001d0 033d            527 	sst.w	r7,4[ep]
000001d2 8e9b            528 	sst.b	r19,14[ep]
000001d4 0330            529 	mov	sp,r6
                         530 	jarl	_R_FDL_Execute,lp
                         530 <EXPANSION BEGIN>
                         530 jarl22 _R_FDL_Execute , lp 
000001d6 80ff0000*       530 <EXPANSION END>
                         531 --line185
                         532 ..lin.C.3A.5C_ECU2.5CECU_Rivian_A1.5CTarget.5Crepo_projects.5CpRealEcu.5CcL_R2023.2E09.2E01.5Cmake.5Coutput.5Cobjects.5CProductionFlashInterface.42::
                         533 .LDWlin42:
000001da b505*           534 	br	.L773
                         535 .L775:
                         536 --line187
                         537 ..lin.C.3A.5C_ECU2.5CECU_Rivian_A1.5CTarget.5Crepo_projects.5CpRealEcu.5CcL_R2023.2E09.2E01.5Cmake.5Coutput.5Cobjects.5CProductionFlashInterface.43::
                         538 .LDWlin43:
                         539 	jarl	_R_FDL_Handler,lp
                         539 <EXPANSION BEGIN>
                         539 jarl22 _R_FDL_Handler , lp 
000001dc 80ff0000*       539 <EXPANSION END>
                         540 .L773:
                         541 --line185
                         542 ..lin.C.3A.5C_ECU2.5CECU_Rivian_A1.5CTarget.5Crepo_projects.5CpRealEcu.5CcL_R2023.2E09.2E01.5Cmake.5Coutput.5Cobjects.5CProductionFlashInterface.44::
                         543 .LDWlin44:
000001e0 039f0f00        544 	ld.b	15[sp],r19
000001e4 619a            545 	cmp	1,r19

                                                                      Page 11
                                                              C:\Users\nhuliyap\AppData\Local\Temp\gh_000048k1.s
000001e6 b2fd*           546 	be	.L775
                         547 --line190
                         548 ..lin.C.3A.5C_ECU2.5CECU_Rivian_A1.5CTarget.5Crepo_projects.5CpRealEcu.5CcL_R2023.2E09.2E01.5Cmake.5Coutput.5Cobjects.5CProductionFlashInterface.45::
                         549 .LDWlin45:
000001e8 03970f00        550 	ld.b	15[sp],r18
                         551 --	    .ef
                         552 .LDW91:
000001ec 48063f00        553 	dispose	4,{r31},[lp]
                         554 ___ghs_eofn_PRODFLASH__WriteFlashBlock:
                         555 	.type	_PRODFLASH__WriteFlashBlock,@function
                         556 	.size	_PRODFLASH__WriteFlashBlock,.-_PRODFLASH__WriteFlashBlock
                         557 	.type	_PRODFLASH__WriteFlashBlock..C.3A.5C_ECU2.5CECU_Rivian_A1.5CTarget.5Crepo_projects.5CpRealEcu.5CcL_R2023.2E09.2E01.5Cmake.5Coutput.5Cobjects.5CProductionFlashInterface.,@function
                         558 	.size	_PRODFLASH__WriteFlashBlock..C.3A.5C_ECU2.5CECU_Rivian_A1.5CTarget.5Crepo_projects.5CpRealEcu.5CcL_R2023.2E09.2E01.5Cmake.5Coutput.5Cobjects.5CProductionFlashInterface.,.-_PRODFLASH__WriteFlashBlock..C.3A.5C_ECU2.5CECU_Rivian_A1.5CTarget.5Crepo_projects.5CpRealEcu.5CcL_R2023.2E09.2E01.5Cmake.5Coutput.5Cobjects.5CProductionFlashInterface.
                         559 	.align	2
                         560 --_S_FdlRequest	0[sp]	local
                         561 
                         562 --_U8_BlockNumber	r6	param
                         563 --_PU8_Data	r7	param
                         564 
                         565 	.section ".bss","awb"
                         566 .L822:
                         567 	.type	.L822,@object
                         568 	.size	.L822,0
                         569 	.data
                         570 	.text
                         571 	.align	2
                         572 	.align	2
                         573 ..gh.f.f.1.e.7:
                         574 	.type	..gh.f.f.1.e.7,@object
                         575 	.size	..gh.f.f.1.e.7,0
                         576 	.global	_PRODFLASH__GetSizeOfMember..C.3A.5C_ECU2.5CECU_Rivian_A1.5CTarget.5Crepo_projects.5CpRealEcu.5CcL_R2023.2E09.2E01.5Cmake.5Coutput.5Cobjects.5CProductionFlashInterface.
                         577 _PRODFLASH__GetSizeOfMember..C.3A.5C_ECU2.5CECU_Rivian_A1.5CTarget.5Crepo_projects.5CpRealEcu.5CcL_R2023.2E09.2E01.5Cmake.5Coutput.5Cobjects.5CProductionFlashInterface.:
                         578 _PRODFLASH__GetSizeOfMember:
000001f0 06f0            579 	mov	r6,ep
000001f2 be00            580 	sxb	ep
                         581 --	    .bf
                         582 .LDW02:
000001f4 0052            583 	mov	0,r10
000001f6 1e06deff        584 	addi	-34,ep,zero
000001fa f105*           585 	bl	.L867
                         586 --line299
                         587 ..lin.C.3A.5C_ECU2.5CECU_Rivian_A1.5CTarget.5Crepo_projects.5CpRealEcu.5CcL_R2023.2E09.2E01.5Cmake.5Coutput.5Cobjects.5CProductionFlashInterface.46::
                         588 .LDWlin46:
000001fc c1f2            589 	shl	1,ep
000001fe 330600000000*   590 	mov	.L1113,r19
00000204 d3f1            591 	add	r19,ep
00000206 7050            592 	sld.hu	0[ep],r10
                         593 .L867:
                         594 --	    .ef
                         595 .LDW12:
                         596 --line308
                         597 ..lin.C.3A.5C_ECU2.5CECU_Rivian_A1.5CTarget.5Crepo_projects.5CpRealEcu.5CcL_R2023.2E09.2E01.5Cmake.5Coutput.5Cobjects.5CProductionFlashInterface.47::
                         598 .LDWlin47:
00000208 7f00            599 	jmp	[lp]
                         600 ___ghs_eofn_PRODFLASH__GetSizeOfMember:
                         601 	.type	_PRODFLASH__GetSizeOfMember,@function
                         602 	.size	_PRODFLASH__GetSizeOfMember,.-_PRODFLASH__GetSizeOfMember
                         603 	.type	_PRODFLASH__GetSizeOfMember..C.3A.5C_ECU2.5CECU_Rivian_A1.5CTarget.5Crepo_projects.5CpRealEcu.5CcL_R2023.2E09.2E01.5Cmake.5Coutput.5Cobjects.5CProductionFlashInterface.,@function
                         604 	.size	_PRODFLASH__GetSizeOfMember..C.3A.5C_ECU2.5CECU_Rivian_A1.5CTarget.5Crepo_projects.5CpRealEcu.5CcL_R2023.2E09.2E01.5Cmake.5Coutput.5Cobjects.5CProductionFlashInterface.,.-_PRODFLASH__GetSizeOfMember..C.3A.5C_ECU2.5CECU_Rivian_A1.5CTarget.5Crepo_projects.5CpRealEcu.5CcL_R2023.2E09.2E01.5Cmake.5Coutput.5Cobjects.5CProductionFlashInterface.
                         605 	.align	2
                         606 --_U16_SizeOfMember	r10	local

                                                                      Page 12
                                                              C:\Users\nhuliyap\AppData\Local\Temp\gh_000048k1.s
                         607 --.L1091	.L1113	static
                         608 
                         609 --_EN_Member	r6	param
                         610 
                         611 	.section ".bss","awb"
                         612 .L1090:
                         613 	.type	.L1090,@object
                         614 	.size	.L1090,0
                         615 	.section ".rodata","a"
                         616 	.align	4
00000000 10000a00        617 .L1113:	.byte	16,0,10,0
00000004 0a000300        618 	.byte	10,0,3,0
00000008 03000300        619 	.byte	3,0,3,0
0000000c 0a000a00        620 	.byte	10,0,10,0
00000010 02000600        621 	.byte	2,0,6,0
00000014 09001400        622 	.byte	9,0,20,0
00000018 03001400        623 	.byte	3,0,20,0
0000001c 03001100        624 	.byte	3,0,17,0
00000020 01000100        625 	.byte	1,0,1,0
00000024 02000100        626 	.byte	2,0,1,0
00000028 01000200        627 	.byte	1,0,2,0
0000002c 23001200        628 	.byte	35,0,18,0
00000030 23001200        629 	.byte	35,0,18,0
00000034 10000400        630 	.byte	16,0,4,0
00000038 01002800        631 	.byte	1,0,40,0
0000003c 02007e06        632 	.byte	2,0,126,6
00000040 10003000        633 	.byte	16,0,48,0
                         634 	.type	.L1113,@object
                         635 	.size	.L1113,68
                         636 	.data
                         637 	.text
                         638 	.align	2
                         639 	.align	2
                         640 ..gh.f.f.1.e.8:
                         641 	.type	..gh.f.f.1.e.8,@object
                         642 	.size	..gh.f.f.1.e.8,0
                         643 	.global	_PRODFLASH__WriteProductionDataMember..C.3A.5C_ECU2.5CECU_Rivian_A1.5CTarget.5Crepo_projects.5CpRealEcu.5CcL_R2023.2E09.2E01.5Cmake.5Coutput.5Cobjects.5CProductionFlashInterface.
                         644 _PRODFLASH__WriteProductionDataMember..C.3A.5C_ECU2.5CECU_Rivian_A1.5CTarget.5Crepo_projects.5CpRealEcu.5CcL_R2023.2E09.2E01.5Cmake.5Coutput.5Cobjects.5CProductionFlashInterface.:
                         645 _PRODFLASH__WriteProductionDataMember:
0000020a a007e1f1        646 	prepare	{r23,r24,r25,r26,r27,r28,r29,r31},16
0000020e 08c8            647 	mov	r8,r25
00000210 a600            648 	sxb	r6
00000212 07b8            649 	mov	r7,r23
00000214 9900            650 	zxb	r25
                         651 --	    .bf
                         652 .LDW22:
00000216 19e0            653 	mov	r25,r28
00000218 06e8            654 	mov	r6,r29
                         655 	jarl	_PRODFLASH__GetAddressOfMember,lp
                         655 <EXPANSION BEGIN>
                         655 jarl22 _PRODFLASH__GetAddressOfMember , lp 
0000021a bfffe6fd*       655 <EXPANSION END>
0000021e 0ad8            656 	mov	r10,r27
                         657 --line324
                         658 ..lin.C.3A.5C_ECU2.5CECU_Rivian_A1.5CTarget.5Crepo_projects.5CpRealEcu.5CcL_R2023.2E09.2E01.5Cmake.5Coutput.5Cobjects.5CProductionFlashInterface.48::
                         659 .LDWlin48:
00000220 1d30            660 	mov	r29,r6
                         661 	jarl	_PRODFLASH__GetSizeOfMember,lp
                         661 <EXPANSION BEGIN>
                         661 jarl22 _PRODFLASH__GetSizeOfMember , lp 
00000222 bfffceff*       661 <EXPANSION END>

                                                                      Page 13
                                                              C:\Users\nhuliyap\AppData\Local\Temp\gh_000048k1.s
00000226 0a38            662 	mov	r10,r7
                         663 --line326
                         664 ..lin.C.3A.5C_ECU2.5CECU_Rivian_A1.5CTarget.5Crepo_projects.5CpRealEcu.5CcL_R2023.2E09.2E01.5Cmake.5Coutput.5Cobjects.5CProductionFlashInterface.49::
                         665 .LDWlin49:
00000228 1b30            666 	mov	r27,r6
                         667 	jarl	_PRODFLASH__GetStartBlockNumber,lp
                         667 <EXPANSION BEGIN>
                         667 jarl22 _PRODFLASH__GetStartBlockNumber , lp 
0000022a bfff44ff*       667 <EXPANSION END>
0000022e 0ad0            668 	mov	r10,r26
                         669 --line328
                         670 ..lin.C.3A.5C_ECU2.5CECU_Rivian_A1.5CTarget.5Crepo_projects.5CpRealEcu.5CcL_R2023.2E09.2E01.5Cmake.5Coutput.5Cobjects.5CProductionFlashInterface.50::
                         671 .LDWlin50:
00000230 1b30            672 	mov	r27,r6
                         673 	jarl	_PRODFLASH__GetEndBlockNumber,lp
                         673 <EXPANSION BEGIN>
                         673 jarl22 _PRODFLASH__GetEndBlockNumber , lp 
00000232 bfff4cff*       673 <EXPANSION END>
00000236 0ac0            674 	mov	r10,r24
                         675 --line330
                         676 ..lin.C.3A.5C_ECU2.5CECU_Rivian_A1.5CTarget.5Crepo_projects.5CpRealEcu.5CcL_R2023.2E09.2E01.5Cmake.5Coutput.5Cobjects.5CProductionFlashInterface.51::
                         677 .LDWlin51:
00000238 1ae8            678 	mov	r26,r29
0000023a b535*           679 	br	.L1142
                         680 .L1141:
                         681 --	    .bs
                         682 .LDW32:
                         683 --line335
                         684 ..lin.C.3A.5C_ECU2.5CECU_Rivian_A1.5CTarget.5Crepo_projects.5CpRealEcu.5CcL_R2023.2E09.2E01.5Cmake.5Coutput.5Cobjects.5CProductionFlashInterface.52::
                         685 .LDWlin52:
0000023c 008a            686 	mov	0,r17
                         687 .L1145:
0000023e 1d80            688 	mov	r29,r16
00000240 c682            689 	shl	6,r16
00000242 2f0600000000*   690 	mov	_DCM__UN_ProductionDataFlash,r15
00000248 cf81            691 	add	r15,r16
0000024a 1170            692 	mov	r17,r14
0000024c d071            693 	add	r16,r14
0000024e 8e770100        694 	ld.bu	0[r14],r14
00000252 11f0            695 	mov	r17,ep
00000254 c3f1            696 	add	sp,ep
                         697 --line335
                         698 ..lin.C.3A.5C_ECU2.5CECU_Rivian_A1.5CTarget.5Crepo_projects.5CpRealEcu.5CcL_R2023.2E09.2E01.5Cmake.5Coutput.5Cobjects.5CProductionFlashInterface.53::
                         699 .LDWlin53:
00000256 418a            700 	add	1,r17
00000258 8073            701 	sst.b	r14,0[ep]
0000025a 1106c0ff        702 	addi	-64,r17,zero
0000025e 89f5*           703 	bnl	.L1145
                         704 --line340
                         705 ..lin.C.3A.5C_ECU2.5CECU_Rivian_A1.5CTarget.5Crepo_projects.5CpRealEcu.5CcL_R2023.2E09.2E01.5Cmake.5Coutput.5Cobjects.5CProductionFlashInterface.54::
                         706 .LDWlin54:
00000260 1d30            707 	mov	r29,r6
                         708 	jarl	_PRODFLASH__EraseFlashBlock,lp
                         708 <EXPANSION BEGIN>
                         708 jarl22 _PRODFLASH__EraseFlashBlock , lp 
00000262 bfff2eff*       708 <EXPANSION END>
                         709 --line342
                         710 ..lin.C.3A.5C_ECU2.5CECU_Rivian_A1.5CTarget.5Crepo_projects.5CpRealEcu.5CcL_R2023.2E09.2E01.5Cmake.5Coutput.5Cobjects.5CProductionFlashInterface.55::
                         711 .LDWlin55:
00000266 db6e3f00        712 	andi	63,r27,r13
0000026a fae9            713 	cmp	r26,r29

                                                                      Page 14
                                                              C:\Users\nhuliyap\AppData\Local\Temp\gh_000048k1.s
0000026c e06f1493        714 	cmovne	0,r13,r18
00000270 d50d*           715 	br	.L1149
                         716 .L1151:
                         717 --line355
                         718 ..lin.C.3A.5C_ECU2.5CECU_Rivian_A1.5CTarget.5Crepo_projects.5CpRealEcu.5CcL_R2023.2E09.2E01.5Cmake.5Coutput.5Cobjects.5CProductionFlashInterface.56::
                         719 .LDWlin56:
00000272 1978            720 	mov	r25,r15
00000274 bc79            721 	sub	r28,r15
00000276 d779            722 	add	r23,r15
00000278 8f5f0100        723 	ld.bu	0[r15],r11
0000027c 12f0            724 	mov	r18,ep
0000027e c3f1            725 	add	sp,ep
00000280 4192            726 	add	1,r18
00000282 5fe2            727 	add	-1,r28
00000284 805b            728 	sst.b	r11,0[ep]
00000286 9200            729 	zxb	r18
00000288 9c00            730 	zxb	r28
                         731 .L1149:
0000028a 1206c0ff        732 	addi	-64,r18,zero
0000028e b105*           733 	bl	.L1150
00000290 e0e1            734 	cmp	zero,r28
00000292 8af5*           735 	bne	.L1151
                         736 .L1150:
                         737 --line360
                         738 ..lin.C.3A.5C_ECU2.5CECU_Rivian_A1.5CTarget.5Crepo_projects.5CpRealEcu.5CcL_R2023.2E09.2E01.5Cmake.5Coutput.5Cobjects.5CProductionFlashInterface.57::
                         739 .LDWlin57:
00000294 1d30            740 	mov	r29,r6
00000296 0338            741 	mov	sp,r7
                         742 	jarl	_PRODFLASH__WriteFlashBlock,lp
                         742 <EXPANSION BEGIN>
                         742 jarl22 _PRODFLASH__WriteFlashBlock , lp 
00000298 bfff24ff*       742 <EXPANSION END>
                         743 --	    .es
                         744 .LDW42:
                         745 --line330
                         746 ..lin.C.3A.5C_ECU2.5CECU_Rivian_A1.5CTarget.5Crepo_projects.5CpRealEcu.5CcL_R2023.2E09.2E01.5Cmake.5Coutput.5Cobjects.5CProductionFlashInterface.58::
                         747 .LDWlin58:
0000029c 41ea            748 	add	1,r29
0000029e 9d00            749 	zxb	r29
                         750 .L1142:
000002a0 f8e9            751 	cmp	r24,r29
000002a2 d3cd*           752 	bnh	.L1141
                         753 --	    .ef
                         754 .LDW52:
                         755 --line362
                         756 ..lin.C.3A.5C_ECU2.5CECU_Rivian_A1.5CTarget.5Crepo_projects.5CpRealEcu.5CcL_R2023.2E09.2E01.5Cmake.5Coutput.5Cobjects.5CProductionFlashInterface.59::
                         757 .LDWlin59:
000002a4 6006fff1        758 	dispose	16,{r23,r24,r25,r26,r27,r28,r29,r31},[lp]
                         759 ___ghs_eofn_PRODFLASH__WriteProductionDataMember:
                         760 	.type	_PRODFLASH__WriteProductionDataMember,@function
                         761 	.size	_PRODFLASH__WriteProductionDataMember,.-_PRODFLASH__WriteProductionDataMember
                         762 	.type	_PRODFLASH__WriteProductionDataMember..C.3A.5C_ECU2.5CECU_Rivian_A1.5CTarget.5Crepo_projects.5CpRealEcu.5CcL_R2023.2E09.2E01.5Cmake.5Coutput.5Cobjects.5CProductionFlashInterface.,@function
                         763 	.size	_PRODFLASH__WriteProductionDataMember..C.3A.5C_ECU2.5CECU_Rivian_A1.5CTarget.5Crepo_projects.5CpRealEcu.5CcL_R2023.2E09.2E01.5Cmake.5Coutput.5Cobjects.5CProductionFlashInterface.,.-_PRODFLASH__WriteProductionDataMember..C.3A.5C_ECU2.5CECU_Rivian_A1.5CTarget.5Crepo_projects.5CpRealEcu.5CcL_R2023.2E09.2E01.5Cmake.5Coutput.5Cobjects.5CProductionFlashInterface.
                         764 	.align	2
                         765 --_AU8_FlashBlockBuffer	0[sp]	local
                         766 --_U32_AddressOfMember	r27	local
                         767 --_U16_SizeOfMember	r29	local
                         768 --_U8_StartBlockNumber	r26	local
                         769 --_U8_EndBlockNumber	r24	local
                         770 --_U8_BlockNumberCounter	r29	local
                         771 --_U8_BufferCounter	r17	local

                                                                      Page 15
                                                              C:\Users\nhuliyap\AppData\Local\Temp\gh_000048k1.s
                         772 --_U8_BytesToWrite	r28	local
                         773 --_U8_StartPositionOfWrite	r18	local
                         774 --_U8_CurrentPositionOfWrite	r18	local
                         775 
                         776 --_EN_Member	r29	param
                         777 --_PU8_Data	r23	param
                         778 --_U8_Length	r25	param
                         779 
                         780 	.section ".bss","awb"
                         781 .L1223:
                         782 	.type	.L1223,@object
                         783 	.size	.L1223,0
                         784 	.data
                         785 	.text
                         786 	.align	2
                         787 	.align	2
                         788 ..gh.f.f.1.e.9:
                         789 	.type	..gh.f.f.1.e.9,@object
                         790 	.size	..gh.f.f.1.e.9,0
                         791 	.global	_PRODFLASH_GetGenealogyBlockStartAddress
                         792 _PRODFLASH_GetGenealogyBlockStartAddress:
                         793 --	    .bf
                         794 .LDW62:
000002a8 2a0600000000*   795 	mov	_DCM__UN_ProductionDataFlash+146,r10
                         796 --	    .ef
                         797 .LDW72:
                         798 --line364
                         799 ..lin.C.3A.5C_ECU2.5CECU_Rivian_A1.5CTarget.5Crepo_projects.5CpRealEcu.5CcL_R2023.2E09.2E01.5Cmake.5Coutput.5Cobjects.5CProductionFlashInterface.60::
                         800 .LDWlin60:
000002ae 7f00            801 	jmp	[lp]
                         802 	.global	___ghs_eofn_PRODFLASH_GetGenealogyBlockStartAddress
                         803 ___ghs_eofn_PRODFLASH_GetGenealogyBlockStartAddress:
                         804 	.type	_PRODFLASH_GetGenealogyBlockStartAddress,@function
                         805 	.size	_PRODFLASH_GetGenealogyBlockStartAddress,.-_PRODFLASH_GetGenealogyBlockStartAddress
                         806 	.align	2
                         807 
                         808 	.section ".bss","awb"
                         809 .L1345:
                         810 	.type	.L1345,@object
                         811 	.size	.L1345,0
                         812 	.data
                         813 	.text
                         814 	.align	2
                         815 	.align	2
                         816 ..gh.f.f.1.e.10:
                         817 	.type	..gh.f.f.1.e.10,@object
                         818 	.size	..gh.f.f.1.e.10,0
                         819 	.global	_PRODFLASH_GetCustomerHwPartNumber
                         820 _PRODFLASH_GetCustomerHwPartNumber:
000002b0 80076100        821 	prepare	{r29,r31},0
000002b4 06e8            822 	mov	r6,r29
                         823 --	    .bf
                         824 .LDW82:
                         825 	jarl	_GPIO_GetFrequencySetting,lp
                         825 <EXPANSION BEGIN>
                         825 jarl22 _GPIO_GetFrequencySetting , lp 
000002b6 80ff0000*       825 <EXPANSION END>
                         826 --line369
                         827 ..lin.C.3A.5C_ECU2.5CECU_Rivian_A1.5CTarget.5Crepo_projects.5CpRealEcu.5CcL_R2023.2E09.2E01.5Cmake.5Coutput.5Cobjects.5CProductionFlashInterface.61::
                         828 .LDWlin61:
000002ba 310600000000*   829 	mov	_DCM__UN_ProductionDataFlash,r17

                                                                      Page 16
                                                              C:\Users\nhuliyap\AppData\Local\Temp\gh_000048k1.s
000002c0 6152            830 	cmp	1,r10
000002c2 ca05*           831 	bne	.L1365
                         832 --line377
                         833 ..lin.C.3A.5C_ECU2.5CECU_Rivian_A1.5CTarget.5Crepo_projects.5CpRealEcu.5CcL_R2023.2E09.2E01.5Cmake.5Coutput.5Cobjects.5CProductionFlashInterface.62::
                         834 .LDWlin62:
000002c4 117e1000        835 	addi	16,r17,r15
000002c8 b505*           836 	br	.L1367
                         837 .L1365:
                         838 --line381
                         839 ..lin.C.3A.5C_ECU2.5CECU_Rivian_A1.5CTarget.5Crepo_projects.5CpRealEcu.5CcL_R2023.2E09.2E01.5Cmake.5Coutput.5Cobjects.5CProductionFlashInterface.63::
                         840 .LDWlin63:
000002ca 117e1a00        841 	addi	26,r17,r15
                         842 .L1367:
000002ce 0092            843 	mov	0,r18
                         844 .L1370:
000002d0 1280            845 	mov	r18,r16
000002d2 cf81            846 	add	r15,r16
000002d4 90770100        847 	ld.bu	0[r16],r14
000002d8 12f0            848 	mov	r18,ep
000002da ddf1            849 	add	r29,ep
000002dc 4192            850 	add	1,r18
000002de 8073            851 	sst.b	r14,0[ep]
000002e0 6a92            852 	cmp	10,r18
000002e2 f1f5*           853 	bl	.L1370
                         854 --line389
                         855 ..lin.C.3A.5C_ECU2.5CECU_Rivian_A1.5CTarget.5Crepo_projects.5CpRealEcu.5CcL_R2023.2E09.2E01.5Cmake.5Coutput.5Cobjects.5CProductionFlashInterface.64::
                         856 .LDWlin64:
000002e4 0a52            857 	mov	10,r10
                         858 --	    .ef
                         859 .LDW92:
000002e6 40067f00        860 	dispose	0,{r29,r31},[lp]
                         861 	.global	___ghs_eofn_PRODFLASH_GetCustomerHwPartNumber
                         862 ___ghs_eofn_PRODFLASH_GetCustomerHwPartNumber:
                         863 	.type	_PRODFLASH_GetCustomerHwPartNumber,@function
                         864 	.size	_PRODFLASH_GetCustomerHwPartNumber,.-_PRODFLASH_GetCustomerHwPartNumber
                         865 	.align	2
                         866 --_ucCounter	r18	local
                         867 --_pHwVersionNumber	r15	local
                         868 
                         869 --_ucData	r29	param
                         870 
                         871 	.section ".bss","awb"
                         872 .L1441:
                         873 	.type	.L1441,@object
                         874 	.size	.L1441,0
                         875 	.data
                         876 	.text
                         877 	.align	2
                         878 	.align	2
                         879 ..gh.f.f.1.e.11:
                         880 	.type	..gh.f.f.1.e.11,@object
                         881 	.size	..gh.f.f.1.e.11,0
                         882 	.global	_PRODFLASH_GetCustomerEcuSerialNumber
                         883 _PRODFLASH_GetCustomerEcuSerialNumber:
                         884 --	    .bf
                         885 .LDW03:
000002ea 0092            886 	mov	0,r18
                         887 .L1511:
000002ec 408e0000*       888 	movhi	hi(_DCM__UN_ProductionDataFlash+73),zero,r17
000002f0 d289            889 	add	r18,r17
000002f2 918f0100*       890 	ld.bu	lo(_DCM__UN_ProductionDataFlash+73)[r17],r17

                                                                      Page 17
                                                              C:\Users\nhuliyap\AppData\Local\Temp\gh_000048k1.s
000002f6 12f0            891 	mov	r18,ep
000002f8 c6f1            892 	add	r6,ep
                         893 --line399
                         894 ..lin.C.3A.5C_ECU2.5CECU_Rivian_A1.5CTarget.5Crepo_projects.5CpRealEcu.5CcL_R2023.2E09.2E01.5Cmake.5Coutput.5Cobjects.5CProductionFlashInterface.65::
                         895 .LDWlin65:
000002fa 4192            896 	add	1,r18
000002fc 808b            897 	sst.b	r17,0[ep]
000002fe 6992            898 	cmp	9,r18
00000300 e1f5*           899 	bl	.L1511
                         900 --line404
                         901 ..lin.C.3A.5C_ECU2.5CECU_Rivian_A1.5CTarget.5Crepo_projects.5CpRealEcu.5CcL_R2023.2E09.2E01.5Cmake.5Coutput.5Cobjects.5CProductionFlashInterface.66::
                         902 .LDWlin66:
00000302 0952            903 	mov	9,r10
                         904 --	    .ef
                         905 .LDW13:
00000304 7f00            906 	jmp	[lp]
                         907 	.global	___ghs_eofn_PRODFLASH_GetCustomerEcuSerialNumber
                         908 ___ghs_eofn_PRODFLASH_GetCustomerEcuSerialNumber:
                         909 	.type	_PRODFLASH_GetCustomerEcuSerialNumber,@function
                         910 	.size	_PRODFLASH_GetCustomerEcuSerialNumber,.-_PRODFLASH_GetCustomerEcuSerialNumber
                         911 	.align	2
                         912 --_ucCounter	r18	local
                         913 
                         914 --_ucData	r6	param
                         915 
                         916 	.section ".bss","awb"
                         917 .L1558:
                         918 	.type	.L1558,@object
                         919 	.size	.L1558,0
                         920 	.data
                         921 	.text
                         922 	.align	2
                         923 	.align	2
                         924 ..gh.f.f.1.e.12:
                         925 	.type	..gh.f.f.1.e.12,@object
                         926 	.size	..gh.f.f.1.e.12,0
                         927 	.global	_PRODFLASH_GetVin
                         928 _PRODFLASH_GetVin:
                         929 --	    .bf
                         930 .LDW23:
00000306 0092            931 	mov	0,r18
                         932 .L1601:
00000308 408e0000*       933 	movhi	hi(_DCM__UN_ProductionDataFlash+128),zero,r17
0000030c d289            934 	add	r18,r17
0000030e 918f0100*       935 	ld.bu	lo(_DCM__UN_ProductionDataFlash+128)[r17],r17
00000312 12f0            936 	mov	r18,ep
00000314 c6f1            937 	add	r6,ep
                         938 --line414
                         939 ..lin.C.3A.5C_ECU2.5CECU_Rivian_A1.5CTarget.5Crepo_projects.5CpRealEcu.5CcL_R2023.2E09.2E01.5Cmake.5Coutput.5Cobjects.5CProductionFlashInterface.67::
                         940 .LDWlin67:
00000316 4192            941 	add	1,r18
00000318 808b            942 	sst.b	r17,0[ep]
0000031a 1206efff        943 	addi	-17,r18,zero
0000031e d9f5*           944 	bnl	.L1601
                         945 --line419
                         946 ..lin.C.3A.5C_ECU2.5CECU_Rivian_A1.5CTarget.5Crepo_projects.5CpRealEcu.5CcL_R2023.2E09.2E01.5Cmake.5Coutput.5Cobjects.5CProductionFlashInterface.68::
                         947 .LDWlin68:
00000320 20561100        948 	movea	17,zero,r10
                         949 --	    .ef
                         950 .LDW33:
00000324 7f00            951 	jmp	[lp]

                                                                      Page 18
                                                              C:\Users\nhuliyap\AppData\Local\Temp\gh_000048k1.s
                         952 	.global	___ghs_eofn_PRODFLASH_GetVin
                         953 ___ghs_eofn_PRODFLASH_GetVin:
                         954 	.type	_PRODFLASH_GetVin,@function
                         955 	.size	_PRODFLASH_GetVin,.-_PRODFLASH_GetVin
                         956 	.align	2
                         957 --_ucCounter	r18	local
                         958 
                         959 --_ucData	r6	param
                         960 
                         961 	.section ".bss","awb"
                         962 .L1654:
                         963 	.type	.L1654,@object
                         964 	.size	.L1654,0
                         965 	.data
                         966 	.text
                         967 	.align	2
                         968 	.align	2
                         969 ..gh.f.f.1.e.13:
                         970 	.type	..gh.f.f.1.e.13,@object
                         971 	.size	..gh.f.f.1.e.13,0
                         972 	.global	_PRODFLASH_GetEcuProgramFingerprintApplication
                         973 _PRODFLASH_GetEcuProgramFingerprintApplication:
                         974 --	    .bf
                         975 .LDW43:
00000326 0092            976 	mov	0,r18
00000328 2f0600000000*   977 	mov	_DCM__UN_ProductionDataFlash,r15
                         978 .L1697:
                         979 --line430
                         980 ..lin.C.3A.5C_ECU2.5CECU_Rivian_A1.5CTarget.5Crepo_projects.5CpRealEcu.5CcL_R2023.2E09.2E01.5Cmake.5Coutput.5Cobjects.5CProductionFlashInterface.69::
                         981 .LDWlin69:
0000032e 1288            982 	mov	r18,r17
00000330 cf89            983 	add	r15,r17
00000332 919f5300        984 	ld.bu	82[r17],r19
00000336 12f0            985 	mov	r18,ep
00000338 c6f1            986 	add	r6,ep
0000033a 4192            987 	add	1,r18
0000033c 809b            988 	sst.b	r19,0[ep]
0000033e 1206ecff        989 	addi	-20,r18,zero
00000342 e9f5*           990 	bnl	.L1697
00000344 950d*           991 	br	.L1702
                         992 .L1701:
                         993 --line436
                         994 ..lin.C.3A.5C_ECU2.5CECU_Rivian_A1.5CTarget.5Crepo_projects.5CpRealEcu.5CcL_R2023.2E09.2E01.5Cmake.5Coutput.5Cobjects.5CProductionFlashInterface.70::
                         995 .LDWlin70:
00000346 1280            996 	mov	r18,r16
00000348 cf81            997 	add	r15,r16
0000034a 908f6700        998 	ld.bu	102[r16],r17
0000034e 12f0            999 	mov	r18,ep
00000350 c6f1           1000 	add	r6,ep
00000352 4192           1001 	add	1,r18
00000354 808b           1002 	sst.b	r17,0[ep]
                        1003 .L1702:
00000356 1206e9ff       1004 	addi	-23,r18,zero
0000035a e9f5*          1005 	bnl	.L1701
                        1006 --line438
                        1007 ..lin.C.3A.5C_ECU2.5CECU_Rivian_A1.5CTarget.5Crepo_projects.5CpRealEcu.5CcL_R2023.2E09.2E01.5Cmake.5Coutput.5Cobjects.5CProductionFlashInterface.71::
                        1008 .LDWlin71:
0000035c 20561700       1009 	movea	23,zero,r10
                        1010 --	    .ef
                        1011 .LDW53:
00000360 7f00           1012 	jmp	[lp]

                                                                      Page 19
                                                              C:\Users\nhuliyap\AppData\Local\Temp\gh_000048k1.s
                        1013 	.global	___ghs_eofn_PRODFLASH_GetEcuProgramFingerprintApplication
                        1014 ___ghs_eofn_PRODFLASH_GetEcuProgramFingerprintApplication:
                        1015 	.type	_PRODFLASH_GetEcuProgramFingerprintApplication,@function
                        1016 	.size	_PRODFLASH_GetEcuProgramFingerprintApplication,.-_PRODFLASH_GetEcuProgramFingerprintApplication
                        1017 	.align	2
                        1018 --_ucCounter	r18	local
                        1019 
                        1020 --_ucData	r6	param
                        1021 
                        1022 	.section ".bss","awb"
                        1023 .L1768:
                        1024 	.type	.L1768,@object
                        1025 	.size	.L1768,0
                        1026 	.data
                        1027 	.text
                        1028 	.align	2
                        1029 	.align	2
                        1030 ..gh.f.f.1.e.14:
                        1031 	.type	..gh.f.f.1.e.14,@object
                        1032 	.size	..gh.f.f.1.e.14,0
                        1033 	.global	_PRODFLASH_GetEcuProgramFingerprintBootloader
                        1034 _PRODFLASH_GetEcuProgramFingerprintBootloader:
                        1035 --	    .bf
                        1036 .LDW63:
00000362 0092           1037 	mov	0,r18
00000364 2f0600000000*  1038 	mov	_DCM__UN_ProductionDataFlash,r15
                        1039 .L1834:
                        1040 --line449
                        1041 ..lin.C.3A.5C_ECU2.5CECU_Rivian_A1.5CTarget.5Crepo_projects.5CpRealEcu.5CcL_R2023.2E09.2E01.5Cmake.5Coutput.5Cobjects.5CProductionFlashInterface.72::
                        1042 .LDWlin72:
0000036a 1288           1043 	mov	r18,r17
0000036c cf89           1044 	add	r15,r17
0000036e b19f6900       1045 	ld.bu	105[r17],r19
00000372 12f0           1046 	mov	r18,ep
00000374 c6f1           1047 	add	r6,ep
00000376 4192           1048 	add	1,r18
00000378 809b           1049 	sst.b	r19,0[ep]
0000037a 1206ecff       1050 	addi	-20,r18,zero
0000037e e9f5*          1051 	bnl	.L1834
00000380 950d*          1052 	br	.L1839
                        1053 .L1838:
                        1054 --line455
                        1055 ..lin.C.3A.5C_ECU2.5CECU_Rivian_A1.5CTarget.5Crepo_projects.5CpRealEcu.5CcL_R2023.2E09.2E01.5Cmake.5Coutput.5Cobjects.5CProductionFlashInterface.73::
                        1056 .LDWlin73:
00000382 1280           1057 	mov	r18,r16
00000384 cf81           1058 	add	r15,r16
00000386 b08f7d00       1059 	ld.bu	125[r16],r17
0000038a 12f0           1060 	mov	r18,ep
0000038c c6f1           1061 	add	r6,ep
0000038e 4192           1062 	add	1,r18
00000390 808b           1063 	sst.b	r17,0[ep]
                        1064 .L1839:
00000392 1206e9ff       1065 	addi	-23,r18,zero
00000396 e9f5*          1066 	bnl	.L1838
                        1067 --line457
                        1068 ..lin.C.3A.5C_ECU2.5CECU_Rivian_A1.5CTarget.5Crepo_projects.5CpRealEcu.5CcL_R2023.2E09.2E01.5Cmake.5Coutput.5Cobjects.5CProductionFlashInterface.74::
                        1069 .LDWlin74:
00000398 20561700       1070 	movea	23,zero,r10
                        1071 --	    .ef
                        1072 .LDW73:
0000039c 7f00           1073 	jmp	[lp]

                                                                      Page 20
                                                              C:\Users\nhuliyap\AppData\Local\Temp\gh_000048k1.s
                        1074 	.global	___ghs_eofn_PRODFLASH_GetEcuProgramFingerprintBootloader
                        1075 ___ghs_eofn_PRODFLASH_GetEcuProgramFingerprintBootloader:
                        1076 	.type	_PRODFLASH_GetEcuProgramFingerprintBootloader,@function
                        1077 	.size	_PRODFLASH_GetEcuProgramFingerprintBootloader,.-_PRODFLASH_GetEcuProgramFingerprintBootloader
                        1078 	.align	2
                        1079 --_ucCounter	r18	local
                        1080 
                        1081 --_ucData	r6	param
                        1082 
                        1083 	.section ".bss","awb"
                        1084 .L1896:
                        1085 	.type	.L1896,@object
                        1086 	.size	.L1896,0
                        1087 	.data
                        1088 	.text
                        1089 	.align	2
                        1090 	.align	2
                        1091 ..gh.f.f.1.e.15:
                        1092 	.type	..gh.f.f.1.e.15,@object
                        1093 	.size	..gh.f.f.1.e.15,0
                        1094 	.global	_PRODFLASH_GetRivianEcuSerialNumber
                        1095 _PRODFLASH_GetRivianEcuSerialNumber:
                        1096 --	    .bf
                        1097 .LDW83:
0000039e 0092           1098 	mov	0,r18
                        1099 .L1962:
000003a0 408e0000*      1100 	movhi	hi(_DCM__UN_ProductionDataFlash+241),zero,r17
000003a4 d289           1101 	add	r18,r17
000003a6 918f0100*      1102 	ld.bu	lo(_DCM__UN_ProductionDataFlash+241)[r17],r17
000003aa 12f0           1103 	mov	r18,ep
000003ac c6f1           1104 	add	r6,ep
                        1105 --line467
                        1106 ..lin.C.3A.5C_ECU2.5CECU_Rivian_A1.5CTarget.5Crepo_projects.5CpRealEcu.5CcL_R2023.2E09.2E01.5Cmake.5Coutput.5Cobjects.5CProductionFlashInterface.75::
                        1107 .LDWlin75:
000003ae 4192           1108 	add	1,r18
000003b0 808b           1109 	sst.b	r17,0[ep]
000003b2 1206eeff       1110 	addi	-18,r18,zero
000003b6 d9f5*          1111 	bnl	.L1962
                        1112 --line472
                        1113 ..lin.C.3A.5C_ECU2.5CECU_Rivian_A1.5CTarget.5Crepo_projects.5CpRealEcu.5CcL_R2023.2E09.2E01.5Cmake.5Coutput.5Cobjects.5CProductionFlashInterface.76::
                        1114 .LDWlin76:
000003b8 20561200       1115 	movea	18,zero,r10
                        1116 --	    .ef
                        1117 .LDW93:
000003bc 7f00           1118 	jmp	[lp]
                        1119 	.global	___ghs_eofn_PRODFLASH_GetRivianEcuSerialNumber
                        1120 ___ghs_eofn_PRODFLASH_GetRivianEcuSerialNumber:
                        1121 	.type	_PRODFLASH_GetRivianEcuSerialNumber,@function
                        1122 	.size	_PRODFLASH_GetRivianEcuSerialNumber,.-_PRODFLASH_GetRivianEcuSerialNumber
                        1123 	.align	2
                        1124 --_ucCounter	r18	local
                        1125 
                        1126 --_ucData	r6	param
                        1127 
                        1128 	.section ".bss","awb"
                        1129 .L2006:
                        1130 	.type	.L2006,@object
                        1131 	.size	.L2006,0
                        1132 	.data
                        1133 	.text
                        1134 	.align	2

                                                                      Page 21
                                                              C:\Users\nhuliyap\AppData\Local\Temp\gh_000048k1.s
                        1135 	.align	2
                        1136 ..gh.f.f.1.e.16:
                        1137 	.type	..gh.f.f.1.e.16,@object
                        1138 	.size	..gh.f.f.1.e.16,0
                        1139 	.global	_PRODFLASH_GetRivianBoardSerialNumber
                        1140 _PRODFLASH_GetRivianBoardSerialNumber:
                        1141 --	    .bf
                        1142 .LDW04:
000003be 0092           1143 	mov	0,r18
                        1144 .L2049:
000003c0 408e0000*      1145 	movhi	hi(_DCM__UN_ProductionDataFlash+188),zero,r17
000003c4 d289           1146 	add	r18,r17
000003c6 918f0100*      1147 	ld.bu	lo(_DCM__UN_ProductionDataFlash+188)[r17],r17
000003ca 12f0           1148 	mov	r18,ep
000003cc c6f1           1149 	add	r6,ep
                        1150 --line482
                        1151 ..lin.C.3A.5C_ECU2.5CECU_Rivian_A1.5CTarget.5Crepo_projects.5CpRealEcu.5CcL_R2023.2E09.2E01.5Cmake.5Coutput.5Cobjects.5CProductionFlashInterface.77::
                        1152 .LDWlin77:
000003ce 4192           1153 	add	1,r18
000003d0 808b           1154 	sst.b	r17,0[ep]
000003d2 1206eeff       1155 	addi	-18,r18,zero
000003d6 d9f5*          1156 	bnl	.L2049
                        1157 --line487
                        1158 ..lin.C.3A.5C_ECU2.5CECU_Rivian_A1.5CTarget.5Crepo_projects.5CpRealEcu.5CcL_R2023.2E09.2E01.5Cmake.5Coutput.5Cobjects.5CProductionFlashInterface.78::
                        1159 .LDWlin78:
000003d8 20561200       1160 	movea	18,zero,r10
                        1161 --	    .ef
                        1162 .LDW14:
000003dc 7f00           1163 	jmp	[lp]
                        1164 	.global	___ghs_eofn_PRODFLASH_GetRivianBoardSerialNumber
                        1165 ___ghs_eofn_PRODFLASH_GetRivianBoardSerialNumber:
                        1166 	.type	_PRODFLASH_GetRivianBoardSerialNumber,@function
                        1167 	.size	_PRODFLASH_GetRivianBoardSerialNumber,.-_PRODFLASH_GetRivianBoardSerialNumber
                        1168 	.align	2
                        1169 --_ucCounter	r18	local
                        1170 
                        1171 --_ucData	r6	param
                        1172 
                        1173 	.section ".bss","awb"
                        1174 .L2102:
                        1175 	.type	.L2102,@object
                        1176 	.size	.L2102,0
                        1177 	.data
                        1178 	.text
                        1179 	.align	2
                        1180 	.align	2
                        1181 ..gh.f.f.1.e.17:
                        1182 	.type	..gh.f.f.1.e.17,@object
                        1183 	.size	..gh.f.f.1.e.17,0
                        1184 	.global	_PRODFLASH_GetRivianEcuPartNumber
                        1185 _PRODFLASH_GetRivianEcuPartNumber:
                        1186 --	    .bf
                        1187 .LDW24:
000003de 0092           1188 	mov	0,r18
                        1189 .L2145:
000003e0 408e0000*      1190 	movhi	hi(_DCM__UN_ProductionDataFlash+206),zero,r17
000003e4 d289           1191 	add	r18,r17
000003e6 918f0100*      1192 	ld.bu	lo(_DCM__UN_ProductionDataFlash+206)[r17],r17
000003ea 12f0           1193 	mov	r18,ep
000003ec c6f1           1194 	add	r6,ep
                        1195 --line497

                                                                      Page 22
                                                              C:\Users\nhuliyap\AppData\Local\Temp\gh_000048k1.s
                        1196 ..lin.C.3A.5C_ECU2.5CECU_Rivian_A1.5CTarget.5Crepo_projects.5CpRealEcu.5CcL_R2023.2E09.2E01.5Cmake.5Coutput.5Cobjects.5CProductionFlashInterface.79::
                        1197 .LDWlin79:
000003ee 4192           1198 	add	1,r18
000003f0 808b           1199 	sst.b	r17,0[ep]
000003f2 1206ddff       1200 	addi	-35,r18,zero
000003f6 d9f5*          1201 	bnl	.L2145
                        1202 --line502
                        1203 ..lin.C.3A.5C_ECU2.5CECU_Rivian_A1.5CTarget.5Crepo_projects.5CpRealEcu.5CcL_R2023.2E09.2E01.5Cmake.5Coutput.5Cobjects.5CProductionFlashInterface.80::
                        1204 .LDWlin80:
000003f8 20562300       1205 	movea	35,zero,r10
                        1206 --	    .ef
                        1207 .LDW34:
000003fc 7f00           1208 	jmp	[lp]
                        1209 	.global	___ghs_eofn_PRODFLASH_GetRivianEcuPartNumber
                        1210 ___ghs_eofn_PRODFLASH_GetRivianEcuPartNumber:
                        1211 	.type	_PRODFLASH_GetRivianEcuPartNumber,@function
                        1212 	.size	_PRODFLASH_GetRivianEcuPartNumber,.-_PRODFLASH_GetRivianEcuPartNumber
                        1213 	.align	2
                        1214 --_ucCounter	r18	local
                        1215 
                        1216 --_ucData	r6	param
                        1217 
                        1218 	.section ".bss","awb"
                        1219 .L2198:
                        1220 	.type	.L2198,@object
                        1221 	.size	.L2198,0
                        1222 	.data
                        1223 	.text
                        1224 	.align	2
                        1225 	.align	2
                        1226 ..gh.f.f.1.e.18:
                        1227 	.type	..gh.f.f.1.e.18,@object
                        1228 	.size	..gh.f.f.1.e.18,0
                        1229 	.global	_PRODFLASH_GetRivianBoardPartNumber
                        1230 _PRODFLASH_GetRivianBoardPartNumber:
                        1231 --	    .bf
                        1232 .LDW44:
000003fe 0092           1233 	mov	0,r18
                        1234 .L2241:
00000400 408e0000*      1235 	movhi	hi(_DCM__UN_ProductionDataFlash+153),zero,r17
00000404 d289           1236 	add	r18,r17
00000406 918f0100*      1237 	ld.bu	lo(_DCM__UN_ProductionDataFlash+153)[r17],r17
0000040a 12f0           1238 	mov	r18,ep
0000040c c6f1           1239 	add	r6,ep
                        1240 --line512
                        1241 ..lin.C.3A.5C_ECU2.5CECU_Rivian_A1.5CTarget.5Crepo_projects.5CpRealEcu.5CcL_R2023.2E09.2E01.5Cmake.5Coutput.5Cobjects.5CProductionFlashInterface.81::
                        1242 .LDWlin81:
0000040e 4192           1243 	add	1,r18
00000410 808b           1244 	sst.b	r17,0[ep]
00000412 1206ddff       1245 	addi	-35,r18,zero
00000416 d9f5*          1246 	bnl	.L2241
                        1247 --line517
                        1248 ..lin.C.3A.5C_ECU2.5CECU_Rivian_A1.5CTarget.5Crepo_projects.5CpRealEcu.5CcL_R2023.2E09.2E01.5Cmake.5Coutput.5Cobjects.5CProductionFlashInterface.82::
                        1249 .LDWlin82:
00000418 20562300       1250 	movea	35,zero,r10
                        1251 --	    .ef
                        1252 .LDW54:
0000041c 7f00           1253 	jmp	[lp]
                        1254 	.global	___ghs_eofn_PRODFLASH_GetRivianBoardPartNumber
                        1255 ___ghs_eofn_PRODFLASH_GetRivianBoardPartNumber:
                        1256 	.type	_PRODFLASH_GetRivianBoardPartNumber,@function

                                                                      Page 23
                                                              C:\Users\nhuliyap\AppData\Local\Temp\gh_000048k1.s
                        1257 	.size	_PRODFLASH_GetRivianBoardPartNumber,.-_PRODFLASH_GetRivianBoardPartNumber
                        1258 	.align	2
                        1259 --_ucCounter	r18	local
                        1260 
                        1261 --_ucData	r6	param
                        1262 
                        1263 	.section ".bss","awb"
                        1264 .L2294:
                        1265 	.type	.L2294,@object
                        1266 	.size	.L2294,0
                        1267 	.data
                        1268 	.text
                        1269 	.align	2
                        1270 	.align	2
                        1271 ..gh.f.f.1.e.19:
                        1272 	.type	..gh.f.f.1.e.19,@object
                        1273 	.size	..gh.f.f.1.e.19,0
                        1274 	.global	_PRODFLASH_GetManufacturingSupportMode
                        1275 _PRODFLASH_GetManufacturingSupportMode:
0000041e 06f0           1276 	mov	r6,ep
                        1277 --	    .bf
                        1278 .LDW64:
00000420 40960000*      1279 	movhi	hi(_DCM__UN_ProductionDataFlash+145),zero,r18
00000424 92970100*      1280 	ld.bu	lo(_DCM__UN_ProductionDataFlash+145)[r18],r18
                        1281 --line532
                        1282 ..lin.C.3A.5C_ECU2.5CECU_Rivian_A1.5CTarget.5Crepo_projects.5CpRealEcu.5CcL_R2023.2E09.2E01.5Cmake.5Coutput.5Cobjects.5CProductionFlashInterface.83::
                        1283 .LDWlin83:
00000428 0152           1284 	mov	1,r10
0000042a 8093           1285 	sst.b	r18,0[ep]
                        1286 --	    .ef
                        1287 .LDW74:
0000042c 7f00           1288 	jmp	[lp]
                        1289 	.global	___ghs_eofn_PRODFLASH_GetManufacturingSupportMode
                        1290 ___ghs_eofn_PRODFLASH_GetManufacturingSupportMode:
                        1291 	.type	_PRODFLASH_GetManufacturingSupportMode,@function
                        1292 	.size	_PRODFLASH_GetManufacturingSupportMode,.-_PRODFLASH_GetManufacturingSupportMode
                        1293 	.align	2
                        1294 
                        1295 --_ucData	ep	param
                        1296 
                        1297 	.section ".bss","awb"
                        1298 .L2387:
                        1299 	.type	.L2387,@object
                        1300 	.size	.L2387,0
                        1301 	.data
                        1302 	.text
                        1303 	.align	2
                        1304 	.align	2
                        1305 ..gh.f.f.1.e.20:
                        1306 	.type	..gh.f.f.1.e.20,@object
                        1307 	.size	..gh.f.f.1.e.20,0
                        1308 	.global	_PRODFLASH_GetApplicationSignature
                        1309 _PRODFLASH_GetApplicationSignature:
                        1310 --	    .bf
                        1311 .LDW84:
0000042e 0092           1312 	mov	0,r18
                        1313 .L2412:
00000430 408e0000*      1314 	movhi	hi(_DCM__UN_ProductionDataFlash+259),zero,r17
00000434 d289           1315 	add	r18,r17
00000436 918f0100*      1316 	ld.bu	lo(_DCM__UN_ProductionDataFlash+259)[r17],r17
0000043a 12f0           1317 	mov	r18,ep

                                                                      Page 24
                                                              C:\Users\nhuliyap\AppData\Local\Temp\gh_000048k1.s
0000043c c6f1           1318 	add	r6,ep
                        1319 --line542
                        1320 ..lin.C.3A.5C_ECU2.5CECU_Rivian_A1.5CTarget.5Crepo_projects.5CpRealEcu.5CcL_R2023.2E09.2E01.5Cmake.5Coutput.5Cobjects.5CProductionFlashInterface.84::
                        1321 .LDWlin84:
0000043e 4192           1322 	add	1,r18
00000440 808b           1323 	sst.b	r17,0[ep]
00000442 1206f0ff       1324 	addi	-16,r18,zero
00000446 d9f5*          1325 	bnl	.L2412
                        1326 --line547
                        1327 ..lin.C.3A.5C_ECU2.5CECU_Rivian_A1.5CTarget.5Crepo_projects.5CpRealEcu.5CcL_R2023.2E09.2E01.5Cmake.5Coutput.5Cobjects.5CProductionFlashInterface.85::
                        1328 .LDWlin85:
00000448 20561000       1329 	movea	16,zero,r10
                        1330 --	    .ef
                        1331 .LDW94:
0000044c 7f00           1332 	jmp	[lp]
                        1333 	.global	___ghs_eofn_PRODFLASH_GetApplicationSignature
                        1334 ___ghs_eofn_PRODFLASH_GetApplicationSignature:
                        1335 	.type	_PRODFLASH_GetApplicationSignature,@function
                        1336 	.size	_PRODFLASH_GetApplicationSignature,.-_PRODFLASH_GetApplicationSignature
                        1337 	.align	2
                        1338 --_ucCounter	r18	local
                        1339 
                        1340 --_ucData	r6	param
                        1341 
                        1342 	.section ".bss","awb"
                        1343 .L2454:
                        1344 	.type	.L2454,@object
                        1345 	.size	.L2454,0
                        1346 	.data
                        1347 	.text
                        1348 	.align	2
                        1349 	.align	2
                        1350 ..gh.f.f.1.e.21:
                        1351 	.type	..gh.f.f.1.e.21,@object
                        1352 	.size	..gh.f.f.1.e.21,0
                        1353 	.global	_PRODFLASH_GetGenealogyCrc32
                        1354 _PRODFLASH_GetGenealogyCrc32:
                        1355 --	    .bf
                        1356 .LDW05:
0000044e 0092           1357 	mov	0,r18
                        1358 .L2497:
00000450 408e0000*      1359 	movhi	hi(_DCM__UN_ProductionDataFlash+275),zero,r17
00000454 d289           1360 	add	r18,r17
00000456 918f0100*      1361 	ld.bu	lo(_DCM__UN_ProductionDataFlash+275)[r17],r17
0000045a 12f0           1362 	mov	r18,ep
0000045c c6f1           1363 	add	r6,ep
                        1364 --line557
                        1365 ..lin.C.3A.5C_ECU2.5CECU_Rivian_A1.5CTarget.5Crepo_projects.5CpRealEcu.5CcL_R2023.2E09.2E01.5Cmake.5Coutput.5Cobjects.5CProductionFlashInterface.86::
                        1366 .LDWlin86:
0000045e 4192           1367 	add	1,r18
00000460 808b           1368 	sst.b	r17,0[ep]
00000462 6492           1369 	cmp	4,r18
00000464 e1f5*          1370 	bl	.L2497
                        1371 --line562
                        1372 ..lin.C.3A.5C_ECU2.5CECU_Rivian_A1.5CTarget.5Crepo_projects.5CpRealEcu.5CcL_R2023.2E09.2E01.5Cmake.5Coutput.5Cobjects.5CProductionFlashInterface.87::
                        1373 .LDWlin87:
00000466 0452           1374 	mov	4,r10
                        1375 --	    .ef
                        1376 .LDW15:
00000468 7f00           1377 	jmp	[lp]
                        1378 	.global	___ghs_eofn_PRODFLASH_GetGenealogyCrc32

                                                                      Page 25
                                                              C:\Users\nhuliyap\AppData\Local\Temp\gh_000048k1.s
                        1379 ___ghs_eofn_PRODFLASH_GetGenealogyCrc32:
                        1380 	.type	_PRODFLASH_GetGenealogyCrc32,@function
                        1381 	.size	_PRODFLASH_GetGenealogyCrc32,.-_PRODFLASH_GetGenealogyCrc32
                        1382 	.align	2
                        1383 --_ucCounter	r18	local
                        1384 
                        1385 --_ucData	r6	param
                        1386 
                        1387 	.section ".bss","awb"
                        1388 .L2550:
                        1389 	.type	.L2550,@object
                        1390 	.size	.L2550,0
                        1391 	.data
                        1392 	.text
                        1393 	.align	2
                        1394 	.align	2
                        1395 ..gh.f.f.1.e.22:
                        1396 	.type	..gh.f.f.1.e.22,@object
                        1397 	.size	..gh.f.f.1.e.22,0
                        1398 	.global	_PRODFLASH_GetGenealogyVersion
                        1399 _PRODFLASH_GetGenealogyVersion:
0000046a 06f0           1400 	mov	r6,ep
                        1401 --	    .bf
                        1402 .LDW25:
0000046c 40960000*      1403 	movhi	hi(_DCM__UN_ProductionDataFlash+146),zero,r18
00000470 92970100*      1404 	ld.bu	lo(_DCM__UN_ProductionDataFlash+146)[r18],r18
                        1405 --line577
                        1406 ..lin.C.3A.5C_ECU2.5CECU_Rivian_A1.5CTarget.5Crepo_projects.5CpRealEcu.5CcL_R2023.2E09.2E01.5Cmake.5Coutput.5Cobjects.5CProductionFlashInterface.88::
                        1407 .LDWlin88:
00000474 0152           1408 	mov	1,r10
00000476 8093           1409 	sst.b	r18,0[ep]
                        1410 --	    .ef
                        1411 .LDW35:
00000478 7f00           1412 	jmp	[lp]
                        1413 	.global	___ghs_eofn_PRODFLASH_GetGenealogyVersion
                        1414 ___ghs_eofn_PRODFLASH_GetGenealogyVersion:
                        1415 	.type	_PRODFLASH_GetGenealogyVersion,@function
                        1416 	.size	_PRODFLASH_GetGenealogyVersion,.-_PRODFLASH_GetGenealogyVersion
                        1417 	.align	2
                        1418 
                        1419 --_ucData	ep	param
                        1420 
                        1421 	.section ".bss","awb"
                        1422 .L2643:
                        1423 	.type	.L2643,@object
                        1424 	.size	.L2643,0
                        1425 	.data
                        1426 	.text
                        1427 	.align	2
                        1428 	.align	2
                        1429 ..gh.f.f.1.e.23:
                        1430 	.type	..gh.f.f.1.e.23,@object
                        1431 	.size	..gh.f.f.1.e.23,0
                        1432 	.global	_PRODFLASH_GetPcbaId
                        1433 _PRODFLASH_GetPcbaId:
0000047a 06f0           1434 	mov	r6,ep
                        1435 --	    .bf
                        1436 .LDW45:
0000047c 40960000*      1437 	movhi	hi(_DCM__UN_ProductionDataFlash+149),zero,r18
00000480 92970100*      1438 	ld.bu	lo(_DCM__UN_ProductionDataFlash+149)[r18],r18
                        1439 --line592

                                                                      Page 26
                                                              C:\Users\nhuliyap\AppData\Local\Temp\gh_000048k1.s
                        1440 ..lin.C.3A.5C_ECU2.5CECU_Rivian_A1.5CTarget.5Crepo_projects.5CpRealEcu.5CcL_R2023.2E09.2E01.5Cmake.5Coutput.5Cobjects.5CProductionFlashInterface.89::
                        1441 .LDWlin89:
00000484 0152           1442 	mov	1,r10
00000486 8093           1443 	sst.b	r18,0[ep]
                        1444 --	    .ef
                        1445 .LDW55:
00000488 7f00           1446 	jmp	[lp]
                        1447 	.global	___ghs_eofn_PRODFLASH_GetPcbaId
                        1448 ___ghs_eofn_PRODFLASH_GetPcbaId:
                        1449 	.type	_PRODFLASH_GetPcbaId,@function
                        1450 	.size	_PRODFLASH_GetPcbaId,.-_PRODFLASH_GetPcbaId
                        1451 	.align	2
                        1452 
                        1453 --_ucData	ep	param
                        1454 
                        1455 	.section ".bss","awb"
                        1456 .L2707:
                        1457 	.type	.L2707,@object
                        1458 	.size	.L2707,0
                        1459 	.data
                        1460 	.text
                        1461 	.align	2
                        1462 	.align	2
                        1463 ..gh.f.f.1.e.24:
                        1464 	.type	..gh.f.f.1.e.24,@object
                        1465 	.size	..gh.f.f.1.e.24,0
                        1466 	.global	_PRODFLASH_GetAuxId
                        1467 _PRODFLASH_GetAuxId:
0000048a 06f0           1468 	mov	r6,ep
                        1469 --	    .bf
                        1470 .LDW65:
0000048c 40960000*      1471 	movhi	hi(_DCM__UN_ProductionDataFlash+150),zero,r18
00000490 92970100*      1472 	ld.bu	lo(_DCM__UN_ProductionDataFlash+150)[r18],r18
                        1473 --line607
                        1474 ..lin.C.3A.5C_ECU2.5CECU_Rivian_A1.5CTarget.5Crepo_projects.5CpRealEcu.5CcL_R2023.2E09.2E01.5Cmake.5Coutput.5Cobjects.5CProductionFlashInterface.90::
                        1475 .LDWlin90:
00000494 0152           1476 	mov	1,r10
00000496 8093           1477 	sst.b	r18,0[ep]
                        1478 --	    .ef
                        1479 .LDW75:
00000498 7f00           1480 	jmp	[lp]
                        1481 	.global	___ghs_eofn_PRODFLASH_GetAuxId
                        1482 ___ghs_eofn_PRODFLASH_GetAuxId:
                        1483 	.type	_PRODFLASH_GetAuxId,@function
                        1484 	.size	_PRODFLASH_GetAuxId,.-_PRODFLASH_GetAuxId
                        1485 	.align	2
                        1486 
                        1487 --_ucData	ep	param
                        1488 
                        1489 	.section ".bss","awb"
                        1490 .L2771:
                        1491 	.type	.L2771,@object
                        1492 	.size	.L2771,0
                        1493 	.data
                        1494 	.text
                        1495 	.align	2
                        1496 	.align	2
                        1497 ..gh.f.f.1.e.25:
                        1498 	.type	..gh.f.f.1.e.25,@object
                        1499 	.size	..gh.f.f.1.e.25,0
                        1500 	.global	_PRODFLASH_GetComponentId

                                                                      Page 27
                                                              C:\Users\nhuliyap\AppData\Local\Temp\gh_000048k1.s
                        1501 _PRODFLASH_GetComponentId:
                        1502 --	    .bf
                        1503 .LDW85:
0000049a 0092           1504 	mov	0,r18
                        1505 .L2796:
0000049c 408e0000*      1506 	movhi	hi(_DCM__UN_ProductionDataFlash+147),zero,r17
000004a0 d289           1507 	add	r18,r17
000004a2 918f0100*      1508 	ld.bu	lo(_DCM__UN_ProductionDataFlash+147)[r17],r17
000004a6 12f0           1509 	mov	r18,ep
000004a8 c6f1           1510 	add	r6,ep
                        1511 --line617
                        1512 ..lin.C.3A.5C_ECU2.5CECU_Rivian_A1.5CTarget.5Crepo_projects.5CpRealEcu.5CcL_R2023.2E09.2E01.5Cmake.5Coutput.5Cobjects.5CProductionFlashInterface.91::
                        1513 .LDWlin91:
000004aa 4192           1514 	add	1,r18
000004ac 808b           1515 	sst.b	r17,0[ep]
000004ae 6292           1516 	cmp	2,r18
000004b0 e1f5*          1517 	bl	.L2796
                        1518 --line622
                        1519 ..lin.C.3A.5C_ECU2.5CECU_Rivian_A1.5CTarget.5Crepo_projects.5CpRealEcu.5CcL_R2023.2E09.2E01.5Cmake.5Coutput.5Cobjects.5CProductionFlashInterface.92::
                        1520 .LDWlin92:
000004b2 0252           1521 	mov	2,r10
                        1522 --	    .ef
                        1523 .LDW95:
000004b4 7f00           1524 	jmp	[lp]
                        1525 	.global	___ghs_eofn_PRODFLASH_GetComponentId
                        1526 ___ghs_eofn_PRODFLASH_GetComponentId:
                        1527 	.type	_PRODFLASH_GetComponentId,@function
                        1528 	.size	_PRODFLASH_GetComponentId,.-_PRODFLASH_GetComponentId
                        1529 	.align	2
                        1530 --_ucCounter	r18	local
                        1531 
                        1532 --_ucData	r6	param
                        1533 
                        1534 	.section ".bss","awb"
                        1535 .L2838:
                        1536 	.type	.L2838,@object
                        1537 	.size	.L2838,0
                        1538 	.data
                        1539 	.text
                        1540 	.align	2
                        1541 	.align	2
                        1542 ..gh.f.f.1.e.26:
                        1543 	.type	..gh.f.f.1.e.26,@object
                        1544 	.size	..gh.f.f.1.e.26,0
                        1545 	.global	_PRODFLASH_GetModeId
                        1546 _PRODFLASH_GetModeId:
                        1547 --	    .bf
                        1548 .LDW06:
000004b6 0092           1549 	mov	0,r18
                        1550 .L2881:
000004b8 408e0000*      1551 	movhi	hi(_DCM__UN_ProductionDataFlash+151),zero,r17
000004bc d289           1552 	add	r18,r17
000004be 918f0100*      1553 	ld.bu	lo(_DCM__UN_ProductionDataFlash+151)[r17],r17
000004c2 12f0           1554 	mov	r18,ep
000004c4 c6f1           1555 	add	r6,ep
                        1556 --line632
                        1557 ..lin.C.3A.5C_ECU2.5CECU_Rivian_A1.5CTarget.5Crepo_projects.5CpRealEcu.5CcL_R2023.2E09.2E01.5Cmake.5Coutput.5Cobjects.5CProductionFlashInterface.93::
                        1558 .LDWlin93:
000004c6 4192           1559 	add	1,r18
000004c8 808b           1560 	sst.b	r17,0[ep]
000004ca 6292           1561 	cmp	2,r18

                                                                      Page 28
                                                              C:\Users\nhuliyap\AppData\Local\Temp\gh_000048k1.s
000004cc e1f5*          1562 	bl	.L2881
                        1563 --line637
                        1564 ..lin.C.3A.5C_ECU2.5CECU_Rivian_A1.5CTarget.5Crepo_projects.5CpRealEcu.5CcL_R2023.2E09.2E01.5Cmake.5Coutput.5Cobjects.5CProductionFlashInterface.94::
                        1565 .LDWlin94:
000004ce 0252           1566 	mov	2,r10
                        1567 --	    .ef
                        1568 .LDW16:
000004d0 7f00           1569 	jmp	[lp]
                        1570 	.global	___ghs_eofn_PRODFLASH_GetModeId
                        1571 ___ghs_eofn_PRODFLASH_GetModeId:
                        1572 	.type	_PRODFLASH_GetModeId,@function
                        1573 	.size	_PRODFLASH_GetModeId,.-_PRODFLASH_GetModeId
                        1574 	.align	2
                        1575 --_ucCounter	r18	local
                        1576 
                        1577 --_ucData	r6	param
                        1578 
                        1579 	.section ".bss","awb"
                        1580 .L2934:
                        1581 	.type	.L2934,@object
                        1582 	.size	.L2934,0
                        1583 	.data
                        1584 	.text
                        1585 	.align	2
                        1586 	.align	2
                        1587 ..gh.f.f.1.e.27:
                        1588 	.type	..gh.f.f.1.e.27,@object
                        1589 	.size	..gh.f.f.1.e.27,0
                        1590 	.global	_PRODFLASH_GetEolCheckerByte
                        1591 _PRODFLASH_GetEolCheckerByte:
000004d2 06f0           1592 	mov	r6,ep
                        1593 --	    .bf
                        1594 .LDW26:
000004d4 40960000*      1595 	movhi	hi(_DCM__UN_ProductionDataFlash+279),zero,r18
000004d8 92970100*      1596 	ld.bu	lo(_DCM__UN_ProductionDataFlash+279)[r18],r18
                        1597 --line652
                        1598 ..lin.C.3A.5C_ECU2.5CECU_Rivian_A1.5CTarget.5Crepo_projects.5CpRealEcu.5CcL_R2023.2E09.2E01.5Cmake.5Coutput.5Cobjects.5CProductionFlashInterface.95::
                        1599 .LDWlin95:
000004dc 0152           1600 	mov	1,r10
000004de 8093           1601 	sst.b	r18,0[ep]
                        1602 --	    .ef
                        1603 .LDW36:
000004e0 7f00           1604 	jmp	[lp]
                        1605 	.global	___ghs_eofn_PRODFLASH_GetEolCheckerByte
                        1606 ___ghs_eofn_PRODFLASH_GetEolCheckerByte:
                        1607 	.type	_PRODFLASH_GetEolCheckerByte,@function
                        1608 	.size	_PRODFLASH_GetEolCheckerByte,.-_PRODFLASH_GetEolCheckerByte
                        1609 	.align	2
                        1610 
                        1611 --_ucData	ep	param
                        1612 
                        1613 	.section ".bss","awb"
                        1614 .L3027:
                        1615 	.type	.L3027,@object
                        1616 	.size	.L3027,0
                        1617 	.data
                        1618 	.text
                        1619 	.align	2
                        1620 	.align	2
                        1621 ..gh.f.f.1.e.28:
                        1622 	.type	..gh.f.f.1.e.28,@object

                                                                      Page 29
                                                              C:\Users\nhuliyap\AppData\Local\Temp\gh_000048k1.s
                        1623 	.size	..gh.f.f.1.e.28,0
                        1624 	.global	_PRODFLASH_GetApplicationChecksum
                        1625 _PRODFLASH_GetApplicationChecksum:
                        1626 --	    .bf
                        1627 .LDW46:
000004e2 0092           1628 	mov	0,r18
                        1629 .L3052:
000004e4 408e0000*      1630 	movhi	hi(_DCM__UN_ProductionDataFlash+320),zero,r17
000004e8 d289           1631 	add	r18,r17
000004ea 918f0100*      1632 	ld.bu	lo(_DCM__UN_ProductionDataFlash+320)[r17],r17
000004ee 12f0           1633 	mov	r18,ep
000004f0 c6f1           1634 	add	r6,ep
                        1635 --line662
                        1636 ..lin.C.3A.5C_ECU2.5CECU_Rivian_A1.5CTarget.5Crepo_projects.5CpRealEcu.5CcL_R2023.2E09.2E01.5Cmake.5Coutput.5Cobjects.5CProductionFlashInterface.96::
                        1637 .LDWlin96:
000004f2 4192           1638 	add	1,r18
000004f4 808b           1639 	sst.b	r17,0[ep]
000004f6 6292           1640 	cmp	2,r18
000004f8 e1f5*          1641 	bl	.L3052
                        1642 --line667
                        1643 ..lin.C.3A.5C_ECU2.5CECU_Rivian_A1.5CTarget.5Crepo_projects.5CpRealEcu.5CcL_R2023.2E09.2E01.5Cmake.5Coutput.5Cobjects.5CProductionFlashInterface.97::
                        1644 .LDWlin97:
000004fa 0252           1645 	mov	2,r10
                        1646 --	    .ef
                        1647 .LDW56:
000004fc 7f00           1648 	jmp	[lp]
                        1649 	.global	___ghs_eofn_PRODFLASH_GetApplicationChecksum
                        1650 ___ghs_eofn_PRODFLASH_GetApplicationChecksum:
                        1651 	.type	_PRODFLASH_GetApplicationChecksum,@function
                        1652 	.size	_PRODFLASH_GetApplicationChecksum,.-_PRODFLASH_GetApplicationChecksum
                        1653 	.align	2
                        1654 --_ucCounter	r18	local
                        1655 
                        1656 --_ucData	r6	param
                        1657 
                        1658 	.section ".bss","awb"
                        1659 .L3094:
                        1660 	.type	.L3094,@object
                        1661 	.size	.L3094,0
                        1662 	.data
                        1663 	.text
                        1664 	.align	2
                        1665 	.align	2
                        1666 ..gh.f.f.1.e.29:
                        1667 	.type	..gh.f.f.1.e.29,@object
                        1668 	.size	..gh.f.f.1.e.29,0
                        1669 	.global	_PRODFLASH_GetBhsensProductionDate
                        1670 _PRODFLASH_GetBhsensProductionDate:
                        1671 --	    .bf
                        1672 .LDW66:
000004fe 0092           1673 	mov	0,r18
                        1674 .L3137:
00000500 408e0000*      1675 	movhi	hi(_DCM__UN_ProductionDataFlash+67),zero,r17
00000504 d289           1676 	add	r18,r17
00000506 918f0100*      1677 	ld.bu	lo(_DCM__UN_ProductionDataFlash+67)[r17],r17
0000050a 12f0           1678 	mov	r18,ep
0000050c c6f1           1679 	add	r6,ep
                        1680 --line677
                        1681 ..lin.C.3A.5C_ECU2.5CECU_Rivian_A1.5CTarget.5Crepo_projects.5CpRealEcu.5CcL_R2023.2E09.2E01.5Cmake.5Coutput.5Cobjects.5CProductionFlashInterface.98::
                        1682 .LDWlin98:
0000050e 4192           1683 	add	1,r18

                                                                      Page 30
                                                              C:\Users\nhuliyap\AppData\Local\Temp\gh_000048k1.s
00000510 808b           1684 	sst.b	r17,0[ep]
00000512 6692           1685 	cmp	6,r18
00000514 e1f5*          1686 	bl	.L3137
                        1687 --line682
                        1688 ..lin.C.3A.5C_ECU2.5CECU_Rivian_A1.5CTarget.5Crepo_projects.5CpRealEcu.5CcL_R2023.2E09.2E01.5Cmake.5Coutput.5Cobjects.5CProductionFlashInterface.99::
                        1689 .LDWlin99:
00000516 0652           1690 	mov	6,r10
                        1691 --	    .ef
                        1692 .LDW76:
00000518 7f00           1693 	jmp	[lp]
                        1694 	.global	___ghs_eofn_PRODFLASH_GetBhsensProductionDate
                        1695 ___ghs_eofn_PRODFLASH_GetBhsensProductionDate:
                        1696 	.type	_PRODFLASH_GetBhsensProductionDate,@function
                        1697 	.size	_PRODFLASH_GetBhsensProductionDate,.-_PRODFLASH_GetBhsensProductionDate
                        1698 	.align	2
                        1699 --_ucCounter	r18	local
                        1700 
                        1701 --_ucData	r6	param
                        1702 
                        1703 	.section ".bss","awb"
                        1704 .L3190:
                        1705 	.type	.L3190,@object
                        1706 	.size	.L3190,0
                        1707 	.data
                        1708 	.text
                        1709 	.align	2
                        1710 	.align	2
                        1711 ..gh.f.f.1.e.30:
                        1712 	.type	..gh.f.f.1.e.30,@object
                        1713 	.size	..gh.f.f.1.e.30,0
                        1714 	.global	_PRODFLASH_GetBhsensHardwareNumber
                        1715 _PRODFLASH_GetBhsensHardwareNumber:
                        1716 --	    .bf
                        1717 .LDW86:
0000051a 0092           1718 	mov	0,r18
                        1719 .L3233:
0000051c 408e0000*      1720 	movhi	hi(_DCM__UN_ProductionDataFlash+36),zero,r17
00000520 d289           1721 	add	r18,r17
00000522 918f0100*      1722 	ld.bu	lo(_DCM__UN_ProductionDataFlash+36)[r17],r17
00000526 12f0           1723 	mov	r18,ep
00000528 c6f1           1724 	add	r6,ep
                        1725 --line692
                        1726 ..lin.C.3A.5C_ECU2.5CECU_Rivian_A1.5CTarget.5Crepo_projects.5CpRealEcu.5CcL_R2023.2E09.2E01.5Cmake.5Coutput.5Cobjects.5CProductionFlashInterface.100::
                        1727 .LDWlin100:
0000052a 4192           1728 	add	1,r18
0000052c 808b           1729 	sst.b	r17,0[ep]
0000052e 6392           1730 	cmp	3,r18
00000530 e1f5*          1731 	bl	.L3233
                        1732 --line697
                        1733 ..lin.C.3A.5C_ECU2.5CECU_Rivian_A1.5CTarget.5Crepo_projects.5CpRealEcu.5CcL_R2023.2E09.2E01.5Cmake.5Coutput.5Cobjects.5CProductionFlashInterface.101::
                        1734 .LDWlin101:
00000532 0352           1735 	mov	3,r10
                        1736 --	    .ef
                        1737 .LDW96:
00000534 7f00           1738 	jmp	[lp]
                        1739 	.global	___ghs_eofn_PRODFLASH_GetBhsensHardwareNumber
                        1740 ___ghs_eofn_PRODFLASH_GetBhsensHardwareNumber:
                        1741 	.type	_PRODFLASH_GetBhsensHardwareNumber,@function
                        1742 	.size	_PRODFLASH_GetBhsensHardwareNumber,.-_PRODFLASH_GetBhsensHardwareNumber
                        1743 	.align	2
                        1744 --_ucCounter	r18	local

                                                                      Page 31
                                                              C:\Users\nhuliyap\AppData\Local\Temp\gh_000048k1.s
                        1745 
                        1746 --_ucData	r6	param
                        1747 
                        1748 	.section ".bss","awb"
                        1749 .L3286:
                        1750 	.type	.L3286,@object
                        1751 	.size	.L3286,0
                        1752 	.data
                        1753 	.text
                        1754 	.align	2
                        1755 	.align	2
                        1756 ..gh.f.f.1.e.31:
                        1757 	.type	..gh.f.f.1.e.31,@object
                        1758 	.size	..gh.f.f.1.e.31,0
                        1759 	.global	_PRODFLASH_GetBhsensHwVersionInfo
                        1760 _PRODFLASH_GetBhsensHwVersionInfo:
                        1761 --	    .bf
                        1762 .LDW07:
00000536 0092           1763 	mov	0,r18
                        1764 .L3329:
00000538 408e0000*      1765 	movhi	hi(_DCM__UN_ProductionDataFlash+42),zero,r17
0000053c d289           1766 	add	r18,r17
0000053e 918f0100*      1767 	ld.bu	lo(_DCM__UN_ProductionDataFlash+42)[r17],r17
00000542 12f0           1768 	mov	r18,ep
00000544 c6f1           1769 	add	r6,ep
                        1770 --line707
                        1771 ..lin.C.3A.5C_ECU2.5CECU_Rivian_A1.5CTarget.5Crepo_projects.5CpRealEcu.5CcL_R2023.2E09.2E01.5Cmake.5Coutput.5Cobjects.5CProductionFlashInterface.102::
                        1772 .LDWlin102:
00000546 4192           1773 	add	1,r18
00000548 808b           1774 	sst.b	r17,0[ep]
0000054a 6392           1775 	cmp	3,r18
0000054c e1f5*          1776 	bl	.L3329
                        1777 --line712
                        1778 ..lin.C.3A.5C_ECU2.5CECU_Rivian_A1.5CTarget.5Crepo_projects.5CpRealEcu.5CcL_R2023.2E09.2E01.5Cmake.5Coutput.5Cobjects.5CProductionFlashInterface.103::
                        1779 .LDWlin103:
0000054e 0352           1780 	mov	3,r10
                        1781 --	    .ef
                        1782 .LDW17:
00000550 7f00           1783 	jmp	[lp]
                        1784 	.global	___ghs_eofn_PRODFLASH_GetBhsensHwVersionInfo
                        1785 ___ghs_eofn_PRODFLASH_GetBhsensHwVersionInfo:
                        1786 	.type	_PRODFLASH_GetBhsensHwVersionInfo,@function
                        1787 	.size	_PRODFLASH_GetBhsensHwVersionInfo,.-_PRODFLASH_GetBhsensHwVersionInfo
                        1788 	.align	2
                        1789 --_ucCounter	r18	local
                        1790 
                        1791 --_ucData	r6	param
                        1792 
                        1793 	.section ".bss","awb"
                        1794 .L3382:
                        1795 	.type	.L3382,@object
                        1796 	.size	.L3382,0
                        1797 	.data
                        1798 	.text
                        1799 	.align	2
                        1800 	.align	2
                        1801 ..gh.f.f.1.e.32:
                        1802 	.type	..gh.f.f.1.e.32,@object
                        1803 	.size	..gh.f.f.1.e.32,0
                        1804 	.global	_PRODFLASH_GetProgrammingDate
                        1805 _PRODFLASH_GetProgrammingDate:

                                                                      Page 32
                                                              C:\Users\nhuliyap\AppData\Local\Temp\gh_000048k1.s
                        1806 --	    .bf
                        1807 .LDW27:
00000552 20961400       1808 	movea	20,zero,r18
00000556 008a           1809 	mov	0,r17
                        1810 .L3425:
00000558 40860000*      1811 	movhi	hi(_DCM__UN_ProductionDataFlash+102),zero,r16
0000055c d281           1812 	add	r18,r16
0000055e 90870100*      1813 	ld.bu	lo(_DCM__UN_ProductionDataFlash+102)[r16],r16
00000562 11f0           1814 	mov	r17,ep
00000564 c6f1           1815 	add	r6,ep
                        1816 --line727
                        1817 ..lin.C.3A.5C_ECU2.5CECU_Rivian_A1.5CTarget.5Crepo_projects.5CpRealEcu.5CcL_R2023.2E09.2E01.5Cmake.5Coutput.5Cobjects.5CProductionFlashInterface.104::
                        1818 .LDWlin104:
00000566 418a           1819 	add	1,r17
00000568 4192           1820 	add	1,r18
0000056a 8083           1821 	sst.b	r16,0[ep]
0000056c 9100           1822 	zxb	r17
0000056e 1206e9ff       1823 	addi	-23,r18,zero
00000572 b9f5*          1824 	bnl	.L3425
                        1825 --line732
                        1826 ..lin.C.3A.5C_ECU2.5CECU_Rivian_A1.5CTarget.5Crepo_projects.5CpRealEcu.5CcL_R2023.2E09.2E01.5Cmake.5Coutput.5Cobjects.5CProductionFlashInterface.105::
                        1827 .LDWlin105:
00000574 20561700       1828 	movea	23,zero,r10
                        1829 --	    .ef
                        1830 .LDW37:
00000578 7f00           1831 	jmp	[lp]
                        1832 	.global	___ghs_eofn_PRODFLASH_GetProgrammingDate
                        1833 ___ghs_eofn_PRODFLASH_GetProgrammingDate:
                        1834 	.type	_PRODFLASH_GetProgrammingDate,@function
                        1835 	.size	_PRODFLASH_GetProgrammingDate,.-_PRODFLASH_GetProgrammingDate
                        1836 	.align	2
                        1837 --_ucCounter	r18	local
                        1838 --_i	r17	local
                        1839 
                        1840 --_ucData	r6	param
                        1841 
                        1842 	.section ".bss","awb"
                        1843 .L3478:
                        1844 	.type	.L3478,@object
                        1845 	.size	.L3478,0
                        1846 	.data
                        1847 	.text
                        1848 	.align	2
                        1849 	.align	2
                        1850 ..gh.f.f.1.e.33:
                        1851 	.type	..gh.f.f.1.e.33,@object
                        1852 	.size	..gh.f.f.1.e.33,0
                        1853 	.global	_PRODFLASH_PutVin
                        1854 _PRODFLASH_PutVin:
                        1855 --	    .bf
                        1856 .LDW47:
0000057a 0638           1857 	mov	r6,r7
0000057c 0f32           1858 	mov	15,r6
0000057e 20461100       1859 	movea	17,zero,r8
00000582 bf0788fc*      1860 	jr	_PRODFLASH__WriteProductionDataMember
                        1861 --	    .ef
                        1862 .LDW57:
                        1863 	.global	___ghs_eofn_PRODFLASH_PutVin
                        1864 ___ghs_eofn_PRODFLASH_PutVin:
                        1865 	.type	_PRODFLASH_PutVin,@function
                        1866 	.size	_PRODFLASH_PutVin,.-_PRODFLASH_PutVin

                                                                      Page 33
                                                              C:\Users\nhuliyap\AppData\Local\Temp\gh_000048k1.s
                        1867 	.align	2
                        1868 
                        1869 --_ucData	r6	param
                        1870 
                        1871 	.section ".bss","awb"
                        1872 .L3537:
                        1873 	.type	.L3537,@object
                        1874 	.size	.L3537,0
                        1875 	.data
                        1876 	.text
                        1877 	.align	2
                        1878 	.align	2
                        1879 ..gh.f.f.1.e.34:
                        1880 	.type	..gh.f.f.1.e.34,@object
                        1881 	.size	..gh.f.f.1.e.34,0
                        1882 	.global	_PRODFLASH_PutManufacturingSupportMode
                        1883 _PRODFLASH_PutManufacturingSupportMode:
                        1884 --	    .bf
                        1885 .LDW67:
00000586 0638           1886 	mov	r6,r7
00000588 20361000       1887 	movea	16,zero,r6
0000058c 0142           1888 	mov	1,r8
0000058e bf077cfc*      1889 	jr	_PRODFLASH__WriteProductionDataMember
                        1890 --	    .ef
                        1891 .LDW77:
                        1892 	.global	___ghs_eofn_PRODFLASH_PutManufacturingSupportMode
                        1893 ___ghs_eofn_PRODFLASH_PutManufacturingSupportMode:
                        1894 	.type	_PRODFLASH_PutManufacturingSupportMode,@function
                        1895 	.size	_PRODFLASH_PutManufacturingSupportMode,.-_PRODFLASH_PutManufacturingSupportMode
                        1896 	.align	2
                        1897 
                        1898 --_ucData	r6	param
                        1899 
                        1900 	.section ".bss","awb"
                        1901 .L3585:
                        1902 	.type	.L3585,@object
                        1903 	.size	.L3585,0
                        1904 	.data
                        1905 	.text
                        1906 	.align	2
                        1907 	.align	2
                        1908 ..gh.f.f.1.e.35:
                        1909 	.type	..gh.f.f.1.e.35,@object
                        1910 	.size	..gh.f.f.1.e.35,0
                        1911 	.global	_PRODFLASH_PutEolCheckerByte
                        1912 _PRODFLASH_PutEolCheckerByte:
                        1913 --	    .bf
                        1914 .LDW87:
00000592 0638           1915 	mov	r6,r7
00000594 20361c00       1916 	movea	28,zero,r6
00000598 0142           1917 	mov	1,r8
0000059a bf0770fc*      1918 	jr	_PRODFLASH__WriteProductionDataMember
                        1919 --	    .ef
                        1920 .LDW97:
                        1921 	.global	___ghs_eofn_PRODFLASH_PutEolCheckerByte
                        1922 ___ghs_eofn_PRODFLASH_PutEolCheckerByte:
                        1923 	.type	_PRODFLASH_PutEolCheckerByte,@function
                        1924 	.size	_PRODFLASH_PutEolCheckerByte,.-_PRODFLASH_PutEolCheckerByte
                        1925 	.align	2
                        1926 
                        1927 --_ucData	r6	param

                                                                      Page 34
                                                              C:\Users\nhuliyap\AppData\Local\Temp\gh_000048k1.s
                        1928 
                        1929 	.section ".bss","awb"
                        1930 .L3633:
                        1931 	.type	.L3633,@object
                        1932 	.size	.L3633,0
                        1933 	.data
                        1934 	.text
                        1935 	.align	2
                        1936 	.align	2
                        1937 ..gh.f.f.1.e.36:
                        1938 	.type	..gh.f.f.1.e.36,@object
                        1939 	.size	..gh.f.f.1.e.36,0
                        1940 	.global	_PRODFLASH_PutApplicationChecksum
                        1941 _PRODFLASH_PutApplicationChecksum:
                        1942 --	    .bf
                        1943 .LDW08:
0000059e 0638           1944 	mov	r6,r7
000005a0 20361e00       1945 	movea	30,zero,r6
000005a4 0242           1946 	mov	2,r8
000005a6 bf0764fc*      1947 	jr	_PRODFLASH__WriteProductionDataMember
                        1948 --	    .ef
                        1949 .LDW18:
                        1950 	.global	___ghs_eofn_PRODFLASH_PutApplicationChecksum
                        1951 ___ghs_eofn_PRODFLASH_PutApplicationChecksum:
                        1952 	.type	_PRODFLASH_PutApplicationChecksum,@function
                        1953 	.size	_PRODFLASH_PutApplicationChecksum,.-_PRODFLASH_PutApplicationChecksum
                        1954 	.align	2
                        1955 
                        1956 --_ucData	r6	param
                        1957 
                        1958 	.section ".bss","awb"
                        1959 .L3681:
                        1960 	.type	.L3681,@object
                        1961 	.size	.L3681,0
                        1962 	.data
                        1963 	.text
                        1964 	.align	2
                        1965 	.align	2
                        1966 ..gh.f.f.1.e.37:
                        1967 	.type	..gh.f.f.1.e.37,@object
                        1968 	.size	..gh.f.f.1.e.37,0
                        1969 	.global	_PRODFLASH_PutProgrammingDate
                        1970 _PRODFLASH_PutProgrammingDate:
                        1971 --	    .bf
                        1972 .LDW28:
000005aa 0638           1973 	mov	r6,r7
000005ac 0c32           1974 	mov	12,r6
000005ae 0342           1975 	mov	3,r8
000005b0 bf075afc*      1976 	jr	_PRODFLASH__WriteProductionDataMember
                        1977 --	    .ef
                        1978 .LDW38:
                        1979 	.global	___ghs_eofn_PRODFLASH_PutProgrammingDate
                        1980 ___ghs_eofn_PRODFLASH_PutProgrammingDate:
                        1981 	.type	_PRODFLASH_PutProgrammingDate,@function
                        1982 	.size	_PRODFLASH_PutProgrammingDate,.-_PRODFLASH_PutProgrammingDate
                        1983 	.align	2
                        1984 
                        1985 --_ucData	r6	param
                        1986 
                        1987 	.section ".bss","awb"
                        1988 .L3729:

                                                                      Page 35
                                                              C:\Users\nhuliyap\AppData\Local\Temp\gh_000048k1.s
                        1989 	.type	.L3729,@object
                        1990 	.size	.L3729,0
                        1991 	.data
                        1992 	.text
                        1993 	.align	2
                        1994 	.align	2
                        1995 ..gh.f.f.1.e.38:
                        1996 	.type	..gh.f.f.1.e.38,@object
                        1997 	.size	..gh.f.f.1.e.38,0
                        1998 	.global	_PRODFLASH_PutCustomerEcuSerialNumber
                        1999 _PRODFLASH_PutCustomerEcuSerialNumber:
                        2000 --	    .bf
                        2001 .LDW48:
000005b4 0638           2002 	mov	r6,r7
000005b6 0a32           2003 	mov	10,r6
000005b8 0942           2004 	mov	9,r8
000005ba bf0750fc*      2005 	jr	_PRODFLASH__WriteProductionDataMember
                        2006 --	    .ef
                        2007 .LDW58:
                        2008 	.global	___ghs_eofn_PRODFLASH_PutCustomerEcuSerialNumber
                        2009 ___ghs_eofn_PRODFLASH_PutCustomerEcuSerialNumber:
                        2010 	.type	_PRODFLASH_PutCustomerEcuSerialNumber,@function
                        2011 	.size	_PRODFLASH_PutCustomerEcuSerialNumber,.-_PRODFLASH_PutCustomerEcuSerialNumber
                        2012 	.align	2
                        2013 
                        2014 --_ucData	r6	param
                        2015 
                        2016 	.section ".bss","awb"
                        2017 .L3777:
                        2018 	.type	.L3777,@object
                        2019 	.size	.L3777,0
                        2020 	.data
                        2021 	.text
                        2022 	.align	2
                        2023 --_DCM__UN_ProductionDataFlash	_DCM__UN_ProductionDataFlash	static
                        2024 
                        2025 	.data
                        2026 	.ghsnote version,17
                        2027 	.ghsnote tools,8195
                        2028 	.ghsnote options,144
                        2029 	.text
                        2030 	.align	2
                        2031 ..eof.C.3A.5C_ECU2.5CECU_Rivian_A1.5CTarget.5Crepo_projects.5CpRealEcu.5CcL_R2023.2E09.2E01.5Cmake.5Coutput.5Cobjects.5CProductionFlashInterface...43.3A.5C_ECU2.5CECU_Rivian_A1.5CTarget.5Crepo_projects.5CpRealEcu.5CcL_R2023.2E09.2E01.5Cmake..64F8233B..0::
                        2032 	.section	.debug_info
                        2033 .Ldw_begin:
00000000 27280000       2034 	.word	.Ldw_end-.Ldw_begin-4
00000004 0200           2035 	.byte	2,0
00000006 00000000*      2036 	.word	.Ldw_abbr_begin
0000000a 04             2037 	.byte	4
                        2038 	.section	.debug_abbrev
                        2039 .Ldw_abbr_begin:
                        2040 	.section	.debug_info
0000000b 01             2041 	.byte	1
0000000c 00000000*      2042 	.word	..bof.C.3A.5C_ECU2.5CECU_Rivian_A1.5CTarget.5Crepo_projects.5CpRealEcu.5CcL_R2023.2E09.2E01.5Cmake.5Coutput.5Cobjects.5CProductionFlashInterface...43.3A.5C_ECU2.5CECU_Rivian_A1.5CTarget.5Crepo_projects.5CpRealEcu.5CcL_R2023.2E09.2E01.5Cmake..64F8233B..0
00000010 00000000*      2043 	.word	..eof.C.3A.5C_ECU2.5CECU_Rivian_A1.5CTarget.5Crepo_projects.5CpRealEcu.5CcL_R2023.2E09.2E01.5Cmake.5Coutput.5Cobjects.5CProductionFlashInterface...43.3A.5C_ECU2.5CECU_Rivian_A1.5CTarget.5Crepo_projects.5CpRealEcu.5CcL_R2023.2E09.2E01.5Cmake..64F8233B..0
00000014 2e2e2f736f75   2044 	.strz	"../source/wrappers/NVM_MANAGER/ProductionFlashInterface.c"
0000001a 7263652f7772 
00000020 617070657273 
00000026 2f4e564d5f4d 
0000002c 414e41474552 
00000032 2f50726f6475 

                                                                      Page 36
                                                              C:\Users\nhuliyap\AppData\Local\Temp\gh_000048k1.s
00000038 6374696f6e46 
0000003e 6c617368496e 
00000044 746572666163 
0000004a 652e6300 
0000004e 433a5c5f4543   2045 	.strz	"C:\\_ECU2\\ECU_Rivian_A1\\Target\\repo_projects\\pRealEcu\\cL_R2023.09.01\\make"
00000054 55325c454355 
0000005a 5f5269766961 
00000060 6e5f41315c54 
00000066 61726765745c 
0000006c 7265706f5f70 
00000072 726f6a656374 
00000078 735c70526561 
0000007e 6c4563755c63 
00000084 4c5f52323032 
0000008a 332e30392e30 
00000090 315c6d616b65 
00000096 00 
00000097 474853204320   2046 	.strz	"GHS C 2015.1.7 [dual]"
0000009d 323031352e31 
000000a3 2e37205b6475 
000000a9 616c5d00 
000000ad 0100           2047 	.byte	1,0
000000af 00000000*      2048 	.word	.Ldw_line_begin
000000b3 00000000*      2049 	.word	.Ldw_macinfo_begin
000000b7 00             2050 	.byte	0
                        2051 
                        2052 	.section	.debug_abbrev
00000000 01             2053 	.byte	1
00000001 11             2054 	.byte	17
00000002 01             2055 	.byte	1
00000003 1101           2056 	.byte	17,1
00000005 1201           2057 	.byte	18,1
00000007 0308           2058 	.byte	3,8
00000009 1b08           2059 	.byte	27,8
0000000b 2508           2060 	.byte	37,8
0000000d 1305           2061 	.byte	19,5
0000000f 1006           2062 	.byte	16,6
00000011 4306           2063 	.byte	67,6
00000013 420b           2064 	.byte	66,11
00000015 0000           2065 	.byte	0,0
                        2066 
                        2067 	.section	.debug_line
                        2068 .Ldw_line_begin:
00000000 440d0000       2069 	.word	.Ldw_line_end-.Ldw_line_begin-4
00000004 0200           2070 	.byte	2,0
00000006 00000000*      2071 	.word	.Ldw_lpro_end-.Ldw_lpro_begin
                        2072 .Ldw_lpro_begin:
0000000a 01             2073 	.byte	1
0000000b 00             2074 	.byte	0
0000000c 00             2075 	.byte	0
0000000d 04             2076 	.byte	4
0000000e 0a             2077 	.byte	10
0000000f 000101         2078 	.byte	0,1,1
00000012 010100         2079 	.byte	1,1,0
00000015 000001         2080 	.byte	0,0,1
00000018 00             2081 	.byte	0
00000019 2e2e2f736f75   2082 	.strz	"../source/wrappers/NVM_MANAGER/ProductionFlashInterface.c"
0000001f 7263652f7772 
00000025 617070657273 
0000002b 2f4e564d5f4d 
00000031 414e41474552 

                                                                      Page 37
                                                              C:\Users\nhuliyap\AppData\Local\Temp\gh_000048k1.s
00000037 2f50726f6475 
0000003d 6374696f6e46 
00000043 6c617368496e 
00000049 746572666163 
0000004f 652e6300 
00000053 000000         2083 	.byte	0,0,0
00000056 2e2e2f736f75   2084 	.strz	"../source/wrappers/NVM_MANAGER/ProductionFlashInterface.hpp"
0000005c 7263652f7772 
00000062 617070657273 
00000068 2f4e564d5f4d 
0000006e 414e41474552 
00000074 2f50726f6475 
0000007a 6374696f6e46 
00000080 6c617368496e 
00000086 746572666163 
0000008c 652e68707000 
00000092 000000         2085 	.byte	0,0,0
00000095 2e2e2f736f75   2086 	.strz	"../source/wrappers/NVM_MANAGER/ProductionFlashInterfaceX.hpp"
0000009b 7263652f7772 
000000a1 617070657273 
000000a7 2f4e564d5f4d 
000000ad 414e41474552 
000000b3 2f50726f6475 
000000b9 6374696f6e46 
000000bf 6c617368496e 
000000c5 746572666163 
000000cb 65582e687070 
000000d1 00 
000000d2 000000         2087 	.byte	0,0,0
000000d5 2e2e2f736f75   2088 	.strz	"../source/McalMcu/types.hpp"
000000db 7263652f4d63 
000000e1 616c4d63752f 
000000e7 74797065732e 
000000ed 68707000 
000000f1 000000         2089 	.byte	0,0,0
000000f4 2e2e2f736f75   2090 	.strz	"../source/common/Std_Types.hpp"
000000fa 7263652f636f 
00000100 6d6d6f6e2f53 
00000106 74645f547970 
0000010c 65732e687070 
00000112 00 
00000113 000000         2091 	.byte	0,0,0
00000116 2e2e2f736f75   2092 	.strz	"../source/common/Platform_Types.hpp"
0000011c 7263652f636f 
00000122 6d6d6f6e2f50 
00000128 6c6174666f72 
0000012e 6d5f54797065 
00000134 732e68707000 
0000013a 000000         2093 	.byte	0,0,0
0000013d 2e2e2f736f75   2094 	.strz	"../source/common/Compiler.hpp"
00000143 7263652f636f 
00000149 6d6d6f6e2f43 
0000014f 6f6d70696c65 
00000155 722e68707000 
0000015b 000000         2095 	.byte	0,0,0
0000015e 2e2e2f736f75   2096 	.strz	"../source/ProjectCompiler/Compiler_Cfg.hpp"
00000164 7263652f5072 
0000016a 6f6a65637443 
00000170 6f6d70696c65 
00000176 722f436f6d70 
0000017c 696c65725f43 

                                                                      Page 38
                                                              C:\Users\nhuliyap\AppData\Local\Temp\gh_000048k1.s
00000182 66672e687070 
00000188 00 
00000189 000000         2097 	.byte	0,0,0
0000018c 2e2e2f736f75   2098 	.strz	"../source/ProjectCompiler/CompilerCfg_SwcServiceOs.hpp"
00000192 7263652f5072 
00000198 6f6a65637443 
0000019e 6f6d70696c65 
000001a4 722f436f6d70 
000001aa 696c65724366 
000001b0 675f53776353 
000001b6 657276696365 
000001bc 4f732e687070 
000001c2 00 
000001c3 000000         2099 	.byte	0,0,0
000001c6 2e2e2f736f75   2100 	.strz	"../source/McalFls/Fls.hpp"
000001cc 7263652f4d63 
000001d2 616c466c732f 
000001d8 466c732e6870 
000001de 7000 
000001e0 000000         2101 	.byte	0,0,0
000001e3 2e2e2f736f75   2102 	.strz	"../source/ProjectCfg/Fls_Cfg.hpp"
000001e9 7263652f5072 
000001ef 6f6a65637443 
000001f5 66672f466c73 
000001fb 5f4366672e68 
00000201 707000 
00000204 000000         2103 	.byte	0,0,0
00000207 2e2e2f736f75   2104 	.strz	"../source/EcuabMemIf/MemIf_Types.hpp"
0000020d 7263652f4563 
00000213 7561624d656d 
00000219 49662f4d656d 
0000021f 49665f547970 
00000225 65732e687070 
0000022b 00 
0000022c 000000         2105 	.byte	0,0,0
0000022f 2e2e2f736f75   2106 	.strz	"../source/McalFls/Fls_Types.hpp"
00000235 7263652f4d63 
0000023b 616c466c732f 
00000241 466c735f5479 
00000247 7065732e6870 
0000024d 7000 
0000024f 000000         2107 	.byte	0,0,0
00000252 2e2e2f736f75   2108 	.strz	"../source/McalFls/Fls_PBTypes.hpp"
00000258 7263652f4d63 
0000025e 616c466c732f 
00000264 466c735f5042 
0000026a 54797065732e 
00000270 68707000 
00000274 000000         2109 	.byte	0,0,0
00000277 2e2e2f736f75   2110 	.strz	"../source/ProjectCompiler/MemMap.hpp"
0000027d 7263652f5072 
00000283 6f6a65637443 
00000289 6f6d70696c65 
0000028f 722f4d656d4d 
00000295 61702e687070 
0000029b 00 
0000029c 000000         2111 	.byte	0,0,0
0000029f 2e2e2f736f75   2112 	.strz	"../source/ProjectCompiler/MemMap_Common.hpp"
000002a5 7263652f5072 
000002ab 6f6a65637443 
000002b1 6f6d70696c65 

                                                                      Page 39
                                                              C:\Users\nhuliyap\AppData\Local\Temp\gh_000048k1.s
000002b7 722f4d656d4d 
000002bd 61705f436f6d 
000002c3 6d6f6e2e6870 
000002c9 7000 
000002cb 000000         2113 	.byte	0,0,0
000002ce 2e2e2f736f75   2114 	.strz	"../source/McalFls/r_typedefs.hpp"
000002d4 7263652f4d63 
000002da 616c466c732f 
000002e0 725f74797065 
000002e6 646566732e68 
000002ec 707000 
000002ef 000000         2115 	.byte	0,0,0
000002f2 2e2e2f736f75   2116 	.strz	"../source/McalFls/r_fdl_types.hpp"
000002f8 7263652f4d63 
000002fe 616c466c732f 
00000304 725f66646c5f 
0000030a 74797065732e 
00000310 68707000 
00000314 000000         2117 	.byte	0,0,0
00000317 2e2e2f736f75   2118 	.strz	"../source/McalFls/fdl_descriptor.hpp"
0000031d 7263652f4d63 
00000323 616c466c732f 
00000329 66646c5f6465 
0000032f 736372697074 
00000335 6f722e687070 
0000033b 00 
0000033c 000000         2119 	.byte	0,0,0
0000033f 2e2e2f736f75   2120 	.strz	"../source/McalFls/r_fdl.hpp"
00000345 7263652f4d63 
0000034b 616c466c732f 
00000351 725f66646c2e 
00000357 68707000 
0000035b 000000         2121 	.byte	0,0,0
0000035e 2e2e2f736f75   2122 	.strz	"../source/ProjectCfg/CfgMcalFls_Fdl.hpp"
00000364 7263652f5072 
0000036a 6f6a65637443 
00000370 66672f436667 
00000376 4d63616c466c 
0000037c 735f46646c2e 
00000382 68707000 
00000386 000000         2123 	.byte	0,0,0
00000389 2e2e2f736f75   2124 	.strz	"../source/wrappers/SchM_Fls.hpp"
0000038f 7263652f7772 
00000395 617070657273 
0000039b 2f5363684d5f 
000003a1 466c732e6870 
000003a7 7000 
000003a9 000000         2125 	.byte	0,0,0
000003ac 2e2e2f736f75   2126 	.strz	"../source/wrappers/OS/Os.hpp"
000003b2 7263652f7772 
000003b8 617070657273 
000003be 2f4f532f4f73 
000003c4 2e68707000 
000003c9 000000         2127 	.byte	0,0,0
000003cc 2e2e2f736f75   2128 	.strz	"../source/SwcServiceOs/Types_SwcServiceOs.hpp"
000003d2 7263652f5377 
000003d8 635365727669 
000003de 63654f732f54 
000003e4 797065735f53 
000003ea 776353657276 
000003f0 6963654f732e 

                                                                      Page 40
                                                              C:\Users\nhuliyap\AppData\Local\Temp\gh_000048k1.s
000003f6 68707000 
000003fa 000000         2129 	.byte	0,0,0
000003fd 2e2e2f736f75   2130 	.strz	"../source/ProjectCompiler/Os_MemMap.hpp"
00000403 7263652f5072 
00000409 6f6a65637443 
0000040f 6f6d70696c65 
00000415 722f4f735f4d 
0000041b 656d4d61702e 
00000421 68707000 
00000425 000000         2131 	.byte	0,0,0
00000428 2e2e2f736f75   2132 	.strz	"../source/ProjectCfg/Os_Cfg.hpp"
0000042e 7263652f5072 
00000434 6f6a65637443 
0000043a 66672f4f735f 
00000440 4366672e6870 
00000446 7000 
00000448 000000         2133 	.byte	0,0,0
0000044b 2e2e2f736f75   2134 	.strz	"../source/McalDio/gpioX.hpp"
00000451 7263652f4d63 
00000457 616c44696f2f 
0000045d 6770696f582e 
00000463 68707000 
00000467 000000         2135 	.byte	0,0,0
0000046a 2e2e2f736f75   2136 	.strz	"../source/ProjectCfg/CfgMcalDio.hpp"
00000470 7263652f5072 
00000476 6f6a65637443 
0000047c 66672f436667 
00000482 4d63616c4469 
00000488 6f2e68707000 
0000048e 000000         2137 	.byte	0,0,0
00000491 2e2e2f736f75   2138 	.strz	"../source/McalDio/Types_McalDio.hpp"
00000497 7263652f4d63 
0000049d 616c44696f2f 
000004a3 54797065735f 
000004a9 4d63616c4469 
000004af 6f2e68707000 
000004b5 000000         2139 	.byte	0,0,0
000004b8 2e2e2f736f75   2140 	.strz	"../source/ProjectCfg/CfgSwcServiceOs.hpp"
000004be 7263652f5072 
000004c4 6f6a65637443 
000004ca 66672f436667 
000004d0 537763536572 
000004d6 766963654f73 
000004dc 2e68707000 
000004e1 000000         2141 	.byte	0,0,0
000004e4 00             2142 	.byte	0
                        2143 .Ldw_lpro_end:
                        2144 	.section	.debug_macinfo
                        2145 .Ldw_macinfo_begin:
                        2146 	.section	.debug_frame
                        2147 .LDW_4cccd08:
00000000 00000000*      2148 	.word	.LDW_unq_2-.LDW_unq_1
                        2149 .LDW_unq_1:
00000004 ffffffff       2150 	.byte	255,255,255,255
00000008 01             2151 	.byte	1
00000009 00             2152 	.byte	0
0000000a 01             2153 	.byte	1
0000000b 01             2154 	.byte	1
0000000c 1f             2155 	.byte	31
0000000d 0c             2156 	.byte	12
0000000e 03             2157 	.byte	3

                                                                      Page 41
                                                              C:\Users\nhuliyap\AppData\Local\Temp\gh_000048k1.s
0000000f 00             2158 	.byte	0
00000010 07             2159 	.byte	7
00000011 00             2160 	.byte	0
00000012 07             2161 	.byte	7
00000013 01             2162 	.byte	1
00000014 07             2163 	.byte	7
00000015 02             2164 	.byte	2
00000016 07             2165 	.byte	7
00000017 03             2166 	.byte	3
00000018 07             2167 	.byte	7
00000019 04             2168 	.byte	4
0000001a 07             2169 	.byte	7
0000001b 05             2170 	.byte	5
0000001c 07             2171 	.byte	7
0000001d 06             2172 	.byte	6
0000001e 07             2173 	.byte	7
0000001f 07             2174 	.byte	7
00000020 07             2175 	.byte	7
00000021 08             2176 	.byte	8
00000022 07             2177 	.byte	7
00000023 09             2178 	.byte	9
00000024 07             2179 	.byte	7
00000025 0a             2180 	.byte	10
00000026 07             2181 	.byte	7
00000027 0b             2182 	.byte	11
00000028 07             2183 	.byte	7
00000029 0c             2184 	.byte	12
0000002a 07             2185 	.byte	7
0000002b 0d             2186 	.byte	13
0000002c 07             2187 	.byte	7
0000002d 0e             2188 	.byte	14
0000002e 07             2189 	.byte	7
0000002f 0f             2190 	.byte	15
00000030 07             2191 	.byte	7
00000031 10             2192 	.byte	16
00000032 07             2193 	.byte	7
00000033 11             2194 	.byte	17
00000034 07             2195 	.byte	7
00000035 12             2196 	.byte	18
00000036 07             2197 	.byte	7
00000037 13             2198 	.byte	19
00000038 08             2199 	.byte	8
00000039 14             2200 	.byte	20
0000003a 08             2201 	.byte	8
0000003b 15             2202 	.byte	21
0000003c 08             2203 	.byte	8
0000003d 16             2204 	.byte	22
0000003e 08             2205 	.byte	8
0000003f 17             2206 	.byte	23
00000040 08             2207 	.byte	8
00000041 18             2208 	.byte	24
00000042 08             2209 	.byte	8
00000043 19             2210 	.byte	25
00000044 08             2211 	.byte	8
00000045 1a             2212 	.byte	26
00000046 08             2213 	.byte	8
00000047 1b             2214 	.byte	27
00000048 08             2215 	.byte	8
00000049 1c             2216 	.byte	28
0000004a 08             2217 	.byte	8
0000004b 1d             2218 	.byte	29

                                                                      Page 42
                                                              C:\Users\nhuliyap\AppData\Local\Temp\gh_000048k1.s
0000004c 07             2219 	.byte	7
0000004d 1e             2220 	.byte	30
0000004e 08             2221 	.byte	8
0000004f 1f             2222 	.byte	31
00000050 07             2223 	.byte	7
00000051 20             2224 	.byte	32
00000052 07             2225 	.byte	7
00000053 21             2226 	.byte	33
00000054 07             2227 	.byte	7
00000055 22             2228 	.byte	34
00000056 07             2229 	.byte	7
00000057 23             2230 	.byte	35
00000058 07             2231 	.byte	7
00000059 24             2232 	.byte	36
0000005a 07             2233 	.byte	7
0000005b 25             2234 	.byte	37
0000005c 07             2235 	.byte	7
0000005d 26             2236 	.byte	38
0000005e 07             2237 	.byte	7
0000005f 27             2238 	.byte	39
00000060 07             2239 	.byte	7
00000061 28             2240 	.byte	40
00000062 07             2241 	.byte	7
00000063 29             2242 	.byte	41
00000064 07             2243 	.byte	7
00000065 2a             2244 	.byte	42
00000066 07             2245 	.byte	7
00000067 2b             2246 	.byte	43
00000068 07             2247 	.byte	7
00000069 2c             2248 	.byte	44
0000006a 07             2249 	.byte	7
0000006b 2d             2250 	.byte	45
0000006c 07             2251 	.byte	7
0000006d 2e             2252 	.byte	46
0000006e 07             2253 	.byte	7
0000006f 2f             2254 	.byte	47
00000070 07             2255 	.byte	7
00000071 30             2256 	.byte	48
00000072 07             2257 	.byte	7
00000073 31             2258 	.byte	49
00000074 07             2259 	.byte	7
00000075 32             2260 	.byte	50
00000076 07             2261 	.byte	7
00000077 33             2262 	.byte	51
00000078 07             2263 	.byte	7
00000079 34             2264 	.byte	52
0000007a 07             2265 	.byte	7
0000007b 35             2266 	.byte	53
0000007c 07             2267 	.byte	7
0000007d 36             2268 	.byte	54
0000007e 07             2269 	.byte	7
0000007f 37             2270 	.byte	55
00000080 07             2271 	.byte	7
00000081 38             2272 	.byte	56
00000082 07             2273 	.byte	7
00000083 39             2274 	.byte	57
00000084 07             2275 	.byte	7
00000085 3a             2276 	.byte	58
00000086 07             2277 	.byte	7
00000087 3b             2278 	.byte	59
00000088 07             2279 	.byte	7

                                                                      Page 43
                                                              C:\Users\nhuliyap\AppData\Local\Temp\gh_000048k1.s
00000089 3c             2280 	.byte	60
0000008a 07             2281 	.byte	7
0000008b 3d             2282 	.byte	61
0000008c 07             2283 	.byte	7
0000008d 3e             2284 	.byte	62
0000008e 07             2285 	.byte	7
0000008f 3f             2286 	.byte	63
                        2287 .LDW_unq_2:
                        2288 	.section	.debug_info
                        2289 .LDW_40870d8:
000000b8 25             2290 	.byte	37
000000b9 756e7369676e   2291 	.strz	"unsigned long"
000000bf 6564206c6f6e 
000000c5 6700 
000000c7 07             2292 	.byte	7
000000c8 04             2293 	.byte	4
                        2294 
                        2295 	.section	.debug_abbrev
00000017 25             2296 	.byte	37
00000018 24             2297 	.byte	36
00000019 00             2298 	.byte	0
0000001a 0308           2299 	.byte	3,8
0000001c 3e0b           2300 	.byte	62,11
0000001e 0b0b           2301 	.byte	11,11
00000020 0000           2302 	.byte	0,0
                        2303 
                        2304 	.section	.debug_info
                        2305 .LDW_4086ff8:
000000c9 44             2306 	.byte	68
000000ca 00000000*      2307 	.word	.LDW_40cef88
000000ce 01             2308 	.byte	1
                        2309 
                        2310 	.section	.debug_abbrev
00000022 44             2311 	.byte	68
00000023 15             2312 	.byte	21
00000024 01             2313 	.byte	1
00000025 4910           2314 	.byte	73,16
00000027 270c           2315 	.byte	39,12
00000029 0000           2316 	.byte	0,0
                        2317 
                        2318 	.section	.debug_info
                        2319 .LDW_40ce8c0:
000000cf 12             2320 	.byte	18
000000d0 00000000*      2321 	.word	.LDW_409c070
000000d4 00             2322 	.byte	0
                        2323 
                        2324 	.section	.debug_abbrev
0000002b 12             2325 	.byte	18
0000002c 05             2326 	.byte	5
0000002d 00             2327 	.byte	0
0000002e 4910           2328 	.byte	73,16
00000030 4b0c           2329 	.byte	75,12
00000032 0000           2330 	.byte	0,0
                        2331 
                        2332 	.section	.debug_info
000000d5 00             2333 	.byte	0
                        2334 
                        2335 .LDW_4087308:
000000d6 25             2336 	.byte	37
000000d7 756e7369676e   2337 	.strz	"unsigned char"
000000dd 656420636861 

                                                                      Page 44
                                                              C:\Users\nhuliyap\AppData\Local\Temp\gh_000048k1.s
000000e3 7200 
000000e5 08             2338 	.byte	8
000000e6 01             2339 	.byte	1
                        2340 
                        2341 .LDW_4086e70:
000000e7 44             2342 	.byte	68
000000e8 00000000*      2343 	.word	.LDW_40c9d08
000000ec 01             2344 	.byte	1
                        2345 
                        2346 .LDW_40ce440:
000000ed 12             2347 	.byte	18
000000ee 00000000*      2348 	.word	.LDW_40cef88
000000f2 00             2349 	.byte	0
                        2350 
000000f3 00             2351 	.byte	0
                        2352 
                        2353 .LDW_4086d90:
000000f4 25             2354 	.byte	37
000000f5 756e7369676e   2355 	.strz	"unsigned short"
000000fb 65642073686f 
00000101 727400 
00000104 07             2356 	.byte	7
00000105 02             2357 	.byte	2
                        2358 
                        2359 .LDW_4086e00:
00000106 44             2360 	.byte	68
00000107 00000000*      2361 	.word	.LDW_40c9d08
0000010b 01             2362 	.byte	1
                        2363 
                        2364 .LDW_40ce7a0:
0000010c 12             2365 	.byte	18
0000010d 00000000*      2366 	.word	.LDW_40cef88
00000111 00             2367 	.byte	0
                        2368 
                        2369 .LDW_40ce590:
00000112 12             2370 	.byte	18
00000113 00000000*      2371 	.word	.LDW_40c9f00
00000117 00             2372 	.byte	0
                        2373 
00000118 00             2374 	.byte	0
                        2375 
                        2376 .LDW_4086fc0:
00000119 45             2377 	.byte	69
0000011a 01             2378 	.byte	1
                        2379 
                        2380 	.section	.debug_abbrev
00000034 45             2381 	.byte	69
00000035 15             2382 	.byte	21
00000036 01             2383 	.byte	1
00000037 270c           2384 	.byte	39,12
00000039 0000           2385 	.byte	0,0
                        2386 
                        2387 	.section	.debug_info
                        2388 .LDW_40ce4d0:
0000011b 12             2389 	.byte	18
0000011c 00000000*      2390 	.word	.LDW_40c9d08
00000120 00             2391 	.byte	0
                        2392 
00000121 00             2393 	.byte	0
                        2394 
                        2395 .LDW_4be61f8:

                                                                      Page 45
                                                              C:\Users\nhuliyap\AppData\Local\Temp\gh_000048k1.s
00000122 2b             2396 	.byte	43
00000123 00000000*      2397 	.word	.LDW_40ca240
                        2398 
                        2399 	.section	.debug_abbrev
0000003b 2b             2400 	.byte	43
0000003c 35             2401 	.byte	53
0000003d 00             2402 	.byte	0
0000003e 4910           2403 	.byte	73,16
00000040 0000           2404 	.byte	0,0
                        2405 
                        2406 	.section	.debug_info
                        2407 .LDW_4087378:
00000127 2f             2408 	.byte	47
00000128 00000000*      2409 	.word	.LDW_40c9d08
                        2410 
                        2411 	.section	.debug_abbrev
00000042 2f             2412 	.byte	47
00000043 0f             2413 	.byte	15
00000044 00             2414 	.byte	0
00000045 4910           2415 	.byte	73,16
00000047 0000           2416 	.byte	0,0
                        2417 
                        2418 	.section	.debug_info
                        2419 .LDW_4086e38:
0000012c 45             2420 	.byte	69
0000012d 01             2421 	.byte	1
                        2422 
                        2423 .LDW_40ce500:
0000012e 12             2424 	.byte	18
0000012f 00000000*      2425 	.word	.LDW_40c9d08
00000133 00             2426 	.byte	0
                        2427 
                        2428 .LDW_40ce530:
00000134 12             2429 	.byte	18
00000135 00000000*      2430 	.word	.LDW_4087378
00000139 00             2431 	.byte	0
                        2432 
0000013a 00             2433 	.byte	0
                        2434 
                        2435 .LDW_4086ea8:
0000013b 44             2436 	.byte	68
0000013c 00000000*      2437 	.word	.LDW_40c9f00
00000140 01             2438 	.byte	1
                        2439 
                        2440 .LDW_40ce650:
00000141 12             2441 	.byte	18
00000142 00000000*      2442 	.word	.LDW_409c070
00000146 00             2443 	.byte	0
                        2444 
00000147 00             2445 	.byte	0
                        2446 
                        2447 .LDW_4be6358:
00000148 29             2448 	.byte	41
00000149 00000000*      2449 	.word	.LDW_40c9d08
                        2450 
                        2451 	.section	.debug_abbrev
00000049 29             2452 	.byte	41
0000004a 26             2453 	.byte	38
0000004b 00             2454 	.byte	0
0000004c 4910           2455 	.byte	73,16
0000004e 0000           2456 	.byte	0,0

                                                                      Page 46
                                                              C:\Users\nhuliyap\AppData\Local\Temp\gh_000048k1.s
                        2457 
                        2458 	.section	.debug_info
                        2459 .LDW_4086ee0:
0000014d 2f             2460 	.byte	47
0000014e 00000000*      2461 	.word	.LDW_4be6358
                        2462 
                        2463 .LDW_40871f0:
00000152 45             2464 	.byte	69
00000153 01             2465 	.byte	1
                        2466 
                        2467 .LDW_40ce6e0:
00000154 12             2468 	.byte	18
00000155 00000000*      2469 	.word	.LDW_409c070
00000159 00             2470 	.byte	0
                        2471 
                        2472 .LDW_40ceb90:
0000015a 12             2473 	.byte	18
0000015b 00000000*      2474 	.word	.LDW_4086ee0
0000015f 00             2475 	.byte	0
                        2476 
                        2477 .LDW_40cea10:
00000160 12             2478 	.byte	18
00000161 00000000*      2479 	.word	.LDW_4be6358
00000165 00             2480 	.byte	0
                        2481 
00000166 00             2482 	.byte	0
                        2483 
                        2484 .LDW_4086f18:
00000167 25             2485 	.byte	37
00000168 696e7400       2486 	.strz	"int"
0000016c 05             2487 	.byte	5
0000016d 04             2488 	.byte	4
                        2489 
                        2490 .LDW_40ca330:
0000016e 3a             2491 	.byte	58
0000016f 00             2492 	.byte	0
00000170 40             2493 	.byte	64
00000171 00000000*      2494 	.word	.LDW_40c9d08
                        2495 
                        2496 	.section	.debug_abbrev
00000050 3a             2497 	.byte	58
00000051 01             2498 	.byte	1
00000052 01             2499 	.byte	1
00000053 090b           2500 	.byte	9,11
00000055 0b0f           2501 	.byte	11,15
00000057 4910           2502 	.byte	73,16
00000059 0000           2503 	.byte	0,0
                        2504 
                        2505 	.section	.debug_info
00000175 32             2506 	.byte	50
00000176 00000000*      2507 	.word	.LDW_4086f18
0000017a 04             2508 	.byte	4
0000017b 00             2509 	.byte	0
0000017c 3f             2510 	.byte	63
                        2511 
                        2512 	.section	.debug_abbrev
0000005b 32             2513 	.byte	50
0000005c 21             2514 	.byte	33
0000005d 00             2515 	.byte	0
0000005e 4910           2516 	.byte	73,16
00000060 0b0f           2517 	.byte	11,15

                                                                      Page 47
                                                              C:\Users\nhuliyap\AppData\Local\Temp\gh_000048k1.s
00000062 220d           2518 	.byte	34,13
00000064 2f0d           2519 	.byte	47,13
00000066 0000           2520 	.byte	0,0
                        2521 
                        2522 	.section	.debug_info
0000017d 00             2523 	.byte	0
                        2524 
                        2525 .LDW_4087068:
0000017e 44             2526 	.byte	68
0000017f 00000000*      2527 	.word	.LDW_4087378
00000183 01             2528 	.byte	1
                        2529 
00000184 00             2530 	.byte	0
                        2531 
                        2532 .LDW_4087148:
00000185 44             2533 	.byte	68
00000186 00000000*      2534 	.word	.LDW_40c9d08
0000018a 01             2535 	.byte	1
                        2536 
                        2537 .LDW_40ceb00:
0000018b 12             2538 	.byte	18
0000018c 00000000*      2539 	.word	.LDW_4087378
00000190 00             2540 	.byte	0
                        2541 
00000191 00             2542 	.byte	0
                        2543 
                        2544 .LDW_40871b8:
00000192 44             2545 	.byte	68
00000193 00000000*      2546 	.word	.LDW_40c9d08
00000197 01             2547 	.byte	1
                        2548 
                        2549 .LDW_40cead0:
00000198 12             2550 	.byte	18
00000199 00000000*      2551 	.word	.LDW_4087378
0000019d 00             2552 	.byte	0
                        2553 
0000019e 00             2554 	.byte	0
                        2555 
                        2556 .LDW_4bb7118:
0000019f 44             2557 	.byte	68
000001a0 00000000*      2558 	.word	.LDW_40c9d08
000001a4 01             2559 	.byte	1
                        2560 
                        2561 .LDW_4d1e958:
000001a5 12             2562 	.byte	18
000001a6 00000000*      2563 	.word	.LDW_4087378
000001aa 00             2564 	.byte	0
                        2565 
000001ab 00             2566 	.byte	0
                        2567 
                        2568 .LDW_4bb72d8:
000001ac 44             2569 	.byte	68
000001ad 00000000*      2570 	.word	.LDW_40c9d08
000001b1 01             2571 	.byte	1
                        2572 
                        2573 .LDW_4d1e778:
000001b2 12             2574 	.byte	18
000001b3 00000000*      2575 	.word	.LDW_4087378
000001b7 00             2576 	.byte	0
                        2577 
000001b8 00             2578 	.byte	0

                                                                      Page 48
                                                              C:\Users\nhuliyap\AppData\Local\Temp\gh_000048k1.s
                        2579 
                        2580 .LDW_4bb6fc8:
000001b9 44             2581 	.byte	68
000001ba 00000000*      2582 	.word	.LDW_40c9d08
000001be 01             2583 	.byte	1
                        2584 
                        2585 .LDW_4d1ea48:
000001bf 12             2586 	.byte	18
000001c0 00000000*      2587 	.word	.LDW_4087378
000001c4 00             2588 	.byte	0
                        2589 
000001c5 00             2590 	.byte	0
                        2591 
                        2592 .LDW_4bb7070:
000001c6 44             2593 	.byte	68
000001c7 00000000*      2594 	.word	.LDW_40c9d08
000001cb 01             2595 	.byte	1
                        2596 
                        2597 .LDW_4d1ead8:
000001cc 12             2598 	.byte	18
000001cd 00000000*      2599 	.word	.LDW_4087378
000001d1 00             2600 	.byte	0
                        2601 
000001d2 00             2602 	.byte	0
                        2603 
                        2604 .LDW_4bb7498:
000001d3 44             2605 	.byte	68
000001d4 00000000*      2606 	.word	.LDW_40c9d08
000001d8 01             2607 	.byte	1
                        2608 
                        2609 .LDW_4d1e718:
000001d9 12             2610 	.byte	18
000001da 00000000*      2611 	.word	.LDW_4087378
000001de 00             2612 	.byte	0
                        2613 
000001df 00             2614 	.byte	0
                        2615 
                        2616 .LDW_4bb74d0:
000001e0 44             2617 	.byte	68
000001e1 00000000*      2618 	.word	.LDW_40c9d08
000001e5 01             2619 	.byte	1
                        2620 
                        2621 .LDW_4d1e988:
000001e6 12             2622 	.byte	18
000001e7 00000000*      2623 	.word	.LDW_4087378
000001eb 00             2624 	.byte	0
                        2625 
000001ec 00             2626 	.byte	0
                        2627 
                        2628 .LDW_4bb73f0:
000001ed 44             2629 	.byte	68
000001ee 00000000*      2630 	.word	.LDW_40c9d08
000001f2 01             2631 	.byte	1
                        2632 
                        2633 .LDW_4d1e928:
000001f3 12             2634 	.byte	18
000001f4 00000000*      2635 	.word	.LDW_4087378
000001f8 00             2636 	.byte	0
                        2637 
000001f9 00             2638 	.byte	0
                        2639 

                                                                      Page 49
                                                              C:\Users\nhuliyap\AppData\Local\Temp\gh_000048k1.s
                        2640 .LDW_4bb7508:
000001fa 44             2641 	.byte	68
000001fb 00000000*      2642 	.word	.LDW_40c9d08
000001ff 01             2643 	.byte	1
                        2644 
                        2645 .LDW_4d1eb38:
00000200 12             2646 	.byte	18
00000201 00000000*      2647 	.word	.LDW_4087378
00000205 00             2648 	.byte	0
                        2649 
00000206 00             2650 	.byte	0
                        2651 
                        2652 .LDW_4bb7150:
00000207 44             2653 	.byte	68
00000208 00000000*      2654 	.word	.LDW_40c9d08
0000020c 01             2655 	.byte	1
                        2656 
                        2657 .LDW_4d1ea78:
0000020d 12             2658 	.byte	18
0000020e 00000000*      2659 	.word	.LDW_4087378
00000212 00             2660 	.byte	0
                        2661 
00000213 00             2662 	.byte	0
                        2663 
                        2664 .LDW_4bb75b0:
00000214 44             2665 	.byte	68
00000215 00000000*      2666 	.word	.LDW_40c9d08
00000219 01             2667 	.byte	1
                        2668 
                        2669 .LDW_4d1e7a8:
0000021a 12             2670 	.byte	18
0000021b 00000000*      2671 	.word	.LDW_4087378
0000021f 00             2672 	.byte	0
                        2673 
00000220 00             2674 	.byte	0
                        2675 
                        2676 .LDW_4bb72a0:
00000221 44             2677 	.byte	68
00000222 00000000*      2678 	.word	.LDW_40c9d08
00000226 01             2679 	.byte	1
                        2680 
                        2681 .LDW_4d1e688:
00000227 12             2682 	.byte	18
00000228 00000000*      2683 	.word	.LDW_4087378
0000022c 00             2684 	.byte	0
                        2685 
0000022d 00             2686 	.byte	0
                        2687 
                        2688 .LDW_4bb7000:
0000022e 44             2689 	.byte	68
0000022f 00000000*      2690 	.word	.LDW_40c9d08
00000233 01             2691 	.byte	1
                        2692 
                        2693 .LDW_4d1e748:
00000234 12             2694 	.byte	18
00000235 00000000*      2695 	.word	.LDW_4087378
00000239 00             2696 	.byte	0
                        2697 
0000023a 00             2698 	.byte	0
                        2699 
                        2700 .LDW_4bb7540:

                                                                      Page 50
                                                              C:\Users\nhuliyap\AppData\Local\Temp\gh_000048k1.s
0000023b 44             2701 	.byte	68
0000023c 00000000*      2702 	.word	.LDW_40c9d08
00000240 01             2703 	.byte	1
                        2704 
                        2705 .LDW_4d1e808:
00000241 12             2706 	.byte	18
00000242 00000000*      2707 	.word	.LDW_4087378
00000246 00             2708 	.byte	0
                        2709 
00000247 00             2710 	.byte	0
                        2711 
                        2712 .LDW_4bb7188:
00000248 44             2713 	.byte	68
00000249 00000000*      2714 	.word	.LDW_40c9d08
0000024d 01             2715 	.byte	1
                        2716 
                        2717 .LDW_4d1e6e8:
0000024e 12             2718 	.byte	18
0000024f 00000000*      2719 	.word	.LDW_4087378
00000253 00             2720 	.byte	0
                        2721 
00000254 00             2722 	.byte	0
                        2723 
                        2724 .LDW_4bb7310:
00000255 44             2725 	.byte	68
00000256 00000000*      2726 	.word	.LDW_40c9d08
0000025a 01             2727 	.byte	1
                        2728 
                        2729 .LDW_4d1ea18:
0000025b 12             2730 	.byte	18
0000025c 00000000*      2731 	.word	.LDW_4087378
00000260 00             2732 	.byte	0
                        2733 
00000261 00             2734 	.byte	0
                        2735 
                        2736 .LDW_4bb7038:
00000262 44             2737 	.byte	68
00000263 00000000*      2738 	.word	.LDW_40c9d08
00000267 01             2739 	.byte	1
                        2740 
                        2741 .LDW_4d1e9b8:
00000268 12             2742 	.byte	18
00000269 00000000*      2743 	.word	.LDW_4087378
0000026d 00             2744 	.byte	0
                        2745 
0000026e 00             2746 	.byte	0
                        2747 
                        2748 .LDW_4bb6ee8:
0000026f 44             2749 	.byte	68
00000270 00000000*      2750 	.word	.LDW_40c9d08
00000274 01             2751 	.byte	1
                        2752 
                        2753 .LDW_4d1ec28:
00000275 12             2754 	.byte	18
00000276 00000000*      2755 	.word	.LDW_4087378
0000027a 00             2756 	.byte	0
                        2757 
0000027b 00             2758 	.byte	0
                        2759 
                        2760 .LDW_4bb7348:
0000027c 44             2761 	.byte	68

                                                                      Page 51
                                                              C:\Users\nhuliyap\AppData\Local\Temp\gh_000048k1.s
0000027d 00000000*      2762 	.word	.LDW_40c9d08
00000281 01             2763 	.byte	1
                        2764 
                        2765 .LDW_4d1ebc8:
00000282 12             2766 	.byte	18
00000283 00000000*      2767 	.word	.LDW_4087378
00000287 00             2768 	.byte	0
                        2769 
00000288 00             2770 	.byte	0
                        2771 
                        2772 .LDW_4bb6f90:
00000289 44             2773 	.byte	68
0000028a 00000000*      2774 	.word	.LDW_40c9d08
0000028e 01             2775 	.byte	1
                        2776 
                        2777 .LDW_4d1ec88:
0000028f 12             2778 	.byte	18
00000290 00000000*      2779 	.word	.LDW_4087378
00000294 00             2780 	.byte	0
                        2781 
00000295 00             2782 	.byte	0
                        2783 
                        2784 .LDW_4bb70a8:
00000296 44             2785 	.byte	68
00000297 00000000*      2786 	.word	.LDW_40c9d08
0000029b 01             2787 	.byte	1
                        2788 
                        2789 .LDW_4d1ebf8:
0000029c 12             2790 	.byte	18
0000029d 00000000*      2791 	.word	.LDW_4087378
000002a1 00             2792 	.byte	0
                        2793 
000002a2 00             2794 	.byte	0
                        2795 
                        2796 .LDW_4bb7230:
000002a3 44             2797 	.byte	68
000002a4 00000000*      2798 	.word	.LDW_40c9d08
000002a8 01             2799 	.byte	1
                        2800 
                        2801 .LDW_4d1ee68:
000002a9 12             2802 	.byte	18
000002aa 00000000*      2803 	.word	.LDW_4087378
000002ae 00             2804 	.byte	0
                        2805 
000002af 00             2806 	.byte	0
                        2807 
                        2808 .LDW_4bb7578:
000002b0 45             2809 	.byte	69
000002b1 01             2810 	.byte	1
                        2811 
                        2812 .LDW_4d1ece8:
000002b2 12             2813 	.byte	18
000002b3 00000000*      2814 	.word	.LDW_4086ee0
000002b7 00             2815 	.byte	0
                        2816 
000002b8 00             2817 	.byte	0
                        2818 
                        2819 .LDW_4bb6f20:
000002b9 45             2820 	.byte	69
000002ba 01             2821 	.byte	1
                        2822 

                                                                      Page 52
                                                              C:\Users\nhuliyap\AppData\Local\Temp\gh_000048k1.s
                        2823 .LDW_4d1ed18:
000002bb 12             2824 	.byte	18
000002bc 00000000*      2825 	.word	.LDW_4086ee0
000002c0 00             2826 	.byte	0
                        2827 
000002c1 00             2828 	.byte	0
                        2829 
                        2830 .LDW_4bb71c0:
000002c2 45             2831 	.byte	69
000002c3 01             2832 	.byte	1
                        2833 
                        2834 .LDW_4d1ed78:
000002c4 12             2835 	.byte	18
000002c5 00000000*      2836 	.word	.LDW_4086ee0
000002c9 00             2837 	.byte	0
                        2838 
000002ca 00             2839 	.byte	0
                        2840 
                        2841 .LDW_4bb6f58:
000002cb 45             2842 	.byte	69
000002cc 01             2843 	.byte	1
                        2844 
                        2845 .LDW_4d1eec8:
000002cd 12             2846 	.byte	18
000002ce 00000000*      2847 	.word	.LDW_4086ee0
000002d2 00             2848 	.byte	0
                        2849 
000002d3 00             2850 	.byte	0
                        2851 
                        2852 .LDW_4bb70e0:
000002d4 45             2853 	.byte	69
000002d5 01             2854 	.byte	1
                        2855 
                        2856 .LDW_4d1eef8:
000002d6 12             2857 	.byte	18
000002d7 00000000*      2858 	.word	.LDW_4086ee0
000002db 00             2859 	.byte	0
                        2860 
000002dc 00             2861 	.byte	0
                        2862 
                        2863 .LDW_4bb7380:
000002dd 45             2864 	.byte	69
000002de 01             2865 	.byte	1
                        2866 
                        2867 .LDW_4d1e268:
000002df 12             2868 	.byte	18
000002e0 00000000*      2869 	.word	.LDW_4086ee0
000002e4 00             2870 	.byte	0
                        2871 
000002e5 00             2872 	.byte	0
                        2873 
                        2874 .LDW_4bb7460:
000002e6 25             2875 	.byte	37
000002e7 756e7369676e   2876 	.strz	"unsigned int"
000002ed 656420696e74 
000002f3 00 
000002f4 07             2877 	.byte	7
000002f5 04             2878 	.byte	4
                        2879 
                        2880 .LDW_4be6d08:
000002f6 3a             2881 	.byte	58

                                                                      Page 53
                                                              C:\Users\nhuliyap\AppData\Local\Temp\gh_000048k1.s
000002f7 00             2882 	.byte	0
000002f8 10             2883 	.byte	16
000002f9 00000000*      2884 	.word	.LDW_40c9d08
                        2885 
000002fd 32             2886 	.byte	50
000002fe 00000000*      2887 	.word	.LDW_4086f18
00000302 04             2888 	.byte	4
00000303 00             2889 	.byte	0
00000304 0f             2890 	.byte	15
                        2891 
00000305 00             2892 	.byte	0
                        2893 
                        2894 .LDW_4be6d90:
00000306 3a             2895 	.byte	58
00000307 00             2896 	.byte	0
00000308 0a             2897 	.byte	10
00000309 00000000*      2898 	.word	.LDW_40c9d08
                        2899 
0000030d 32             2900 	.byte	50
0000030e 00000000*      2901 	.word	.LDW_4086f18
00000312 04             2902 	.byte	4
00000313 00             2903 	.byte	0
00000314 09             2904 	.byte	9
                        2905 
00000315 00             2906 	.byte	0
                        2907 
                        2908 .LDW_4be6e18:
00000316 3a             2909 	.byte	58
00000317 00             2910 	.byte	0
00000318 0a             2911 	.byte	10
00000319 00000000*      2912 	.word	.LDW_40c9d08
                        2913 
0000031d 32             2914 	.byte	50
0000031e 00000000*      2915 	.word	.LDW_4086f18
00000322 04             2916 	.byte	4
00000323 00             2917 	.byte	0
00000324 09             2918 	.byte	9
                        2919 
00000325 00             2920 	.byte	0
                        2921 
                        2922 .LDW_4d39fc8:
00000326 3a             2923 	.byte	58
00000327 00             2924 	.byte	0
00000328 03             2925 	.byte	3
00000329 00000000*      2926 	.word	.LDW_40c9d08
                        2927 
0000032d 32             2928 	.byte	50
0000032e 00000000*      2929 	.word	.LDW_4086f18
00000332 04             2930 	.byte	4
00000333 00             2931 	.byte	0
00000334 02             2932 	.byte	2
                        2933 
00000335 00             2934 	.byte	0
                        2935 
                        2936 .LDW_4d3a050:
00000336 3a             2937 	.byte	58
00000337 00             2938 	.byte	0
00000338 03             2939 	.byte	3
00000339 00000000*      2940 	.word	.LDW_40c9d08
                        2941 
0000033d 32             2942 	.byte	50

                                                                      Page 54
                                                              C:\Users\nhuliyap\AppData\Local\Temp\gh_000048k1.s
0000033e 00000000*      2943 	.word	.LDW_4086f18
00000342 04             2944 	.byte	4
00000343 00             2945 	.byte	0
00000344 02             2946 	.byte	2
                        2947 
00000345 00             2948 	.byte	0
                        2949 
                        2950 .LDW_4d3a0d8:
00000346 3a             2951 	.byte	58
00000347 00             2952 	.byte	0
00000348 03             2953 	.byte	3
00000349 00000000*      2954 	.word	.LDW_40c9d08
                        2955 
0000034d 32             2956 	.byte	50
0000034e 00000000*      2957 	.word	.LDW_4086f18
00000352 04             2958 	.byte	4
00000353 00             2959 	.byte	0
00000354 02             2960 	.byte	2
                        2961 
00000355 00             2962 	.byte	0
                        2963 
                        2964 .LDW_4d3a160:
00000356 3a             2965 	.byte	58
00000357 00             2966 	.byte	0
00000358 0a             2967 	.byte	10
00000359 00000000*      2968 	.word	.LDW_40c9d08
                        2969 
0000035d 32             2970 	.byte	50
0000035e 00000000*      2971 	.word	.LDW_4086f18
00000362 04             2972 	.byte	4
00000363 00             2973 	.byte	0
00000364 09             2974 	.byte	9
                        2975 
00000365 00             2976 	.byte	0
                        2977 
                        2978 .LDW_4d3a1e8:
00000366 3a             2979 	.byte	58
00000367 00             2980 	.byte	0
00000368 0a             2981 	.byte	10
00000369 00000000*      2982 	.word	.LDW_40c9d08
                        2983 
0000036d 32             2984 	.byte	50
0000036e 00000000*      2985 	.word	.LDW_4086f18
00000372 04             2986 	.byte	4
00000373 00             2987 	.byte	0
00000374 09             2988 	.byte	9
                        2989 
00000375 00             2990 	.byte	0
                        2991 
                        2992 .LDW_4d3a270:
00000376 3a             2993 	.byte	58
00000377 00             2994 	.byte	0
00000378 02             2995 	.byte	2
00000379 00000000*      2996 	.word	.LDW_40c9d08
                        2997 
0000037d 32             2998 	.byte	50
0000037e 00000000*      2999 	.word	.LDW_4086f18
00000382 04             3000 	.byte	4
00000383 00             3001 	.byte	0
00000384 01             3002 	.byte	1
                        3003 

                                                                      Page 55
                                                              C:\Users\nhuliyap\AppData\Local\Temp\gh_000048k1.s
00000385 00             3004 	.byte	0
                        3005 
                        3006 .LDW_4d3a2f8:
00000386 3a             3007 	.byte	58
00000387 00             3008 	.byte	0
00000388 06             3009 	.byte	6
00000389 00000000*      3010 	.word	.LDW_40c9d08
                        3011 
0000038d 32             3012 	.byte	50
0000038e 00000000*      3013 	.word	.LDW_4086f18
00000392 04             3014 	.byte	4
00000393 00             3015 	.byte	0
00000394 05             3016 	.byte	5
                        3017 
00000395 00             3018 	.byte	0
                        3019 
                        3020 .LDW_4d3ae48:
00000396 3a             3021 	.byte	58
00000397 00             3022 	.byte	0
00000398 09             3023 	.byte	9
00000399 00000000*      3024 	.word	.LDW_40c9d08
                        3025 
0000039d 32             3026 	.byte	50
0000039e 00000000*      3027 	.word	.LDW_4086f18
000003a2 04             3028 	.byte	4
000003a3 00             3029 	.byte	0
000003a4 08             3030 	.byte	8
                        3031 
000003a5 00             3032 	.byte	0
                        3033 
                        3034 .LDW_4d3a760:
000003a6 3a             3035 	.byte	58
000003a7 00             3036 	.byte	0
000003a8 14             3037 	.byte	20
000003a9 00000000*      3038 	.word	.LDW_40c9d08
                        3039 
000003ad 32             3040 	.byte	50
000003ae 00000000*      3041 	.word	.LDW_4086f18
000003b2 04             3042 	.byte	4
000003b3 00             3043 	.byte	0
000003b4 13             3044 	.byte	19
                        3045 
000003b5 00             3046 	.byte	0
                        3047 
                        3048 .LDW_4d3a650:
000003b6 3a             3049 	.byte	58
000003b7 00             3050 	.byte	0
000003b8 03             3051 	.byte	3
000003b9 00000000*      3052 	.word	.LDW_40c9d08
                        3053 
000003bd 32             3054 	.byte	50
000003be 00000000*      3055 	.word	.LDW_4086f18
000003c2 04             3056 	.byte	4
000003c3 00             3057 	.byte	0
000003c4 02             3058 	.byte	2
                        3059 
000003c5 00             3060 	.byte	0
                        3061 
                        3062 .LDW_4d3b068:
000003c6 3a             3063 	.byte	58
000003c7 00             3064 	.byte	0

                                                                      Page 56
                                                              C:\Users\nhuliyap\AppData\Local\Temp\gh_000048k1.s
000003c8 14             3065 	.byte	20
000003c9 00000000*      3066 	.word	.LDW_40c9d08
                        3067 
000003cd 32             3068 	.byte	50
000003ce 00000000*      3069 	.word	.LDW_4086f18
000003d2 04             3070 	.byte	4
000003d3 00             3071 	.byte	0
000003d4 13             3072 	.byte	19
                        3073 
000003d5 00             3074 	.byte	0
                        3075 
                        3076 .LDW_4d3a5c8:
000003d6 3a             3077 	.byte	58
000003d7 00             3078 	.byte	0
000003d8 03             3079 	.byte	3
000003d9 00000000*      3080 	.word	.LDW_40c9d08
                        3081 
000003dd 32             3082 	.byte	50
000003de 00000000*      3083 	.word	.LDW_4086f18
000003e2 04             3084 	.byte	4
000003e3 00             3085 	.byte	0
000003e4 02             3086 	.byte	2
                        3087 
000003e5 00             3088 	.byte	0
                        3089 
                        3090 .LDW_4d3a6d8:
000003e6 3a             3091 	.byte	58
000003e7 00             3092 	.byte	0
000003e8 11             3093 	.byte	17
000003e9 00000000*      3094 	.word	.LDW_40c9d08
                        3095 
000003ed 32             3096 	.byte	50
000003ee 00000000*      3097 	.word	.LDW_4086f18
000003f2 04             3098 	.byte	4
000003f3 00             3099 	.byte	0
000003f4 10             3100 	.byte	16
                        3101 
000003f5 00             3102 	.byte	0
                        3103 
                        3104 .LDW_4d3a7e8:
000003f6 3a             3105 	.byte	58
000003f7 00             3106 	.byte	0
000003f8 01             3107 	.byte	1
000003f9 00000000*      3108 	.word	.LDW_40c9d08
                        3109 
000003fd 32             3110 	.byte	50
000003fe 00000000*      3111 	.word	.LDW_4086f18
00000402 04             3112 	.byte	4
00000403 00             3113 	.byte	0
00000404 00             3114 	.byte	0
                        3115 
00000405 00             3116 	.byte	0
                        3117 
                        3118 .LDW_4d3aa90:
00000406 3a             3119 	.byte	58
00000407 00             3120 	.byte	0
00000408 01             3121 	.byte	1
00000409 00000000*      3122 	.word	.LDW_40c9d08
                        3123 
0000040d 32             3124 	.byte	50
0000040e 00000000*      3125 	.word	.LDW_4086f18

                                                                      Page 57
                                                              C:\Users\nhuliyap\AppData\Local\Temp\gh_000048k1.s
00000412 04             3126 	.byte	4
00000413 00             3127 	.byte	0
00000414 00             3128 	.byte	0
                        3129 
00000415 00             3130 	.byte	0
                        3131 
                        3132 .LDW_4d3aed0:
00000416 3a             3133 	.byte	58
00000417 00             3134 	.byte	0
00000418 02             3135 	.byte	2
00000419 00000000*      3136 	.word	.LDW_40c9d08
                        3137 
0000041d 32             3138 	.byte	50
0000041e 00000000*      3139 	.word	.LDW_4086f18
00000422 04             3140 	.byte	4
00000423 00             3141 	.byte	0
00000424 01             3142 	.byte	1
                        3143 
00000425 00             3144 	.byte	0
                        3145 
                        3146 .LDW_4d3a4b8:
00000426 3a             3147 	.byte	58
00000427 00             3148 	.byte	0
00000428 01             3149 	.byte	1
00000429 00000000*      3150 	.word	.LDW_40c9d08
                        3151 
0000042d 32             3152 	.byte	50
0000042e 00000000*      3153 	.word	.LDW_4086f18
00000432 04             3154 	.byte	4
00000433 00             3155 	.byte	0
00000434 00             3156 	.byte	0
                        3157 
00000435 00             3158 	.byte	0
                        3159 
                        3160 .LDW_4d3b178:
00000436 3a             3161 	.byte	58
00000437 00             3162 	.byte	0
00000438 01             3163 	.byte	1
00000439 00000000*      3164 	.word	.LDW_40c9d08
                        3165 
0000043d 32             3166 	.byte	50
0000043e 00000000*      3167 	.word	.LDW_4086f18
00000442 04             3168 	.byte	4
00000443 00             3169 	.byte	0
00000444 00             3170 	.byte	0
                        3171 
00000445 00             3172 	.byte	0
                        3173 
                        3174 .LDW_4d3acb0:
00000446 3a             3175 	.byte	58
00000447 00             3176 	.byte	0
00000448 02             3177 	.byte	2
00000449 00000000*      3178 	.word	.LDW_40c9d08
                        3179 
0000044d 32             3180 	.byte	50
0000044e 00000000*      3181 	.word	.LDW_4086f18
00000452 04             3182 	.byte	4
00000453 00             3183 	.byte	0
00000454 01             3184 	.byte	1
                        3185 
00000455 00             3186 	.byte	0

                                                                      Page 58
                                                              C:\Users\nhuliyap\AppData\Local\Temp\gh_000048k1.s
                        3187 
                        3188 .LDW_4d3b0f0:
00000456 3a             3189 	.byte	58
00000457 00             3190 	.byte	0
00000458 23             3191 	.byte	35
00000459 00000000*      3192 	.word	.LDW_40c9d08
                        3193 
0000045d 32             3194 	.byte	50
0000045e 00000000*      3195 	.word	.LDW_4086f18
00000462 04             3196 	.byte	4
00000463 00             3197 	.byte	0
00000464 22             3198 	.byte	34
                        3199 
00000465 00             3200 	.byte	0
                        3201 
                        3202 .LDW_4d3a3a8:
00000466 3a             3203 	.byte	58
00000467 00             3204 	.byte	0
00000468 12             3205 	.byte	18
00000469 00000000*      3206 	.word	.LDW_40c9d08
                        3207 
0000046d 32             3208 	.byte	50
0000046e 00000000*      3209 	.word	.LDW_4086f18
00000472 04             3210 	.byte	4
00000473 00             3211 	.byte	0
00000474 11             3212 	.byte	17
                        3213 
00000475 00             3214 	.byte	0
                        3215 
                        3216 .LDW_4d3a870:
00000476 3a             3217 	.byte	58
00000477 00             3218 	.byte	0
00000478 23             3219 	.byte	35
00000479 00000000*      3220 	.word	.LDW_40c9d08
                        3221 
0000047d 32             3222 	.byte	50
0000047e 00000000*      3223 	.word	.LDW_4086f18
00000482 04             3224 	.byte	4
00000483 00             3225 	.byte	0
00000484 22             3226 	.byte	34
                        3227 
00000485 00             3228 	.byte	0
                        3229 
                        3230 .LDW_4d3aba0:
00000486 3a             3231 	.byte	58
00000487 00             3232 	.byte	0
00000488 12             3233 	.byte	18
00000489 00000000*      3234 	.word	.LDW_40c9d08
                        3235 
0000048d 32             3236 	.byte	50
0000048e 00000000*      3237 	.word	.LDW_4086f18
00000492 04             3238 	.byte	4
00000493 00             3239 	.byte	0
00000494 11             3240 	.byte	17
                        3241 
00000495 00             3242 	.byte	0
                        3243 
                        3244 .LDW_4d3a540:
00000496 3a             3245 	.byte	58
00000497 00             3246 	.byte	0
00000498 10             3247 	.byte	16

                                                                      Page 59
                                                              C:\Users\nhuliyap\AppData\Local\Temp\gh_000048k1.s
00000499 00000000*      3248 	.word	.LDW_40c9d08
                        3249 
0000049d 32             3250 	.byte	50
0000049e 00000000*      3251 	.word	.LDW_4086f18
000004a2 04             3252 	.byte	4
000004a3 00             3253 	.byte	0
000004a4 0f             3254 	.byte	15
                        3255 
000004a5 00             3256 	.byte	0
                        3257 
                        3258 .LDW_4d3a8f8:
000004a6 3a             3259 	.byte	58
000004a7 00             3260 	.byte	0
000004a8 04             3261 	.byte	4
000004a9 00000000*      3262 	.word	.LDW_40c9d08
                        3263 
000004ad 32             3264 	.byte	50
000004ae 00000000*      3265 	.word	.LDW_4086f18
000004b2 04             3266 	.byte	4
000004b3 00             3267 	.byte	0
000004b4 03             3268 	.byte	3
                        3269 
000004b5 00             3270 	.byte	0
                        3271 
                        3272 .LDW_4d3a980:
000004b6 3a             3273 	.byte	58
000004b7 00             3274 	.byte	0
000004b8 01             3275 	.byte	1
000004b9 00000000*      3276 	.word	.LDW_40c9d08
                        3277 
000004bd 32             3278 	.byte	50
000004be 00000000*      3279 	.word	.LDW_4086f18
000004c2 04             3280 	.byte	4
000004c3 00             3281 	.byte	0
000004c4 00             3282 	.byte	0
                        3283 
000004c5 00             3284 	.byte	0
                        3285 
                        3286 .LDW_4d3b200:
000004c6 3a             3287 	.byte	58
000004c7 00             3288 	.byte	0
000004c8 28             3289 	.byte	40
000004c9 00000000*      3290 	.word	.LDW_40c9d08
                        3291 
000004cd 32             3292 	.byte	50
000004ce 00000000*      3293 	.word	.LDW_4086f18
000004d2 04             3294 	.byte	4
000004d3 00             3295 	.byte	0
000004d4 27             3296 	.byte	39
                        3297 
000004d5 00             3298 	.byte	0
                        3299 
                        3300 .LDW_4d3aa08:
000004d6 3a             3301 	.byte	58
000004d7 00             3302 	.byte	0
000004d8 02             3303 	.byte	2
000004d9 00000000*      3304 	.word	.LDW_40c9d08
                        3305 
000004dd 32             3306 	.byte	50
000004de 00000000*      3307 	.word	.LDW_4086f18
000004e2 04             3308 	.byte	4

                                                                      Page 60
                                                              C:\Users\nhuliyap\AppData\Local\Temp\gh_000048k1.s
000004e3 00             3309 	.byte	0
000004e4 01             3310 	.byte	1
                        3311 
000004e5 00             3312 	.byte	0
                        3313 
                        3314 .LDW_4d3af58:
000004e6 3a             3315 	.byte	58
000004e7 00             3316 	.byte	0
000004e8 fe0c           3317 	.byte	254,12
000004ea 00000000*      3318 	.word	.LDW_40c9d08
                        3319 
000004ee 32             3320 	.byte	50
000004ef 00000000*      3321 	.word	.LDW_4086f18
000004f3 04             3322 	.byte	4
000004f4 00             3323 	.byte	0
000004f5 fd0c           3324 	.byte	253,12
                        3325 
000004f7 00             3326 	.byte	0
                        3327 
                        3328 .LDW_4d3ab18:
000004f8 3a             3329 	.byte	58
000004f9 00             3330 	.byte	0
000004fa 10             3331 	.byte	16
000004fb 00000000*      3332 	.word	.LDW_40c9d08
                        3333 
000004ff 32             3334 	.byte	50
00000500 00000000*      3335 	.word	.LDW_4086f18
00000504 04             3336 	.byte	4
00000505 00             3337 	.byte	0
00000506 0f             3338 	.byte	15
                        3339 
00000507 00             3340 	.byte	0
                        3341 
                        3342 .LDW_4d3ac28:
00000508 3a             3343 	.byte	58
00000509 00             3344 	.byte	0
0000050a 30             3345 	.byte	48
0000050b 00000000*      3346 	.word	.LDW_40c9d08
                        3347 
0000050f 32             3348 	.byte	50
00000510 00000000*      3349 	.word	.LDW_4086f18
00000514 04             3350 	.byte	4
00000515 00             3351 	.byte	0
00000516 2f             3352 	.byte	47
                        3353 
00000517 00             3354 	.byte	0
                        3355 
                        3356 .LDW_4d3ad38:
00000518 3a             3357 	.byte	58
00000519 00             3358 	.byte	0
0000051a 8010           3359 	.byte	128,16
0000051c 00000000*      3360 	.word	.LDW_40c9d08
                        3361 
00000520 32             3362 	.byte	50
00000521 00000000*      3363 	.word	.LDW_4086f18
00000525 04             3364 	.byte	4
00000526 00             3365 	.byte	0
00000527 ff0f           3366 	.byte	255,15
                        3367 
00000529 00             3368 	.byte	0
                        3369 

                                                                      Page 61
                                                              C:\Users\nhuliyap\AppData\Local\Temp\gh_000048k1.s
                        3370 .LDW_4d4fe00:
0000052a 2f             3371 	.byte	47
0000052b 00000000*      3372 	.word	.LDW_4be5f38
                        3373 
                        3374 .LDW_4d4fce8:
0000052f 45             3375 	.byte	69
00000530 01             3376 	.byte	1
                        3377 
                        3378 .LDW_4d4e6f8:
00000531 12             3379 	.byte	18
00000532 00000000*      3380 	.word	.LDW_4d4fe00
00000536 00             3381 	.byte	0
                        3382 
00000537 00             3383 	.byte	0
                        3384 
                        3385 .LDW_4d4ff88:
00000538 45             3386 	.byte	69
00000539 01             3387 	.byte	1
                        3388 
0000053a 00             3389 	.byte	0
                        3390 
                        3391 .LDW_4d55278:
0000053b 44             3392 	.byte	68
0000053c 00000000*      3393 	.word	.LDW_40c9d08
00000540 01             3394 	.byte	1
                        3395 
00000541 00             3396 	.byte	0
                        3397 
                        3398 .LDW_40c9d08:
00000542 28             3399 	.byte	40
00000543 75696e743800   3400 	.strz	"uint8"
00000549 50             3401 	.byte	80
0000054a 4b             3402 	.byte	75
0000054b 06             3403 	.byte	6
0000054c 00000000*      3404 	.word	.LDW_4087308
                        3405 
                        3406 	.section	.debug_abbrev
00000068 28             3407 	.byte	40
00000069 16             3408 	.byte	22
0000006a 00             3409 	.byte	0
0000006b 0308           3410 	.byte	3,8
0000006d 3b0f           3411 	.byte	59,15
0000006f 390f           3412 	.byte	57,15
00000071 3a0f           3413 	.byte	58,15
00000073 4910           3414 	.byte	73,16
00000075 0000           3415 	.byte	0,0
                        3416 
                        3417 	.section	.debug_info
                        3418 .LDW_40c9f00:
00000550 28             3419 	.byte	40
00000551 75696e743136   3420 	.strz	"uint16"
00000557 00 
00000558 52             3421 	.byte	82
00000559 4a             3422 	.byte	74
0000055a 06             3423 	.byte	6
0000055b 00000000*      3424 	.word	.LDW_4086d90
                        3425 
                        3426 .LDW_40cef88:
0000055f 28             3427 	.byte	40
00000560 75696e743332   3428 	.strz	"uint32"
00000566 00 

                                                                      Page 62
                                                              C:\Users\nhuliyap\AppData\Local\Temp\gh_000048k1.s
00000567 54             3429 	.byte	84
00000568 4a             3430 	.byte	74
00000569 06             3431 	.byte	6
0000056a 00000000*      3432 	.word	.LDW_40870d8
                        3433 
                        3434 .LDW_4b90810:
0000056e 28             3435 	.byte	40
0000056f 75696e743136   3436 	.strz	"uint16_t"
00000575 5f7400 
00000578 28             3437 	.byte	40
00000579 18             3438 	.byte	24
0000057a 04             3439 	.byte	4
0000057b 00000000*      3440 	.word	.LDW_4086d90
                        3441 
                        3442 .LDW_4b90918:
0000057f 28             3443 	.byte	40
00000580 75696e743332   3444 	.strz	"uint32_t"
00000586 5f7400 
00000589 29             3445 	.byte	41
0000058a 18             3446 	.byte	24
0000058b 04             3447 	.byte	4
0000058c 00000000*      3448 	.word	.LDW_40870d8
                        3449 
                        3450 .LDW_4b90a78:
00000590 41             3451 	.byte	65
00000591 2e             3452 	.byte	46
00000592 09             3453 	.byte	9
00000593 02             3454 	.byte	2
00000594 8010           3455 	.byte	128,16
00000596 01             3456 	.byte	1
                        3457 
                        3458 	.section	.debug_abbrev
00000077 41             3459 	.byte	65
00000078 13             3460 	.byte	19
00000079 01             3461 	.byte	1
0000007a 3b0f           3462 	.byte	59,15
0000007c 390f           3463 	.byte	57,15
0000007e 3a0f           3464 	.byte	58,15
00000080 0b0f           3465 	.byte	11,15
00000082 320b           3466 	.byte	50,11
00000084 0000           3467 	.byte	0,0
                        3468 
                        3469 	.section	.debug_info
                        3470 .LDW_4d39db8:
00000597 23             3471 	.byte	35
00000598 4155385f496e   3472 	.strz	"AU8_Index1_Reserved"
0000059e 646578315f52 
000005a4 657365727665 
000005aa 6400 
000005ac 2f             3473 	.byte	47
000005ad 0a             3474 	.byte	10
000005ae 02             3475 	.byte	2
000005af 00000000*      3476 	.word	.LDW_4be6d08
000005b3 0223           3477 	.byte	2,35
000005b5 00             3478 	.byte	0
000005b6 01             3479 	.byte	1
                        3480 
                        3481 	.section	.debug_abbrev
00000086 23             3482 	.byte	35
00000087 0d             3483 	.byte	13
00000088 00             3484 	.byte	0

                                                                      Page 63
                                                              C:\Users\nhuliyap\AppData\Local\Temp\gh_000048k1.s
00000089 0308           3485 	.byte	3,8
0000008b 3b0f           3486 	.byte	59,15
0000008d 390f           3487 	.byte	57,15
0000008f 3a0f           3488 	.byte	58,15
00000091 4910           3489 	.byte	73,16
00000093 380a           3490 	.byte	56,10
00000095 320b           3491 	.byte	50,11
00000097 0000           3492 	.byte	0,0
                        3493 
                        3494 	.section	.debug_info
                        3495 .LDW_4d39ae8:
000005b7 23             3496 	.byte	35
000005b8 4155385f496e   3497 	.strz	"AU8_Index2_CustomerHwPartNumber433"
000005be 646578325f43 
000005c4 7573746f6d65 
000005ca 724877506172 
000005d0 744e756d6265 
000005d6 7234333300 
000005db 30             3498 	.byte	48
000005dc 0a             3499 	.byte	10
000005dd 02             3500 	.byte	2
000005de 00000000*      3501 	.word	.LDW_4be6d90
000005e2 0223           3502 	.byte	2,35
000005e4 10             3503 	.byte	16
000005e5 01             3504 	.byte	1
                        3505 
                        3506 .LDW_4d39ed8:
000005e6 23             3507 	.byte	35
000005e7 4155385f496e   3508 	.strz	"AU8_Index3_CustomerHwPartNumber315"
000005ed 646578335f43 
000005f3 7573746f6d65 
000005f9 724877506172 
000005ff 744e756d6265 
00000605 7233313500 
0000060a 31             3509 	.byte	49
0000060b 0a             3510 	.byte	10
0000060c 02             3511 	.byte	2
0000060d 00000000*      3512 	.word	.LDW_4be6e18
00000611 0223           3513 	.byte	2,35
00000613 1a             3514 	.byte	26
00000614 01             3515 	.byte	1
                        3516 
                        3517 .LDW_4d39e00:
00000615 23             3518 	.byte	35
00000616 4155385f496e   3519 	.strz	"AU8_Index4_HufSpecificHw433"
0000061c 646578345f48 
00000622 756653706563 
00000628 696669634877 
0000062e 34333300 
00000632 32             3520 	.byte	50
00000633 0a             3521 	.byte	10
00000634 02             3522 	.byte	2
00000635 00000000*      3523 	.word	.LDW_4d39fc8
00000639 0223           3524 	.byte	2,35
0000063b 24             3525 	.byte	36
0000063c 01             3526 	.byte	1
                        3527 
                        3528 .LDW_4d39c08:
0000063d 23             3529 	.byte	35
0000063e 4155385f496e   3530 	.strz	"AU8_Index5_HufSpecificHw315"
00000644 646578355f48 

                                                                      Page 64
                                                              C:\Users\nhuliyap\AppData\Local\Temp\gh_000048k1.s
0000064a 756653706563 
00000650 696669634877 
00000656 33313500 
0000065a 33             3531 	.byte	51
0000065b 0a             3532 	.byte	10
0000065c 02             3533 	.byte	2
0000065d 00000000*      3534 	.word	.LDW_4d3a050
00000661 0223           3535 	.byte	2,35
00000663 27             3536 	.byte	39
00000664 01             3537 	.byte	1
                        3538 
                        3539 .LDW_4d39c50:
00000665 23             3540 	.byte	35
00000666 4155385f496e   3541 	.strz	"AU8_Index6_HardwareVersionInfo"
0000066c 646578365f48 
00000672 617264776172 
00000678 655665727369 
0000067e 6f6e496e666f 
00000684 00 
00000685 34             3542 	.byte	52
00000686 0a             3543 	.byte	10
00000687 02             3544 	.byte	2
00000688 00000000*      3545 	.word	.LDW_4d3a0d8
0000068c 0223           3546 	.byte	2,35
0000068e 2a             3547 	.byte	42
0000068f 01             3548 	.byte	1
                        3549 
                        3550 .LDW_4d39e48:
00000690 23             3551 	.byte	35
00000691 4155385f496e   3552 	.strz	"AU8_Index7_CustomerPartNumber433"
00000697 646578375f43 
0000069d 7573746f6d65 
000006a3 72506172744e 
000006a9 756d62657234 
000006af 333300 
000006b2 35             3553 	.byte	53
000006b3 0a             3554 	.byte	10
000006b4 02             3555 	.byte	2
000006b5 00000000*      3556 	.word	.LDW_4d3a160
000006b9 0223           3557 	.byte	2,35
000006bb 2d             3558 	.byte	45
000006bc 01             3559 	.byte	1
                        3560 
                        3561 .LDW_4d39980:
000006bd 23             3562 	.byte	35
000006be 4155385f496e   3563 	.strz	"AU8_Index8_CustomerPartNumber315"
000006c4 646578385f43 
000006ca 7573746f6d65 
000006d0 72506172744e 
000006d6 756d62657233 
000006dc 313500 
000006df 36             3564 	.byte	54
000006e0 0a             3565 	.byte	10
000006e1 02             3566 	.byte	2
000006e2 00000000*      3567 	.word	.LDW_4d3a1e8
000006e6 0223           3568 	.byte	2,35
000006e8 37             3569 	.byte	55
000006e9 01             3570 	.byte	1
                        3571 
                        3572 .LDW_4d39a10:
000006ea 23             3573 	.byte	35

                                                                      Page 65
                                                              C:\Users\nhuliyap\AppData\Local\Temp\gh_000048k1.s
000006eb 4155385f496e   3574 	.strz	"AU8_Index9_SupplierNumber"
000006f1 646578395f53 
000006f7 7570706c6965 
000006fd 724e756d6265 
00000703 7200 
00000705 37             3575 	.byte	55
00000706 0a             3576 	.byte	10
00000707 02             3577 	.byte	2
00000708 00000000*      3578 	.word	.LDW_4d3a270
0000070c 0223           3579 	.byte	2,35
0000070e 41             3580 	.byte	65
0000070f 01             3581 	.byte	1
                        3582 
                        3583 .LDW_4d39c98:
00000710 23             3584 	.byte	35
00000711 4155385f496e   3585 	.strz	"AU8_Index10_ProductionDay"
00000717 64657831305f 
0000071d 50726f647563 
00000723 74696f6e4461 
00000729 7900 
0000072b 38             3586 	.byte	56
0000072c 0a             3587 	.byte	10
0000072d 02             3588 	.byte	2
0000072e 00000000*      3589 	.word	.LDW_4d3a2f8
00000732 0223           3590 	.byte	2,35
00000734 43             3591 	.byte	67
00000735 01             3592 	.byte	1
                        3593 
                        3594 .LDW_4d39e90:
00000736 23             3595 	.byte	35
00000737 4155385f496e   3596 	.strz	"AU8_Index11_CustomerECUSerialNumber"
0000073d 64657831315f 
00000743 437573746f6d 
00000749 657245435553 
0000074f 657269616c4e 
00000755 756d62657200 
0000075b 39             3597 	.byte	57
0000075c 0a             3598 	.byte	10
0000075d 02             3599 	.byte	2
0000075e 00000000*      3600 	.word	.LDW_4d3ae48
00000762 0223           3601 	.byte	2,35
00000764 49             3602 	.byte	73
00000765 01             3603 	.byte	1
                        3604 
                        3605 .LDW_4d39ce0:
00000766 23             3606 	.byte	35
00000767 4155385f496e   3607 	.strz	"AU8_Index12_RivianApplSwFpTesterSerialNo"
0000076d 64657831325f 
00000773 52697669616e 
00000779 4170706c5377 
0000077f 467054657374 
00000785 657253657269 
0000078b 616c4e6f00 
00000790 3a             3608 	.byte	58
00000791 0a             3609 	.byte	10
00000792 02             3610 	.byte	2
00000793 00000000*      3611 	.word	.LDW_4d3a760
00000797 0223           3612 	.byte	2,35
00000799 52             3613 	.byte	82
0000079a 01             3614 	.byte	1
                        3615 

                                                                      Page 66
                                                              C:\Users\nhuliyap\AppData\Local\Temp\gh_000048k1.s
                        3616 .LDW_4d39d70:
0000079b 23             3617 	.byte	35
0000079c 4155385f496e   3618 	.strz	"AU8_Index13_RivianApplSwFpProgrammingDate"
000007a2 64657831335f 
000007a8 52697669616e 
000007ae 4170706c5377 
000007b4 467050726f67 
000007ba 72616d6d696e 
000007c0 674461746500 
000007c6 3b             3619 	.byte	59
000007c7 0a             3620 	.byte	10
000007c8 02             3621 	.byte	2
000007c9 00000000*      3622 	.word	.LDW_4d3a650
000007cd 0223           3623 	.byte	2,35
000007cf 66             3624 	.byte	102
000007d0 01             3625 	.byte	1
                        3626 
                        3627 .LDW_4d39f20:
000007d1 23             3628 	.byte	35
000007d2 4155385f496e   3629 	.strz	"AU8_Index14_RivianBlFpTesterSerialNo"
000007d8 64657831345f 
000007de 52697669616e 
000007e4 426c46705465 
000007ea 737465725365 
000007f0 7269616c4e6f 
000007f6 00 
000007f7 3c             3630 	.byte	60
000007f8 0a             3631 	.byte	10
000007f9 02             3632 	.byte	2
000007fa 00000000*      3633 	.word	.LDW_4d3b068
000007fe 0223           3634 	.byte	2,35
00000800 69             3635 	.byte	105
00000801 01             3636 	.byte	1
                        3637 
                        3638 .LDW_4d39b30:
00000802 23             3639 	.byte	35
00000803 4155385f496e   3640 	.strz	"AU8_Index15_RivianBlFpProgrammingDate"
00000809 64657831355f 
0000080f 52697669616e 
00000815 426c46705072 
0000081b 6f6772616d6d 
00000821 696e67446174 
00000827 6500 
00000829 3d             3641 	.byte	61
0000082a 0a             3642 	.byte	10
0000082b 02             3643 	.byte	2
0000082c 00000000*      3644 	.word	.LDW_4d3a5c8
00000830 0223           3645 	.byte	2,35
00000832 7d             3646 	.byte	125
00000833 01             3647 	.byte	1
                        3648 
                        3649 .LDW_4d39f68:
00000834 23             3650 	.byte	35
00000835 4155385f496e   3651 	.strz	"AU8_Index16_RivianVIN"
0000083b 64657831365f 
00000841 52697669616e 
00000847 56494e00 
0000084b 3e             3652 	.byte	62
0000084c 0a             3653 	.byte	10
0000084d 02             3654 	.byte	2
0000084e 00000000*      3655 	.word	.LDW_4d3a6d8

                                                                      Page 67
                                                              C:\Users\nhuliyap\AppData\Local\Temp\gh_000048k1.s
00000852 0323           3656 	.byte	3,35
00000854 8001           3657 	.byte	128,1
00000856 01             3658 	.byte	1
                        3659 
                        3660 .LDW_4d39b78:
00000857 23             3661 	.byte	35
00000858 4155385f496e   3662 	.strz	"AU8_Index17_RivianManufSuppMode"
0000085e 64657831375f 
00000864 52697669616e 
0000086a 4d616e756653 
00000870 7570704d6f64 
00000876 6500 
00000878 3f             3663 	.byte	63
00000879 0a             3664 	.byte	10
0000087a 02             3665 	.byte	2
0000087b 00000000*      3666 	.word	.LDW_4d3a7e8
0000087f 0323           3667 	.byte	3,35
00000881 9101           3668 	.byte	145,1
00000883 01             3669 	.byte	1
                        3670 
                        3671 .LDW_4d39a58:
00000884 23             3672 	.byte	35
00000885 4155385f496e   3673 	.strz	"AU8_Index18_RivianGenealogyVersion"
0000088b 64657831385f 
00000891 52697669616e 
00000897 47656e65616c 
0000089d 6f6779566572 
000008a3 73696f6e00 
000008a8 40             3674 	.byte	64
000008a9 0a             3675 	.byte	10
000008aa 02             3676 	.byte	2
000008ab 00000000*      3677 	.word	.LDW_4d3aa90
000008af 0323           3678 	.byte	3,35
000008b1 9201           3679 	.byte	146,1
000008b3 01             3680 	.byte	1
                        3681 
                        3682 .LDW_4d398f0:
000008b4 23             3683 	.byte	35
000008b5 4155385f496e   3684 	.strz	"AU8_Index19_RivianComponentId"
000008bb 64657831395f 
000008c1 52697669616e 
000008c7 436f6d706f6e 
000008cd 656e74496400 
000008d3 41             3685 	.byte	65
000008d4 0a             3686 	.byte	10
000008d5 02             3687 	.byte	2
000008d6 00000000*      3688 	.word	.LDW_4d3aed0
000008da 0323           3689 	.byte	3,35
000008dc 9301           3690 	.byte	147,1
000008de 01             3691 	.byte	1
                        3692 
                        3693 .LDW_4d399c8:
000008df 23             3694 	.byte	35
000008e0 4155385f496e   3695 	.strz	"AU8_Index20_RivianPcbaId"
000008e6 64657832305f 
000008ec 52697669616e 
000008f2 506362614964 
000008f8 00 
000008f9 42             3696 	.byte	66
000008fa 0a             3697 	.byte	10
000008fb 02             3698 	.byte	2

                                                                      Page 68
                                                              C:\Users\nhuliyap\AppData\Local\Temp\gh_000048k1.s
000008fc 00000000*      3699 	.word	.LDW_4d3a4b8
00000900 0323           3700 	.byte	3,35
00000902 9501           3701 	.byte	149,1
00000904 01             3702 	.byte	1
                        3703 
                        3704 .LDW_4d39aa0:
00000905 23             3705 	.byte	35
00000906 4155385f496e   3706 	.strz	"AU8_Index21_RivianAuxId"
0000090c 64657832315f 
00000912 52697669616e 
00000918 417578496400 
0000091e 43             3707 	.byte	67
0000091f 0a             3708 	.byte	10
00000920 02             3709 	.byte	2
00000921 00000000*      3710 	.word	.LDW_4d3b178
00000925 0323           3711 	.byte	3,35
00000927 9601           3712 	.byte	150,1
00000929 01             3713 	.byte	1
                        3714 
                        3715 .LDW_4d392c0:
0000092a 23             3716 	.byte	35
0000092b 4155385f496e   3717 	.strz	"AU8_Index22_RivianModeId"
00000931 64657832325f 
00000937 52697669616e 
0000093d 4d6f64654964 
00000943 00 
00000944 44             3718 	.byte	68
00000945 0a             3719 	.byte	10
00000946 02             3720 	.byte	2
00000947 00000000*      3721 	.word	.LDW_4d3acb0
0000094b 0323           3722 	.byte	3,35
0000094d 9701           3723 	.byte	151,1
0000094f 01             3724 	.byte	1
                        3725 
                        3726 .LDW_4d39110:
00000950 23             3727 	.byte	35
00000951 4155385f496e   3728 	.strz	"AU8_Index23_RivianBoardPartNumber"
00000957 64657832335f 
0000095d 52697669616e 
00000963 426f61726450 
00000969 6172744e756d 
0000096f 62657200 
00000973 45             3729 	.byte	69
00000974 0a             3730 	.byte	10
00000975 02             3731 	.byte	2
00000976 00000000*      3732 	.word	.LDW_4d3b0f0
0000097a 0323           3733 	.byte	3,35
0000097c 9901           3734 	.byte	153,1
0000097e 01             3735 	.byte	1
                        3736 
                        3737 .LDW_4d395d8:
0000097f 23             3738 	.byte	35
00000980 4155385f496e   3739 	.strz	"AU8_Index24_RivianBoardSerialNumber"
00000986 64657832345f 
0000098c 52697669616e 
00000992 426f61726453 
00000998 657269616c4e 
0000099e 756d62657200 
000009a4 46             3740 	.byte	70
000009a5 0a             3741 	.byte	10
000009a6 02             3742 	.byte	2

                                                                      Page 69
                                                              C:\Users\nhuliyap\AppData\Local\Temp\gh_000048k1.s
000009a7 00000000*      3743 	.word	.LDW_4d3a3a8
000009ab 0323           3744 	.byte	3,35
000009ad bc01           3745 	.byte	188,1
000009af 01             3746 	.byte	1
                        3747 
                        3748 .LDW_4d39428:
000009b0 23             3749 	.byte	35
000009b1 4155385f496e   3750 	.strz	"AU8_Index25_RivianEcuPartNumber"
000009b7 64657832355f 
000009bd 52697669616e 
000009c3 456375506172 
000009c9 744e756d6265 
000009cf 7200 
000009d1 47             3751 	.byte	71
000009d2 0a             3752 	.byte	10
000009d3 02             3753 	.byte	2
000009d4 00000000*      3754 	.word	.LDW_4d3a870
000009d8 0323           3755 	.byte	3,35
000009da ce01           3756 	.byte	206,1
000009dc 01             3757 	.byte	1
                        3758 
                        3759 .LDW_4d391e8:
000009dd 23             3760 	.byte	35
000009de 4155385f496e   3761 	.strz	"AU8_Index26_RivianEcuSerialNumber"
000009e4 64657832365f 
000009ea 52697669616e 
000009f0 456375536572 
000009f6 69616c4e756d 
000009fc 62657200 
00000a00 48             3762 	.byte	72
00000a01 0a             3763 	.byte	10
00000a02 02             3764 	.byte	2
00000a03 00000000*      3765 	.word	.LDW_4d3aba0
00000a07 0323           3766 	.byte	3,35
00000a09 f101           3767 	.byte	241,1
00000a0b 01             3768 	.byte	1
                        3769 
                        3770 .LDW_4d39308:
00000a0c 23             3771 	.byte	35
00000a0d 4155385f496e   3772 	.strz	"AU8_Index27_RivianApplicationSignature"
00000a13 64657832375f 
00000a19 52697669616e 
00000a1f 4170706c6963 
00000a25 6174696f6e53 
00000a2b 69676e617475 
00000a31 726500 
00000a34 49             3773 	.byte	73
00000a35 0a             3774 	.byte	10
00000a36 02             3775 	.byte	2
00000a37 00000000*      3776 	.word	.LDW_4d3a540
00000a3b 0323           3777 	.byte	3,35
00000a3d 8302           3778 	.byte	131,2
00000a3f 01             3779 	.byte	1
                        3780 
                        3781 .LDW_4d39860:
00000a40 23             3782 	.byte	35
00000a41 4155385f496e   3783 	.strz	"AU8_Index28_RivianGenealogyCrc32"
00000a47 64657832385f 
00000a4d 52697669616e 
00000a53 47656e65616c 
00000a59 6f6779437263 

                                                                      Page 70
                                                              C:\Users\nhuliyap\AppData\Local\Temp\gh_000048k1.s
00000a5f 333200 
00000a62 4a             3784 	.byte	74
00000a63 0a             3785 	.byte	10
00000a64 02             3786 	.byte	2
00000a65 00000000*      3787 	.word	.LDW_4d3a8f8
00000a69 0323           3788 	.byte	3,35
00000a6b 9302           3789 	.byte	147,2
00000a6d 01             3790 	.byte	1
                        3791 
                        3792 .LDW_4d39590:
00000a6e 23             3793 	.byte	35
00000a6f 4155385f496e   3794 	.strz	"AU8_Index29_BHSENSEolCheckerByte"
00000a75 64657832395f 
00000a7b 424853454e53 
00000a81 456f6c436865 
00000a87 636b65724279 
00000a8d 746500 
00000a90 4b             3795 	.byte	75
00000a91 0a             3796 	.byte	10
00000a92 02             3797 	.byte	2
00000a93 00000000*      3798 	.word	.LDW_4d3a980
00000a97 0323           3799 	.byte	3,35
00000a99 9702           3800 	.byte	151,2
00000a9b 01             3801 	.byte	1
                        3802 
                        3803 .LDW_4d390c8:
00000a9c 23             3804 	.byte	35
00000a9d 4155385f496e   3805 	.strz	"AU8_Index30_Reserved"
00000aa3 64657833305f 
00000aa9 526573657276 
00000aaf 656400 
00000ab2 4c             3806 	.byte	76
00000ab3 0a             3807 	.byte	10
00000ab4 02             3808 	.byte	2
00000ab5 00000000*      3809 	.word	.LDW_4d3b200
00000ab9 0323           3810 	.byte	3,35
00000abb 9802           3811 	.byte	152,2
00000abd 01             3812 	.byte	1
                        3813 
                        3814 .LDW_4d39668:
00000abe 23             3815 	.byte	35
00000abf 4155385f496e   3816 	.strz	"AU8_Index31_ApplicationChecksum"
00000ac5 64657833315f 
00000acb 4170706c6963 
00000ad1 6174696f6e43 
00000ad7 6865636b7375 
00000add 6d00 
00000adf 4d             3817 	.byte	77
00000ae0 0a             3818 	.byte	10
00000ae1 02             3819 	.byte	2
00000ae2 00000000*      3820 	.word	.LDW_4d3aa08
00000ae6 0323           3821 	.byte	3,35
00000ae8 c002           3822 	.byte	192,2
00000aea 01             3823 	.byte	1
                        3824 
                        3825 .LDW_4d396b0:
00000aeb 23             3826 	.byte	35
00000aec 4155385f496e   3827 	.strz	"AU8_Index32_Reserved"
00000af2 64657833325f 
00000af8 526573657276 
00000afe 656400 

                                                                      Page 71
                                                              C:\Users\nhuliyap\AppData\Local\Temp\gh_000048k1.s
00000b01 4e             3828 	.byte	78
00000b02 0a             3829 	.byte	10
00000b03 02             3830 	.byte	2
00000b04 00000000*      3831 	.word	.LDW_4d3af58
00000b08 0323           3832 	.byte	3,35
00000b0a c202           3833 	.byte	194,2
00000b0c 01             3834 	.byte	1
                        3835 
                        3836 .LDW_4d398a8:
00000b0d 23             3837 	.byte	35
00000b0e 4155385f496e   3838 	.strz	"AU8_Index33_iTACSerialNumber"
00000b14 64657833335f 
00000b1a 695441435365 
00000b20 7269616c4e75 
00000b26 6d62657200 
00000b2b 4f             3839 	.byte	79
00000b2c 0a             3840 	.byte	10
00000b2d 02             3841 	.byte	2
00000b2e 00000000*      3842 	.word	.LDW_4d3ab18
00000b32 0323           3843 	.byte	3,35
00000b34 c00f           3844 	.byte	192,15
00000b36 01             3845 	.byte	1
                        3846 
                        3847 .LDW_4d393e0:
00000b37 23             3848 	.byte	35
00000b38 4155385f496e   3849 	.strz	"AU8_Index34_Reserved"
00000b3e 64657833345f 
00000b44 526573657276 
00000b4a 656400 
00000b4d 50             3850 	.byte	80
00000b4e 0a             3851 	.byte	10
00000b4f 02             3852 	.byte	2
00000b50 00000000*      3853 	.word	.LDW_4d3ac28
00000b54 0323           3854 	.byte	3,35
00000b56 d00f           3855 	.byte	208,15
00000b58 01             3856 	.byte	1
                        3857 
00000b59 00             3858 	.byte	0
                        3859 
                        3860 .LDW_4b90760:
00000b5a 43             3861 	.byte	67
00000b5b 2c             3862 	.byte	44
00000b5c 0e             3863 	.byte	14
00000b5d 02             3864 	.byte	2
00000b5e 8010           3865 	.byte	128,16
00000b60 01             3866 	.byte	1
                        3867 
                        3868 	.section	.debug_abbrev
00000099 43             3869 	.byte	67
0000009a 17             3870 	.byte	23
0000009b 01             3871 	.byte	1
0000009c 3b0f           3872 	.byte	59,15
0000009e 390f           3873 	.byte	57,15
000000a0 3a0f           3874 	.byte	58,15
000000a2 0b0f           3875 	.byte	11,15
000000a4 320b           3876 	.byte	50,11
000000a6 0000           3877 	.byte	0,0
                        3878 
                        3879 	.section	.debug_info
                        3880 .LDW_4d39740:
00000b61 23             3881 	.byte	35

                                                                      Page 72
                                                              C:\Users\nhuliyap\AppData\Local\Temp\gh_000048k1.s
00000b62 4155385f5072   3882 	.strz	"AU8_Production_Data_Array"
00000b68 6f6475637469 
00000b6e 6f6e5f446174 
00000b74 615f41727261 
00000b7a 7900 
00000b7c 2d             3883 	.byte	45
00000b7d 09             3884 	.byte	9
00000b7e 02             3885 	.byte	2
00000b7f 00000000*      3886 	.word	.LDW_4d3ad38
00000b83 0223           3887 	.byte	2,35
00000b85 00             3888 	.byte	0
00000b86 01             3889 	.byte	1
                        3890 
                        3891 .LDW_4d39620:
00000b87 23             3892 	.byte	35
00000b88 537472756374   3893 	.strz	"Struct_Split_Production_Data"
00000b8e 5f53706c6974 
00000b94 5f50726f6475 
00000b9a 6374696f6e5f 
00000ba0 4461746100 
00000ba5 51             3894 	.byte	81
00000ba6 04             3895 	.byte	4
00000ba7 02             3896 	.byte	2
00000ba8 00000000*      3897 	.word	.LDW_4b90a78
00000bac 0223           3898 	.byte	2,35
00000bae 00             3899 	.byte	0
00000baf 01             3900 	.byte	1
                        3901 
00000bb0 00             3902 	.byte	0
                        3903 
                        3904 .LDW_4b90868:
00000bb1 28             3905 	.byte	40
00000bb2 44636d5f5f55   3906 	.strz	"Dcm__Union_ProductionData"
00000bb8 6e696f6e5f50 
00000bbe 726f64756374 
00000bc4 696f6e446174 
00000bca 6100 
00000bcc 52             3907 	.byte	82
00000bcd 02             3908 	.byte	2
00000bce 02             3909 	.byte	2
00000bcf 00000000*      3910 	.word	.LDW_4b90760
                        3911 
                        3912 .LDW_4c2ce18:
00000bd3 2e             3913 	.byte	46
00000bd4 00             3914 	.byte	0
00000bd5 54             3915 	.byte	84
00000bd6 0d             3916 	.byte	13
00000bd7 02             3917 	.byte	2
00000bd8 01             3918 	.byte	1
00000bd9 01             3919 	.byte	1
                        3920 
                        3921 	.section	.debug_abbrev
000000a8 2e             3922 	.byte	46
000000a9 04             3923 	.byte	4
000000aa 01             3924 	.byte	1
000000ab 0308           3925 	.byte	3,8
000000ad 3b0f           3926 	.byte	59,15
000000af 390f           3927 	.byte	57,15
000000b1 3a0f           3928 	.byte	58,15
000000b3 0b0f           3929 	.byte	11,15
000000b5 320b           3930 	.byte	50,11

                                                                      Page 73
                                                              C:\Users\nhuliyap\AppData\Local\Temp\gh_000048k1.s
000000b7 0000           3931 	.byte	0,0
                        3932 
                        3933 	.section	.debug_info
                        3934 .LDW_4c2ce68:
00000bda 2d             3935 	.byte	45
00000bdb 44434d5f5f45   3936 	.strz	"DCM__E_RESERVED_1"
00000be1 5f5245534552 
00000be7 5645445f3100 
00000bed 55             3937 	.byte	85
00000bee 03             3938 	.byte	3
00000bef 02             3939 	.byte	2
00000bf0 00             3940 	.byte	0
                        3941 
                        3942 	.section	.debug_abbrev
000000b9 2d             3943 	.byte	45
000000ba 28             3944 	.byte	40
000000bb 00             3945 	.byte	0
000000bc 0308           3946 	.byte	3,8
000000be 3b0f           3947 	.byte	59,15
000000c0 390f           3948 	.byte	57,15
000000c2 3a0f           3949 	.byte	58,15
000000c4 1c0d           3950 	.byte	28,13
000000c6 0000           3951 	.byte	0,0
                        3952 
                        3953 	.section	.debug_info
                        3954 .LDW_409be70:
00000bf1 2d             3955 	.byte	45
00000bf2 44434d5f5f45   3956 	.strz	"DCM__E_CUSTOMER_HW_PART_NUMBER_433"
00000bf8 5f435553544f 
00000bfe 4d45525f4857 
00000c04 5f504152545f 
00000c0a 4e554d424552 
00000c10 5f34333300 
00000c15 56             3957 	.byte	86
00000c16 07             3958 	.byte	7
00000c17 02             3959 	.byte	2
00000c18 01             3960 	.byte	1
                        3961 
                        3962 .LDW_409beb0:
00000c19 2d             3963 	.byte	45
00000c1a 44434d5f5f45   3964 	.strz	"DCM__E_CUSTOMER_HW_PART_NUMBER_315"
00000c20 5f435553544f 
00000c26 4d45525f4857 
00000c2c 5f504152545f 
00000c32 4e554d424552 
00000c38 5f33313500 
00000c3d 57             3965 	.byte	87
00000c3e 07             3966 	.byte	7
00000c3f 02             3967 	.byte	2
00000c40 02             3968 	.byte	2
                        3969 
                        3970 .LDW_409bef0:
00000c41 2d             3971 	.byte	45
00000c42 44434d5f5f45   3972 	.strz	"DCM__E_HUF_SPECIFIC_HW_NUMBER_433"
00000c48 5f4855465f53 
00000c4e 504543494649 
00000c54 435f48575f4e 
00000c5a 554d4245525f 
00000c60 34333300 
00000c64 58             3973 	.byte	88
00000c65 07             3974 	.byte	7

                                                                      Page 74
                                                              C:\Users\nhuliyap\AppData\Local\Temp\gh_000048k1.s
00000c66 02             3975 	.byte	2
00000c67 03             3976 	.byte	3
                        3977 
                        3978 .LDW_409bf30:
00000c68 2d             3979 	.byte	45
00000c69 44434d5f5f45   3980 	.strz	"DCM__E_HUF_SPECIFIC_HW_NUMBER_315"
00000c6f 5f4855465f53 
00000c75 504543494649 
00000c7b 435f48575f4e 
00000c81 554d4245525f 
00000c87 33313500 
00000c8b 59             3981 	.byte	89
00000c8c 07             3982 	.byte	7
00000c8d 02             3983 	.byte	2
00000c8e 04             3984 	.byte	4
                        3985 
                        3986 .LDW_409bf70:
00000c8f 2d             3987 	.byte	45
00000c90 44434d5f5f45   3988 	.strz	"DCM__E_HARDWARE_VERSION_INFO"
00000c96 5f4841524457 
00000c9c 4152455f5645 
00000ca2 5253494f4e5f 
00000ca8 494e464f00 
00000cad 5a             3989 	.byte	90
00000cae 07             3990 	.byte	7
00000caf 02             3991 	.byte	2
00000cb0 05             3992 	.byte	5
                        3993 
                        3994 .LDW_409bfb0:
00000cb1 2d             3995 	.byte	45
00000cb2 44434d5f5f45   3996 	.strz	"DCM__E_CUSTOMER_PART_NUMBER_433"
00000cb8 5f435553544f 
00000cbe 4d45525f5041 
00000cc4 52545f4e554d 
00000cca 4245525f3433 
00000cd0 3300 
00000cd2 5b             3997 	.byte	91
00000cd3 07             3998 	.byte	7
00000cd4 02             3999 	.byte	2
00000cd5 06             4000 	.byte	6
                        4001 
                        4002 .LDW_409bff0:
00000cd6 2d             4003 	.byte	45
00000cd7 44434d5f5f45   4004 	.strz	"DCM__E_CUSTOMER_PART_NUMBER_315"
00000cdd 5f435553544f 
00000ce3 4d45525f5041 
00000ce9 52545f4e554d 
00000cef 4245525f3331 
00000cf5 3500 
00000cf7 5c             4005 	.byte	92
00000cf8 07             4006 	.byte	7
00000cf9 02             4007 	.byte	2
00000cfa 07             4008 	.byte	7
                        4009 
                        4010 .LDW_409c030:
00000cfb 2d             4011 	.byte	45
00000cfc 44434d5f5f45   4012 	.strz	"DCM__E_SUPPLIER_NUMBER"
00000d02 5f535550504c 
00000d08 4945525f4e55 
00000d0e 4d42455200 
00000d13 5d             4013 	.byte	93

                                                                      Page 75
                                                              C:\Users\nhuliyap\AppData\Local\Temp\gh_000048k1.s
00000d14 07             4014 	.byte	7
00000d15 02             4015 	.byte	2
00000d16 08             4016 	.byte	8
                        4017 
                        4018 .LDW_40c94e0:
00000d17 2d             4019 	.byte	45
00000d18 44434d5f5f45   4020 	.strz	"DCM__E_PRODUCTION_DAY"
00000d1e 5f50524f4455 
00000d24 4354494f4e5f 
00000d2a 44415900 
00000d2e 5e             4021 	.byte	94
00000d2f 07             4022 	.byte	7
00000d30 02             4023 	.byte	2
00000d31 09             4024 	.byte	9
                        4025 
                        4026 .LDW_40c9a60:
00000d32 2d             4027 	.byte	45
00000d33 44434d5f5f45   4028 	.strz	"DCM__E_CUSTOMER_ECU_SERIAL_NUMBER"
00000d39 5f435553544f 
00000d3f 4d45525f4543 
00000d45 555f53455249 
00000d4b 414c5f4e554d 
00000d51 42455200 
00000d55 5f             4029 	.byte	95
00000d56 07             4030 	.byte	7
00000d57 02             4031 	.byte	2
00000d58 0a             4032 	.byte	10
                        4033 
                        4034 .LDW_40c97e0:
00000d59 2d             4035 	.byte	45
00000d5a 44434d5f5f45   4036 	.strz	"DCM__E_RIVIAN_APPL_SWFP_TESTER_SERIAL_NO"
00000d60 5f5249564941 
00000d66 4e5f4150504c 
00000d6c 5f535746505f 
00000d72 544553544552 
00000d78 5f5345524941 
00000d7e 4c5f4e4f00 
00000d83 60             4037 	.byte	96
00000d84 07             4038 	.byte	7
00000d85 02             4039 	.byte	2
00000d86 0b             4040 	.byte	11
                        4041 
                        4042 .LDW_40c93e0:
00000d87 2d             4043 	.byte	45
00000d88 44434d5f5f45   4044 	.strz	"DCM__E_RIVIAN_APPL_SWFP_PROGRAMMING_DATE"
00000d8e 5f5249564941 
00000d94 4e5f4150504c 
00000d9a 5f535746505f 
00000da0 50524f475241 
00000da6 4d4d494e475f 
00000dac 4441544500 
00000db1 61             4045 	.byte	97
00000db2 07             4046 	.byte	7
00000db3 02             4047 	.byte	2
00000db4 0c             4048 	.byte	12
                        4049 
                        4050 .LDW_40c9b20:
00000db5 2d             4051 	.byte	45
00000db6 44434d5f5f45   4052 	.strz	"DCM__E_RIVIAN_BL_SWFP_TESTER_SERIAL_NO"
00000dbc 5f5249564941 
00000dc2 4e5f424c5f53 

                                                                      Page 76
                                                              C:\Users\nhuliyap\AppData\Local\Temp\gh_000048k1.s
00000dc8 5746505f5445 
00000dce 535445525f53 
00000dd4 455249414c5f 
00000dda 4e4f00 
00000ddd 62             4053 	.byte	98
00000dde 07             4054 	.byte	7
00000ddf 02             4055 	.byte	2
00000de0 0d             4056 	.byte	13
                        4057 
                        4058 .LDW_40c9560:
00000de1 2d             4059 	.byte	45
00000de2 44434d5f5f45   4060 	.strz	"DCM__E_RIVIAN_BL_SWFP_PROGRAMMING_DATE"
00000de8 5f5249564941 
00000dee 4e5f424c5f53 
00000df4 5746505f5052 
00000dfa 4f4752414d4d 
00000e00 494e475f4441 
00000e06 544500 
00000e09 63             4061 	.byte	99
00000e0a 07             4062 	.byte	7
00000e0b 02             4063 	.byte	2
00000e0c 0e             4064 	.byte	14
                        4065 
                        4066 .LDW_40c9820:
00000e0d 2d             4067 	.byte	45
00000e0e 44434d5f5f45   4068 	.strz	"DCM__E_RIVIAN_VIN"
00000e14 5f5249564941 
00000e1a 4e5f56494e00 
00000e20 64             4069 	.byte	100
00000e21 07             4070 	.byte	7
00000e22 02             4071 	.byte	2
00000e23 0f             4072 	.byte	15
                        4073 
                        4074 .LDW_40c98e0:
00000e24 2d             4075 	.byte	45
00000e25 44434d5f5f45   4076 	.strz	"DCM__E_RIVIAN_MANUF_SUPP_MODE"
00000e2b 5f5249564941 
00000e31 4e5f4d414e55 
00000e37 465f53555050 
00000e3d 5f4d4f444500 
00000e43 65             4077 	.byte	101
00000e44 07             4078 	.byte	7
00000e45 02             4079 	.byte	2
00000e46 10             4080 	.byte	16
                        4081 
                        4082 .LDW_40c9b60:
00000e47 2d             4083 	.byte	45
00000e48 44434d5f5f45   4084 	.strz	"DCM__E_RIVIAN_GENEALOGY_VERSION"
00000e4e 5f5249564941 
00000e54 4e5f47454e45 
00000e5a 414c4f47595f 
00000e60 56455253494f 
00000e66 4e00 
00000e68 66             4085 	.byte	102
00000e69 07             4086 	.byte	7
00000e6a 02             4087 	.byte	2
00000e6b 11             4088 	.byte	17
                        4089 
                        4090 .LDW_40c9aa0:
00000e6c 2d             4091 	.byte	45
00000e6d 44434d5f5f45   4092 	.strz	"DCM__E_RIVIAN_COMPONENT_ID"

                                                                      Page 77
                                                              C:\Users\nhuliyap\AppData\Local\Temp\gh_000048k1.s
00000e73 5f5249564941 
00000e79 4e5f434f4d50 
00000e7f 4f4e454e545f 
00000e85 494400 
00000e88 67             4093 	.byte	103
00000e89 07             4094 	.byte	7
00000e8a 02             4095 	.byte	2
00000e8b 12             4096 	.byte	18
                        4097 
                        4098 .LDW_40c9ae0:
00000e8c 2d             4099 	.byte	45
00000e8d 44434d5f5f45   4100 	.strz	"DCM__E_RIVIAN_PCBA_ID"
00000e93 5f5249564941 
00000e99 4e5f50434241 
00000e9f 5f494400 
00000ea3 68             4101 	.byte	104
00000ea4 07             4102 	.byte	7
00000ea5 02             4103 	.byte	2
00000ea6 13             4104 	.byte	19
                        4105 
                        4106 .LDW_40c9860:
00000ea7 2d             4107 	.byte	45
00000ea8 44434d5f5f45   4108 	.strz	"DCM__E_RIVIAN_AUX_ID"
00000eae 5f5249564941 
00000eb4 4e5f4155585f 
00000eba 494400 
00000ebd 69             4109 	.byte	105
00000ebe 07             4110 	.byte	7
00000ebf 02             4111 	.byte	2
00000ec0 14             4112 	.byte	20
                        4113 
                        4114 .LDW_40c9420:
00000ec1 2d             4115 	.byte	45
00000ec2 44434d5f5f45   4116 	.strz	"DCM__E_RIVIAN_MODE_ID"
00000ec8 5f5249564941 
00000ece 4e5f4d4f4445 
00000ed4 5f494400 
00000ed8 6a             4117 	.byte	106
00000ed9 07             4118 	.byte	7
00000eda 02             4119 	.byte	2
00000edb 15             4120 	.byte	21
                        4121 
                        4122 .LDW_40c9960:
00000edc 2d             4123 	.byte	45
00000edd 44434d5f5f45   4124 	.strz	"DCM__E_RIVIAN_BOARD_PART_NUMBER"
00000ee3 5f5249564941 
00000ee9 4e5f424f4152 
00000eef 445f50415254 
00000ef5 5f4e554d4245 
00000efb 5200 
00000efd 6b             4125 	.byte	107
00000efe 07             4126 	.byte	7
00000eff 02             4127 	.byte	2
00000f00 16             4128 	.byte	22
                        4129 
                        4130 .LDW_40c98a0:
00000f01 2d             4131 	.byte	45
00000f02 44434d5f5f45   4132 	.strz	"DCM__E_RIVIAN_BOARD_SERIAL_NUMBER"
00000f08 5f5249564941 
00000f0e 4e5f424f4152 
00000f14 445f53455249 

                                                                      Page 78
                                                              C:\Users\nhuliyap\AppData\Local\Temp\gh_000048k1.s
00000f1a 414c5f4e554d 
00000f20 42455200 
00000f24 6c             4133 	.byte	108
00000f25 07             4134 	.byte	7
00000f26 02             4135 	.byte	2
00000f27 17             4136 	.byte	23
                        4137 
                        4138 .LDW_40c99a0:
00000f28 2d             4139 	.byte	45
00000f29 44434d5f5f45   4140 	.strz	"DCM__E_RIVIAN_ECU_PART_NUMBER"
00000f2f 5f5249564941 
00000f35 4e5f4543555f 
00000f3b 504152545f4e 
00000f41 554d42455200 
00000f47 6d             4141 	.byte	109
00000f48 07             4142 	.byte	7
00000f49 02             4143 	.byte	2
00000f4a 18             4144 	.byte	24
                        4145 
                        4146 .LDW_40c99e0:
00000f4b 2d             4147 	.byte	45
00000f4c 44434d5f5f45   4148 	.strz	"DCM__E_RIVIAN_ECU_SERIAL_NUMBER"
00000f52 5f5249564941 
00000f58 4e5f4543555f 
00000f5e 53455249414c 
00000f64 5f4e554d4245 
00000f6a 5200 
00000f6c 6e             4149 	.byte	110
00000f6d 07             4150 	.byte	7
00000f6e 02             4151 	.byte	2
00000f6f 19             4152 	.byte	25
                        4153 
                        4154 .LDW_40c9a20:
00000f70 2d             4155 	.byte	45
00000f71 44434d5f5f45   4156 	.strz	"DCM__E_RIVIAN_APPLICATION_SIGNATURE"
00000f77 5f5249564941 
00000f7d 4e5f4150504c 
00000f83 49434154494f 
00000f89 4e5f5349474e 
00000f8f 415455524500 
00000f95 6f             4157 	.byte	111
00000f96 07             4158 	.byte	7
00000f97 02             4159 	.byte	2
00000f98 1a             4160 	.byte	26
                        4161 
                        4162 .LDW_40c9460:
00000f99 2d             4163 	.byte	45
00000f9a 44434d5f5f45   4164 	.strz	"DCM__E_RIVIAN_GENEALOGY_CRC32"
00000fa0 5f5249564941 
00000fa6 4e5f47454e45 
00000fac 414c4f47595f 
00000fb2 435243333200 
00000fb8 70             4165 	.byte	112
00000fb9 07             4166 	.byte	7
00000fba 02             4167 	.byte	2
00000fbb 1b             4168 	.byte	27
                        4169 
                        4170 .LDW_40c94a0:
00000fbc 2d             4171 	.byte	45
00000fbd 44434d5f5f45   4172 	.strz	"DCM__E_BHSENS_EOL_CHECKER_BYTE"
00000fc3 5f424853454e 

                                                                      Page 79
                                                              C:\Users\nhuliyap\AppData\Local\Temp\gh_000048k1.s
00000fc9 535f454f4c5f 
00000fcf 434845434b45 
00000fd5 525f42595445 
00000fdb 00 
00000fdc 71             4173 	.byte	113
00000fdd 07             4174 	.byte	7
00000fde 02             4175 	.byte	2
00000fdf 1c             4176 	.byte	28
                        4177 
                        4178 .LDW_40c9520:
00000fe0 2d             4179 	.byte	45
00000fe1 44434d5f5f45   4180 	.strz	"DCM__E_RESERVED_2"
00000fe7 5f5245534552 
00000fed 5645445f3200 
00000ff3 72             4181 	.byte	114
00000ff4 07             4182 	.byte	7
00000ff5 02             4183 	.byte	2
00000ff6 1d             4184 	.byte	29
                        4185 
                        4186 .LDW_40c9920:
00000ff7 2d             4187 	.byte	45
00000ff8 44434d5f5f45   4188 	.strz	"DCM__E_APPLICATION_CHECKSUM"
00000ffe 5f4150504c49 
00001004 434154494f4e 
0000100a 5f434845434b 
00001010 53554d00 
00001014 73             4189 	.byte	115
00001015 07             4190 	.byte	7
00001016 02             4191 	.byte	2
00001017 1e             4192 	.byte	30
                        4193 
                        4194 .LDW_40c95a0:
00001018 2d             4195 	.byte	45
00001019 44434d5f5f45   4196 	.strz	"DCM__E_RESERVED_3"
0000101f 5f5245534552 
00001025 5645445f3300 
0000102b 74             4197 	.byte	116
0000102c 07             4198 	.byte	7
0000102d 02             4199 	.byte	2
0000102e 1f             4200 	.byte	31
                        4201 
                        4202 .LDW_40c95e0:
0000102f 2d             4203 	.byte	45
00001030 44434d5f5f45   4204 	.strz	"DCM__E_ITAC_SERIAL_NUMBER"
00001036 5f495441435f 
0000103c 53455249414c 
00001042 5f4e554d4245 
00001048 5200 
0000104a 75             4205 	.byte	117
0000104b 07             4206 	.byte	7
0000104c 02             4207 	.byte	2
0000104d 20             4208 	.byte	32
                        4209 
                        4210 .LDW_40c9620:
0000104e 2d             4211 	.byte	45
0000104f 44434d5f5f45   4212 	.strz	"DCM__E_RESERVED_4"
00001055 5f5245534552 
0000105b 5645445f3400 
00001061 76             4213 	.byte	118
00001062 07             4214 	.byte	7
00001063 02             4215 	.byte	2

                                                                      Page 80
                                                              C:\Users\nhuliyap\AppData\Local\Temp\gh_000048k1.s
00001064 21             4216 	.byte	33
                        4217 
00001065 00             4218 	.byte	0
                        4219 
                        4220 .LDW_409c070:
00001066 28             4221 	.byte	40
00001067 44636d5f5f45   4222 	.strz	"Dcm__Enum_ProductionDataMembers"
0000106d 6e756d5f5072 
00001073 6f6475637469 
00001079 6f6e44617461 
0000107f 4d656d626572 
00001085 7300 
00001087 77             4223 	.byte	119
00001088 02             4224 	.byte	2
00001089 02             4225 	.byte	2
0000108a 00000000*      4226 	.word	.LDW_4c2ce18
                        4227 
                        4228 .LDW_4d3c520:
0000108e 2e             4229 	.byte	46
0000108f 525f46444c5f   4230 	.strz	"R_FDL_STATUS_T"
00001095 535441545553 
0000109b 5f5400 
0000109e 1e             4231 	.byte	30
0000109f 0e             4232 	.byte	14
000010a0 12             4233 	.byte	18
000010a1 01             4234 	.byte	1
000010a2 01             4235 	.byte	1
                        4236 
                        4237 .LDW_4d3b8c8:
000010a3 2d             4238 	.byte	45
000010a4 525f46444c5f   4239 	.strz	"R_FDL_OK"
000010aa 4f4b00 
000010ad 20             4240 	.byte	32
000010ae 05             4241 	.byte	5
000010af 12             4242 	.byte	18
000010b0 00             4243 	.byte	0
                        4244 
                        4245 .LDW_4d3b9c8:
000010b1 2d             4246 	.byte	45
000010b2 525f46444c5f   4247 	.strz	"R_FDL_BUSY"
000010b8 4255535900 
000010bd 21             4248 	.byte	33
000010be 08             4249 	.byte	8
000010bf 12             4250 	.byte	18
000010c0 01             4251 	.byte	1
                        4252 
                        4253 .LDW_4d3b488:
000010c1 2d             4254 	.byte	45
000010c2 525f46444c5f   4255 	.strz	"R_FDL_SUSPENDED"
000010c8 53555350454e 
000010ce 44454400 
000010d2 22             4256 	.byte	34
000010d3 08             4257 	.byte	8
000010d4 12             4258 	.byte	18
000010d5 02             4259 	.byte	2
                        4260 
                        4261 .LDW_4d3b788:
000010d6 2d             4262 	.byte	45
000010d7 525f46444c5f   4263 	.strz	"R_FDL_ERR_CONFIGURATION"
000010dd 4552525f434f 
000010e3 4e4649475552 

                                                                      Page 81
                                                              C:\Users\nhuliyap\AppData\Local\Temp\gh_000048k1.s
000010e9 4154494f4e00 
000010ef 23             4264 	.byte	35
000010f0 08             4265 	.byte	8
000010f1 12             4266 	.byte	18
000010f2 03             4267 	.byte	3
                        4268 
                        4269 .LDW_4d3b7c8:
000010f3 2d             4270 	.byte	45
000010f4 525f46444c5f   4271 	.strz	"R_FDL_ERR_PARAMETER"
000010fa 4552525f5041 
00001100 52414d455445 
00001106 5200 
00001108 24             4272 	.byte	36
00001109 08             4273 	.byte	8
0000110a 12             4274 	.byte	18
0000110b 04             4275 	.byte	4
                        4276 
                        4277 .LDW_4d3ba88:
0000110c 2d             4278 	.byte	45
0000110d 525f46444c5f   4279 	.strz	"R_FDL_ERR_PROTECTION"
00001113 4552525f5052 
00001119 4f5445435449 
0000111f 4f4e00 
00001122 25             4280 	.byte	37
00001123 08             4281 	.byte	8
00001124 12             4282 	.byte	18
00001125 05             4283 	.byte	5
                        4284 
                        4285 .LDW_4d3b508:
00001126 2d             4286 	.byte	45
00001127 525f46444c5f   4287 	.strz	"R_FDL_ERR_REJECTED"
0000112d 4552525f5245 
00001133 4a4543544544 
00001139 00 
0000113a 26             4288 	.byte	38
0000113b 08             4289 	.byte	8
0000113c 12             4290 	.byte	18
0000113d 06             4291 	.byte	6
                        4292 
                        4293 .LDW_4d3b548:
0000113e 2d             4294 	.byte	45
0000113f 525f46444c5f   4295 	.strz	"R_FDL_ERR_WRITE"
00001145 4552525f5752 
0000114b 49544500 
0000114f 27             4296 	.byte	39
00001150 08             4297 	.byte	8
00001151 12             4298 	.byte	18
00001152 07             4299 	.byte	7
                        4300 
                        4301 .LDW_4d3b588:
00001153 2d             4302 	.byte	45
00001154 525f46444c5f   4303 	.strz	"R_FDL_ERR_ERASE"
0000115a 4552525f4552 
00001160 41534500 
00001164 28             4304 	.byte	40
00001165 08             4305 	.byte	8
00001166 12             4306 	.byte	18
00001167 08             4307 	.byte	8
                        4308 
                        4309 .LDW_4d3b808:
00001168 2d             4310 	.byte	45

                                                                      Page 82
                                                              C:\Users\nhuliyap\AppData\Local\Temp\gh_000048k1.s
00001169 525f46444c5f   4311 	.strz	"R_FDL_ERR_BLANKCHECK"
0000116f 4552525f424c 
00001175 414e4b434845 
0000117b 434b00 
0000117e 29             4312 	.byte	41
0000117f 08             4313 	.byte	8
00001180 12             4314 	.byte	18
00001181 09             4315 	.byte	9
                        4316 
                        4317 .LDW_4d3b908:
00001182 2d             4318 	.byte	45
00001183 525f46444c5f   4319 	.strz	"R_FDL_ERR_COMMAND"
00001189 4552525f434f 
0000118f 4d4d414e4400 
00001195 2a             4320 	.byte	42
00001196 08             4321 	.byte	8
00001197 12             4322 	.byte	18
00001198 0a             4323 	.byte	10
                        4324 
                        4325 .LDW_4d3b608:
00001199 2d             4326 	.byte	45
0000119a 525f46444c5f   4327 	.strz	"R_FDL_ERR_ECC_SED"
000011a0 4552525f4543 
000011a6 435f53454400 
000011ac 2b             4328 	.byte	43
000011ad 08             4329 	.byte	8
000011ae 12             4330 	.byte	18
000011af 0b             4331 	.byte	11
                        4332 
                        4333 .LDW_4d3ba08:
000011b0 2d             4334 	.byte	45
000011b1 525f46444c5f   4335 	.strz	"R_FDL_ERR_ECC_DED"
000011b7 4552525f4543 
000011bd 435f44454400 
000011c3 2c             4336 	.byte	44
000011c4 08             4337 	.byte	8
000011c5 12             4338 	.byte	18
000011c6 0c             4339 	.byte	12
                        4340 
                        4341 .LDW_4d3b648:
000011c7 2d             4342 	.byte	45
000011c8 525f46444c5f   4343 	.strz	"R_FDL_ERR_INTERNAL"
000011ce 4552525f494e 
000011d4 5445524e414c 
000011da 00 
000011db 2d             4344 	.byte	45
000011dc 08             4345 	.byte	8
000011dd 12             4346 	.byte	18
000011de 0d             4347 	.byte	13
                        4348 
                        4349 .LDW_4d3bac8:
000011df 2d             4350 	.byte	45
000011e0 525f46444c5f   4351 	.strz	"R_FDL_CANCELLED"
000011e6 43414e43454c 
000011ec 4c454400 
000011f0 2e             4352 	.byte	46
000011f1 08             4353 	.byte	8
000011f2 12             4354 	.byte	18
000011f3 0e             4355 	.byte	14
                        4356 
000011f4 00             4357 	.byte	0

                                                                      Page 83
                                                              C:\Users\nhuliyap\AppData\Local\Temp\gh_000048k1.s
                        4358 
                        4359 .LDW_4b904a0:
000011f5 28             4360 	.byte	40
000011f6 725f66646c5f   4361 	.strz	"r_fdl_status_t"
000011fc 737461747573 
00001202 5f7400 
00001205 2f             4362 	.byte	47
00001206 02             4363 	.byte	2
00001207 12             4364 	.byte	18
00001208 00000000*      4365 	.word	.LDW_4d3c520
                        4366 
                        4367 .LDW_4d3c570:
0000120c 2e             4368 	.byte	46
0000120d 525f46444c5f   4369 	.strz	"R_FDL_ACCESS_TYPE_T"
00001213 414343455353 
00001219 5f545950455f 
0000121f 5400 
00001221 31             4370 	.byte	49
00001222 0e             4371 	.byte	14
00001223 12             4372 	.byte	18
00001224 01             4373 	.byte	1
00001225 01             4374 	.byte	1
                        4375 
                        4376 .LDW_4d3c088:
00001226 2d             4377 	.byte	45
00001227 525f46444c5f   4378 	.strz	"R_FDL_ACCESS_NONE"
0000122d 414343455353 
00001233 5f4e4f4e4500 
00001239 33             4379 	.byte	51
0000123a 05             4380 	.byte	5
0000123b 12             4381 	.byte	18
0000123c 00             4382 	.byte	0
                        4383 
                        4384 .LDW_4d3bc48:
0000123d 2d             4385 	.byte	45
0000123e 525f46444c5f   4386 	.strz	"R_FDL_ACCESS_USER"
00001244 414343455353 
0000124a 5f5553455200 
00001250 34             4387 	.byte	52
00001251 08             4388 	.byte	8
00001252 12             4389 	.byte	18
00001253 01             4390 	.byte	1
                        4391 
                        4392 .LDW_4d3c248:
00001254 2d             4393 	.byte	45
00001255 525f46444c5f   4394 	.strz	"R_FDL_ACCESS_EEL"
0000125b 414343455353 
00001261 5f45454c00 
00001266 35             4395 	.byte	53
00001267 08             4396 	.byte	8
00001268 12             4397 	.byte	18
00001269 02             4398 	.byte	2
                        4399 
0000126a 00             4400 	.byte	0
                        4401 
                        4402 .LDW_4b904f8:
0000126b 28             4403 	.byte	40
0000126c 725f66646c5f   4404 	.strz	"r_fdl_accessType_t"
00001272 616363657373 
00001278 547970655f74 
0000127e 00 

                                                                      Page 84
                                                              C:\Users\nhuliyap\AppData\Local\Temp\gh_000048k1.s
0000127f 36             4405 	.byte	54
00001280 02             4406 	.byte	2
00001281 12             4407 	.byte	18
00001282 00000000*      4408 	.word	.LDW_4d3c570
                        4409 
                        4410 .LDW_4d3c5c0:
00001286 2e             4411 	.byte	46
00001287 525f46444c5f   4412 	.strz	"R_FDL_COMMAND_T"
0000128d 434f4d4d414e 
00001293 445f5400 
00001297 38             4413 	.byte	56
00001298 0e             4414 	.byte	14
00001299 12             4415 	.byte	18
0000129a 01             4416 	.byte	1
0000129b 01             4417 	.byte	1
                        4418 
                        4419 .LDW_4d3c008:
0000129c 2d             4420 	.byte	45
0000129d 525f46444c5f   4421 	.strz	"R_FDL_CMD_ERASE"
000012a3 434d445f4552 
000012a9 41534500 
000012ad 3a             4422 	.byte	58
000012ae 05             4423 	.byte	5
000012af 12             4424 	.byte	18
000012b0 00             4425 	.byte	0
                        4426 
                        4427 .LDW_4d3bc88:
000012b1 2d             4428 	.byte	45
000012b2 525f46444c5f   4429 	.strz	"R_FDL_CMD_WRITE"
000012b8 434d445f5752 
000012be 49544500 
000012c2 3b             4430 	.byte	59
000012c3 08             4431 	.byte	8
000012c4 12             4432 	.byte	18
000012c5 01             4433 	.byte	1
                        4434 
                        4435 .LDW_4d3bc08:
000012c6 2d             4436 	.byte	45
000012c7 525f46444c5f   4437 	.strz	"R_FDL_CMD_BLANKCHECK"
000012cd 434d445f424c 
000012d3 414e4b434845 
000012d9 434b00 
000012dc 3c             4438 	.byte	60
000012dd 08             4439 	.byte	8
000012de 12             4440 	.byte	18
000012df 02             4441 	.byte	2
                        4442 
                        4443 .LDW_4d3c048:
000012e0 2d             4444 	.byte	45
000012e1 525f46444c5f   4445 	.strz	"R_FDL_CMD_READ"
000012e7 434d445f5245 
000012ed 414400 
000012f0 3d             4446 	.byte	61
000012f1 08             4447 	.byte	8
000012f2 12             4448 	.byte	18
000012f3 03             4449 	.byte	3
                        4450 
                        4451 .LDW_4d3c0c8:
000012f4 2d             4452 	.byte	45
000012f5 525f46444c5f   4453 	.strz	"R_FDL_CMD_PREPARE_ENV"
000012fb 434d445f5052 

                                                                      Page 85
                                                              C:\Users\nhuliyap\AppData\Local\Temp\gh_000048k1.s
00001301 45504152455f 
00001307 454e5600 
0000130b 41             4454 	.byte	65
0000130c 05             4455 	.byte	5
0000130d 12             4456 	.byte	18
0000130e 05             4457 	.byte	5
                        4458 
0000130f 00             4459 	.byte	0
                        4460 
                        4461 .LDW_4b905a8:
00001310 28             4462 	.byte	40
00001311 725f66646c5f   4463 	.strz	"r_fdl_command_t"
00001317 636f6d6d616e 
0000131d 645f7400 
00001321 42             4464 	.byte	66
00001322 02             4465 	.byte	2
00001323 12             4466 	.byte	18
00001324 00000000*      4467 	.word	.LDW_4d3c5c0
                        4468 
                        4469 .LDW_40ca240:
00001328 40             4470 	.byte	64
00001329 525f46444c5f   4471 	.strz	"R_FDL_REQUEST_T"
0000132f 524551554553 
00001335 545f5400 
00001339 44             4472 	.byte	68
0000133a 19             4473 	.byte	25
0000133b 12             4474 	.byte	18
0000133c 10             4475 	.byte	16
0000133d 01             4476 	.byte	1
                        4477 
                        4478 	.section	.debug_abbrev
000000c8 40             4479 	.byte	64
000000c9 13             4480 	.byte	19
000000ca 01             4481 	.byte	1
000000cb 0308           4482 	.byte	3,8
000000cd 3b0f           4483 	.byte	59,15
000000cf 390f           4484 	.byte	57,15
000000d1 3a0f           4485 	.byte	58,15
000000d3 0b0f           4486 	.byte	11,15
000000d5 320b           4487 	.byte	50,11
000000d7 0000           4488 	.byte	0,0
                        4489 
                        4490 	.section	.debug_info
                        4491 .LDW_4d396f8:
0000133e 23             4492 	.byte	35
0000133f 636f6d6d616e   4493 	.strz	"command_enu"
00001345 645f656e7500 
0000134b 46             4494 	.byte	70
0000134c 19             4495 	.byte	25
0000134d 12             4496 	.byte	18
0000134e 00000000*      4497 	.word	.LDW_4b905a8
00001352 0223           4498 	.byte	2,35
00001354 00             4499 	.byte	0
00001355 01             4500 	.byte	1
                        4501 
                        4502 .LDW_4d39788:
00001356 23             4503 	.byte	35
00001357 627566416464   4504 	.strz	"bufAddr_u32"
0000135d 725f75333200 
00001363 47             4505 	.byte	71
00001364 18             4506 	.byte	24

                                                                      Page 86
                                                              C:\Users\nhuliyap\AppData\Local\Temp\gh_000048k1.s
00001365 12             4507 	.byte	18
00001366 00000000*      4508 	.word	.LDW_4b90918
0000136a 0223           4509 	.byte	2,35
0000136c 04             4510 	.byte	4
0000136d 01             4511 	.byte	1
                        4512 
                        4513 .LDW_4d394b8:
0000136e 23             4514 	.byte	35
0000136f 6964785f7533   4515 	.strz	"idx_u32"
00001375 3200 
00001377 48             4516 	.byte	72
00001378 18             4517 	.byte	24
00001379 12             4518 	.byte	18
0000137a 00000000*      4519 	.word	.LDW_4b90918
0000137e 0223           4520 	.byte	2,35
00001380 08             4521 	.byte	8
00001381 01             4522 	.byte	1
                        4523 
                        4524 .LDW_4d397d0:
00001382 23             4525 	.byte	35
00001383 636e745f7531   4526 	.strz	"cnt_u16"
00001389 3600 
0000138b 49             4527 	.byte	73
0000138c 18             4528 	.byte	24
0000138d 12             4529 	.byte	18
0000138e 00000000*      4530 	.word	.LDW_4b90810
00001392 0223           4531 	.byte	2,35
00001394 0c             4532 	.byte	12
00001395 01             4533 	.byte	1
                        4534 
                        4535 .LDW_4d39548:
00001396 23             4536 	.byte	35
00001397 616363657373   4537 	.strz	"accessType_enu"
0000139d 547970655f65 
000013a3 6e7500 
000013a6 4a             4538 	.byte	74
000013a7 19             4539 	.byte	25
000013a8 12             4540 	.byte	18
000013a9 00000000*      4541 	.word	.LDW_4b904f8
000013ad 0223           4542 	.byte	2,35
000013af 0e             4543 	.byte	14
000013b0 01             4544 	.byte	1
                        4545 
                        4546 .LDW_4d38ff0:
000013b1 23             4547 	.byte	35
000013b2 737461747573   4548 	.strz	"status_enu"
000013b8 5f656e7500 
000013bd 4b             4549 	.byte	75
000013be 19             4550 	.byte	25
000013bf 12             4551 	.byte	18
000013c0 00000000*      4552 	.word	.LDW_4b904a0
000013c4 0223           4553 	.byte	2,35
000013c6 0f             4554 	.byte	15
000013c7 01             4555 	.byte	1
                        4556 
000013c8 00             4557 	.byte	0
                        4558 
                        4559 .LDW_4be5f38:
000013c9 28             4560 	.byte	40
000013ca 725f66646c5f   4561 	.strz	"r_fdl_request_t"
000013d0 726571756573 

                                                                      Page 87
                                                              C:\Users\nhuliyap\AppData\Local\Temp\gh_000048k1.s
000013d6 745f7400 
000013da 4c             4562 	.byte	76
000013db 02             4563 	.byte	2
000013dc 12             4564 	.byte	18
000013dd 00000000*      4565 	.word	.LDW_4be61f8
                        4566 
                        4567 .LDW_4d470f0:
000013e1 04             4568 	.byte	4
000013e2 44434d5f5f55   4569 	.strz	"DCM__UN_ProductionDataFlash"
000013e8 4e5f50726f64 
000013ee 756374696f6e 
000013f4 44617461466c 
000013fa 61736800 
000013fe 0c             4570 	.byte	12
000013ff 2e             4571 	.byte	46
00001400 01             4572 	.byte	1
00001401 00000000*      4573 	.word	.LDW_4b90868
00001405 00             4574 	.byte	0
00001406 00             4575 	.byte	0
00001407 0503           4576 	.byte	5,3
00001409 00000000*      4577 	.word	_DCM__UN_ProductionDataFlash..C.3A.5C_ECU2.5CECU_Rivian_A1.5CTarget.5Crepo_projects.5CpRealEcu.5CcL_R2023.2E09.2E01.5Cmake.5Coutput.5Cobjects.5CProductionFlashInterface.
                        4578 
                        4579 	.section	.debug_abbrev
000000d9 04             4580 	.byte	4
000000da 34             4581 	.byte	52
000000db 00             4582 	.byte	0
000000dc 0308           4583 	.byte	3,8
000000de 3b0f           4584 	.byte	59,15
000000e0 390f           4585 	.byte	57,15
000000e2 3a0f           4586 	.byte	58,15
000000e4 4910           4587 	.byte	73,16
000000e6 3f0c           4588 	.byte	63,12
000000e8 3c0c           4589 	.byte	60,12
000000ea 020a           4590 	.byte	2,10
000000ec 0000           4591 	.byte	0,0
                        4592 
                        4593 	.section	.debug_info
                        4594 .LDW_4d532b0:
0000140d 15             4595 	.byte	21
0000140e 525f46444c5f   4596 	.strz	"R_FDL_Execute"
00001414 457865637574 
0000141a 6500 
0000141c 24             4597 	.byte	36
0000141d 23             4598 	.byte	35
0000141e 14             4599 	.byte	20
0000141f 01             4600 	.byte	1
00001420 00             4601 	.byte	0
00001421 01             4602 	.byte	1
00001422 01             4603 	.byte	1
00001423 00             4604 	.byte	0
00001424 01             4605 	.byte	1
                        4606 
                        4607 	.section	.debug_abbrev
000000ee 15             4608 	.byte	21
000000ef 2e             4609 	.byte	46
000000f0 01             4610 	.byte	1
000000f1 0308           4611 	.byte	3,8
000000f3 3b0f           4612 	.byte	59,15
000000f5 390f           4613 	.byte	57,15
000000f7 3a0f           4614 	.byte	58,15
000000f9 3c0c           4615 	.byte	60,12

                                                                      Page 88
                                                              C:\Users\nhuliyap\AppData\Local\Temp\gh_000048k1.s
000000fb 200b           4616 	.byte	32,11
000000fd 3f0c           4617 	.byte	63,12
000000ff 320b           4618 	.byte	50,11
00000101 4c0b           4619 	.byte	76,11
00000103 270c           4620 	.byte	39,12
00000105 0000           4621 	.byte	0,0
                        4622 
                        4623 	.section	.debug_info
00001425 00             4624 	.byte	0
                        4625 
                        4626 .LDW_4d526d0:
00001426 15             4627 	.byte	21
00001427 525f46444c5f   4628 	.strz	"R_FDL_Handler"
0000142d 48616e646c65 
00001433 7200 
00001435 25             4629 	.byte	37
00001436 23             4630 	.byte	35
00001437 14             4631 	.byte	20
00001438 01             4632 	.byte	1
00001439 00             4633 	.byte	0
0000143a 01             4634 	.byte	1
0000143b 01             4635 	.byte	1
0000143c 00             4636 	.byte	0
0000143d 01             4637 	.byte	1
                        4638 
0000143e 00             4639 	.byte	0
                        4640 
                        4641 .LDW_4d52a60:
0000143f 16             4642 	.byte	22
00001440 4750494f5f47   4643 	.strz	"GPIO_GetFrequencySetting"
00001446 657446726571 
0000144c 75656e637953 
00001452 657474696e67 
00001458 00 
00001459 11             4644 	.byte	17
0000145a 11             4645 	.byte	17
0000145b 1b             4646 	.byte	27
0000145c 00000000*      4647 	.word	.LDW_40c9d08
00001460 01             4648 	.byte	1
00001461 00             4649 	.byte	0
00001462 01             4650 	.byte	1
00001463 01             4651 	.byte	1
00001464 00             4652 	.byte	0
00001465 01             4653 	.byte	1
                        4654 
                        4655 	.section	.debug_abbrev
00000107 16             4656 	.byte	22
00000108 2e             4657 	.byte	46
00000109 01             4658 	.byte	1
0000010a 0308           4659 	.byte	3,8
0000010c 3b0f           4660 	.byte	59,15
0000010e 390f           4661 	.byte	57,15
00000110 3a0f           4662 	.byte	58,15
00000112 4910           4663 	.byte	73,16
00000114 3c0c           4664 	.byte	60,12
00000116 200b           4665 	.byte	32,11
00000118 3f0c           4666 	.byte	63,12
0000011a 320b           4667 	.byte	50,11
0000011c 4c0b           4668 	.byte	76,11
0000011e 270c           4669 	.byte	39,12
00000120 0000           4670 	.byte	0,0

                                                                      Page 89
                                                              C:\Users\nhuliyap\AppData\Local\Temp\gh_000048k1.s
                        4671 
                        4672 	.section	.debug_info
00001466 00             4673 	.byte	0
                        4674 
                        4675 .LDW_40c9bc0:
00001467 14             4676 	.byte	20
00001468 50524f44464c   4677 	.strz	"PRODFLASH__GetAddressOfMember"
0000146e 4153485f5f47 
00001474 657441646472 
0000147a 6573734f664d 
00001480 656d62657200 
00001486 0f             4678 	.byte	15
00001487 0f             4679 	.byte	15
00001488 01             4680 	.byte	1
00001489 00000000*      4681 	.word	.LDW_40cef88
0000148d 00000000*      4682 	.word	_PRODFLASH__GetAddressOfMember..C.3A.5C_ECU2.5CECU_Rivian_A1.5CTarget.5Crepo_projects.5CpRealEcu.5CcL_R2023.2E09.2E01.5Cmake.5Coutput.5Cobjects.5CProductionFlashInterface.
00001491 00000000*      4683 	.word	___ghs_eofn_PRODFLASH__GetAddressOfMember
00001495 0153           4684 	.byte	1,83
00001497 02             4685 	.byte	2
00001498 00             4686 	.byte	0
00001499 02             4687 	.byte	2
0000149a 00             4688 	.byte	0
0000149b 00             4689 	.byte	0
0000149c 00             4690 	.byte	0
0000149d 00             4691 	.byte	0
0000149e 00             4692 	.byte	0
0000149f 01             4693 	.byte	1
000014a0 00             4694 	.byte	0
000014a1 01             4695 	.byte	1
                        4696 
                        4697 	.section	.debug_abbrev
00000122 14             4698 	.byte	20
00000123 2e             4699 	.byte	46
00000124 01             4700 	.byte	1
00000125 0308           4701 	.byte	3,8
00000127 3b0f           4702 	.byte	59,15
00000129 390f           4703 	.byte	57,15
0000012b 3a0f           4704 	.byte	58,15
0000012d 4910           4705 	.byte	73,16
0000012f 1101           4706 	.byte	17,1
00000131 1201           4707 	.byte	18,1
00000133 400a           4708 	.byte	64,10
00000135 8341           4709 	.byte	131,65
00000137 0f             4710 	.byte	15
00000138 8741           4711 	.byte	135,65
0000013a 0d             4712 	.byte	13
0000013b 8541           4713 	.byte	133,65
0000013d 0f             4714 	.byte	15
0000013e 8641           4715 	.byte	134,65
00000140 0d             4716 	.byte	13
00000141 9241           4717 	.byte	146,65
00000143 0f             4718 	.byte	15
00000144 3c0c           4719 	.byte	60,12
00000146 200b           4720 	.byte	32,11
00000148 3f0c           4721 	.byte	63,12
0000014a 320b           4722 	.byte	50,11
0000014c 4c0b           4723 	.byte	76,11
0000014e 270c           4724 	.byte	39,12
00000150 0000           4725 	.byte	0,0
                        4726 
                        4727 	.section	.debug_frame

                                                                      Page 90
                                                              C:\Users\nhuliyap\AppData\Local\Temp\gh_000048k1.s
                        4728 .LDW_4d40630:
00000090 00000000*      4729 	.word	.LDW_unq_4-.LDW_unq_3
                        4730 .LDW_unq_3:
00000094 00000000*      4731 	.word	.LDW_4cccd08
00000098 00000000*      4732 	.word	_PRODFLASH__GetAddressOfMember..C.3A.5C_ECU2.5CECU_Rivian_A1.5CTarget.5Crepo_projects.5CpRealEcu.5CcL_R2023.2E09.2E01.5Cmake.5Coutput.5Cobjects.5CProductionFlashInterface.
0000009c 00000000*      4733 	.word	___ghs_eofn_PRODFLASH__GetAddressOfMember-_PRODFLASH__GetAddressOfMember..C.3A.5C_ECU2.5CECU_Rivian_A1.5CTarget.5Crepo_projects.5CpRealEcu.5CcL_R2023.2E09.2E01.5Cmake.5Coutput.5Cobjects.5CProductionFlashInterface.
000000a0 01             4734 	.byte	1
000000a1 00000000*      4735 	.word	.LDW11
000000a5 00             4736 	.byte	0
000000a6 00             4737 	.byte	0
000000a7 00             4738 	.byte	0
                        4739 .LDW_unq_4:
                        4740 	.section	.debug_line
000004e5 000502         4741 	.byte	0,5,2
000004e8 00000000*      4742 	.word	_PRODFLASH__GetAddressOfMember..C.3A.5C_ECU2.5CECU_Rivian_A1.5CTarget.5Crepo_projects.5CpRealEcu.5CcL_R2023.2E09.2E01.5Cmake.5Coutput.5Cobjects.5CProductionFlashInterface.
000004ec 03             4743 	.byte	3
000004ed 0f             4744 	.byte	15
000004ee 02             4745 	.byte	2
000004ef 00             4746 	.byte	0
000004f0 01             4747 	.byte	1
000004f1 06             4748 	.byte	6
000004f2 13             4749 	.byte	19
000004f3 14             4750 	.byte	20
000004f4 000502         4751 	.byte	0,5,2
000004f7 00000000*      4752 	.word	.LDWlin1
000004fb 0d             4753 	.byte	13
000004fc 13             4754 	.byte	19
000004fd 000502         4755 	.byte	0,5,2
00000500 00000000*      4756 	.word	.LDWlin2
00000504 0c             4757 	.byte	12
00000505 1b             4758 	.byte	27
00000506 000502         4759 	.byte	0,5,2
00000509 00000000*      4760 	.word	.LDWlin3
0000050d 0c             4761 	.byte	12
0000050e 1b             4762 	.byte	27
0000050f 000502         4763 	.byte	0,5,2
00000512 00000000*      4764 	.word	.LDWlin4
00000516 0c             4765 	.byte	12
00000517 1b             4766 	.byte	27
00000518 000502         4767 	.byte	0,5,2
0000051b 00000000*      4768 	.word	.LDWlin5
0000051f 0c             4769 	.byte	12
00000520 1b             4770 	.byte	27
00000521 000502         4771 	.byte	0,5,2
00000524 00000000*      4772 	.word	.LDWlin6
00000528 0c             4773 	.byte	12
00000529 1b             4774 	.byte	27
0000052a 000502         4775 	.byte	0,5,2
0000052d 00000000*      4776 	.word	.LDWlin7
00000531 0c             4777 	.byte	12
00000532 1b             4778 	.byte	27
00000533 000502         4779 	.byte	0,5,2
00000536 00000000*      4780 	.word	.LDWlin8
0000053a 0c             4781 	.byte	12
0000053b 1b             4782 	.byte	27
0000053c 000502         4783 	.byte	0,5,2
0000053f 00000000*      4784 	.word	.LDWlin9
00000543 0c             4785 	.byte	12
00000544 1b             4786 	.byte	27
00000545 000502         4787 	.byte	0,5,2
00000548 00000000*      4788 	.word	.LDWlin10

                                                                      Page 91
                                                              C:\Users\nhuliyap\AppData\Local\Temp\gh_000048k1.s
0000054c 0c             4789 	.byte	12
0000054d 1b             4790 	.byte	27
0000054e 000502         4791 	.byte	0,5,2
00000551 00000000*      4792 	.word	.LDWlin11
00000555 0c             4793 	.byte	12
00000556 1b             4794 	.byte	27
00000557 000502         4795 	.byte	0,5,2
0000055a 00000000*      4796 	.word	.LDWlin12
0000055e 0c             4797 	.byte	12
0000055f 1b             4798 	.byte	27
00000560 000502         4799 	.byte	0,5,2
00000563 00000000*      4800 	.word	.LDWlin13
00000567 0c             4801 	.byte	12
00000568 1b             4802 	.byte	27
00000569 000502         4803 	.byte	0,5,2
0000056c 00000000*      4804 	.word	.LDWlin14
00000570 0c             4805 	.byte	12
00000571 1b             4806 	.byte	27
00000572 000502         4807 	.byte	0,5,2
00000575 00000000*      4808 	.word	.LDWlin15
00000579 0c             4809 	.byte	12
0000057a 1b             4810 	.byte	27
0000057b 000502         4811 	.byte	0,5,2
0000057e 00000000*      4812 	.word	.LDWlin16
00000582 0c             4813 	.byte	12
00000583 1b             4814 	.byte	27
00000584 000502         4815 	.byte	0,5,2
00000587 00000000*      4816 	.word	.LDWlin17
0000058b 0c             4817 	.byte	12
0000058c 1b             4818 	.byte	27
0000058d 000502         4819 	.byte	0,5,2
00000590 00000000*      4820 	.word	.LDWlin18
00000594 0c             4821 	.byte	12
00000595 1b             4822 	.byte	27
00000596 000502         4823 	.byte	0,5,2
00000599 00000000*      4824 	.word	.LDWlin19
0000059d 0c             4825 	.byte	12
0000059e 1b             4826 	.byte	27
0000059f 000502         4827 	.byte	0,5,2
000005a2 00000000*      4828 	.word	.LDWlin20
000005a6 0c             4829 	.byte	12
000005a7 1b             4830 	.byte	27
000005a8 000502         4831 	.byte	0,5,2
000005ab 00000000*      4832 	.word	.LDWlin21
000005af 0c             4833 	.byte	12
000005b0 1b             4834 	.byte	27
000005b1 000502         4835 	.byte	0,5,2
000005b4 00000000*      4836 	.word	.LDWlin22
000005b8 0c             4837 	.byte	12
000005b9 1b             4838 	.byte	27
000005ba 000502         4839 	.byte	0,5,2
000005bd 00000000*      4840 	.word	.LDWlin23
000005c1 0c             4841 	.byte	12
000005c2 1b             4842 	.byte	27
000005c3 000502         4843 	.byte	0,5,2
000005c6 00000000*      4844 	.word	.LDWlin24
000005ca 0c             4845 	.byte	12
000005cb 1b             4846 	.byte	27
000005cc 000502         4847 	.byte	0,5,2
000005cf 00000000*      4848 	.word	.LDWlin25
000005d3 0c             4849 	.byte	12

                                                                      Page 92
                                                              C:\Users\nhuliyap\AppData\Local\Temp\gh_000048k1.s
000005d4 1b             4850 	.byte	27
000005d5 000502         4851 	.byte	0,5,2
000005d8 00000000*      4852 	.word	.LDWlin26
000005dc 0c             4853 	.byte	12
000005dd 1b             4854 	.byte	27
000005de 000502         4855 	.byte	0,5,2
000005e1 00000000*      4856 	.word	.LDWlin27
000005e5 0c             4857 	.byte	12
000005e6 1b             4858 	.byte	27
000005e7 000502         4859 	.byte	0,5,2
000005ea 00000000*      4860 	.word	.LDWlin28
000005ee 0c             4861 	.byte	12
000005ef 1b             4862 	.byte	27
000005f0 000502         4863 	.byte	0,5,2
000005f3 00000000*      4864 	.word	.LDWlin29
000005f7 0c             4865 	.byte	12
000005f8 1b             4866 	.byte	27
000005f9 000502         4867 	.byte	0,5,2
000005fc 00000000*      4868 	.word	.LDWlin30
00000600 0c             4869 	.byte	12
00000601 1b             4870 	.byte	27
00000602 000502         4871 	.byte	0,5,2
00000605 00000000*      4872 	.word	.LDWlin31
00000609 0c             4873 	.byte	12
0000060a 1b             4874 	.byte	27
0000060b 000502         4875 	.byte	0,5,2
0000060e 00000000*      4876 	.word	.LDWlin32
00000612 0c             4877 	.byte	12
00000613 1b             4878 	.byte	27
00000614 000502         4879 	.byte	0,5,2
00000617 00000000*      4880 	.word	.LDWlin33
0000061b 0c             4881 	.byte	12
0000061c 1b             4882 	.byte	27
0000061d 000502         4883 	.byte	0,5,2
00000620 00000000*      4884 	.word	.LDWlin34
00000624 0c             4885 	.byte	12
00000625 1b             4886 	.byte	27
00000626 000502         4887 	.byte	0,5,2
00000629 00000000*      4888 	.word	.LDWlin35
0000062d 02             4889 	.byte	2
0000062e 00             4890 	.byte	0
0000062f 02             4891 	.byte	2
00000630 00             4892 	.byte	0
00000631 0b             4893 	.byte	11
00000632 0b             4894 	.byte	11
00000633 0c             4895 	.byte	12
00000634 02             4896 	.byte	2
00000635 02             4897 	.byte	2
00000636 000101         4898 	.byte	0,1,1
                        4899 	.section	.debug_info
                        4900 .LDW_40c9c58:
000014a2 0f             4901 	.byte	15
000014a3 454e5f4d656d   4902 	.strz	"EN_Member"
000014a9 62657200 
000014ad 0f             4903 	.byte	15
000014ae 4d             4904 	.byte	77
000014af 01             4905 	.byte	1
000014b0 00000000*      4906 	.word	.LDW_409c070
000014b4 00             4907 	.byte	0
000014b5 0156           4908 	.byte	1,86
                        4909 

                                                                      Page 93
                                                              C:\Users\nhuliyap\AppData\Local\Temp\gh_000048k1.s
                        4910 	.section	.debug_abbrev
00000152 0f             4911 	.byte	15
00000153 05             4912 	.byte	5
00000154 00             4913 	.byte	0
00000155 0308           4914 	.byte	3,8
00000157 3b0f           4915 	.byte	59,15
00000159 390f           4916 	.byte	57,15
0000015b 3a0f           4917 	.byte	58,15
0000015d 4910           4918 	.byte	73,16
0000015f 4b0c           4919 	.byte	75,12
00000161 020a           4920 	.byte	2,10
00000163 0000           4921 	.byte	0,0
                        4922 
                        4923 	.section	.debug_info
                        4924 .LDW_40ce410:
000014b7 1d             4925 	.byte	29
000014b8 00000000*      4926 	.word	.LDW01
000014bc 00000000*      4927 	.word	.LDW11
                        4928 
                        4929 	.section	.debug_abbrev
00000165 1d             4930 	.byte	29
00000166 0b             4931 	.byte	11
00000167 01             4932 	.byte	1
00000168 1101           4933 	.byte	17,1
0000016a 1201           4934 	.byte	18,1
0000016c 0000           4935 	.byte	0,0
                        4936 
                        4937 	.section	.debug_info
                        4938 .LDW_40c9cb0:
000014c0 04             4939 	.byte	4
000014c1 5533325f4164   4940 	.strz	"U32_AddressOfMember"
000014c7 64726573734f 
000014cd 664d656d6265 
000014d3 7200 
000014d5 11             4941 	.byte	17
000014d6 0a             4942 	.byte	10
000014d7 01             4943 	.byte	1
000014d8 00000000*      4944 	.word	.LDW_40cef88
000014dc 00             4945 	.byte	0
000014dd 00             4946 	.byte	0
000014de 015a           4947 	.byte	1,90
                        4948 
000014e0 00             4949 	.byte	0
                        4950 
000014e1 00             4951 	.byte	0
                        4952 
                        4953 .LDW_40c9d60:
000014e2 14             4954 	.byte	20
000014e3 50524f44464c   4955 	.strz	"PRODFLASH__GetStartBlockNumber"
000014e9 4153485f5f47 
000014ef 657453746172 
000014f5 74426c6f636b 
000014fb 4e756d626572 
00001501 00 
00001502 8101           4956 	.byte	129,1
00001504 0e             4957 	.byte	14
00001505 01             4958 	.byte	1
00001506 00000000*      4959 	.word	.LDW_40c9d08
0000150a 00000000*      4960 	.word	_PRODFLASH__GetStartBlockNumber..C.3A.5C_ECU2.5CECU_Rivian_A1.5CTarget.5Crepo_projects.5CpRealEcu.5CcL_R2023.2E09.2E01.5Cmake.5Coutput.5Cobjects.5CProductionFlashInterface.
0000150e 00000000*      4961 	.word	___ghs_eofn_PRODFLASH__GetStartBlockNumber
00001512 0153           4962 	.byte	1,83

                                                                      Page 94
                                                              C:\Users\nhuliyap\AppData\Local\Temp\gh_000048k1.s
00001514 02             4963 	.byte	2
00001515 00             4964 	.byte	0
00001516 02             4965 	.byte	2
00001517 00             4966 	.byte	0
00001518 00             4967 	.byte	0
00001519 00             4968 	.byte	0
0000151a 00             4969 	.byte	0
0000151b 00             4970 	.byte	0
0000151c 01             4971 	.byte	1
0000151d 00             4972 	.byte	0
0000151e 01             4973 	.byte	1
                        4974 
                        4975 	.section	.debug_frame
                        4976 .LDW_4d40ab0:
000000a8 00000000*      4977 	.word	.LDW_unq_6-.LDW_unq_5
                        4978 .LDW_unq_5:
000000ac 00000000*      4979 	.word	.LDW_4cccd08
000000b0 00000000*      4980 	.word	_PRODFLASH__GetStartBlockNumber..C.3A.5C_ECU2.5CECU_Rivian_A1.5CTarget.5Crepo_projects.5CpRealEcu.5CcL_R2023.2E09.2E01.5Cmake.5Coutput.5Cobjects.5CProductionFlashInterface.
000000b4 00000000*      4981 	.word	___ghs_eofn_PRODFLASH__GetStartBlockNumber-_PRODFLASH__GetStartBlockNumber..C.3A.5C_ECU2.5CECU_Rivian_A1.5CTarget.5Crepo_projects.5CpRealEcu.5CcL_R2023.2E09.2E01.5Cmake.5Coutput.5Cobjects.5CProductionFlashInterface.
000000b8 01             4982 	.byte	1
000000b9 00000000*      4983 	.word	.LDW31
000000bd 00             4984 	.byte	0
000000be 00             4985 	.byte	0
000000bf 00             4986 	.byte	0
                        4987 .LDW_unq_6:
                        4988 	.section	.debug_line
00000639 000502         4989 	.byte	0,5,2
0000063c 00000000*      4990 	.word	_PRODFLASH__GetStartBlockNumber..C.3A.5C_ECU2.5CECU_Rivian_A1.5CTarget.5Crepo_projects.5CpRealEcu.5CcL_R2023.2E09.2E01.5Cmake.5Coutput.5Cobjects.5CProductionFlashInterface.
00000640 06             4991 	.byte	6
00000641 03             4992 	.byte	3
00000642 8701           4993 	.byte	135,1
00000644 02             4994 	.byte	2
00000645 00             4995 	.byte	0
00000646 01             4996 	.byte	1
00000647 06             4997 	.byte	6
00000648 000502         4998 	.byte	0,5,2
0000064b 00000000*      4999 	.word	.LDWlin36
0000064f 02             5000 	.byte	2
00000650 00             5001 	.byte	0
00000651 02             5002 	.byte	2
00000652 02             5003 	.byte	2
00000653 000101         5004 	.byte	0,1,1
                        5005 	.section	.debug_info
                        5006 .LDW_40c9df8:
0000151f 0f             5007 	.byte	15
00001520 5533325f4164   5008 	.strz	"U32_AddressOfMember"
00001526 64726573734f 
0000152c 664d656d6265 
00001532 7200 
00001534 8101           5009 	.byte	129,1
00001536 34             5010 	.byte	52
00001537 01             5011 	.byte	1
00001538 00000000*      5012 	.word	.LDW_40cef88
0000153c 00             5013 	.byte	0
0000153d 0156           5014 	.byte	1,86
                        5015 
                        5016 .LDW_40ce470:
0000153f 1d             5017 	.byte	29
00001540 00000000*      5018 	.word	.LDW21
00001544 00000000*      5019 	.word	.LDW31
                        5020 

                                                                      Page 95
                                                              C:\Users\nhuliyap\AppData\Local\Temp\gh_000048k1.s
                        5021 .LDW_40c9e50:
00001548 05             5022 	.byte	5
00001549 55385f537461   5023 	.strz	"U8_StartBlockNumber"
0000154f 7274426c6f63 
00001555 6b4e756d6265 
0000155b 7200 
0000155d 8301           5024 	.byte	131,1
0000155f 09             5025 	.byte	9
00001560 01             5026 	.byte	1
00001561 00000000*      5027 	.word	.LDW_40c9d08
00001565 00             5028 	.byte	0
00001566 00             5029 	.byte	0
                        5030 
                        5031 	.section	.debug_abbrev
0000016e 05             5032 	.byte	5
0000016f 34             5033 	.byte	52
00000170 00             5034 	.byte	0
00000171 0308           5035 	.byte	3,8
00000173 3b0f           5036 	.byte	59,15
00000175 390f           5037 	.byte	57,15
00000177 3a0f           5038 	.byte	58,15
00000179 4910           5039 	.byte	73,16
0000017b 3f0c           5040 	.byte	63,12
0000017d 3c0c           5041 	.byte	60,12
0000017f 0000           5042 	.byte	0,0
                        5043 
                        5044 	.section	.debug_info
                        5045 .LDW_40c9ea8:
00001567 05             5046 	.byte	5
00001568 5533325f5072   5047 	.strz	"U32_ProductionDataStartAddress"
0000156e 6f6475637469 
00001574 6f6e44617461 
0000157a 537461727441 
00001580 646472657373 
00001586 00 
00001587 8401           5048 	.byte	132,1
00001589 0a             5049 	.byte	10
0000158a 01             5050 	.byte	1
0000158b 00000000*      5051 	.word	.LDW_40cef88
0000158f 00             5052 	.byte	0
00001590 00             5053 	.byte	0
                        5054 
00001591 00             5055 	.byte	0
                        5056 
00001592 00             5057 	.byte	0
                        5058 
                        5059 .LDW_40c9f58:
00001593 14             5060 	.byte	20
00001594 50524f44464c   5061 	.strz	"PRODFLASH__GetEndBlockNumber"
0000159a 4153485f5f47 
000015a0 6574456e6442 
000015a6 6c6f636b4e75 
000015ac 6d62657200 
000015b1 8b01           5062 	.byte	139,1
000015b3 0e             5063 	.byte	14
000015b4 01             5064 	.byte	1
000015b5 00000000*      5065 	.word	.LDW_40c9d08
000015b9 00000000*      5066 	.word	_PRODFLASH__GetEndBlockNumber..C.3A.5C_ECU2.5CECU_Rivian_A1.5CTarget.5Crepo_projects.5CpRealEcu.5CcL_R2023.2E09.2E01.5Cmake.5Coutput.5Cobjects.5CProductionFlashInterface.
000015bd 00000000*      5067 	.word	___ghs_eofn_PRODFLASH__GetEndBlockNumber
000015c1 0153           5068 	.byte	1,83
000015c3 02             5069 	.byte	2

                                                                      Page 96
                                                              C:\Users\nhuliyap\AppData\Local\Temp\gh_000048k1.s
000015c4 00             5070 	.byte	0
000015c5 02             5071 	.byte	2
000015c6 00             5072 	.byte	0
000015c7 00             5073 	.byte	0
000015c8 00             5074 	.byte	0
000015c9 00             5075 	.byte	0
000015ca 00             5076 	.byte	0
000015cb 01             5077 	.byte	1
000015cc 00             5078 	.byte	0
000015cd 01             5079 	.byte	1
                        5080 
                        5081 	.section	.debug_frame
                        5082 .LDW_4d407b0:
000000c0 00000000*      5083 	.word	.LDW_unq_8-.LDW_unq_7
                        5084 .LDW_unq_7:
000000c4 00000000*      5085 	.word	.LDW_4cccd08
000000c8 00000000*      5086 	.word	_PRODFLASH__GetEndBlockNumber..C.3A.5C_ECU2.5CECU_Rivian_A1.5CTarget.5Crepo_projects.5CpRealEcu.5CcL_R2023.2E09.2E01.5Cmake.5Coutput.5Cobjects.5CProductionFlashInterface.
000000cc 00000000*      5087 	.word	___ghs_eofn_PRODFLASH__GetEndBlockNumber-_PRODFLASH__GetEndBlockNumber..C.3A.5C_ECU2.5CECU_Rivian_A1.5CTarget.5Crepo_projects.5CpRealEcu.5CcL_R2023.2E09.2E01.5Cmake.5Coutput.5Cobjects.5CProductionFlashInterface.
000000d0 01             5088 	.byte	1
000000d1 00000000*      5089 	.word	.LDW51
000000d5 00             5090 	.byte	0
000000d6 00             5091 	.byte	0
000000d7 00             5092 	.byte	0
                        5093 .LDW_unq_8:
                        5094 	.section	.debug_line
00000656 000502         5095 	.byte	0,5,2
00000659 00000000*      5096 	.word	_PRODFLASH__GetEndBlockNumber..C.3A.5C_ECU2.5CECU_Rivian_A1.5CTarget.5Crepo_projects.5CpRealEcu.5CcL_R2023.2E09.2E01.5Cmake.5Coutput.5Cobjects.5CProductionFlashInterface.
0000065d 06             5097 	.byte	6
0000065e 03             5098 	.byte	3
0000065f 9101           5099 	.byte	145,1
00000661 02             5100 	.byte	2
00000662 00             5101 	.byte	0
00000663 01             5102 	.byte	1
00000664 06             5103 	.byte	6
00000665 000502         5104 	.byte	0,5,2
00000668 00000000*      5105 	.word	.LDWlin37
0000066c 02             5106 	.byte	2
0000066d 00             5107 	.byte	0
0000066e 02             5108 	.byte	2
0000066f 02             5109 	.byte	2
00000670 000101         5110 	.byte	0,1,1
                        5111 	.section	.debug_info
                        5112 .LDW_40c9ff0:
000015ce 0f             5113 	.byte	15
000015cf 5533325f4164   5114 	.strz	"U32_AddressOfMember"
000015d5 64726573734f 
000015db 664d656d6265 
000015e1 7200 
000015e3 8b01           5115 	.byte	139,1
000015e5 32             5116 	.byte	50
000015e6 01             5117 	.byte	1
000015e7 00000000*      5118 	.word	.LDW_40cef88
000015eb 00             5119 	.byte	0
000015ec 0156           5120 	.byte	1,86
                        5121 
                        5122 .LDW_40ca048:
000015ee 0f             5123 	.byte	15
000015ef 5531365f5369   5124 	.strz	"U16_SizeOfMember"
000015f5 7a654f664d65 
000015fb 6d62657200 
00001600 8b01           5125 	.byte	139,1

                                                                      Page 97
                                                              C:\Users\nhuliyap\AppData\Local\Temp\gh_000048k1.s
00001602 4e             5126 	.byte	78
00001603 01             5127 	.byte	1
00001604 00000000*      5128 	.word	.LDW_40c9f00
00001608 00             5129 	.byte	0
00001609 0157           5130 	.byte	1,87
                        5131 
                        5132 .LDW_40ce680:
0000160b 1d             5133 	.byte	29
0000160c 00000000*      5134 	.word	.LDW41
00001610 00000000*      5135 	.word	.LDW51
                        5136 
                        5137 .LDW_40ca0a0:
00001614 05             5138 	.byte	5
00001615 55385f456e64   5139 	.strz	"U8_EndBlockNumber"
0000161b 426c6f636b4e 
00001621 756d62657200 
00001627 8d01           5140 	.byte	141,1
00001629 09             5141 	.byte	9
0000162a 01             5142 	.byte	1
0000162b 00000000*      5143 	.word	.LDW_40c9d08
0000162f 00             5144 	.byte	0
00001630 00             5145 	.byte	0
                        5146 
                        5147 .LDW_40ca0f8:
00001631 05             5148 	.byte	5
00001632 5533325f5072   5149 	.strz	"U32_ProductionDataStartAddress"
00001638 6f6475637469 
0000163e 6f6e44617461 
00001644 537461727441 
0000164a 646472657373 
00001650 00 
00001651 8e01           5150 	.byte	142,1
00001653 0a             5151 	.byte	10
00001654 01             5152 	.byte	1
00001655 00000000*      5153 	.word	.LDW_40cef88
00001659 00             5154 	.byte	0
0000165a 00             5155 	.byte	0
                        5156 
0000165b 00             5157 	.byte	0
                        5158 
0000165c 00             5159 	.byte	0
                        5160 
                        5161 .LDW_40ca150:
0000165d 13             5162 	.byte	19
0000165e 50524f44464c   5163 	.strz	"PRODFLASH__EraseFlashBlock"
00001664 4153485f5f45 
0000166a 72617365466c 
00001670 617368426c6f 
00001676 636b00 
00001679 9501           5164 	.byte	149,1
0000167b 0d             5165 	.byte	13
0000167c 01             5166 	.byte	1
0000167d 00000000*      5167 	.word	_PRODFLASH__EraseFlashBlock..C.3A.5C_ECU2.5CECU_Rivian_A1.5CTarget.5Crepo_projects.5CpRealEcu.5CcL_R2023.2E09.2E01.5Cmake.5Coutput.5Cobjects.5CProductionFlashInterface.
00001681 00000000*      5168 	.word	___ghs_eofn_PRODFLASH__EraseFlashBlock
00001685 0153           5169 	.byte	1,83
00001687 8280808008     5170 	.byte	130,128,128,128,8
0000168c 04             5171 	.byte	4
0000168d 03             5172 	.byte	3
0000168e 14             5173 	.byte	20
0000168f 00             5174 	.byte	0
00001690 00             5175 	.byte	0

                                                                      Page 98
                                                              C:\Users\nhuliyap\AppData\Local\Temp\gh_000048k1.s
00001691 00             5176 	.byte	0
00001692 00             5177 	.byte	0
00001693 01             5178 	.byte	1
00001694 00             5179 	.byte	0
00001695 01             5180 	.byte	1
                        5181 
                        5182 	.section	.debug_abbrev
00000181 13             5183 	.byte	19
00000182 2e             5184 	.byte	46
00000183 01             5185 	.byte	1
00000184 0308           5186 	.byte	3,8
00000186 3b0f           5187 	.byte	59,15
00000188 390f           5188 	.byte	57,15
0000018a 3a0f           5189 	.byte	58,15
0000018c 1101           5190 	.byte	17,1
0000018e 1201           5191 	.byte	18,1
00000190 400a           5192 	.byte	64,10
00000192 8341           5193 	.byte	131,65
00000194 0f             5194 	.byte	15
00000195 8741           5195 	.byte	135,65
00000197 0d             5196 	.byte	13
00000198 8541           5197 	.byte	133,65
0000019a 0f             5198 	.byte	15
0000019b 8641           5199 	.byte	134,65
0000019d 0d             5200 	.byte	13
0000019e 9241           5201 	.byte	146,65
000001a0 0f             5202 	.byte	15
000001a1 3c0c           5203 	.byte	60,12
000001a3 200b           5204 	.byte	32,11
000001a5 3f0c           5205 	.byte	63,12
000001a7 320b           5206 	.byte	50,11
000001a9 4c0b           5207 	.byte	76,11
000001ab 270c           5208 	.byte	39,12
000001ad 0000           5209 	.byte	0,0
                        5210 
                        5211 	.section	.debug_frame
                        5212 .LDW_4d40430:
000000d8 00000000*      5213 	.word	.LDW_unq_a-.LDW_unq_9
                        5214 .LDW_unq_9:
000000dc 00000000*      5215 	.word	.LDW_4cccd08
000000e0 00000000*      5216 	.word	_PRODFLASH__EraseFlashBlock..C.3A.5C_ECU2.5CECU_Rivian_A1.5CTarget.5Crepo_projects.5CpRealEcu.5CcL_R2023.2E09.2E01.5Cmake.5Coutput.5Cobjects.5CProductionFlashInterface.
000000e4 00000000*      5217 	.word	___ghs_eofn_PRODFLASH__EraseFlashBlock-_PRODFLASH__EraseFlashBlock..C.3A.5C_ECU2.5CECU_Rivian_A1.5CTarget.5Crepo_projects.5CpRealEcu.5CcL_R2023.2E09.2E01.5Cmake.5Coutput.5Cobjects.5CProductionFlashInterface.
000000e8 44             5218 	.byte	68
000000e9 9f             5219 	.byte	159
000000ea 0c             5220 	.byte	12
000000eb 01             5221 	.byte	1
000000ec 00000000*      5222 	.word	.LDW71
                        5223 .LDW_unq_a:
                        5224 	.section	.debug_line
00000673 000502         5225 	.byte	0,5,2
00000676 00000000*      5226 	.word	_PRODFLASH__EraseFlashBlock..C.3A.5C_ECU2.5CECU_Rivian_A1.5CTarget.5Crepo_projects.5CpRealEcu.5CcL_R2023.2E09.2E01.5Cmake.5Coutput.5Cobjects.5CProductionFlashInterface.
0000067a 03             5227 	.byte	3
0000067b 9501           5228 	.byte	149,1
0000067d 02             5229 	.byte	2
0000067e 00             5230 	.byte	0
0000067f 01             5231 	.byte	1
00000680 06             5232 	.byte	6
00000681 03             5233 	.byte	3
00000682 04             5234 	.byte	4
00000683 02             5235 	.byte	2
00000684 06             5236 	.byte	6

                                                                      Page 99
                                                              C:\Users\nhuliyap\AppData\Local\Temp\gh_000048k1.s
00000685 01             5237 	.byte	1
00000686 13             5238 	.byte	19
00000687 13             5239 	.byte	19
00000688 1b             5240 	.byte	27
00000689 14             5241 	.byte	20
0000068a 000502         5242 	.byte	0,5,2
0000068d 00000000*      5243 	.word	.LDWlin38
00000691 0c             5244 	.byte	12
00000692 000502         5245 	.byte	0,5,2
00000695 00000000*      5246 	.word	.LDWlin39
00000699 0c             5247 	.byte	12
0000069a 000502         5248 	.byte	0,5,2
0000069d 00000000*      5249 	.word	.LDWlin40
000006a1 03             5250 	.byte	3
000006a2 7e             5251 	.byte	126
000006a3 02             5252 	.byte	2
000006a4 00             5253 	.byte	0
000006a5 01             5254 	.byte	1
000006a6 000502         5255 	.byte	0,5,2
000006a9 00000000*      5256 	.word	.LDWlin41
000006ad 0d             5257 	.byte	13
000006ae 0c             5258 	.byte	12
000006af 1b             5259 	.byte	27
000006b0 0c             5260 	.byte	12
000006b1 02             5261 	.byte	2
000006b2 00             5262 	.byte	0
000006b3 0b             5263 	.byte	11
000006b4 02             5264 	.byte	2
000006b5 04             5265 	.byte	4
000006b6 000101         5266 	.byte	0,1,1
                        5267 	.section	.debug_info
                        5268 .LDW_40ca1e8:
00001696 0f             5269 	.byte	15
00001697 55385f426c6f   5270 	.strz	"U8_BlockNumber"
0000169d 636b4e756d62 
000016a3 657200 
000016a6 9501           5271 	.byte	149,1
000016a8 2e             5272 	.byte	46
000016a9 01             5273 	.byte	1
000016aa 00000000*      5274 	.word	.LDW_40c9d08
000016ae 00             5275 	.byte	0
000016af 0156           5276 	.byte	1,86
                        5277 
                        5278 .LDW_40ce710:
000016b1 1d             5279 	.byte	29
000016b2 00000000*      5280 	.word	.LDW61
000016b6 00000000*      5281 	.word	.LDW71
                        5282 
                        5283 .LDW_4be62a8:
000016ba 04             5284 	.byte	4
000016bb 535f46646c52   5285 	.strz	"S_FdlRequest"
000016c1 657175657374 
000016c7 00 
000016c8 9801           5286 	.byte	152,1
000016ca 13             5287 	.byte	19
000016cb 01             5288 	.byte	1
000016cc 00000000*      5289 	.word	.LDW_4be5f38
000016d0 00             5290 	.byte	0
000016d1 00             5291 	.byte	0
000016d2 0273           5292 	.byte	2,115
000016d4 00             5293 	.byte	0

                                                                      Page 100
                                                              C:\Users\nhuliyap\AppData\Local\Temp\gh_000048k1.s
                        5294 
000016d5 00             5295 	.byte	0
                        5296 
000016d6 00             5297 	.byte	0
                        5298 
                        5299 .LDW_40ca298:
000016d7 13             5300 	.byte	19
000016d8 50524f44464c   5301 	.strz	"PRODFLASH__WriteFlashBlock"
000016de 4153485f5f57 
000016e4 72697465466c 
000016ea 617368426c6f 
000016f0 636b00 
000016f3 ac01           5302 	.byte	172,1
000016f5 0d             5303 	.byte	13
000016f6 01             5304 	.byte	1
000016f7 00000000*      5305 	.word	_PRODFLASH__WriteFlashBlock..C.3A.5C_ECU2.5CECU_Rivian_A1.5CTarget.5Crepo_projects.5CpRealEcu.5CcL_R2023.2E09.2E01.5Cmake.5Coutput.5Cobjects.5CProductionFlashInterface.
000016fb 00000000*      5306 	.word	___ghs_eofn_PRODFLASH__WriteFlashBlock
000016ff 0153           5307 	.byte	1,83
00001701 8280808008     5308 	.byte	130,128,128,128,8
00001706 04             5309 	.byte	4
00001707 03             5310 	.byte	3
00001708 14             5311 	.byte	20
00001709 00             5312 	.byte	0
0000170a 00             5313 	.byte	0
0000170b 00             5314 	.byte	0
0000170c 00             5315 	.byte	0
0000170d 01             5316 	.byte	1
0000170e 00             5317 	.byte	0
0000170f 01             5318 	.byte	1
                        5319 
                        5320 	.section	.debug_frame
                        5321 .LDW_4d40770:
000000f0 00000000*      5322 	.word	.LDW_unq_c-.LDW_unq_b
                        5323 .LDW_unq_b:
000000f4 00000000*      5324 	.word	.LDW_4cccd08
000000f8 00000000*      5325 	.word	_PRODFLASH__WriteFlashBlock..C.3A.5C_ECU2.5CECU_Rivian_A1.5CTarget.5Crepo_projects.5CpRealEcu.5CcL_R2023.2E09.2E01.5Cmake.5Coutput.5Cobjects.5CProductionFlashInterface.
000000fc 00000000*      5326 	.word	___ghs_eofn_PRODFLASH__WriteFlashBlock-_PRODFLASH__WriteFlashBlock..C.3A.5C_ECU2.5CECU_Rivian_A1.5CTarget.5Crepo_projects.5CpRealEcu.5CcL_R2023.2E09.2E01.5Cmake.5Coutput.5Cobjects.5CProductionFlashInterface.
00000100 44             5327 	.byte	68
00000101 9f             5328 	.byte	159
00000102 0c             5329 	.byte	12
00000103 01             5330 	.byte	1
00000104 00000000*      5331 	.word	.LDW91
                        5332 .LDW_unq_c:
                        5333 	.section	.debug_line
000006b9 000502         5334 	.byte	0,5,2
000006bc 00000000*      5335 	.word	_PRODFLASH__WriteFlashBlock..C.3A.5C_ECU2.5CECU_Rivian_A1.5CTarget.5Crepo_projects.5CpRealEcu.5CcL_R2023.2E09.2E01.5Cmake.5Coutput.5Cobjects.5CProductionFlashInterface.
000006c0 03             5336 	.byte	3
000006c1 ac01           5337 	.byte	172,1
000006c3 02             5338 	.byte	2
000006c4 00             5339 	.byte	0
000006c5 01             5340 	.byte	1
000006c6 06             5341 	.byte	6
000006c7 03             5342 	.byte	3
000006c8 04             5343 	.byte	4
000006c9 02             5344 	.byte	2
000006ca 06             5345 	.byte	6
000006cb 01             5346 	.byte	1
000006cc 1b             5347 	.byte	27
000006cd 1b             5348 	.byte	27
000006ce 23             5349 	.byte	35
000006cf 13             5350 	.byte	19

                                                                      Page 101
                                                              C:\Users\nhuliyap\AppData\Local\Temp\gh_000048k1.s
000006d0 14             5351 	.byte	20
000006d1 000502         5352 	.byte	0,5,2
000006d4 00000000*      5353 	.word	.LDWlin42
000006d8 0c             5354 	.byte	12
000006d9 000502         5355 	.byte	0,5,2
000006dc 00000000*      5356 	.word	.LDWlin43
000006e0 0c             5357 	.byte	12
000006e1 000502         5358 	.byte	0,5,2
000006e4 00000000*      5359 	.word	.LDWlin44
000006e8 03             5360 	.byte	3
000006e9 7e             5361 	.byte	126
000006ea 02             5362 	.byte	2
000006eb 00             5363 	.byte	0
000006ec 01             5364 	.byte	1
000006ed 000502         5365 	.byte	0,5,2
000006f0 00000000*      5366 	.word	.LDWlin45
000006f4 0d             5367 	.byte	13
000006f5 0c             5368 	.byte	12
000006f6 1b             5369 	.byte	27
000006f7 0c             5370 	.byte	12
000006f8 02             5371 	.byte	2
000006f9 00             5372 	.byte	0
000006fa 0b             5373 	.byte	11
000006fb 02             5374 	.byte	2
000006fc 04             5375 	.byte	4
000006fd 000101         5376 	.byte	0,1,1
                        5377 	.section	.debug_info
                        5378 .LDW_4be6098:
00001710 0f             5379 	.byte	15
00001711 55385f426c6f   5380 	.strz	"U8_BlockNumber"
00001717 636b4e756d62 
0000171d 657200 
00001720 ac01           5381 	.byte	172,1
00001722 2e             5382 	.byte	46
00001723 01             5383 	.byte	1
00001724 00000000*      5384 	.word	.LDW_40c9d08
00001728 00             5385 	.byte	0
00001729 0156           5386 	.byte	1,86
                        5387 
                        5388 .LDW_4be5fe8:
0000172b 0f             5389 	.byte	15
0000172c 5055385f4461   5390 	.strz	"PU8_Data"
00001732 746100 
00001735 ac01           5391 	.byte	172,1
00001737 45             5392 	.byte	69
00001738 01             5393 	.byte	1
00001739 00000000*      5394 	.word	.LDW_4087378
0000173d 00             5395 	.byte	0
0000173e 0157           5396 	.byte	1,87
                        5397 
                        5398 .LDW_40ce5c0:
00001740 1d             5399 	.byte	29
00001741 00000000*      5400 	.word	.LDW81
00001745 00000000*      5401 	.word	.LDW91
                        5402 
                        5403 .LDW_4be6250:
00001749 04             5404 	.byte	4
0000174a 535f46646c52   5405 	.strz	"S_FdlRequest"
00001750 657175657374 
00001756 00 
00001757 af01           5406 	.byte	175,1

                                                                      Page 102
                                                              C:\Users\nhuliyap\AppData\Local\Temp\gh_000048k1.s
00001759 13             5407 	.byte	19
0000175a 01             5408 	.byte	1
0000175b 00000000*      5409 	.word	.LDW_4be5f38
0000175f 00             5410 	.byte	0
00001760 00             5411 	.byte	0
00001761 0273           5412 	.byte	2,115
00001763 00             5413 	.byte	0
                        5414 
00001764 00             5415 	.byte	0
                        5416 
00001765 00             5417 	.byte	0
                        5418 
                        5419 .LDW_4be6718:
00001766 14             5420 	.byte	20
00001767 50524f44464c   5421 	.strz	"PRODFLASH__GetSizeOfMember"
0000176d 4153485f5f47 
00001773 657453697a65 
00001779 4f664d656d62 
0000177f 657200 
00001782 c401           5422 	.byte	196,1
00001784 0f             5423 	.byte	15
00001785 01             5424 	.byte	1
00001786 00000000*      5425 	.word	.LDW_40c9f00
0000178a 00000000*      5426 	.word	_PRODFLASH__GetSizeOfMember..C.3A.5C_ECU2.5CECU_Rivian_A1.5CTarget.5Crepo_projects.5CpRealEcu.5CcL_R2023.2E09.2E01.5Cmake.5Coutput.5Cobjects.5CProductionFlashInterface.
0000178e 00000000*      5427 	.word	___ghs_eofn_PRODFLASH__GetSizeOfMember
00001792 0153           5428 	.byte	1,83
00001794 02             5429 	.byte	2
00001795 00             5430 	.byte	0
00001796 02             5431 	.byte	2
00001797 00             5432 	.byte	0
00001798 00             5433 	.byte	0
00001799 00             5434 	.byte	0
0000179a 00             5435 	.byte	0
0000179b 00             5436 	.byte	0
0000179c 01             5437 	.byte	1
0000179d 00             5438 	.byte	0
0000179e 01             5439 	.byte	1
                        5440 
                        5441 	.section	.debug_frame
                        5442 .LDW_4c6fca8:
00000108 00000000*      5443 	.word	.LDW_unq_e-.LDW_unq_d
                        5444 .LDW_unq_d:
0000010c 00000000*      5445 	.word	.LDW_4cccd08
00000110 00000000*      5446 	.word	_PRODFLASH__GetSizeOfMember..C.3A.5C_ECU2.5CECU_Rivian_A1.5CTarget.5Crepo_projects.5CpRealEcu.5CcL_R2023.2E09.2E01.5Cmake.5Coutput.5Cobjects.5CProductionFlashInterface.
00000114 00000000*      5447 	.word	___ghs_eofn_PRODFLASH__GetSizeOfMember-_PRODFLASH__GetSizeOfMember..C.3A.5C_ECU2.5CECU_Rivian_A1.5CTarget.5Crepo_projects.5CpRealEcu.5CcL_R2023.2E09.2E01.5Cmake.5Coutput.5Cobjects.5CProductionFlashInterface.
00000118 01             5448 	.byte	1
00000119 00000000*      5449 	.word	.LDW12
0000011d 00             5450 	.byte	0
0000011e 00             5451 	.byte	0
0000011f 00             5452 	.byte	0
                        5453 .LDW_unq_e:
                        5454 	.section	.debug_line
00000700 000502         5455 	.byte	0,5,2
00000703 00000000*      5456 	.word	_PRODFLASH__GetSizeOfMember..C.3A.5C_ECU2.5CECU_Rivian_A1.5CTarget.5Crepo_projects.5CpRealEcu.5CcL_R2023.2E09.2E01.5Cmake.5Coutput.5Cobjects.5CProductionFlashInterface.
00000707 03             5457 	.byte	3
00000708 c401           5458 	.byte	196,1
0000070a 02             5459 	.byte	2
0000070b 00             5460 	.byte	0
0000070c 01             5461 	.byte	1
0000070d 06             5462 	.byte	6
0000070e 1b             5463 	.byte	27

                                                                      Page 103
                                                              C:\Users\nhuliyap\AppData\Local\Temp\gh_000048k1.s
0000070f 14             5464 	.byte	20
00000710 000502         5465 	.byte	0,5,2
00000713 00000000*      5466 	.word	.LDWlin46
00000717 03             5467 	.byte	3
00000718 04             5468 	.byte	4
00000719 02             5469 	.byte	2
0000071a 00             5470 	.byte	0
0000071b 01             5471 	.byte	1
0000071c 0d             5472 	.byte	13
0000071d 0d             5473 	.byte	13
0000071e 0d             5474 	.byte	13
0000071f 0d             5475 	.byte	13
00000720 0d             5476 	.byte	13
00000721 0d             5477 	.byte	13
00000722 06             5478 	.byte	6
00000723 03             5479 	.byte	3
00000724 70             5480 	.byte	112
00000725 02             5481 	.byte	2
00000726 00             5482 	.byte	0
00000727 01             5483 	.byte	1
00000728 0d             5484 	.byte	13
00000729 03             5485 	.byte	3
0000072a 0c             5486 	.byte	12
0000072b 02             5487 	.byte	2
0000072c 00             5488 	.byte	0
0000072d 01             5489 	.byte	1
0000072e 06             5490 	.byte	6
0000072f 0d             5491 	.byte	13
00000730 0b             5492 	.byte	11
00000731 0d             5493 	.byte	13
00000732 0c             5494 	.byte	12
00000733 0b             5495 	.byte	11
00000734 0c             5496 	.byte	12
00000735 0b             5497 	.byte	11
00000736 0d             5498 	.byte	13
00000737 0d             5499 	.byte	13
00000738 06             5500 	.byte	6
00000739 03             5501 	.byte	3
0000073a 7c             5502 	.byte	124
0000073b 02             5503 	.byte	2
0000073c 00             5504 	.byte	0
0000073d 01             5505 	.byte	1
0000073e 06             5506 	.byte	6
0000073f 03             5507 	.byte	3
00000740 06             5508 	.byte	6
00000741 02             5509 	.byte	2
00000742 00             5510 	.byte	0
00000743 01             5511 	.byte	1
00000744 0b             5512 	.byte	11
00000745 06             5513 	.byte	6
00000746 03             5514 	.byte	3
00000747 61             5515 	.byte	97
00000748 02             5516 	.byte	2
00000749 00             5517 	.byte	0
0000074a 01             5518 	.byte	1
0000074b 0d             5519 	.byte	13
0000074c 0d             5520 	.byte	13
0000074d 03             5521 	.byte	3
0000074e 15             5522 	.byte	21
0000074f 02             5523 	.byte	2
00000750 00             5524 	.byte	0

                                                                      Page 104
                                                              C:\Users\nhuliyap\AppData\Local\Temp\gh_000048k1.s
00000751 01             5525 	.byte	1
00000752 06             5526 	.byte	6
00000753 03             5527 	.byte	3
00000754 06             5528 	.byte	6
00000755 02             5529 	.byte	2
00000756 00             5530 	.byte	0
00000757 01             5531 	.byte	1
00000758 0b             5532 	.byte	11
00000759 0c             5533 	.byte	12
0000075a 0b             5534 	.byte	11
0000075b 0d             5535 	.byte	13
0000075c 0d             5536 	.byte	13
0000075d 0d             5537 	.byte	13
0000075e 0d             5538 	.byte	13
0000075f 0d             5539 	.byte	13
00000760 0d             5540 	.byte	13
00000761 0d             5541 	.byte	13
00000762 0d             5542 	.byte	13
00000763 06             5543 	.byte	6
00000764 03             5544 	.byte	3
00000765 7c             5545 	.byte	124
00000766 02             5546 	.byte	2
00000767 00             5547 	.byte	0
00000768 01             5548 	.byte	1
00000769 06             5549 	.byte	6
0000076a 03             5550 	.byte	3
0000076b 06             5551 	.byte	6
0000076c 02             5552 	.byte	2
0000076d 00             5553 	.byte	0
0000076e 01             5554 	.byte	1
0000076f 0b             5555 	.byte	11
00000770 06             5556 	.byte	6
00000771 03             5557 	.byte	3
00000772 7c             5558 	.byte	124
00000773 02             5559 	.byte	2
00000774 00             5560 	.byte	0
00000775 01             5561 	.byte	1
00000776 06             5562 	.byte	6
00000777 03             5563 	.byte	3
00000778 06             5564 	.byte	6
00000779 02             5565 	.byte	2
0000077a 00             5566 	.byte	0
0000077b 01             5567 	.byte	1
0000077c 0b             5568 	.byte	11
0000077d 0d             5569 	.byte	13
0000077e 0c             5570 	.byte	12
0000077f 0b             5571 	.byte	11
00000780 06             5572 	.byte	6
00000781 03             5573 	.byte	3
00000782 5e             5574 	.byte	94
00000783 02             5575 	.byte	2
00000784 00             5576 	.byte	0
00000785 01             5577 	.byte	1
00000786 0d             5578 	.byte	13
00000787 03             5579 	.byte	3
00000788 06             5580 	.byte	6
00000789 02             5581 	.byte	2
0000078a 00             5582 	.byte	0
0000078b 01             5583 	.byte	1
0000078c 0d             5584 	.byte	13
0000078d 06             5585 	.byte	6

                                                                      Page 105
                                                              C:\Users\nhuliyap\AppData\Local\Temp\gh_000048k1.s
0000078e 03             5586 	.byte	3
0000078f 18             5587 	.byte	24
00000790 02             5588 	.byte	2
00000791 00             5589 	.byte	0
00000792 01             5590 	.byte	1
00000793 0b             5591 	.byte	11
00000794 0c             5592 	.byte	12
00000795 0b             5593 	.byte	11
00000796 06             5594 	.byte	6
00000797 03             5595 	.byte	3
00000798 40             5596 	.byte	64
00000799 02             5597 	.byte	2
0000079a 00             5598 	.byte	0
0000079b 01             5599 	.byte	1
0000079c 03             5600 	.byte	3
0000079d 1e             5601 	.byte	30
0000079e 02             5602 	.byte	2
0000079f 00             5603 	.byte	0
000007a0 01             5604 	.byte	1
000007a1 03             5605 	.byte	3
000007a2 09             5606 	.byte	9
000007a3 02             5607 	.byte	2
000007a4 00             5608 	.byte	0
000007a5 01             5609 	.byte	1
000007a6 06             5610 	.byte	6
000007a7 03             5611 	.byte	3
000007a8 1b             5612 	.byte	27
000007a9 02             5613 	.byte	2
000007aa 00             5614 	.byte	0
000007ab 01             5615 	.byte	1
000007ac 0b             5616 	.byte	11
000007ad 0c             5617 	.byte	12
000007ae 0b             5618 	.byte	11
000007af 06             5619 	.byte	6
000007b0 03             5620 	.byte	3
000007b1 a27f           5621 	.byte	162,127
000007b3 02             5622 	.byte	2
000007b4 00             5623 	.byte	0
000007b5 01             5624 	.byte	1
000007b6 03             5625 	.byte	3
000007b7 ce00           5626 	.byte	206,0
000007b9 02             5627 	.byte	2
000007ba 00             5628 	.byte	0
000007bb 01             5629 	.byte	1
000007bc 06             5630 	.byte	6
000007bd 03             5631 	.byte	3
000007be 12             5632 	.byte	18
000007bf 02             5633 	.byte	2
000007c0 00             5634 	.byte	0
000007c1 01             5635 	.byte	1
000007c2 000502         5636 	.byte	0,5,2
000007c5 00000000*      5637 	.word	.LDWlin47
000007c9 0d             5638 	.byte	13
000007ca 0b             5639 	.byte	11
000007cb 0b             5640 	.byte	11
000007cc 0b             5641 	.byte	11
000007cd 0b             5642 	.byte	11
000007ce 0c             5643 	.byte	12
000007cf 02             5644 	.byte	2
000007d0 02             5645 	.byte	2
000007d1 000101         5646 	.byte	0,1,1

                                                                      Page 106
                                                              C:\Users\nhuliyap\AppData\Local\Temp\gh_000048k1.s
                        5647 	.section	.debug_info
                        5648 .LDW_4be6300:
0000179f 0f             5649 	.byte	15
000017a0 454e5f4d656d   5650 	.strz	"EN_Member"
000017a6 62657200 
000017aa c401           5651 	.byte	196,1
000017ac 4a             5652 	.byte	74
000017ad 01             5653 	.byte	1
000017ae 00000000*      5654 	.word	.LDW_409c070
000017b2 00             5655 	.byte	0
000017b3 0156           5656 	.byte	1,86
                        5657 
                        5658 .LDW_40ce6b0:
000017b5 1d             5659 	.byte	29
000017b6 00000000*      5660 	.word	.LDW02
000017ba 00000000*      5661 	.word	.LDW12
                        5662 
                        5663 .LDW_4be61a0:
000017be 04             5664 	.byte	4
000017bf 5531365f5369   5665 	.strz	"U16_SizeOfMember"
000017c5 7a654f664d65 
000017cb 6d62657200 
000017d0 c601           5666 	.byte	198,1
000017d2 0a             5667 	.byte	10
000017d3 01             5668 	.byte	1
000017d4 00000000*      5669 	.word	.LDW_40c9f00
000017d8 00             5670 	.byte	0
000017d9 00             5671 	.byte	0
000017da 015a           5672 	.byte	1,90
                        5673 
000017dc 00             5674 	.byte	0
                        5675 
000017dd 00             5676 	.byte	0
                        5677 
                        5678 .LDW_4be67b0:
000017de 13             5679 	.byte	19
000017df 50524f44464c   5680 	.strz	"PRODFLASH__WriteProductionDataMember"
000017e5 4153485f5f57 
000017eb 726974655072 
000017f1 6f6475637469 
000017f7 6f6e44617461 
000017fd 4d656d626572 
00001803 00 
00001804 b702           5681 	.byte	183,2
00001806 0d             5682 	.byte	13
00001807 01             5683 	.byte	1
00001808 00000000*      5684 	.word	_PRODFLASH__WriteProductionDataMember..C.3A.5C_ECU2.5CECU_Rivian_A1.5CTarget.5Crepo_projects.5CpRealEcu.5CcL_R2023.2E09.2E01.5Cmake.5Coutput.5Cobjects.5CProductionFlashInterface.
0000180c 00000000*      5685 	.word	___ghs_eofn_PRODFLASH__WriteProductionDataMember
00001810 0153           5686 	.byte	1,83
00001812 828080fc0b     5687 	.byte	130,128,128,252,11
00001817 20             5688 	.byte	32
00001818 03             5689 	.byte	3
00001819 e000           5690 	.byte	224,0
0000181b 00             5691 	.byte	0
0000181c 00             5692 	.byte	0
0000181d 00             5693 	.byte	0
0000181e 00             5694 	.byte	0
0000181f 01             5695 	.byte	1
00001820 00             5696 	.byte	0
00001821 01             5697 	.byte	1
                        5698 

                                                                      Page 107
                                                              C:\Users\nhuliyap\AppData\Local\Temp\gh_000048k1.s
                        5699 	.section	.debug_frame
                        5700 .LDW_4c70068:
00000120 00000000*      5701 	.word	.LDW_unq_10-.LDW_unq_f
                        5702 .LDW_unq_f:
00000124 00000000*      5703 	.word	.LDW_4cccd08
00000128 00000000*      5704 	.word	_PRODFLASH__WriteProductionDataMember..C.3A.5C_ECU2.5CECU_Rivian_A1.5CTarget.5Crepo_projects.5CpRealEcu.5CcL_R2023.2E09.2E01.5Cmake.5Coutput.5Cobjects.5CProductionFlashInterface.
0000012c 00000000*      5705 	.word	___ghs_eofn_PRODFLASH__WriteProductionDataMember-_PRODFLASH__WriteProductionDataMember..C.3A.5C_ECU2.5CECU_Rivian_A1.5CTarget.5Crepo_projects.5CpRealEcu.5CcL_R2023.2E09.2E01.5Cmake.5Coutput.5Cobjects.5CProductionFlashInterface.
00000130 44             5706 	.byte	68
00000131 9f             5707 	.byte	159
00000132 30             5708 	.byte	48
00000133 40             5709 	.byte	64
00000134 9d             5710 	.byte	157
00000135 34             5711 	.byte	52
00000136 40             5712 	.byte	64
00000137 9c             5713 	.byte	156
00000138 38             5714 	.byte	56
00000139 40             5715 	.byte	64
0000013a 9b             5716 	.byte	155
0000013b 3c             5717 	.byte	60
0000013c 40             5718 	.byte	64
0000013d 9a             5719 	.byte	154
0000013e 40             5720 	.byte	64
0000013f 40             5721 	.byte	64
00000140 99             5722 	.byte	153
00000141 44             5723 	.byte	68
00000142 40             5724 	.byte	64
00000143 98             5725 	.byte	152
00000144 48             5726 	.byte	72
00000145 40             5727 	.byte	64
00000146 97             5728 	.byte	151
00000147 4c             5729 	.byte	76
00000148 01             5730 	.byte	1
00000149 00000000*      5731 	.word	.LDW52
0000014d 00             5732 	.byte	0
0000014e 00             5733 	.byte	0
0000014f 00             5734 	.byte	0
                        5735 .LDW_unq_10:
                        5736 	.section	.debug_line
000007d4 000502         5737 	.byte	0,5,2
000007d7 00000000*      5738 	.word	_PRODFLASH__WriteProductionDataMember..C.3A.5C_ECU2.5CECU_Rivian_A1.5CTarget.5Crepo_projects.5CpRealEcu.5CcL_R2023.2E09.2E01.5Cmake.5Coutput.5Cobjects.5CProductionFlashInterface.
000007db 03             5739 	.byte	3
000007dc b702           5740 	.byte	183,2
000007de 02             5741 	.byte	2
000007df 00             5742 	.byte	0
000007e0 01             5743 	.byte	1
000007e1 06             5744 	.byte	6
000007e2 03             5745 	.byte	3
000007e3 08             5746 	.byte	8
000007e4 02             5747 	.byte	2
000007e5 0c             5748 	.byte	12
000007e6 01             5749 	.byte	1
000007e7 14             5750 	.byte	20
000007e8 000502         5751 	.byte	0,5,2
000007eb 00000000*      5752 	.word	.LDWlin48
000007ef 0c             5753 	.byte	12
000007f0 000502         5754 	.byte	0,5,2
000007f3 00000000*      5755 	.word	.LDWlin49
000007f7 0c             5756 	.byte	12
000007f8 000502         5757 	.byte	0,5,2
000007fb 00000000*      5758 	.word	.LDWlin50
000007ff 0c             5759 	.byte	12

                                                                      Page 108
                                                              C:\Users\nhuliyap\AppData\Local\Temp\gh_000048k1.s
00000800 000502         5760 	.byte	0,5,2
00000803 00000000*      5761 	.word	.LDWlin51
00000807 0c             5762 	.byte	12
00000808 02             5763 	.byte	2
00000809 02             5764 	.byte	2
0000080a 000502         5765 	.byte	0,5,2
0000080d 00000000*      5766 	.word	.LDWlin52
00000811 03             5767 	.byte	3
00000812 05             5768 	.byte	5
00000813 02             5769 	.byte	2
00000814 00             5770 	.byte	0
00000815 01             5771 	.byte	1
00000816 02             5772 	.byte	2
00000817 02             5773 	.byte	2
00000818 0c             5774 	.byte	12
00000819 000502         5775 	.byte	0,5,2
0000081c 00000000*      5776 	.word	.LDWlin53
00000820 03             5777 	.byte	3
00000821 7e             5778 	.byte	126
00000822 02             5779 	.byte	2
00000823 00             5780 	.byte	0
00000824 01             5781 	.byte	1
00000825 000502         5782 	.byte	0,5,2
00000828 00000000*      5783 	.word	.LDWlin54
0000082c 0d             5784 	.byte	13
0000082d 0c             5785 	.byte	12
0000082e 000502         5786 	.byte	0,5,2
00000831 00000000*      5787 	.word	.LDWlin55
00000835 0c             5788 	.byte	12
00000836 33             5789 	.byte	51
00000837 0d             5790 	.byte	13
00000838 0b             5791 	.byte	11
00000839 0d             5792 	.byte	13
0000083a 02             5793 	.byte	2
0000083b 00             5794 	.byte	0
0000083c 0d             5795 	.byte	13
0000083d 000502         5796 	.byte	0,5,2
00000840 00000000*      5797 	.word	.LDWlin56
00000844 0c             5798 	.byte	12
00000845 43             5799 	.byte	67
00000846 13             5800 	.byte	19
00000847 03             5801 	.byte	3
00000848 7c             5802 	.byte	124
00000849 02             5803 	.byte	2
0000084a 08             5804 	.byte	8
0000084b 01             5805 	.byte	1
0000084c 000502         5806 	.byte	0,5,2
0000084f 00000000*      5807 	.word	.LDWlin57
00000853 03             5808 	.byte	3
00000854 05             5809 	.byte	5
00000855 02             5810 	.byte	2
00000856 00             5811 	.byte	0
00000857 01             5812 	.byte	1
00000858 0c             5813 	.byte	12
00000859 000502         5814 	.byte	0,5,2
0000085c 00000000*      5815 	.word	.LDWlin58
00000860 03             5816 	.byte	3
00000861 62             5817 	.byte	98
00000862 02             5818 	.byte	2
00000863 00             5819 	.byte	0
00000864 01             5820 	.byte	1

                                                                      Page 109
                                                              C:\Users\nhuliyap\AppData\Local\Temp\gh_000048k1.s
00000865 000502         5821 	.byte	0,5,2
00000868 00000000*      5822 	.word	.LDWlin59
0000086c 03             5823 	.byte	3
0000086d 1f             5824 	.byte	31
0000086e 02             5825 	.byte	2
0000086f 00             5826 	.byte	0
00000870 01             5827 	.byte	1
00000871 0b             5828 	.byte	11
00000872 02             5829 	.byte	2
00000873 04             5830 	.byte	4
00000874 000101         5831 	.byte	0,1,1
                        5832 	.section	.debug_info
                        5833 .LDW_4be6670:
00001822 0f             5834 	.byte	15
00001823 454e5f4d656d   5835 	.strz	"EN_Member"
00001829 62657200 
0000182d b702           5836 	.byte	183,2
0000182f 52             5837 	.byte	82
00001830 01             5838 	.byte	1
00001831 00000000*      5839 	.word	.LDW_409c070
00001835 00             5840 	.byte	0
00001836 016d           5841 	.byte	1,109
                        5842 
                        5843 .LDW_4be63b0:
00001838 0f             5844 	.byte	15
00001839 5055385f4461   5845 	.strz	"PU8_Data"
0000183f 746100 
00001842 b702           5846 	.byte	183,2
00001844 6a             5847 	.byte	106
00001845 01             5848 	.byte	1
00001846 00000000*      5849 	.word	.LDW_4086ee0
0000184a 00             5850 	.byte	0
0000184b 0167           5851 	.byte	1,103
                        5852 
                        5853 .LDW_4be60f0:
0000184d 0f             5854 	.byte	15
0000184e 55385f4c656e   5855 	.strz	"U8_Length"
00001854 67746800 
00001858 b702           5856 	.byte	183,2
0000185a 8001           5857 	.byte	128,1
0000185c 01             5858 	.byte	1
0000185d 00000000*      5859 	.word	.LDW_4be6358
00001861 00             5860 	.byte	0
00001862 0169           5861 	.byte	1,105
                        5862 
                        5863 .LDW_40cea40:
00001864 1d             5864 	.byte	29
00001865 00000000*      5865 	.word	.LDW22
00001869 00000000*      5866 	.word	.LDW52
                        5867 
                        5868 .LDW_4be6408:
0000186d 04             5869 	.byte	4
0000186e 4155385f466c   5870 	.strz	"AU8_FlashBlockBuffer"
00001874 617368426c6f 
0000187a 636b42756666 
00001880 657200 
00001883 b902           5871 	.byte	185,2
00001885 09             5872 	.byte	9
00001886 01             5873 	.byte	1
00001887 00000000*      5874 	.word	.LDW_40ca330
0000188b 00             5875 	.byte	0

                                                                      Page 110
                                                              C:\Users\nhuliyap\AppData\Local\Temp\gh_000048k1.s
0000188c 00             5876 	.byte	0
0000188d 0273           5877 	.byte	2,115
0000188f 00             5878 	.byte	0
                        5879 
                        5880 .LDW_4be5f90:
00001890 04             5881 	.byte	4
00001891 5533325f4164   5882 	.strz	"U32_AddressOfMember"
00001897 64726573734f 
0000189d 664d656d6265 
000018a3 7200 
000018a5 ba02           5883 	.byte	186,2
000018a7 0a             5884 	.byte	10
000018a8 01             5885 	.byte	1
000018a9 00000000*      5886 	.word	.LDW_40cef88
000018ad 00             5887 	.byte	0
000018ae 00             5888 	.byte	0
000018af 016b           5889 	.byte	1,107
                        5890 
                        5891 .LDW_4be64b8:
000018b1 04             5892 	.byte	4
000018b2 5531365f5369   5893 	.strz	"U16_SizeOfMember"
000018b8 7a654f664d65 
000018be 6d62657200 
000018c3 bb02           5894 	.byte	187,2
000018c5 0a             5895 	.byte	10
000018c6 01             5896 	.byte	1
000018c7 00000000*      5897 	.word	.LDW_40c9f00
000018cb 00             5898 	.byte	0
000018cc 00             5899 	.byte	0
000018cd 016d           5900 	.byte	1,109
                        5901 
                        5902 .LDW_4be6040:
000018cf 04             5903 	.byte	4
000018d0 55385f537461   5904 	.strz	"U8_StartBlockNumber"
000018d6 7274426c6f63 
000018dc 6b4e756d6265 
000018e2 7200 
000018e4 bc02           5905 	.byte	188,2
000018e6 09             5906 	.byte	9
000018e7 01             5907 	.byte	1
000018e8 00000000*      5908 	.word	.LDW_40c9d08
000018ec 00             5909 	.byte	0
000018ed 00             5910 	.byte	0
000018ee 016a           5911 	.byte	1,106
                        5912 
                        5913 .LDW_4be6510:
000018f0 04             5914 	.byte	4
000018f1 55385f456e64   5915 	.strz	"U8_EndBlockNumber"
000018f7 426c6f636b4e 
000018fd 756d62657200 
00001903 bd02           5916 	.byte	189,2
00001905 09             5917 	.byte	9
00001906 01             5918 	.byte	1
00001907 00000000*      5919 	.word	.LDW_40c9d08
0000190b 00             5920 	.byte	0
0000190c 00             5921 	.byte	0
0000190d 0168           5922 	.byte	1,104
                        5923 
                        5924 .LDW_4be6460:
0000190f 04             5925 	.byte	4
00001910 55385f426c6f   5926 	.strz	"U8_BlockNumberCounter"

                                                                      Page 111
                                                              C:\Users\nhuliyap\AppData\Local\Temp\gh_000048k1.s
00001916 636b4e756d62 
0000191c 6572436f756e 
00001922 74657200 
00001926 be02           5927 	.byte	190,2
00001928 09             5928 	.byte	9
00001929 01             5929 	.byte	1
0000192a 00000000*      5930 	.word	.LDW_40c9d08
0000192e 00             5931 	.byte	0
0000192f 00             5932 	.byte	0
00001930 016d           5933 	.byte	1,109
                        5934 
                        5935 .LDW_4be6568:
00001932 04             5936 	.byte	4
00001933 55385f427566   5937 	.strz	"U8_BufferCounter"
00001939 666572436f75 
0000193f 6e74657200 
00001944 bf02           5938 	.byte	191,2
00001946 09             5939 	.byte	9
00001947 01             5940 	.byte	1
00001948 00000000*      5941 	.word	.LDW_40c9d08
0000194c 00             5942 	.byte	0
0000194d 00             5943 	.byte	0
0000194e 0161           5944 	.byte	1,97
                        5945 
                        5946 .LDW_4be65c0:
00001950 04             5947 	.byte	4
00001951 55385f427974   5948 	.strz	"U8_BytesToWrite"
00001957 6573546f5772 
0000195d 69746500 
00001961 c002           5949 	.byte	192,2
00001963 09             5950 	.byte	9
00001964 01             5951 	.byte	1
00001965 00000000*      5952 	.word	.LDW_40c9d08
00001969 00             5953 	.byte	0
0000196a 00             5954 	.byte	0
0000196b 016c           5955 	.byte	1,108
                        5956 
                        5957 .LDW_40cea70:
0000196d 1d             5958 	.byte	29
0000196e 00000000*      5959 	.word	.LDW32
00001972 00000000*      5960 	.word	.LDW42
                        5961 
                        5962 .LDW_4be6618:
00001976 04             5963 	.byte	4
00001977 55385f537461   5964 	.strz	"U8_StartPositionOfWrite"
0000197d 7274506f7369 
00001983 74696f6e4f66 
00001989 577269746500 
0000198f cc02           5965 	.byte	204,2
00001991 0a             5966 	.byte	10
00001992 01             5967 	.byte	1
00001993 00000000*      5968 	.word	.LDW_40c9d08
00001997 00             5969 	.byte	0
00001998 00             5970 	.byte	0
00001999 0162           5971 	.byte	1,98
                        5972 
                        5973 .LDW_4be6148:
0000199b 04             5974 	.byte	4
0000199c 55385f437572   5975 	.strz	"U8_CurrentPositionOfWrite"
000019a2 72656e74506f 
000019a8 736974696f6e 

                                                                      Page 112
                                                              C:\Users\nhuliyap\AppData\Local\Temp\gh_000048k1.s
000019ae 4f6657726974 
000019b4 6500 
000019b6 cd02           5976 	.byte	205,2
000019b8 0a             5977 	.byte	10
000019b9 01             5978 	.byte	1
000019ba 00000000*      5979 	.word	.LDW_40c9d08
000019be 00             5980 	.byte	0
000019bf 00             5981 	.byte	0
000019c0 0162           5982 	.byte	1,98
                        5983 
000019c2 00             5984 	.byte	0
                        5985 
000019c3 00             5986 	.byte	0
                        5987 
000019c4 00             5988 	.byte	0
                        5989 
                        5990 .LDW_4be6848:
000019c5 14             5991 	.byte	20
000019c6 50524f44464c   5992 	.strz	"PRODFLASH_GetGenealogyBlockStartAddress"
000019cc 4153485f4765 
000019d2 7447656e6561 
000019d8 6c6f6779426c 
000019de 6f636b537461 
000019e4 727441646472 
000019ea 65737300 
000019ee ec02           5993 	.byte	236,2
000019f0 08             5994 	.byte	8
000019f1 01             5995 	.byte	1
000019f2 00000000*      5996 	.word	.LDW_4087378
000019f6 00000000*      5997 	.word	_PRODFLASH_GetGenealogyBlockStartAddress
000019fa 00000000*      5998 	.word	___ghs_eofn_PRODFLASH_GetGenealogyBlockStartAddress
000019fe 0153           5999 	.byte	1,83
00001a00 02             6000 	.byte	2
00001a01 00             6001 	.byte	0
00001a02 02             6002 	.byte	2
00001a03 00             6003 	.byte	0
00001a04 00             6004 	.byte	0
00001a05 00             6005 	.byte	0
00001a06 00             6006 	.byte	0
00001a07 01             6007 	.byte	1
00001a08 01             6008 	.byte	1
00001a09 00             6009 	.byte	0
00001a0a 01             6010 	.byte	1
                        6011 
                        6012 	.section	.debug_frame
                        6013 .LDW_4c6fe68:
00000150 00000000*      6014 	.word	.LDW_unq_12-.LDW_unq_11
                        6015 .LDW_unq_11:
00000154 00000000*      6016 	.word	.LDW_4cccd08
00000158 00000000*      6017 	.word	_PRODFLASH_GetGenealogyBlockStartAddress
0000015c 00000000*      6018 	.word	___ghs_eofn_PRODFLASH_GetGenealogyBlockStartAddress-_PRODFLASH_GetGenealogyBlockStartAddress
00000160 01             6019 	.byte	1
00000161 00000000*      6020 	.word	.LDW72
00000165 00             6021 	.byte	0
00000166 00             6022 	.byte	0
00000167 00             6023 	.byte	0
                        6024 .LDW_unq_12:
                        6025 	.section	.debug_line
00000877 000502         6026 	.byte	0,5,2
0000087a 00000000*      6027 	.word	_PRODFLASH_GetGenealogyBlockStartAddress
0000087e 06             6028 	.byte	6

                                                                      Page 113
                                                              C:\Users\nhuliyap\AppData\Local\Temp\gh_000048k1.s
0000087f 03             6029 	.byte	3
00000880 ec02           6030 	.byte	236,2
00000882 02             6031 	.byte	2
00000883 00             6032 	.byte	0
00000884 01             6033 	.byte	1
00000885 06             6034 	.byte	6
00000886 000502         6035 	.byte	0,5,2
00000889 00000000*      6036 	.word	.LDWlin60
0000088d 02             6037 	.byte	2
0000088e 00             6038 	.byte	0
0000088f 02             6039 	.byte	2
00000890 02             6040 	.byte	2
00000891 000101         6041 	.byte	0,1,1
                        6042 	.section	.debug_info
                        6043 .LDW_40ceaa0:
00001a0b 1d             6044 	.byte	29
00001a0c 00000000*      6045 	.word	.LDW62
00001a10 00000000*      6046 	.word	.LDW72
                        6047 
00001a14 00             6048 	.byte	0
                        6049 
00001a15 00             6050 	.byte	0
                        6051 
                        6052 .LDW_4be68e0:
00001a16 14             6053 	.byte	20
00001a17 50524f44464c   6054 	.strz	"PRODFLASH_GetCustomerHwPartNumber"
00001a1d 4153485f4765 
00001a23 74437573746f 
00001a29 6d6572487750 
00001a2f 6172744e756d 
00001a35 62657200 
00001a39 f002           6055 	.byte	240,2
00001a3b 07             6056 	.byte	7
00001a3c 01             6057 	.byte	1
00001a3d 00000000*      6058 	.word	.LDW_40c9d08
00001a41 00000000*      6059 	.word	_PRODFLASH_GetCustomerHwPartNumber
00001a45 00000000*      6060 	.word	___ghs_eofn_PRODFLASH_GetCustomerHwPartNumber
00001a49 0153           6061 	.byte	1,83
00001a4b 828080800a     6062 	.byte	130,128,128,128,10
00001a50 08             6063 	.byte	8
00001a51 03             6064 	.byte	3
00001a52 08             6065 	.byte	8
00001a53 00             6066 	.byte	0
00001a54 00             6067 	.byte	0
00001a55 00             6068 	.byte	0
00001a56 01             6069 	.byte	1
00001a57 01             6070 	.byte	1
00001a58 00             6071 	.byte	0
00001a59 01             6072 	.byte	1
                        6073 
                        6074 	.section	.debug_frame
                        6075 .LDW_4c6fba8:
00000168 00000000*      6076 	.word	.LDW_unq_14-.LDW_unq_13
                        6077 .LDW_unq_13:
0000016c 00000000*      6078 	.word	.LDW_4cccd08
00000170 00000000*      6079 	.word	_PRODFLASH_GetCustomerHwPartNumber
00000174 00000000*      6080 	.word	___ghs_eofn_PRODFLASH_GetCustomerHwPartNumber-_PRODFLASH_GetCustomerHwPartNumber
00000178 44             6081 	.byte	68
00000179 9f             6082 	.byte	159
0000017a 00             6083 	.byte	0
0000017b 40             6084 	.byte	64

                                                                      Page 114
                                                              C:\Users\nhuliyap\AppData\Local\Temp\gh_000048k1.s
0000017c 9d             6085 	.byte	157
0000017d 04             6086 	.byte	4
0000017e 01             6087 	.byte	1
0000017f 00000000*      6088 	.word	.LDW92
00000183 00             6089 	.byte	0
                        6090 .LDW_unq_14:
                        6091 	.section	.debug_line
00000894 000502         6092 	.byte	0,5,2
00000897 00000000*      6093 	.word	_PRODFLASH_GetCustomerHwPartNumber
0000089b 03             6094 	.byte	3
0000089c f002           6095 	.byte	240,2
0000089e 02             6096 	.byte	2
0000089f 00             6097 	.byte	0
000008a0 01             6098 	.byte	1
000008a1 06             6099 	.byte	6
000008a2 03             6100 	.byte	3
000008a3 05             6101 	.byte	5
000008a4 02             6102 	.byte	2
000008a5 06             6103 	.byte	6
000008a6 01             6104 	.byte	1
000008a7 06             6105 	.byte	6
000008a8 000502         6106 	.byte	0,5,2
000008ab 00000000*      6107 	.word	.LDWlin61
000008af 03             6108 	.byte	3
000008b0 06             6109 	.byte	6
000008b1 02             6110 	.byte	2
000008b2 00             6111 	.byte	0
000008b3 01             6112 	.byte	1
000008b4 03             6113 	.byte	3
000008b5 7c             6114 	.byte	124
000008b6 02             6115 	.byte	2
000008b7 00             6116 	.byte	0
000008b8 01             6117 	.byte	1
000008b9 03             6118 	.byte	3
000008ba 7e             6119 	.byte	126
000008bb 02             6120 	.byte	2
000008bc 00             6121 	.byte	0
000008bd 01             6122 	.byte	1
000008be 06             6123 	.byte	6
000008bf 000502         6124 	.byte	0,5,2
000008c2 00000000*      6125 	.word	.LDWlin62
000008c6 0d             6126 	.byte	13
000008c7 000502         6127 	.byte	0,5,2
000008ca 00000000*      6128 	.word	.LDWlin63
000008ce 03             6129 	.byte	3
000008cf 04             6130 	.byte	4
000008d0 02             6131 	.byte	2
000008d1 00             6132 	.byte	0
000008d2 01             6133 	.byte	1
000008d3 1b             6134 	.byte	27
000008d4 02             6135 	.byte	2
000008d5 00             6136 	.byte	0
000008d6 0c             6137 	.byte	12
000008d7 02             6138 	.byte	2
000008d8 02             6139 	.byte	2
000008d9 0c             6140 	.byte	12
000008da 03             6141 	.byte	3
000008db 7e             6142 	.byte	126
000008dc 02             6143 	.byte	2
000008dd 0c             6144 	.byte	12
000008de 01             6145 	.byte	1

                                                                      Page 115
                                                              C:\Users\nhuliyap\AppData\Local\Temp\gh_000048k1.s
000008df 000502         6146 	.byte	0,5,2
000008e2 00000000*      6147 	.word	.LDWlin64
000008e6 0d             6148 	.byte	13
000008e7 0c             6149 	.byte	12
000008e8 06             6150 	.byte	6
000008e9 02             6151 	.byte	2
000008ea 02             6152 	.byte	2
000008eb 02             6153 	.byte	2
000008ec 04             6154 	.byte	4
000008ed 000101         6155 	.byte	0,1,1
                        6156 	.section	.debug_info
                        6157 .LDW_4cb9768:
00001a5a 0f             6158 	.byte	15
00001a5b 756344617461   6159 	.strz	"ucData"
00001a61 00 
00001a62 f002           6160 	.byte	240,2
00001a64 30             6161 	.byte	48
00001a65 01             6162 	.byte	1
00001a66 00000000*      6163 	.word	.LDW_4087378
00001a6a 00             6164 	.byte	0
00001a6b 016d           6165 	.byte	1,109
                        6166 
                        6167 .LDW_40ceb30:
00001a6d 1d             6168 	.byte	29
00001a6e 00000000*      6169 	.word	.LDW82
00001a72 00000000*      6170 	.word	.LDW92
                        6171 
                        6172 .LDW_4cb8f80:
00001a76 04             6173 	.byte	4
00001a77 7563436f756e   6174 	.strz	"ucCounter"
00001a7d 74657200 
00001a81 f202           6175 	.byte	242,2
00001a83 09             6176 	.byte	9
00001a84 01             6177 	.byte	1
00001a85 00000000*      6178 	.word	.LDW_40c9d08
00001a89 00             6179 	.byte	0
00001a8a 00             6180 	.byte	0
00001a8b 0162           6181 	.byte	1,98
                        6182 
                        6183 .LDW_4cb92f0:
00001a8d 04             6184 	.byte	4
00001a8e 704877566572   6185 	.strz	"pHwVersionNumber"
00001a94 73696f6e4e75 
00001a9a 6d62657200 
00001a9f f302           6186 	.byte	243,2
00001aa1 0a             6187 	.byte	10
00001aa2 01             6188 	.byte	1
00001aa3 00000000*      6189 	.word	.LDW_4087378
00001aa7 00             6190 	.byte	0
00001aa8 00             6191 	.byte	0
00001aa9 015f           6192 	.byte	1,95
                        6193 
                        6194 .LDW_4cb9088:
00001aab 05             6195 	.byte	5
00001aac 756353697a65   6196 	.strz	"ucSize"
00001ab2 00 
00001ab3 f402           6197 	.byte	244,2
00001ab5 09             6198 	.byte	9
00001ab6 01             6199 	.byte	1
00001ab7 00000000*      6200 	.word	.LDW_40c9d08
00001abb 00             6201 	.byte	0

                                                                      Page 116
                                                              C:\Users\nhuliyap\AppData\Local\Temp\gh_000048k1.s
00001abc 00             6202 	.byte	0
                        6203 
00001abd 00             6204 	.byte	0
                        6205 
00001abe 00             6206 	.byte	0
                        6207 
                        6208 .LDW_4be6978:
00001abf 14             6209 	.byte	20
00001ac0 50524f44464c   6210 	.strz	"PRODFLASH_GetCustomerEcuSerialNumber"
00001ac6 4153485f4765 
00001acc 74437573746f 
00001ad2 6d6572456375 
00001ad8 53657269616c 
00001ade 4e756d626572 
00001ae4 00 
00001ae5 8803           6211 	.byte	136,3
00001ae7 07             6212 	.byte	7
00001ae8 01             6213 	.byte	1
00001ae9 00000000*      6214 	.word	.LDW_40c9d08
00001aed 00000000*      6215 	.word	_PRODFLASH_GetCustomerEcuSerialNumber
00001af1 00000000*      6216 	.word	___ghs_eofn_PRODFLASH_GetCustomerEcuSerialNumber
00001af5 0153           6217 	.byte	1,83
00001af7 02             6218 	.byte	2
00001af8 00             6219 	.byte	0
00001af9 02             6220 	.byte	2
00001afa 00             6221 	.byte	0
00001afb 00             6222 	.byte	0
00001afc 00             6223 	.byte	0
00001afd 00             6224 	.byte	0
00001afe 01             6225 	.byte	1
00001aff 01             6226 	.byte	1
00001b00 00             6227 	.byte	0
00001b01 01             6228 	.byte	1
                        6229 
                        6230 	.section	.debug_frame
                        6231 .LDW_4c6fde8:
00000184 00000000*      6232 	.word	.LDW_unq_16-.LDW_unq_15
                        6233 .LDW_unq_15:
00000188 00000000*      6234 	.word	.LDW_4cccd08
0000018c 00000000*      6235 	.word	_PRODFLASH_GetCustomerEcuSerialNumber
00000190 00000000*      6236 	.word	___ghs_eofn_PRODFLASH_GetCustomerEcuSerialNumber-_PRODFLASH_GetCustomerEcuSerialNumber
00000194 01             6237 	.byte	1
00000195 00000000*      6238 	.word	.LDW13
00000199 00             6239 	.byte	0
0000019a 00             6240 	.byte	0
0000019b 00             6241 	.byte	0
                        6242 .LDW_unq_16:
                        6243 	.section	.debug_line
000008f0 000502         6244 	.byte	0,5,2
000008f3 00000000*      6245 	.word	_PRODFLASH_GetCustomerEcuSerialNumber
000008f7 06             6246 	.byte	6
000008f8 03             6247 	.byte	3
000008f9 8e03           6248 	.byte	142,3
000008fb 02             6249 	.byte	2
000008fc 00             6250 	.byte	0
000008fd 01             6251 	.byte	1
000008fe 02             6252 	.byte	2
000008ff 02             6253 	.byte	2
00000900 0c             6254 	.byte	12
00000901 000502         6255 	.byte	0,5,2
00000904 00000000*      6256 	.word	.LDWlin65

                                                                      Page 117
                                                              C:\Users\nhuliyap\AppData\Local\Temp\gh_000048k1.s
00000908 03             6257 	.byte	3
00000909 7e             6258 	.byte	126
0000090a 02             6259 	.byte	2
0000090b 00             6260 	.byte	0
0000090c 01             6261 	.byte	1
0000090d 000502         6262 	.byte	0,5,2
00000910 00000000*      6263 	.word	.LDWlin66
00000914 0d             6264 	.byte	13
00000915 0c             6265 	.byte	12
00000916 06             6266 	.byte	6
00000917 02             6267 	.byte	2
00000918 02             6268 	.byte	2
00000919 02             6269 	.byte	2
0000091a 02             6270 	.byte	2
0000091b 000101         6271 	.byte	0,1,1
                        6272 	.section	.debug_info
                        6273 .LDW_4cb9450:
00001b02 0f             6274 	.byte	15
00001b03 756344617461   6275 	.strz	"ucData"
00001b09 00 
00001b0a 8803           6276 	.byte	136,3
00001b0c 33             6277 	.byte	51
00001b0d 01             6278 	.byte	1
00001b0e 00000000*      6279 	.word	.LDW_4087378
00001b12 00             6280 	.byte	0
00001b13 0156           6281 	.byte	1,86
                        6282 
                        6283 .LDW_40ceb60:
00001b15 1d             6284 	.byte	29
00001b16 00000000*      6285 	.word	.LDW03
00001b1a 00000000*      6286 	.word	.LDW13
                        6287 
                        6288 .LDW_4cb93f8:
00001b1e 04             6289 	.byte	4
00001b1f 7563436f756e   6290 	.strz	"ucCounter"
00001b25 74657200 
00001b29 8a03           6291 	.byte	138,3
00001b2b 09             6292 	.byte	9
00001b2c 01             6293 	.byte	1
00001b2d 00000000*      6294 	.word	.LDW_40c9d08
00001b31 00             6295 	.byte	0
00001b32 00             6296 	.byte	0
00001b33 0162           6297 	.byte	1,98
                        6298 
                        6299 .LDW_4cb94a8:
00001b35 05             6300 	.byte	5
00001b36 756353697a65   6301 	.strz	"ucSize"
00001b3c 00 
00001b3d 8b03           6302 	.byte	139,3
00001b3f 09             6303 	.byte	9
00001b40 01             6304 	.byte	1
00001b41 00000000*      6305 	.word	.LDW_40c9d08
00001b45 00             6306 	.byte	0
00001b46 00             6307 	.byte	0
                        6308 
00001b47 00             6309 	.byte	0
                        6310 
00001b48 00             6311 	.byte	0
                        6312 
                        6313 .LDW_4be6a10:
00001b49 14             6314 	.byte	20

                                                                      Page 118
                                                              C:\Users\nhuliyap\AppData\Local\Temp\gh_000048k1.s
00001b4a 50524f44464c   6315 	.strz	"PRODFLASH_GetVin"
00001b50 4153485f4765 
00001b56 7456696e00 
00001b5b 9703           6316 	.byte	151,3
00001b5d 07             6317 	.byte	7
00001b5e 01             6318 	.byte	1
00001b5f 00000000*      6319 	.word	.LDW_40c9d08
00001b63 00000000*      6320 	.word	_PRODFLASH_GetVin
00001b67 00000000*      6321 	.word	___ghs_eofn_PRODFLASH_GetVin
00001b6b 0153           6322 	.byte	1,83
00001b6d 02             6323 	.byte	2
00001b6e 00             6324 	.byte	0
00001b6f 02             6325 	.byte	2
00001b70 00             6326 	.byte	0
00001b71 00             6327 	.byte	0
00001b72 00             6328 	.byte	0
00001b73 00             6329 	.byte	0
00001b74 01             6330 	.byte	1
00001b75 01             6331 	.byte	1
00001b76 00             6332 	.byte	0
00001b77 01             6333 	.byte	1
                        6334 
                        6335 	.section	.debug_frame
                        6336 .LDW_4c6fe28:
0000019c 00000000*      6337 	.word	.LDW_unq_18-.LDW_unq_17
                        6338 .LDW_unq_17:
000001a0 00000000*      6339 	.word	.LDW_4cccd08
000001a4 00000000*      6340 	.word	_PRODFLASH_GetVin
000001a8 00000000*      6341 	.word	___ghs_eofn_PRODFLASH_GetVin-_PRODFLASH_GetVin
000001ac 01             6342 	.byte	1
000001ad 00000000*      6343 	.word	.LDW33
000001b1 00             6344 	.byte	0
000001b2 00             6345 	.byte	0
000001b3 00             6346 	.byte	0
                        6347 .LDW_unq_18:
                        6348 	.section	.debug_line
0000091e 000502         6349 	.byte	0,5,2
00000921 00000000*      6350 	.word	_PRODFLASH_GetVin
00000925 06             6351 	.byte	6
00000926 03             6352 	.byte	3
00000927 9d03           6353 	.byte	157,3
00000929 02             6354 	.byte	2
0000092a 00             6355 	.byte	0
0000092b 01             6356 	.byte	1
0000092c 02             6357 	.byte	2
0000092d 02             6358 	.byte	2
0000092e 0c             6359 	.byte	12
0000092f 000502         6360 	.byte	0,5,2
00000932 00000000*      6361 	.word	.LDWlin67
00000936 03             6362 	.byte	3
00000937 7e             6363 	.byte	126
00000938 02             6364 	.byte	2
00000939 00             6365 	.byte	0
0000093a 01             6366 	.byte	1
0000093b 000502         6367 	.byte	0,5,2
0000093e 00000000*      6368 	.word	.LDWlin68
00000942 0d             6369 	.byte	13
00000943 0c             6370 	.byte	12
00000944 06             6371 	.byte	6
00000945 02             6372 	.byte	2
00000946 04             6373 	.byte	4

                                                                      Page 119
                                                              C:\Users\nhuliyap\AppData\Local\Temp\gh_000048k1.s
00000947 02             6374 	.byte	2
00000948 02             6375 	.byte	2
00000949 000101         6376 	.byte	0,1,1
                        6377 	.section	.debug_info
                        6378 .LDW_4cb9348:
00001b78 0f             6379 	.byte	15
00001b79 756344617461   6380 	.strz	"ucData"
00001b7f 00 
00001b80 9703           6381 	.byte	151,3
00001b82 1f             6382 	.byte	31
00001b83 01             6383 	.byte	1
00001b84 00000000*      6384 	.word	.LDW_4087378
00001b88 00             6385 	.byte	0
00001b89 0156           6386 	.byte	1,86
                        6387 
                        6388 .LDW_4d1e5f8:
00001b8b 1d             6389 	.byte	29
00001b8c 00000000*      6390 	.word	.LDW23
00001b90 00000000*      6391 	.word	.LDW33
                        6392 
                        6393 .LDW_4cb8fd8:
00001b94 04             6394 	.byte	4
00001b95 7563436f756e   6395 	.strz	"ucCounter"
00001b9b 74657200 
00001b9f 9903           6396 	.byte	153,3
00001ba1 09             6397 	.byte	9
00001ba2 01             6398 	.byte	1
00001ba3 00000000*      6399 	.word	.LDW_40c9d08
00001ba7 00             6400 	.byte	0
00001ba8 00             6401 	.byte	0
00001ba9 0162           6402 	.byte	1,98
                        6403 
                        6404 .LDW_4cb9870:
00001bab 05             6405 	.byte	5
00001bac 756353697a65   6406 	.strz	"ucSize"
00001bb2 00 
00001bb3 9a03           6407 	.byte	154,3
00001bb5 09             6408 	.byte	9
00001bb6 01             6409 	.byte	1
00001bb7 00000000*      6410 	.word	.LDW_40c9d08
00001bbb 00             6411 	.byte	0
00001bbc 00             6412 	.byte	0
                        6413 
00001bbd 00             6414 	.byte	0
                        6415 
00001bbe 00             6416 	.byte	0
                        6417 
                        6418 .LDW_4be6aa8:
00001bbf 14             6419 	.byte	20
00001bc0 50524f44464c   6420 	.strz	"PRODFLASH_GetEcuProgramFingerprintApplication"
00001bc6 4153485f4765 
00001bcc 744563755072 
00001bd2 6f6772616d46 
00001bd8 696e67657270 
00001bde 72696e744170 
00001be4 706c69636174 
00001bea 696f6e00 
00001bee a603           6421 	.byte	166,3
00001bf0 07             6422 	.byte	7
00001bf1 01             6423 	.byte	1
00001bf2 00000000*      6424 	.word	.LDW_40c9d08

                                                                      Page 120
                                                              C:\Users\nhuliyap\AppData\Local\Temp\gh_000048k1.s
00001bf6 00000000*      6425 	.word	_PRODFLASH_GetEcuProgramFingerprintApplication
00001bfa 00000000*      6426 	.word	___ghs_eofn_PRODFLASH_GetEcuProgramFingerprintApplication
00001bfe 0153           6427 	.byte	1,83
00001c00 02             6428 	.byte	2
00001c01 00             6429 	.byte	0
00001c02 02             6430 	.byte	2
00001c03 00             6431 	.byte	0
00001c04 00             6432 	.byte	0
00001c05 00             6433 	.byte	0
00001c06 00             6434 	.byte	0
00001c07 01             6435 	.byte	1
00001c08 01             6436 	.byte	1
00001c09 00             6437 	.byte	0
00001c0a 01             6438 	.byte	1
                        6439 
                        6440 	.section	.debug_frame
                        6441 .LDW_4c6ff28:
000001b4 00000000*      6442 	.word	.LDW_unq_1a-.LDW_unq_19
                        6443 .LDW_unq_19:
000001b8 00000000*      6444 	.word	.LDW_4cccd08
000001bc 00000000*      6445 	.word	_PRODFLASH_GetEcuProgramFingerprintApplication
000001c0 00000000*      6446 	.word	___ghs_eofn_PRODFLASH_GetEcuProgramFingerprintApplication-_PRODFLASH_GetEcuProgramFingerprintApplication
000001c4 01             6447 	.byte	1
000001c5 00000000*      6448 	.word	.LDW53
000001c9 00             6449 	.byte	0
000001ca 00             6450 	.byte	0
000001cb 00             6451 	.byte	0
                        6452 .LDW_unq_1a:
                        6453 	.section	.debug_line
0000094c 000502         6454 	.byte	0,5,2
0000094f 00000000*      6455 	.word	_PRODFLASH_GetEcuProgramFingerprintApplication
00000953 06             6456 	.byte	6
00000954 03             6457 	.byte	3
00000955 ab03           6458 	.byte	171,3
00000957 02             6459 	.byte	2
00000958 00             6460 	.byte	0
00000959 01             6461 	.byte	1
0000095a 02             6462 	.byte	2
0000095b 02             6463 	.byte	2
0000095c 000502         6464 	.byte	0,5,2
0000095f 00000000*      6465 	.word	.LDWlin69
00000963 0c             6466 	.byte	12
00000964 03             6467 	.byte	3
00000965 7e             6468 	.byte	126
00000966 02             6469 	.byte	2
00000967 0c             6470 	.byte	12
00000968 01             6471 	.byte	1
00000969 2d             6472 	.byte	45
0000096a 0d             6473 	.byte	13
0000096b 000502         6474 	.byte	0,5,2
0000096e 00000000*      6475 	.word	.LDWlin70
00000972 0c             6476 	.byte	12
00000973 03             6477 	.byte	3
00000974 7e             6478 	.byte	126
00000975 02             6479 	.byte	2
00000976 0c             6480 	.byte	12
00000977 01             6481 	.byte	1
00000978 000502         6482 	.byte	0,5,2
0000097b 00000000*      6483 	.word	.LDWlin71
0000097f 0d             6484 	.byte	13
00000980 0b             6485 	.byte	11

                                                                      Page 121
                                                              C:\Users\nhuliyap\AppData\Local\Temp\gh_000048k1.s
00000981 06             6486 	.byte	6
00000982 02             6487 	.byte	2
00000983 04             6488 	.byte	4
00000984 02             6489 	.byte	2
00000985 02             6490 	.byte	2
00000986 000101         6491 	.byte	0,1,1
                        6492 	.section	.debug_info
                        6493 .LDW_4cb9500:
00001c0b 0f             6494 	.byte	15
00001c0c 756344617461   6495 	.strz	"ucData"
00001c12 00 
00001c13 a603           6496 	.byte	166,3
00001c15 3c             6497 	.byte	60
00001c16 01             6498 	.byte	1
00001c17 00000000*      6499 	.word	.LDW_4087378
00001c1b 00             6500 	.byte	0
00001c1c 0156           6501 	.byte	1,86
                        6502 
                        6503 .LDW_4d1e628:
00001c1e 1d             6504 	.byte	29
00001c1f 00000000*      6505 	.word	.LDW43
00001c23 00000000*      6506 	.word	.LDW53
                        6507 
                        6508 .LDW_4cb9558:
00001c27 04             6509 	.byte	4
00001c28 7563436f756e   6510 	.strz	"ucCounter"
00001c2e 74657200 
00001c32 a803           6511 	.byte	168,3
00001c34 09             6512 	.byte	9
00001c35 01             6513 	.byte	1
00001c36 00000000*      6514 	.word	.LDW_40c9d08
00001c3a 00             6515 	.byte	0
00001c3b 00             6516 	.byte	0
00001c3c 0162           6517 	.byte	1,98
                        6518 
                        6519 .LDW_4cb9030:
00001c3e 05             6520 	.byte	5
00001c3f 756353697a65   6521 	.strz	"ucSize"
00001c45 00 
00001c46 a903           6522 	.byte	169,3
00001c48 09             6523 	.byte	9
00001c49 01             6524 	.byte	1
00001c4a 00000000*      6525 	.word	.LDW_40c9d08
00001c4e 00             6526 	.byte	0
00001c4f 00             6527 	.byte	0
                        6528 
00001c50 00             6529 	.byte	0
                        6530 
00001c51 00             6531 	.byte	0
                        6532 
                        6533 .LDW_4be6b40:
00001c52 14             6534 	.byte	20
00001c53 50524f44464c   6535 	.strz	"PRODFLASH_GetEcuProgramFingerprintBootloader"
00001c59 4153485f4765 
00001c5f 744563755072 
00001c65 6f6772616d46 
00001c6b 696e67657270 
00001c71 72696e74426f 
00001c77 6f746c6f6164 
00001c7d 657200 
00001c80 b903           6536 	.byte	185,3

                                                                      Page 122
                                                              C:\Users\nhuliyap\AppData\Local\Temp\gh_000048k1.s
00001c82 07             6537 	.byte	7
00001c83 01             6538 	.byte	1
00001c84 00000000*      6539 	.word	.LDW_40c9d08
00001c88 00000000*      6540 	.word	_PRODFLASH_GetEcuProgramFingerprintBootloader
00001c8c 00000000*      6541 	.word	___ghs_eofn_PRODFLASH_GetEcuProgramFingerprintBootloader
00001c90 0153           6542 	.byte	1,83
00001c92 02             6543 	.byte	2
00001c93 00             6544 	.byte	0
00001c94 02             6545 	.byte	2
00001c95 00             6546 	.byte	0
00001c96 00             6547 	.byte	0
00001c97 00             6548 	.byte	0
00001c98 00             6549 	.byte	0
00001c99 01             6550 	.byte	1
00001c9a 01             6551 	.byte	1
00001c9b 00             6552 	.byte	0
00001c9c 01             6553 	.byte	1
                        6554 
                        6555 	.section	.debug_frame
                        6556 .LDW_4c6f468:
000001cc 00000000*      6557 	.word	.LDW_unq_1c-.LDW_unq_1b
                        6558 .LDW_unq_1b:
000001d0 00000000*      6559 	.word	.LDW_4cccd08
000001d4 00000000*      6560 	.word	_PRODFLASH_GetEcuProgramFingerprintBootloader
000001d8 00000000*      6561 	.word	___ghs_eofn_PRODFLASH_GetEcuProgramFingerprintBootloader-_PRODFLASH_GetEcuProgramFingerprintBootloader
000001dc 01             6562 	.byte	1
000001dd 00000000*      6563 	.word	.LDW73
000001e1 00             6564 	.byte	0
000001e2 00             6565 	.byte	0
000001e3 00             6566 	.byte	0
                        6567 .LDW_unq_1c:
                        6568 	.section	.debug_line
00000989 000502         6569 	.byte	0,5,2
0000098c 00000000*      6570 	.word	_PRODFLASH_GetEcuProgramFingerprintBootloader
00000990 06             6571 	.byte	6
00000991 03             6572 	.byte	3
00000992 be03           6573 	.byte	190,3
00000994 02             6574 	.byte	2
00000995 00             6575 	.byte	0
00000996 01             6576 	.byte	1
00000997 02             6577 	.byte	2
00000998 02             6578 	.byte	2
00000999 000502         6579 	.byte	0,5,2
0000099c 00000000*      6580 	.word	.LDWlin72
000009a0 0c             6581 	.byte	12
000009a1 03             6582 	.byte	3
000009a2 7e             6583 	.byte	126
000009a3 02             6584 	.byte	2
000009a4 0c             6585 	.byte	12
000009a5 01             6586 	.byte	1
000009a6 2d             6587 	.byte	45
000009a7 0d             6588 	.byte	13
000009a8 000502         6589 	.byte	0,5,2
000009ab 00000000*      6590 	.word	.LDWlin73
000009af 0c             6591 	.byte	12
000009b0 03             6592 	.byte	3
000009b1 7e             6593 	.byte	126
000009b2 02             6594 	.byte	2
000009b3 0c             6595 	.byte	12
000009b4 01             6596 	.byte	1
000009b5 000502         6597 	.byte	0,5,2

                                                                      Page 123
                                                              C:\Users\nhuliyap\AppData\Local\Temp\gh_000048k1.s
000009b8 00000000*      6598 	.word	.LDWlin74
000009bc 0d             6599 	.byte	13
000009bd 0b             6600 	.byte	11
000009be 06             6601 	.byte	6
000009bf 02             6602 	.byte	2
000009c0 04             6603 	.byte	4
000009c1 02             6604 	.byte	2
000009c2 02             6605 	.byte	2
000009c3 000101         6606 	.byte	0,1,1
                        6607 	.section	.debug_info
                        6608 .LDW_4cb9a28:
00001c9d 0f             6609 	.byte	15
00001c9e 756344617461   6610 	.strz	"ucData"
00001ca4 00 
00001ca5 b903           6611 	.byte	185,3
00001ca7 3b             6612 	.byte	59
00001ca8 01             6613 	.byte	1
00001ca9 00000000*      6614 	.word	.LDW_4087378
00001cad 00             6615 	.byte	0
00001cae 0156           6616 	.byte	1,86
                        6617 
                        6618 .LDW_4d1e6b8:
00001cb0 1d             6619 	.byte	29
00001cb1 00000000*      6620 	.word	.LDW63
00001cb5 00000000*      6621 	.word	.LDW73
                        6622 
                        6623 .LDW_4cb90e0:
00001cb9 04             6624 	.byte	4
00001cba 7563436f756e   6625 	.strz	"ucCounter"
00001cc0 74657200 
00001cc4 bb03           6626 	.byte	187,3
00001cc6 09             6627 	.byte	9
00001cc7 01             6628 	.byte	1
00001cc8 00000000*      6629 	.word	.LDW_40c9d08
00001ccc 00             6630 	.byte	0
00001ccd 00             6631 	.byte	0
00001cce 0162           6632 	.byte	1,98
                        6633 
                        6634 .LDW_4cb98c8:
00001cd0 05             6635 	.byte	5
00001cd1 756353697a65   6636 	.strz	"ucSize"
00001cd7 00 
00001cd8 bc03           6637 	.byte	188,3
00001cda 09             6638 	.byte	9
00001cdb 01             6639 	.byte	1
00001cdc 00000000*      6640 	.word	.LDW_40c9d08
00001ce0 00             6641 	.byte	0
00001ce1 00             6642 	.byte	0
                        6643 
00001ce2 00             6644 	.byte	0
                        6645 
00001ce3 00             6646 	.byte	0
                        6647 
                        6648 .LDW_4be6bd8:
00001ce4 14             6649 	.byte	20
00001ce5 50524f44464c   6650 	.strz	"PRODFLASH_GetRivianEcuSerialNumber"
00001ceb 4153485f4765 
00001cf1 745269766961 
00001cf7 6e4563755365 
00001cfd 7269616c4e75 
00001d03 6d62657200 

                                                                      Page 124
                                                              C:\Users\nhuliyap\AppData\Local\Temp\gh_000048k1.s
00001d08 cc03           6651 	.byte	204,3
00001d0a 07             6652 	.byte	7
00001d0b 01             6653 	.byte	1
00001d0c 00000000*      6654 	.word	.LDW_40c9d08
00001d10 00000000*      6655 	.word	_PRODFLASH_GetRivianEcuSerialNumber
00001d14 00000000*      6656 	.word	___ghs_eofn_PRODFLASH_GetRivianEcuSerialNumber
00001d18 0153           6657 	.byte	1,83
00001d1a 02             6658 	.byte	2
00001d1b 00             6659 	.byte	0
00001d1c 02             6660 	.byte	2
00001d1d 00             6661 	.byte	0
00001d1e 00             6662 	.byte	0
00001d1f 00             6663 	.byte	0
00001d20 00             6664 	.byte	0
00001d21 01             6665 	.byte	1
00001d22 01             6666 	.byte	1
00001d23 00             6667 	.byte	0
00001d24 01             6668 	.byte	1
                        6669 
                        6670 	.section	.debug_frame
                        6671 .LDW_4c6f368:
000001e4 00000000*      6672 	.word	.LDW_unq_1e-.LDW_unq_1d
                        6673 .LDW_unq_1d:
000001e8 00000000*      6674 	.word	.LDW_4cccd08
000001ec 00000000*      6675 	.word	_PRODFLASH_GetRivianEcuSerialNumber
000001f0 00000000*      6676 	.word	___ghs_eofn_PRODFLASH_GetRivianEcuSerialNumber-_PRODFLASH_GetRivianEcuSerialNumber
000001f4 01             6677 	.byte	1
000001f5 00000000*      6678 	.word	.LDW93
000001f9 00             6679 	.byte	0
000001fa 00             6680 	.byte	0
000001fb 00             6681 	.byte	0
                        6682 .LDW_unq_1e:
                        6683 	.section	.debug_line
000009c6 000502         6684 	.byte	0,5,2
000009c9 00000000*      6685 	.word	_PRODFLASH_GetRivianEcuSerialNumber
000009cd 06             6686 	.byte	6
000009ce 03             6687 	.byte	3
000009cf d203           6688 	.byte	210,3
000009d1 02             6689 	.byte	2
000009d2 00             6690 	.byte	0
000009d3 01             6691 	.byte	1
000009d4 02             6692 	.byte	2
000009d5 02             6693 	.byte	2
000009d6 0c             6694 	.byte	12
000009d7 000502         6695 	.byte	0,5,2
000009da 00000000*      6696 	.word	.LDWlin75
000009de 03             6697 	.byte	3
000009df 7e             6698 	.byte	126
000009e0 02             6699 	.byte	2
000009e1 00             6700 	.byte	0
000009e2 01             6701 	.byte	1
000009e3 000502         6702 	.byte	0,5,2
000009e6 00000000*      6703 	.word	.LDWlin76
000009ea 0d             6704 	.byte	13
000009eb 0c             6705 	.byte	12
000009ec 06             6706 	.byte	6
000009ed 02             6707 	.byte	2
000009ee 04             6708 	.byte	4
000009ef 02             6709 	.byte	2
000009f0 02             6710 	.byte	2
000009f1 000101         6711 	.byte	0,1,1

                                                                      Page 125
                                                              C:\Users\nhuliyap\AppData\Local\Temp\gh_000048k1.s
                        6712 	.section	.debug_info
                        6713 .LDW_4cb9608:
00001d25 0f             6714 	.byte	15
00001d26 756344617461   6715 	.strz	"ucData"
00001d2c 00 
00001d2d cc03           6716 	.byte	204,3
00001d2f 31             6717 	.byte	49
00001d30 01             6718 	.byte	1
00001d31 00000000*      6719 	.word	.LDW_4087378
00001d35 00             6720 	.byte	0
00001d36 0156           6721 	.byte	1,86
                        6722 
                        6723 .LDW_4d1eb08:
00001d38 1d             6724 	.byte	29
00001d39 00000000*      6725 	.word	.LDW83
00001d3d 00000000*      6726 	.word	.LDW93
                        6727 
                        6728 .LDW_4cb9138:
00001d41 04             6729 	.byte	4
00001d42 7563436f756e   6730 	.strz	"ucCounter"
00001d48 74657200 
00001d4c ce03           6731 	.byte	206,3
00001d4e 09             6732 	.byte	9
00001d4f 01             6733 	.byte	1
00001d50 00000000*      6734 	.word	.LDW_40c9d08
00001d54 00             6735 	.byte	0
00001d55 00             6736 	.byte	0
00001d56 0162           6737 	.byte	1,98
                        6738 
                        6739 .LDW_4cb99d0:
00001d58 05             6740 	.byte	5
00001d59 756353697a65   6741 	.strz	"ucSize"
00001d5f 00 
00001d60 cf03           6742 	.byte	207,3
00001d62 09             6743 	.byte	9
00001d63 01             6744 	.byte	1
00001d64 00000000*      6745 	.word	.LDW_40c9d08
00001d68 00             6746 	.byte	0
00001d69 00             6747 	.byte	0
                        6748 
00001d6a 00             6749 	.byte	0
                        6750 
00001d6b 00             6751 	.byte	0
                        6752 
                        6753 .LDW_4be6c70:
00001d6c 14             6754 	.byte	20
00001d6d 50524f44464c   6755 	.strz	"PRODFLASH_GetRivianBoardSerialNumber"
00001d73 4153485f4765 
00001d79 745269766961 
00001d7f 6e426f617264 
00001d85 53657269616c 
00001d8b 4e756d626572 
00001d91 00 
00001d92 db03           6756 	.byte	219,3
00001d94 07             6757 	.byte	7
00001d95 01             6758 	.byte	1
00001d96 00000000*      6759 	.word	.LDW_40c9d08
00001d9a 00000000*      6760 	.word	_PRODFLASH_GetRivianBoardSerialNumber
00001d9e 00000000*      6761 	.word	___ghs_eofn_PRODFLASH_GetRivianBoardSerialNumber
00001da2 0153           6762 	.byte	1,83
00001da4 02             6763 	.byte	2

                                                                      Page 126
                                                              C:\Users\nhuliyap\AppData\Local\Temp\gh_000048k1.s
00001da5 00             6764 	.byte	0
00001da6 02             6765 	.byte	2
00001da7 00             6766 	.byte	0
00001da8 00             6767 	.byte	0
00001da9 00             6768 	.byte	0
00001daa 00             6769 	.byte	0
00001dab 01             6770 	.byte	1
00001dac 01             6771 	.byte	1
00001dad 00             6772 	.byte	0
00001dae 01             6773 	.byte	1
                        6774 
                        6775 	.section	.debug_frame
                        6776 .LDW_4c6f3a8:
000001fc 00000000*      6777 	.word	.LDW_unq_20-.LDW_unq_1f
                        6778 .LDW_unq_1f:
00000200 00000000*      6779 	.word	.LDW_4cccd08
00000204 00000000*      6780 	.word	_PRODFLASH_GetRivianBoardSerialNumber
00000208 00000000*      6781 	.word	___ghs_eofn_PRODFLASH_GetRivianBoardSerialNumber-_PRODFLASH_GetRivianBoardSerialNumber
0000020c 01             6782 	.byte	1
0000020d 00000000*      6783 	.word	.LDW14
00000211 00             6784 	.byte	0
00000212 00             6785 	.byte	0
00000213 00             6786 	.byte	0
                        6787 .LDW_unq_20:
                        6788 	.section	.debug_line
000009f4 000502         6789 	.byte	0,5,2
000009f7 00000000*      6790 	.word	_PRODFLASH_GetRivianBoardSerialNumber
000009fb 06             6791 	.byte	6
000009fc 03             6792 	.byte	3
000009fd e103           6793 	.byte	225,3
000009ff 02             6794 	.byte	2
00000a00 00             6795 	.byte	0
00000a01 01             6796 	.byte	1
00000a02 02             6797 	.byte	2
00000a03 02             6798 	.byte	2
00000a04 0c             6799 	.byte	12
00000a05 000502         6800 	.byte	0,5,2
00000a08 00000000*      6801 	.word	.LDWlin77
00000a0c 03             6802 	.byte	3
00000a0d 7e             6803 	.byte	126
00000a0e 02             6804 	.byte	2
00000a0f 00             6805 	.byte	0
00000a10 01             6806 	.byte	1
00000a11 000502         6807 	.byte	0,5,2
00000a14 00000000*      6808 	.word	.LDWlin78
00000a18 0d             6809 	.byte	13
00000a19 0c             6810 	.byte	12
00000a1a 06             6811 	.byte	6
00000a1b 02             6812 	.byte	2
00000a1c 04             6813 	.byte	4
00000a1d 02             6814 	.byte	2
00000a1e 02             6815 	.byte	2
00000a1f 000101         6816 	.byte	0,1,1
                        6817 	.section	.debug_info
                        6818 .LDW_4cb9710:
00001daf 0f             6819 	.byte	15
00001db0 756344617461   6820 	.strz	"ucData"
00001db6 00 
00001db7 db03           6821 	.byte	219,3
00001db9 33             6822 	.byte	51
00001dba 01             6823 	.byte	1

                                                                      Page 127
                                                              C:\Users\nhuliyap\AppData\Local\Temp\gh_000048k1.s
00001dbb 00000000*      6824 	.word	.LDW_4087378
00001dbf 00             6825 	.byte	0
00001dc0 0156           6826 	.byte	1,86
                        6827 
                        6828 .LDW_4d1e898:
00001dc2 1d             6829 	.byte	29
00001dc3 00000000*      6830 	.word	.LDW04
00001dc7 00000000*      6831 	.word	.LDW14
                        6832 
                        6833 .LDW_4cb91e8:
00001dcb 04             6834 	.byte	4
00001dcc 7563436f756e   6835 	.strz	"ucCounter"
00001dd2 74657200 
00001dd6 dd03           6836 	.byte	221,3
00001dd8 09             6837 	.byte	9
00001dd9 01             6838 	.byte	1
00001dda 00000000*      6839 	.word	.LDW_40c9d08
00001dde 00             6840 	.byte	0
00001ddf 00             6841 	.byte	0
00001de0 0162           6842 	.byte	1,98
                        6843 
                        6844 .LDW_4cb97c0:
00001de2 05             6845 	.byte	5
00001de3 756353697a65   6846 	.strz	"ucSize"
00001de9 00 
00001dea de03           6847 	.byte	222,3
00001dec 09             6848 	.byte	9
00001ded 01             6849 	.byte	1
00001dee 00000000*      6850 	.word	.LDW_40c9d08
00001df2 00             6851 	.byte	0
00001df3 00             6852 	.byte	0
                        6853 
00001df4 00             6854 	.byte	0
                        6855 
00001df5 00             6856 	.byte	0
                        6857 
                        6858 .LDW_4d1f650:
00001df6 14             6859 	.byte	20
00001df7 50524f44464c   6860 	.strz	"PRODFLASH_GetRivianEcuPartNumber"
00001dfd 4153485f4765 
00001e03 745269766961 
00001e09 6e4563755061 
00001e0f 72744e756d62 
00001e15 657200 
00001e18 ea03           6861 	.byte	234,3
00001e1a 07             6862 	.byte	7
00001e1b 01             6863 	.byte	1
00001e1c 00000000*      6864 	.word	.LDW_40c9d08
00001e20 00000000*      6865 	.word	_PRODFLASH_GetRivianEcuPartNumber
00001e24 00000000*      6866 	.word	___ghs_eofn_PRODFLASH_GetRivianEcuPartNumber
00001e28 0153           6867 	.byte	1,83
00001e2a 02             6868 	.byte	2
00001e2b 00             6869 	.byte	0
00001e2c 02             6870 	.byte	2
00001e2d 00             6871 	.byte	0
00001e2e 00             6872 	.byte	0
00001e2f 00             6873 	.byte	0
00001e30 00             6874 	.byte	0
00001e31 01             6875 	.byte	1
00001e32 01             6876 	.byte	1
00001e33 00             6877 	.byte	0

                                                                      Page 128
                                                              C:\Users\nhuliyap\AppData\Local\Temp\gh_000048k1.s
00001e34 01             6878 	.byte	1
                        6879 
                        6880 	.section	.debug_frame
                        6881 .LDW_4c6f628:
00000214 00000000*      6882 	.word	.LDW_unq_22-.LDW_unq_21
                        6883 .LDW_unq_21:
00000218 00000000*      6884 	.word	.LDW_4cccd08
0000021c 00000000*      6885 	.word	_PRODFLASH_GetRivianEcuPartNumber
00000220 00000000*      6886 	.word	___ghs_eofn_PRODFLASH_GetRivianEcuPartNumber-_PRODFLASH_GetRivianEcuPartNumber
00000224 01             6887 	.byte	1
00000225 00000000*      6888 	.word	.LDW34
00000229 00             6889 	.byte	0
0000022a 00             6890 	.byte	0
0000022b 00             6891 	.byte	0
                        6892 .LDW_unq_22:
                        6893 	.section	.debug_line
00000a22 000502         6894 	.byte	0,5,2
00000a25 00000000*      6895 	.word	_PRODFLASH_GetRivianEcuPartNumber
00000a29 06             6896 	.byte	6
00000a2a 03             6897 	.byte	3
00000a2b f003           6898 	.byte	240,3
00000a2d 02             6899 	.byte	2
00000a2e 00             6900 	.byte	0
00000a2f 01             6901 	.byte	1
00000a30 02             6902 	.byte	2
00000a31 02             6903 	.byte	2
00000a32 0c             6904 	.byte	12
00000a33 000502         6905 	.byte	0,5,2
00000a36 00000000*      6906 	.word	.LDWlin79
00000a3a 03             6907 	.byte	3
00000a3b 7e             6908 	.byte	126
00000a3c 02             6909 	.byte	2
00000a3d 00             6910 	.byte	0
00000a3e 01             6911 	.byte	1
00000a3f 000502         6912 	.byte	0,5,2
00000a42 00000000*      6913 	.word	.LDWlin80
00000a46 0d             6914 	.byte	13
00000a47 0c             6915 	.byte	12
00000a48 06             6916 	.byte	6
00000a49 02             6917 	.byte	2
00000a4a 04             6918 	.byte	4
00000a4b 02             6919 	.byte	2
00000a4c 02             6920 	.byte	2
00000a4d 000101         6921 	.byte	0,1,1
                        6922 	.section	.debug_info
                        6923 .LDW_4cb9190:
00001e35 0f             6924 	.byte	15
00001e36 756344617461   6925 	.strz	"ucData"
00001e3c 00 
00001e3d ea03           6926 	.byte	234,3
00001e3f 2f             6927 	.byte	47
00001e40 01             6928 	.byte	1
00001e41 00000000*      6929 	.word	.LDW_4087378
00001e45 00             6930 	.byte	0
00001e46 0156           6931 	.byte	1,86
                        6932 
                        6933 .LDW_4d1eaa8:
00001e48 1d             6934 	.byte	29
00001e49 00000000*      6935 	.word	.LDW24
00001e4d 00000000*      6936 	.word	.LDW34
                        6937 

                                                                      Page 129
                                                              C:\Users\nhuliyap\AppData\Local\Temp\gh_000048k1.s
                        6938 .LDW_4cb95b0:
00001e51 04             6939 	.byte	4
00001e52 7563436f756e   6940 	.strz	"ucCounter"
00001e58 74657200 
00001e5c ec03           6941 	.byte	236,3
00001e5e 09             6942 	.byte	9
00001e5f 01             6943 	.byte	1
00001e60 00000000*      6944 	.word	.LDW_40c9d08
00001e64 00             6945 	.byte	0
00001e65 00             6946 	.byte	0
00001e66 0162           6947 	.byte	1,98
                        6948 
                        6949 .LDW_4cb9920:
00001e68 05             6950 	.byte	5
00001e69 756353697a65   6951 	.strz	"ucSize"
00001e6f 00 
00001e70 ed03           6952 	.byte	237,3
00001e72 09             6953 	.byte	9
00001e73 01             6954 	.byte	1
00001e74 00000000*      6955 	.word	.LDW_40c9d08
00001e78 00             6956 	.byte	0
00001e79 00             6957 	.byte	0
                        6958 
00001e7a 00             6959 	.byte	0
                        6960 
00001e7b 00             6961 	.byte	0
                        6962 
                        6963 .LDW_4d1fa78:
00001e7c 14             6964 	.byte	20
00001e7d 50524f44464c   6965 	.strz	"PRODFLASH_GetRivianBoardPartNumber"
00001e83 4153485f4765 
00001e89 745269766961 
00001e8f 6e426f617264 
00001e95 506172744e75 
00001e9b 6d62657200 
00001ea0 f903           6966 	.byte	249,3
00001ea2 07             6967 	.byte	7
00001ea3 01             6968 	.byte	1
00001ea4 00000000*      6969 	.word	.LDW_40c9d08
00001ea8 00000000*      6970 	.word	_PRODFLASH_GetRivianBoardPartNumber
00001eac 00000000*      6971 	.word	___ghs_eofn_PRODFLASH_GetRivianBoardPartNumber
00001eb0 0153           6972 	.byte	1,83
00001eb2 02             6973 	.byte	2
00001eb3 00             6974 	.byte	0
00001eb4 02             6975 	.byte	2
00001eb5 00             6976 	.byte	0
00001eb6 00             6977 	.byte	0
00001eb7 00             6978 	.byte	0
00001eb8 00             6979 	.byte	0
00001eb9 01             6980 	.byte	1
00001eba 01             6981 	.byte	1
00001ebb 00             6982 	.byte	0
00001ebc 01             6983 	.byte	1
                        6984 
                        6985 	.section	.debug_frame
                        6986 .LDW_4c6f6e8:
0000022c 00000000*      6987 	.word	.LDW_unq_24-.LDW_unq_23
                        6988 .LDW_unq_23:
00000230 00000000*      6989 	.word	.LDW_4cccd08
00000234 00000000*      6990 	.word	_PRODFLASH_GetRivianBoardPartNumber
00000238 00000000*      6991 	.word	___ghs_eofn_PRODFLASH_GetRivianBoardPartNumber-_PRODFLASH_GetRivianBoardPartNumber

                                                                      Page 130
                                                              C:\Users\nhuliyap\AppData\Local\Temp\gh_000048k1.s
0000023c 01             6992 	.byte	1
0000023d 00000000*      6993 	.word	.LDW54
00000241 00             6994 	.byte	0
00000242 00             6995 	.byte	0
00000243 00             6996 	.byte	0
                        6997 .LDW_unq_24:
                        6998 	.section	.debug_line
00000a50 000502         6999 	.byte	0,5,2
00000a53 00000000*      7000 	.word	_PRODFLASH_GetRivianBoardPartNumber
00000a57 06             7001 	.byte	6
00000a58 03             7002 	.byte	3
00000a59 ff03           7003 	.byte	255,3
00000a5b 02             7004 	.byte	2
00000a5c 00             7005 	.byte	0
00000a5d 01             7006 	.byte	1
00000a5e 02             7007 	.byte	2
00000a5f 02             7008 	.byte	2
00000a60 0c             7009 	.byte	12
00000a61 000502         7010 	.byte	0,5,2
00000a64 00000000*      7011 	.word	.LDWlin81
00000a68 03             7012 	.byte	3
00000a69 7e             7013 	.byte	126
00000a6a 02             7014 	.byte	2
00000a6b 00             7015 	.byte	0
00000a6c 01             7016 	.byte	1
00000a6d 000502         7017 	.byte	0,5,2
00000a70 00000000*      7018 	.word	.LDWlin82
00000a74 0d             7019 	.byte	13
00000a75 0c             7020 	.byte	12
00000a76 06             7021 	.byte	6
00000a77 02             7022 	.byte	2
00000a78 04             7023 	.byte	4
00000a79 02             7024 	.byte	2
00000a7a 02             7025 	.byte	2
00000a7b 000101         7026 	.byte	0,1,1
                        7027 	.section	.debug_info
                        7028 .LDW_4cb93a0:
00001ebd 0f             7029 	.byte	15
00001ebe 756344617461   7030 	.strz	"ucData"
00001ec4 00 
00001ec5 f903           7031 	.byte	249,3
00001ec7 31             7032 	.byte	49
00001ec8 01             7033 	.byte	1
00001ec9 00000000*      7034 	.word	.LDW_4087378
00001ecd 00             7035 	.byte	0
00001ece 0156           7036 	.byte	1,86
                        7037 
                        7038 .LDW_4d1e5c8:
00001ed0 1d             7039 	.byte	29
00001ed1 00000000*      7040 	.word	.LDW44
00001ed5 00000000*      7041 	.word	.LDW54
                        7042 
                        7043 .LDW_4cb9660:
00001ed9 04             7044 	.byte	4
00001eda 7563436f756e   7045 	.strz	"ucCounter"
00001ee0 74657200 
00001ee4 fb03           7046 	.byte	251,3
00001ee6 09             7047 	.byte	9
00001ee7 01             7048 	.byte	1
00001ee8 00000000*      7049 	.word	.LDW_40c9d08
00001eec 00             7050 	.byte	0

                                                                      Page 131
                                                              C:\Users\nhuliyap\AppData\Local\Temp\gh_000048k1.s
00001eed 00             7051 	.byte	0
00001eee 0162           7052 	.byte	1,98
                        7053 
                        7054 .LDW_4cb9240:
00001ef0 05             7055 	.byte	5
00001ef1 756353697a65   7056 	.strz	"ucSize"
00001ef7 00 
00001ef8 fc03           7057 	.byte	252,3
00001efa 09             7058 	.byte	9
00001efb 01             7059 	.byte	1
00001efc 00000000*      7060 	.word	.LDW_40c9d08
00001f00 00             7061 	.byte	0
00001f01 00             7062 	.byte	0
                        7063 
00001f02 00             7064 	.byte	0
                        7065 
00001f03 00             7066 	.byte	0
                        7067 
                        7068 .LDW_4d1f6e8:
00001f04 14             7069 	.byte	20
00001f05 50524f44464c   7070 	.strz	"PRODFLASH_GetManufacturingSupportMode"
00001f0b 4153485f4765 
00001f11 744d616e7566 
00001f17 616374757269 
00001f1d 6e6753757070 
00001f23 6f72744d6f64 
00001f29 6500 
00001f2b 8804           7071 	.byte	136,4
00001f2d 07             7072 	.byte	7
00001f2e 01             7073 	.byte	1
00001f2f 00000000*      7074 	.word	.LDW_40c9d08
00001f33 00000000*      7075 	.word	_PRODFLASH_GetManufacturingSupportMode
00001f37 00000000*      7076 	.word	___ghs_eofn_PRODFLASH_GetManufacturingSupportMode
00001f3b 0153           7077 	.byte	1,83
00001f3d 02             7078 	.byte	2
00001f3e 00             7079 	.byte	0
00001f3f 02             7080 	.byte	2
00001f40 00             7081 	.byte	0
00001f41 00             7082 	.byte	0
00001f42 00             7083 	.byte	0
00001f43 00             7084 	.byte	0
00001f44 01             7085 	.byte	1
00001f45 01             7086 	.byte	1
00001f46 00             7087 	.byte	0
00001f47 01             7088 	.byte	1
                        7089 
                        7090 	.section	.debug_frame
                        7091 .LDW_4c6f868:
00000244 00000000*      7092 	.word	.LDW_unq_26-.LDW_unq_25
                        7093 .LDW_unq_25:
00000248 00000000*      7094 	.word	.LDW_4cccd08
0000024c 00000000*      7095 	.word	_PRODFLASH_GetManufacturingSupportMode
00000250 00000000*      7096 	.word	___ghs_eofn_PRODFLASH_GetManufacturingSupportMode-_PRODFLASH_GetManufacturingSupportMode
00000254 01             7097 	.byte	1
00000255 00000000*      7098 	.word	.LDW74
00000259 00             7099 	.byte	0
0000025a 00             7100 	.byte	0
0000025b 00             7101 	.byte	0
                        7102 .LDW_unq_26:
                        7103 	.section	.debug_line
00000a7e 000502         7104 	.byte	0,5,2

                                                                      Page 132
                                                              C:\Users\nhuliyap\AppData\Local\Temp\gh_000048k1.s
00000a81 00000000*      7105 	.word	_PRODFLASH_GetManufacturingSupportMode
00000a85 03             7106 	.byte	3
00000a86 8804           7107 	.byte	136,4
00000a88 02             7108 	.byte	2
00000a89 00             7109 	.byte	0
00000a8a 01             7110 	.byte	1
00000a8b 06             7111 	.byte	6
00000a8c 03             7112 	.byte	3
00000a8d 06             7113 	.byte	6
00000a8e 02             7114 	.byte	2
00000a8f 02             7115 	.byte	2
00000a90 01             7116 	.byte	1
00000a91 0c             7117 	.byte	12
00000a92 000502         7118 	.byte	0,5,2
00000a95 00000000*      7119 	.word	.LDWlin83
00000a99 0b             7120 	.byte	11
00000a9a 0c             7121 	.byte	12
00000a9b 06             7122 	.byte	6
00000a9c 02             7123 	.byte	2
00000a9d 04             7124 	.byte	4
00000a9e 02             7125 	.byte	2
00000a9f 02             7126 	.byte	2
00000aa0 000101         7127 	.byte	0,1,1
                        7128 	.section	.debug_info
                        7129 .LDW_4cb96b8:
00001f48 0f             7130 	.byte	15
00001f49 756344617461   7131 	.strz	"ucData"
00001f4f 00 
00001f50 8804           7132 	.byte	136,4
00001f52 34             7133 	.byte	52
00001f53 01             7134 	.byte	1
00001f54 00000000*      7135 	.word	.LDW_4087378
00001f58 00             7136 	.byte	0
00001f59 016e           7137 	.byte	1,110
                        7138 
                        7139 .LDW_4d1e838:
00001f5b 1d             7140 	.byte	29
00001f5c 00000000*      7141 	.word	.LDW64
00001f60 00000000*      7142 	.word	.LDW74
                        7143 
                        7144 .LDW_4cb9818:
00001f64 05             7145 	.byte	5
00001f65 7563436f756e   7146 	.strz	"ucCounter"
00001f6b 74657200 
00001f6f 8a04           7147 	.byte	138,4
00001f71 09             7148 	.byte	9
00001f72 01             7149 	.byte	1
00001f73 00000000*      7150 	.word	.LDW_40c9d08
00001f77 00             7151 	.byte	0
00001f78 00             7152 	.byte	0
                        7153 
                        7154 .LDW_4cb9978:
00001f79 05             7155 	.byte	5
00001f7a 756353697a65   7156 	.strz	"ucSize"
00001f80 00 
00001f81 8b04           7157 	.byte	139,4
00001f83 09             7158 	.byte	9
00001f84 01             7159 	.byte	1
00001f85 00000000*      7160 	.word	.LDW_40c9d08
00001f89 00             7161 	.byte	0
00001f8a 00             7162 	.byte	0

                                                                      Page 133
                                                              C:\Users\nhuliyap\AppData\Local\Temp\gh_000048k1.s
                        7163 
00001f8b 00             7164 	.byte	0
                        7165 
00001f8c 00             7166 	.byte	0
                        7167 
                        7168 .LDW_4d1f8b0:
00001f8d 14             7169 	.byte	20
00001f8e 50524f44464c   7170 	.strz	"PRODFLASH_GetApplicationSignature"
00001f94 4153485f4765 
00001f9a 744170706c69 
00001fa0 636174696f6e 
00001fa6 5369676e6174 
00001fac 75726500 
00001fb0 9704           7171 	.byte	151,4
00001fb2 07             7172 	.byte	7
00001fb3 01             7173 	.byte	1
00001fb4 00000000*      7174 	.word	.LDW_40c9d08
00001fb8 00000000*      7175 	.word	_PRODFLASH_GetApplicationSignature
00001fbc 00000000*      7176 	.word	___ghs_eofn_PRODFLASH_GetApplicationSignature
00001fc0 0153           7177 	.byte	1,83
00001fc2 02             7178 	.byte	2
00001fc3 00             7179 	.byte	0
00001fc4 02             7180 	.byte	2
00001fc5 00             7181 	.byte	0
00001fc6 00             7182 	.byte	0
00001fc7 00             7183 	.byte	0
00001fc8 00             7184 	.byte	0
00001fc9 01             7185 	.byte	1
00001fca 01             7186 	.byte	1
00001fcb 00             7187 	.byte	0
00001fcc 01             7188 	.byte	1
                        7189 
                        7190 	.section	.debug_frame
                        7191 .LDW_4c6f968:
0000025c 00000000*      7192 	.word	.LDW_unq_28-.LDW_unq_27
                        7193 .LDW_unq_27:
00000260 00000000*      7194 	.word	.LDW_4cccd08
00000264 00000000*      7195 	.word	_PRODFLASH_GetApplicationSignature
00000268 00000000*      7196 	.word	___ghs_eofn_PRODFLASH_GetApplicationSignature-_PRODFLASH_GetApplicationSignature
0000026c 01             7197 	.byte	1
0000026d 00000000*      7198 	.word	.LDW94
00000271 00             7199 	.byte	0
00000272 00             7200 	.byte	0
00000273 00             7201 	.byte	0
                        7202 .LDW_unq_28:
                        7203 	.section	.debug_line
00000aa3 000502         7204 	.byte	0,5,2
00000aa6 00000000*      7205 	.word	_PRODFLASH_GetApplicationSignature
00000aaa 06             7206 	.byte	6
00000aab 03             7207 	.byte	3
00000aac 9d04           7208 	.byte	157,4
00000aae 02             7209 	.byte	2
00000aaf 00             7210 	.byte	0
00000ab0 01             7211 	.byte	1
00000ab1 02             7212 	.byte	2
00000ab2 02             7213 	.byte	2
00000ab3 0c             7214 	.byte	12
00000ab4 000502         7215 	.byte	0,5,2
00000ab7 00000000*      7216 	.word	.LDWlin84
00000abb 03             7217 	.byte	3
00000abc 7e             7218 	.byte	126

                                                                      Page 134
                                                              C:\Users\nhuliyap\AppData\Local\Temp\gh_000048k1.s
00000abd 02             7219 	.byte	2
00000abe 00             7220 	.byte	0
00000abf 01             7221 	.byte	1
00000ac0 000502         7222 	.byte	0,5,2
00000ac3 00000000*      7223 	.word	.LDWlin85
00000ac7 0d             7224 	.byte	13
00000ac8 0c             7225 	.byte	12
00000ac9 06             7226 	.byte	6
00000aca 02             7227 	.byte	2
00000acb 04             7228 	.byte	4
00000acc 02             7229 	.byte	2
00000acd 02             7230 	.byte	2
00000ace 000101         7231 	.byte	0,1,1
                        7232 	.section	.debug_info
                        7233 .LDW_4cb9298:
00001fcd 0f             7234 	.byte	15
00001fce 756344617461   7235 	.strz	"ucData"
00001fd4 00 
00001fd5 9704           7236 	.byte	151,4
00001fd7 30             7237 	.byte	48
00001fd8 01             7238 	.byte	1
00001fd9 00000000*      7239 	.word	.LDW_4087378
00001fdd 00             7240 	.byte	0
00001fde 0156           7241 	.byte	1,86
                        7242 
                        7243 .LDW_4d1e658:
00001fe0 1d             7244 	.byte	29
00001fe1 00000000*      7245 	.word	.LDW84
00001fe5 00000000*      7246 	.word	.LDW94
                        7247 
                        7248 .LDW_4cb9a80:
00001fe9 04             7249 	.byte	4
00001fea 7563436f756e   7250 	.strz	"ucCounter"
00001ff0 74657200 
00001ff4 9904           7251 	.byte	153,4
00001ff6 09             7252 	.byte	9
00001ff7 01             7253 	.byte	1
00001ff8 00000000*      7254 	.word	.LDW_40c9d08
00001ffc 00             7255 	.byte	0
00001ffd 00             7256 	.byte	0
00001ffe 0162           7257 	.byte	1,98
                        7258 
                        7259 .LDW_4cb9ea0:
00002000 05             7260 	.byte	5
00002001 756353697a65   7261 	.strz	"ucSize"
00002007 00 
00002008 9a04           7262 	.byte	154,4
0000200a 09             7263 	.byte	9
0000200b 01             7264 	.byte	1
0000200c 00000000*      7265 	.word	.LDW_40c9d08
00002010 00             7266 	.byte	0
00002011 00             7267 	.byte	0
                        7268 
00002012 00             7269 	.byte	0
                        7270 
00002013 00             7271 	.byte	0
                        7272 
                        7273 .LDW_4d1efc8:
00002014 14             7274 	.byte	20
00002015 50524f44464c   7275 	.strz	"PRODFLASH_GetGenealogyCrc32"
0000201b 4153485f4765 

                                                                      Page 135
                                                              C:\Users\nhuliyap\AppData\Local\Temp\gh_000048k1.s
00002021 7447656e6561 
00002027 6c6f67794372 
0000202d 63333200 
00002031 a604           7276 	.byte	166,4
00002033 07             7277 	.byte	7
00002034 01             7278 	.byte	1
00002035 00000000*      7279 	.word	.LDW_40c9d08
00002039 00000000*      7280 	.word	_PRODFLASH_GetGenealogyCrc32
0000203d 00000000*      7281 	.word	___ghs_eofn_PRODFLASH_GetGenealogyCrc32
00002041 0153           7282 	.byte	1,83
00002043 02             7283 	.byte	2
00002044 00             7284 	.byte	0
00002045 02             7285 	.byte	2
00002046 00             7286 	.byte	0
00002047 00             7287 	.byte	0
00002048 00             7288 	.byte	0
00002049 00             7289 	.byte	0
0000204a 01             7290 	.byte	1
0000204b 01             7291 	.byte	1
0000204c 00             7292 	.byte	0
0000204d 01             7293 	.byte	1
                        7294 
                        7295 	.section	.debug_frame
                        7296 .LDW_4c6f2a8:
00000274 00000000*      7297 	.word	.LDW_unq_2a-.LDW_unq_29
                        7298 .LDW_unq_29:
00000278 00000000*      7299 	.word	.LDW_4cccd08
0000027c 00000000*      7300 	.word	_PRODFLASH_GetGenealogyCrc32
00000280 00000000*      7301 	.word	___ghs_eofn_PRODFLASH_GetGenealogyCrc32-_PRODFLASH_GetGenealogyCrc32
00000284 01             7302 	.byte	1
00000285 00000000*      7303 	.word	.LDW15
00000289 00             7304 	.byte	0
0000028a 00             7305 	.byte	0
0000028b 00             7306 	.byte	0
                        7307 .LDW_unq_2a:
                        7308 	.section	.debug_line
00000ad1 000502         7309 	.byte	0,5,2
00000ad4 00000000*      7310 	.word	_PRODFLASH_GetGenealogyCrc32
00000ad8 06             7311 	.byte	6
00000ad9 03             7312 	.byte	3
00000ada ac04           7313 	.byte	172,4
00000adc 02             7314 	.byte	2
00000add 00             7315 	.byte	0
00000ade 01             7316 	.byte	1
00000adf 02             7317 	.byte	2
00000ae0 02             7318 	.byte	2
00000ae1 0c             7319 	.byte	12
00000ae2 000502         7320 	.byte	0,5,2
00000ae5 00000000*      7321 	.word	.LDWlin86
00000ae9 03             7322 	.byte	3
00000aea 7e             7323 	.byte	126
00000aeb 02             7324 	.byte	2
00000aec 00             7325 	.byte	0
00000aed 01             7326 	.byte	1
00000aee 000502         7327 	.byte	0,5,2
00000af1 00000000*      7328 	.word	.LDWlin87
00000af5 0d             7329 	.byte	13
00000af6 0c             7330 	.byte	12
00000af7 06             7331 	.byte	6
00000af8 02             7332 	.byte	2
00000af9 02             7333 	.byte	2

                                                                      Page 136
                                                              C:\Users\nhuliyap\AppData\Local\Temp\gh_000048k1.s
00000afa 02             7334 	.byte	2
00000afb 02             7335 	.byte	2
00000afc 000101         7336 	.byte	0,1,1
                        7337 	.section	.debug_info
                        7338 .LDW_4cb9d40:
0000204e 0f             7339 	.byte	15
0000204f 756344617461   7340 	.strz	"ucData"
00002055 00 
00002056 a604           7341 	.byte	166,4
00002058 2a             7342 	.byte	42
00002059 01             7343 	.byte	1
0000205a 00000000*      7344 	.word	.LDW_4087378
0000205e 00             7345 	.byte	0
0000205f 0156           7346 	.byte	1,86
                        7347 
                        7348 .LDW_4d1e7d8:
00002061 1d             7349 	.byte	29
00002062 00000000*      7350 	.word	.LDW05
00002066 00000000*      7351 	.word	.LDW15
                        7352 
                        7353 .LDW_4cb9c90:
0000206a 04             7354 	.byte	4
0000206b 7563436f756e   7355 	.strz	"ucCounter"
00002071 74657200 
00002075 a804           7356 	.byte	168,4
00002077 09             7357 	.byte	9
00002078 01             7358 	.byte	1
00002079 00000000*      7359 	.word	.LDW_40c9d08
0000207d 00             7360 	.byte	0
0000207e 00             7361 	.byte	0
0000207f 0162           7362 	.byte	1,98
                        7363 
                        7364 .LDW_4cb9ad8:
00002081 05             7365 	.byte	5
00002082 756353697a65   7366 	.strz	"ucSize"
00002088 00 
00002089 a904           7367 	.byte	169,4
0000208b 09             7368 	.byte	9
0000208c 01             7369 	.byte	1
0000208d 00000000*      7370 	.word	.LDW_40c9d08
00002091 00             7371 	.byte	0
00002092 00             7372 	.byte	0
                        7373 
00002093 00             7374 	.byte	0
                        7375 
00002094 00             7376 	.byte	0
                        7377 
                        7378 .LDW_4d1f228:
00002095 14             7379 	.byte	20
00002096 50524f44464c   7380 	.strz	"PRODFLASH_GetGenealogyVersion"
0000209c 4153485f4765 
000020a2 7447656e6561 
000020a8 6c6f67795665 
000020ae 7273696f6e00 
000020b4 b504           7381 	.byte	181,4
000020b6 07             7382 	.byte	7
000020b7 01             7383 	.byte	1
000020b8 00000000*      7384 	.word	.LDW_40c9d08
000020bc 00000000*      7385 	.word	_PRODFLASH_GetGenealogyVersion
000020c0 00000000*      7386 	.word	___ghs_eofn_PRODFLASH_GetGenealogyVersion
000020c4 0153           7387 	.byte	1,83

                                                                      Page 137
                                                              C:\Users\nhuliyap\AppData\Local\Temp\gh_000048k1.s
000020c6 02             7388 	.byte	2
000020c7 00             7389 	.byte	0
000020c8 02             7390 	.byte	2
000020c9 00             7391 	.byte	0
000020ca 00             7392 	.byte	0
000020cb 00             7393 	.byte	0
000020cc 00             7394 	.byte	0
000020cd 01             7395 	.byte	1
000020ce 01             7396 	.byte	1
000020cf 00             7397 	.byte	0
000020d0 01             7398 	.byte	1
                        7399 
                        7400 	.section	.debug_frame
                        7401 .LDW_4e71fb8:
0000028c 00000000*      7402 	.word	.LDW_unq_2c-.LDW_unq_2b
                        7403 .LDW_unq_2b:
00000290 00000000*      7404 	.word	.LDW_4cccd08
00000294 00000000*      7405 	.word	_PRODFLASH_GetGenealogyVersion
00000298 00000000*      7406 	.word	___ghs_eofn_PRODFLASH_GetGenealogyVersion-_PRODFLASH_GetGenealogyVersion
0000029c 01             7407 	.byte	1
0000029d 00000000*      7408 	.word	.LDW35
000002a1 00             7409 	.byte	0
000002a2 00             7410 	.byte	0
000002a3 00             7411 	.byte	0
                        7412 .LDW_unq_2c:
                        7413 	.section	.debug_line
00000aff 000502         7414 	.byte	0,5,2
00000b02 00000000*      7415 	.word	_PRODFLASH_GetGenealogyVersion
00000b06 03             7416 	.byte	3
00000b07 b504           7417 	.byte	181,4
00000b09 02             7418 	.byte	2
00000b0a 00             7419 	.byte	0
00000b0b 01             7420 	.byte	1
00000b0c 06             7421 	.byte	6
00000b0d 03             7422 	.byte	3
00000b0e 06             7423 	.byte	6
00000b0f 02             7424 	.byte	2
00000b10 02             7425 	.byte	2
00000b11 01             7426 	.byte	1
00000b12 0c             7427 	.byte	12
00000b13 000502         7428 	.byte	0,5,2
00000b16 00000000*      7429 	.word	.LDWlin88
00000b1a 0b             7430 	.byte	11
00000b1b 0c             7431 	.byte	12
00000b1c 06             7432 	.byte	6
00000b1d 02             7433 	.byte	2
00000b1e 04             7434 	.byte	4
00000b1f 02             7435 	.byte	2
00000b20 02             7436 	.byte	2
00000b21 000101         7437 	.byte	0,1,1
                        7438 	.section	.debug_info
                        7439 .LDW_4cb9ef8:
000020d1 0f             7440 	.byte	15
000020d2 756344617461   7441 	.strz	"ucData"
000020d8 00 
000020d9 b504           7442 	.byte	181,4
000020db 2c             7443 	.byte	44
000020dc 01             7444 	.byte	1
000020dd 00000000*      7445 	.word	.LDW_4087378
000020e1 00             7446 	.byte	0
000020e2 016e           7447 	.byte	1,110

                                                                      Page 138
                                                              C:\Users\nhuliyap\AppData\Local\Temp\gh_000048k1.s
                        7448 
                        7449 .LDW_4d1eb98:
000020e4 1d             7450 	.byte	29
000020e5 00000000*      7451 	.word	.LDW25
000020e9 00000000*      7452 	.word	.LDW35
                        7453 
                        7454 .LDW_4cb9be0:
000020ed 05             7455 	.byte	5
000020ee 7563436f756e   7456 	.strz	"ucCounter"
000020f4 74657200 
000020f8 b704           7457 	.byte	183,4
000020fa 09             7458 	.byte	9
000020fb 01             7459 	.byte	1
000020fc 00000000*      7460 	.word	.LDW_40c9d08
00002100 00             7461 	.byte	0
00002101 00             7462 	.byte	0
                        7463 
                        7464 .LDW_4cb9b30:
00002102 05             7465 	.byte	5
00002103 756353697a65   7466 	.strz	"ucSize"
00002109 00 
0000210a b804           7467 	.byte	184,4
0000210c 09             7468 	.byte	9
0000210d 01             7469 	.byte	1
0000210e 00000000*      7470 	.word	.LDW_40c9d08
00002112 00             7471 	.byte	0
00002113 00             7472 	.byte	0
                        7473 
00002114 00             7474 	.byte	0
                        7475 
00002115 00             7476 	.byte	0
                        7477 
                        7478 .LDW_4d1fd70:
00002116 14             7479 	.byte	20
00002117 50524f44464c   7480 	.strz	"PRODFLASH_GetPcbaId"
0000211d 4153485f4765 
00002123 745063626149 
00002129 6400 
0000212b c404           7481 	.byte	196,4
0000212d 07             7482 	.byte	7
0000212e 01             7483 	.byte	1
0000212f 00000000*      7484 	.word	.LDW_40c9d08
00002133 00000000*      7485 	.word	_PRODFLASH_GetPcbaId
00002137 00000000*      7486 	.word	___ghs_eofn_PRODFLASH_GetPcbaId
0000213b 0153           7487 	.byte	1,83
0000213d 02             7488 	.byte	2
0000213e 00             7489 	.byte	0
0000213f 02             7490 	.byte	2
00002140 00             7491 	.byte	0
00002141 00             7492 	.byte	0
00002142 00             7493 	.byte	0
00002143 00             7494 	.byte	0
00002144 01             7495 	.byte	1
00002145 01             7496 	.byte	1
00002146 00             7497 	.byte	0
00002147 01             7498 	.byte	1
                        7499 
                        7500 	.section	.debug_frame
                        7501 .LDW_4e71ff8:
000002a4 00000000*      7502 	.word	.LDW_unq_2e-.LDW_unq_2d
                        7503 .LDW_unq_2d:

                                                                      Page 139
                                                              C:\Users\nhuliyap\AppData\Local\Temp\gh_000048k1.s
000002a8 00000000*      7504 	.word	.LDW_4cccd08
000002ac 00000000*      7505 	.word	_PRODFLASH_GetPcbaId
000002b0 00000000*      7506 	.word	___ghs_eofn_PRODFLASH_GetPcbaId-_PRODFLASH_GetPcbaId
000002b4 01             7507 	.byte	1
000002b5 00000000*      7508 	.word	.LDW55
000002b9 00             7509 	.byte	0
000002ba 00             7510 	.byte	0
000002bb 00             7511 	.byte	0
                        7512 .LDW_unq_2e:
                        7513 	.section	.debug_line
00000b24 000502         7514 	.byte	0,5,2
00000b27 00000000*      7515 	.word	_PRODFLASH_GetPcbaId
00000b2b 03             7516 	.byte	3
00000b2c c404           7517 	.byte	196,4
00000b2e 02             7518 	.byte	2
00000b2f 00             7519 	.byte	0
00000b30 01             7520 	.byte	1
00000b31 06             7521 	.byte	6
00000b32 03             7522 	.byte	3
00000b33 06             7523 	.byte	6
00000b34 02             7524 	.byte	2
00000b35 02             7525 	.byte	2
00000b36 01             7526 	.byte	1
00000b37 0c             7527 	.byte	12
00000b38 000502         7528 	.byte	0,5,2
00000b3b 00000000*      7529 	.word	.LDWlin89
00000b3f 0b             7530 	.byte	11
00000b40 0c             7531 	.byte	12
00000b41 06             7532 	.byte	6
00000b42 02             7533 	.byte	2
00000b43 04             7534 	.byte	4
00000b44 02             7535 	.byte	2
00000b45 02             7536 	.byte	2
00000b46 000101         7537 	.byte	0,1,1
                        7538 	.section	.debug_info
                        7539 .LDW_4cb9e48:
00002148 0f             7540 	.byte	15
00002149 756344617461   7541 	.strz	"ucData"
0000214f 00 
00002150 c404           7542 	.byte	196,4
00002152 22             7543 	.byte	34
00002153 01             7544 	.byte	1
00002154 00000000*      7545 	.word	.LDW_4087378
00002158 00             7546 	.byte	0
00002159 016e           7547 	.byte	1,110
                        7548 
                        7549 .LDW_4d1eb68:
0000215b 1d             7550 	.byte	29
0000215c 00000000*      7551 	.word	.LDW45
00002160 00000000*      7552 	.word	.LDW55
                        7553 
                        7554 .LDW_4cb9c38:
00002164 05             7555 	.byte	5
00002165 7563436f756e   7556 	.strz	"ucCounter"
0000216b 74657200 
0000216f c604           7557 	.byte	198,4
00002171 09             7558 	.byte	9
00002172 01             7559 	.byte	1
00002173 00000000*      7560 	.word	.LDW_40c9d08
00002177 00             7561 	.byte	0
00002178 00             7562 	.byte	0

                                                                      Page 140
                                                              C:\Users\nhuliyap\AppData\Local\Temp\gh_000048k1.s
                        7563 
                        7564 .LDW_4cb9b88:
00002179 05             7565 	.byte	5
0000217a 756353697a65   7566 	.strz	"ucSize"
00002180 00 
00002181 c704           7567 	.byte	199,4
00002183 09             7568 	.byte	9
00002184 01             7569 	.byte	1
00002185 00000000*      7570 	.word	.LDW_40c9d08
00002189 00             7571 	.byte	0
0000218a 00             7572 	.byte	0
                        7573 
0000218b 00             7574 	.byte	0
                        7575 
0000218c 00             7576 	.byte	0
                        7577 
                        7578 .LDW_4d1fb10:
0000218d 14             7579 	.byte	20
0000218e 50524f44464c   7580 	.strz	"PRODFLASH_GetAuxId"
00002194 4153485f4765 
0000219a 744175784964 
000021a0 00 
000021a1 d304           7581 	.byte	211,4
000021a3 07             7582 	.byte	7
000021a4 01             7583 	.byte	1
000021a5 00000000*      7584 	.word	.LDW_40c9d08
000021a9 00000000*      7585 	.word	_PRODFLASH_GetAuxId
000021ad 00000000*      7586 	.word	___ghs_eofn_PRODFLASH_GetAuxId
000021b1 0153           7587 	.byte	1,83
000021b3 02             7588 	.byte	2
000021b4 00             7589 	.byte	0
000021b5 02             7590 	.byte	2
000021b6 00             7591 	.byte	0
000021b7 00             7592 	.byte	0
000021b8 00             7593 	.byte	0
000021b9 00             7594 	.byte	0
000021ba 01             7595 	.byte	1
000021bb 01             7596 	.byte	1
000021bc 00             7597 	.byte	0
000021bd 01             7598 	.byte	1
                        7599 
                        7600 	.section	.debug_frame
                        7601 .LDW_4e71df8:
000002bc 00000000*      7602 	.word	.LDW_unq_30-.LDW_unq_2f
                        7603 .LDW_unq_2f:
000002c0 00000000*      7604 	.word	.LDW_4cccd08
000002c4 00000000*      7605 	.word	_PRODFLASH_GetAuxId
000002c8 00000000*      7606 	.word	___ghs_eofn_PRODFLASH_GetAuxId-_PRODFLASH_GetAuxId
000002cc 01             7607 	.byte	1
000002cd 00000000*      7608 	.word	.LDW75
000002d1 00             7609 	.byte	0
000002d2 00             7610 	.byte	0
000002d3 00             7611 	.byte	0
                        7612 .LDW_unq_30:
                        7613 	.section	.debug_line
00000b49 000502         7614 	.byte	0,5,2
00000b4c 00000000*      7615 	.word	_PRODFLASH_GetAuxId
00000b50 03             7616 	.byte	3
00000b51 d304           7617 	.byte	211,4
00000b53 02             7618 	.byte	2
00000b54 00             7619 	.byte	0

                                                                      Page 141
                                                              C:\Users\nhuliyap\AppData\Local\Temp\gh_000048k1.s
00000b55 01             7620 	.byte	1
00000b56 06             7621 	.byte	6
00000b57 03             7622 	.byte	3
00000b58 06             7623 	.byte	6
00000b59 02             7624 	.byte	2
00000b5a 02             7625 	.byte	2
00000b5b 01             7626 	.byte	1
00000b5c 0c             7627 	.byte	12
00000b5d 000502         7628 	.byte	0,5,2
00000b60 00000000*      7629 	.word	.LDWlin90
00000b64 0b             7630 	.byte	11
00000b65 0c             7631 	.byte	12
00000b66 06             7632 	.byte	6
00000b67 02             7633 	.byte	2
00000b68 04             7634 	.byte	4
00000b69 02             7635 	.byte	2
00000b6a 02             7636 	.byte	2
00000b6b 000101         7637 	.byte	0,1,1
                        7638 	.section	.debug_info
                        7639 .LDW_4cb9ce8:
000021be 0f             7640 	.byte	15
000021bf 756344617461   7641 	.strz	"ucData"
000021c5 00 
000021c6 d304           7642 	.byte	211,4
000021c8 21             7643 	.byte	33
000021c9 01             7644 	.byte	1
000021ca 00000000*      7645 	.word	.LDW_4087378
000021ce 00             7646 	.byte	0
000021cf 016e           7647 	.byte	1,110
                        7648 
                        7649 .LDW_4d1e868:
000021d1 1d             7650 	.byte	29
000021d2 00000000*      7651 	.word	.LDW65
000021d6 00000000*      7652 	.word	.LDW75
                        7653 
                        7654 .LDW_4cb9d98:
000021da 05             7655 	.byte	5
000021db 7563436f756e   7656 	.strz	"ucCounter"
000021e1 74657200 
000021e5 d504           7657 	.byte	213,4
000021e7 09             7658 	.byte	9
000021e8 01             7659 	.byte	1
000021e9 00000000*      7660 	.word	.LDW_40c9d08
000021ed 00             7661 	.byte	0
000021ee 00             7662 	.byte	0
                        7663 
                        7664 .LDW_4cb9df0:
000021ef 05             7665 	.byte	5
000021f0 756353697a65   7666 	.strz	"ucSize"
000021f6 00 
000021f7 d604           7667 	.byte	214,4
000021f9 09             7668 	.byte	9
000021fa 01             7669 	.byte	1
000021fb 00000000*      7670 	.word	.LDW_40c9d08
000021ff 00             7671 	.byte	0
00002200 00             7672 	.byte	0
                        7673 
00002201 00             7674 	.byte	0
                        7675 
00002202 00             7676 	.byte	0
                        7677 

                                                                      Page 142
                                                              C:\Users\nhuliyap\AppData\Local\Temp\gh_000048k1.s
                        7678 .LDW_4d1fea0:
00002203 14             7679 	.byte	20
00002204 50524f44464c   7680 	.strz	"PRODFLASH_GetComponentId"
0000220a 4153485f4765 
00002210 74436f6d706f 
00002216 6e656e744964 
0000221c 00 
0000221d e204           7681 	.byte	226,4
0000221f 07             7682 	.byte	7
00002220 01             7683 	.byte	1
00002221 00000000*      7684 	.word	.LDW_40c9d08
00002225 00000000*      7685 	.word	_PRODFLASH_GetComponentId
00002229 00000000*      7686 	.word	___ghs_eofn_PRODFLASH_GetComponentId
0000222d 0153           7687 	.byte	1,83
0000222f 02             7688 	.byte	2
00002230 00             7689 	.byte	0
00002231 02             7690 	.byte	2
00002232 00             7691 	.byte	0
00002233 00             7692 	.byte	0
00002234 00             7693 	.byte	0
00002235 00             7694 	.byte	0
00002236 01             7695 	.byte	1
00002237 01             7696 	.byte	1
00002238 00             7697 	.byte	0
00002239 01             7698 	.byte	1
                        7699 
                        7700 	.section	.debug_frame
                        7701 .LDW_4e71eb8:
000002d4 00000000*      7702 	.word	.LDW_unq_32-.LDW_unq_31
                        7703 .LDW_unq_31:
000002d8 00000000*      7704 	.word	.LDW_4cccd08
000002dc 00000000*      7705 	.word	_PRODFLASH_GetComponentId
000002e0 00000000*      7706 	.word	___ghs_eofn_PRODFLASH_GetComponentId-_PRODFLASH_GetComponentId
000002e4 01             7707 	.byte	1
000002e5 00000000*      7708 	.word	.LDW95
000002e9 00             7709 	.byte	0
000002ea 00             7710 	.byte	0
000002eb 00             7711 	.byte	0
                        7712 .LDW_unq_32:
                        7713 	.section	.debug_line
00000b6e 000502         7714 	.byte	0,5,2
00000b71 00000000*      7715 	.word	_PRODFLASH_GetComponentId
00000b75 06             7716 	.byte	6
00000b76 03             7717 	.byte	3
00000b77 e804           7718 	.byte	232,4
00000b79 02             7719 	.byte	2
00000b7a 00             7720 	.byte	0
00000b7b 01             7721 	.byte	1
00000b7c 02             7722 	.byte	2
00000b7d 02             7723 	.byte	2
00000b7e 0c             7724 	.byte	12
00000b7f 000502         7725 	.byte	0,5,2
00000b82 00000000*      7726 	.word	.LDWlin91
00000b86 03             7727 	.byte	3
00000b87 7e             7728 	.byte	126
00000b88 02             7729 	.byte	2
00000b89 00             7730 	.byte	0
00000b8a 01             7731 	.byte	1
00000b8b 000502         7732 	.byte	0,5,2
00000b8e 00000000*      7733 	.word	.LDWlin92
00000b92 0d             7734 	.byte	13

                                                                      Page 143
                                                              C:\Users\nhuliyap\AppData\Local\Temp\gh_000048k1.s
00000b93 0c             7735 	.byte	12
00000b94 06             7736 	.byte	6
00000b95 02             7737 	.byte	2
00000b96 02             7738 	.byte	2
00000b97 02             7739 	.byte	2
00000b98 02             7740 	.byte	2
00000b99 000101         7741 	.byte	0,1,1
                        7742 	.section	.debug_info
                        7743 .LDW_4d28508:
0000223a 0f             7744 	.byte	15
0000223b 756344617461   7745 	.strz	"ucData"
00002241 00 
00002242 e204           7746 	.byte	226,4
00002244 27             7747 	.byte	39
00002245 01             7748 	.byte	1
00002246 00000000*      7749 	.word	.LDW_4087378
0000224a 00             7750 	.byte	0
0000224b 0156           7751 	.byte	1,86
                        7752 
                        7753 .LDW_4d1e8c8:
0000224d 1d             7754 	.byte	29
0000224e 00000000*      7755 	.word	.LDW85
00002252 00000000*      7756 	.word	.LDW95
                        7757 
                        7758 .LDW_4d28610:
00002256 04             7759 	.byte	4
00002257 7563436f756e   7760 	.strz	"ucCounter"
0000225d 74657200 
00002261 e404           7761 	.byte	228,4
00002263 09             7762 	.byte	9
00002264 01             7763 	.byte	1
00002265 00000000*      7764 	.word	.LDW_40c9d08
00002269 00             7765 	.byte	0
0000226a 00             7766 	.byte	0
0000226b 0162           7767 	.byte	1,98
                        7768 
                        7769 .LDW_4d28248:
0000226d 05             7770 	.byte	5
0000226e 756353697a65   7771 	.strz	"ucSize"
00002274 00 
00002275 e504           7772 	.byte	229,4
00002277 09             7773 	.byte	9
00002278 01             7774 	.byte	1
00002279 00000000*      7775 	.word	.LDW_40c9d08
0000227d 00             7776 	.byte	0
0000227e 00             7777 	.byte	0
                        7778 
0000227f 00             7779 	.byte	0
                        7780 
00002280 00             7781 	.byte	0
                        7782 
                        7783 .LDW_4d1fba8:
00002281 14             7784 	.byte	20
00002282 50524f44464c   7785 	.strz	"PRODFLASH_GetModeId"
00002288 4153485f4765 
0000228e 744d6f646549 
00002294 6400 
00002296 f104           7786 	.byte	241,4
00002298 07             7787 	.byte	7
00002299 01             7788 	.byte	1
0000229a 00000000*      7789 	.word	.LDW_40c9d08

                                                                      Page 144
                                                              C:\Users\nhuliyap\AppData\Local\Temp\gh_000048k1.s
0000229e 00000000*      7790 	.word	_PRODFLASH_GetModeId
000022a2 00000000*      7791 	.word	___ghs_eofn_PRODFLASH_GetModeId
000022a6 0153           7792 	.byte	1,83
000022a8 02             7793 	.byte	2
000022a9 00             7794 	.byte	0
000022aa 02             7795 	.byte	2
000022ab 00             7796 	.byte	0
000022ac 00             7797 	.byte	0
000022ad 00             7798 	.byte	0
000022ae 00             7799 	.byte	0
000022af 01             7800 	.byte	1
000022b0 01             7801 	.byte	1
000022b1 00             7802 	.byte	0
000022b2 01             7803 	.byte	1
                        7804 
                        7805 	.section	.debug_frame
                        7806 .LDW_4e71f38:
000002ec 00000000*      7807 	.word	.LDW_unq_34-.LDW_unq_33
                        7808 .LDW_unq_33:
000002f0 00000000*      7809 	.word	.LDW_4cccd08
000002f4 00000000*      7810 	.word	_PRODFLASH_GetModeId
000002f8 00000000*      7811 	.word	___ghs_eofn_PRODFLASH_GetModeId-_PRODFLASH_GetModeId
000002fc 01             7812 	.byte	1
000002fd 00000000*      7813 	.word	.LDW16
00000301 00             7814 	.byte	0
00000302 00             7815 	.byte	0
00000303 00             7816 	.byte	0
                        7817 .LDW_unq_34:
                        7818 	.section	.debug_line
00000b9c 000502         7819 	.byte	0,5,2
00000b9f 00000000*      7820 	.word	_PRODFLASH_GetModeId
00000ba3 06             7821 	.byte	6
00000ba4 03             7822 	.byte	3
00000ba5 f704           7823 	.byte	247,4
00000ba7 02             7824 	.byte	2
00000ba8 00             7825 	.byte	0
00000ba9 01             7826 	.byte	1
00000baa 02             7827 	.byte	2
00000bab 02             7828 	.byte	2
00000bac 0c             7829 	.byte	12
00000bad 000502         7830 	.byte	0,5,2
00000bb0 00000000*      7831 	.word	.LDWlin93
00000bb4 03             7832 	.byte	3
00000bb5 7e             7833 	.byte	126
00000bb6 02             7834 	.byte	2
00000bb7 00             7835 	.byte	0
00000bb8 01             7836 	.byte	1
00000bb9 000502         7837 	.byte	0,5,2
00000bbc 00000000*      7838 	.word	.LDWlin94
00000bc0 0d             7839 	.byte	13
00000bc1 0c             7840 	.byte	12
00000bc2 06             7841 	.byte	6
00000bc3 02             7842 	.byte	2
00000bc4 02             7843 	.byte	2
00000bc5 02             7844 	.byte	2
00000bc6 02             7845 	.byte	2
00000bc7 000101         7846 	.byte	0,1,1
                        7847 	.section	.debug_info
                        7848 .LDW_4d28928:
000022b3 0f             7849 	.byte	15
000022b4 756344617461   7850 	.strz	"ucData"

                                                                      Page 145
                                                              C:\Users\nhuliyap\AppData\Local\Temp\gh_000048k1.s
000022ba 00 
000022bb f104           7851 	.byte	241,4
000022bd 22             7852 	.byte	34
000022be 01             7853 	.byte	1
000022bf 00000000*      7854 	.word	.LDW_4087378
000022c3 00             7855 	.byte	0
000022c4 0156           7856 	.byte	1,86
                        7857 
                        7858 .LDW_4d1e8f8:
000022c6 1d             7859 	.byte	29
000022c7 00000000*      7860 	.word	.LDW06
000022cb 00000000*      7861 	.word	.LDW16
                        7862 
                        7863 .LDW_4d28820:
000022cf 04             7864 	.byte	4
000022d0 7563436f756e   7865 	.strz	"ucCounter"
000022d6 74657200 
000022da f304           7866 	.byte	243,4
000022dc 09             7867 	.byte	9
000022dd 01             7868 	.byte	1
000022de 00000000*      7869 	.word	.LDW_40c9d08
000022e2 00             7870 	.byte	0
000022e3 00             7871 	.byte	0
000022e4 0162           7872 	.byte	1,98
                        7873 
                        7874 .LDW_4d28198:
000022e6 05             7875 	.byte	5
000022e7 756353697a65   7876 	.strz	"ucSize"
000022ed 00 
000022ee f404           7877 	.byte	244,4
000022f0 09             7878 	.byte	9
000022f1 01             7879 	.byte	1
000022f2 00000000*      7880 	.word	.LDW_40c9d08
000022f6 00             7881 	.byte	0
000022f7 00             7882 	.byte	0
                        7883 
000022f8 00             7884 	.byte	0
                        7885 
000022f9 00             7886 	.byte	0
                        7887 
                        7888 .LDW_4d1fc40:
000022fa 14             7889 	.byte	20
000022fb 50524f44464c   7890 	.strz	"PRODFLASH_GetEolCheckerByte"
00002301 4153485f4765 
00002307 74456f6c4368 
0000230d 65636b657242 
00002313 79746500 
00002317 8005           7891 	.byte	128,5
00002319 07             7892 	.byte	7
0000231a 01             7893 	.byte	1
0000231b 00000000*      7894 	.word	.LDW_40c9d08
0000231f 00000000*      7895 	.word	_PRODFLASH_GetEolCheckerByte
00002323 00000000*      7896 	.word	___ghs_eofn_PRODFLASH_GetEolCheckerByte
00002327 0153           7897 	.byte	1,83
00002329 02             7898 	.byte	2
0000232a 00             7899 	.byte	0
0000232b 02             7900 	.byte	2
0000232c 00             7901 	.byte	0
0000232d 00             7902 	.byte	0
0000232e 00             7903 	.byte	0
0000232f 00             7904 	.byte	0

                                                                      Page 146
                                                              C:\Users\nhuliyap\AppData\Local\Temp\gh_000048k1.s
00002330 01             7905 	.byte	1
00002331 01             7906 	.byte	1
00002332 00             7907 	.byte	0
00002333 01             7908 	.byte	1
                        7909 
                        7910 	.section	.debug_frame
                        7911 .LDW_4e71cb8:
00000304 00000000*      7912 	.word	.LDW_unq_36-.LDW_unq_35
                        7913 .LDW_unq_35:
00000308 00000000*      7914 	.word	.LDW_4cccd08
0000030c 00000000*      7915 	.word	_PRODFLASH_GetEolCheckerByte
00000310 00000000*      7916 	.word	___ghs_eofn_PRODFLASH_GetEolCheckerByte-_PRODFLASH_GetEolCheckerByte
00000314 01             7917 	.byte	1
00000315 00000000*      7918 	.word	.LDW36
00000319 00             7919 	.byte	0
0000031a 00             7920 	.byte	0
0000031b 00             7921 	.byte	0
                        7922 .LDW_unq_36:
                        7923 	.section	.debug_line
00000bca 000502         7924 	.byte	0,5,2
00000bcd 00000000*      7925 	.word	_PRODFLASH_GetEolCheckerByte
00000bd1 03             7926 	.byte	3
00000bd2 8005           7927 	.byte	128,5
00000bd4 02             7928 	.byte	2
00000bd5 00             7929 	.byte	0
00000bd6 01             7930 	.byte	1
00000bd7 06             7931 	.byte	6
00000bd8 03             7932 	.byte	3
00000bd9 06             7933 	.byte	6
00000bda 02             7934 	.byte	2
00000bdb 02             7935 	.byte	2
00000bdc 01             7936 	.byte	1
00000bdd 0c             7937 	.byte	12
00000bde 000502         7938 	.byte	0,5,2
00000be1 00000000*      7939 	.word	.LDWlin95
00000be5 0b             7940 	.byte	11
00000be6 0c             7941 	.byte	12
00000be7 06             7942 	.byte	6
00000be8 02             7943 	.byte	2
00000be9 04             7944 	.byte	4
00000bea 02             7945 	.byte	2
00000beb 02             7946 	.byte	2
00000bec 000101         7947 	.byte	0,1,1
                        7948 	.section	.debug_info
                        7949 .LDW_4d28a88:
00002334 0f             7950 	.byte	15
00002335 756344617461   7951 	.strz	"ucData"
0000233b 00 
0000233c 8005           7952 	.byte	128,5
0000233e 2a             7953 	.byte	42
0000233f 01             7954 	.byte	1
00002340 00000000*      7955 	.word	.LDW_4087378
00002344 00             7956 	.byte	0
00002345 016e           7957 	.byte	1,110
                        7958 
                        7959 .LDW_4d1e9e8:
00002347 1d             7960 	.byte	29
00002348 00000000*      7961 	.word	.LDW26
0000234c 00000000*      7962 	.word	.LDW36
                        7963 
                        7964 .LDW_4d28350:

                                                                      Page 147
                                                              C:\Users\nhuliyap\AppData\Local\Temp\gh_000048k1.s
00002350 05             7965 	.byte	5
00002351 7563436f756e   7966 	.strz	"ucCounter"
00002357 74657200 
0000235b 8205           7967 	.byte	130,5
0000235d 09             7968 	.byte	9
0000235e 01             7969 	.byte	1
0000235f 00000000*      7970 	.word	.LDW_40c9d08
00002363 00             7971 	.byte	0
00002364 00             7972 	.byte	0
                        7973 
                        7974 .LDW_4d282f8:
00002365 05             7975 	.byte	5
00002366 756353697a65   7976 	.strz	"ucSize"
0000236c 00 
0000236d 8305           7977 	.byte	131,5
0000236f 09             7978 	.byte	9
00002370 01             7979 	.byte	1
00002371 00000000*      7980 	.word	.LDW_40c9d08
00002375 00             7981 	.byte	0
00002376 00             7982 	.byte	0
                        7983 
00002377 00             7984 	.byte	0
                        7985 
00002378 00             7986 	.byte	0
                        7987 
                        7988 .LDW_4d1f780:
00002379 14             7989 	.byte	20
0000237a 50524f44464c   7990 	.strz	"PRODFLASH_GetApplicationChecksum"
00002380 4153485f4765 
00002386 744170706c69 
0000238c 636174696f6e 
00002392 436865636b73 
00002398 756d00 
0000239b 8f05           7991 	.byte	143,5
0000239d 07             7992 	.byte	7
0000239e 01             7993 	.byte	1
0000239f 00000000*      7994 	.word	.LDW_40c9d08
000023a3 00000000*      7995 	.word	_PRODFLASH_GetApplicationChecksum
000023a7 00000000*      7996 	.word	___ghs_eofn_PRODFLASH_GetApplicationChecksum
000023ab 0153           7997 	.byte	1,83
000023ad 02             7998 	.byte	2
000023ae 00             7999 	.byte	0
000023af 02             8000 	.byte	2
000023b0 00             8001 	.byte	0
000023b1 00             8002 	.byte	0
000023b2 00             8003 	.byte	0
000023b3 00             8004 	.byte	0
000023b4 01             8005 	.byte	1
000023b5 01             8006 	.byte	1
000023b6 00             8007 	.byte	0
000023b7 01             8008 	.byte	1
                        8009 
                        8010 	.section	.debug_frame
                        8011 .LDW_4e722b8:
0000031c 00000000*      8012 	.word	.LDW_unq_38-.LDW_unq_37
                        8013 .LDW_unq_37:
00000320 00000000*      8014 	.word	.LDW_4cccd08
00000324 00000000*      8015 	.word	_PRODFLASH_GetApplicationChecksum
00000328 00000000*      8016 	.word	___ghs_eofn_PRODFLASH_GetApplicationChecksum-_PRODFLASH_GetApplicationChecksum
0000032c 01             8017 	.byte	1
0000032d 00000000*      8018 	.word	.LDW56

                                                                      Page 148
                                                              C:\Users\nhuliyap\AppData\Local\Temp\gh_000048k1.s
00000331 00             8019 	.byte	0
00000332 00             8020 	.byte	0
00000333 00             8021 	.byte	0
                        8022 .LDW_unq_38:
                        8023 	.section	.debug_line
00000bef 000502         8024 	.byte	0,5,2
00000bf2 00000000*      8025 	.word	_PRODFLASH_GetApplicationChecksum
00000bf6 06             8026 	.byte	6
00000bf7 03             8027 	.byte	3
00000bf8 9505           8028 	.byte	149,5
00000bfa 02             8029 	.byte	2
00000bfb 00             8030 	.byte	0
00000bfc 01             8031 	.byte	1
00000bfd 02             8032 	.byte	2
00000bfe 02             8033 	.byte	2
00000bff 0c             8034 	.byte	12
00000c00 000502         8035 	.byte	0,5,2
00000c03 00000000*      8036 	.word	.LDWlin96
00000c07 03             8037 	.byte	3
00000c08 7e             8038 	.byte	126
00000c09 02             8039 	.byte	2
00000c0a 00             8040 	.byte	0
00000c0b 01             8041 	.byte	1
00000c0c 000502         8042 	.byte	0,5,2
00000c0f 00000000*      8043 	.word	.LDWlin97
00000c13 0d             8044 	.byte	13
00000c14 0c             8045 	.byte	12
00000c15 06             8046 	.byte	6
00000c16 02             8047 	.byte	2
00000c17 02             8048 	.byte	2
00000c18 02             8049 	.byte	2
00000c19 02             8050 	.byte	2
00000c1a 000101         8051 	.byte	0,1,1
                        8052 	.section	.debug_info
                        8053 .LDW_4d28140:
000023b8 0f             8054 	.byte	15
000023b9 756344617461   8055 	.strz	"ucData"
000023bf 00 
000023c0 8f05           8056 	.byte	143,5
000023c2 2f             8057 	.byte	47
000023c3 01             8058 	.byte	1
000023c4 00000000*      8059 	.word	.LDW_4087378
000023c8 00             8060 	.byte	0
000023c9 0156           8061 	.byte	1,86
                        8062 
                        8063 .LDW_4d1ee08:
000023cb 1d             8064 	.byte	29
000023cc 00000000*      8065 	.word	.LDW46
000023d0 00000000*      8066 	.word	.LDW56
                        8067 
                        8068 .LDW_4d28718:
000023d4 04             8069 	.byte	4
000023d5 7563436f756e   8070 	.strz	"ucCounter"
000023db 74657200 
000023df 9105           8071 	.byte	145,5
000023e1 0a             8072 	.byte	10
000023e2 01             8073 	.byte	1
000023e3 00000000*      8074 	.word	.LDW_40c9d08
000023e7 00             8075 	.byte	0
000023e8 00             8076 	.byte	0
000023e9 0162           8077 	.byte	1,98

                                                                      Page 149
                                                              C:\Users\nhuliyap\AppData\Local\Temp\gh_000048k1.s
                        8078 
                        8079 .LDW_4d280e8:
000023eb 05             8080 	.byte	5
000023ec 756353697a65   8081 	.strz	"ucSize"
000023f2 00 
000023f3 9205           8082 	.byte	146,5
000023f5 0a             8083 	.byte	10
000023f6 01             8084 	.byte	1
000023f7 00000000*      8085 	.word	.LDW_40c9d08
000023fb 00             8086 	.byte	0
000023fc 00             8087 	.byte	0
                        8088 
000023fd 00             8089 	.byte	0
                        8090 
000023fe 00             8091 	.byte	0
                        8092 
                        8093 .LDW_4d1f358:
000023ff 14             8094 	.byte	20
00002400 50524f44464c   8095 	.strz	"PRODFLASH_GetBhsensProductionDate"
00002406 4153485f4765 
0000240c 74426873656e 
00002412 7350726f6475 
00002418 6374696f6e44 
0000241e 61746500 
00002422 9e05           8096 	.byte	158,5
00002424 07             8097 	.byte	7
00002425 01             8098 	.byte	1
00002426 00000000*      8099 	.word	.LDW_40c9d08
0000242a 00000000*      8100 	.word	_PRODFLASH_GetBhsensProductionDate
0000242e 00000000*      8101 	.word	___ghs_eofn_PRODFLASH_GetBhsensProductionDate
00002432 0153           8102 	.byte	1,83
00002434 02             8103 	.byte	2
00002435 00             8104 	.byte	0
00002436 02             8105 	.byte	2
00002437 00             8106 	.byte	0
00002438 00             8107 	.byte	0
00002439 00             8108 	.byte	0
0000243a 00             8109 	.byte	0
0000243b 01             8110 	.byte	1
0000243c 01             8111 	.byte	1
0000243d 00             8112 	.byte	0
0000243e 01             8113 	.byte	1
                        8114 
                        8115 	.section	.debug_frame
                        8116 .LDW_4e720f8:
00000334 00000000*      8117 	.word	.LDW_unq_3a-.LDW_unq_39
                        8118 .LDW_unq_39:
00000338 00000000*      8119 	.word	.LDW_4cccd08
0000033c 00000000*      8120 	.word	_PRODFLASH_GetBhsensProductionDate
00000340 00000000*      8121 	.word	___ghs_eofn_PRODFLASH_GetBhsensProductionDate-_PRODFLASH_GetBhsensProductionDate
00000344 01             8122 	.byte	1
00000345 00000000*      8123 	.word	.LDW76
00000349 00             8124 	.byte	0
0000034a 00             8125 	.byte	0
0000034b 00             8126 	.byte	0
                        8127 .LDW_unq_3a:
                        8128 	.section	.debug_line
00000c1d 000502         8129 	.byte	0,5,2
00000c20 00000000*      8130 	.word	_PRODFLASH_GetBhsensProductionDate
00000c24 06             8131 	.byte	6
00000c25 03             8132 	.byte	3

                                                                      Page 150
                                                              C:\Users\nhuliyap\AppData\Local\Temp\gh_000048k1.s
00000c26 a405           8133 	.byte	164,5
00000c28 02             8134 	.byte	2
00000c29 00             8135 	.byte	0
00000c2a 01             8136 	.byte	1
00000c2b 02             8137 	.byte	2
00000c2c 02             8138 	.byte	2
00000c2d 0c             8139 	.byte	12
00000c2e 000502         8140 	.byte	0,5,2
00000c31 00000000*      8141 	.word	.LDWlin98
00000c35 03             8142 	.byte	3
00000c36 7e             8143 	.byte	126
00000c37 02             8144 	.byte	2
00000c38 00             8145 	.byte	0
00000c39 01             8146 	.byte	1
00000c3a 000502         8147 	.byte	0,5,2
00000c3d 00000000*      8148 	.word	.LDWlin99
00000c41 0d             8149 	.byte	13
00000c42 0c             8150 	.byte	12
00000c43 06             8151 	.byte	6
00000c44 02             8152 	.byte	2
00000c45 02             8153 	.byte	2
00000c46 02             8154 	.byte	2
00000c47 02             8155 	.byte	2
00000c48 000101         8156 	.byte	0,1,1
                        8157 	.section	.debug_info
                        8158 .LDW_4d28458:
0000243f 0f             8159 	.byte	15
00002440 756344617461   8160 	.strz	"ucData"
00002446 00 
00002447 9e05           8161 	.byte	158,5
00002449 30             8162 	.byte	48
0000244a 01             8163 	.byte	1
0000244b 00000000*      8164 	.word	.LDW_4087378
0000244f 00             8165 	.byte	0
00002450 0156           8166 	.byte	1,86
                        8167 
                        8168 .LDW_4d1ec58:
00002452 1d             8169 	.byte	29
00002453 00000000*      8170 	.word	.LDW66
00002457 00000000*      8171 	.word	.LDW76
                        8172 
                        8173 .LDW_4d284b0:
0000245b 04             8174 	.byte	4
0000245c 7563436f756e   8175 	.strz	"ucCounter"
00002462 74657200 
00002466 a005           8176 	.byte	160,5
00002468 09             8177 	.byte	9
00002469 01             8178 	.byte	1
0000246a 00000000*      8179 	.word	.LDW_40c9d08
0000246e 00             8180 	.byte	0
0000246f 00             8181 	.byte	0
00002470 0162           8182 	.byte	1,98
                        8183 
                        8184 .LDW_4d28668:
00002472 05             8185 	.byte	5
00002473 756353697a65   8186 	.strz	"ucSize"
00002479 00 
0000247a a105           8187 	.byte	161,5
0000247c 09             8188 	.byte	9
0000247d 01             8189 	.byte	1
0000247e 00000000*      8190 	.word	.LDW_40c9d08

                                                                      Page 151
                                                              C:\Users\nhuliyap\AppData\Local\Temp\gh_000048k1.s
00002482 00             8191 	.byte	0
00002483 00             8192 	.byte	0
                        8193 
00002484 00             8194 	.byte	0
                        8195 
00002485 00             8196 	.byte	0
                        8197 
                        8198 .LDW_4d1f818:
00002486 14             8199 	.byte	20
00002487 50524f44464c   8200 	.strz	"PRODFLASH_GetBhsensHardwareNumber"
0000248d 4153485f4765 
00002493 74426873656e 
00002499 734861726477 
0000249f 6172654e756d 
000024a5 62657200 
000024a9 ad05           8201 	.byte	173,5
000024ab 07             8202 	.byte	7
000024ac 01             8203 	.byte	1
000024ad 00000000*      8204 	.word	.LDW_40c9d08
000024b1 00000000*      8205 	.word	_PRODFLASH_GetBhsensHardwareNumber
000024b5 00000000*      8206 	.word	___ghs_eofn_PRODFLASH_GetBhsensHardwareNumber
000024b9 0153           8207 	.byte	1,83
000024bb 02             8208 	.byte	2
000024bc 00             8209 	.byte	0
000024bd 02             8210 	.byte	2
000024be 00             8211 	.byte	0
000024bf 00             8212 	.byte	0
000024c0 00             8213 	.byte	0
000024c1 00             8214 	.byte	0
000024c2 01             8215 	.byte	1
000024c3 01             8216 	.byte	1
000024c4 00             8217 	.byte	0
000024c5 01             8218 	.byte	1
                        8219 
                        8220 	.section	.debug_frame
                        8221 .LDW_4e728f8:
0000034c 00000000*      8222 	.word	.LDW_unq_3c-.LDW_unq_3b
                        8223 .LDW_unq_3b:
00000350 00000000*      8224 	.word	.LDW_4cccd08
00000354 00000000*      8225 	.word	_PRODFLASH_GetBhsensHardwareNumber
00000358 00000000*      8226 	.word	___ghs_eofn_PRODFLASH_GetBhsensHardwareNumber-_PRODFLASH_GetBhsensHardwareNumber
0000035c 01             8227 	.byte	1
0000035d 00000000*      8228 	.word	.LDW96
00000361 00             8229 	.byte	0
00000362 00             8230 	.byte	0
00000363 00             8231 	.byte	0
                        8232 .LDW_unq_3c:
                        8233 	.section	.debug_line
00000c4b 000502         8234 	.byte	0,5,2
00000c4e 00000000*      8235 	.word	_PRODFLASH_GetBhsensHardwareNumber
00000c52 06             8236 	.byte	6
00000c53 03             8237 	.byte	3
00000c54 b305           8238 	.byte	179,5
00000c56 02             8239 	.byte	2
00000c57 00             8240 	.byte	0
00000c58 01             8241 	.byte	1
00000c59 02             8242 	.byte	2
00000c5a 02             8243 	.byte	2
00000c5b 0c             8244 	.byte	12
00000c5c 000502         8245 	.byte	0,5,2
00000c5f 00000000*      8246 	.word	.LDWlin100

                                                                      Page 152
                                                              C:\Users\nhuliyap\AppData\Local\Temp\gh_000048k1.s
00000c63 03             8247 	.byte	3
00000c64 7e             8248 	.byte	126
00000c65 02             8249 	.byte	2
00000c66 00             8250 	.byte	0
00000c67 01             8251 	.byte	1
00000c68 000502         8252 	.byte	0,5,2
00000c6b 00000000*      8253 	.word	.LDWlin101
00000c6f 0d             8254 	.byte	13
00000c70 0c             8255 	.byte	12
00000c71 06             8256 	.byte	6
00000c72 02             8257 	.byte	2
00000c73 02             8258 	.byte	2
00000c74 02             8259 	.byte	2
00000c75 02             8260 	.byte	2
00000c76 000101         8261 	.byte	0,1,1
                        8262 	.section	.debug_info
                        8263 .LDW_4d28a30:
000024c6 0f             8264 	.byte	15
000024c7 756344617461   8265 	.strz	"ucData"
000024cd 00 
000024ce ad05           8266 	.byte	173,5
000024d0 30             8267 	.byte	48
000024d1 01             8268 	.byte	1
000024d2 00000000*      8269 	.word	.LDW_4087378
000024d6 00             8270 	.byte	0
000024d7 0156           8271 	.byte	1,86
                        8272 
                        8273 .LDW_4d1ef28:
000024d9 1d             8274 	.byte	29
000024da 00000000*      8275 	.word	.LDW86
000024de 00000000*      8276 	.word	.LDW96
                        8277 
                        8278 .LDW_4d285b8:
000024e2 04             8279 	.byte	4
000024e3 7563436f756e   8280 	.strz	"ucCounter"
000024e9 74657200 
000024ed af05           8281 	.byte	175,5
000024ef 09             8282 	.byte	9
000024f0 01             8283 	.byte	1
000024f1 00000000*      8284 	.word	.LDW_40c9d08
000024f5 00             8285 	.byte	0
000024f6 00             8286 	.byte	0
000024f7 0162           8287 	.byte	1,98
                        8288 
                        8289 .LDW_4d28878:
000024f9 05             8290 	.byte	5
000024fa 756353697a65   8291 	.strz	"ucSize"
00002500 00 
00002501 b005           8292 	.byte	176,5
00002503 09             8293 	.byte	9
00002504 01             8294 	.byte	1
00002505 00000000*      8295 	.word	.LDW_40c9d08
00002509 00             8296 	.byte	0
0000250a 00             8297 	.byte	0
                        8298 
0000250b 00             8299 	.byte	0
                        8300 
0000250c 00             8301 	.byte	0
                        8302 
                        8303 .LDW_4d1f520:
0000250d 14             8304 	.byte	20

                                                                      Page 153
                                                              C:\Users\nhuliyap\AppData\Local\Temp\gh_000048k1.s
0000250e 50524f44464c   8305 	.strz	"PRODFLASH_GetBhsensHwVersionInfo"
00002514 4153485f4765 
0000251a 74426873656e 
00002520 734877566572 
00002526 73696f6e496e 
0000252c 666f00 
0000252f bc05           8306 	.byte	188,5
00002531 07             8307 	.byte	7
00002532 01             8308 	.byte	1
00002533 00000000*      8309 	.word	.LDW_40c9d08
00002537 00000000*      8310 	.word	_PRODFLASH_GetBhsensHwVersionInfo
0000253b 00000000*      8311 	.word	___ghs_eofn_PRODFLASH_GetBhsensHwVersionInfo
0000253f 0153           8312 	.byte	1,83
00002541 02             8313 	.byte	2
00002542 00             8314 	.byte	0
00002543 02             8315 	.byte	2
00002544 00             8316 	.byte	0
00002545 00             8317 	.byte	0
00002546 00             8318 	.byte	0
00002547 00             8319 	.byte	0
00002548 01             8320 	.byte	1
00002549 01             8321 	.byte	1
0000254a 00             8322 	.byte	0
0000254b 01             8323 	.byte	1
                        8324 
                        8325 	.section	.debug_frame
                        8326 .LDW_4e72578:
00000364 00000000*      8327 	.word	.LDW_unq_3e-.LDW_unq_3d
                        8328 .LDW_unq_3d:
00000368 00000000*      8329 	.word	.LDW_4cccd08
0000036c 00000000*      8330 	.word	_PRODFLASH_GetBhsensHwVersionInfo
00000370 00000000*      8331 	.word	___ghs_eofn_PRODFLASH_GetBhsensHwVersionInfo-_PRODFLASH_GetBhsensHwVersionInfo
00000374 01             8332 	.byte	1
00000375 00000000*      8333 	.word	.LDW17
00000379 00             8334 	.byte	0
0000037a 00             8335 	.byte	0
0000037b 00             8336 	.byte	0
                        8337 .LDW_unq_3e:
                        8338 	.section	.debug_line
00000c79 000502         8339 	.byte	0,5,2
00000c7c 00000000*      8340 	.word	_PRODFLASH_GetBhsensHwVersionInfo
00000c80 06             8341 	.byte	6
00000c81 03             8342 	.byte	3
00000c82 c205           8343 	.byte	194,5
00000c84 02             8344 	.byte	2
00000c85 00             8345 	.byte	0
00000c86 01             8346 	.byte	1
00000c87 02             8347 	.byte	2
00000c88 02             8348 	.byte	2
00000c89 0c             8349 	.byte	12
00000c8a 000502         8350 	.byte	0,5,2
00000c8d 00000000*      8351 	.word	.LDWlin102
00000c91 03             8352 	.byte	3
00000c92 7e             8353 	.byte	126
00000c93 02             8354 	.byte	2
00000c94 00             8355 	.byte	0
00000c95 01             8356 	.byte	1
00000c96 000502         8357 	.byte	0,5,2
00000c99 00000000*      8358 	.word	.LDWlin103
00000c9d 0d             8359 	.byte	13
00000c9e 0c             8360 	.byte	12

                                                                      Page 154
                                                              C:\Users\nhuliyap\AppData\Local\Temp\gh_000048k1.s
00000c9f 06             8361 	.byte	6
00000ca0 02             8362 	.byte	2
00000ca1 02             8363 	.byte	2
00000ca2 02             8364 	.byte	2
00000ca3 02             8365 	.byte	2
00000ca4 000101         8366 	.byte	0,1,1
                        8367 	.section	.debug_info
                        8368 .LDW_4d28560:
0000254c 0f             8369 	.byte	15
0000254d 756344617461   8370 	.strz	"ucData"
00002553 00 
00002554 bc05           8371 	.byte	188,5
00002556 2f             8372 	.byte	47
00002557 01             8373 	.byte	1
00002558 00000000*      8374 	.word	.LDW_4087378
0000255c 00             8375 	.byte	0
0000255d 0156           8376 	.byte	1,86
                        8377 
                        8378 .LDW_4d1ee38:
0000255f 1d             8379 	.byte	29
00002560 00000000*      8380 	.word	.LDW07
00002564 00000000*      8381 	.word	.LDW17
                        8382 
                        8383 .LDW_4d283a8:
00002568 04             8384 	.byte	4
00002569 7563436f756e   8385 	.strz	"ucCounter"
0000256f 74657200 
00002573 be05           8386 	.byte	190,5
00002575 09             8387 	.byte	9
00002576 01             8388 	.byte	1
00002577 00000000*      8389 	.word	.LDW_40c9d08
0000257b 00             8390 	.byte	0
0000257c 00             8391 	.byte	0
0000257d 0162           8392 	.byte	1,98
                        8393 
                        8394 .LDW_4d28090:
0000257f 05             8395 	.byte	5
00002580 756353697a65   8396 	.strz	"ucSize"
00002586 00 
00002587 bf05           8397 	.byte	191,5
00002589 09             8398 	.byte	9
0000258a 01             8399 	.byte	1
0000258b 00000000*      8400 	.word	.LDW_40c9d08
0000258f 00             8401 	.byte	0
00002590 00             8402 	.byte	0
                        8403 
00002591 00             8404 	.byte	0
                        8405 
00002592 00             8406 	.byte	0
                        8407 
                        8408 .LDW_4d1f488:
00002593 14             8409 	.byte	20
00002594 50524f44464c   8410 	.strz	"PRODFLASH_GetProgrammingDate"
0000259a 4153485f4765 
000025a0 7450726f6772 
000025a6 616d6d696e67 
000025ac 4461746500 
000025b1 cb05           8411 	.byte	203,5
000025b3 07             8412 	.byte	7
000025b4 01             8413 	.byte	1
000025b5 00000000*      8414 	.word	.LDW_40c9d08

                                                                      Page 155
                                                              C:\Users\nhuliyap\AppData\Local\Temp\gh_000048k1.s
000025b9 00000000*      8415 	.word	_PRODFLASH_GetProgrammingDate
000025bd 00000000*      8416 	.word	___ghs_eofn_PRODFLASH_GetProgrammingDate
000025c1 0153           8417 	.byte	1,83
000025c3 02             8418 	.byte	2
000025c4 00             8419 	.byte	0
000025c5 02             8420 	.byte	2
000025c6 00             8421 	.byte	0
000025c7 00             8422 	.byte	0
000025c8 00             8423 	.byte	0
000025c9 00             8424 	.byte	0
000025ca 01             8425 	.byte	1
000025cb 01             8426 	.byte	1
000025cc 00             8427 	.byte	0
000025cd 01             8428 	.byte	1
                        8429 
                        8430 	.section	.debug_frame
                        8431 .LDW_4e72938:
0000037c 00000000*      8432 	.word	.LDW_unq_40-.LDW_unq_3f
                        8433 .LDW_unq_3f:
00000380 00000000*      8434 	.word	.LDW_4cccd08
00000384 00000000*      8435 	.word	_PRODFLASH_GetProgrammingDate
00000388 00000000*      8436 	.word	___ghs_eofn_PRODFLASH_GetProgrammingDate-_PRODFLASH_GetProgrammingDate
0000038c 01             8437 	.byte	1
0000038d 00000000*      8438 	.word	.LDW37
00000391 00             8439 	.byte	0
00000392 00             8440 	.byte	0
00000393 00             8441 	.byte	0
                        8442 .LDW_unq_40:
                        8443 	.section	.debug_line
00000ca7 000502         8444 	.byte	0,5,2
00000caa 00000000*      8445 	.word	_PRODFLASH_GetProgrammingDate
00000cae 06             8446 	.byte	6
00000caf 03             8447 	.byte	3
00000cb0 d305           8448 	.byte	211,5
00000cb2 02             8449 	.byte	2
00000cb3 00             8450 	.byte	0
00000cb4 01             8451 	.byte	1
00000cb5 1d             8452 	.byte	29
00000cb6 02             8453 	.byte	2
00000cb7 02             8454 	.byte	2
00000cb8 0c             8455 	.byte	12
00000cb9 000502         8456 	.byte	0,5,2
00000cbc 00000000*      8457 	.word	.LDWlin104
00000cc0 03             8458 	.byte	3
00000cc1 7e             8459 	.byte	126
00000cc2 02             8460 	.byte	2
00000cc3 00             8461 	.byte	0
00000cc4 01             8462 	.byte	1
00000cc5 000502         8463 	.byte	0,5,2
00000cc8 00000000*      8464 	.word	.LDWlin105
00000ccc 0d             8465 	.byte	13
00000ccd 0c             8466 	.byte	12
00000cce 06             8467 	.byte	6
00000ccf 02             8468 	.byte	2
00000cd0 04             8469 	.byte	4
00000cd1 02             8470 	.byte	2
00000cd2 02             8471 	.byte	2
00000cd3 000101         8472 	.byte	0,1,1
                        8473 	.section	.debug_info
                        8474 .LDW_4d286c0:
000025ce 0f             8475 	.byte	15

                                                                      Page 156
                                                              C:\Users\nhuliyap\AppData\Local\Temp\gh_000048k1.s
000025cf 756344617461   8476 	.strz	"ucData"
000025d5 00 
000025d6 cb05           8477 	.byte	203,5
000025d8 2b             8478 	.byte	43
000025d9 01             8479 	.byte	1
000025da 00000000*      8480 	.word	.LDW_4087378
000025de 00             8481 	.byte	0
000025df 0156           8482 	.byte	1,86
                        8483 
                        8484 .LDW_4d1ecb8:
000025e1 1d             8485 	.byte	29
000025e2 00000000*      8486 	.word	.LDW27
000025e6 00000000*      8487 	.word	.LDW37
                        8488 
                        8489 .LDW_4d288d0:
000025ea 04             8490 	.byte	4
000025eb 7563436f756e   8491 	.strz	"ucCounter"
000025f1 74657200 
000025f5 cd05           8492 	.byte	205,5
000025f7 0a             8493 	.byte	10
000025f8 01             8494 	.byte	1
000025f9 00000000*      8495 	.word	.LDW_40c9d08
000025fd 00             8496 	.byte	0
000025fe 00             8497 	.byte	0
000025ff 0162           8498 	.byte	1,98
                        8499 
                        8500 .LDW_4d282a0:
00002601 05             8501 	.byte	5
00002602 756353697a65   8502 	.strz	"ucSize"
00002608 00 
00002609 ce05           8503 	.byte	206,5
0000260b 0a             8504 	.byte	10
0000260c 01             8505 	.byte	1
0000260d 00000000*      8506 	.word	.LDW_40c9d08
00002611 00             8507 	.byte	0
00002612 00             8508 	.byte	0
                        8509 
                        8510 .LDW_4d28770:
00002613 04             8511 	.byte	4
00002614 6900           8512 	.strz	"i"
00002616 cf05           8513 	.byte	207,5
00002618 0a             8514 	.byte	10
00002619 01             8515 	.byte	1
0000261a 00000000*      8516 	.word	.LDW_40c9d08
0000261e 00             8517 	.byte	0
0000261f 00             8518 	.byte	0
00002620 0161           8519 	.byte	1,97
                        8520 
00002622 00             8521 	.byte	0
                        8522 
00002623 00             8523 	.byte	0
                        8524 
                        8525 .LDW_4d1fe08:
00002624 13             8526 	.byte	19
00002625 50524f44464c   8527 	.strz	"PRODFLASH_PutVin"
0000262b 4153485f5075 
00002631 7456696e00 
00002636 df05           8528 	.byte	223,5
00002638 06             8529 	.byte	6
00002639 01             8530 	.byte	1
0000263a 00000000*      8531 	.word	_PRODFLASH_PutVin

                                                                      Page 157
                                                              C:\Users\nhuliyap\AppData\Local\Temp\gh_000048k1.s
0000263e 00000000*      8532 	.word	___ghs_eofn_PRODFLASH_PutVin
00002642 0153           8533 	.byte	1,83
00002644 02             8534 	.byte	2
00002645 00             8535 	.byte	0
00002646 02             8536 	.byte	2
00002647 00             8537 	.byte	0
00002648 00             8538 	.byte	0
00002649 00             8539 	.byte	0
0000264a 00             8540 	.byte	0
0000264b 01             8541 	.byte	1
0000264c 01             8542 	.byte	1
0000264d 00             8543 	.byte	0
0000264e 01             8544 	.byte	1
                        8545 
                        8546 	.section	.debug_frame
                        8547 .LDW_4e727b8:
00000394 00000000*      8548 	.word	.LDW_unq_42-.LDW_unq_41
                        8549 .LDW_unq_41:
00000398 00000000*      8550 	.word	.LDW_4cccd08
0000039c 00000000*      8551 	.word	_PRODFLASH_PutVin
000003a0 00000000*      8552 	.word	___ghs_eofn_PRODFLASH_PutVin-_PRODFLASH_PutVin
000003a4 01             8553 	.byte	1
000003a5 00000000*      8554 	.word	.LDW57
000003a9 00             8555 	.byte	0
000003aa 00             8556 	.byte	0
000003ab 00             8557 	.byte	0
                        8558 .LDW_unq_42:
                        8559 	.section	.debug_line
00000cd6 000502         8560 	.byte	0,5,2
00000cd9 00000000*      8561 	.word	_PRODFLASH_PutVin
00000cdd 06             8562 	.byte	6
00000cde 03             8563 	.byte	3
00000cdf e005           8564 	.byte	224,5
00000ce1 02             8565 	.byte	2
00000ce2 00             8566 	.byte	0
00000ce3 01             8567 	.byte	1
00000ce4 02             8568 	.byte	2
00000ce5 0c             8569 	.byte	12
00000ce6 000101         8570 	.byte	0,1,1
                        8571 	.section	.debug_info
                        8572 .LDW_4d28400:
0000264f 0f             8573 	.byte	15
00002650 756344617461   8574 	.strz	"ucData"
00002656 00 
00002657 df05           8575 	.byte	223,5
00002659 24             8576 	.byte	36
0000265a 01             8577 	.byte	1
0000265b 00000000*      8578 	.word	.LDW_4086ee0
0000265f 00             8579 	.byte	0
00002660 0156           8580 	.byte	1,86
                        8581 
                        8582 .LDW_4d1ee98:
00002662 1d             8583 	.byte	29
00002663 00000000*      8584 	.word	.LDW47
00002667 00000000*      8585 	.word	.LDW57
                        8586 
0000266b 00             8587 	.byte	0
                        8588 
0000266c 00             8589 	.byte	0
                        8590 
                        8591 .LDW_4d1f5b8:

                                                                      Page 158
                                                              C:\Users\nhuliyap\AppData\Local\Temp\gh_000048k1.s
0000266d 13             8592 	.byte	19
0000266e 50524f44464c   8593 	.strz	"PRODFLASH_PutManufacturingSupportMode"
00002674 4153485f5075 
0000267a 744d616e7566 
00002680 616374757269 
00002686 6e6753757070 
0000268c 6f72744d6f64 
00002692 6500 
00002694 e405           8594 	.byte	228,5
00002696 06             8595 	.byte	6
00002697 01             8596 	.byte	1
00002698 00000000*      8597 	.word	_PRODFLASH_PutManufacturingSupportMode
0000269c 00000000*      8598 	.word	___ghs_eofn_PRODFLASH_PutManufacturingSupportMode
000026a0 0153           8599 	.byte	1,83
000026a2 02             8600 	.byte	2
000026a3 00             8601 	.byte	0
000026a4 02             8602 	.byte	2
000026a5 00             8603 	.byte	0
000026a6 00             8604 	.byte	0
000026a7 00             8605 	.byte	0
000026a8 00             8606 	.byte	0
000026a9 01             8607 	.byte	1
000026aa 01             8608 	.byte	1
000026ab 00             8609 	.byte	0
000026ac 01             8610 	.byte	1
                        8611 
                        8612 	.section	.debug_frame
                        8613 .LDW_4e72878:
000003ac 00000000*      8614 	.word	.LDW_unq_44-.LDW_unq_43
                        8615 .LDW_unq_43:
000003b0 00000000*      8616 	.word	.LDW_4cccd08
000003b4 00000000*      8617 	.word	_PRODFLASH_PutManufacturingSupportMode
000003b8 00000000*      8618 	.word	___ghs_eofn_PRODFLASH_PutManufacturingSupportMode-_PRODFLASH_PutManufacturingSupportMode
000003bc 01             8619 	.byte	1
000003bd 00000000*      8620 	.word	.LDW77
000003c1 00             8621 	.byte	0
000003c2 00             8622 	.byte	0
000003c3 00             8623 	.byte	0
                        8624 .LDW_unq_44:
                        8625 	.section	.debug_line
00000ce9 000502         8626 	.byte	0,5,2
00000cec 00000000*      8627 	.word	_PRODFLASH_PutManufacturingSupportMode
00000cf0 06             8628 	.byte	6
00000cf1 03             8629 	.byte	3
00000cf2 e505           8630 	.byte	229,5
00000cf4 02             8631 	.byte	2
00000cf5 00             8632 	.byte	0
00000cf6 01             8633 	.byte	1
00000cf7 02             8634 	.byte	2
00000cf8 0c             8635 	.byte	12
00000cf9 000101         8636 	.byte	0,1,1
                        8637 	.section	.debug_info
                        8638 .LDW_4d281f0:
000026ad 0f             8639 	.byte	15
000026ae 756344617461   8640 	.strz	"ucData"
000026b4 00 
000026b5 e405           8641 	.byte	228,5
000026b7 39             8642 	.byte	57
000026b8 01             8643 	.byte	1
000026b9 00000000*      8644 	.word	.LDW_4086ee0
000026bd 00             8645 	.byte	0

                                                                      Page 159
                                                              C:\Users\nhuliyap\AppData\Local\Temp\gh_000048k1.s
000026be 0156           8646 	.byte	1,86
                        8647 
                        8648 .LDW_4d1ed48:
000026c0 1d             8649 	.byte	29
000026c1 00000000*      8650 	.word	.LDW67
000026c5 00000000*      8651 	.word	.LDW77
                        8652 
000026c9 00             8653 	.byte	0
                        8654 
000026ca 00             8655 	.byte	0
                        8656 
                        8657 .LDW_4d1f3f0:
000026cb 13             8658 	.byte	19
000026cc 50524f44464c   8659 	.strz	"PRODFLASH_PutEolCheckerByte"
000026d2 4153485f5075 
000026d8 74456f6c4368 
000026de 65636b657242 
000026e4 79746500 
000026e8 e905           8660 	.byte	233,5
000026ea 06             8661 	.byte	6
000026eb 01             8662 	.byte	1
000026ec 00000000*      8663 	.word	_PRODFLASH_PutEolCheckerByte
000026f0 00000000*      8664 	.word	___ghs_eofn_PRODFLASH_PutEolCheckerByte
000026f4 0153           8665 	.byte	1,83
000026f6 02             8666 	.byte	2
000026f7 00             8667 	.byte	0
000026f8 02             8668 	.byte	2
000026f9 00             8669 	.byte	0
000026fa 00             8670 	.byte	0
000026fb 00             8671 	.byte	0
000026fc 00             8672 	.byte	0
000026fd 01             8673 	.byte	1
000026fe 01             8674 	.byte	1
000026ff 00             8675 	.byte	0
00002700 01             8676 	.byte	1
                        8677 
                        8678 	.section	.debug_frame
                        8679 .LDW_4e728b8:
000003c4 00000000*      8680 	.word	.LDW_unq_46-.LDW_unq_45
                        8681 .LDW_unq_45:
000003c8 00000000*      8682 	.word	.LDW_4cccd08
000003cc 00000000*      8683 	.word	_PRODFLASH_PutEolCheckerByte
000003d0 00000000*      8684 	.word	___ghs_eofn_PRODFLASH_PutEolCheckerByte-_PRODFLASH_PutEolCheckerByte
000003d4 01             8685 	.byte	1
000003d5 00000000*      8686 	.word	.LDW97
000003d9 00             8687 	.byte	0
000003da 00             8688 	.byte	0
000003db 00             8689 	.byte	0
                        8690 .LDW_unq_46:
                        8691 	.section	.debug_line
00000cfc 000502         8692 	.byte	0,5,2
00000cff 00000000*      8693 	.word	_PRODFLASH_PutEolCheckerByte
00000d03 06             8694 	.byte	6
00000d04 03             8695 	.byte	3
00000d05 ea05           8696 	.byte	234,5
00000d07 02             8697 	.byte	2
00000d08 00             8698 	.byte	0
00000d09 01             8699 	.byte	1
00000d0a 02             8700 	.byte	2
00000d0b 0c             8701 	.byte	12
00000d0c 000101         8702 	.byte	0,1,1

                                                                      Page 160
                                                              C:\Users\nhuliyap\AppData\Local\Temp\gh_000048k1.s
                        8703 	.section	.debug_info
                        8704 .LDW_4d287c8:
00002701 0f             8705 	.byte	15
00002702 756344617461   8706 	.strz	"ucData"
00002708 00 
00002709 e905           8707 	.byte	233,5
0000270b 2f             8708 	.byte	47
0000270c 01             8709 	.byte	1
0000270d 00000000*      8710 	.word	.LDW_4086ee0
00002711 00             8711 	.byte	0
00002712 0156           8712 	.byte	1,86
                        8713 
                        8714 .LDW_4d1eda8:
00002714 1d             8715 	.byte	29
00002715 00000000*      8716 	.word	.LDW87
00002719 00000000*      8717 	.word	.LDW97
                        8718 
0000271d 00             8719 	.byte	0
                        8720 
0000271e 00             8721 	.byte	0
                        8722 
                        8723 .LDW_4d1f948:
0000271f 13             8724 	.byte	19
00002720 50524f44464c   8725 	.strz	"PRODFLASH_PutApplicationChecksum"
00002726 4153485f5075 
0000272c 744170706c69 
00002732 636174696f6e 
00002738 436865636b73 
0000273e 756d00 
00002741 ee05           8726 	.byte	238,5
00002743 06             8727 	.byte	6
00002744 01             8728 	.byte	1
00002745 00000000*      8729 	.word	_PRODFLASH_PutApplicationChecksum
00002749 00000000*      8730 	.word	___ghs_eofn_PRODFLASH_PutApplicationChecksum
0000274d 0153           8731 	.byte	1,83
0000274f 02             8732 	.byte	2
00002750 00             8733 	.byte	0
00002751 02             8734 	.byte	2
00002752 00             8735 	.byte	0
00002753 00             8736 	.byte	0
00002754 00             8737 	.byte	0
00002755 00             8738 	.byte	0
00002756 01             8739 	.byte	1
00002757 01             8740 	.byte	1
00002758 00             8741 	.byte	0
00002759 01             8742 	.byte	1
                        8743 
                        8744 	.section	.debug_frame
                        8745 .LDW_4e72478:
000003dc 00000000*      8746 	.word	.LDW_unq_48-.LDW_unq_47
                        8747 .LDW_unq_47:
000003e0 00000000*      8748 	.word	.LDW_4cccd08
000003e4 00000000*      8749 	.word	_PRODFLASH_PutApplicationChecksum
000003e8 00000000*      8750 	.word	___ghs_eofn_PRODFLASH_PutApplicationChecksum-_PRODFLASH_PutApplicationChecksum
000003ec 01             8751 	.byte	1
000003ed 00000000*      8752 	.word	.LDW18
000003f1 00             8753 	.byte	0
000003f2 00             8754 	.byte	0
000003f3 00             8755 	.byte	0
                        8756 .LDW_unq_48:
                        8757 	.section	.debug_line

                                                                      Page 161
                                                              C:\Users\nhuliyap\AppData\Local\Temp\gh_000048k1.s
00000d0f 000502         8758 	.byte	0,5,2
00000d12 00000000*      8759 	.word	_PRODFLASH_PutApplicationChecksum
00000d16 06             8760 	.byte	6
00000d17 03             8761 	.byte	3
00000d18 ef05           8762 	.byte	239,5
00000d1a 02             8763 	.byte	2
00000d1b 00             8764 	.byte	0
00000d1c 01             8765 	.byte	1
00000d1d 02             8766 	.byte	2
00000d1e 0c             8767 	.byte	12
00000d1f 000101         8768 	.byte	0,1,1
                        8769 	.section	.debug_info
                        8770 .LDW_4d28980:
0000275a 0f             8771 	.byte	15
0000275b 756344617461   8772 	.strz	"ucData"
00002761 00 
00002762 ee05           8773 	.byte	238,5
00002764 34             8774 	.byte	52
00002765 01             8775 	.byte	1
00002766 00000000*      8776 	.word	.LDW_4086ee0
0000276a 00             8777 	.byte	0
0000276b 0156           8778 	.byte	1,86
                        8779 
                        8780 .LDW_4d1edd8:
0000276d 1d             8781 	.byte	29
0000276e 00000000*      8782 	.word	.LDW08
00002772 00000000*      8783 	.word	.LDW18
                        8784 
00002776 00             8785 	.byte	0
                        8786 
00002777 00             8787 	.byte	0
                        8788 
                        8789 .LDW_4d1fcd8:
00002778 13             8790 	.byte	19
00002779 50524f44464c   8791 	.strz	"PRODFLASH_PutProgrammingDate"
0000277f 4153485f5075 
00002785 7450726f6772 
0000278b 616d6d696e67 
00002791 4461746500 
00002796 f305           8792 	.byte	243,5
00002798 06             8793 	.byte	6
00002799 01             8794 	.byte	1
0000279a 00000000*      8795 	.word	_PRODFLASH_PutProgrammingDate
0000279e 00000000*      8796 	.word	___ghs_eofn_PRODFLASH_PutProgrammingDate
000027a2 0153           8797 	.byte	1,83
000027a4 02             8798 	.byte	2
000027a5 00             8799 	.byte	0
000027a6 02             8800 	.byte	2
000027a7 00             8801 	.byte	0
000027a8 00             8802 	.byte	0
000027a9 00             8803 	.byte	0
000027aa 00             8804 	.byte	0
000027ab 01             8805 	.byte	1
000027ac 01             8806 	.byte	1
000027ad 00             8807 	.byte	0
000027ae 01             8808 	.byte	1
                        8809 
                        8810 	.section	.debug_frame
                        8811 .LDW_4e72638:
000003f4 00000000*      8812 	.word	.LDW_unq_4a-.LDW_unq_49
                        8813 .LDW_unq_49:

                                                                      Page 162
                                                              C:\Users\nhuliyap\AppData\Local\Temp\gh_000048k1.s
000003f8 00000000*      8814 	.word	.LDW_4cccd08
000003fc 00000000*      8815 	.word	_PRODFLASH_PutProgrammingDate
00000400 00000000*      8816 	.word	___ghs_eofn_PRODFLASH_PutProgrammingDate-_PRODFLASH_PutProgrammingDate
00000404 01             8817 	.byte	1
00000405 00000000*      8818 	.word	.LDW38
00000409 00             8819 	.byte	0
0000040a 00             8820 	.byte	0
0000040b 00             8821 	.byte	0
                        8822 .LDW_unq_4a:
                        8823 	.section	.debug_line
00000d22 000502         8824 	.byte	0,5,2
00000d25 00000000*      8825 	.word	_PRODFLASH_PutProgrammingDate
00000d29 06             8826 	.byte	6
00000d2a 03             8827 	.byte	3
00000d2b f405           8828 	.byte	244,5
00000d2d 02             8829 	.byte	2
00000d2e 00             8830 	.byte	0
00000d2f 01             8831 	.byte	1
00000d30 02             8832 	.byte	2
00000d31 0a             8833 	.byte	10
00000d32 000101         8834 	.byte	0,1,1
                        8835 	.section	.debug_info
                        8836 .LDW_4d289d8:
000027af 0f             8837 	.byte	15
000027b0 756344617461   8838 	.strz	"ucData"
000027b6 00 
000027b7 f305           8839 	.byte	243,5
000027b9 30             8840 	.byte	48
000027ba 01             8841 	.byte	1
000027bb 00000000*      8842 	.word	.LDW_4086ee0
000027bf 00             8843 	.byte	0
000027c0 0156           8844 	.byte	1,86
                        8845 
                        8846 .LDW_4d1ef58:
000027c2 1d             8847 	.byte	29
000027c3 00000000*      8848 	.word	.LDW28
000027c7 00000000*      8849 	.word	.LDW38
                        8850 
000027cb 00             8851 	.byte	0
                        8852 
000027cc 00             8853 	.byte	0
                        8854 
                        8855 .LDW_4d1f9e0:
000027cd 13             8856 	.byte	19
000027ce 50524f44464c   8857 	.strz	"PRODFLASH_PutCustomerEcuSerialNumber"
000027d4 4153485f5075 
000027da 74437573746f 
000027e0 6d6572456375 
000027e6 53657269616c 
000027ec 4e756d626572 
000027f2 00 
000027f3 f805           8858 	.byte	248,5
000027f5 06             8859 	.byte	6
000027f6 01             8860 	.byte	1
000027f7 00000000*      8861 	.word	_PRODFLASH_PutCustomerEcuSerialNumber
000027fb 00000000*      8862 	.word	___ghs_eofn_PRODFLASH_PutCustomerEcuSerialNumber
000027ff 0153           8863 	.byte	1,83
00002801 02             8864 	.byte	2
00002802 00             8865 	.byte	0
00002803 02             8866 	.byte	2
00002804 00             8867 	.byte	0

                                                                      Page 163
                                                              C:\Users\nhuliyap\AppData\Local\Temp\gh_000048k1.s
00002805 00             8868 	.byte	0
00002806 00             8869 	.byte	0
00002807 00             8870 	.byte	0
00002808 01             8871 	.byte	1
00002809 01             8872 	.byte	1
0000280a 00             8873 	.byte	0
0000280b 01             8874 	.byte	1
                        8875 
                        8876 	.section	.debug_frame
                        8877 .LDW_4c6d4f0:
0000040c 00000000*      8878 	.word	.LDW_unq_4c-.LDW_unq_4b
                        8879 .LDW_unq_4b:
00000410 00000000*      8880 	.word	.LDW_4cccd08
00000414 00000000*      8881 	.word	_PRODFLASH_PutCustomerEcuSerialNumber
00000418 00000000*      8882 	.word	___ghs_eofn_PRODFLASH_PutCustomerEcuSerialNumber-_PRODFLASH_PutCustomerEcuSerialNumber
0000041c 01             8883 	.byte	1
0000041d 00000000*      8884 	.word	.LDW58
00000421 00             8885 	.byte	0
00000422 00             8886 	.byte	0
00000423 00             8887 	.byte	0
                        8888 .LDW_unq_4c:
                        8889 	.section	.debug_line
00000d35 000502         8890 	.byte	0,5,2
00000d38 00000000*      8891 	.word	_PRODFLASH_PutCustomerEcuSerialNumber
00000d3c 06             8892 	.byte	6
00000d3d 03             8893 	.byte	3
00000d3e f905           8894 	.byte	249,5
00000d40 02             8895 	.byte	2
00000d41 00             8896 	.byte	0
00000d42 01             8897 	.byte	1
00000d43 02             8898 	.byte	2
00000d44 0a             8899 	.byte	10
00000d45 000101         8900 	.byte	0,1,1
                        8901 	.section	.debug_info
                        8902 .LDW_4d27fe0:
0000280c 0f             8903 	.byte	15
0000280d 756344617461   8904 	.strz	"ucData"
00002813 00 
00002814 f805           8905 	.byte	248,5
00002816 38             8906 	.byte	56
00002817 01             8907 	.byte	1
00002818 00000000*      8908 	.word	.LDW_4086ee0
0000281c 00             8909 	.byte	0
0000281d 0156           8910 	.byte	1,86
                        8911 
                        8912 .LDW_4d1e1d8:
0000281f 1d             8913 	.byte	29
00002820 00000000*      8914 	.word	.LDW48
00002824 00000000*      8915 	.word	.LDW58
                        8916 
00002828 00             8917 	.byte	0
                        8918 
00002829 00             8919 	.byte	0
                        8920 
0000282a 00             8921 	.byte	0
                        8922 
                        8923 	.section	.debug_line
                        8924 .Ldw_line_end:
                        8925 	.section	.debug_macinfo
00000000 01             8926 	.byte	1
00000001 00             8927 	.byte	0

                                                                      Page 164
                                                              C:\Users\nhuliyap\AppData\Local\Temp\gh_000048k1.s
00000002 5f5f4748535f   8928 	.strz	"__GHS_VERSION_NUMBER 201517"
00000008 56455253494f 
0000000e 4e5f4e554d42 
00000014 455220323031 
0000001a 35313700 
0000001e 01             8929 	.byte	1
0000001f 00             8930 	.byte	0
00000020 5f5f6768735f   8931 	.strz	"__ghs__ 1"
00000026 5f203100 
0000002a 01             8932 	.byte	1
0000002b 00             8933 	.byte	0
0000002c 5f5f56383030   8934 	.strz	"__V800_registermode 32"
00000032 5f7265676973 
00000038 7465726d6f64 
0000003e 6520333200 
00000043 01             8935 	.byte	1
00000044 00             8936 	.byte	0
00000045 5f5f4c4c4f4e   8937 	.strz	"__LLONG_BIT 64"
0000004b 475f42495420 
00000051 363400 
00000054 03             8938 	.byte	3
00000055 00             8939 	.byte	0
00000056 01             8940 	.byte	1
00000057 03             8941 	.byte	3
00000058 03             8942 	.byte	3
00000059 02             8943 	.byte	2
0000005a 03             8944 	.byte	3
0000005b 04             8945 	.byte	4
0000005c 03             8946 	.byte	3
0000005d 03             8947 	.byte	3
0000005e 04             8948 	.byte	4
0000005f 04             8949 	.byte	4
00000060 03             8950 	.byte	3
00000061 07             8951 	.byte	7
00000062 05             8952 	.byte	5
00000063 01             8953 	.byte	1
00000064 02             8954 	.byte	2
00000065 5354445f5459   8955 	.strz	"STD_TYPES_H "
0000006b 5045535f4820 
00000071 00 
00000072 03             8956 	.byte	3
00000073 1c             8957 	.byte	28
00000074 06             8958 	.byte	6
00000075 04             8959 	.byte	4
00000076 03             8960 	.byte	3
00000077 1d             8961 	.byte	29
00000078 07             8962 	.byte	7
00000079 03             8963 	.byte	3
0000007a 1b             8964 	.byte	27
0000007b 08             8965 	.byte	8
0000007c 03             8966 	.byte	3
0000007d 54             8967 	.byte	84
0000007e 09             8968 	.byte	9
0000007f 01             8969 	.byte	1
00000080 32             8970 	.byte	50
00000081 4f535f434f4e   8971 	.strz	"OS_CONST "
00000087 53542000 
0000008b 01             8972 	.byte	1
0000008c 35             8973 	.byte	53
0000008d 4f535f415050   8974 	.strz	"OS_APPL_CODE "
00000093 4c5f434f4445 

                                                                      Page 165
                                                              C:\Users\nhuliyap\AppData\Local\Temp\gh_000048k1.s
00000099 2000 
0000009b 04             8975 	.byte	4
0000009c 04             8976 	.byte	4
0000009d 01             8977 	.byte	1
0000009e 33             8978 	.byte	51
0000009f 4c4f43414c5f   8979 	.strz	"LOCAL_INLINE static inline"
000000a5 494e4c494e45 
000000ab 207374617469 
000000b1 6320696e6c69 
000000b7 6e6500 
000000ba 01             8980 	.byte	1
000000bb 34             8981 	.byte	52
000000bc 46554e432872   8982 	.strz	"FUNC(rettype,memclass) rettype"
000000c2 657474797065 
000000c8 2c6d656d636c 
000000ce 617373292072 
000000d4 657474797065 
000000da 00 
000000db 01             8983 	.byte	1
000000dc 37             8984 	.byte	55
000000dd 503256415228   8985 	.strz	"P2VAR(ptrtype,memclass,ptrclass) ptrtype*"
000000e3 707472747970 
000000e9 652c6d656d63 
000000ef 6c6173732c70 
000000f5 7472636c6173 
000000fb 732920707472 
00000101 747970652a00 
00000107 01             8986 	.byte	1
00000108 38             8987 	.byte	56
00000109 5032434f4e53   8988 	.strz	"P2CONST(ptrtype,memclass,ptrclass) const ptrtype*"
0000010f 542870747274 
00000115 7970652c6d65 
0000011b 6d636c617373 
00000121 2c707472636c 
00000127 617373292063 
0000012d 6f6e73742070 
00000133 747274797065 
00000139 2a00 
0000013b 01             8989 	.byte	1
0000013c 39             8990 	.byte	57
0000013d 434f4e535450   8991 	.strz	"CONSTP2VAR(ptrtype,memclass,ptrclass) ptrtype *const"
00000143 325641522870 
00000149 747274797065 
0000014f 2c6d656d636c 
00000155 6173732c7074 
0000015b 72636c617373 
00000161 292070747274 
00000167 797065202a63 
0000016d 6f6e737400 
00000172 01             8992 	.byte	1
00000173 3a             8993 	.byte	58
00000174 434f4e535450   8994 	.strz	"CONSTP2CONST(ptrtype,memclass,ptrclass) const ptrtype *const"
0000017a 32434f4e5354 
00000180 287074727479 
00000186 70652c6d656d 
0000018c 636c6173732c 
00000192 707472636c61 
00000198 73732920636f 
0000019e 6e7374207074 
000001a4 727479706520 
000001aa 2a636f6e7374 

                                                                      Page 166
                                                              C:\Users\nhuliyap\AppData\Local\Temp\gh_000048k1.s
000001b0 00 
000001b1 01             8995 	.byte	1
000001b2 3b             8996 	.byte	59
000001b3 503246554e43   8997 	.strz	"P2FUNC(rettype,ptrclass,fctname) rettype (*fctname)"
000001b9 287265747479 
000001bf 70652c707472 
000001c5 636c6173732c 
000001cb 6663746e616d 
000001d1 652920726574 
000001d7 747970652028 
000001dd 2a6663746e61 
000001e3 6d652900 
000001e7 01             8998 	.byte	1
000001e8 3d             8999 	.byte	61
000001e9 434f4e535428   9000 	.strz	"CONST(type,memclass) const type"
000001ef 747970652c6d 
000001f5 656d636c6173 
000001fb 732920636f6e 
00000201 737420747970 
00000207 6500 
00000209 01             9001 	.byte	1
0000020a 3e             9002 	.byte	62
0000020b 564152287661   9003 	.strz	"VAR(vartype,memclass) vartype"
00000211 72747970652c 
00000217 6d656d636c61 
0000021d 737329207661 
00000223 727479706500 
00000229 04             9004 	.byte	4
0000022a 01             9005 	.byte	1
0000022b 3c             9006 	.byte	60
0000022c 5354445f4f4e   9007 	.strz	"STD_ON 1u"
00000232 20317500 
00000236 01             9008 	.byte	1
00000237 3d             9009 	.byte	61
00000238 5354445f4f46   9010 	.strz	"STD_OFF 0u"
0000023e 4620307500 
00000243 01             9011 	.byte	1
00000244 4a             9012 	.byte	74
00000245 535441545553   9013 	.strz	"STATUSTYPEDEFINED "
0000024b 545950454445 
00000251 46494e454420 
00000257 00 
00000258 04             9014 	.byte	4
00000259 04             9015 	.byte	4
0000025a 04             9016 	.byte	4
0000025b 01             9017 	.byte	1
0000025c 06             9018 	.byte	6
0000025d 44434d5f5f50   9019 	.strz	"DCM__PRODUCTION_DATA_FLASH_SIZE (2048U)"
00000263 524f44554354 
00000269 494f4e5f4441 
0000026f 54415f464c41 
00000275 53485f53495a 
0000027b 452028323034 
00000281 38552900 
00000285 01             9020 	.byte	1
00000286 07             9021 	.byte	7
00000287 44434d5f5f50   9022 	.strz	"DCM__PRODUCTION_DATA_FLASH_BLOCK_SIZE (64U)"
0000028d 524f44554354 
00000293 494f4e5f4441 
00000299 54415f464c41 
0000029f 53485f424c4f 

                                                                      Page 167
                                                              C:\Users\nhuliyap\AppData\Local\Temp\gh_000048k1.s
000002a5 434b5f53495a 
000002ab 452028363455 
000002b1 2900 
000002b3 01             9023 	.byte	1
000002b4 08             9024 	.byte	8
000002b5 44434d5f5f50   9025 	.strz	"DCM__PRODUCTION_DATA_INDEX_1_SIZE (16U)"
000002bb 524f44554354 
000002c1 494f4e5f4441 
000002c7 54415f494e44 
000002cd 45585f315f53 
000002d3 495a45202831 
000002d9 36552900 
000002dd 01             9026 	.byte	1
000002de 09             9027 	.byte	9
000002df 44434d5f5f50   9028 	.strz	"DCM__PRODUCTION_DATA_INDEX_2_SIZE (10U)"
000002e5 524f44554354 
000002eb 494f4e5f4441 
000002f1 54415f494e44 
000002f7 45585f325f53 
000002fd 495a45202831 
00000303 30552900 
00000307 01             9029 	.byte	1
00000308 0a             9030 	.byte	10
00000309 44434d5f5f50   9031 	.strz	"DCM__PRODUCTION_DATA_INDEX_3_SIZE (10U)"
0000030f 524f44554354 
00000315 494f4e5f4441 
0000031b 54415f494e44 
00000321 45585f335f53 
00000327 495a45202831 
0000032d 30552900 
00000331 01             9032 	.byte	1
00000332 0b             9033 	.byte	11
00000333 44434d5f5f50   9034 	.strz	"DCM__PRODUCTION_DATA_INDEX_4_SIZE (3U)"
00000339 524f44554354 
0000033f 494f4e5f4441 
00000345 54415f494e44 
0000034b 45585f345f53 
00000351 495a45202833 
00000357 552900 
0000035a 01             9035 	.byte	1
0000035b 0c             9036 	.byte	12
0000035c 44434d5f5f50   9037 	.strz	"DCM__PRODUCTION_DATA_INDEX_5_SIZE (3U)"
00000362 524f44554354 
00000368 494f4e5f4441 
0000036e 54415f494e44 
00000374 45585f355f53 
0000037a 495a45202833 
00000380 552900 
00000383 01             9038 	.byte	1
00000384 0d             9039 	.byte	13
00000385 44434d5f5f50   9040 	.strz	"DCM__PRODUCTION_DATA_INDEX_6_SIZE (3U)"
0000038b 524f44554354 
00000391 494f4e5f4441 
00000397 54415f494e44 
0000039d 45585f365f53 
000003a3 495a45202833 
000003a9 552900 
000003ac 01             9041 	.byte	1
000003ad 0e             9042 	.byte	14
000003ae 44434d5f5f50   9043 	.strz	"DCM__PRODUCTION_DATA_INDEX_7_SIZE (10U)"
000003b4 524f44554354 

                                                                      Page 168
                                                              C:\Users\nhuliyap\AppData\Local\Temp\gh_000048k1.s
000003ba 494f4e5f4441 
000003c0 54415f494e44 
000003c6 45585f375f53 
000003cc 495a45202831 
000003d2 30552900 
000003d6 01             9044 	.byte	1
000003d7 0f             9045 	.byte	15
000003d8 44434d5f5f50   9046 	.strz	"DCM__PRODUCTION_DATA_INDEX_8_SIZE (10U)"
000003de 524f44554354 
000003e4 494f4e5f4441 
000003ea 54415f494e44 
000003f0 45585f385f53 
000003f6 495a45202831 
000003fc 30552900 
00000400 01             9047 	.byte	1
00000401 10             9048 	.byte	16
00000402 44434d5f5f50   9049 	.strz	"DCM__PRODUCTION_DATA_INDEX_9_SIZE (2U)"
00000408 524f44554354 
0000040e 494f4e5f4441 
00000414 54415f494e44 
0000041a 45585f395f53 
00000420 495a45202832 
00000426 552900 
00000429 01             9050 	.byte	1
0000042a 11             9051 	.byte	17
0000042b 44434d5f5f50   9052 	.strz	"DCM__PRODUCTION_DATA_INDEX_10_SIZE (6U)"
00000431 524f44554354 
00000437 494f4e5f4441 
0000043d 54415f494e44 
00000443 45585f31305f 
00000449 53495a452028 
0000044f 36552900 
00000453 01             9053 	.byte	1
00000454 12             9054 	.byte	18
00000455 44434d5f5f50   9055 	.strz	"DCM__PRODUCTION_DATA_INDEX_11_SIZE (9U)"
0000045b 524f44554354 
00000461 494f4e5f4441 
00000467 54415f494e44 
0000046d 45585f31315f 
00000473 53495a452028 
00000479 39552900 
0000047d 01             9056 	.byte	1
0000047e 13             9057 	.byte	19
0000047f 44434d5f5f50   9058 	.strz	"DCM__PRODUCTION_DATA_INDEX_12_SIZE (20U)"
00000485 524f44554354 
0000048b 494f4e5f4441 
00000491 54415f494e44 
00000497 45585f31325f 
0000049d 53495a452028 
000004a3 3230552900 
000004a8 01             9059 	.byte	1
000004a9 14             9060 	.byte	20
000004aa 44434d5f5f50   9061 	.strz	"DCM__PRODUCTION_DATA_INDEX_13_SIZE (3U)"
000004b0 524f44554354 
000004b6 494f4e5f4441 
000004bc 54415f494e44 
000004c2 45585f31335f 
000004c8 53495a452028 
000004ce 33552900 
000004d2 01             9062 	.byte	1
000004d3 15             9063 	.byte	21

                                                                      Page 169
                                                              C:\Users\nhuliyap\AppData\Local\Temp\gh_000048k1.s
000004d4 44434d5f5f50   9064 	.strz	"DCM__PRODUCTION_DATA_INDEX_14_SIZE (20U)"
000004da 524f44554354 
000004e0 494f4e5f4441 
000004e6 54415f494e44 
000004ec 45585f31345f 
000004f2 53495a452028 
000004f8 3230552900 
000004fd 01             9065 	.byte	1
000004fe 16             9066 	.byte	22
000004ff 44434d5f5f50   9067 	.strz	"DCM__PRODUCTION_DATA_INDEX_15_SIZE (3U)"
00000505 524f44554354 
0000050b 494f4e5f4441 
00000511 54415f494e44 
00000517 45585f31355f 
0000051d 53495a452028 
00000523 33552900 
00000527 01             9068 	.byte	1
00000528 17             9069 	.byte	23
00000529 44434d5f5f50   9070 	.strz	"DCM__PRODUCTION_DATA_INDEX_16_SIZE (17U)"
0000052f 524f44554354 
00000535 494f4e5f4441 
0000053b 54415f494e44 
00000541 45585f31365f 
00000547 53495a452028 
0000054d 3137552900 
00000552 01             9071 	.byte	1
00000553 18             9072 	.byte	24
00000554 44434d5f5f50   9073 	.strz	"DCM__PRODUCTION_DATA_INDEX_17_SIZE (1U)"
0000055a 524f44554354 
00000560 494f4e5f4441 
00000566 54415f494e44 
0000056c 45585f31375f 
00000572 53495a452028 
00000578 31552900 
0000057c 01             9074 	.byte	1
0000057d 19             9075 	.byte	25
0000057e 44434d5f5f50   9076 	.strz	"DCM__PRODUCTION_DATA_INDEX_18_SIZE (1U)"
00000584 524f44554354 
0000058a 494f4e5f4441 
00000590 54415f494e44 
00000596 45585f31385f 
0000059c 53495a452028 
000005a2 31552900 
000005a6 01             9077 	.byte	1
000005a7 1a             9078 	.byte	26
000005a8 44434d5f5f50   9079 	.strz	"DCM__PRODUCTION_DATA_INDEX_19_SIZE (2U)"
000005ae 524f44554354 
000005b4 494f4e5f4441 
000005ba 54415f494e44 
000005c0 45585f31395f 
000005c6 53495a452028 
000005cc 32552900 
000005d0 01             9080 	.byte	1
000005d1 1b             9081 	.byte	27
000005d2 44434d5f5f50   9082 	.strz	"DCM__PRODUCTION_DATA_INDEX_20_SIZE (1U)"
000005d8 524f44554354 
000005de 494f4e5f4441 
000005e4 54415f494e44 
000005ea 45585f32305f 
000005f0 53495a452028 
000005f6 31552900 

                                                                      Page 170
                                                              C:\Users\nhuliyap\AppData\Local\Temp\gh_000048k1.s
000005fa 01             9083 	.byte	1
000005fb 1c             9084 	.byte	28
000005fc 44434d5f5f50   9085 	.strz	"DCM__PRODUCTION_DATA_INDEX_21_SIZE (1U)"
00000602 524f44554354 
00000608 494f4e5f4441 
0000060e 54415f494e44 
00000614 45585f32315f 
0000061a 53495a452028 
00000620 31552900 
00000624 01             9086 	.byte	1
00000625 1d             9087 	.byte	29
00000626 44434d5f5f50   9088 	.strz	"DCM__PRODUCTION_DATA_INDEX_22_SIZE (2U)"
0000062c 524f44554354 
00000632 494f4e5f4441 
00000638 54415f494e44 
0000063e 45585f32325f 
00000644 53495a452028 
0000064a 32552900 
0000064e 01             9089 	.byte	1
0000064f 1e             9090 	.byte	30
00000650 44434d5f5f50   9091 	.strz	"DCM__PRODUCTION_DATA_INDEX_23_SIZE (35U)"
00000656 524f44554354 
0000065c 494f4e5f4441 
00000662 54415f494e44 
00000668 45585f32335f 
0000066e 53495a452028 
00000674 3335552900 
00000679 01             9092 	.byte	1
0000067a 1f             9093 	.byte	31
0000067b 44434d5f5f50   9094 	.strz	"DCM__PRODUCTION_DATA_INDEX_24_SIZE (18U)"
00000681 524f44554354 
00000687 494f4e5f4441 
0000068d 54415f494e44 
00000693 45585f32345f 
00000699 53495a452028 
0000069f 3138552900 
000006a4 01             9095 	.byte	1
000006a5 20             9096 	.byte	32
000006a6 44434d5f5f50   9097 	.strz	"DCM__PRODUCTION_DATA_INDEX_25_SIZE (35U)"
000006ac 524f44554354 
000006b2 494f4e5f4441 
000006b8 54415f494e44 
000006be 45585f32355f 
000006c4 53495a452028 
000006ca 3335552900 
000006cf 01             9098 	.byte	1
000006d0 21             9099 	.byte	33
000006d1 44434d5f5f50   9100 	.strz	"DCM__PRODUCTION_DATA_INDEX_26_SIZE (18U)"
000006d7 524f44554354 
000006dd 494f4e5f4441 
000006e3 54415f494e44 
000006e9 45585f32365f 
000006ef 53495a452028 
000006f5 3138552900 
000006fa 01             9101 	.byte	1
000006fb 22             9102 	.byte	34
000006fc 44434d5f5f50   9103 	.strz	"DCM__PRODUCTION_DATA_INDEX_27_SIZE (16U)"
00000702 524f44554354 
00000708 494f4e5f4441 
0000070e 54415f494e44 
00000714 45585f32375f 

                                                                      Page 171
                                                              C:\Users\nhuliyap\AppData\Local\Temp\gh_000048k1.s
0000071a 53495a452028 
00000720 3136552900 
00000725 01             9104 	.byte	1
00000726 23             9105 	.byte	35
00000727 44434d5f5f50   9106 	.strz	"DCM__PRODUCTION_DATA_INDEX_28_SIZE (4U)"
0000072d 524f44554354 
00000733 494f4e5f4441 
00000739 54415f494e44 
0000073f 45585f32385f 
00000745 53495a452028 
0000074b 34552900 
0000074f 01             9107 	.byte	1
00000750 24             9108 	.byte	36
00000751 44434d5f5f50   9109 	.strz	"DCM__PRODUCTION_DATA_INDEX_29_SIZE (1U)"
00000757 524f44554354 
0000075d 494f4e5f4441 
00000763 54415f494e44 
00000769 45585f32395f 
0000076f 53495a452028 
00000775 31552900 
00000779 01             9110 	.byte	1
0000077a 25             9111 	.byte	37
0000077b 44434d5f5f50   9112 	.strz	"DCM__PRODUCTION_DATA_INDEX_30_SIZE (40)"
00000781 524f44554354 
00000787 494f4e5f4441 
0000078d 54415f494e44 
00000793 45585f33305f 
00000799 53495a452028 
0000079f 34302900 
000007a3 01             9113 	.byte	1
000007a4 26             9114 	.byte	38
000007a5 44434d5f5f50   9115 	.strz	"DCM__PRODUCTION_DATA_INDEX_31_SIZE (2U)"
000007ab 524f44554354 
000007b1 494f4e5f4441 
000007b7 54415f494e44 
000007bd 45585f33315f 
000007c3 53495a452028 
000007c9 32552900 
000007cd 01             9116 	.byte	1
000007ce 27             9117 	.byte	39
000007cf 44434d5f5f50   9118 	.strz	"DCM__PRODUCTION_DATA_INDEX_32_SIZE (1662)"
000007d5 524f44554354 
000007db 494f4e5f4441 
000007e1 54415f494e44 
000007e7 45585f33325f 
000007ed 53495a452028 
000007f3 313636322900 
000007f9 01             9119 	.byte	1
000007fa 28             9120 	.byte	40
000007fb 44434d5f5f50   9121 	.strz	"DCM__PRODUCTION_DATA_INDEX_33_SIZE (16U)"
00000801 524f44554354 
00000807 494f4e5f4441 
0000080d 54415f494e44 
00000813 45585f33335f 
00000819 53495a452028 
0000081f 3136552900 
00000824 01             9122 	.byte	1
00000825 29             9123 	.byte	41
00000826 44434d5f5f50   9124 	.strz	"DCM__PRODUCTION_DATA_INDEX_34_SIZE (48U)"
0000082c 524f44554354 
00000832 494f4e5f4441 

                                                                      Page 172
                                                              C:\Users\nhuliyap\AppData\Local\Temp\gh_000048k1.s
00000838 54415f494e44 
0000083e 45585f33345f 
00000844 53495a452028 
0000084a 3438552900 
0000084f 01             9125 	.byte	1
00000850 2a             9126 	.byte	42
00000851 50524f445f44   9127 	.strz	"PROD_DATA __attribute__ ((section (\".production_data\")))"
00000857 415441205f5f 
0000085d 617474726962 
00000863 7574655f5f20 
00000869 282873656374 
0000086f 696f6e202822 
00000875 2e70726f6475 
0000087b 6374696f6e5f 
00000881 646174612229 
00000887 292900 
0000088a 04             9128 	.byte	4
0000088b 03             9129 	.byte	3
0000088c 04             9130 	.byte	4
0000088d 0a             9131 	.byte	10
0000088e 01             9132 	.byte	1
0000088f 06             9133 	.byte	6
00000890 464c535f4152   9134 	.strz	"FLS_AR_FOUR_ZERO_THREE 403"
00000896 5f464f55525f 
0000089c 5a45524f5f54 
000008a2 485245452034 
000008a8 303300 
000008ab 01             9135 	.byte	1
000008ac 07             9136 	.byte	7
000008ad 464c535f4152   9137 	.strz	"FLS_AR_THREE_TWO_TWO 322"
000008b3 5f5448524545 
000008b9 5f54574f5f54 
000008bf 574f20333232 
000008c5 00 
000008c6 01             9138 	.byte	1
000008c7 09             9139 	.byte	9
000008c8 464c535f4152   9140 	.strz	"FLS_AR_HIGHER_VERSION FLS_AR_FOUR_ZERO_THREE"
000008ce 5f4849474845 
000008d4 525f56455253 
000008da 494f4e20464c 
000008e0 535f41525f46 
000008e6 4f55525f5a45 
000008ec 524f5f544852 
000008f2 454500 
000008f5 01             9141 	.byte	1
000008f6 0a             9142 	.byte	10
000008f7 464c535f4152   9143 	.strz	"FLS_AR_LOWER_VERSION FLS_AR_THREE_TWO_TWO"
000008fd 5f4c4f574552 
00000903 5f5645525349 
00000909 4f4e20464c53 
0000090f 5f41525f5448 
00000915 5245455f5457 
0000091b 4f5f54574f00 
00000921 03             9144 	.byte	3
00000922 0e             9145 	.byte	14
00000923 0b             9146 	.byte	11
00000924 03             9147 	.byte	3
00000925 1b             9148 	.byte	27
00000926 0c             9149 	.byte	12
00000927 04             9150 	.byte	4
00000928 01             9151 	.byte	1

                                                                      Page 173
                                                              C:\Users\nhuliyap\AppData\Local\Temp\gh_000048k1.s
00000929 2d             9152 	.byte	45
0000092a 464c535f4152   9153 	.strz	"FLS_AR_VERSION FLS_AR_LOWER_VERSION"
00000930 5f5645525349 
00000936 4f4e20464c53 
0000093c 5f41525f4c4f 
00000942 5745525f5645 
00000948 5253494f4e00 
0000094e 01             9154 	.byte	1
0000094f 2e             9155 	.byte	46
00000950 464c535f464c   9156 	.strz	"FLS_FLASH_ACCESS FLS_DATAFLASH_ACCESS"
00000956 4153485f4143 
0000095c 434553532046 
00000962 4c535f444154 
00000968 41464c415348 
0000096e 5f4143434553 
00000974 5300 
00000976 01             9157 	.byte	1
00000977 2f             9158 	.byte	47
00000978 464c535f4445   9159 	.strz	"FLS_DEV_ERROR_DETECT STD_OFF"
0000097e 565f4552524f 
00000984 525f44455445 
0000098a 435420535444 
00000990 5f4f464600 
00000995 01             9160 	.byte	1
00000996 30             9161 	.byte	48
00000997 464c535f5645   9162 	.strz	"FLS_VERSION_INFO_API STD_OFF"
0000099d 5253494f4e5f 
000009a3 494e464f5f41 
000009a9 504920535444 
000009af 5f4f464600 
000009b4 01             9163 	.byte	1
000009b5 31             9164 	.byte	49
000009b6 464c535f4341   9165 	.strz	"FLS_CANCEL_API STD_ON"
000009bc 4e43454c5f41 
000009c2 504920535444 
000009c8 5f4f4e00 
000009cc 01             9166 	.byte	1
000009cd 32             9167 	.byte	50
000009ce 464c535f434f   9168 	.strz	"FLS_COMPARE_API STD_ON"
000009d4 4d504152455f 
000009da 415049205354 
000009e0 445f4f4e00 
000009e5 01             9169 	.byte	1
000009e6 33             9170 	.byte	51
000009e7 464c535f5345   9171 	.strz	"FLS_SET_MODE_API STD_OFF"
000009ed 545f4d4f4445 
000009f3 5f4150492053 
000009f9 54445f4f4646 
000009ff 00 
00000a00 01             9172 	.byte	1
00000a01 34             9173 	.byte	52
00000a02 464c535f4745   9174 	.strz	"FLS_GET_STATUS_API STD_ON"
00000a08 545f53544154 
00000a0e 55535f415049 
00000a14 205354445f4f 
00000a1a 4e00 
00000a1c 01             9175 	.byte	1
00000a1d 35             9176 	.byte	53
00000a1e 464c535f4745   9177 	.strz	"FLS_GET_JOB_RESULT_API STD_ON"
00000a24 545f4a4f425f 
00000a2a 524553554c54 

                                                                      Page 174
                                                              C:\Users\nhuliyap\AppData\Local\Temp\gh_000048k1.s
00000a30 5f4150492053 
00000a36 54445f4f4e00 
00000a3c 01             9178 	.byte	1
00000a3d 37             9179 	.byte	55
00000a3e 464c535f4352   9180 	.strz	"FLS_CRITICAL_SECTION_PROTECTION STD_ON"
00000a44 49544943414c 
00000a4a 5f5345435449 
00000a50 4f4e5f50524f 
00000a56 54454354494f 
00000a5c 4e205354445f 
00000a62 4f4e00 
00000a65 01             9181 	.byte	1
00000a66 3b             9182 	.byte	59
00000a67 464c535f5449   9183 	.strz	"FLS_TIMEOUT_MONITORING STD_OFF"
00000a6d 4d454f55545f 
00000a73 4d4f4e49544f 
00000a79 52494e472053 
00000a7f 54445f4f4646 
00000a85 00 
00000a86 01             9184 	.byte	1
00000a87 3c             9185 	.byte	60
00000a88 464c535f424c   9186 	.strz	"FLS_BLANKCHECK_API STD_ON"
00000a8e 414e4b434845 
00000a94 434b5f415049 
00000a9a 205354445f4f 
00000aa0 4e00 
00000aa2 01             9187 	.byte	1
00000aa3 3d             9188 	.byte	61
00000aa4 464c535f5245   9189 	.strz	"FLS_READIMMEDIATE_API STD_OFF"
00000aaa 4144494d4d45 
00000ab0 44494154455f 
00000ab6 415049205354 
00000abc 445f4f464600 
00000ac2 01             9190 	.byte	1
00000ac3 3e             9191 	.byte	62
00000ac4 464c535f494e   9192 	.strz	"FLS_INTERRUPT_MODE STD_OFF"
00000aca 544552525550 
00000ad0 545f4d4f4445 
00000ad6 205354445f4f 
00000adc 464600 
00000adf 01             9193 	.byte	1
00000ae0 40             9194 	.byte	64
00000ae1 464c535f5355   9195 	.strz	"FLS_SUSPEND_API STD_OFF"
00000ae7 5350454e445f 
00000aed 415049205354 
00000af3 445f4f464600 
00000af9 01             9196 	.byte	1
00000afa 41             9197 	.byte	65
00000afb 464c535f5245   9198 	.strz	"FLS_RESUME_API STD_OFF"
00000b01 53554d455f41 
00000b07 504920535444 
00000b0d 5f4f464600 
00000b12 01             9199 	.byte	1
00000b13 49             9200 	.byte	73
00000b14 464c535f4648   9201 	.strz	"FLS_FHVE_REGS NOT_SUPPORTED"
00000b1a 56455f524547 
00000b20 53204e4f545f 
00000b26 535550504f52 
00000b2c 54454400 
00000b30 01             9202 	.byte	1
00000b31 4a             9203 	.byte	74

                                                                      Page 175
                                                              C:\Users\nhuliyap\AppData\Local\Temp\gh_000048k1.s
00000b32 464c535f464c   9204 	.strz	"FLS_FLMD_REGS SUPPORTED"
00000b38 4d445f524547 
00000b3e 532053555050 
00000b44 4f5254454400 
00000b4a 04             9205 	.byte	4
00000b4b 03             9206 	.byte	3
00000b4c 10             9207 	.byte	16
00000b4d 0d             9208 	.byte	13
00000b4e 03             9209 	.byte	3
00000b4f 08             9210 	.byte	8
00000b50 0e             9211 	.byte	14
00000b51 01             9212 	.byte	1
00000b52 2a             9213 	.byte	42
00000b53 535550504f52   9214 	.strz	"SUPPORTED 0"
00000b59 544544203000 
00000b5f 01             9215 	.byte	1
00000b60 2b             9216 	.byte	43
00000b61 4e4f545f5355   9217 	.strz	"NOT_SUPPORTED 1"
00000b67 50504f525445 
00000b6d 44203100 
00000b71 01             9218 	.byte	1
00000b72 40             9219 	.byte	64
00000b73 464c535f4441   9220 	.strz	"FLS_DATAFLASH_ACCESS 0"
00000b79 5441464c4153 
00000b7f 485f41434345 
00000b85 5353203000 
00000b8a 01             9221 	.byte	1
00000b8b 41             9222 	.byte	65
00000b8c 464c535f434f   9223 	.strz	"FLS_CODEFLASH_ACCESS 1"
00000b92 4445464c4153 
00000b98 485f41434345 
00000b9e 5353203100 
00000ba3 01             9224 	.byte	1
00000ba4 42             9225 	.byte	66
00000ba5 464c535f4346   9226 	.strz	"FLS_CFDF_ACCESS 2"
00000bab 44465f414343 
00000bb1 455353203200 
00000bb7 01             9227 	.byte	1
00000bb8 6b             9228 	.byte	107
00000bb9 464c535f5354   9229 	.strz	"FLS_START_SEC_BUFFER_CODE "
00000bbf 4152545f5345 
00000bc5 435f42554646 
00000bcb 45525f434f44 
00000bd1 452000 
00000bd4 03             9230 	.byte	3
00000bd5 6c             9231 	.byte	108
00000bd6 0f             9232 	.byte	15
00000bd7 01             9233 	.byte	1
00000bd8 02             9234 	.byte	2
00000bd9 4d454d4d4150   9235 	.strz	"MEMMAP_VENDOR_ID (30u)"
00000bdf 5f56454e444f 
00000be5 525f49442028 
00000beb 3330752900 
00000bf0 01             9236 	.byte	1
00000bf1 08             9237 	.byte	8
00000bf2 4d454d4d4150   9238 	.strz	"MEMMAP_AR_RELEASE_MAJOR_VERSION (4u)"
00000bf8 5f41525f5245 
00000bfe 4c454153455f 
00000c04 4d414a4f525f 
00000c0a 56455253494f 
00000c10 4e2028347529 

                                                                      Page 176
                                                              C:\Users\nhuliyap\AppData\Local\Temp\gh_000048k1.s
00000c16 00 
00000c17 01             9239 	.byte	1
00000c18 09             9240 	.byte	9
00000c19 4d454d4d4150   9241 	.strz	"MEMMAP_AR_RELEASE_MINOR_VERSION (0u)"
00000c1f 5f41525f5245 
00000c25 4c454153455f 
00000c2b 4d494e4f525f 
00000c31 56455253494f 
00000c37 4e2028307529 
00000c3d 00 
00000c3e 01             9242 	.byte	1
00000c3f 0a             9243 	.byte	10
00000c40 4d454d4d4150   9244 	.strz	"MEMMAP_AR_RELEASE_REVISION_VERSION (3u)"
00000c46 5f41525f5245 
00000c4c 4c454153455f 
00000c52 524556495349 
00000c58 4f4e5f564552 
00000c5e 53494f4e2028 
00000c64 33752900 
00000c68 01             9245 	.byte	1
00000c69 10             9246 	.byte	16
00000c6a 4d454d5f4152   9247 	.strz	"MEM_AR_RELEASE_MAJOR_VERSION MEMMAP_AR_RELEASE_MAJOR_VERSION"
00000c70 5f52454c4541 
00000c76 53455f4d414a 
00000c7c 4f525f564552 
00000c82 53494f4e204d 
00000c88 454d4d41505f 
00000c8e 41525f52454c 
00000c94 454153455f4d 
00000c9a 414a4f525f56 
00000ca0 455253494f4e 
00000ca6 00 
00000ca7 01             9248 	.byte	1
00000ca8 11             9249 	.byte	17
00000ca9 4d454d5f4152   9250 	.strz	"MEM_AR_RELEASE_MINOR_VERSION MEMMAP_AR_RELEASE_MINOR_VERSION"
00000caf 5f52454c4541 
00000cb5 53455f4d494e 
00000cbb 4f525f564552 
00000cc1 53494f4e204d 
00000cc7 454d4d41505f 
00000ccd 41525f52454c 
00000cd3 454153455f4d 
00000cd9 494e4f525f56 
00000cdf 455253494f4e 
00000ce5 00 
00000ce6 01             9251 	.byte	1
00000ce7 12             9252 	.byte	18
00000ce8 4d454d5f4152   9253 	.strz	"MEM_AR_RELEASE_PATCH_VERSION MEMMAP_AR_RELEASE_REVISION_VERSION"
00000cee 5f52454c4541 
00000cf4 53455f504154 
00000cfa 43485f564552 
00000d00 53494f4e204d 
00000d06 454d4d41505f 
00000d0c 41525f52454c 
00000d12 454153455f52 
00000d18 45564953494f 
00000d1e 4e5f56455253 
00000d24 494f4e00 
00000d28 01             9254 	.byte	1
00000d29 18             9255 	.byte	24
00000d2a 4d454d4d4150   9256 	.strz	"MEMMAP_SW_MAJOR_VERSION (1u)"

                                                                      Page 177
                                                              C:\Users\nhuliyap\AppData\Local\Temp\gh_000048k1.s
00000d30 5f53575f4d41 
00000d36 4a4f525f5645 
00000d3c 5253494f4e20 
00000d42 2831752900 
00000d47 01             9257 	.byte	1
00000d48 19             9258 	.byte	25
00000d49 4d454d4d4150   9259 	.strz	"MEMMAP_SW_MINOR_VERSION (11u)"
00000d4f 5f53575f4d49 
00000d55 4e4f525f5645 
00000d5b 5253494f4e20 
00000d61 283131752900 
00000d67 01             9260 	.byte	1
00000d68 1a             9261 	.byte	26
00000d69 4d454d4d4150   9262 	.strz	"MEMMAP_SW_PATCH_VERSION (0u)"
00000d6f 5f53575f5041 
00000d75 5443485f5645 
00000d7b 5253494f4e20 
00000d81 2830752900 
00000d86 01             9263 	.byte	1
00000d87 20             9264 	.byte	32
00000d88 4d454d5f5357   9265 	.strz	"MEM_SW_MAJOR_VERSION MEMMAP_SW_MAJOR_VERSION"
00000d8e 5f4d414a4f52 
00000d94 5f5645525349 
00000d9a 4f4e204d454d 
00000da0 4d41505f5357 
00000da6 5f4d414a4f52 
00000dac 5f5645525349 
00000db2 4f4e00 
00000db5 01             9266 	.byte	1
00000db6 21             9267 	.byte	33
00000db7 4d454d5f5357   9268 	.strz	"MEM_SW_MINOR_VERSION MEMMAP_SW_MINOR_VERSION"
00000dbd 5f4d494e4f52 
00000dc3 5f5645525349 
00000dc9 4f4e204d454d 
00000dcf 4d41505f5357 
00000dd5 5f4d494e4f52 
00000ddb 5f5645525349 
00000de1 4f4e00 
00000de4 01             9269 	.byte	1
00000de5 22             9270 	.byte	34
00000de6 4d454d5f5357   9271 	.strz	"MEM_SW_PATCH_VERSION MEMMAP_SW_PATCH_VERSION"
00000dec 5f5041544348 
00000df2 5f5645525349 
00000df8 4f4e204d454d 
00000dfe 4d41505f5357 
00000e04 5f5041544348 
00000e0a 5f5645525349 
00000e10 4f4e00 
00000e13 01             9272 	.byte	1
00000e14 24             9273 	.byte	36
00000e15 4d454d4d4150   9274 	.strz	"MEMMAP_ERROR "
00000e1b 5f4552524f52 
00000e21 2000 
00000e23 01             9275 	.byte	1
00000e24 9502           9276 	.byte	149,2
00000e26 53544152545f   9277 	.strz	"START_SEC_CODE "
00000e2c 5345435f434f 
00000e32 44452000 
00000e36 03             9278 	.byte	3
00000e37 f403           9279 	.byte	244,3
00000e39 10             9280 	.byte	16

                                                                      Page 178
                                                              C:\Users\nhuliyap\AppData\Local\Temp\gh_000048k1.s
00000e3a 01             9281 	.byte	1
00000e3b f407           9282 	.byte	244,7
00000e3d 434f44455f53   9283 	.strz	"CODE_SEC_OPEN "
00000e43 45435f4f5045 
00000e49 4e2000 
00000e4c 04             9284 	.byte	4
00000e4d 04             9285 	.byte	4
00000e4e 01             9286 	.byte	1
00000e4f 70             9287 	.byte	112
00000e50 464c535f5354   9288 	.strz	"FLS_STOP_SEC_BUFFER_CODE "
00000e56 4f505f534543 
00000e5c 5f4255464645 
00000e62 525f434f4445 
00000e68 2000 
00000e6a 03             9289 	.byte	3
00000e6b 71             9290 	.byte	113
00000e6c 0f             9291 	.byte	15
00000e6d 01             9292 	.byte	1
00000e6e 02             9293 	.byte	2
00000e6f 4d454d4d4150   9294 	.strz	"MEMMAP_VENDOR_ID (30u)"
00000e75 5f56454e444f 
00000e7b 525f49442028 
00000e81 3330752900 
00000e86 01             9295 	.byte	1
00000e87 08             9296 	.byte	8
00000e88 4d454d4d4150   9297 	.strz	"MEMMAP_AR_RELEASE_MAJOR_VERSION (4u)"
00000e8e 5f41525f5245 
00000e94 4c454153455f 
00000e9a 4d414a4f525f 
00000ea0 56455253494f 
00000ea6 4e2028347529 
00000eac 00 
00000ead 01             9298 	.byte	1
00000eae 09             9299 	.byte	9
00000eaf 4d454d4d4150   9300 	.strz	"MEMMAP_AR_RELEASE_MINOR_VERSION (0u)"
00000eb5 5f41525f5245 
00000ebb 4c454153455f 
00000ec1 4d494e4f525f 
00000ec7 56455253494f 
00000ecd 4e2028307529 
00000ed3 00 
00000ed4 01             9301 	.byte	1
00000ed5 0a             9302 	.byte	10
00000ed6 4d454d4d4150   9303 	.strz	"MEMMAP_AR_RELEASE_REVISION_VERSION (3u)"
00000edc 5f41525f5245 
00000ee2 4c454153455f 
00000ee8 524556495349 
00000eee 4f4e5f564552 
00000ef4 53494f4e2028 
00000efa 33752900 
00000efe 01             9304 	.byte	1
00000eff 10             9305 	.byte	16
00000f00 4d454d5f4152   9306 	.strz	"MEM_AR_RELEASE_MAJOR_VERSION MEMMAP_AR_RELEASE_MAJOR_VERSION"
00000f06 5f52454c4541 
00000f0c 53455f4d414a 
00000f12 4f525f564552 
00000f18 53494f4e204d 
00000f1e 454d4d41505f 
00000f24 41525f52454c 
00000f2a 454153455f4d 
00000f30 414a4f525f56 

                                                                      Page 179
                                                              C:\Users\nhuliyap\AppData\Local\Temp\gh_000048k1.s
00000f36 455253494f4e 
00000f3c 00 
00000f3d 01             9307 	.byte	1
00000f3e 11             9308 	.byte	17
00000f3f 4d454d5f4152   9309 	.strz	"MEM_AR_RELEASE_MINOR_VERSION MEMMAP_AR_RELEASE_MINOR_VERSION"
00000f45 5f52454c4541 
00000f4b 53455f4d494e 
00000f51 4f525f564552 
00000f57 53494f4e204d 
00000f5d 454d4d41505f 
00000f63 41525f52454c 
00000f69 454153455f4d 
00000f6f 494e4f525f56 
00000f75 455253494f4e 
00000f7b 00 
00000f7c 01             9310 	.byte	1
00000f7d 12             9311 	.byte	18
00000f7e 4d454d5f4152   9312 	.strz	"MEM_AR_RELEASE_PATCH_VERSION MEMMAP_AR_RELEASE_REVISION_VERSION"
00000f84 5f52454c4541 
00000f8a 53455f504154 
00000f90 43485f564552 
00000f96 53494f4e204d 
00000f9c 454d4d41505f 
00000fa2 41525f52454c 
00000fa8 454153455f52 
00000fae 45564953494f 
00000fb4 4e5f56455253 
00000fba 494f4e00 
00000fbe 01             9313 	.byte	1
00000fbf 18             9314 	.byte	24
00000fc0 4d454d4d4150   9315 	.strz	"MEMMAP_SW_MAJOR_VERSION (1u)"
00000fc6 5f53575f4d41 
00000fcc 4a4f525f5645 
00000fd2 5253494f4e20 
00000fd8 2831752900 
00000fdd 01             9316 	.byte	1
00000fde 19             9317 	.byte	25
00000fdf 4d454d4d4150   9318 	.strz	"MEMMAP_SW_MINOR_VERSION (11u)"
00000fe5 5f53575f4d49 
00000feb 4e4f525f5645 
00000ff1 5253494f4e20 
00000ff7 283131752900 
00000ffd 01             9319 	.byte	1
00000ffe 1a             9320 	.byte	26
00000fff 4d454d4d4150   9321 	.strz	"MEMMAP_SW_PATCH_VERSION (0u)"
00001005 5f53575f5041 
0000100b 5443485f5645 
00001011 5253494f4e20 
00001017 2830752900 
0000101c 01             9322 	.byte	1
0000101d 20             9323 	.byte	32
0000101e 4d454d5f5357   9324 	.strz	"MEM_SW_MAJOR_VERSION MEMMAP_SW_MAJOR_VERSION"
00001024 5f4d414a4f52 
0000102a 5f5645525349 
00001030 4f4e204d454d 
00001036 4d41505f5357 
0000103c 5f4d414a4f52 
00001042 5f5645525349 
00001048 4f4e00 
0000104b 01             9325 	.byte	1
0000104c 21             9326 	.byte	33

                                                                      Page 180
                                                              C:\Users\nhuliyap\AppData\Local\Temp\gh_000048k1.s
0000104d 4d454d5f5357   9327 	.strz	"MEM_SW_MINOR_VERSION MEMMAP_SW_MINOR_VERSION"
00001053 5f4d494e4f52 
00001059 5f5645525349 
0000105f 4f4e204d454d 
00001065 4d41505f5357 
0000106b 5f4d494e4f52 
00001071 5f5645525349 
00001077 4f4e00 
0000107a 01             9328 	.byte	1
0000107b 22             9329 	.byte	34
0000107c 4d454d5f5357   9330 	.strz	"MEM_SW_PATCH_VERSION MEMMAP_SW_PATCH_VERSION"
00001082 5f5041544348 
00001088 5f5645525349 
0000108e 4f4e204d454d 
00001094 4d41505f5357 
0000109a 5f5041544348 
000010a0 5f5645525349 
000010a6 4f4e00 
000010a9 01             9331 	.byte	1
000010aa 24             9332 	.byte	36
000010ab 4d454d4d4150   9333 	.strz	"MEMMAP_ERROR "
000010b1 5f4552524f52 
000010b7 2000 
000010b9 01             9334 	.byte	1
000010ba 9902           9335 	.byte	153,2
000010bc 53544f505f53   9336 	.strz	"STOP_SEC_CODE "
000010c2 45435f434f44 
000010c8 452000 
000010cb 03             9337 	.byte	3
000010cc f403           9338 	.byte	244,3
000010ce 10             9339 	.byte	16
000010cf 04             9340 	.byte	4
000010d0 04             9341 	.byte	4
000010d1 04             9342 	.byte	4
000010d2 03             9343 	.byte	3
000010d3 09             9344 	.byte	9
000010d4 11             9345 	.byte	17
000010d5 04             9346 	.byte	4
000010d6 03             9347 	.byte	3
000010d7 10             9348 	.byte	16
000010d8 12             9349 	.byte	18
000010d9 01             9350 	.byte	1
000010da 0a             9351 	.byte	10
000010db 525f46444c5f   9352 	.strz	"R_FDL_TYPES_H "
000010e1 54595045535f 
000010e7 482000 
000010ea 04             9353 	.byte	4
000010eb 04             9354 	.byte	4
000010ec 03             9355 	.byte	3
000010ed 1d             9356 	.byte	29
000010ee 13             9357 	.byte	19
000010ef 04             9358 	.byte	4
000010f0 01             9359 	.byte	1
000010f1 72             9360 	.byte	114
000010f2 464c535f5354   9361 	.strz	"FLS_START_SEC_PUBLIC_CODE "
000010f8 4152545f5345 
000010fe 435f5055424c 
00001104 49435f434f44 
0000110a 452000 
0000110d 03             9362 	.byte	3
0000110e 73             9363 	.byte	115

                                                                      Page 181
                                                              C:\Users\nhuliyap\AppData\Local\Temp\gh_000048k1.s
0000110f 0f             9364 	.byte	15
00001110 01             9365 	.byte	1
00001111 02             9366 	.byte	2
00001112 4d454d4d4150   9367 	.strz	"MEMMAP_VENDOR_ID (30u)"
00001118 5f56454e444f 
0000111e 525f49442028 
00001124 3330752900 
00001129 01             9368 	.byte	1
0000112a 08             9369 	.byte	8
0000112b 4d454d4d4150   9370 	.strz	"MEMMAP_AR_RELEASE_MAJOR_VERSION (4u)"
00001131 5f41525f5245 
00001137 4c454153455f 
0000113d 4d414a4f525f 
00001143 56455253494f 
00001149 4e2028347529 
0000114f 00 
00001150 01             9371 	.byte	1
00001151 09             9372 	.byte	9
00001152 4d454d4d4150   9373 	.strz	"MEMMAP_AR_RELEASE_MINOR_VERSION (0u)"
00001158 5f41525f5245 
0000115e 4c454153455f 
00001164 4d494e4f525f 
0000116a 56455253494f 
00001170 4e2028307529 
00001176 00 
00001177 01             9374 	.byte	1
00001178 0a             9375 	.byte	10
00001179 4d454d4d4150   9376 	.strz	"MEMMAP_AR_RELEASE_REVISION_VERSION (3u)"
0000117f 5f41525f5245 
00001185 4c454153455f 
0000118b 524556495349 
00001191 4f4e5f564552 
00001197 53494f4e2028 
0000119d 33752900 
000011a1 01             9377 	.byte	1
000011a2 10             9378 	.byte	16
000011a3 4d454d5f4152   9379 	.strz	"MEM_AR_RELEASE_MAJOR_VERSION MEMMAP_AR_RELEASE_MAJOR_VERSION"
000011a9 5f52454c4541 
000011af 53455f4d414a 
000011b5 4f525f564552 
000011bb 53494f4e204d 
000011c1 454d4d41505f 
000011c7 41525f52454c 
000011cd 454153455f4d 
000011d3 414a4f525f56 
000011d9 455253494f4e 
000011df 00 
000011e0 01             9380 	.byte	1
000011e1 11             9381 	.byte	17
000011e2 4d454d5f4152   9382 	.strz	"MEM_AR_RELEASE_MINOR_VERSION MEMMAP_AR_RELEASE_MINOR_VERSION"
000011e8 5f52454c4541 
000011ee 53455f4d494e 
000011f4 4f525f564552 
000011fa 53494f4e204d 
00001200 454d4d41505f 
00001206 41525f52454c 
0000120c 454153455f4d 
00001212 494e4f525f56 
00001218 455253494f4e 
0000121e 00 
0000121f 01             9383 	.byte	1

                                                                      Page 182
                                                              C:\Users\nhuliyap\AppData\Local\Temp\gh_000048k1.s
00001220 12             9384 	.byte	18
00001221 4d454d5f4152   9385 	.strz	"MEM_AR_RELEASE_PATCH_VERSION MEMMAP_AR_RELEASE_REVISION_VERSION"
00001227 5f52454c4541 
0000122d 53455f504154 
00001233 43485f564552 
00001239 53494f4e204d 
0000123f 454d4d41505f 
00001245 41525f52454c 
0000124b 454153455f52 
00001251 45564953494f 
00001257 4e5f56455253 
0000125d 494f4e00 
00001261 01             9386 	.byte	1
00001262 18             9387 	.byte	24
00001263 4d454d4d4150   9388 	.strz	"MEMMAP_SW_MAJOR_VERSION (1u)"
00001269 5f53575f4d41 
0000126f 4a4f525f5645 
00001275 5253494f4e20 
0000127b 2831752900 
00001280 01             9389 	.byte	1
00001281 19             9390 	.byte	25
00001282 4d454d4d4150   9391 	.strz	"MEMMAP_SW_MINOR_VERSION (11u)"
00001288 5f53575f4d49 
0000128e 4e4f525f5645 
00001294 5253494f4e20 
0000129a 283131752900 
000012a0 01             9392 	.byte	1
000012a1 1a             9393 	.byte	26
000012a2 4d454d4d4150   9394 	.strz	"MEMMAP_SW_PATCH_VERSION (0u)"
000012a8 5f53575f5041 
000012ae 5443485f5645 
000012b4 5253494f4e20 
000012ba 2830752900 
000012bf 01             9395 	.byte	1
000012c0 20             9396 	.byte	32
000012c1 4d454d5f5357   9397 	.strz	"MEM_SW_MAJOR_VERSION MEMMAP_SW_MAJOR_VERSION"
000012c7 5f4d414a4f52 
000012cd 5f5645525349 
000012d3 4f4e204d454d 
000012d9 4d41505f5357 
000012df 5f4d414a4f52 
000012e5 5f5645525349 
000012eb 4f4e00 
000012ee 01             9398 	.byte	1
000012ef 21             9399 	.byte	33
000012f0 4d454d5f5357   9400 	.strz	"MEM_SW_MINOR_VERSION MEMMAP_SW_MINOR_VERSION"
000012f6 5f4d494e4f52 
000012fc 5f5645525349 
00001302 4f4e204d454d 
00001308 4d41505f5357 
0000130e 5f4d494e4f52 
00001314 5f5645525349 
0000131a 4f4e00 
0000131d 01             9401 	.byte	1
0000131e 22             9402 	.byte	34
0000131f 4d454d5f5357   9403 	.strz	"MEM_SW_PATCH_VERSION MEMMAP_SW_PATCH_VERSION"
00001325 5f5041544348 
0000132b 5f5645525349 
00001331 4f4e204d454d 
00001337 4d41505f5357 
0000133d 5f5041544348 

                                                                      Page 183
                                                              C:\Users\nhuliyap\AppData\Local\Temp\gh_000048k1.s
00001343 5f5645525349 
00001349 4f4e00 
0000134c 01             9404 	.byte	1
0000134d 24             9405 	.byte	36
0000134e 4d454d4d4150   9406 	.strz	"MEMMAP_ERROR "
00001354 5f4552524f52 
0000135a 2000 
0000135c 01             9407 	.byte	1
0000135d f101           9408 	.byte	241,1
0000135f 53544152545f   9409 	.strz	"START_SEC_CODE "
00001365 5345435f434f 
0000136b 44452000 
0000136f 03             9410 	.byte	3
00001370 f403           9411 	.byte	244,3
00001372 10             9412 	.byte	16
00001373 01             9413 	.byte	1
00001374 f407           9414 	.byte	244,7
00001376 434f44455f53   9415 	.strz	"CODE_SEC_OPEN "
0000137c 45435f4f5045 
00001382 4e2000 
00001385 04             9416 	.byte	4
00001386 04             9417 	.byte	4
00001387 01             9418 	.byte	1
00001388 d001           9419 	.byte	208,1
0000138a 464c535f5354   9420 	.strz	"FLS_STOP_SEC_PUBLIC_CODE "
00001390 4f505f534543 
00001396 5f5055424c49 
0000139c 435f434f4445 
000013a2 2000 
000013a4 03             9421 	.byte	3
000013a5 d101           9422 	.byte	209,1
000013a7 0f             9423 	.byte	15
000013a8 01             9424 	.byte	1
000013a9 02             9425 	.byte	2
000013aa 4d454d4d4150   9426 	.strz	"MEMMAP_VENDOR_ID (30u)"
000013b0 5f56454e444f 
000013b6 525f49442028 
000013bc 3330752900 
000013c1 01             9427 	.byte	1
000013c2 08             9428 	.byte	8
000013c3 4d454d4d4150   9429 	.strz	"MEMMAP_AR_RELEASE_MAJOR_VERSION (4u)"
000013c9 5f41525f5245 
000013cf 4c454153455f 
000013d5 4d414a4f525f 
000013db 56455253494f 
000013e1 4e2028347529 
000013e7 00 
000013e8 01             9430 	.byte	1
000013e9 09             9431 	.byte	9
000013ea 4d454d4d4150   9432 	.strz	"MEMMAP_AR_RELEASE_MINOR_VERSION (0u)"
000013f0 5f41525f5245 
000013f6 4c454153455f 
000013fc 4d494e4f525f 
00001402 56455253494f 
00001408 4e2028307529 
0000140e 00 
0000140f 01             9433 	.byte	1
00001410 0a             9434 	.byte	10
00001411 4d454d4d4150   9435 	.strz	"MEMMAP_AR_RELEASE_REVISION_VERSION (3u)"
00001417 5f41525f5245 
0000141d 4c454153455f 

                                                                      Page 184
                                                              C:\Users\nhuliyap\AppData\Local\Temp\gh_000048k1.s
00001423 524556495349 
00001429 4f4e5f564552 
0000142f 53494f4e2028 
00001435 33752900 
00001439 01             9436 	.byte	1
0000143a 10             9437 	.byte	16
0000143b 4d454d5f4152   9438 	.strz	"MEM_AR_RELEASE_MAJOR_VERSION MEMMAP_AR_RELEASE_MAJOR_VERSION"
00001441 5f52454c4541 
00001447 53455f4d414a 
0000144d 4f525f564552 
00001453 53494f4e204d 
00001459 454d4d41505f 
0000145f 41525f52454c 
00001465 454153455f4d 
0000146b 414a4f525f56 
00001471 455253494f4e 
00001477 00 
00001478 01             9439 	.byte	1
00001479 11             9440 	.byte	17
0000147a 4d454d5f4152   9441 	.strz	"MEM_AR_RELEASE_MINOR_VERSION MEMMAP_AR_RELEASE_MINOR_VERSION"
00001480 5f52454c4541 
00001486 53455f4d494e 
0000148c 4f525f564552 
00001492 53494f4e204d 
00001498 454d4d41505f 
0000149e 41525f52454c 
000014a4 454153455f4d 
000014aa 494e4f525f56 
000014b0 455253494f4e 
000014b6 00 
000014b7 01             9442 	.byte	1
000014b8 12             9443 	.byte	18
000014b9 4d454d5f4152   9444 	.strz	"MEM_AR_RELEASE_PATCH_VERSION MEMMAP_AR_RELEASE_REVISION_VERSION"
000014bf 5f52454c4541 
000014c5 53455f504154 
000014cb 43485f564552 
000014d1 53494f4e204d 
000014d7 454d4d41505f 
000014dd 41525f52454c 
000014e3 454153455f52 
000014e9 45564953494f 
000014ef 4e5f56455253 
000014f5 494f4e00 
000014f9 01             9445 	.byte	1
000014fa 18             9446 	.byte	24
000014fb 4d454d4d4150   9447 	.strz	"MEMMAP_SW_MAJOR_VERSION (1u)"
00001501 5f53575f4d41 
00001507 4a4f525f5645 
0000150d 5253494f4e20 
00001513 2831752900 
00001518 01             9448 	.byte	1
00001519 19             9449 	.byte	25
0000151a 4d454d4d4150   9450 	.strz	"MEMMAP_SW_MINOR_VERSION (11u)"
00001520 5f53575f4d49 
00001526 4e4f525f5645 
0000152c 5253494f4e20 
00001532 283131752900 
00001538 01             9451 	.byte	1
00001539 1a             9452 	.byte	26
0000153a 4d454d4d4150   9453 	.strz	"MEMMAP_SW_PATCH_VERSION (0u)"
00001540 5f53575f5041 

                                                                      Page 185
                                                              C:\Users\nhuliyap\AppData\Local\Temp\gh_000048k1.s
00001546 5443485f5645 
0000154c 5253494f4e20 
00001552 2830752900 
00001557 01             9454 	.byte	1
00001558 20             9455 	.byte	32
00001559 4d454d5f5357   9456 	.strz	"MEM_SW_MAJOR_VERSION MEMMAP_SW_MAJOR_VERSION"
0000155f 5f4d414a4f52 
00001565 5f5645525349 
0000156b 4f4e204d454d 
00001571 4d41505f5357 
00001577 5f4d414a4f52 
0000157d 5f5645525349 
00001583 4f4e00 
00001586 01             9457 	.byte	1
00001587 21             9458 	.byte	33
00001588 4d454d5f5357   9459 	.strz	"MEM_SW_MINOR_VERSION MEMMAP_SW_MINOR_VERSION"
0000158e 5f4d494e4f52 
00001594 5f5645525349 
0000159a 4f4e204d454d 
000015a0 4d41505f5357 
000015a6 5f4d494e4f52 
000015ac 5f5645525349 
000015b2 4f4e00 
000015b5 01             9460 	.byte	1
000015b6 22             9461 	.byte	34
000015b7 4d454d5f5357   9462 	.strz	"MEM_SW_PATCH_VERSION MEMMAP_SW_PATCH_VERSION"
000015bd 5f5041544348 
000015c3 5f5645525349 
000015c9 4f4e204d454d 
000015cf 4d41505f5357 
000015d5 5f5041544348 
000015db 5f5645525349 
000015e1 4f4e00 
000015e4 01             9463 	.byte	1
000015e5 24             9464 	.byte	36
000015e6 4d454d4d4150   9465 	.strz	"MEMMAP_ERROR "
000015ec 5f4552524f52 
000015f2 2000 
000015f4 01             9466 	.byte	1
000015f5 f501           9467 	.byte	245,1
000015f7 53544f505f53   9468 	.strz	"STOP_SEC_CODE "
000015fd 45435f434f44 
00001603 452000 
00001606 03             9469 	.byte	3
00001607 f403           9470 	.byte	244,3
00001609 10             9471 	.byte	16
0000160a 04             9472 	.byte	4
0000160b 04             9473 	.byte	4
0000160c 01             9474 	.byte	1
0000160d d301           9475 	.byte	211,1
0000160f 464c535f5354   9476 	.strz	"FLS_START_SEC_DBTOC_DATA_UNSPECIFIED "
00001615 4152545f5345 
0000161b 435f4442544f 
00001621 435f44415441 
00001627 5f554e535045 
0000162d 434946494544 
00001633 2000 
00001635 03             9477 	.byte	3
00001636 d401           9478 	.byte	212,1
00001638 0f             9479 	.byte	15
00001639 01             9480 	.byte	1

                                                                      Page 186
                                                              C:\Users\nhuliyap\AppData\Local\Temp\gh_000048k1.s
0000163a 02             9481 	.byte	2
0000163b 4d454d4d4150   9482 	.strz	"MEMMAP_VENDOR_ID (30u)"
00001641 5f56454e444f 
00001647 525f49442028 
0000164d 3330752900 
00001652 01             9483 	.byte	1
00001653 08             9484 	.byte	8
00001654 4d454d4d4150   9485 	.strz	"MEMMAP_AR_RELEASE_MAJOR_VERSION (4u)"
0000165a 5f41525f5245 
00001660 4c454153455f 
00001666 4d414a4f525f 
0000166c 56455253494f 
00001672 4e2028347529 
00001678 00 
00001679 01             9486 	.byte	1
0000167a 09             9487 	.byte	9
0000167b 4d454d4d4150   9488 	.strz	"MEMMAP_AR_RELEASE_MINOR_VERSION (0u)"
00001681 5f41525f5245 
00001687 4c454153455f 
0000168d 4d494e4f525f 
00001693 56455253494f 
00001699 4e2028307529 
0000169f 00 
000016a0 01             9489 	.byte	1
000016a1 0a             9490 	.byte	10
000016a2 4d454d4d4150   9491 	.strz	"MEMMAP_AR_RELEASE_REVISION_VERSION (3u)"
000016a8 5f41525f5245 
000016ae 4c454153455f 
000016b4 524556495349 
000016ba 4f4e5f564552 
000016c0 53494f4e2028 
000016c6 33752900 
000016ca 01             9492 	.byte	1
000016cb 10             9493 	.byte	16
000016cc 4d454d5f4152   9494 	.strz	"MEM_AR_RELEASE_MAJOR_VERSION MEMMAP_AR_RELEASE_MAJOR_VERSION"
000016d2 5f52454c4541 
000016d8 53455f4d414a 
000016de 4f525f564552 
000016e4 53494f4e204d 
000016ea 454d4d41505f 
000016f0 41525f52454c 
000016f6 454153455f4d 
000016fc 414a4f525f56 
00001702 455253494f4e 
00001708 00 
00001709 01             9495 	.byte	1
0000170a 11             9496 	.byte	17
0000170b 4d454d5f4152   9497 	.strz	"MEM_AR_RELEASE_MINOR_VERSION MEMMAP_AR_RELEASE_MINOR_VERSION"
00001711 5f52454c4541 
00001717 53455f4d494e 
0000171d 4f525f564552 
00001723 53494f4e204d 
00001729 454d4d41505f 
0000172f 41525f52454c 
00001735 454153455f4d 
0000173b 494e4f525f56 
00001741 455253494f4e 
00001747 00 
00001748 01             9498 	.byte	1
00001749 12             9499 	.byte	18
0000174a 4d454d5f4152   9500 	.strz	"MEM_AR_RELEASE_PATCH_VERSION MEMMAP_AR_RELEASE_REVISION_VERSION"

                                                                      Page 187
                                                              C:\Users\nhuliyap\AppData\Local\Temp\gh_000048k1.s
00001750 5f52454c4541 
00001756 53455f504154 
0000175c 43485f564552 
00001762 53494f4e204d 
00001768 454d4d41505f 
0000176e 41525f52454c 
00001774 454153455f52 
0000177a 45564953494f 
00001780 4e5f56455253 
00001786 494f4e00 
0000178a 01             9501 	.byte	1
0000178b 18             9502 	.byte	24
0000178c 4d454d4d4150   9503 	.strz	"MEMMAP_SW_MAJOR_VERSION (1u)"
00001792 5f53575f4d41 
00001798 4a4f525f5645 
0000179e 5253494f4e20 
000017a4 2831752900 
000017a9 01             9504 	.byte	1
000017aa 19             9505 	.byte	25
000017ab 4d454d4d4150   9506 	.strz	"MEMMAP_SW_MINOR_VERSION (11u)"
000017b1 5f53575f4d49 
000017b7 4e4f525f5645 
000017bd 5253494f4e20 
000017c3 283131752900 
000017c9 01             9507 	.byte	1
000017ca 1a             9508 	.byte	26
000017cb 4d454d4d4150   9509 	.strz	"MEMMAP_SW_PATCH_VERSION (0u)"
000017d1 5f53575f5041 
000017d7 5443485f5645 
000017dd 5253494f4e20 
000017e3 2830752900 
000017e8 01             9510 	.byte	1
000017e9 20             9511 	.byte	32
000017ea 4d454d5f5357   9512 	.strz	"MEM_SW_MAJOR_VERSION MEMMAP_SW_MAJOR_VERSION"
000017f0 5f4d414a4f52 
000017f6 5f5645525349 
000017fc 4f4e204d454d 
00001802 4d41505f5357 
00001808 5f4d414a4f52 
0000180e 5f5645525349 
00001814 4f4e00 
00001817 01             9513 	.byte	1
00001818 21             9514 	.byte	33
00001819 4d454d5f5357   9515 	.strz	"MEM_SW_MINOR_VERSION MEMMAP_SW_MINOR_VERSION"
0000181f 5f4d494e4f52 
00001825 5f5645525349 
0000182b 4f4e204d454d 
00001831 4d41505f5357 
00001837 5f4d494e4f52 
0000183d 5f5645525349 
00001843 4f4e00 
00001846 01             9516 	.byte	1
00001847 22             9517 	.byte	34
00001848 4d454d5f5357   9518 	.strz	"MEM_SW_PATCH_VERSION MEMMAP_SW_PATCH_VERSION"
0000184e 5f5041544348 
00001854 5f5645525349 
0000185a 4f4e204d454d 
00001860 4d41505f5357 
00001866 5f5041544348 
0000186c 5f5645525349 
00001872 4f4e00 

                                                                      Page 188
                                                              C:\Users\nhuliyap\AppData\Local\Temp\gh_000048k1.s
00001875 01             9519 	.byte	1
00001876 24             9520 	.byte	36
00001877 4d454d4d4150   9521 	.strz	"MEMMAP_ERROR "
0000187d 5f4552524f52 
00001883 2000 
00001885 01             9522 	.byte	1
00001886 dd02           9523 	.byte	221,2
00001888 53544152545f   9524 	.strz	"START_SEC_CONST_UNSPECIFIED "
0000188e 5345435f434f 
00001894 4e53545f554e 
0000189a 535045434946 
000018a0 4945442000 
000018a5 03             9525 	.byte	3
000018a6 f403           9526 	.byte	244,3
000018a8 10             9527 	.byte	16
000018a9 01             9528 	.byte	1
000018aa b508           9529 	.byte	181,8
000018ac 434f4e53545f   9530 	.strz	"CONST_SEC_OPEN "
000018b2 5345435f4f50 
000018b8 454e2000 
000018bc 04             9531 	.byte	4
000018bd 04             9532 	.byte	4
000018be 01             9533 	.byte	1
000018bf d801           9534 	.byte	216,1
000018c1 464c535f5354   9535 	.strz	"FLS_STOP_SEC_DBTOC_DATA_UNSPECIFIED "
000018c7 4f505f534543 
000018cd 5f4442544f43 
000018d3 5f444154415f 
000018d9 554e53504543 
000018df 494649454420 
000018e5 00 
000018e6 03             9536 	.byte	3
000018e7 d901           9537 	.byte	217,1
000018e9 0f             9538 	.byte	15
000018ea 01             9539 	.byte	1
000018eb 24             9540 	.byte	36
000018ec 4d454d4d4150   9541 	.strz	"MEMMAP_ERROR "
000018f2 5f4552524f52 
000018f8 2000 
000018fa 01             9542 	.byte	1
000018fb e102           9543 	.byte	225,2
000018fd 53544f505f53   9544 	.strz	"STOP_SEC_CONST "
00001903 45435f434f4e 
00001909 53542000 
0000190d 03             9545 	.byte	3
0000190e f403           9546 	.byte	244,3
00001910 10             9547 	.byte	16
00001911 04             9548 	.byte	4
00001912 04             9549 	.byte	4
00001913 04             9550 	.byte	4
00001914 03             9551 	.byte	3
00001915 05             9552 	.byte	5
00001916 14             9553 	.byte	20
00001917 03             9554 	.byte	3
00001918 1a             9555 	.byte	26
00001919 15             9556 	.byte	21
0000191a 03             9557 	.byte	3
0000191b 24             9558 	.byte	36
0000191c 16             9559 	.byte	22
0000191d 03             9560 	.byte	3
0000191e 06             9561 	.byte	6

                                                                      Page 189
                                                              C:\Users\nhuliyap\AppData\Local\Temp\gh_000048k1.s
0000191f 17             9562 	.byte	23
00001920 03             9563 	.byte	3
00001921 19             9564 	.byte	25
00001922 18             9565 	.byte	24
00001923 04             9566 	.byte	4
00001924 01             9567 	.byte	1
00001925 e801           9568 	.byte	232,1
00001927 4f535f535441   9569 	.strz	"OS_START_SEC_CODE "
0000192d 52545f534543 
00001933 5f434f444520 
00001939 00 
0000193a 03             9570 	.byte	3
0000193b e901           9571 	.byte	233,1
0000193d 19             9572 	.byte	25
0000193e 04             9573 	.byte	4
0000193f 01             9574 	.byte	1
00001940 ee01           9575 	.byte	238,1
00001942 4f535f53544f   9576 	.strz	"OS_STOP_SEC_CODE "
00001948 505f5345435f 
0000194e 434f44452000 
00001954 03             9577 	.byte	3
00001955 ef01           9578 	.byte	239,1
00001957 19             9579 	.byte	25
00001958 04             9580 	.byte	4
00001959 01             9581 	.byte	1
0000195a f201           9582 	.byte	242,1
0000195c 4f535f564f4c   9583 	.strz	"OS_VOLATILE volatile"
00001962 4154494c4520 
00001968 766f6c617469 
0000196e 6c6500 
00001971 01             9584 	.byte	1
00001972 b803           9585 	.byte	184,3
00001974 4465636c6172   9586 	.strz	"DeclareISR(x) "
0000197a 654953522878 
00001980 292000 
00001983 01             9587 	.byte	1
00001984 e003           9588 	.byte	224,3
00001986 4465636c6172   9589 	.strz	"DeclareTask(x) "
0000198c 655461736b28 
00001992 78292000 
00001996 01             9590 	.byte	1
00001997 8004           9591 	.byte	128,4
00001999 4465636c6172   9592 	.strz	"DeclareAlarm(x) "
0000199f 65416c61726d 
000019a5 2878292000 
000019aa 01             9593 	.byte	1
000019ab a204           9594 	.byte	162,4
000019ad 4465636c6172   9595 	.strz	"DeclareCounter(x) "
000019b3 65436f756e74 
000019b9 657228782920 
000019bf 00 
000019c0 01             9596 	.byte	1
000019c1 e006           9597 	.byte	224,6
000019c3 4f535f535441   9598 	.strz	"OS_START_SEC_CALLOUT_CODE "
000019c9 52545f534543 
000019cf 5f43414c4c4f 
000019d5 55545f434f44 
000019db 452000 
000019de 03             9599 	.byte	3
000019df e106           9600 	.byte	225,6
000019e1 19             9601 	.byte	25

                                                                      Page 190
                                                              C:\Users\nhuliyap\AppData\Local\Temp\gh_000048k1.s
000019e2 04             9602 	.byte	4
000019e3 01             9603 	.byte	1
000019e4 ea06           9604 	.byte	234,6
000019e6 4f535f53544f   9605 	.strz	"OS_STOP_SEC_CALLOUT_CODE "
000019ec 505f5345435f 
000019f2 43414c4c4f55 
000019f8 545f434f4445 
000019fe 2000 
00001a00 03             9606 	.byte	3
00001a01 eb06           9607 	.byte	235,6
00001a03 19             9608 	.byte	25
00001a04 04             9609 	.byte	4
00001a05 01             9610 	.byte	1
00001a06 ed06           9611 	.byte	237,6
00001a08 4f535f535441   9612 	.strz	"OS_START_SEC_CALLOUT_CODE "
00001a0e 52545f534543 
00001a14 5f43414c4c4f 
00001a1a 55545f434f44 
00001a20 452000 
00001a23 03             9613 	.byte	3
00001a24 ee06           9614 	.byte	238,6
00001a26 19             9615 	.byte	25
00001a27 04             9616 	.byte	4
00001a28 01             9617 	.byte	1
00001a29 8007           9618 	.byte	128,7
00001a2b 4f535f53544f   9619 	.strz	"OS_STOP_SEC_CALLOUT_CODE "
00001a31 505f5345435f 
00001a37 43414c4c4f55 
00001a3d 545f434f4445 
00001a43 2000 
00001a45 03             9620 	.byte	3
00001a46 8107           9621 	.byte	129,7
00001a48 19             9622 	.byte	25
00001a49 04             9623 	.byte	4
00001a4a 01             9624 	.byte	1
00001a4b 8307           9625 	.byte	131,7
00001a4d 4f535f535441   9626 	.strz	"OS_START_SEC_CODE "
00001a53 52545f534543 
00001a59 5f434f444520 
00001a5f 00 
00001a60 03             9627 	.byte	3
00001a61 8407           9628 	.byte	132,7
00001a63 19             9629 	.byte	25
00001a64 04             9630 	.byte	4
00001a65 01             9631 	.byte	1
00001a66 de07           9632 	.byte	222,7
00001a68 4f535f53544f   9633 	.strz	"OS_STOP_SEC_CODE "
00001a6e 505f5345435f 
00001a74 434f44452000 
00001a7a 03             9634 	.byte	3
00001a7b df07           9635 	.byte	223,7
00001a7d 19             9636 	.byte	25
00001a7e 04             9637 	.byte	4
00001a7f 01             9638 	.byte	1
00001a80 e107           9639 	.byte	225,7
00001a82 4f535f535441   9640 	.strz	"OS_START_SEC_CONST_FAST_UNSPECIFIED "
00001a88 52545f534543 
00001a8e 5f434f4e5354 
00001a94 5f464153545f 
00001a9a 554e53504543 
00001aa0 494649454420 

                                                                      Page 191
                                                              C:\Users\nhuliyap\AppData\Local\Temp\gh_000048k1.s
00001aa6 00 
00001aa7 03             9641 	.byte	3
00001aa8 e207           9642 	.byte	226,7
00001aaa 19             9643 	.byte	25
00001aab 04             9644 	.byte	4
00001aac 01             9645 	.byte	1
00001aad ec07           9646 	.byte	236,7
00001aaf 4f535f53544f   9647 	.strz	"OS_STOP_SEC_CONST_FAST_UNSPECIFIED "
00001ab5 505f5345435f 
00001abb 434f4e53545f 
00001ac1 464153545f55 
00001ac7 4e5350454349 
00001acd 464945442000 
00001ad3 03             9648 	.byte	3
00001ad4 ed07           9649 	.byte	237,7
00001ad6 19             9650 	.byte	25
00001ad7 04             9651 	.byte	4
00001ad8 01             9652 	.byte	1
00001ad9 ef07           9653 	.byte	239,7
00001adb 4f535f535441   9654 	.strz	"OS_START_SEC_CONST_UNSPECIFIED "
00001ae1 52545f534543 
00001ae7 5f434f4e5354 
00001aed 5f554e535045 
00001af3 434946494544 
00001af9 2000 
00001afb 03             9655 	.byte	3
00001afc f007           9656 	.byte	240,7
00001afe 19             9657 	.byte	25
00001aff 04             9658 	.byte	4
00001b00 01             9659 	.byte	1
00001b01 f407           9660 	.byte	244,7
00001b03 4f535f53544f   9661 	.strz	"OS_STOP_SEC_CONST_UNSPECIFIED "
00001b09 505f5345435f 
00001b0f 434f4e53545f 
00001b15 554e53504543 
00001b1b 494649454420 
00001b21 00 
00001b22 03             9662 	.byte	3
00001b23 f507           9663 	.byte	245,7
00001b25 19             9664 	.byte	25
00001b26 04             9665 	.byte	4
00001b27 01             9666 	.byte	1
00001b28 f707           9667 	.byte	247,7
00001b2a 4f535f535441   9668 	.strz	"OS_START_SEC_VAR_CLEARED_UNSPECIFIED "
00001b30 52545f534543 
00001b36 5f5641525f43 
00001b3c 4c4541524544 
00001b42 5f554e535045 
00001b48 434946494544 
00001b4e 2000 
00001b50 03             9669 	.byte	3
00001b51 f807           9670 	.byte	248,7
00001b53 19             9671 	.byte	25
00001b54 04             9672 	.byte	4
00001b55 01             9673 	.byte	1
00001b56 8008           9674 	.byte	128,8
00001b58 4f535f53544f   9675 	.strz	"OS_STOP_SEC_VAR_CLEARED_UNSPECIFIED "
00001b5e 505f5345435f 
00001b64 5641525f434c 
00001b6a 45415245445f 
00001b70 554e53504543 

                                                                      Page 192
                                                              C:\Users\nhuliyap\AppData\Local\Temp\gh_000048k1.s
00001b76 494649454420 
00001b7c 00 
00001b7d 03             9676 	.byte	3
00001b7e 8108           9677 	.byte	129,8
00001b80 19             9678 	.byte	25
00001b81 04             9679 	.byte	4
00001b82 01             9680 	.byte	1
00001b83 8308           9681 	.byte	131,8
00001b85 4f535f535441   9682 	.strz	"OS_START_SEC_VAR_NO_INIT_UNSPECIFIED "
00001b8b 52545f534543 
00001b91 5f5641525f4e 
00001b97 4f5f494e4954 
00001b9d 5f554e535045 
00001ba3 434946494544 
00001ba9 2000 
00001bab 03             9683 	.byte	3
00001bac 8408           9684 	.byte	132,8
00001bae 19             9685 	.byte	25
00001baf 04             9686 	.byte	4
00001bb0 01             9687 	.byte	1
00001bb1 9608           9688 	.byte	150,8
00001bb3 4f535f53544f   9689 	.strz	"OS_STOP_SEC_VAR_NO_INIT_UNSPECIFIED "
00001bb9 505f5345435f 
00001bbf 5641525f4e4f 
00001bc5 5f494e49545f 
00001bcb 554e53504543 
00001bd1 494649454420 
00001bd7 00 
00001bd8 03             9690 	.byte	3
00001bd9 9708           9691 	.byte	151,8
00001bdb 19             9692 	.byte	25
00001bdc 04             9693 	.byte	4
00001bdd 03             9694 	.byte	3
00001bde 9908           9695 	.byte	153,8
00001be0 1a             9696 	.byte	26
00001be1 01             9697 	.byte	1
00001be2 e001           9698 	.byte	224,1
00001be4 4f535f535441   9699 	.strz	"OS_START_SEC_CALLOUT_CODE "
00001bea 52545f534543 
00001bf0 5f43414c4c4f 
00001bf6 55545f434f44 
00001bfc 452000 
00001bff 03             9700 	.byte	3
00001c00 e101           9701 	.byte	225,1
00001c02 19             9702 	.byte	25
00001c03 04             9703 	.byte	4
00001c04 01             9704 	.byte	1
00001c05 e901           9705 	.byte	233,1
00001c07 4f535f53544f   9706 	.strz	"OS_STOP_SEC_CALLOUT_CODE "
00001c0d 505f5345435f 
00001c13 43414c4c4f55 
00001c19 545f434f4445 
00001c1f 2000 
00001c21 03             9707 	.byte	3
00001c22 ea01           9708 	.byte	234,1
00001c24 19             9709 	.byte	25
00001c25 04             9710 	.byte	4
00001c26 01             9711 	.byte	1
00001c27 ec01           9712 	.byte	236,1
00001c29 4f535f535441   9713 	.strz	"OS_START_SEC_CODE "
00001c2f 52545f534543 

                                                                      Page 193
                                                              C:\Users\nhuliyap\AppData\Local\Temp\gh_000048k1.s
00001c35 5f434f444520 
00001c3b 00 
00001c3c 03             9714 	.byte	3
00001c3d ed01           9715 	.byte	237,1
00001c3f 19             9716 	.byte	25
00001c40 04             9717 	.byte	4
00001c41 01             9718 	.byte	1
00001c42 8302           9719 	.byte	131,2
00001c44 4f535f53544f   9720 	.strz	"OS_STOP_SEC_CODE "
00001c4a 505f5345435f 
00001c50 434f44452000 
00001c56 03             9721 	.byte	3
00001c57 8402           9722 	.byte	132,2
00001c59 19             9723 	.byte	25
00001c5a 04             9724 	.byte	4
00001c5b 04             9725 	.byte	4
00001c5c 04             9726 	.byte	4
00001c5d 04             9727 	.byte	4
00001c5e 04             9728 	.byte	4
00001c5f 03             9729 	.byte	3
00001c60 1b             9730 	.byte	27
00001c61 12             9731 	.byte	18
00001c62 04             9732 	.byte	4
00001c63 01             9733 	.byte	1
00001c64 20             9734 	.byte	32
00001c65 525f46444c5f   9735 	.strz	"R_FDL_EXTERN extern"
00001c6b 45585445524e 
00001c71 206578746572 
00001c77 6e00 
00001c79 04             9736 	.byte	4
00001c7a 03             9737 	.byte	3
00001c7b 06             9738 	.byte	6
00001c7c 1b             9739 	.byte	27
00001c7d 03             9740 	.byte	3
00001c7e 05             9741 	.byte	5
00001c7f 1c             9742 	.byte	28
00001c80 03             9743 	.byte	3
00001c81 1b             9744 	.byte	27
00001c82 1d             9745 	.byte	29
00001c83 04             9746 	.byte	4
00001c84 04             9747 	.byte	4
00001c85 03             9748 	.byte	3
00001c86 06             9749 	.byte	6
00001c87 1e             9750 	.byte	30
00001c88 04             9751 	.byte	4
00001c89 01             9752 	.byte	1
00001c8a 08             9753 	.byte	8
00001c8b 634652455155   9754 	.strz	"cFREQUENCY_433 1"
00001c91 454e43595f34 
00001c97 3333203100 
00001c9c 04             9755 	.byte	4
00001c9d 04             9756 	.byte	4
00001c9e 00             9757 	.byte	0
                        9758 	.section	.debug_abbrev
000001af 00             9759 	.byte	0
                        9760 	.section	.debug_info
                        9761 .Ldw_end:
                        9762 .rh850_flags REGMODE32,DATA_ALIGN8,GP_FIX,EP_NONFIX,TP_FIX,REG2_RESERVE,G3K,GHS_MISALIGN,SDA_EXTRA_REGS_0
