                                                                      Page 1
                                                              C:\Users\nhuliyap\AppData\Local\Temp\gh_0000d941.s
Command Line: C:\ghs\comp_201517\ease850.exe -w -elf -b0 -I../source/common -I../source/ProjectCompiler -I../source/ProjectCfg -I../source/SwcApplTpms -I../source/SwcApplTpms/Intface -I../source/SwcApplEcuM -I../source/SwcServiceEcuM -I../source/SwcServiceNvM -I../source/SwcServiceOs -I../source/SwcServiceStartUp -I../source/McalAdc -I../source/McalDio -I../source/McalGpt -I../source/McalMcu -I../source/McalWdg -I../source/wrappers -I../source/wrappers/McalAta -I../source/McalLin -I../source/McalCan -I../source/wrappers/OS -I../source/McalFls -I../source/EcuabFee -I../source/EcuabMemIf -I../source/wrappers/VStdLib -I../source/wrappers/Crc -I../source/wrappers/FBL_APPL -I../source/wrappers/CAN_MANAGER -I../source/wrappers/NVM_MANAGER -I../source/wrappers/DEM_MANAGER -I../source/wrappers/RDC_MANAGER -I../source/wrappers/ENV_MANAGER -I../source/wrappers/SYS_MANAGER -I../source/wrappers/EcuabCanIf -I../source/wrappers/SwcServiceCanSM -I../source/wrappers/SwcServiceCanTp -I../source/wrappers/SwcServiceCanTp_PreCompile -I../source/wrappers/SwcServiceCom -I../source/wrappers/SwcServiceComM -I../source/wrappers/SwcServiceComStack -I../source/wrappers/SwcServiceDcm -I../source/wrappers/SwcServicePduR -I../source/wrappers/SwcServiceEcuM -I../source/wrappers/Bfx -I../source/wrappers/SwcServiceDem -I../source/SwcServiceDet -I../source/SwcServiceFiM -I../source/wrappers/LibAutosarDiag -I../source/wrappers/rba_BswSrv -I../source/SwcServiceSchM -I../source/wrappers/SwcServiceComM/Integration -I../source/wrappers/SwcServicePduR/Integration -I../source/wrappers/EcuabCanIf/Integration -I../source/wrappers/SwcServiceCom/Integration -I../source/wrappers/SwcServiceCanTp/Integration -I../source/wrappers/SwcServiceEcuM/Integration -I../source/SwcServiceDet/Integration -I../source/wrappers/SwcServiceDcm/Integration -I../source/wrappers/SwcServiceDem/Integration -I../source/SwcServiceFiM/Integration -I../source/wrappers/EcuabCanIf/api -I../source/wrappers/SwcServiceCom/api -I../source/wrappers/SwcServiceComM/api -I../source/wrappers/SwcServicePduR/api -I../source/wrappers/Bfx/api -I../source/SwcServiceDet/api -I../source/SwcServiceFiM/api -I../source/wrappers/LibAutosarDiag/api -I../source/wrappers/rba_BswSrv/api -IC:\ghs\comp_201517\lib\rh850 -cg_underscore -cpu=rh850g3k -no_v850_simd -rh850_fpsimd=none -nomacro -patch_dbo=C:\_ECU2\ECU_Rivian_A1\Target\repo_projects\pRealEcu\cL_R2023.09.01\make\output\objects\r_fdl_user_if.dbo -source=r_fdl_user_if.c -o output\objects\gh_0000d941.o -list=output\list\r_fdl_user_if.lst C:\Users\nhuliyap\AppData\Local\Temp\gh_0000d941.s 
Original File: C:\Users\nhuliyap\AppData\Local\Temp\gh_0000d941.s
Source File: r_fdl_user_if.c
Directory: C:\_ECU2\ECU_Rivian_A1\Target\repo_projects\pRealEcu\cL_R2023.09.01\make
Host OS: Windows
EASE: Copyright (C) 1983-2015 Green Hills Software.  All Rights Reserved.
Release: Compiler v2015.1.7
Build Directory: [Directory] BTOWORKER6:c:/build_2015_1_bto/2015-10-21.2100-2015_1_bto/win32-comp-ecom
Revision: [VCInfo] http://toolsvc/branches/release-branch-70-bto/src@544153 (built by build)
Revision Date: Thu Oct 22 07:50:13 2015

Release Date: Thu Oct 22 09:32:32 2015

                           1 --Driver Command: ccv850 ../source/McalFls/r_fdl_user_if.c -cpu=rh850 -fhard
                           2 --		-ignore_callt_state_in_interrupts -large_sda -misalign_pack
                           3 --		-nofarcalls -nofloatio -no_callt -Ogeneral -Onounroll
                           4 --		-prepare_dispose -registermode=32 -reserve_r2 -sda=0
                           5 --		-shorten_loads -Wshadow --brief_diagnostics --no_commons
                           6 --		--no_wrap_diagnostics --prototype_errors --short_enum -list -G
                           7 --		-dual_debug -dwarf -X5523 -lnk=-no_xda_modifications -D
                           8 --		NOT_READY_FOR_TESTING_OR_DEPLOYMENT -D IBTCM_SW_ANPASSUNGEN -D
                           9 --		BUILD_LORDSTOWN -c -inline_prologue -I../source/common
                          10 --		-I../source/ProjectCompiler -I../source/ProjectCfg
                          11 --		-I../source/SwcApplTpms -I../source/SwcApplTpms/Intface
                          12 --		-I../source/SwcApplEcuM -I../source/SwcServiceEcuM
                          13 --		-I../source/SwcServiceNvM -I../source/SwcServiceOs
                          14 --		-I../source/SwcServiceStartUp -I../source/McalAdc
                          15 --		-I../source/McalDio -I../source/McalGpt -I../source/McalMcu
                          16 --		-I../source/McalWdg -I../source/wrappers
                          17 --		-I../source/wrappers/McalAta -I../source/McalLin
                          18 --		-I../source/McalCan -I../source/wrappers/OS -I../source/McalFls
                          19 --		-I../source/EcuabFee -I../source/EcuabMemIf
                          20 --		-I../source/wrappers/VStdLib -I../source/wrappers
                          21 --		-I../source/wrappers/Crc -I../source/wrappers/FBL_APPL
                          22 --		-I../source/wrappers/CAN_MANAGER -I../source/wrappers/NVM_MANAGER
                          23 --		-I../source/wrappers/DEM_MANAGER -I../source/wrappers/RDC_MANAGER
                          24 --		-I../source/wrappers/ENV_MANAGER -I../source/wrappers/SYS_MANAGER
                          25 --		-I../source/wrappers/EcuabCanIf
                          26 --		-I../source/wrappers/SwcServiceCanSM
                          27 --		-I../source/wrappers/SwcServiceCanTp
                          28 --		-I../source/wrappers/SwcServiceCanTp_PreCompile
                          29 --		-I../source/wrappers/SwcServiceCom
                          30 --		-I../source/wrappers/SwcServiceComM
                          31 --		-I../source/wrappers/SwcServiceComStack
                          32 --		-I../source/wrappers/SwcServiceDcm
                          33 --		-I../source/wrappers/SwcServicePduR
                          34 --		-I../source/wrappers/SwcServiceEcuM -I../source/wrappers/Bfx
                          35 --		-I../source/wrappers/SwcServiceDem -I../source/SwcServiceDet
                          36 --		-I../source/SwcServiceFiM -I../source/wrappers/LibAutosarDiag
                          37 --		-I../source/wrappers/rba_BswSrv -I../source/SwcServiceSchM
                          38 --		-I../source/wrappers/SwcServiceComM/Integration
                          39 --		-I../source/wrappers/SwcServicePduR/Integration
                          40 --		-I../source/wrappers/EcuabCanIf/Integration
                          41 --		-I../source/wrappers/SwcServiceCom/Integration
                          42 --		-I../source/wrappers/SwcServiceCanTp/Integration
                          43 --		-I../source/wrappers/SwcServiceEcuM/Integration
                          44 --		-I../source/SwcServiceDet/Integration
                          45 --		-I../source/wrappers/SwcServiceDcm/Integration
                          46 --		-I../source/wrappers/SwcServiceDem/Integration
                          47 --		-I../source/SwcServiceFiM/Integration
                          48 --		-I../source/wrappers/EcuabCanIf/api
                          49 --		-I../source/wrappers/SwcServiceCom/api
                          50 --		-I../source/wrappers/SwcServiceComM/api

                                                                      Page 2
                                                              C:\Users\nhuliyap\AppData\Local\Temp\gh_0000d941.s
                          51 --		-I../source/wrappers/SwcServicePduR/api
                          52 --		-I../source/wrappers/Bfx/api -I../source/SwcServiceDet/api
                          53 --		-I../source/SwcServiceFiM/api
                          54 --		-I../source/wrappers/LibAutosarDiag/api
                          55 --		-I../source/wrappers/rba_BswSrv/api -object_dir=output/objects
                          56 --		-list_dir=output/list
                          57 --Source File:   ../source/McalFls/r_fdl_user_if.c
                          58 --Directory:     
                          59 --		C:\_ECU2\ECU_Rivian_A1\Target\repo_projects\pRealEcu\cL_R2023.09.01\make
                          60 --Compile Date:  Wed Sep 06 08:59:09 2023
                          61 --Host OS:       Win32
                          62 --Version:       C-RH850 2015.1.7 RELEASE VERSION
                          63 --Release:       Compiler v2015.1.7
                          64 --Revision Date: Thu Oct 22 08:06:12 2015
                          65 --Release Date:  Thu Oct 22 09:34:32 2015
                          66 -- ecom  -g -w -OM
                          67 	.text
                          68 ..bof.C.3A.5C_ECU2.5CECU_Rivian_A1.5CTarget.5Crepo_projects.5CpRealEcu.5CcL_R2023.2E09.2E01.5Cmake.5Coutput.5Cobjects.5Cr_fdl_user_if...43.3A.5C_ECU2.5CECU_Rivian_A1.5CTarget.5Crepo_projects.5CpRealEcu.5CcL_R2023.2E09.2E01.5Cmake..64F8233D..0::
                          69 ..gh.beginasm.0:
                          70 	.type	..gh.beginasm.0,@object
                          71 	.size	..gh.beginasm.0,0
                          72 
                          73 
                          74 
                          75 
                          76 
                          77 
                          78 
                          79     .set  regframe, 21
                          80 
                          81 
                          82     .set  framesize, regframe*4
                          83 
                          84 ..gh.endasm.1:
                          85 	.type	..gh.endasm.1,@object
                          86 	.size	..gh.endasm.1,0
                          87 	.text
                          88 	.align	2
                          89 ..gh.f.f.1.e.2:
                          90 	.type	..gh.f.f.1.e.2,@object
                          91 	.size	..gh.f.f.1.e.2,0
                          92 	.global	_R_FDL_InitVariables
                          93 _R_FDL_InitVariables:
00000000 8007e130         94 	prepare	{r26,r27,r28,r29,r31},0
00000004 06d0             95 	mov	r6,r26
                          96 --	    .bf
                          97 .LDW01:
00000006 3d0600000000*    98 	mov	_g_fdl_str,r29
0000000c 1dd8             99 	mov	r29,r27
                         100 --line48
                         101 ..lin.C.3A.5C_ECU2.5CECU_Rivian_A1.5CTarget.5Crepo_projects.5CpRealEcu.5CcL_R2023.2E09.2E01.5Cmake.5Coutput.5Cobjects.5Cr_fdl_user_if.1::
                         102 .LDWlin1:
0000000e 20e65400        103 	movea	84,zero,r28
                         104 .L54:
00000012 1b30            105 	mov	r27,r6
00000014 003a            106 	mov	0,r7
                         107 	jarl	_R_FDL_IFct_WriteMemoryU08,lp
                         107 <EXPANSION BEGIN>
                         107 jarl22 _R_FDL_IFct_WriteMemoryU08 , lp 
00000016 80ff0000*       107 <EXPANSION END>
                         108 --line51

                                                                      Page 3
                                                              C:\Users\nhuliyap\AppData\Local\Temp\gh_0000d941.s
                         109 ..lin.C.3A.5C_ECU2.5CECU_Rivian_A1.5CTarget.5Crepo_projects.5CpRealEcu.5CcL_R2023.2E09.2E01.5Cmake.5Coutput.5Cobjects.5Cr_fdl_user_if.2::
                         110 .LDWlin2:
0000001a 41da            111 	add	1,r27
0000001c fc060b00*       112 	loop	r28,.L54
                         113 --line54
                         114 ..lin.C.3A.5C_ECU2.5CECU_Rivian_A1.5CTarget.5Crepo_projects.5CpRealEcu.5CcL_R2023.2E09.2E01.5Cmake.5Coutput.5Cobjects.5Cr_fdl_user_if.3::
                         115 .LDWlin3:
00000020 7d075100        116 	st.w	zero,80[r29]
00000024 e0d1            117 	cmp	zero,r26
00000026 a21d*           118 	be	.L7
                         119 --line60
                         120 ..lin.C.3A.5C_ECU2.5CECU_Rivian_A1.5CTarget.5Crepo_projects.5CpRealEcu.5CcL_R2023.2E09.2E01.5Cmake.5Coutput.5Cobjects.5Cr_fdl_user_if.4::
                         121 .LDWlin4:
00000028 1df0            122 	mov	r29,ep
0000002a 01d5            123 	sst.w	r26,0[ep]
0000002c 1305            124 	sst.w	zero,36[ep]
0000002e 1505            125 	sst.w	zero,40[ep]
00000030 c803            126 	sst.b	zero,72[ep]
00000032 c903            127 	sst.b	zero,73[ep]
00000034 ca03            128 	sst.b	zero,74[ep]
00000036 a204            129 	sst.h	zero,68[ep]
00000038 ac03            130 	sst.b	zero,44[ep]
0000003a 1af0            131 	mov	r26,ep
0000003c 7190            132 	sld.hu	2[ep],r18
0000003e e091            133 	cmp	zero,r18
00000040 d20d*           134 	be	.L7
                         135 --line75
                         136 ..lin.C.3A.5C_ECU2.5CECU_Rivian_A1.5CTarget.5Crepo_projects.5CpRealEcu.5CcL_R2023.2E09.2E01.5Cmake.5Coutput.5Cobjects.5Cr_fdl_user_if.5::
                         137 .LDWlin5:
00000042 7388            138 	sld.hu	6[ep],r17
00000044 7248            139 	sld.hu	4[ep],r9
00000046 12860100        140 	addi	1,r18,r16
0000004a c989            141 	add	r9,r17
0000004c d100            142 	zxh	r17
0000004e f089            143 	cmp	r16,r17
00000050 e3e71253        144 	cmovnl	3,r28,r10
00000054 e105*           145 	bl	.L16
                         146 --	    .ef
                         147 .LDW11:
                         148 --line75
                         149 ..lin.C.3A.5C_ECU2.5CECU_Rivian_A1.5CTarget.5Crepo_projects.5CpRealEcu.5CcL_R2023.2E09.2E01.5Cmake.5Coutput.5Cobjects.5Cr_fdl_user_if.6::
                         150 .LDWlin6:
00000056 4006ff30        151 	dispose	0,{r26,r27,r28,r29,r31},[lp]
                         152 .L7:
                         153 --line85
                         154 ..lin.C.3A.5C_ECU2.5CECU_Rivian_A1.5CTarget.5Crepo_projects.5CpRealEcu.5CcL_R2023.2E09.2E01.5Cmake.5Coutput.5Cobjects.5Cr_fdl_user_if.7::
                         155 .LDWlin7:
0000005a 0352            156 	mov	3,r10
0000005c 4006ff30        157 	dispose	0,{r26,r27,r28,r29,r31},[lp]
                         158 .L16:
                         159 --line91
                         160 ..lin.C.3A.5C_ECU2.5CECU_Rivian_A1.5CTarget.5Crepo_projects.5CpRealEcu.5CcL_R2023.2E09.2E01.5Cmake.5Coutput.5Cobjects.5Cr_fdl_user_if.8::
                         161 .LDWlin8:
00000060 2f0654555555    162 	mov	1431655764,r15
00000066 7d7f5100        163 	st.w	r15,80[r29]
                         164 --line94
                         165 ..lin.C.3A.5C_ECU2.5CECU_Rivian_A1.5CTarget.5Crepo_projects.5CpRealEcu.5CcL_R2023.2E09.2E01.5Cmake.5Coutput.5Cobjects.5Cr_fdl_user_if.9::
                         166 .LDWlin9:
0000006a 4006ff30        167 	dispose	0,{r26,r27,r28,r29,r31},[lp]
                         168 	.global	___ghs_eofn_R_FDL_InitVariables
                         169 ___ghs_eofn_R_FDL_InitVariables:

                                                                      Page 4
                                                              C:\Users\nhuliyap\AppData\Local\Temp\gh_0000d941.s
                         170 	.type	_R_FDL_InitVariables,@function
                         171 	.size	_R_FDL_InitVariables,.-_R_FDL_InitVariables
                         172 	.align	2
                         173 --_ret	r10	local
                         174 --_fdAdd	r27	local
                         175 
                         176 --_descriptor_pstr	r26	param
                         177 
                         178 	.section ".bss","awb"
                         179 .L215:
                         180 	.type	.L215,@object
                         181 	.size	.L215,0
                         182 	.data
                         183 	.text
                         184 	.align	2
                         185 	.align	2
                         186 ..gh.f.f.1.e.3:
                         187 	.type	..gh.f.f.1.e.3,@object
                         188 	.size	..gh.f.f.1.e.3,0
                         189 	.global	_R_FDL_UFct_FlashOpStart..C.3A.5C_ECU2.5CECU_Rivian_A1.5CTarget.5Crepo_projects.5CpRealEcu.5CcL_R2023.2E09.2E01.5Cmake.5Coutput.5Cobjects.5Cr_fdl_user_if.
                         190 _R_FDL_UFct_FlashOpStart..C.3A.5C_ECU2.5CECU_Rivian_A1.5CTarget.5Crepo_projects.5CpRealEcu.5CcL_R2023.2E09.2E01.5Cmake.5Coutput.5Cobjects.5Cr_fdl_user_if.:
                         191 _R_FDL_UFct_FlashOpStart:
0000006e 8407e1ff        192 	prepare	{r20,r21,r22,r23,r24,r25,r26,r27,r28,r29,r31},2
00000072 08a0            193 	mov	r8,r20
00000074 06d8            194 	mov	r6,r27
00000076 07e0            195 	mov	r7,r28
00000078 b400            196 	sxb	r20
                         197 --	    .bf
                         198 .LDW21:
0000007a 06f0            199 	mov	r6,ep
0000007c 043d            200 	sld.w	8[ep],r7
0000007e 76e8            201 	sld.hu	12[ep],r29
00000080 00cb            202 	sld.b	0[ep],r25
00000082 0ebb            203 	sld.b	14[ep],r23
00000084 02d5            204 	sld.w	4[ep],r26
00000086 01c2            205 	mov	1,r24
00000088 633f0100        206 	st.w	r7,0[sp]
0000008c 5cc70000        207 	st.b	r24,0[r28]
00000090 e0c9            208 	cmp	zero,r25
00000092 ca0d*           209 	bne	.L299
                         210 --line935
                         211 ..lin.C.3A.5C_ECU2.5CECU_Rivian_A1.5CTarget.5Crepo_projects.5CpRealEcu.5CcL_R2023.2E09.2E01.5Cmake.5Coutput.5Cobjects.5Cr_fdl_user_if.10::
                         212 .LDWlin10:
00000094 c63a            213 	shl	6,r7
00000096 03f0            214 	mov	sp,ep
00000098 20464000        215 	movea	64,zero,r8
0000009c 013d            216 	sst.w	r7,0[ep]
0000009e c6ea            217 	shl	6,r29
000000a0 0345            218 	sst.w	r8,4[ep]
000000a2 18d0            219 	mov	r24,r26
000000a4 20b62000        220 	movea	32,zero,r22
000000a8 951d*           221 	br	.L301
                         222 .L299:
                         223 --line944
                         224 ..lin.C.3A.5C_ECU2.5CECU_Rivian_A1.5CTarget.5Crepo_projects.5CpRealEcu.5CcL_R2023.2E09.2E01.5Cmake.5Coutput.5Cobjects.5Cr_fdl_user_if.11::
                         225 .LDWlin11:
000000aa c2ea            226 	shl	2,r29
000000ac 62ca            227 	cmp	2,r25
000000ae ba0d*           228 	bne	.L302
                         229 --line947
                         230 ..lin.C.3A.5C_ECU2.5CECU_Rivian_A1.5CTarget.5Crepo_projects.5CpRealEcu.5CcL_R2023.2E09.2E01.5Cmake.5Coutput.5Cobjects.5Cr_fdl_user_if.12::

                                                                      Page 5
                                                              C:\Users\nhuliyap\AppData\Local\Temp\gh_0000d941.s
                         231 .LDWlin12:
000000b0 63ef0500        232 	st.w	r29,4[sp]
000000b4 23360400        233 	movea	4,sp,r6
                         234 	jarl	_R_FDL_IFct_CalcFOpUnitCnt_BC,lp
                         234 <EXPANSION BEGIN>
                         234 jarl22 _R_FDL_IFct_CalcFOpUnitCnt_BC , lp 
000000b8 80ff0000*       234 <EXPANSION END>
                         235 --line951
                         236 ..lin.C.3A.5C_ECU2.5CECU_Rivian_A1.5CTarget.5Crepo_projects.5CpRealEcu.5CcL_R2023.2E09.2E01.5Cmake.5Coutput.5Cobjects.5Cr_fdl_user_if.13::
                         237 .LDWlin13:
000000bc 18d0            238 	mov	r24,r26
000000be 20b67100        239 	movea	113,zero,r22
000000c2 c50d*           240 	br	.L301
                         241 .L302:
                         242 --line955
                         243 ..lin.C.3A.5C_ECU2.5CECU_Rivian_A1.5CTarget.5Crepo_projects.5CpRealEcu.5CcL_R2023.2E09.2E01.5Cmake.5Coutput.5Cobjects.5Cr_fdl_user_if.14::
                         244 .LDWlin14:
000000c4 61ca            245 	cmp	1,r25
000000c6 fa05*           246 	bne	.L305
                         247 --line958
                         248 ..lin.C.3A.5C_ECU2.5CECU_Rivian_A1.5CTarget.5Crepo_projects.5CpRealEcu.5CcL_R2023.2E09.2E01.5Cmake.5Coutput.5Cobjects.5Cr_fdl_user_if.15::
                         249 .LDWlin15:
000000c8 043a            250 	mov	4,r7
000000ca 633f0500        251 	st.w	r7,4[sp]
000000ce 20b6e800        252 	movea	232,zero,r22
000000d2 c505*           253 	br	.L301
                         254 .L305:
                         255 --line978
                         256 ..lin.C.3A.5C_ECU2.5CECU_Rivian_A1.5CTarget.5Crepo_projects.5CpRealEcu.5CcL_R2023.2E09.2E01.5Cmake.5Coutput.5Cobjects.5Cr_fdl_user_if.16::
                         257 .LDWlin16:
000000d4 63ef0500        258 	st.w	r29,4[sp]
000000d8 00b2            259 	mov	0,r22
                         260 .L301:
000000da 03f0            261 	mov	sp,ep
000000dc 003d            262 	sld.w	0[ep],r7
000000de 0235            263 	sld.w	4[ep],r6
000000e0 c731            264 	add	r7,r6
000000e2 06aeffff        265 	addi	-1,r6,r21
000000e6 61a2            266 	cmp	1,r20
000000e8 da0d*           267 	bne	.L308
                         268 --line987
                         269 ..lin.C.3A.5C_ECU2.5CECU_Rivian_A1.5CTarget.5Crepo_projects.5CpRealEcu.5CcL_R2023.2E09.2E01.5Cmake.5Coutput.5Cobjects.5Cr_fdl_user_if.17::
                         270 .LDWlin17:
000000ea 0452            271 	mov	4,r10
000000ec e0d1            272 	cmp	zero,r26
000000ee f205*           273 	be	.L312
                         274 --line992
                         275 ..lin.C.3A.5C_ECU2.5CECU_Rivian_A1.5CTarget.5Crepo_projects.5CpRealEcu.5CcL_R2023.2E09.2E01.5Cmake.5Coutput.5Cobjects.5Cr_fdl_user_if.18::
                         276 .LDWlin18:
000000f0 0730            277 	mov	r7,r6
000000f2 1d38            278 	mov	r29,r7
000000f4 1740            279 	mov	r23,r8
000000f6 0a48            280 	mov	r10,r9
                         281 	jarl	_R_FDL_IFct_ChkAccessBoundaries,lp
                         281 <EXPANSION BEGIN>
                         281 jarl22 _R_FDL_IFct_ChkAccessBoundaries , lp 
000000f8 80ff0000*       281 <EXPANSION END>
                         282 .L312:
                         283 --line995
                         284 ..lin.C.3A.5C_ECU2.5CECU_Rivian_A1.5CTarget.5Crepo_projects.5CpRealEcu.5CcL_R2023.2E09.2E01.5Cmake.5Coutput.5Cobjects.5Cr_fdl_user_if.19::
                         285 .LDWlin19:

                                                                      Page 6
                                                              C:\Users\nhuliyap\AppData\Local\Temp\gh_0000d941.s
000000fc 5c570000        286 	st.b	r10,0[r28]
00000100 00c2            287 	mov	0,r24
                         288 .L308:
00000102 1c370000        289 	ld.b	0[r28],r6
00000106 6132            290 	cmp	1,r6
00000108 ea6d*           291 	bne	.L313
                         292 --line1001
                         293 ..lin.C.3A.5C_ECU2.5CECU_Rivian_A1.5CTarget.5Crepo_projects.5CpRealEcu.5CcL_R2023.2E09.2E01.5Cmake.5Coutput.5Cobjects.5Cr_fdl_user_if.20::
                         294 .LDWlin20:
0000010a 63ca            295 	cmp	3,r25
0000010c da15*           296 	bne	.L315
                         297 --line1004
                         298 ..lin.C.3A.5C_ECU2.5CECU_Rivian_A1.5CTarget.5Crepo_projects.5CpRealEcu.5CcL_R2023.2E09.2E01.5Cmake.5Coutput.5Cobjects.5Cr_fdl_user_if.21::
                         299 .LDWlin21:
0000010e da060300        300 	andi	3,r26,zero
00000112 ea0d*           301 	bne	.L317
                         302 --line1006
                         303 ..lin.C.3A.5C_ECU2.5CECU_Rivian_A1.5CTarget.5Crepo_projects.5CpRealEcu.5CcL_R2023.2E09.2E01.5Cmake.5Coutput.5Cobjects.5Cr_fdl_user_if.22::
                         304 .LDWlin22:
00000114 1d40            305 	mov	r29,r8
00000116 0330            306 	mov	sp,r6
00000118 1a38            307 	mov	r26,r7
0000011a 8242            308 	shr	2,r8
                         309 	jarl	_R_FDL_FCUFct_ReadOperation,lp
                         309 <EXPANSION BEGIN>
                         309 jarl22 _R_FDL_FCUFct_ReadOperation , lp 
0000011c 80ff0000*       309 <EXPANSION END>
                         310 --line1009
                         311 ..lin.C.3A.5C_ECU2.5CECU_Rivian_A1.5CTarget.5Crepo_projects.5CpRealEcu.5CcL_R2023.2E09.2E01.5Cmake.5Coutput.5Cobjects.5Cr_fdl_user_if.23::
                         312 .LDWlin23:
00000120 23970100        313 	ld.w	0[sp],r18
00000124 5c570000        314 	st.b	r10,0[r28]
00000128 7b970900        315 	st.w	r18,8[r27]
0000012c c55d*           316 	br	.L313
                         317 .L317:
                         318 --line1012
                         319 ..lin.C.3A.5C_ECU2.5CECU_Rivian_A1.5CTarget.5Crepo_projects.5CpRealEcu.5CcL_R2023.2E09.2E01.5Cmake.5Coutput.5Cobjects.5Cr_fdl_user_if.24::
                         320 .LDWlin24:
0000012e 048a            321 	mov	4,r17
00000130 5c8f0000        322 	st.b	r17,0[r28]
00000134 855d*           323 	br	.L313
                         324 .L315:
                         325 --line1016
                         326 ..lin.C.3A.5C_ECU2.5CECU_Rivian_A1.5CTarget.5Crepo_projects.5CpRealEcu.5CcL_R2023.2E09.2E01.5Cmake.5Coutput.5Cobjects.5Cr_fdl_user_if.25::
                         327 .LDWlin25:
00000136 3b0600000000*   328 	mov	_g_fdl_str,r27
0000013c 61a2            329 	cmp	1,r20
0000013e ba15*           330 	bne	.L321
                         331 --line1018
                         332 ..lin.C.3A.5C_ECU2.5CECU_Rivian_A1.5CTarget.5Crepo_projects.5CpRealEcu.5CcL_R2023.2E09.2E01.5Cmake.5Coutput.5Cobjects.5Cr_fdl_user_if.26::
                         333 .LDWlin26:
00000140 20368000        334 	movea	128,zero,r6
                         335 	jarl	_R_FDL_FCUFct_SwitchMode_Start,lp
                         335 <EXPANSION BEGIN>
                         335 jarl22 _R_FDL_FCUFct_SwitchMode_Start , lp 
00000144 80ff0000*       335 <EXPANSION END>
00000148 5c570000        336 	st.b	r10,0[r28]
                         337 --line1019
                         338 ..lin.C.3A.5C_ECU2.5CECU_Rivian_A1.5CTarget.5Crepo_projects.5CpRealEcu.5CcL_R2023.2E09.2E01.5Cmake.5Coutput.5Cobjects.5Cr_fdl_user_if.27::
                         339 .LDWlin27:
0000014c e051            340 	cmp	zero,r10

                                                                      Page 7
                                                              C:\Users\nhuliyap\AppData\Local\Temp\gh_0000d941.s
0000014e ba0d*           341 	bne	.L321
                         342 --line1021
                         343 ..lin.C.3A.5C_ECU2.5CECU_Rivian_A1.5CTarget.5Crepo_projects.5CpRealEcu.5CcL_R2023.2E09.2E01.5Cmake.5Coutput.5Cobjects.5Cr_fdl_user_if.28::
                         344 .LDWlin28:
                         345 	jarl	_R_FDL_FCUFct_SwitchMode_Check,lp
                         345 <EXPANSION BEGIN>
                         345 jarl22 _R_FDL_FCUFct_SwitchMode_Check , lp 
00000150 80ff0000*       345 <EXPANSION END>
                         346 --line1022
                         347 ..lin.C.3A.5C_ECU2.5CECU_Rivian_A1.5CTarget.5Crepo_projects.5CpRealEcu.5CcL_R2023.2E09.2E01.5Cmake.5Coutput.5Cobjects.5Cr_fdl_user_if.29::
                         348 .LDWlin29:
00000154 e051            349 	cmp	zero,r10
00000156 5c570000        350 	st.b	r10,0[r28]
0000015a e1c704c3        351 	cmove	1,r24,r24
0000015e d205*           352 	be	.L329
                         353 --line1028
                         354 ..lin.C.3A.5C_ECU2.5CECU_Rivian_A1.5CTarget.5Crepo_projects.5CpRealEcu.5CcL_R2023.2E09.2E01.5Cmake.5Coutput.5Cobjects.5Cr_fdl_user_if.30::
                         355 .LDWlin30:
00000160 5ba72c00        356 	st.b	r20,44[r27]
                         357 .L321:
00000164 61c2            358 	cmp	1,r24
00000166 fa3d*           359 	bne	.L313
                         360 .L329:
                         361 --line1035
                         362 ..lin.C.3A.5C_ECU2.5CECU_Rivian_A1.5CTarget.5Crepo_projects.5CpRealEcu.5CcL_R2023.2E09.2E01.5Cmake.5Coutput.5Cobjects.5Cr_fdl_user_if.31::
                         363 .LDWlin31:
00000168 e0c9            364 	cmp	zero,r25
0000016a b205*           365 	be	.L331
0000016c 62ca            366 	cmp	2,r25
0000016e ba0d*           367 	bne	.L330
                         368 .L331:
                         369 --line1037
                         370 ..lin.C.3A.5C_ECU2.5CECU_Rivian_A1.5CTarget.5Crepo_projects.5CpRealEcu.5CcL_R2023.2E09.2E01.5Cmake.5Coutput.5Cobjects.5Cr_fdl_user_if.32::
                         371 .LDWlin32:
00000170 23370100        372 	ld.w	0[sp],r6
00000174 1538            373 	mov	r21,r7
00000176 1640            374 	mov	r22,r8
00000178 1748            375 	mov	r23,r9
                         376 	jarl	_R_FDL_FCUFct_StartBCEraseOperation,lp
                         376 <EXPANSION BEGIN>
                         376 jarl22 _R_FDL_FCUFct_StartBCEraseOperation , lp 
0000017a 80ff0000*       376 <EXPANSION END>
0000017e 5c570000        377 	st.b	r10,0[r28]
00000182 f50d*           378 	br	.L333
                         379 .L330:
                         380 --line1040
                         381 ..lin.C.3A.5C_ECU2.5CECU_Rivian_A1.5CTarget.5Crepo_projects.5CpRealEcu.5CcL_R2023.2E09.2E01.5Cmake.5Coutput.5Cobjects.5Cr_fdl_user_if.33::
                         382 .LDWlin33:
00000184 03f0            383 	mov	sp,ep
00000186 003d            384 	sld.w	0[ep],r7
00000188 0245            385 	sld.w	4[ep],r8
0000018a 1a30            386 	mov	r26,r6
0000018c 1748            387 	mov	r23,r9
                         388 	jarl	_R_FDL_FCUFct_StartWriteOperation,lp
                         388 <EXPANSION BEGIN>
                         388 jarl22 _R_FDL_FCUFct_StartWriteOperation , lp 
0000018e 80ff0000*       388 <EXPANSION END>
                         389 --line1042
                         390 ..lin.C.3A.5C_ECU2.5CECU_Rivian_A1.5CTarget.5Crepo_projects.5CpRealEcu.5CcL_R2023.2E09.2E01.5Cmake.5Coutput.5Cobjects.5Cr_fdl_user_if.34::
                         391 .LDWlin34:
00000192 239f0500        392 	ld.w	4[sp],r19

                                                                      Page 8
                                                              C:\Users\nhuliyap\AppData\Local\Temp\gh_0000d941.s
00000196 5c570000        393 	st.b	r10,0[r28]
0000019a da99            394 	add	r26,r19
0000019c 7b9f0900        395 	st.w	r19,8[r27]
                         396 .L333:
000001a0 1c7f0000        397 	ld.b	0[r28],r15
000001a4 617a            398 	cmp	1,r15
000001a6 fa0d*           399 	bne	.L334
                         400 --line1050
                         401 ..lin.C.3A.5C_ECU2.5CECU_Rivian_A1.5CTarget.5Crepo_projects.5CpRealEcu.5CcL_R2023.2E09.2E01.5Cmake.5Coutput.5Cobjects.5Cr_fdl_user_if.35::
                         402 .LDWlin35:
000001a8 23670100        403 	ld.w	0[sp],r12
000001ac 156e0100        404 	addi	1,r21,r13
000001b0 0772            405 	mov	7,r14
000001b2 1bf0            406 	mov	r27,ep
000001b4 cce9            407 	add	r12,r29
000001b6 1d5effff        408 	addi	-1,r29,r11
000001ba ac73            409 	sst.b	r14,44[ep]
000001bc 036d            410 	sst.w	r13,4[ep]
000001be 075d            411 	sst.w	r11,12[ep]
000001c0 90bb            412 	sst.b	r23,16[ep]
000001c2 9515*           413 	br	.L313
                         414 .L334:
                         415 --line1054
                         416 ..lin.C.3A.5C_ECU2.5CECU_Rivian_A1.5CTarget.5Crepo_projects.5CpRealEcu.5CcL_R2023.2E09.2E01.5Cmake.5Coutput.5Cobjects.5Cr_fdl_user_if.36::
                         417 .LDWlin36:
000001c4 0032            418 	mov	0,r6
                         419 	jarl	_R_FDL_FCUFct_SwitchMode_Start,lp
                         419 <EXPANSION BEGIN>
                         419 jarl22 _R_FDL_FCUFct_SwitchMode_Start , lp 
000001c6 80ff0000*       419 <EXPANSION END>
                         420 --line1055
                         421 ..lin.C.3A.5C_ECU2.5CECU_Rivian_A1.5CTarget.5Crepo_projects.5CpRealEcu.5CcL_R2023.2E09.2E01.5Cmake.5Coutput.5Cobjects.5Cr_fdl_user_if.37::
                         422 .LDWlin37:
                         423 	jarl	_R_FDL_FCUFct_SwitchMode_Check,lp
                         423 <EXPANSION BEGIN>
                         423 jarl22 _R_FDL_FCUFct_SwitchMode_Check , lp 
000001ca 80ff0000*       423 <EXPANSION END>
000001ce 6152            424 	cmp	1,r10
000001d0 aa0d*           425 	bne	.L313
                         426 --line1058
                         427 ..lin.C.3A.5C_ECU2.5CECU_Rivian_A1.5CTarget.5Crepo_projects.5CpRealEcu.5CcL_R2023.2E09.2E01.5Cmake.5Coutput.5Cobjects.5Cr_fdl_user_if.38::
                         428 .LDWlin38:
000001d2 1cf0            429 	mov	r28,ep
000001d4 004b            430 	sld.b	0[ep],r9
000001d6 0942            431 	mov	9,r8
000001d8 5b472c00        432 	st.b	r8,44[r27]
000001dc 00c2            433 	mov	0,r24
000001de 5b4f4700        434 	st.b	r9,71[r27]
000001e2 8053            435 	sst.b	r10,0[ep]
                         436 .L313:
000001e4 1850            437 	mov	r24,r10
                         438 --	    .ef
                         439 .LDW31:
000001e6 4406ffff        440 	dispose	2,{r20,r21,r22,r23,r24,r25,r26,r27,r28,r29,r31},[lp]
                         441 ___ghs_eofn_R_FDL_UFct_FlashOpStart:
                         442 	.type	_R_FDL_UFct_FlashOpStart,@function
                         443 	.size	_R_FDL_UFct_FlashOpStart,.-_R_FDL_UFct_FlashOpStart
                         444 	.type	_R_FDL_UFct_FlashOpStart..C.3A.5C_ECU2.5CECU_Rivian_A1.5CTarget.5Crepo_projects.5CpRealEcu.5CcL_R2023.2E09.2E01.5Cmake.5Coutput.5Cobjects.5Cr_fdl_user_if.,@function
                         445 	.size	_R_FDL_UFct_FlashOpStart..C.3A.5C_ECU2.5CECU_Rivian_A1.5CTarget.5Crepo_projects.5CpRealEcu.5CcL_R2023.2E09.2E01.5Cmake.5Coutput.5Cobjects.5Cr_fdl_user_if.,.-_R_FDL_UFct_FlashOpStart..C.3A.5C_ECU2.5CECU_Rivian_A1.5CTarget.5Crepo_projects.5CpRealEcu.5CcL_R2023.2E09.2E01.5Cmake.5Coutput.5Cobjects.5Cr_fdl_user_if.
                         446 	.align	2
                         447 --_addFlash	0[sp]	local

                                                                      Page 9
                                                              C:\Users\nhuliyap\AppData\Local\Temp\gh_0000d941.s
                         448 --_cntTotal	r29	local
                         449 --_addBuf	r26	local
                         450 --_cntCurOp	4[sp]	local
                         451 --_addEndCurOp	r21	local
                         452 --_cmd	r25	local
                         453 --_accType	r23	local
                         454 --_cont	r24	local
                         455 --_fcuCmd	r22	local
                         456 
                         457 --_request_pstr	r27	param
                         458 --_tmpStat_penu	r28	param
                         459 --_isCalledFromExecute_enu	r20	param
                         460 
                         461 	.section ".bss","awb"
                         462 .L591:
                         463 	.type	.L591,@object
                         464 	.size	.L591,0
                         465 	.data
                         466 	.text
                         467 	.align	2
                         468 	.align	2
                         469 ..gh.f.f.1.e.4:
                         470 	.type	..gh.f.f.1.e.4,@object
                         471 	.size	..gh.f.f.1.e.4,0
                         472 	.global	_R_FDL_Execute
                         473 _R_FDL_Execute:
000001ea 8207e100        474 	prepare	{r28,r29,r31},1
000001ee 06e8            475 	mov	r6,r29
                         476 --	    .bf
                         477 .LDW41:
000001f0 0692            478 	mov	6,r18
000001f2 43970300        479 	st.b	r18,3[sp]
000001f6 e031            480 	cmp	zero,r6
000001f8 d24d*           481 	be	.L875
                         482 --line109
                         483 ..lin.C.3A.5C_ECU2.5CECU_Rivian_A1.5CTarget.5Crepo_projects.5CpRealEcu.5CcL_R2023.2E09.2E01.5Cmake.5Coutput.5Cobjects.5Cr_fdl_user_if.39::
                         484 .LDWlin39:
000001fa 3c0600000000*   485 	mov	_g_fdl_str,r28
00000200 3c8f2900        486 	ld.w	40[r28],r17
00000204 e089            487 	cmp	zero,r17
00000206 da2d*           488 	bne	.L908
                         489 --line111
                         490 ..lin.C.3A.5C_ECU2.5CECU_Rivian_A1.5CTarget.5Crepo_projects.5CpRealEcu.5CcL_R2023.2E09.2E01.5Cmake.5Coutput.5Cobjects.5Cr_fdl_user_if.40::
                         491 .LDWlin40:
00000208 3c875100        492 	ld.w	80[r28],r16
0000020c 310654555555    493 	mov	1431655764,r17
00000212 f181            494 	cmp	r17,r16
00000214 9a15*           495 	bne	.L881
                         496 --line113
                         497 ..lin.C.3A.5C_ECU2.5CECU_Rivian_A1.5CTarget.5Crepo_projects.5CpRealEcu.5CcL_R2023.2E09.2E01.5Cmake.5Coutput.5Cobjects.5Cr_fdl_user_if.41::
                         498 .LDWlin41:
00000216 06870000        499 	ld.b	0[r6],r16
0000021a 6582            500 	cmp	5,r16
0000021c aa25*           501 	bne	.L908
                         502 --line115
                         503 ..lin.C.3A.5C_ECU2.5CECU_Rivian_A1.5CTarget.5Crepo_projects.5CpRealEcu.5CcL_R2023.2E09.2E01.5Cmake.5Coutput.5Cobjects.5Cr_fdl_user_if.42::
                         504 .LDWlin42:
0000021e 20368000        505 	movea	128,zero,r6
                         506 	jarl	_R_FDL_FCUFct_SwitchMode_Start,lp
                         506 <EXPANSION BEGIN>
                         506 jarl22 _R_FDL_FCUFct_SwitchMode_Start , lp 

                                                                      Page 10
                                                              C:\Users\nhuliyap\AppData\Local\Temp\gh_0000d941.s
00000222 80ff0000*       506 <EXPANSION END>
00000226 43570300        507 	st.b	r10,3[sp]
                         508 --line116
                         509 ..lin.C.3A.5C_ECU2.5CECU_Rivian_A1.5CTarget.5Crepo_projects.5CpRealEcu.5CcL_R2023.2E09.2E01.5Cmake.5Coutput.5Cobjects.5Cr_fdl_user_if.43::
                         510 .LDWlin43:
0000022a e051            511 	cmp	zero,r10
0000022c ba2d*           512 	bne	.L879
                         513 --line118
                         514 ..lin.C.3A.5C_ECU2.5CECU_Rivian_A1.5CTarget.5Crepo_projects.5CpRealEcu.5CcL_R2023.2E09.2E01.5Cmake.5Coutput.5Cobjects.5Cr_fdl_user_if.44::
                         515 .LDWlin44:
0000022e 0192            516 	mov	1,r18
00000230 5c972c00        517 	st.b	r18,44[r28]
00000234 b52d*           518 	br	.L909
                         519 .L881:
                         520 --line123
                         521 ..lin.C.3A.5C_ECU2.5CECU_Rivian_A1.5CTarget.5Crepo_projects.5CpRealEcu.5CcL_R2023.2E09.2E01.5Cmake.5Coutput.5Cobjects.5Cr_fdl_user_if.45::
                         522 .LDWlin45:
00000236 11760100        523 	addi	1,r17,r14
0000023a ee81            524 	cmp	r14,r16
0000023c 920d*           525 	be	.L889
0000023e 0e6e0200        526 	addi	2,r14,r13
00000242 ed81            527 	cmp	r13,r16
00000244 ea0d*           528 	bne	.L908
00000246 1c674800        529 	ld.b	72[r28],r12
0000024a e061            530 	cmp	zero,r12
0000024c aa0d*           531 	bne	.L908
                         532 .L889:
                         533 --line128
                         534 ..lin.C.3A.5C_ECU2.5CECU_Rivian_A1.5CTarget.5Crepo_projects.5CpRealEcu.5CcL_R2023.2E09.2E01.5Cmake.5Coutput.5Cobjects.5Cr_fdl_user_if.46::
                         535 .LDWlin46:
0000024e 067f0000        536 	ld.b	0[r6],r15
00000252 617a            537 	cmp	1,r15
00000254 b30d*           538 	bnh	.L897
00000256 637a            539 	cmp	3,r15
00000258 f30d*           540 	bnh	.L901
0000025a 657a            541 	cmp	5,r15
                         542 --line163
                         543 ..lin.C.3A.5C_ECU2.5CECU_Rivian_A1.5CTarget.5Crepo_projects.5CpRealEcu.5CcL_R2023.2E09.2E01.5Cmake.5Coutput.5Cobjects.5Cr_fdl_user_if.47::
                         544 .LDWlin47:
0000025c ea971493        545 	cmovne	10,r18,r18
                         546 .L908:
00000260 5d070e00        547 	st.b	zero,14[r29]
00000264 5c072c00        548 	st.b	zero,44[r28]
00000268 b515*           549 	br	.L910
                         550 .L897:
                         551 --line142
                         552 ..lin.C.3A.5C_ECU2.5CECU_Rivian_A1.5CTarget.5Crepo_projects.5CpRealEcu.5CcL_R2023.2E09.2E01.5Cmake.5Coutput.5Cobjects.5Cr_fdl_user_if.48::
                         553 .LDWlin48:
0000026a 06370000        554 	ld.b	0[r6],r6
                         555 	jarl	_R_FDL_FCUFct_ChkStartable,lp
                         555 <EXPANSION BEGIN>
                         555 jarl22 _R_FDL_FCUFct_ChkStartable , lp 
0000026e 80ff0000*       555 <EXPANSION END>
00000272 6152            556 	cmp	1,r10
00000274 fa05*           557 	bne	.L879
                         558 .L901:
                         559 --line151
                         560 ..lin.C.3A.5C_ECU2.5CECU_Rivian_A1.5CTarget.5Crepo_projects.5CpRealEcu.5CcL_R2023.2E09.2E01.5Cmake.5Coutput.5Cobjects.5Cr_fdl_user_if.49::
                         561 .LDWlin49:
00000276 1d30            562 	mov	r29,r6
00000278 233e0300        563 	movea	3,sp,r7

                                                                      Page 11
                                                              C:\Users\nhuliyap\AppData\Local\Temp\gh_0000d941.s
0000027c 0142            564 	mov	1,r8
                         565 	jarl	_R_FDL_UFct_FlashOpStart,lp
                         565 <EXPANSION BEGIN>
                         565 jarl22 _R_FDL_UFct_FlashOpStart , lp 
0000027e bffff0fd*       565 <EXPANSION END>
                         566 .L879:
                         567 --line173
                         568 ..lin.C.3A.5C_ECU2.5CECU_Rivian_A1.5CTarget.5Crepo_projects.5CpRealEcu.5CcL_R2023.2E09.2E01.5Cmake.5Coutput.5Cobjects.5Cr_fdl_user_if.50::
                         569 .LDWlin50:
00000282 03970300        570 	ld.b	3[sp],r18
00000286 6192            571 	cmp	1,r18
00000288 caed*           572 	bne	.L908
                         573 .L909:
                         574 --line176
                         575 ..lin.C.3A.5C_ECU2.5CECU_Rivian_A1.5CTarget.5Crepo_projects.5CpRealEcu.5CcL_R2023.2E09.2E01.5Cmake.5Coutput.5Cobjects.5Cr_fdl_user_if.51::
                         576 .LDWlin51:
0000028a 7cef2900        577 	st.w	r29,40[r28]
                         578 .L910:
0000028e 5d970f00        579 	st.b	r18,15[r29]
                         580 .L875:
                         581 --	    .ef
                         582 .LDW51:
00000292 4206ff00        583 	dispose	1,{r28,r29,r31},[lp]
                         584 	.global	___ghs_eofn_R_FDL_Execute
                         585 ___ghs_eofn_R_FDL_Execute:
                         586 	.type	_R_FDL_Execute,@function
                         587 	.size	_R_FDL_Execute,.-_R_FDL_Execute
                         588 	.align	2
                         589 --_reqErr	3[sp]	local
                         590 
                         591 --_request_pstr	r29	param
                         592 
                         593 	.section ".bss","awb"
                         594 .L1083:
                         595 	.type	.L1083,@object
                         596 	.size	.L1083,0
                         597 	.data
                         598 	.text
                         599 	.align	2
                         600 	.align	2
                         601 ..gh.f.f.1.e.5:
                         602 	.type	..gh.f.f.1.e.5,@object
                         603 	.size	..gh.f.f.1.e.5,0
                         604 	.global	_R_FDL_Handler_CancelReq..C.3A.5C_ECU2.5CECU_Rivian_A1.5CTarget.5Crepo_projects.5CpRealEcu.5CcL_R2023.2E09.2E01.5Cmake.5Coutput.5Cobjects.5Cr_fdl_user_if.
                         605 _R_FDL_Handler_CancelReq..C.3A.5C_ECU2.5CECU_Rivian_A1.5CTarget.5Crepo_projects.5CpRealEcu.5CcL_R2023.2E09.2E01.5Cmake.5Coutput.5Cobjects.5Cr_fdl_user_if.:
                         606 _R_FDL_Handler_CancelReq:
00000296 8007e130        607 	prepare	{r26,r27,r28,r29,r31},0
0000029a 06d0            608 	mov	r6,r26
                         609 --	    .bf
                         610 .LDW61:
0000029c 3d0600000000*   611 	mov	_g_fdl_str,r29
000002a2 1d8f4800        612 	ld.b	72[r29],r17
                         613 --line200
                         614 ..lin.C.3A.5C_ECU2.5CECU_Rivian_A1.5CTarget.5Crepo_projects.5CpRealEcu.5CcL_R2023.2E09.2E01.5Cmake.5Coutput.5Cobjects.5Cr_fdl_user_if.52::
                         615 .LDWlin52:
000002a6 01e2            616 	mov	1,r28
000002a8 618a            617 	cmp	1,r17
000002aa 8a2d*           618 	bne	.L1282
                         619 --line204
                         620 ..lin.C.3A.5C_ECU2.5CECU_Rivian_A1.5CTarget.5Crepo_projects.5CpRealEcu.5CcL_R2023.2E09.2E01.5Cmake.5Coutput.5Cobjects.5Cr_fdl_user_if.53::
                         621 .LDWlin53:

                                                                      Page 12
                                                              C:\Users\nhuliyap\AppData\Local\Temp\gh_0000d941.s
                         622 	jarl	_R_FDL_FCUFct_SwitchMode_Check,lp
                         622 <EXPANSION BEGIN>
                         622 jarl22 _R_FDL_FCUFct_SwitchMode_Check , lp 
000002ac 80ff0000*       622 <EXPANSION END>
000002b0 e051            623 	cmp	zero,r10
000002b2 ba25*           624 	bne	.L1284
                         625 --line206
                         626 ..lin.C.3A.5C_ECU2.5CECU_Rivian_A1.5CTarget.5Crepo_projects.5CpRealEcu.5CcL_R2023.2E09.2E01.5Cmake.5Coutput.5Cobjects.5Cr_fdl_user_if.54::
                         627 .LDWlin54:
000002b4 fd974500        628 	ld.hu	68[r29],r18
000002b8 0eda            629 	mov	14,r27
000002ba 120680ff        630 	addi	-128,r18,zero
000002be ba0d*           631 	bne	.L1286
                         632 --line208
                         633 ..lin.C.3A.5C_ECU2.5CECU_Rivian_A1.5CTarget.5Crepo_projects.5CpRealEcu.5CcL_R2023.2E09.2E01.5Cmake.5Coutput.5Cobjects.5Cr_fdl_user_if.55::
                         634 .LDWlin55:
                         635 	jarl	_R_FDL_FCUFct_ForcedStop,lp
                         635 <EXPANSION BEGIN>
                         635 jarl22 _R_FDL_FCUFct_ForcedStop , lp 
000002c0 80ff0000*       635 <EXPANSION END>
                         636 --line209
                         637 ..lin.C.3A.5C_ECU2.5CECU_Rivian_A1.5CTarget.5Crepo_projects.5CpRealEcu.5CcL_R2023.2E09.2E01.5Cmake.5Coutput.5Cobjects.5Cr_fdl_user_if.56::
                         638 .LDWlin56:
000002c4 0032            639 	mov	0,r6
                         640 	jarl	_R_FDL_FCUFct_SwitchMode_Start,lp
                         640 <EXPANSION BEGIN>
                         640 jarl22 _R_FDL_FCUFct_SwitchMode_Start , lp 
000002c6 80ff0000*       640 <EXPANSION END>
                         641 --line211
                         642 ..lin.C.3A.5C_ECU2.5CECU_Rivian_A1.5CTarget.5Crepo_projects.5CpRealEcu.5CcL_R2023.2E09.2E01.5Cmake.5Coutput.5Cobjects.5Cr_fdl_user_if.57::
                         643 .LDWlin57:
000002ca 094a            644 	mov	9,r9
000002cc 1df0            645 	mov	r29,ep
000002ce ac4b            646 	sst.b	r9,44[ep]
000002d0 c7db            647 	sst.b	r27,71[ep]
000002d2 c505*           648 	br	.L1288
                         649 .L1286:
                         650 --line215
                         651 ..lin.C.3A.5C_ECU2.5CECU_Rivian_A1.5CTarget.5Crepo_projects.5CpRealEcu.5CcL_R2023.2E09.2E01.5Cmake.5Coutput.5Cobjects.5Cr_fdl_user_if.58::
                         652 .LDWlin58:
000002d4 5adf0000        653 	st.b	r27,0[r26]
000002d8 0ae0            654 	mov	r10,r28
                         655 .L1288:
000002da 1df0            656 	mov	r29,ep
000002dc 280655555555    657 	mov	1431655765,r8
000002e2 c803            658 	sst.b	zero,72[ep]
                         659 --line220
                         660 ..lin.C.3A.5C_ECU2.5CECU_Rivian_A1.5CTarget.5Crepo_projects.5CpRealEcu.5CcL_R2023.2E09.2E01.5Cmake.5Coutput.5Cobjects.5Cr_fdl_user_if.59::
                         661 .LDWlin59:
000002e4 c903            662 	sst.b	zero,73[ep]
000002e6 ca03            663 	sst.b	zero,74[ep]
000002e8 2945            664 	sst.w	r8,80[ep]
000002ea 12f5            665 	sld.w	36[ep],ep
000002ec e0f1            666 	cmp	zero,ep
000002ee e205*           667 	be	.L1282
                         668 --line226
                         669 ..lin.C.3A.5C_ECU2.5CECU_Rivian_A1.5CTarget.5Crepo_projects.5CpRealEcu.5CcL_R2023.2E09.2E01.5Cmake.5Coutput.5Cobjects.5Cr_fdl_user_if.60::
                         670 .LDWlin60:
000002f0 8fdb            671 	sst.b	r27,15[ep]
000002f2 7d072500        672 	st.w	zero,36[r29]
000002f6 a505*           673 	br	.L1282

                                                                      Page 13
                                                              C:\Users\nhuliyap\AppData\Local\Temp\gh_0000d941.s
                         674 .L1284:
                         675 --line231
                         676 ..lin.C.3A.5C_ECU2.5CECU_Rivian_A1.5CTarget.5Crepo_projects.5CpRealEcu.5CcL_R2023.2E09.2E01.5Cmake.5Coutput.5Cobjects.5Cr_fdl_user_if.61::
                         677 .LDWlin61:
000002f8 00e2            678 	mov	0,r28
                         679 .L1282:
000002fa 1c50            680 	mov	r28,r10
                         681 --	    .ef
                         682 .LDW71:
000002fc 4006ff30        683 	dispose	0,{r26,r27,r28,r29,r31},[lp]
                         684 ___ghs_eofn_R_FDL_Handler_CancelReq:
                         685 	.type	_R_FDL_Handler_CancelReq,@function
                         686 	.size	_R_FDL_Handler_CancelReq,.-_R_FDL_Handler_CancelReq
                         687 	.type	_R_FDL_Handler_CancelReq..C.3A.5C_ECU2.5CECU_Rivian_A1.5CTarget.5Crepo_projects.5CpRealEcu.5CcL_R2023.2E09.2E01.5Cmake.5Coutput.5Cobjects.5Cr_fdl_user_if.,@function
                         688 	.size	_R_FDL_Handler_CancelReq..C.3A.5C_ECU2.5CECU_Rivian_A1.5CTarget.5Crepo_projects.5CpRealEcu.5CcL_R2023.2E09.2E01.5Cmake.5Coutput.5Cobjects.5Cr_fdl_user_if.,.-_R_FDL_Handler_CancelReq..C.3A.5C_ECU2.5CECU_Rivian_A1.5CTarget.5Crepo_projects.5CpRealEcu.5CcL_R2023.2E09.2E01.5Cmake.5Coutput.5Cobjects.5Cr_fdl_user_if.
                         689 	.align	2
                         690 --_cont	r28	local
                         691 
                         692 --_tmpStat_penu	r26	param
                         693 
                         694 	.section ".bss","awb"
                         695 .L1353:
                         696 	.type	.L1353,@object
                         697 	.size	.L1353,0
                         698 	.data
                         699 	.text
                         700 	.align	2
                         701 	.align	2
                         702 ..gh.f.f.1.e.6:
                         703 	.type	..gh.f.f.1.e.6,@object
                         704 	.size	..gh.f.f.1.e.6,0
                         705 	.global	_R_FDL_Handler_BusyAndSuspendPossible..C.3A.5C_ECU2.5CECU_Rivian_A1.5CTarget.5Crepo_projects.5CpRealEcu.5CcL_R2023.2E09.2E01.5Cmake.5Coutput.5Cobjects.5Cr_fdl_user_if.
                         706 _R_FDL_Handler_BusyAndSuspendPossible..C.3A.5C_ECU2.5CECU_Rivian_A1.5CTarget.5Crepo_projects.5CpRealEcu.5CcL_R2023.2E09.2E01.5Cmake.5Coutput.5Cobjects.5Cr_fdl_user_if.:
                         707 _R_FDL_Handler_BusyAndSuspendPossible:
00000300 8007e100        708 	prepare	{r28,r29,r31},0
                         709 --	    .bf
                         710 .LDW81:
00000304 3d0600000000*   711 	mov	_g_fdl_str,r29
0000030a 1d974900        712 	ld.b	73[r29],r18
                         713 --line245
                         714 ..lin.C.3A.5C_ECU2.5CECU_Rivian_A1.5CTarget.5Crepo_projects.5CpRealEcu.5CcL_R2023.2E09.2E01.5Cmake.5Coutput.5Cobjects.5Cr_fdl_user_if.62::
                         715 .LDWlin62:
0000030e 01e2            716 	mov	1,r28
00000310 6192            717 	cmp	1,r18
00000312 ea0d*           718 	bne	.L1445
                         719 --line249
                         720 ..lin.C.3A.5C_ECU2.5CECU_Rivian_A1.5CTarget.5Crepo_projects.5CpRealEcu.5CcL_R2023.2E09.2E01.5Cmake.5Coutput.5Cobjects.5Cr_fdl_user_if.63::
                         721 .LDWlin63:
                         722 	jarl	_R_FDL_FCUFct_ChkSuspendable,lp
                         722 <EXPANSION BEGIN>
                         722 jarl22 _R_FDL_FCUFct_ChkSuspendable , lp 
00000314 80ff0000*       722 <EXPANSION END>
00000318 6152            723 	cmp	1,r10
0000031a aa0d*           724 	bne	.L1445
                         725 --line252
                         726 ..lin.C.3A.5C_ECU2.5CECU_Rivian_A1.5CTarget.5Crepo_projects.5CpRealEcu.5CcL_R2023.2E09.2E01.5Cmake.5Coutput.5Cobjects.5Cr_fdl_user_if.64::
                         727 .LDWlin64:
                         728 	jarl	_R_FDL_FCUFct_Suspend,lp
                         728 <EXPANSION BEGIN>
                         728 jarl22 _R_FDL_FCUFct_Suspend , lp 
0000031c 80ff0000*       728 <EXPANSION END>

                                                                      Page 14
                                                              C:\Users\nhuliyap\AppData\Local\Temp\gh_0000d941.s
                         729 --line254
                         730 ..lin.C.3A.5C_ECU2.5CECU_Rivian_A1.5CTarget.5Crepo_projects.5CpRealEcu.5CcL_R2023.2E09.2E01.5Cmake.5Coutput.5Cobjects.5Cr_fdl_user_if.65::
                         731 .LDWlin65:
00000320 1df0            732 	mov	r29,ep
00000322 290656555555    733 	mov	1431655766,r9
00000328 c903            734 	sst.b	zero,73[ep]
0000032a 294d            735 	sst.w	r9,80[ep]
                         736 --line256
                         737 ..lin.C.3A.5C_ECU2.5CECU_Rivian_A1.5CTarget.5Crepo_projects.5CpRealEcu.5CcL_R2023.2E09.2E01.5Cmake.5Coutput.5Cobjects.5Cr_fdl_user_if.66::
                         738 .LDWlin66:
0000032c 00e2            739 	mov	0,r28
                         740 .L1445:
0000032e 1c50            741 	mov	r28,r10
                         742 --	    .ef
                         743 .LDW91:
00000330 4006ff00        744 	dispose	0,{r28,r29,r31},[lp]
                         745 ___ghs_eofn_R_FDL_Handler_BusyAndSuspendPossible:
                         746 	.type	_R_FDL_Handler_BusyAndSuspendPossible,@function
                         747 	.size	_R_FDL_Handler_BusyAndSuspendPossible,.-_R_FDL_Handler_BusyAndSuspendPossible
                         748 	.type	_R_FDL_Handler_BusyAndSuspendPossible..C.3A.5C_ECU2.5CECU_Rivian_A1.5CTarget.5Crepo_projects.5CpRealEcu.5CcL_R2023.2E09.2E01.5Cmake.5Coutput.5Cobjects.5Cr_fdl_user_if.,@function
                         749 	.size	_R_FDL_Handler_BusyAndSuspendPossible..C.3A.5C_ECU2.5CECU_Rivian_A1.5CTarget.5Crepo_projects.5CpRealEcu.5CcL_R2023.2E09.2E01.5Cmake.5Coutput.5Cobjects.5Cr_fdl_user_if.,.-_R_FDL_Handler_BusyAndSuspendPossible..C.3A.5C_ECU2.5CECU_Rivian_A1.5CTarget.5Crepo_projects.5CpRealEcu.5CcL_R2023.2E09.2E01.5Cmake.5Coutput.5Cobjects.5Cr_fdl_user_if.
                         750 	.align	2
                         751 --_cont	r28	local
                         752 
                         753 	.section ".bss","awb"
                         754 .L1488:
                         755 	.type	.L1488,@object
                         756 	.size	.L1488,0
                         757 	.data
                         758 	.text
                         759 	.align	2
                         760 	.align	2
                         761 ..gh.f.f.1.e.7:
                         762 	.type	..gh.f.f.1.e.7,@object
                         763 	.size	..gh.f.f.1.e.7,0
                         764 	.global	_R_FDL_Handler_ChkResume..C.3A.5C_ECU2.5CECU_Rivian_A1.5CTarget.5Crepo_projects.5CpRealEcu.5CcL_R2023.2E09.2E01.5Cmake.5Coutput.5Cobjects.5Cr_fdl_user_if.
                         765 _R_FDL_Handler_ChkResume..C.3A.5C_ECU2.5CECU_Rivian_A1.5CTarget.5Crepo_projects.5CpRealEcu.5CcL_R2023.2E09.2E01.5Cmake.5Coutput.5Cobjects.5Cr_fdl_user_if.:
                         766 _R_FDL_Handler_ChkResume:
00000334 8007e110        767 	prepare	{r27,r28,r29,r31},0
00000338 06f0            768 	mov	r6,ep
                         769 --	    .bf
                         770 .LDW02:
0000033a 3d0600000000*   771 	mov	_g_fdl_str,r29
00000340 3d3f2900        772 	ld.w	40[r29],r7
                         773 --line272
                         774 ..lin.C.3A.5C_ECU2.5CECU_Rivian_A1.5CTarget.5Crepo_projects.5CpRealEcu.5CcL_R2023.2E09.2E01.5Cmake.5Coutput.5Cobjects.5Cr_fdl_user_if.67::
                         775 .LDWlin67:
00000344 00da            776 	mov	0,r27
00000346 e039            777 	cmp	zero,r7
00000348 ba4d*           778 	bne	.L1535
0000034a 1d374a00        779 	ld.b	74[r29],r6
0000034e 6132            780 	cmp	1,r6
00000350 fa45*           781 	bne	.L1535
                         782 --line279
                         783 ..lin.C.3A.5C_ECU2.5CECU_Rivian_A1.5CTarget.5Crepo_projects.5CpRealEcu.5CcL_R2023.2E09.2E01.5Cmake.5Coutput.5Cobjects.5Cr_fdl_user_if.68::
                         784 .LDWlin68:
00000352 1d4f4600        785 	ld.b	70[r29],r9
00000356 5d074a00        786 	st.b	zero,74[r29]
0000035a 3c0655555555    787 	mov	1431655765,r28
00000360 614a            788 	cmp	1,r9
00000362 da0d*           789 	bne	.L1538

                                                                      Page 15
                                                              C:\Users\nhuliyap\AppData\Local\Temp\gh_0000d941.s
                         790 --line281
                         791 ..lin.C.3A.5C_ECU2.5CECU_Rivian_A1.5CTarget.5Crepo_projects.5CpRealEcu.5CcL_R2023.2E09.2E01.5Cmake.5Coutput.5Cobjects.5Cr_fdl_user_if.69::
                         792 .LDWlin69:
00000364 20368000        793 	movea	128,zero,r6
                         794 	jarl	_R_FDL_FCUFct_SwitchMode_Start,lp
                         794 <EXPANSION BEGIN>
                         794 jarl22 _R_FDL_FCUFct_SwitchMode_Start , lp 
00000368 80ff0000*       794 <EXPANSION END>
                         795 --line282
                         796 ..lin.C.3A.5C_ECU2.5CECU_Rivian_A1.5CTarget.5Crepo_projects.5CpRealEcu.5CcL_R2023.2E09.2E01.5Cmake.5Coutput.5Cobjects.5Cr_fdl_user_if.70::
                         797 .LDWlin70:
0000036c e051            798 	cmp	zero,r10
0000036e da15*           799 	bne	.L1548
00000370 0542            800 	mov	5,r8
                         801 .L1640:
00000372 1df0            802 	mov	r29,ep
00000374 ac43            803 	sst.b	r8,44[ep]
                         804 --line282
                         805 ..lin.C.3A.5C_ECU2.5CECU_Rivian_A1.5CTarget.5Crepo_projects.5CpRealEcu.5CcL_R2023.2E09.2E01.5Cmake.5Coutput.5Cobjects.5Cr_fdl_user_if.71::
                         806 .LDWlin71:
00000376 01da            807 	mov	1,r27
00000378 29e5            808 	sst.w	r28,80[ep]
0000037a 9525*           809 	br	.L1552
                         810 .L1538:
                         811 --line295
                         812 ..lin.C.3A.5C_ECU2.5CECU_Rivian_A1.5CTarget.5Crepo_projects.5CpRealEcu.5CcL_R2023.2E09.2E01.5Cmake.5Coutput.5Cobjects.5Cr_fdl_user_if.72::
                         813 .LDWlin72:
0000037c e049            814 	cmp	zero,r9
0000037e ea15*           815 	bne	.L1544
00000380 3d9f1d00        816 	ld.w	28[r29],r19
00000384 3d971500        817 	ld.w	20[r29],r18
00000388 f391            818 	cmp	r19,r18
0000038a 8915*           819 	bnl	.L1544
                         820 --line298
                         821 ..lin.C.3A.5C_ECU2.5CECU_Rivian_A1.5CTarget.5Crepo_projects.5CpRealEcu.5CcL_R2023.2E09.2E01.5Cmake.5Coutput.5Cobjects.5Cr_fdl_user_if.73::
                         822 .LDWlin73:
0000038c 20368000        823 	movea	128,zero,r6
                         824 	jarl	_R_FDL_FCUFct_SwitchMode_Start,lp
                         824 <EXPANSION BEGIN>
                         824 jarl22 _R_FDL_FCUFct_SwitchMode_Start , lp 
00000390 80ff0000*       824 <EXPANSION END>
                         825 --line299
                         826 ..lin.C.3A.5C_ECU2.5CECU_Rivian_A1.5CTarget.5Crepo_projects.5CpRealEcu.5CcL_R2023.2E09.2E01.5Cmake.5Coutput.5Cobjects.5Cr_fdl_user_if.74::
                         827 .LDWlin74:
00000394 e051            828 	cmp	zero,r10
00000396 d205*           829 	be	.L1547
                         830 .L1548:
                         831 --line302
                         832 ..lin.C.3A.5C_ECU2.5CECU_Rivian_A1.5CTarget.5Crepo_projects.5CpRealEcu.5CcL_R2023.2E09.2E01.5Cmake.5Coutput.5Cobjects.5Cr_fdl_user_if.75::
                         833 .LDWlin75:
00000398 3df72500        834 	ld.w	36[r29],ep
0000039c 8f53            835 	sst.b	r10,15[ep]
0000039e 950d*           836 	br	.L1543
                         837 .L1547:
                         838 --line306
                         839 ..lin.C.3A.5C_ECU2.5CECU_Rivian_A1.5CTarget.5Crepo_projects.5CpRealEcu.5CcL_R2023.2E09.2E01.5Cmake.5Coutput.5Cobjects.5Cr_fdl_user_if.76::
                         840 .LDWlin76:
000003a0 018a            841 	mov	1,r17
000003a2 0642            842 	mov	6,r8
000003a4 5d8f4600        843 	st.b	r17,70[r29]
000003a8 d5e5*           844 	br	.L1640

                                                                      Page 16
                                                              C:\Users\nhuliyap\AppData\Local\Temp\gh_0000d941.s
                         845 .L1544:
                         846 --line312
                         847 ..lin.C.3A.5C_ECU2.5CECU_Rivian_A1.5CTarget.5Crepo_projects.5CpRealEcu.5CcL_R2023.2E09.2E01.5Cmake.5Coutput.5Cobjects.5Cr_fdl_user_if.77::
                         848 .LDWlin77:
000003aa 7de75100        849 	st.w	r28,80[r29]
000003ae 804b            850 	sst.b	r9,0[ep]
                         851 .L1543:
000003b0 3d7f5100        852 	ld.w	80[r29],r15
000003b4 1c860200        853 	addi	2,r28,r16
000003b8 f079            854 	cmp	r16,r15
000003ba b215*           855 	be	.L1553
                         856 .L1552:
                         857 --line321
                         858 ..lin.C.3A.5C_ECU2.5CECU_Rivian_A1.5CTarget.5Crepo_projects.5CpRealEcu.5CcL_R2023.2E09.2E01.5Cmake.5Coutput.5Cobjects.5Cr_fdl_user_if.78::
                         859 .LDWlin78:
000003bc 3df72500        860 	ld.w	36[r29],ep
000003c0 0172            861 	mov	1,r14
000003c2 7df72900        862 	st.w	ep,40[r29]
000003c6 8f73            863 	sst.b	r14,15[ep]
000003c8 1df0            864 	mov	r29,ep
000003ca 0a6d            865 	sld.w	20[ep],r13
000003cc 0c65            866 	sld.w	24[ep],r12
000003ce 0e5d            867 	sld.w	28[ep],r11
000003d0 2053            868 	sld.b	32[ep],r10
000003d2 1305            869 	sst.w	zero,36[ep]
000003d4 036d            870 	sst.w	r13,4[ep]
000003d6 0565            871 	sst.w	r12,8[ep]
000003d8 075d            872 	sst.w	r11,12[ep]
000003da 9053            873 	sst.b	r10,16[ep]
000003dc a505*           874 	br	.L1553
                         875 .L1535:
                         876 --line332
                         877 ..lin.C.3A.5C_ECU2.5CECU_Rivian_A1.5CTarget.5Crepo_projects.5CpRealEcu.5CcL_R2023.2E09.2E01.5Cmake.5Coutput.5Cobjects.5Cr_fdl_user_if.79::
                         878 .LDWlin79:
000003de 01da            879 	mov	1,r27
                         880 .L1553:
000003e0 1b50            881 	mov	r27,r10
                         882 --	    .ef
                         883 .LDW12:
000003e2 4006ff10        884 	dispose	0,{r27,r28,r29,r31},[lp]
                         885 ___ghs_eofn_R_FDL_Handler_ChkResume:
                         886 	.type	_R_FDL_Handler_ChkResume,@function
                         887 	.size	_R_FDL_Handler_ChkResume,.-_R_FDL_Handler_ChkResume
                         888 	.type	_R_FDL_Handler_ChkResume..C.3A.5C_ECU2.5CECU_Rivian_A1.5CTarget.5Crepo_projects.5CpRealEcu.5CcL_R2023.2E09.2E01.5Cmake.5Coutput.5Cobjects.5Cr_fdl_user_if.,@function
                         889 	.size	_R_FDL_Handler_ChkResume..C.3A.5C_ECU2.5CECU_Rivian_A1.5CTarget.5Crepo_projects.5CpRealEcu.5CcL_R2023.2E09.2E01.5Cmake.5Coutput.5Cobjects.5Cr_fdl_user_if.,.-_R_FDL_Handler_ChkResume..C.3A.5C_ECU2.5CECU_Rivian_A1.5CTarget.5Crepo_projects.5CpRealEcu.5CcL_R2023.2E09.2E01.5Cmake.5Coutput.5Cobjects.5Cr_fdl_user_if.
                         890 	.align	2
                         891 --_cont	r27	local
                         892 --_res	r10	local
                         893 
                         894 --_tmpStat_penu	ep	param
                         895 
                         896 	.section ".bss","awb"
                         897 .L1713:
                         898 	.type	.L1713,@object
                         899 	.size	.L1713,0
                         900 	.data
                         901 	.text
                         902 	.align	2
                         903 	.align	2
                         904 ..gh.f.f.1.e.8:
                         905 	.type	..gh.f.f.1.e.8,@object

                                                                      Page 17
                                                              C:\Users\nhuliyap\AppData\Local\Temp\gh_0000d941.s
                         906 	.size	..gh.f.f.1.e.8,0
                         907 	.global	_R_FDL_Handler_ReactOnFatalErrors..C.3A.5C_ECU2.5CECU_Rivian_A1.5CTarget.5Crepo_projects.5CpRealEcu.5CcL_R2023.2E09.2E01.5Cmake.5Coutput.5Cobjects.5Cr_fdl_user_if.
                         908 _R_FDL_Handler_ReactOnFatalErrors..C.3A.5C_ECU2.5CECU_Rivian_A1.5CTarget.5Crepo_projects.5CpRealEcu.5CcL_R2023.2E09.2E01.5Cmake.5Coutput.5Cobjects.5Cr_fdl_user_if.:
                         909 _R_FDL_Handler_ReactOnFatalErrors:
000003e6 8007e110        910 	prepare	{r27,r28,r29,r31},0
000003ea 06d8            911 	mov	r6,r27
                         912 --	    .bf
                         913 .LDW22:
000003ec 01e2            914 	mov	1,r28
                         915 	jarl	_R_FDL_FCUFct_CheckFatalError,lp
                         915 <EXPANSION BEGIN>
                         915 jarl22 _R_FDL_FCUFct_CheckFatalError , lp 
000003ee 80ff0000*       915 <EXPANSION END>
000003f2 0ae8            916 	mov	r10,r29
                         917 --line351
                         918 ..lin.C.3A.5C_ECU2.5CECU_Rivian_A1.5CTarget.5Crepo_projects.5CpRealEcu.5CcL_R2023.2E09.2E01.5Cmake.5Coutput.5Cobjects.5Cr_fdl_user_if.80::
                         919 .LDWlin80:
000003f4 e051            920 	cmp	zero,r10
000003f6 c215*           921 	be	.L1864
                         922 --line353
                         923 ..lin.C.3A.5C_ECU2.5CECU_Rivian_A1.5CTarget.5Crepo_projects.5CpRealEcu.5CcL_R2023.2E09.2E01.5Cmake.5Coutput.5Cobjects.5Cr_fdl_user_if.81::
                         924 .LDWlin81:
                         925 	jarl	_R_FDL_FCUFct_ClearStatus,lp
                         925 <EXPANSION BEGIN>
                         925 jarl22 _R_FDL_FCUFct_ClearStatus , lp 
000003f8 80ff0000*       925 <EXPANSION END>
                         926 --line354
                         927 ..lin.C.3A.5C_ECU2.5CECU_Rivian_A1.5CTarget.5Crepo_projects.5CpRealEcu.5CcL_R2023.2E09.2E01.5Cmake.5Coutput.5Cobjects.5Cr_fdl_user_if.82::
                         928 .LDWlin82:
000003fc 0032            929 	mov	0,r6
                         930 	jarl	_R_FDL_FCUFct_SwitchMode_Start,lp
                         930 <EXPANSION BEGIN>
                         930 jarl22 _R_FDL_FCUFct_SwitchMode_Start , lp 
000003fe 80ff0000*       930 <EXPANSION END>
                         931 --line356
                         932 ..lin.C.3A.5C_ECU2.5CECU_Rivian_A1.5CTarget.5Crepo_projects.5CpRealEcu.5CcL_R2023.2E09.2E01.5Cmake.5Coutput.5Cobjects.5Cr_fdl_user_if.83::
                         933 .LDWlin83:
                         934 	jarl	_R_FDL_FCUFct_SwitchMode_Check,lp
                         934 <EXPANSION BEGIN>
                         934 jarl22 _R_FDL_FCUFct_SwitchMode_Check , lp 
00000402 80ff0000*       934 <EXPANSION END>
00000406 6152            935 	cmp	1,r10
00000408 8a0d*           936 	bne	.L1868
                         937 --line358
                         938 ..lin.C.3A.5C_ECU2.5CECU_Rivian_A1.5CTarget.5Crepo_projects.5CpRealEcu.5CcL_R2023.2E09.2E01.5Cmake.5Coutput.5Cobjects.5Cr_fdl_user_if.84::
                         939 .LDWlin84:
0000040a 3e0600000000*   940 	mov	_g_fdl_str,ep
00000410 094a            941 	mov	9,r9
                         942 --line360
                         943 ..lin.C.3A.5C_ECU2.5CECU_Rivian_A1.5CTarget.5Crepo_projects.5CpRealEcu.5CcL_R2023.2E09.2E01.5Cmake.5Coutput.5Cobjects.5Cr_fdl_user_if.85::
                         944 .LDWlin85:
00000412 c7eb            945 	sst.b	r29,71[ep]
00000414 ac4b            946 	sst.b	r9,44[ep]
00000416 1ce8            947 	mov	r28,r29
                         948 .L1868:
00000418 5bef0000        949 	st.b	r29,0[r27]
0000041c 00e2            950 	mov	0,r28
                         951 .L1864:
0000041e 1c50            952 	mov	r28,r10
                         953 --	    .ef
                         954 .LDW32:

                                                                      Page 18
                                                              C:\Users\nhuliyap\AppData\Local\Temp\gh_0000d941.s
00000420 4006ff10        955 	dispose	0,{r27,r28,r29,r31},[lp]
                         956 ___ghs_eofn_R_FDL_Handler_ReactOnFatalErrors:
                         957 	.type	_R_FDL_Handler_ReactOnFatalErrors,@function
                         958 	.size	_R_FDL_Handler_ReactOnFatalErrors,.-_R_FDL_Handler_ReactOnFatalErrors
                         959 	.type	_R_FDL_Handler_ReactOnFatalErrors..C.3A.5C_ECU2.5CECU_Rivian_A1.5CTarget.5Crepo_projects.5CpRealEcu.5CcL_R2023.2E09.2E01.5Cmake.5Coutput.5Cobjects.5Cr_fdl_user_if.,@function
                         960 	.size	_R_FDL_Handler_ReactOnFatalErrors..C.3A.5C_ECU2.5CECU_Rivian_A1.5CTarget.5Crepo_projects.5CpRealEcu.5CcL_R2023.2E09.2E01.5Cmake.5Coutput.5Cobjects.5Cr_fdl_user_if.,.-_R_FDL_Handler_ReactOnFatalErrors..C.3A.5C_ECU2.5CECU_Rivian_A1.5CTarget.5Crepo_projects.5CpRealEcu.5CcL_R2023.2E09.2E01.5Cmake.5Coutput.5Cobjects.5Cr_fdl_user_if.
                         961 	.align	2
                         962 --_cont	r28	local
                         963 --_stat	r29	local
                         964 
                         965 --_tmpStat_penu	r27	param
                         966 
                         967 	.section ".bss","awb"
                         968 .L1922:
                         969 	.type	.L1922,@object
                         970 	.size	.L1922,0
                         971 	.data
                         972 	.text
                         973 	.align	2
                         974 	.align	2
                         975 ..gh.f.f.1.e.9:
                         976 	.type	..gh.f.f.1.e.9,@object
                         977 	.size	..gh.f.f.1.e.9,0
                         978 	.global	_R_FDL_Handler_StatusCheckAndSuspendOnReady..C.3A.5C_ECU2.5CECU_Rivian_A1.5CTarget.5Crepo_projects.5CpRealEcu.5CcL_R2023.2E09.2E01.5Cmake.5Coutput.5Cobjects.5Cr_fdl_user_if.
                         979 _R_FDL_Handler_StatusCheckAndSuspendOnReady..C.3A.5C_ECU2.5CECU_Rivian_A1.5CTarget.5Crepo_projects.5CpRealEcu.5CcL_R2023.2E09.2E01.5Cmake.5Coutput.5Cobjects.5Cr_fdl_user_if.:
                         980 _R_FDL_Handler_StatusCheckAndSuspendOnReady:
00000424 8007e130        981 	prepare	{r26,r27,r28,r29,r31},0
00000428 06d8            982 	mov	r6,r27
                         983 --	    .bf
                         984 .LDW42:
0000042a 01d2            985 	mov	1,r26
                         986 	jarl	_R_FDL_FCUFct_GetStat,lp
                         986 <EXPANSION BEGIN>
                         986 jarl22 _R_FDL_FCUFct_GetStat , lp 
0000042c 80ff0000*       986 <EXPANSION END>
00000430 5b570000        987 	st.b	r10,0[r27]
                         988 --line385
                         989 ..lin.C.3A.5C_ECU2.5CECU_Rivian_A1.5CTarget.5Crepo_projects.5CpRealEcu.5CcL_R2023.2E09.2E01.5Cmake.5Coutput.5Cobjects.5Cr_fdl_user_if.86::
                         990 .LDWlin86:
                         991 	jarl	_R_FDL_FCUFct_ClearStatus,lp
                         991 <EXPANSION BEGIN>
                         991 jarl22 _R_FDL_FCUFct_ClearStatus , lp 
00000434 80ff0000*       991 <EXPANSION END>
                         992 --line387
                         993 ..lin.C.3A.5C_ECU2.5CECU_Rivian_A1.5CTarget.5Crepo_projects.5CpRealEcu.5CcL_R2023.2E09.2E01.5Cmake.5Coutput.5Cobjects.5Cr_fdl_user_if.87::
                         994 .LDWlin87:
00000438 3d0600000000*   995 	mov	_g_fdl_str,r29
0000043e 1d974900        996 	ld.b	73[r29],r18
00000442 3c0656555555    997 	mov	1431655766,r28
00000448 6192            998 	cmp	1,r18
0000044a da05*           999 	bne	.L1986
                        1000 --line390
                        1001 ..lin.C.3A.5C_ECU2.5CECU_Rivian_A1.5CTarget.5Crepo_projects.5CpRealEcu.5CcL_R2023.2E09.2E01.5Cmake.5Coutput.5Cobjects.5Cr_fdl_user_if.88::
                        1002 .LDWlin88:
0000044c 1df0           1003 	mov	r29,ep
0000044e c903           1004 	sst.b	zero,73[ep]
00000450 29e5           1005 	sst.w	r28,80[ep]
00000452 d505*          1006 	br	.L1989
                        1007 .L1986:
                        1008 --line393
                        1009 ..lin.C.3A.5C_ECU2.5CECU_Rivian_A1.5CTarget.5Crepo_projects.5CpRealEcu.5CcL_R2023.2E09.2E01.5Cmake.5Coutput.5Cobjects.5Cr_fdl_user_if.89::

                                                                      Page 19
                                                              C:\Users\nhuliyap\AppData\Local\Temp\gh_0000d941.s
                        1010 .LDWlin89:
00000454 3d8f5100       1011 	ld.w	80[r29],r17
00000458 fc89           1012 	cmp	r28,r17
0000045a da25*          1013 	bne	.L1988
                        1014 .L1989:
                        1015 --line395
                        1016 ..lin.C.3A.5C_ECU2.5CECU_Rivian_A1.5CTarget.5Crepo_projects.5CpRealEcu.5CcL_R2023.2E09.2E01.5Cmake.5Coutput.5Cobjects.5Cr_fdl_user_if.90::
                        1017 .LDWlin90:
0000045c 1b870000       1018 	ld.b	0[r27],r16
00000460 0032           1019 	mov	0,r6
00000462 5d874600       1020 	st.b	r16,70[r29]
                        1021 	jarl	_R_FDL_FCUFct_SwitchMode_Start,lp
                        1021 <EXPANSION BEGIN>
                        1021 jarl22 _R_FDL_FCUFct_SwitchMode_Start , lp 
00000466 80ff0000*      1021 <EXPANSION END>
                        1022 --line398
                        1023 ..lin.C.3A.5C_ECU2.5CECU_Rivian_A1.5CTarget.5Crepo_projects.5CpRealEcu.5CcL_R2023.2E09.2E01.5Cmake.5Coutput.5Cobjects.5Cr_fdl_user_if.91::
                        1024 .LDWlin91:
                        1025 	jarl	_R_FDL_FCUFct_SwitchMode_Check,lp
                        1025 <EXPANSION BEGIN>
                        1025 jarl22 _R_FDL_FCUFct_SwitchMode_Check , lp 
0000046a 80ff0000*      1025 <EXPANSION END>
                        1026 --line400
                        1027 ..lin.C.3A.5C_ECU2.5CECU_Rivian_A1.5CTarget.5Crepo_projects.5CpRealEcu.5CcL_R2023.2E09.2E01.5Cmake.5Coutput.5Cobjects.5Cr_fdl_user_if.92::
                        1028 .LDWlin92:
0000046e e051           1029 	cmp	zero,r10
00000470 ba0d*          1030 	bne	.L1990
                        1031 --line402
                        1032 ..lin.C.3A.5C_ECU2.5CECU_Rivian_A1.5CTarget.5Crepo_projects.5CpRealEcu.5CcL_R2023.2E09.2E01.5Cmake.5Coutput.5Cobjects.5Cr_fdl_user_if.93::
                        1033 .LDWlin93:
00000472 027a           1034 	mov	2,r15
00000474 5b7f0000       1035 	st.b	r15,0[r27]
00000478 1df0           1036 	mov	r29,ep
0000047a 1475           1037 	sld.w	40[ep],r14
0000047c 1c6e0100       1038 	addi	1,r28,r13
00000480 296d           1039 	sst.w	r13,80[ep]
00000482 1375           1040 	sst.w	r14,36[ep]
00000484 e505*          1041 	br	.L1992
                        1042 .L1990:
                        1043 --line409
                        1044 ..lin.C.3A.5C_ECU2.5CECU_Rivian_A1.5CTarget.5Crepo_projects.5CpRealEcu.5CcL_R2023.2E09.2E01.5Cmake.5Coutput.5Cobjects.5Cr_fdl_user_if.94::
                        1045 .LDWlin94:
00000486 5bd70000       1046 	st.b	r26,0[r27]
0000048a 085a           1047 	mov	8,r11
0000048c 5d5f2c00       1048 	st.b	r11,44[r29]
                        1049 .L1992:
00000490 1df0           1050 	mov	r29,ep
00000492 0255           1051 	sld.w	4[ep],r10
00000494 044d           1052 	sld.w	8[ep],r9
00000496 0645           1053 	sld.w	12[ep],r8
00000498 103b           1054 	sld.b	16[ep],r7
0000049a 0b55           1055 	sst.w	r10,20[ep]
0000049c 0d4d           1056 	sst.w	r9,24[ep]
0000049e 0f45           1057 	sst.w	r8,28[ep]
000004a0 a03b           1058 	sst.b	r7,32[ep]
000004a2 00d2           1059 	mov	0,r26
                        1060 .L1988:
000004a4 1a50           1061 	mov	r26,r10
                        1062 --	    .ef
                        1063 .LDW52:
000004a6 4006ff30       1064 	dispose	0,{r26,r27,r28,r29,r31},[lp]

                                                                      Page 20
                                                              C:\Users\nhuliyap\AppData\Local\Temp\gh_0000d941.s
                        1065 ___ghs_eofn_R_FDL_Handler_StatusCheckAndSuspendOnReady:
                        1066 	.type	_R_FDL_Handler_StatusCheckAndSuspendOnReady,@function
                        1067 	.size	_R_FDL_Handler_StatusCheckAndSuspendOnReady,.-_R_FDL_Handler_StatusCheckAndSuspendOnReady
                        1068 	.type	_R_FDL_Handler_StatusCheckAndSuspendOnReady..C.3A.5C_ECU2.5CECU_Rivian_A1.5CTarget.5Crepo_projects.5CpRealEcu.5CcL_R2023.2E09.2E01.5Cmake.5Coutput.5Cobjects.5Cr_fdl_user_if.,@function
                        1069 	.size	_R_FDL_Handler_StatusCheckAndSuspendOnReady..C.3A.5C_ECU2.5CECU_Rivian_A1.5CTarget.5Crepo_projects.5CpRealEcu.5CcL_R2023.2E09.2E01.5Cmake.5Coutput.5Cobjects.5Cr_fdl_user_if.,.-_R_FDL_Handler_StatusCheckAndSuspendOnReady..C.3A.5C_ECU2.5CECU_Rivian_A1.5CTarget.5Crepo_projects.5CpRealEcu.5CcL_R2023.2E09.2E01.5Cmake.5Coutput.5Cobjects.5Cr_fdl_user_if.
                        1070 	.align	2
                        1071 --_cont	r26	local
                        1072 
                        1073 --_tmpStat_penu	r27	param
                        1074 
                        1075 	.section ".bss","awb"
                        1076 .L2062:
                        1077 	.type	.L2062,@object
                        1078 	.size	.L2062,0
                        1079 	.data
                        1080 	.text
                        1081 	.align	2
                        1082 	.align	2
                        1083 ..gh.f.f.1.e.10:
                        1084 	.type	..gh.f.f.1.e.10,@object
                        1085 	.size	..gh.f.f.1.e.10,0
                        1086 	.global	_R_FDL_Handler_MultiOperation..C.3A.5C_ECU2.5CECU_Rivian_A1.5CTarget.5Crepo_projects.5CpRealEcu.5CcL_R2023.2E09.2E01.5Cmake.5Coutput.5Cobjects.5Cr_fdl_user_if.
                        1087 _R_FDL_Handler_MultiOperation..C.3A.5C_ECU2.5CECU_Rivian_A1.5CTarget.5Crepo_projects.5CpRealEcu.5CcL_R2023.2E09.2E01.5Cmake.5Coutput.5Cobjects.5Cr_fdl_user_if.:
                        1088 _R_FDL_Handler_MultiOperation:
000004aa 8207e100       1089 	prepare	{r28,r29,r31},1
000004ae 06e0           1090 	mov	r6,r28
                        1091 --	    .bf
                        1092 .LDW62:
000004b0 3d0600000000*  1093 	mov	_g_fdl_str,r29
000004b6 3df72900       1094 	ld.w	40[r29],ep
                        1095 --line437
                        1096 ..lin.C.3A.5C_ECU2.5CECU_Rivian_A1.5CTarget.5Crepo_projects.5CpRealEcu.5CcL_R2023.2E09.2E01.5Cmake.5Coutput.5Cobjects.5Cr_fdl_user_if.95::
                        1097 .LDWlin95:
000004ba 063f0000       1098 	ld.b	0[r6],r7
000004be 0152           1099 	mov	1,r10
000004c0 004b           1100 	sld.b	0[ep],r9
000004c2 e039           1101 	cmp	zero,r7
000004c4 8a65*          1102 	bne	.L2143
000004c6 1df0           1103 	mov	r29,ep
000004c8 023d           1104 	sld.w	4[ep],r7
000004ca 0695           1105 	sld.w	12[ep],r18
000004cc f239           1106 	cmp	r18,r7
000004ce b95d*          1107 	bnl	.L2143
                        1108 --line443
                        1109 ..lin.C.3A.5C_ECU2.5CECU_Rivian_A1.5CTarget.5Crepo_projects.5CpRealEcu.5CcL_R2023.2E09.2E01.5Cmake.5Coutput.5Cobjects.5Cr_fdl_user_if.96::
                        1110 .LDWlin96:
000004d0 614a           1111 	cmp	1,r9
000004d2 ca15*          1112 	bne	.L2148
                        1113 --line458
                        1114 ..lin.C.3A.5C_ECU2.5CECU_Rivian_A1.5CTarget.5Crepo_projects.5CpRealEcu.5CcL_R2023.2E09.2E01.5Cmake.5Coutput.5Cobjects.5Cr_fdl_user_if.97::
                        1115 .LDWlin97:
000004d4 0435           1116 	sld.w	8[ep],r6
000004d6 104b           1117 	sld.b	16[ep],r9
000004d8 0442           1118 	mov	4,r8
000004da 63470100       1119 	st.w	r8,0[sp]
                        1120 	jarl	_R_FDL_FCUFct_StartWriteOperation,lp
                        1120 <EXPANSION BEGIN>
                        1120 jarl22 _R_FDL_FCUFct_StartWriteOperation , lp 
000004de 80ff0000*      1120 <EXPANSION END>
000004e2 5c570000       1121 	st.b	r10,0[r28]
                        1122 --line463

                                                                      Page 21
                                                              C:\Users\nhuliyap\AppData\Local\Temp\gh_0000d941.s
                        1123 ..lin.C.3A.5C_ECU2.5CECU_Rivian_A1.5CTarget.5Crepo_projects.5CpRealEcu.5CcL_R2023.2E09.2E01.5Cmake.5Coutput.5Cobjects.5Cr_fdl_user_if.98::
                        1124 .LDWlin98:
000004e6 1df0           1125 	mov	r29,ep
000004e8 23470100       1126 	ld.w	0[sp],r8
000004ec 028d           1127 	sld.w	4[ep],r17
000004ee 0485           1128 	sld.w	8[ep],r16
000004f0 c889           1129 	add	r8,r17
000004f2 c881           1130 	add	r8,r16
000004f4 038d           1131 	sst.w	r17,4[ep]
000004f6 0585           1132 	sst.w	r16,8[ep]
000004f8 8535*          1133 	br	.L2150
                        1134 .L2148:
                        1135 --line466
                        1136 ..lin.C.3A.5C_ECU2.5CECU_Rivian_A1.5CTarget.5Crepo_projects.5CpRealEcu.5CcL_R2023.2E09.2E01.5Cmake.5Coutput.5Cobjects.5Cr_fdl_user_if.99::
                        1137 .LDWlin99:
000004fa e049           1138 	cmp	zero,r9
000004fc aa15*          1139 	bne	.L2151
                        1140 --line468
                        1141 ..lin.C.3A.5C_ECU2.5CECU_Rivian_A1.5CTarget.5Crepo_projects.5CpRealEcu.5CcL_R2023.2E09.2E01.5Cmake.5Coutput.5Cobjects.5Cr_fdl_user_if.100::
                        1142 .LDWlin100:
000004fe 1d4f1000       1143 	ld.b	16[r29],r9
00000502 0730           1144 	mov	r7,r6
00000504 073e3f00       1145 	addi	63,r7,r7
00000508 20462000       1146 	movea	32,zero,r8
                        1147 	jarl	_R_FDL_FCUFct_StartBCEraseOperation,lp
                        1147 <EXPANSION BEGIN>
                        1147 jarl22 _R_FDL_FCUFct_StartBCEraseOperation , lp 
0000050c 80ff0000*      1147 <EXPANSION END>
00000510 5c570000       1148 	st.b	r10,0[r28]
                        1149 --line473
                        1150 ..lin.C.3A.5C_ECU2.5CECU_Rivian_A1.5CTarget.5Crepo_projects.5CpRealEcu.5CcL_R2023.2E09.2E01.5Cmake.5Coutput.5Cobjects.5Cr_fdl_user_if.101::
                        1151 .LDWlin101:
00000514 1df0           1152 	mov	r29,ep
00000516 0235           1153 	sld.w	4[ep],r6
00000518 06364000       1154 	addi	64,r6,r6
0000051c 0335           1155 	sst.w	r6,4[ep]
0000051e d51d*          1156 	br	.L2150
                        1157 .L2151:
                        1158 --line476
                        1159 ..lin.C.3A.5C_ECU2.5CECU_Rivian_A1.5CTarget.5Crepo_projects.5CpRealEcu.5CcL_R2023.2E09.2E01.5Cmake.5Coutput.5Cobjects.5Cr_fdl_user_if.102::
                        1160 .LDWlin102:
00000520 127e0100       1161 	addi	1,r18,r15
00000524 a779           1162 	sub	r7,r15
00000526 637f0100       1163 	st.w	r15,0[sp]
0000052a 0330           1164 	mov	sp,r6
                        1165 	jarl	_R_FDL_IFct_CalcFOpUnitCnt_BC,lp
                        1165 <EXPANSION BEGIN>
                        1165 jarl22 _R_FDL_IFct_CalcFOpUnitCnt_BC , lp 
0000052c 80ff0000*      1165 <EXPANSION END>
                        1166 --line480
                        1167 ..lin.C.3A.5C_ECU2.5CECU_Rivian_A1.5CTarget.5Crepo_projects.5CpRealEcu.5CcL_R2023.2E09.2E01.5Cmake.5Coutput.5Cobjects.5Cr_fdl_user_if.103::
                        1168 .LDWlin103:
00000530 1df0           1169 	mov	r29,ep
00000532 0235           1170 	sld.w	4[ep],r6
00000534 239f0100       1171 	ld.w	0[sp],r19
00000538 104b           1172 	sld.b	16[ep],r9
0000053a 20467100       1173 	movea	113,zero,r8
0000053e c699           1174 	add	r6,r19
00000540 133effff       1175 	addi	-1,r19,r7
                        1176 	jarl	_R_FDL_FCUFct_StartBCEraseOperation,lp
                        1176 <EXPANSION BEGIN>

                                                                      Page 22
                                                              C:\Users\nhuliyap\AppData\Local\Temp\gh_0000d941.s
                        1176 jarl22 _R_FDL_FCUFct_StartBCEraseOperation , lp 
00000544 80ff0000*      1176 <EXPANSION END>
00000548 5c570000       1177 	st.b	r10,0[r28]
                        1178 --line485
                        1179 ..lin.C.3A.5C_ECU2.5CECU_Rivian_A1.5CTarget.5Crepo_projects.5CpRealEcu.5CcL_R2023.2E09.2E01.5Cmake.5Coutput.5Cobjects.5Cr_fdl_user_if.104::
                        1180 .LDWlin104:
0000054c 1df0           1181 	mov	r29,ep
0000054e 0275           1182 	sld.w	4[ep],r14
00000550 23370100       1183 	ld.w	0[sp],r6
00000554 c671           1184 	add	r6,r14
00000556 0375           1185 	sst.w	r14,4[ep]
                        1186 .L2150:
00000558 1c9f0000       1187 	ld.b	0[r28],r19
0000055c 619a           1188 	cmp	1,r19
0000055e 8215*          1189 	be	.L2154
                        1190 --line490
                        1191 ..lin.C.3A.5C_ECU2.5CECU_Rivian_A1.5CTarget.5Crepo_projects.5CpRealEcu.5CcL_R2023.2E09.2E01.5Cmake.5Coutput.5Cobjects.5Cr_fdl_user_if.105::
                        1192 .LDWlin105:
00000560 0032           1193 	mov	0,r6
                        1194 	jarl	_R_FDL_FCUFct_SwitchMode_Start,lp
                        1194 <EXPANSION BEGIN>
                        1194 jarl22 _R_FDL_FCUFct_SwitchMode_Start , lp 
00000562 80ff0000*      1194 <EXPANSION END>
                        1195 --line491
                        1196 ..lin.C.3A.5C_ECU2.5CECU_Rivian_A1.5CTarget.5Crepo_projects.5CpRealEcu.5CcL_R2023.2E09.2E01.5Cmake.5Coutput.5Cobjects.5Cr_fdl_user_if.106::
                        1197 .LDWlin106:
                        1198 	jarl	_R_FDL_FCUFct_SwitchMode_Check,lp
                        1198 <EXPANSION BEGIN>
                        1198 jarl22 _R_FDL_FCUFct_SwitchMode_Check , lp 
00000566 80ff0000*      1198 <EXPANSION END>
0000056a 6152           1199 	cmp	1,r10
0000056c 9a0d*          1200 	bne	.L2154
                        1201 --line493
                        1202 ..lin.C.3A.5C_ECU2.5CECU_Rivian_A1.5CTarget.5Crepo_projects.5CpRealEcu.5CcL_R2023.2E09.2E01.5Cmake.5Coutput.5Cobjects.5Cr_fdl_user_if.107::
                        1203 .LDWlin107:
0000056e 094a           1204 	mov	9,r9
00000570 1df0           1205 	mov	r29,ep
00000572 ac4b           1206 	sst.b	r9,44[ep]
00000574 1c470000       1207 	ld.b	0[r28],r8
00000578 c743           1208 	sst.b	r8,71[ep]
0000057a 5c570000       1209 	st.b	r10,0[r28]
                        1210 .L2154:
0000057e 0052           1211 	mov	0,r10
00000580 4206ff00       1212 	dispose	1,{r28,r29,r31},[lp]
                        1213 .L2143:
                        1214 --	    .ef
                        1215 .LDW72:
                        1216 --line503
                        1217 ..lin.C.3A.5C_ECU2.5CECU_Rivian_A1.5CTarget.5Crepo_projects.5CpRealEcu.5CcL_R2023.2E09.2E01.5Cmake.5Coutput.5Cobjects.5Cr_fdl_user_if.108::
                        1218 .LDWlin108:
00000584 4206ff00       1219 	dispose	1,{r28,r29,r31},[lp]
                        1220 ___ghs_eofn_R_FDL_Handler_MultiOperation:
                        1221 	.type	_R_FDL_Handler_MultiOperation,@function
                        1222 	.size	_R_FDL_Handler_MultiOperation,.-_R_FDL_Handler_MultiOperation
                        1223 	.type	_R_FDL_Handler_MultiOperation..C.3A.5C_ECU2.5CECU_Rivian_A1.5CTarget.5Crepo_projects.5CpRealEcu.5CcL_R2023.2E09.2E01.5Cmake.5Coutput.5Cobjects.5Cr_fdl_user_if.,@function
                        1224 	.size	_R_FDL_Handler_MultiOperation..C.3A.5C_ECU2.5CECU_Rivian_A1.5CTarget.5Crepo_projects.5CpRealEcu.5CcL_R2023.2E09.2E01.5Cmake.5Coutput.5Cobjects.5Cr_fdl_user_if.,.-_R_FDL_Handler_MultiOperation..C.3A.5C_ECU2.5CECU_Rivian_A1.5CTarget.5Crepo_projects.5CpRealEcu.5CcL_R2023.2E09.2E01.5Cmake.5Coutput.5Cobjects.5Cr_fdl_user_if.
                        1225 	.align	2
                        1226 --_cont	r10	local
                        1227 --_cnt	0[sp]	local
                        1228 --_cmd	r9	local
                        1229 

                                                                      Page 23
                                                              C:\Users\nhuliyap\AppData\Local\Temp\gh_0000d941.s
                        1230 --_tmpStat_penu	r28	param
                        1231 
                        1232 	.section ".bss","awb"
                        1233 .L2232:
                        1234 	.type	.L2232,@object
                        1235 	.size	.L2232,0
                        1236 	.data
                        1237 	.text
                        1238 	.align	2
                        1239 	.align	2
                        1240 ..gh.f.f.1.e.11:
                        1241 	.type	..gh.f.f.1.e.11,@object
                        1242 	.size	..gh.f.f.1.e.11,0
                        1243 	.global	_R_FDL_Handler_OperationStates..C.3A.5C_ECU2.5CECU_Rivian_A1.5CTarget.5Crepo_projects.5CpRealEcu.5CcL_R2023.2E09.2E01.5Cmake.5Coutput.5Cobjects.5Cr_fdl_user_if.
                        1244 _R_FDL_Handler_OperationStates..C.3A.5C_ECU2.5CECU_Rivian_A1.5CTarget.5Crepo_projects.5CpRealEcu.5CcL_R2023.2E09.2E01.5Cmake.5Coutput.5Cobjects.5Cr_fdl_user_if.:
                        1245 _R_FDL_Handler_OperationStates:
00000588 8007e110       1246 	prepare	{r27,r28,r29,r31},0
0000058c 06e0           1247 	mov	r6,r28
                        1248 --	    .bf
                        1249 .LDW82:
0000058e 3d0600000000*  1250 	mov	_g_fdl_str,r29
00000594 1d3f2c00       1251 	ld.b	44[r29],r7
                        1252 --line514
                        1253 ..lin.C.3A.5C_ECU2.5CECU_Rivian_A1.5CTarget.5Crepo_projects.5CpRealEcu.5CcL_R2023.2E09.2E01.5Cmake.5Coutput.5Cobjects.5Cr_fdl_user_if.109::
                        1254 .LDWlin109:
00000598 01da           1255 	mov	1,r27
0000059a e039           1256 	cmp	zero,r7
0000059c e2074101*      1257 	be	.L2356
000005a0 673a           1258 	cmp	7,r7
000005a2 e2073b01*      1259 	be	.L2356
                        1260 --line519
                        1261 ..lin.C.3A.5C_ECU2.5CECU_Rivian_A1.5CTarget.5Crepo_projects.5CpRealEcu.5CcL_R2023.2E09.2E01.5Cmake.5Coutput.5Cobjects.5Cr_fdl_user_if.110::
                        1262 .LDWlin110:
                        1263 	jarl	_R_FDL_FCUFct_SwitchMode_Check,lp
                        1263 <EXPANSION BEGIN>
                        1263 jarl22 _R_FDL_FCUFct_SwitchMode_Check , lp 
000005a6 80ff0000*      1263 <EXPANSION END>
000005aa 5c570000       1264 	st.b	r10,0[r28]
                        1265 --line520
                        1266 ..lin.C.3A.5C_ECU2.5CECU_Rivian_A1.5CTarget.5Crepo_projects.5CpRealEcu.5CcL_R2023.2E09.2E01.5Cmake.5Coutput.5Cobjects.5Cr_fdl_user_if.111::
                        1267 .LDWlin111:
000005ae e051           1268 	cmp	zero,r10
000005b0 ea45*          1269 	bne	.L2359
                        1270 --line522
                        1271 ..lin.C.3A.5C_ECU2.5CECU_Rivian_A1.5CTarget.5Crepo_projects.5CpRealEcu.5CcL_R2023.2E09.2E01.5Cmake.5Coutput.5Cobjects.5Cr_fdl_user_if.112::
                        1272 .LDWlin112:
000005b2 1d4f2c00       1273 	ld.b	44[r29],r9
000005b6 694a           1274 	cmp	9,r9
000005b8 eb072501*      1275 	bh	.L2356
000005bc c24a           1276 	shl	2,r9
000005be e90600000000*  1277 	jmp	.L2606[r9]
                        1278 .L2606:
000005c4 80071801*      1279 	jr	.L2356
000005c8 80072400*      1280 	jr	.L2363
000005cc 80075200*      1281 	jr	.L2369
000005d0 80077000*      1282 	jr	.L2373
000005d4 80078800*      1283 	jr	.L2375
000005d8 8007c400*      1284 	jr	.L2384
000005dc 8007d000*      1285 	jr	.L2386
000005e0 8007fc00*      1286 	jr	.L2356
000005e4 8007e200*      1287 	jr	.L2390

                                                                      Page 24
                                                              C:\Users\nhuliyap\AppData\Local\Temp\gh_0000d941.s
000005e8 8007d000*      1288 	jr	.L2388
                        1289 .L2363:
                        1290 --line526
                        1291 ..lin.C.3A.5C_ECU2.5CECU_Rivian_A1.5CTarget.5Crepo_projects.5CpRealEcu.5CcL_R2023.2E09.2E01.5Cmake.5Coutput.5Cobjects.5Cr_fdl_user_if.113::
                        1292 .LDWlin113:
000005ec 3d372900       1293 	ld.w	40[r29],r6
000005f0 06470000       1294 	ld.b	0[r6],r8
000005f4 6542           1295 	cmp	5,r8
000005f6 ea0d*          1296 	bne	.L2364
                        1297 --line528
                        1298 ..lin.C.3A.5C_ECU2.5CECU_Rivian_A1.5CTarget.5Crepo_projects.5CpRealEcu.5CcL_R2023.2E09.2E01.5Cmake.5Coutput.5Cobjects.5Cr_fdl_user_if.114::
                        1299 .LDWlin114:
                        1300 	jarl	_R_FDL_FCUFct_ForcedStop,lp
                        1300 <EXPANSION BEGIN>
                        1300 jarl22 _R_FDL_FCUFct_ForcedStop , lp 
000005f8 80ff0000*      1300 <EXPANSION END>
                        1301 --line529
                        1302 ..lin.C.3A.5C_ECU2.5CECU_Rivian_A1.5CTarget.5Crepo_projects.5CpRealEcu.5CcL_R2023.2E09.2E01.5Cmake.5Coutput.5Cobjects.5Cr_fdl_user_if.115::
                        1303 .LDWlin115:
000005fc 0032           1304 	mov	0,r6
                        1305 	jarl	_R_FDL_FCUFct_SwitchMode_Start,lp
                        1305 <EXPANSION BEGIN>
                        1305 jarl22 _R_FDL_FCUFct_SwitchMode_Start , lp 
000005fe 80ff0000*      1305 <EXPANSION END>
                        1306 --line531
                        1307 ..lin.C.3A.5C_ECU2.5CECU_Rivian_A1.5CTarget.5Crepo_projects.5CpRealEcu.5CcL_R2023.2E09.2E01.5Cmake.5Coutput.5Cobjects.5Cr_fdl_user_if.116::
                        1308 .LDWlin116:
00000602 023a           1309 	mov	2,r7
00000604 5d3f2c00       1310 	st.b	r7,44[r29]
00000608 0132           1311 	mov	1,r6
0000060a 00da           1312 	mov	0,r27
0000060c 5c370000       1313 	st.b	r6,0[r28]
00000610 e565*          1314 	br	.L2356
                        1315 .L2364:
                        1316 --line537
                        1317 ..lin.C.3A.5C_ECU2.5CECU_Rivian_A1.5CTarget.5Crepo_projects.5CpRealEcu.5CcL_R2023.2E09.2E01.5Cmake.5Coutput.5Cobjects.5Cr_fdl_user_if.117::
                        1318 .LDWlin117:
00000612 1c38           1319 	mov	r28,r7
00000614 0a40           1320 	mov	r10,r8
                        1321 	jarl	_R_FDL_UFct_FlashOpStart,lp
                        1321 <EXPANSION BEGIN>
                        1321 jarl22 _R_FDL_UFct_FlashOpStart , lp 
00000616 bfff58fa*      1321 <EXPANSION END>
0000061a 0ad8           1322 	mov	r10,r27
0000061c 8565*          1323 	br	.L2356
                        1324 .L2369:
                        1325 --line545
                        1326 ..lin.C.3A.5C_ECU2.5CECU_Rivian_A1.5CTarget.5Crepo_projects.5CpRealEcu.5CcL_R2023.2E09.2E01.5Cmake.5Coutput.5Cobjects.5Cr_fdl_user_if.118::
                        1327 .LDWlin118:
                        1328 	jarl	_R_FDL_FCUFct_InitRAM,lp
                        1328 <EXPANSION BEGIN>
                        1328 jarl22 _R_FDL_FCUFct_InitRAM , lp 
0000061e 80ff0000*      1328 <EXPANSION END>
                        1329 --line547
                        1330 ..lin.C.3A.5C_ECU2.5CECU_Rivian_A1.5CTarget.5Crepo_projects.5CpRealEcu.5CcL_R2023.2E09.2E01.5Cmake.5Coutput.5Cobjects.5Cr_fdl_user_if.119::
                        1331 .LDWlin119:
00000622 20368000       1332 	movea	128,zero,r6
                        1333 	jarl	_R_FDL_FCUFct_SwitchMode_Start,lp
                        1333 <EXPANSION BEGIN>
                        1333 jarl22 _R_FDL_FCUFct_SwitchMode_Start , lp 
00000626 80ff0000*      1333 <EXPANSION END>

                                                                      Page 25
                                                              C:\Users\nhuliyap\AppData\Local\Temp\gh_0000d941.s
0000062a 5c570000       1334 	st.b	r10,0[r28]
                        1335 --line548
                        1336 ..lin.C.3A.5C_ECU2.5CECU_Rivian_A1.5CTarget.5Crepo_projects.5CpRealEcu.5CcL_R2023.2E09.2E01.5Cmake.5Coutput.5Cobjects.5Cr_fdl_user_if.120::
                        1337 .LDWlin120:
0000062e e051           1338 	cmp	zero,r10
00000630 ea05*          1339 	bne	.L2359
                        1340 --line550
                        1341 ..lin.C.3A.5C_ECU2.5CECU_Rivian_A1.5CTarget.5Crepo_projects.5CpRealEcu.5CcL_R2023.2E09.2E01.5Cmake.5Coutput.5Cobjects.5Cr_fdl_user_if.121::
                        1342 .LDWlin121:
00000632 5cdf0000       1343 	st.b	r27,0[r28]
00000636 0392           1344 	mov	3,r18
00000638 5d972c00       1345 	st.b	r18,44[r29]
                        1346 .L2359:
0000063c 00da           1347 	mov	0,r27
0000063e f54d*          1348 	br	.L2356
                        1349 .L2373:
                        1350 --line561
                        1351 ..lin.C.3A.5C_ECU2.5CECU_Rivian_A1.5CTarget.5Crepo_projects.5CpRealEcu.5CcL_R2023.2E09.2E01.5Cmake.5Coutput.5Cobjects.5Cr_fdl_user_if.122::
                        1352 .LDWlin122:
                        1353 	jarl	_R_FDL_FCUFct_ForcedStop,lp
                        1353 <EXPANSION BEGIN>
                        1353 jarl22 _R_FDL_FCUFct_ForcedStop , lp 
00000640 80ff0000*      1353 <EXPANSION END>
                        1354 --line562
                        1355 ..lin.C.3A.5C_ECU2.5CECU_Rivian_A1.5CTarget.5Crepo_projects.5CpRealEcu.5CcL_R2023.2E09.2E01.5Cmake.5Coutput.5Cobjects.5Cr_fdl_user_if.123::
                        1356 .LDWlin123:
                        1357 	jarl	_R_FDL_FCUFct_ClearStatus,lp
                        1357 <EXPANSION BEGIN>
                        1357 jarl22 _R_FDL_FCUFct_ClearStatus , lp 
00000644 80ff0000*      1357 <EXPANSION END>
                        1358 --line564
                        1359 ..lin.C.3A.5C_ECU2.5CECU_Rivian_A1.5CTarget.5Crepo_projects.5CpRealEcu.5CcL_R2023.2E09.2E01.5Cmake.5Coutput.5Cobjects.5Cr_fdl_user_if.124::
                        1360 .LDWlin124:
00000648 0032           1361 	mov	0,r6
                        1362 	jarl	_R_FDL_FCUFct_SwitchMode_Start,lp
                        1362 <EXPANSION BEGIN>
                        1362 jarl22 _R_FDL_FCUFct_SwitchMode_Start , lp 
0000064a 80ff0000*      1362 <EXPANSION END>
                        1363 --line566
                        1364 ..lin.C.3A.5C_ECU2.5CECU_Rivian_A1.5CTarget.5Crepo_projects.5CpRealEcu.5CcL_R2023.2E09.2E01.5Cmake.5Coutput.5Cobjects.5Cr_fdl_user_if.125::
                        1365 .LDWlin125:
0000064e 5cdf0000       1366 	st.b	r27,0[r28]
00000652 0482           1367 	mov	4,r16
00000654 5d872c00       1368 	st.b	r16,44[r29]
00000658 00da           1369 	mov	0,r27
0000065a 9545*          1370 	br	.L2356
                        1371 .L2375:
                        1372 --line574
                        1373 ..lin.C.3A.5C_ECU2.5CECU_Rivian_A1.5CTarget.5Crepo_projects.5CpRealEcu.5CcL_R2023.2E09.2E01.5Cmake.5Coutput.5Cobjects.5Cr_fdl_user_if.126::
                        1374 .LDWlin126:
                        1375 	jarl	_R_FDL_FCUFct_VerifyChecksum,lp
                        1375 <EXPANSION BEGIN>
                        1375 jarl22 _R_FDL_FCUFct_VerifyChecksum , lp 
0000065c 80ff0000*      1375 <EXPANSION END>
00000660 5c570000       1376 	st.b	r10,0[r28]
                        1377 --line576
                        1378 ..lin.C.3A.5C_ECU2.5CECU_Rivian_A1.5CTarget.5Crepo_projects.5CpRealEcu.5CcL_R2023.2E09.2E01.5Cmake.5Coutput.5Cobjects.5Cr_fdl_user_if.127::
                        1379 .LDWlin127:
00000664 6152           1380 	cmp	1,r10
00000666 ba15*          1381 	bne	.L2376
                        1382 --line578

                                                                      Page 26
                                                              C:\Users\nhuliyap\AppData\Local\Temp\gh_0000d941.s
                        1383 ..lin.C.3A.5C_ECU2.5CECU_Rivian_A1.5CTarget.5Crepo_projects.5CpRealEcu.5CcL_R2023.2E09.2E01.5Cmake.5Coutput.5Cobjects.5Cr_fdl_user_if.128::
                        1384 .LDWlin128:
                        1385 	jarl	_R_FDL_FCUFct_GetDFSize,lp
                        1385 <EXPANSION BEGIN>
                        1385 jarl22 _R_FDL_FCUFct_GetDFSize , lp 
00000668 80ff0000*      1385 <EXPANSION END>
                        1386 --line583
                        1387 ..lin.C.3A.5C_ECU2.5CECU_Rivian_A1.5CTarget.5Crepo_projects.5CpRealEcu.5CcL_R2023.2E09.2E01.5Cmake.5Coutput.5Cobjects.5Cr_fdl_user_if.129::
                        1388 .LDWlin129:
0000066c 3df70100       1389 	ld.w	0[r29],ep
00000670 c152           1390 	shl	1,r10
00000672 7d573500       1391 	st.w	r10,52[r29]
00000676 8652           1392 	shr	6,r10
00000678 7178           1393 	sld.hu	2[ep],r15
0000067a 0342           1394 	mov	3,r8
0000067c ea79           1395 	cmp	r10,r15
0000067e cb05*          1396 	bh	.L2454
                        1397 --line586
                        1398 ..lin.C.3A.5C_ECU2.5CECU_Rivian_A1.5CTarget.5Crepo_projects.5CpRealEcu.5CcL_R2023.2E09.2E01.5Cmake.5Coutput.5Cobjects.5Cr_fdl_user_if.130::
                        1399 .LDWlin130:
                        1400 	jarl	_R_FDL_FCUFct_SetFrequency,lp
                        1400 <EXPANSION BEGIN>
                        1400 jarl22 _R_FDL_FCUFct_SetFrequency , lp 
00000680 80ff0000*      1400 <EXPANSION END>
00000684 0a40           1401 	mov	r10,r8
                        1402 .L2454:
00000686 0850           1403 	mov	r8,r10
00000688 5c470000       1404 	st.b	r8,0[r28]
                        1405 .L2376:
                        1406 --line594
                        1407 ..lin.C.3A.5C_ECU2.5CECU_Rivian_A1.5CTarget.5Crepo_projects.5CpRealEcu.5CcL_R2023.2E09.2E01.5Cmake.5Coutput.5Cobjects.5Cr_fdl_user_if.131::
                        1408 .LDWlin131:
0000068c e051           1409 	cmp	zero,r10
0000068e fad5*          1410 	bne	.L2359
                        1411 --line596
                        1412 ..lin.C.3A.5C_ECU2.5CECU_Rivian_A1.5CTarget.5Crepo_projects.5CpRealEcu.5CcL_R2023.2E09.2E01.5Cmake.5Coutput.5Cobjects.5Cr_fdl_user_if.132::
                        1413 .LDWlin132:
00000690 2e0655555555   1414 	mov	1431655765,r14
00000696 7d775100       1415 	st.w	r14,80[r29]
0000069a 95d5*          1416 	br	.L2359
                        1417 .L2384:
                        1418 --line605
                        1419 ..lin.C.3A.5C_ECU2.5CECU_Rivian_A1.5CTarget.5Crepo_projects.5CpRealEcu.5CcL_R2023.2E09.2E01.5Cmake.5Coutput.5Cobjects.5Cr_fdl_user_if.133::
                        1420 .LDWlin133:
                        1421 	jarl	_R_FDL_FCUFct_Resume,lp
                        1421 <EXPANSION BEGIN>
                        1421 jarl22 _R_FDL_FCUFct_Resume , lp 
0000069c 80ff0000*      1421 <EXPANSION END>
                        1422 --line606
                        1423 ..lin.C.3A.5C_ECU2.5CECU_Rivian_A1.5CTarget.5Crepo_projects.5CpRealEcu.5CcL_R2023.2E09.2E01.5Cmake.5Coutput.5Cobjects.5Cr_fdl_user_if.134::
                        1424 .LDWlin134:
000006a0 076a           1425 	mov	7,r13
000006a2 5d6f2c00       1426 	st.b	r13,44[r29]
000006a6 5cdf0000       1427 	st.b	r27,0[r28]
000006aa 951d*          1428 	br	.L2356
                        1429 .L2386:
                        1430 --line613
                        1431 ..lin.C.3A.5C_ECU2.5CECU_Rivian_A1.5CTarget.5Crepo_projects.5CpRealEcu.5CcL_R2023.2E09.2E01.5Cmake.5Coutput.5Cobjects.5Cr_fdl_user_if.135::
                        1432 .LDWlin135:
000006ac 075a           1433 	mov	7,r11
000006ae 5d5f2c00       1434 	st.b	r11,44[r29]

                                                                      Page 27
                                                              C:\Users\nhuliyap\AppData\Local\Temp\gh_0000d941.s
000006b2 5cdf0000       1435 	st.b	r27,0[r28]
000006b6 b515*          1436 	br	.L2356
                        1437 .L2388:
                        1438 --line620
                        1439 ..lin.C.3A.5C_ECU2.5CECU_Rivian_A1.5CTarget.5Crepo_projects.5CpRealEcu.5CcL_R2023.2E09.2E01.5Cmake.5Coutput.5Cobjects.5Cr_fdl_user_if.136::
                        1440 .LDWlin136:
000006b8 1df0           1441 	mov	r29,ep
000006ba 474b           1442 	sld.b	71[ep],r9
000006bc ac03           1443 	sst.b	zero,44[ep]
000006be 0ad8           1444 	mov	r10,r27
000006c0 5c4f0000       1445 	st.b	r9,0[r28]
000006c4 c50d*          1446 	br	.L2356
                        1447 .L2390:
                        1448 --line628
                        1449 ..lin.C.3A.5C_ECU2.5CECU_Rivian_A1.5CTarget.5Crepo_projects.5CpRealEcu.5CcL_R2023.2E09.2E01.5Cmake.5Coutput.5Cobjects.5Cr_fdl_user_if.137::
                        1450 .LDWlin137:
000006c6 0242           1451 	mov	2,r8
000006c8 5c470000       1452 	st.b	r8,0[r28]
000006cc 1df0           1453 	mov	r29,ep
000006ce 143d           1454 	sld.w	40[ep],r7
000006d0 260657555555   1455 	mov	1431655767,r6
000006d6 2935           1456 	sst.w	r6,80[ep]
                        1457 --line632
                        1458 ..lin.C.3A.5C_ECU2.5CECU_Rivian_A1.5CTarget.5Crepo_projects.5CpRealEcu.5CcL_R2023.2E09.2E01.5Cmake.5Coutput.5Cobjects.5Cr_fdl_user_if.138::
                        1459 .LDWlin138:
000006d8 0ad8           1460 	mov	r10,r27
000006da 133d           1461 	sst.w	r7,36[ep]
                        1462 .L2356:
000006dc 1b50           1463 	mov	r27,r10
                        1464 --	    .ef
                        1465 .LDW92:
000006de 4006ff10       1466 	dispose	0,{r27,r28,r29,r31},[lp]
                        1467 ___ghs_eofn_R_FDL_Handler_OperationStates:
                        1468 	.type	_R_FDL_Handler_OperationStates,@function
                        1469 	.size	_R_FDL_Handler_OperationStates,.-_R_FDL_Handler_OperationStates
                        1470 	.type	_R_FDL_Handler_OperationStates..C.3A.5C_ECU2.5CECU_Rivian_A1.5CTarget.5Crepo_projects.5CpRealEcu.5CcL_R2023.2E09.2E01.5Cmake.5Coutput.5Cobjects.5Cr_fdl_user_if.,@function
                        1471 	.size	_R_FDL_Handler_OperationStates..C.3A.5C_ECU2.5CECU_Rivian_A1.5CTarget.5Crepo_projects.5CpRealEcu.5CcL_R2023.2E09.2E01.5Cmake.5Coutput.5Cobjects.5Cr_fdl_user_if.,.-_R_FDL_Handler_OperationStates..C.3A.5C_ECU2.5CECU_Rivian_A1.5CTarget.5Crepo_projects.5CpRealEcu.5CcL_R2023.2E09.2E01.5Cmake.5Coutput.5Cobjects.5Cr_fdl_user_if.
                        1472 	.align	2
                        1473 --_cont	r27	local
                        1474 
                        1475 --_tmpStat_penu	r28	param
                        1476 
                        1477 	.section ".bss","awb"
                        1478 .L2604:
                        1479 	.type	.L2604,@object
                        1480 	.size	.L2604,0
                        1481 	.data
                        1482 	.ghsnote jtable,2097156,.L2606,.L2606,.L2606,10
                        1483 	.text
                        1484 	.align	2
                        1485 	.align	2
                        1486 ..gh.f.f.1.e.12:
                        1487 	.type	..gh.f.f.1.e.12,@object
                        1488 	.size	..gh.f.f.1.e.12,0
                        1489 	.global	_R_FDL_UFct_StateNotStandBy..C.3A.5C_ECU2.5CECU_Rivian_A1.5CTarget.5Crepo_projects.5CpRealEcu.5CcL_R2023.2E09.2E01.5Cmake.5Coutput.5Cobjects.5Cr_fdl_user_if.
                        1490 _R_FDL_UFct_StateNotStandBy..C.3A.5C_ECU2.5CECU_Rivian_A1.5CTarget.5Crepo_projects.5CpRealEcu.5CcL_R2023.2E09.2E01.5Cmake.5Coutput.5Cobjects.5Cr_fdl_user_if.:
                        1491 _R_FDL_UFct_StateNotStandBy:
                        1492 --	    .bf
                        1493 .LDW03:
000006e2 404e0000*      1494 	movhi	hi(_g_fdl_str+80),zero,r9
000006e6 294f0100*      1495 	ld.w	lo(_g_fdl_str+80)[r9],r9

                                                                      Page 28
                                                              C:\Users\nhuliyap\AppData\Local\Temp\gh_0000d941.s
000006ea 280654555555   1496 	mov	1431655764,r8
000006f0 0990           1497 	mov	r9,r18
000006f2 a891           1498 	sub	r8,r18
000006f4 6292           1499 	cmp	2,r18
000006f6 f305*          1500 	bnh	.L2829
000006f8 083e0300       1501 	addi	3,r8,r7
000006fc e749           1502 	cmp	r7,r9
000006fe e2570000       1503 	setfe	r10
00000702 7f00           1504 	jmp	[lp]
                        1505 .L2829:
00000704 0152           1506 	mov	1,r10
                        1507 --	    .ef
                        1508 .LDW13:
                        1509 --line1105
                        1510 ..lin.C.3A.5C_ECU2.5CECU_Rivian_A1.5CTarget.5Crepo_projects.5CpRealEcu.5CcL_R2023.2E09.2E01.5Cmake.5Coutput.5Cobjects.5Cr_fdl_user_if.139::
                        1511 .LDWlin139:
00000706 7f00           1512 	jmp	[lp]
                        1513 ___ghs_eofn_R_FDL_UFct_StateNotStandBy:
                        1514 	.type	_R_FDL_UFct_StateNotStandBy,@function
                        1515 	.size	_R_FDL_UFct_StateNotStandBy,.-_R_FDL_UFct_StateNotStandBy
                        1516 	.type	_R_FDL_UFct_StateNotStandBy..C.3A.5C_ECU2.5CECU_Rivian_A1.5CTarget.5Crepo_projects.5CpRealEcu.5CcL_R2023.2E09.2E01.5Cmake.5Coutput.5Cobjects.5Cr_fdl_user_if.,@function
                        1517 	.size	_R_FDL_UFct_StateNotStandBy..C.3A.5C_ECU2.5CECU_Rivian_A1.5CTarget.5Crepo_projects.5CpRealEcu.5CcL_R2023.2E09.2E01.5Cmake.5Coutput.5Cobjects.5Cr_fdl_user_if.,.-_R_FDL_UFct_StateNotStandBy..C.3A.5C_ECU2.5CECU_Rivian_A1.5CTarget.5Crepo_projects.5CpRealEcu.5CcL_R2023.2E09.2E01.5Cmake.5Coutput.5Cobjects.5Cr_fdl_user_if.
                        1518 	.align	2
                        1519 --_ret	r10	local
                        1520 
                        1521 	.section ".bss","awb"
                        1522 .L2891:
                        1523 	.type	.L2891,@object
                        1524 	.size	.L2891,0
                        1525 	.data
                        1526 	.text
                        1527 	.align	2
                        1528 	.align	2
                        1529 ..gh.f.f.1.e.13:
                        1530 	.type	..gh.f.f.1.e.13,@object
                        1531 	.size	..gh.f.f.1.e.13,0
                        1532 	.global	_R_FDL_UFct_EndCurrentOperation..C.3A.5C_ECU2.5CECU_Rivian_A1.5CTarget.5Crepo_projects.5CpRealEcu.5CcL_R2023.2E09.2E01.5Cmake.5Coutput.5Cobjects.5Cr_fdl_user_if.
                        1533 _R_FDL_UFct_EndCurrentOperation..C.3A.5C_ECU2.5CECU_Rivian_A1.5CTarget.5Crepo_projects.5CpRealEcu.5CcL_R2023.2E09.2E01.5Cmake.5Coutput.5Cobjects.5Cr_fdl_user_if.:
                        1534 _R_FDL_UFct_EndCurrentOperation:
00000708 a600           1535 	sxb	r6
                        1536 --	    .bf
                        1537 .LDW23:
0000070a 320600000000*  1538 	mov	_g_fdl_str,r18
00000710 32f72900       1539 	ld.w	40[r18],ep
00000714 8f33           1540 	sst.b	r6,15[ep]
                        1541 --line1078
                        1542 ..lin.C.3A.5C_ECU2.5CECU_Rivian_A1.5CTarget.5Crepo_projects.5CpRealEcu.5CcL_R2023.2E09.2E01.5Cmake.5Coutput.5Cobjects.5Cr_fdl_user_if.140::
                        1543 .LDWlin140:
00000716 009b           1544 	sld.b	0[ep],r19
00000718 629a           1545 	cmp	2,r19
0000071a ea05*          1546 	bne	.L2935
0000071c 6932           1547 	cmp	9,r6
0000071e ca05*          1548 	bne	.L2935
                        1549 --line1080
                        1550 ..lin.C.3A.5C_ECU2.5CECU_Rivian_A1.5CTarget.5Crepo_projects.5CpRealEcu.5CcL_R2023.2E09.2E01.5Cmake.5Coutput.5Cobjects.5Cr_fdl_user_if.141::
                        1551 .LDWlin141:
00000720 328f3100       1552 	ld.w	48[r18],r17
00000724 058d           1553 	sst.w	r17,8[ep]
                        1554 .L2935:
00000726 8e03           1555 	sst.b	zero,14[ep]
00000728 12f0           1556 	mov	r18,ep

                                                                      Page 29
                                                              C:\Users\nhuliyap\AppData\Local\Temp\gh_0000d941.s
0000072a 1505           1557 	sst.w	zero,40[ep]
0000072c ac03           1558 	sst.b	zero,44[ep]
                        1559 --	    .ef
                        1560 .LDW33:
0000072e 7f00           1561 	jmp	[lp]
                        1562 ___ghs_eofn_R_FDL_UFct_EndCurrentOperation:
                        1563 	.type	_R_FDL_UFct_EndCurrentOperation,@function
                        1564 	.size	_R_FDL_UFct_EndCurrentOperation,.-_R_FDL_UFct_EndCurrentOperation
                        1565 	.type	_R_FDL_UFct_EndCurrentOperation..C.3A.5C_ECU2.5CECU_Rivian_A1.5CTarget.5Crepo_projects.5CpRealEcu.5CcL_R2023.2E09.2E01.5Cmake.5Coutput.5Cobjects.5Cr_fdl_user_if.,@function
                        1566 	.size	_R_FDL_UFct_EndCurrentOperation..C.3A.5C_ECU2.5CECU_Rivian_A1.5CTarget.5Crepo_projects.5CpRealEcu.5CcL_R2023.2E09.2E01.5Cmake.5Coutput.5Cobjects.5Cr_fdl_user_if.,.-_R_FDL_UFct_EndCurrentOperation..C.3A.5C_ECU2.5CECU_Rivian_A1.5CTarget.5Crepo_projects.5CpRealEcu.5CcL_R2023.2E09.2E01.5Cmake.5Coutput.5Cobjects.5Cr_fdl_user_if.
                        1567 	.align	2
                        1568 
                        1569 --_ret_enu	r6	param
                        1570 
                        1571 	.section ".bss","awb"
                        1572 .L2976:
                        1573 	.type	.L2976,@object
                        1574 	.size	.L2976,0
                        1575 	.data
                        1576 	.text
                        1577 	.align	2
                        1578 	.align	2
                        1579 ..gh.f.f.1.e.14:
                        1580 	.type	..gh.f.f.1.e.14,@object
                        1581 	.size	..gh.f.f.1.e.14,0
                        1582 	.global	_R_FDL_Handler
                        1583 _R_FDL_Handler:
00000730 82076100       1584 	prepare	{r29,r31},1
                        1585 --	    .bf
                        1586 .LDW43:
00000734 019a           1587 	mov	1,r19
00000736 439f0300       1588 	st.b	r19,3[sp]
                        1589 	jarl	_R_FDL_UFct_StateNotStandBy,lp
                        1589 <EXPANSION BEGIN>
                        1589 jarl22 _R_FDL_UFct_StateNotStandBy , lp 
0000073a bfffa8ff*      1589 <EXPANSION END>
0000073e 6152           1590 	cmp	1,r10
00000740 9a55*          1591 	bne	.L3021
00000742 3d0600000000*  1592 	mov	_g_fdl_str,r29
00000748 3d4f2900       1593 	ld.w	40[r29],r9
0000074c e049           1594 	cmp	zero,r9
0000074e 9a0d*          1595 	bne	.L3024
00000750 1d474a00       1596 	ld.b	74[r29],r8
00000754 6142           1597 	cmp	1,r8
00000756 d205*          1598 	be	.L3024
00000758 1d3f4800       1599 	ld.b	72[r29],r7
0000075c 613a           1600 	cmp	1,r7
0000075e aa45*          1601 	bne	.L3021
                        1602 .L3024:
                        1603 --line667
                        1604 ..lin.C.3A.5C_ECU2.5CECU_Rivian_A1.5CTarget.5Crepo_projects.5CpRealEcu.5CcL_R2023.2E09.2E01.5Cmake.5Coutput.5Cobjects.5Cr_fdl_user_if.142::
                        1605 .LDWlin142:
00000760 23360300       1606 	movea	3,sp,r6
                        1607 	jarl	_R_FDL_Handler_CancelReq,lp
                        1607 <EXPANSION BEGIN>
                        1607 jarl22 _R_FDL_Handler_CancelReq , lp 
00000764 bfff32fb*      1607 <EXPANSION END>
                        1608 --line669
                        1609 ..lin.C.3A.5C_ECU2.5CECU_Rivian_A1.5CTarget.5Crepo_projects.5CpRealEcu.5CcL_R2023.2E09.2E01.5Cmake.5Coutput.5Cobjects.5Cr_fdl_user_if.143::
                        1610 .LDWlin143:
00000768 6152           1611 	cmp	1,r10

                                                                      Page 30
                                                              C:\Users\nhuliyap\AppData\Local\Temp\gh_0000d941.s
0000076a ea35*          1612 	bne	.L3042
                        1613 --line671
                        1614 ..lin.C.3A.5C_ECU2.5CECU_Rivian_A1.5CTarget.5Crepo_projects.5CpRealEcu.5CcL_R2023.2E09.2E01.5Cmake.5Coutput.5Cobjects.5Cr_fdl_user_if.144::
                        1615 .LDWlin144:
                        1616 	jarl	_R_FDL_Handler_BusyAndSuspendPossible,lp
                        1616 <EXPANSION BEGIN>
                        1616 jarl22 _R_FDL_Handler_BusyAndSuspendPossible , lp 
0000076c bfff94fb*      1616 <EXPANSION END>
                        1617 --line674
                        1618 ..lin.C.3A.5C_ECU2.5CECU_Rivian_A1.5CTarget.5Crepo_projects.5CpRealEcu.5CcL_R2023.2E09.2E01.5Cmake.5Coutput.5Cobjects.5Cr_fdl_user_if.145::
                        1619 .LDWlin145:
00000770 6152           1620 	cmp	1,r10
00000772 aa35*          1621 	bne	.L3042
                        1622 --line676
                        1623 ..lin.C.3A.5C_ECU2.5CECU_Rivian_A1.5CTarget.5Crepo_projects.5CpRealEcu.5CcL_R2023.2E09.2E01.5Cmake.5Coutput.5Cobjects.5Cr_fdl_user_if.146::
                        1624 .LDWlin146:
00000774 23360300       1625 	movea	3,sp,r6
                        1626 	jarl	_R_FDL_Handler_ChkResume,lp
                        1626 <EXPANSION BEGIN>
                        1626 jarl22 _R_FDL_Handler_ChkResume , lp 
00000778 bfffbcfb*      1626 <EXPANSION END>
                        1627 --line679
                        1628 ..lin.C.3A.5C_ECU2.5CECU_Rivian_A1.5CTarget.5Crepo_projects.5CpRealEcu.5CcL_R2023.2E09.2E01.5Cmake.5Coutput.5Cobjects.5Cr_fdl_user_if.147::
                        1629 .LDWlin147:
0000077c 6152           1630 	cmp	1,r10
0000077e ca2d*          1631 	bne	.L3042
                        1632 --line681
                        1633 ..lin.C.3A.5C_ECU2.5CECU_Rivian_A1.5CTarget.5Crepo_projects.5CpRealEcu.5CcL_R2023.2E09.2E01.5Cmake.5Coutput.5Cobjects.5Cr_fdl_user_if.148::
                        1634 .LDWlin148:
00000780 23360300       1635 	movea	3,sp,r6
                        1636 	jarl	_R_FDL_Handler_OperationStates,lp
                        1636 <EXPANSION BEGIN>
                        1636 jarl22 _R_FDL_Handler_OperationStates , lp 
00000784 bfff04fe*      1636 <EXPANSION END>
                        1637 --line684
                        1638 ..lin.C.3A.5C_ECU2.5CECU_Rivian_A1.5CTarget.5Crepo_projects.5CpRealEcu.5CcL_R2023.2E09.2E01.5Cmake.5Coutput.5Cobjects.5Cr_fdl_user_if.149::
                        1639 .LDWlin149:
00000788 6152           1640 	cmp	1,r10
0000078a ea25*          1641 	bne	.L3042
                        1642 --line686
                        1643 ..lin.C.3A.5C_ECU2.5CECU_Rivian_A1.5CTarget.5Crepo_projects.5CpRealEcu.5CcL_R2023.2E09.2E01.5Cmake.5Coutput.5Cobjects.5Cr_fdl_user_if.150::
                        1644 .LDWlin150:
                        1645 	jarl	_R_FDL_FCUFct_ChkReady,lp
                        1645 <EXPANSION BEGIN>
                        1645 jarl22 _R_FDL_FCUFct_ChkReady , lp 
0000078c 80ff0000*      1645 <EXPANSION END>
                        1646 --line689
                        1647 ..lin.C.3A.5C_ECU2.5CECU_Rivian_A1.5CTarget.5Crepo_projects.5CpRealEcu.5CcL_R2023.2E09.2E01.5Cmake.5Coutput.5Cobjects.5Cr_fdl_user_if.151::
                        1648 .LDWlin151:
00000790 6152           1649 	cmp	1,r10
00000792 aa25*          1650 	bne	.L3042
                        1651 --line691
                        1652 ..lin.C.3A.5C_ECU2.5CECU_Rivian_A1.5CTarget.5Crepo_projects.5CpRealEcu.5CcL_R2023.2E09.2E01.5Cmake.5Coutput.5Cobjects.5Cr_fdl_user_if.152::
                        1653 .LDWlin152:
00000794 23360300       1654 	movea	3,sp,r6
                        1655 	jarl	_R_FDL_Handler_ReactOnFatalErrors,lp
                        1655 <EXPANSION BEGIN>
                        1655 jarl22 _R_FDL_Handler_ReactOnFatalErrors , lp 
00000798 bfff4efc*      1655 <EXPANSION END>
                        1656 --line694
                        1657 ..lin.C.3A.5C_ECU2.5CECU_Rivian_A1.5CTarget.5Crepo_projects.5CpRealEcu.5CcL_R2023.2E09.2E01.5Cmake.5Coutput.5Cobjects.5Cr_fdl_user_if.153::

                                                                      Page 31
                                                              C:\Users\nhuliyap\AppData\Local\Temp\gh_0000d941.s
                        1658 .LDWlin153:
0000079c 6152           1659 	cmp	1,r10
0000079e ca1d*          1660 	bne	.L3042
                        1661 --line696
                        1662 ..lin.C.3A.5C_ECU2.5CECU_Rivian_A1.5CTarget.5Crepo_projects.5CpRealEcu.5CcL_R2023.2E09.2E01.5Cmake.5Coutput.5Cobjects.5Cr_fdl_user_if.154::
                        1663 .LDWlin154:
000007a0 23360300       1664 	movea	3,sp,r6
                        1665 	jarl	_R_FDL_Handler_StatusCheckAndSuspendOnReady,lp
                        1665 <EXPANSION BEGIN>
                        1665 jarl22 _R_FDL_Handler_StatusCheckAndSuspendOnReady , lp 
000007a4 bfff80fc*      1665 <EXPANSION END>
                        1666 --line699
                        1667 ..lin.C.3A.5C_ECU2.5CECU_Rivian_A1.5CTarget.5Crepo_projects.5CpRealEcu.5CcL_R2023.2E09.2E01.5Cmake.5Coutput.5Cobjects.5Cr_fdl_user_if.155::
                        1668 .LDWlin155:
000007a8 6152           1669 	cmp	1,r10
000007aa ea15*          1670 	bne	.L3042
                        1671 --line701
                        1672 ..lin.C.3A.5C_ECU2.5CECU_Rivian_A1.5CTarget.5Crepo_projects.5CpRealEcu.5CcL_R2023.2E09.2E01.5Cmake.5Coutput.5Cobjects.5Cr_fdl_user_if.156::
                        1673 .LDWlin156:
000007ac 23360300       1674 	movea	3,sp,r6
                        1675 	jarl	_R_FDL_Handler_MultiOperation,lp
                        1675 <EXPANSION BEGIN>
                        1675 jarl22 _R_FDL_Handler_MultiOperation , lp 
000007b0 bffffafc*      1675 <EXPANSION END>
                        1676 --line704
                        1677 ..lin.C.3A.5C_ECU2.5CECU_Rivian_A1.5CTarget.5Crepo_projects.5CpRealEcu.5CcL_R2023.2E09.2E01.5Cmake.5Coutput.5Cobjects.5Cr_fdl_user_if.157::
                        1678 .LDWlin157:
000007b4 6152           1679 	cmp	1,r10
000007b6 8a15*          1680 	bne	.L3042
                        1681 --line706
                        1682 ..lin.C.3A.5C_ECU2.5CECU_Rivian_A1.5CTarget.5Crepo_projects.5CpRealEcu.5CcL_R2023.2E09.2E01.5Cmake.5Coutput.5Cobjects.5Cr_fdl_user_if.158::
                        1683 .LDWlin158:
000007b8 0032           1684 	mov	0,r6
                        1685 	jarl	_R_FDL_FCUFct_SwitchMode_Start,lp
                        1685 <EXPANSION BEGIN>
                        1685 jarl22 _R_FDL_FCUFct_SwitchMode_Start , lp 
000007ba 80ff0000*      1685 <EXPANSION END>
                        1686 --line707
                        1687 ..lin.C.3A.5C_ECU2.5CECU_Rivian_A1.5CTarget.5Crepo_projects.5CpRealEcu.5CcL_R2023.2E09.2E01.5Cmake.5Coutput.5Cobjects.5Cr_fdl_user_if.159::
                        1688 .LDWlin159:
                        1689 	jarl	_R_FDL_FCUFct_SwitchMode_Check,lp
                        1689 <EXPANSION BEGIN>
                        1689 jarl22 _R_FDL_FCUFct_SwitchMode_Check , lp 
000007be 80ff0000*      1689 <EXPANSION END>
                        1690 --line708
                        1691 ..lin.C.3A.5C_ECU2.5CECU_Rivian_A1.5CTarget.5Crepo_projects.5CpRealEcu.5CcL_R2023.2E09.2E01.5Cmake.5Coutput.5Cobjects.5Cr_fdl_user_if.160::
                        1692 .LDWlin160:
000007c2 6152           1693 	cmp	1,r10
000007c4 9a0d*          1694 	bne	.L3042
                        1695 --line712
                        1696 ..lin.C.3A.5C_ECU2.5CECU_Rivian_A1.5CTarget.5Crepo_projects.5CpRealEcu.5CcL_R2023.2E09.2E01.5Cmake.5Coutput.5Cobjects.5Cr_fdl_user_if.161::
                        1697 .LDWlin161:
000007c6 039f0300       1698 	ld.b	3[sp],r19
000007ca 0932           1699 	mov	9,r6
000007cc 1df0           1700 	mov	r29,ep
000007ce ac33           1701 	sst.b	r6,44[ep]
000007d0 c79b           1702 	sst.b	r19,71[ep]
000007d2 42067f00       1703 	dispose	1,{r29,r31},[lp]
                        1704 .L3042:
                        1705 --line717
                        1706 ..lin.C.3A.5C_ECU2.5CECU_Rivian_A1.5CTarget.5Crepo_projects.5CpRealEcu.5CcL_R2023.2E09.2E01.5Cmake.5Coutput.5Cobjects.5Cr_fdl_user_if.162::

                                                                      Page 32
                                                              C:\Users\nhuliyap\AppData\Local\Temp\gh_0000d941.s
                        1707 .LDWlin162:
000007d6 03370300       1708 	ld.b	3[sp],r6
000007da 6132           1709 	cmp	1,r6
000007dc b205*          1710 	be	.L3021
                        1711 --line719
                        1712 ..lin.C.3A.5C_ECU2.5CECU_Rivian_A1.5CTarget.5Crepo_projects.5CpRealEcu.5CcL_R2023.2E09.2E01.5Cmake.5Coutput.5Cobjects.5Cr_fdl_user_if.163::
                        1713 .LDWlin163:
                        1714 	jarl	_R_FDL_UFct_EndCurrentOperation,lp
                        1714 <EXPANSION BEGIN>
                        1714 jarl22 _R_FDL_UFct_EndCurrentOperation , lp 
000007de bfff2aff*      1714 <EXPANSION END>
                        1715 .L3021:
                        1716 --	    .ef
                        1717 .LDW53:
                        1718 --line727
                        1719 ..lin.C.3A.5C_ECU2.5CECU_Rivian_A1.5CTarget.5Crepo_projects.5CpRealEcu.5CcL_R2023.2E09.2E01.5Cmake.5Coutput.5Cobjects.5Cr_fdl_user_if.164::
                        1720 .LDWlin164:
000007e2 42067f00       1721 	dispose	1,{r29,r31},[lp]
                        1722 	.global	___ghs_eofn_R_FDL_Handler
                        1723 ___ghs_eofn_R_FDL_Handler:
                        1724 	.type	_R_FDL_Handler,@function
                        1725 	.size	_R_FDL_Handler,.-_R_FDL_Handler
                        1726 	.align	2
                        1727 --_contHdrFct	r10	local
                        1728 --_tmpStatus	3[sp]	local
                        1729 
                        1730 	.section ".bss","awb"
                        1731 .L3358:
                        1732 	.type	.L3358,@object
                        1733 	.size	.L3358,0
                        1734 	.data
                        1735 	.text
                        1736 	.align	2
                        1737 	.align	2
                        1738 ..gh.f.f.1.e.15:
                        1739 	.type	..gh.f.f.1.e.15,@object
                        1740 	.size	..gh.f.f.1.e.15,0
                        1741 	.global	_R_FDL_GetVersionString
                        1742 _R_FDL_GetVersionString:
                        1743 --	    .bf
                        1744 .LDW63:
000007e6 2a0600000000*  1745 	mov	.L3581,r10
                        1746 --	    .ef
                        1747 .LDW73:
                        1748 --line735
                        1749 ..lin.C.3A.5C_ECU2.5CECU_Rivian_A1.5CTarget.5Crepo_projects.5CpRealEcu.5CcL_R2023.2E09.2E01.5Cmake.5Coutput.5Cobjects.5Cr_fdl_user_if.165::
                        1750 .LDWlin165:
000007ec 7f00           1751 	jmp	[lp]
                        1752 	.global	___ghs_eofn_R_FDL_GetVersionString
                        1753 ___ghs_eofn_R_FDL_GetVersionString:
                        1754 	.type	_R_FDL_GetVersionString,@function
                        1755 	.size	_R_FDL_GetVersionString,.-_R_FDL_GetVersionString
                        1756 	.align	2
                        1757 --_r_fdl_vStr	.L3581	static
                        1758 
                        1759 	.section ".bss","awb"
                        1760 .L3569:
                        1761 	.type	.L3569,@object
                        1762 	.size	.L3569,0
                        1763 	.section ".rodata","a"
                        1764 	.align	4

                                                                      Page 33
                                                              C:\Users\nhuliyap\AppData\Local\Temp\gh_0000d941.s
                        1765 .L3581:
                        1766 	.global	_r_fdl_vStr.R_FDL_GetVersionString.C.3A.5C_ECU2.5CECU_Rivian_A1.5CTarget.5Crepo_projects.5CpRealEcu.5CcL_R2023.2E09.2E01.5Cmake.5Coutput.5Cobjects.5Cr_fdl_user_if..0
                        1767 _r_fdl_vStr.R_FDL_GetVersionString.C.3A.5C_ECU2.5CECU_Rivian_A1.5CTarget.5Crepo_projects.5CpRealEcu.5CcL_R2023.2E09.2E01.5Cmake.5Coutput.5Cobjects.5Cr_fdl_user_if..0:
                        1768 --	"DH850T01xxxxxxV200"
00000000 44483835       1769 	.byte	68,72,56,53
00000004 30543031       1770 	.byte	48,84,48,49
00000008 78787878       1771 	.byte	120,120,120,120
0000000c 78785632       1772 	.byte	120,120,86,50
00000010 3030           1773 	.byte	48,48
00000012 00             1774 	.byte	0
00000013 00             1775 	.space	1
                        1776 	.type	_r_fdl_vStr.R_FDL_GetVersionString.C.3A.5C_ECU2.5CECU_Rivian_A1.5CTarget.5Crepo_projects.5CpRealEcu.5CcL_R2023.2E09.2E01.5Cmake.5Coutput.5Cobjects.5Cr_fdl_user_if..0,@object
                        1777 	.size	_r_fdl_vStr.R_FDL_GetVersionString.C.3A.5C_ECU2.5CECU_Rivian_A1.5CTarget.5Crepo_projects.5CpRealEcu.5CcL_R2023.2E09.2E01.5Cmake.5Coutput.5Cobjects.5Cr_fdl_user_if..0,20
                        1778 	.type	.L3581,@object
                        1779 	.size	.L3581,20
                        1780 	.data
                        1781 	.text
                        1782 	.align	2
                        1783 	.align	2
                        1784 ..gh.f.f.1.e.16:
                        1785 	.type	..gh.f.f.1.e.16,@object
                        1786 	.size	..gh.f.f.1.e.16,0
                        1787 	.global	_R_FDL_SuspendRequest
                        1788 _R_FDL_SuspendRequest:
000007ee 80076100       1789 	prepare	{r29,r31},0
                        1790 --	    .bf
                        1791 .LDW83:
000007f2 06ea           1792 	mov	6,r29
                        1793 	jarl	_R_FDL_UFct_StateNotStandBy,lp
                        1793 <EXPANSION BEGIN>
                        1793 jarl22 _R_FDL_UFct_StateNotStandBy , lp 
000007f4 bfffeefe*      1793 <EXPANSION END>
000007f8 6152           1794 	cmp	1,r10
000007fa da15*          1795 	bne	.L3590
                        1796 --line755
                        1797 ..lin.C.3A.5C_ECU2.5CECU_Rivian_A1.5CTarget.5Crepo_projects.5CpRealEcu.5CcL_R2023.2E09.2E01.5Cmake.5Coutput.5Cobjects.5Cr_fdl_user_if.166::
                        1798 .LDWlin166:
000007fc 3e0600000000*  1799 	mov	_g_fdl_str,ep
00000802 144d           1800 	sld.w	40[ep],r9
00000804 e049           1801 	cmp	zero,r9
00000806 f20d*          1802 	be	.L3590
00000808 1245           1803 	sld.w	36[ep],r8
0000080a e041           1804 	cmp	zero,r8
0000080c ca0d*          1805 	bne	.L3590
0000080e 2835           1806 	sld.w	80[ep],r6
00000810 270655555555   1807 	mov	1431655765,r7
00000816 e731           1808 	cmp	r7,r6
00000818 ea05*          1809 	bne	.L3590
0000081a 4893           1810 	sld.b	72[ep],r18
0000081c e091           1811 	cmp	zero,r18
0000081e ba05*          1812 	bne	.L3590
                        1813 --line760
                        1814 ..lin.C.3A.5C_ECU2.5CECU_Rivian_A1.5CTarget.5Crepo_projects.5CpRealEcu.5CcL_R2023.2E09.2E01.5Cmake.5Coutput.5Cobjects.5Cr_fdl_user_if.167::
                        1815 .LDWlin167:
00000820 08e8           1816 	mov	r8,r29
00000822 c953           1817 	sst.b	r10,73[ep]
                        1818 .L3590:
00000824 1d50           1819 	mov	r29,r10
                        1820 --	    .ef
                        1821 .LDW93:
00000826 40067f00       1822 	dispose	0,{r29,r31},[lp]

                                                                      Page 34
                                                              C:\Users\nhuliyap\AppData\Local\Temp\gh_0000d941.s
                        1823 	.global	___ghs_eofn_R_FDL_SuspendRequest
                        1824 ___ghs_eofn_R_FDL_SuspendRequest:
                        1825 	.type	_R_FDL_SuspendRequest,@function
                        1826 	.size	_R_FDL_SuspendRequest,.-_R_FDL_SuspendRequest
                        1827 	.align	2
                        1828 --_ret	r29	local
                        1829 
                        1830 	.section ".bss","awb"
                        1831 .L3665:
                        1832 	.type	.L3665,@object
                        1833 	.size	.L3665,0
                        1834 	.data
                        1835 	.text
                        1836 	.align	2
                        1837 	.align	2
                        1838 ..gh.f.f.1.e.17:
                        1839 	.type	..gh.f.f.1.e.17,@object
                        1840 	.size	..gh.f.f.1.e.17,0
                        1841 	.global	_R_FDL_ResumeRequest
                        1842 _R_FDL_ResumeRequest:
0000082a 80076100       1843 	prepare	{r29,r31},0
                        1844 --	    .bf
                        1845 .LDW04:
0000082e 00ea           1846 	mov	0,r29
                        1847 	jarl	_R_FDL_UFct_StateNotStandBy,lp
                        1847 <EXPANSION BEGIN>
                        1847 jarl22 _R_FDL_UFct_StateNotStandBy , lp 
00000830 bfffb2fe*      1847 <EXPANSION END>
00000834 6152           1848 	cmp	1,r10
00000836 fa0d*          1849 	bne	.L3739
                        1850 --line780
                        1851 ..lin.C.3A.5C_ECU2.5CECU_Rivian_A1.5CTarget.5Crepo_projects.5CpRealEcu.5CcL_R2023.2E09.2E01.5Cmake.5Coutput.5Cobjects.5Cr_fdl_user_if.168::
                        1852 .LDWlin168:
00000838 3e0600000000*  1853 	mov	_g_fdl_str,ep
0000083e 2845           1854 	sld.w	80[ep],r8
00000840 290657555555   1855 	mov	1431655767,r9
00000846 e941           1856 	cmp	r9,r8
00000848 ea05*          1857 	bne	.L3739
0000084a 483b           1858 	sld.b	72[ep],r7
0000084c e039           1859 	cmp	zero,r7
0000084e ba05*          1860 	bne	.L3739
                        1861 --line783
                        1862 ..lin.C.3A.5C_ECU2.5CECU_Rivian_A1.5CTarget.5Crepo_projects.5CpRealEcu.5CcL_R2023.2E09.2E01.5Cmake.5Coutput.5Cobjects.5Cr_fdl_user_if.169::
                        1863 .LDWlin169:
00000850 ca53           1864 	sst.b	r10,74[ep]
00000852 a505*          1865 	br	.L3745
                        1866 .L3739:
                        1867 --line790
                        1868 ..lin.C.3A.5C_ECU2.5CECU_Rivian_A1.5CTarget.5Crepo_projects.5CpRealEcu.5CcL_R2023.2E09.2E01.5Cmake.5Coutput.5Cobjects.5Cr_fdl_user_if.170::
                        1869 .LDWlin170:
00000854 06ea           1870 	mov	6,r29
                        1871 .L3745:
00000856 1d50           1872 	mov	r29,r10
                        1873 --	    .ef
                        1874 .LDW14:
00000858 40067f00       1875 	dispose	0,{r29,r31},[lp]
                        1876 	.global	___ghs_eofn_R_FDL_ResumeRequest
                        1877 ___ghs_eofn_R_FDL_ResumeRequest:
                        1878 	.type	_R_FDL_ResumeRequest,@function
                        1879 	.size	_R_FDL_ResumeRequest,.-_R_FDL_ResumeRequest
                        1880 	.align	2

                                                                      Page 35
                                                              C:\Users\nhuliyap\AppData\Local\Temp\gh_0000d941.s
                        1881 --_ret	r29	local
                        1882 
                        1883 	.section ".bss","awb"
                        1884 .L3812:
                        1885 	.type	.L3812,@object
                        1886 	.size	.L3812,0
                        1887 	.data
                        1888 	.text
                        1889 	.align	2
                        1890 	.align	2
                        1891 ..gh.f.f.1.e.18:
                        1892 	.type	..gh.f.f.1.e.18,@object
                        1893 	.size	..gh.f.f.1.e.18,0
                        1894 	.global	_R_FDL_StandBy
                        1895 _R_FDL_StandBy:
0000085c 8007e110       1896 	prepare	{r27,r28,r29,r31},0
                        1897 --	    .bf
                        1898 .LDW24:
00000860 3c0600000000*  1899 	mov	_g_fdl_str,r28
00000866 3cdf5100       1900 	ld.w	80[r28],r27
0000086a 3d0654555555   1901 	mov	1431655764,r29
00000870 1d960400       1902 	addi	4,r29,r18
00000874 f2d9           1903 	cmp	r18,r27
00000876 c20d*          1904 	be	.L3881
                        1905 	jarl	_R_FDL_UFct_StateNotStandBy,lp
                        1905 <EXPANSION BEGIN>
                        1905 jarl22 _R_FDL_UFct_StateNotStandBy , lp 
00000878 bfff6afe*      1905 <EXPANSION END>
0000087c 6152           1906 	cmp	1,r10
0000087e aa1d*          1907 	bne	.L3877
                        1908 --line808
                        1909 ..lin.C.3A.5C_ECU2.5CECU_Rivian_A1.5CTarget.5Crepo_projects.5CpRealEcu.5CcL_R2023.2E09.2E01.5Cmake.5Coutput.5Cobjects.5Cr_fdl_user_if.171::
                        1910 .LDWlin171:
00000880 fdd9           1911 	cmp	r29,r27
00000882 821d*          1912 	be	.L3877
                        1913 --line810
                        1914 ..lin.C.3A.5C_ECU2.5CECU_Rivian_A1.5CTarget.5Crepo_projects.5CpRealEcu.5CcL_R2023.2E09.2E01.5Cmake.5Coutput.5Cobjects.5Cr_fdl_user_if.172::
                        1915 .LDWlin172:
00000884 1cf0           1916 	mov	r28,ep
00000886 1d4e0400       1917 	addi	4,r29,r9
0000088a 27dd           1918 	sst.w	r27,76[ep]
0000088c 294d           1919 	sst.w	r9,80[ep]
                        1920 .L3881:
                        1921 	jarl	_R_FDL_FCUFct_ChkReady,lp
                        1921 <EXPANSION BEGIN>
                        1921 jarl22 _R_FDL_FCUFct_ChkReady , lp 
0000088e 80ff0000*      1921 <EXPANSION END>
00000892 e051           1922 	cmp	zero,r10
00000894 9a0d*          1923 	bne	.L3883
                        1924 --line818
                        1925 ..lin.C.3A.5C_ECU2.5CECU_Rivian_A1.5CTarget.5Crepo_projects.5CpRealEcu.5CcL_R2023.2E09.2E01.5Cmake.5Coutput.5Cobjects.5Cr_fdl_user_if.173::
                        1926 .LDWlin173:
00000896 01ea           1927 	mov	1,r29
                        1928 	jarl	_R_FDL_FCUFct_ChkSuspendable,lp
                        1928 <EXPANSION BEGIN>
                        1928 jarl22 _R_FDL_FCUFct_ChkSuspendable , lp 
00000898 80ff0000*      1928 <EXPANSION END>
0000089c 6152           1929 	cmp	1,r10
0000089e ba0d*          1930 	bne	.L3888
                        1931 --line822
                        1932 ..lin.C.3A.5C_ECU2.5CECU_Rivian_A1.5CTarget.5Crepo_projects.5CpRealEcu.5CcL_R2023.2E09.2E01.5Cmake.5Coutput.5Cobjects.5Cr_fdl_user_if.174::

                                                                      Page 36
                                                              C:\Users\nhuliyap\AppData\Local\Temp\gh_0000d941.s
                        1933 .LDWlin174:
                        1934 	jarl	_R_FDL_FCUFct_Suspend,lp
                        1934 <EXPANSION BEGIN>
                        1934 jarl22 _R_FDL_FCUFct_Suspend , lp 
000008a0 80ff0000*      1934 <EXPANSION END>
000008a4 850d*          1935 	br	.L3888
                        1936 .L3883:
                        1937 --line827
                        1938 ..lin.C.3A.5C_ECU2.5CECU_Rivian_A1.5CTarget.5Crepo_projects.5CpRealEcu.5CcL_R2023.2E09.2E01.5Cmake.5Coutput.5Cobjects.5Cr_fdl_user_if.175::
                        1939 .LDWlin175:
000008a6 1d4e0500       1940 	addi	5,r29,r9
000008aa 7c4f5100       1941 	st.w	r9,80[r28]
000008ae 00ea           1942 	mov	0,r29
000008b0 a505*          1943 	br	.L3888
                        1944 .L3877:
                        1945 --line833
                        1946 ..lin.C.3A.5C_ECU2.5CECU_Rivian_A1.5CTarget.5Crepo_projects.5CpRealEcu.5CcL_R2023.2E09.2E01.5Cmake.5Coutput.5Cobjects.5Cr_fdl_user_if.176::
                        1947 .LDWlin176:
000008b2 06ea           1948 	mov	6,r29
                        1949 .L3888:
000008b4 1d50           1950 	mov	r29,r10
                        1951 --	    .ef
                        1952 .LDW34:
000008b6 4006ff10       1953 	dispose	0,{r27,r28,r29,r31},[lp]
                        1954 	.global	___ghs_eofn_R_FDL_StandBy
                        1955 ___ghs_eofn_R_FDL_StandBy:
                        1956 	.type	_R_FDL_StandBy,@function
                        1957 	.size	_R_FDL_StandBy,.-_R_FDL_StandBy
                        1958 	.align	2
                        1959 --_ret	r29	local
                        1960 
                        1961 	.section ".bss","awb"
                        1962 .L3990:
                        1963 	.type	.L3990,@object
                        1964 	.size	.L3990,0
                        1965 	.data
                        1966 	.text
                        1967 	.align	2
                        1968 	.align	2
                        1969 ..gh.f.f.1.e.19:
                        1970 	.type	..gh.f.f.1.e.19,@object
                        1971 	.size	..gh.f.f.1.e.19,0
                        1972 	.global	_R_FDL_WakeUp
                        1973 _R_FDL_WakeUp:
000008ba 80077b000000*  1974 	prepare	{r29,r31},0,_g_fdl_str
000008c0 0000*
                        1975 --	    .bf
                        1976 .LDW44:
000008c2 288d           1977 	sld.w	80[ep],r17
000008c4 320659555555   1978 	mov	1431655769,r18
000008ca f289           1979 	cmp	r18,r17
000008cc ba0d*          1980 	bne	.L4091
                        1981 --line850
                        1982 ..lin.C.3A.5C_ECU2.5CECU_Rivian_A1.5CTarget.5Crepo_projects.5CpRealEcu.5CcL_R2023.2E09.2E01.5Cmake.5Coutput.5Cobjects.5Cr_fdl_user_if.177::
                        1983 .LDWlin177:
000008ce 2685           1984 	sld.w	76[ep],r16
000008d0 00ea           1985 	mov	0,r29
000008d2 2985           1986 	sst.w	r16,80[ep]
                        1987 	jarl	_R_FDL_FCUFct_ResumeChkNeed,lp
                        1987 <EXPANSION BEGIN>
                        1987 jarl22 _R_FDL_FCUFct_ResumeChkNeed , lp 

                                                                      Page 37
                                                              C:\Users\nhuliyap\AppData\Local\Temp\gh_0000d941.s
000008d4 80ff0000*      1987 <EXPANSION END>
000008d8 6152           1988 	cmp	1,r10
000008da da05*          1989 	bne	.L4095
                        1990 --line854
                        1991 ..lin.C.3A.5C_ECU2.5CECU_Rivian_A1.5CTarget.5Crepo_projects.5CpRealEcu.5CcL_R2023.2E09.2E01.5Cmake.5Coutput.5Cobjects.5Cr_fdl_user_if.178::
                        1992 .LDWlin178:
                        1993 	jarl	_R_FDL_FCUFct_Resume,lp
                        1993 <EXPANSION BEGIN>
                        1993 jarl22 _R_FDL_FCUFct_Resume , lp 
000008dc 80ff0000*      1993 <EXPANSION END>
000008e0 a505*          1994 	br	.L4095
                        1995 .L4091:
                        1996 --line858
                        1997 ..lin.C.3A.5C_ECU2.5CECU_Rivian_A1.5CTarget.5Crepo_projects.5CpRealEcu.5CcL_R2023.2E09.2E01.5Cmake.5Coutput.5Cobjects.5Cr_fdl_user_if.179::
                        1998 .LDWlin179:
000008e2 06ea           1999 	mov	6,r29
                        2000 .L4095:
000008e4 1d50           2001 	mov	r29,r10
                        2002 --	    .ef
                        2003 .LDW54:
000008e6 40067f00       2004 	dispose	0,{r29,r31},[lp]
                        2005 	.global	___ghs_eofn_R_FDL_WakeUp
                        2006 ___ghs_eofn_R_FDL_WakeUp:
                        2007 	.type	_R_FDL_WakeUp,@function
                        2008 	.size	_R_FDL_WakeUp,.-_R_FDL_WakeUp
                        2009 	.align	2
                        2010 --_ret	r29	local
                        2011 
                        2012 	.section ".bss","awb"
                        2013 .L4133:
                        2014 	.type	.L4133,@object
                        2015 	.size	.L4133,0
                        2016 	.data
                        2017 	.text
                        2018 	.align	2
                        2019 	.align	2
                        2020 ..gh.f.f.1.e.20:
                        2021 	.type	..gh.f.f.1.e.20,@object
                        2022 	.size	..gh.f.f.1.e.20,0
                        2023 	.global	_R_FDL_CancelRequest
                        2024 _R_FDL_CancelRequest:
000008ea 8007e100       2025 	prepare	{r28,r29,r31},0
                        2026 --	    .bf
                        2027 .LDW64:
000008ee 00e2           2028 	mov	0,r28
                        2029 	jarl	_R_FDL_UFct_StateNotStandBy,lp
                        2029 <EXPANSION BEGIN>
                        2029 jarl22 _R_FDL_UFct_StateNotStandBy , lp 
000008f0 bffff2fd*      2029 <EXPANSION END>
000008f4 6152           2030 	cmp	1,r10
000008f6 ba2d*          2031 	bne	.L4189
000008f8 3d0600000000*  2032 	mov	_g_fdl_str,r29
000008fe 3d8f5100       2033 	ld.w	80[r29],r17
00000902 320654555555   2034 	mov	1431655764,r18
00000908 f289           2035 	cmp	r18,r17
0000090a 9225*          2036 	be	.L4189
0000090c 1d4f4800       2037 	ld.b	72[r29],r9
00000910 e049           2038 	cmp	zero,r9
00000912 da1d*          2039 	bne	.L4189
                        2040 --line878
                        2041 ..lin.C.3A.5C_ECU2.5CECU_Rivian_A1.5CTarget.5Crepo_projects.5CpRealEcu.5CcL_R2023.2E09.2E01.5Cmake.5Coutput.5Cobjects.5Cr_fdl_user_if.180::

                                                                      Page 38
                                                              C:\Users\nhuliyap\AppData\Local\Temp\gh_0000d941.s
                        2042 .LDWlin180:
00000914 12460300       2043 	addi	3,r18,r8
00000918 e889           2044 	cmp	r8,r17
0000091a da0d*          2045 	bne	.L4193
0000091c 3d3f2900       2046 	ld.w	40[r29],r7
00000920 e039           2047 	cmp	zero,r7
00000922 9a0d*          2048 	bne	.L4193
                        2049 --line881
                        2050 ..lin.C.3A.5C_ECU2.5CECU_Rivian_A1.5CTarget.5Crepo_projects.5CpRealEcu.5CcL_R2023.2E09.2E01.5Cmake.5Coutput.5Cobjects.5Cr_fdl_user_if.181::
                        2051 .LDWlin181:
00000924 20368000       2052 	movea	128,zero,r6
                        2053 	jarl	_R_FDL_FCUFct_SwitchMode_Start,lp
                        2053 <EXPANSION BEGIN>
                        2053 jarl22 _R_FDL_FCUFct_SwitchMode_Start , lp 
00000928 80ff0000*      2053 <EXPANSION END>
0000092c 0ae0           2054 	mov	r10,r28
                        2055 --line892
                        2056 ..lin.C.3A.5C_ECU2.5CECU_Rivian_A1.5CTarget.5Crepo_projects.5CpRealEcu.5CcL_R2023.2E09.2E01.5Cmake.5Coutput.5Cobjects.5Cr_fdl_user_if.182::
                        2057 .LDWlin182:
0000092e e051           2058 	cmp	zero,r10
00000930 fa0d*          2059 	bne	.L4203
00000932 950d*          2060 	br	.L4202
                        2061 .L4193:
                        2062 --line883
                        2063 ..lin.C.3A.5C_ECU2.5CECU_Rivian_A1.5CTarget.5Crepo_projects.5CpRealEcu.5CcL_R2023.2E09.2E01.5Cmake.5Coutput.5Cobjects.5Cr_fdl_user_if.183::
                        2064 .LDWlin183:
00000934 12360100       2065 	addi	1,r18,r6
00000938 e689           2066 	cmp	r6,r17
0000093a da05*          2067 	bne	.L4202
0000093c 3d9f2900       2068 	ld.w	40[r29],r19
00000940 e099           2069 	cmp	zero,r19
00000942 d205*          2070 	be	.L4189
                        2071 .L4202:
                        2072 --line894
                        2073 ..lin.C.3A.5C_ECU2.5CECU_Rivian_A1.5CTarget.5Crepo_projects.5CpRealEcu.5CcL_R2023.2E09.2E01.5Cmake.5Coutput.5Cobjects.5Cr_fdl_user_if.184::
                        2074 .LDWlin184:
00000944 0192           2075 	mov	1,r18
00000946 5d974800       2076 	st.b	r18,72[r29]
0000094a a505*          2077 	br	.L4203
                        2078 .L4189:
                        2079 --line898
                        2080 ..lin.C.3A.5C_ECU2.5CECU_Rivian_A1.5CTarget.5Crepo_projects.5CpRealEcu.5CcL_R2023.2E09.2E01.5Cmake.5Coutput.5Cobjects.5Cr_fdl_user_if.185::
                        2081 .LDWlin185:
0000094c 06e2           2082 	mov	6,r28
                        2083 .L4203:
0000094e 1c50           2084 	mov	r28,r10
                        2085 --	    .ef
                        2086 .LDW74:
00000950 4006ff00       2087 	dispose	0,{r28,r29,r31},[lp]
                        2088 	.global	___ghs_eofn_R_FDL_CancelRequest
                        2089 ___ghs_eofn_R_FDL_CancelRequest:
                        2090 	.type	_R_FDL_CancelRequest,@function
                        2091 	.size	_R_FDL_CancelRequest,.-_R_FDL_CancelRequest
                        2092 	.align	2
                        2093 --_ret	r28	local
                        2094 
                        2095 	.section ".bss","awb"
                        2096 .L4325:
                        2097 	.type	.L4325,@object
                        2098 	.size	.L4325,0
                        2099 	.data

                                                                      Page 39
                                                              C:\Users\nhuliyap\AppData\Local\Temp\gh_0000d941.s
                        2100 	.text
                        2101 	.align	2
                        2102 
                        2103 	.data
                        2104 	.section ".bss","awb"
                        2105 	.align	4
                        2106 	.align	4
                        2107 	.global	_g_fdl_str
00000000 000000000000   2108 _g_fdl_str:	.space	84
00000006 000000000000 
0000000c 000000000000 
00000012 000000000000 
00000018 000000000000 
0000001e 000000000000 
00000024 000000000000 
0000002a 000000000000 
00000030 000000000000 
00000036 000000000000 
0000003c 000000000000 
00000042 000000000000 
00000048 000000000000 
0000004e 000000000000 
                        2109 	.type	_g_fdl_str,@object
                        2110 	.size	_g_fdl_str,84
                        2111 	.data
                        2112 	.ghsnote version,17
                        2113 	.ghsnote tools,8195
                        2114 	.ghsnote options,144
                        2115 	.text
                        2116 	.align	2
                        2117 ..eof.C.3A.5C_ECU2.5CECU_Rivian_A1.5CTarget.5Crepo_projects.5CpRealEcu.5CcL_R2023.2E09.2E01.5Cmake.5Coutput.5Cobjects.5Cr_fdl_user_if...43.3A.5C_ECU2.5CECU_Rivian_A1.5CTarget.5Crepo_projects.5CpRealEcu.5CcL_R2023.2E09.2E01.5Cmake..64F8233D..0::
                        2118 	.section	.debug_info
                        2119 .Ldw_begin:
00000000 f1180000       2120 	.word	.Ldw_end-.Ldw_begin-4
00000004 0200           2121 	.byte	2,0
00000006 00000000*      2122 	.word	.Ldw_abbr_begin
0000000a 04             2123 	.byte	4
                        2124 	.section	.debug_abbrev
                        2125 .Ldw_abbr_begin:
                        2126 	.section	.debug_info
0000000b 01             2127 	.byte	1
0000000c 00000000*      2128 	.word	..bof.C.3A.5C_ECU2.5CECU_Rivian_A1.5CTarget.5Crepo_projects.5CpRealEcu.5CcL_R2023.2E09.2E01.5Cmake.5Coutput.5Cobjects.5Cr_fdl_user_if...43.3A.5C_ECU2.5CECU_Rivian_A1.5CTarget.5Crepo_projects.5CpRealEcu.5CcL_R2023.2E09.2E01.5Cmake..64F8233D..0
00000010 00000000*      2129 	.word	..eof.C.3A.5C_ECU2.5CECU_Rivian_A1.5CTarget.5Crepo_projects.5CpRealEcu.5CcL_R2023.2E09.2E01.5Cmake.5Coutput.5Cobjects.5Cr_fdl_user_if...43.3A.5C_ECU2.5CECU_Rivian_A1.5CTarget.5Crepo_projects.5CpRealEcu.5CcL_R2023.2E09.2E01.5Cmake..64F8233D..0
00000014 2e2e2f736f75   2130 	.strz	"../source/McalFls/r_fdl_user_if.c"
0000001a 7263652f4d63 
00000020 616c466c732f 
00000026 725f66646c5f 
0000002c 757365725f69 
00000032 662e6300 
00000036 433a5c5f4543   2131 	.strz	"C:\\_ECU2\\ECU_Rivian_A1\\Target\\repo_projects\\pRealEcu\\cL_R2023.09.01\\make"
0000003c 55325c454355 
00000042 5f5269766961 
00000048 6e5f41315c54 
0000004e 61726765745c 
00000054 7265706f5f70 
0000005a 726f6a656374 
00000060 735c70526561 
00000066 6c4563755c63 
0000006c 4c5f52323032 
00000072 332e30392e30 
00000078 315c6d616b65 

                                                                      Page 40
                                                              C:\Users\nhuliyap\AppData\Local\Temp\gh_0000d941.s
0000007e 00 
0000007f 474853204320   2132 	.strz	"GHS C 2015.1.7 [dual]"
00000085 323031352e31 
0000008b 2e37205b6475 
00000091 616c5d00 
00000095 0100           2133 	.byte	1,0
00000097 00000000*      2134 	.word	.Ldw_line_begin
0000009b 00000000*      2135 	.word	.Ldw_macinfo_begin
0000009f 00             2136 	.byte	0
                        2137 
                        2138 	.section	.debug_abbrev
00000000 01             2139 	.byte	1
00000001 11             2140 	.byte	17
00000002 01             2141 	.byte	1
00000003 1101           2142 	.byte	17,1
00000005 1201           2143 	.byte	18,1
00000007 0308           2144 	.byte	3,8
00000009 1b08           2145 	.byte	27,8
0000000b 2508           2146 	.byte	37,8
0000000d 1305           2147 	.byte	19,5
0000000f 1006           2148 	.byte	16,6
00000011 4306           2149 	.byte	67,6
00000013 420b           2150 	.byte	66,11
00000015 0000           2151 	.byte	0,0
                        2152 
                        2153 	.section	.debug_line
                        2154 .Ldw_line_begin:
00000000 3f0f0000       2155 	.word	.Ldw_line_end-.Ldw_line_begin-4
00000004 0200           2156 	.byte	2,0
00000006 00000000*      2157 	.word	.Ldw_lpro_end-.Ldw_lpro_begin
                        2158 .Ldw_lpro_begin:
0000000a 01             2159 	.byte	1
0000000b 00             2160 	.byte	0
0000000c 00             2161 	.byte	0
0000000d 04             2162 	.byte	4
0000000e 0a             2163 	.byte	10
0000000f 000101         2164 	.byte	0,1,1
00000012 010100         2165 	.byte	1,1,0
00000015 000001         2166 	.byte	0,0,1
00000018 00             2167 	.byte	0
00000019 2e2e2f736f75   2168 	.strz	"../source/McalFls/r_fdl_user_if.c"
0000001f 7263652f4d63 
00000025 616c466c732f 
0000002b 725f66646c5f 
00000031 757365725f69 
00000037 662e6300 
0000003b 000000         2169 	.byte	0,0,0
0000003e 2e2e2f736f75   2170 	.strz	"../source/McalFls/r_fdl_global.hpp"
00000044 7263652f4d63 
0000004a 616c466c732f 
00000050 725f66646c5f 
00000056 676c6f62616c 
0000005c 2e68707000 
00000061 000000         2171 	.byte	0,0,0
00000064 2e2e2f736f75   2172 	.strz	"../source/McalFls/r_typedefs.hpp"
0000006a 7263652f4d63 
00000070 616c466c732f 
00000076 725f74797065 
0000007c 646566732e68 
00000082 707000 
00000085 000000         2173 	.byte	0,0,0

                                                                      Page 41
                                                              C:\Users\nhuliyap\AppData\Local\Temp\gh_0000d941.s
00000088 2e2e2f736f75   2174 	.strz	"../source/McalMcu/Types.hpp"
0000008e 7263652f4d63 
00000094 616c4d63752f 
0000009a 54797065732e 
000000a0 68707000 
000000a4 000000         2175 	.byte	0,0,0
000000a7 2e2e2f736f75   2176 	.strz	"../source/common/Std_Types.hpp"
000000ad 7263652f636f 
000000b3 6d6d6f6e2f53 
000000b9 74645f547970 
000000bf 65732e687070 
000000c5 00 
000000c6 000000         2177 	.byte	0,0,0
000000c9 2e2e2f736f75   2178 	.strz	"../source/common/Platform_Types.hpp"
000000cf 7263652f636f 
000000d5 6d6d6f6e2f50 
000000db 6c6174666f72 
000000e1 6d5f54797065 
000000e7 732e68707000 
000000ed 000000         2179 	.byte	0,0,0
000000f0 2e2e2f736f75   2180 	.strz	"../source/common/Compiler.hpp"
000000f6 7263652f636f 
000000fc 6d6d6f6e2f43 
00000102 6f6d70696c65 
00000108 722e68707000 
0000010e 000000         2181 	.byte	0,0,0
00000111 2e2e2f736f75   2182 	.strz	"../source/ProjectCompiler/Compiler_Cfg.hpp"
00000117 7263652f5072 
0000011d 6f6a65637443 
00000123 6f6d70696c65 
00000129 722f436f6d70 
0000012f 696c65725f43 
00000135 66672e687070 
0000013b 00 
0000013c 000000         2183 	.byte	0,0,0
0000013f 2e2e2f736f75   2184 	.strz	"../source/ProjectCompiler/CompilerCfg_SwcServiceOs.hpp"
00000145 7263652f5072 
0000014b 6f6a65637443 
00000151 6f6d70696c65 
00000157 722f436f6d70 
0000015d 696c65724366 
00000163 675f53776353 
00000169 657276696365 
0000016f 4f732e687070 
00000175 00 
00000176 000000         2185 	.byte	0,0,0
00000179 2e2e2f736f75   2186 	.strz	"../source/McalFls/r_fdl.hpp"
0000017f 7263652f4d63 
00000185 616c466c732f 
0000018b 725f66646c2e 
00000191 68707000 
00000195 000000         2187 	.byte	0,0,0
00000198 2e2e2f736f75   2188 	.strz	"../source/ProjectCfg/CfgMcalFls_Fdl.hpp"
0000019e 7263652f5072 
000001a4 6f6a65637443 
000001aa 66672f436667 
000001b0 4d63616c466c 
000001b6 735f46646c2e 
000001bc 68707000 
000001c0 000000         2189 	.byte	0,0,0
000001c3 2e2e2f736f75   2190 	.strz	"../source/McalFls/Fls.hpp"

                                                                      Page 42
                                                              C:\Users\nhuliyap\AppData\Local\Temp\gh_0000d941.s
000001c9 7263652f4d63 
000001cf 616c466c732f 
000001d5 466c732e6870 
000001db 7000 
000001dd 000000         2191 	.byte	0,0,0
000001e0 2e2e2f736f75   2192 	.strz	"../source/ProjectCfg/Fls_Cfg.hpp"
000001e6 7263652f5072 
000001ec 6f6a65637443 
000001f2 66672f466c73 
000001f8 5f4366672e68 
000001fe 707000 
00000201 000000         2193 	.byte	0,0,0
00000204 2e2e2f736f75   2194 	.strz	"../source/EcuabMemIf/MemIf_Types.hpp"
0000020a 7263652f4563 
00000210 7561624d656d 
00000216 49662f4d656d 
0000021c 49665f547970 
00000222 65732e687070 
00000228 00 
00000229 000000         2195 	.byte	0,0,0
0000022c 2e2e2f736f75   2196 	.strz	"../source/McalFls/Fls_Types.hpp"
00000232 7263652f4d63 
00000238 616c466c732f 
0000023e 466c735f5479 
00000244 7065732e6870 
0000024a 7000 
0000024c 000000         2197 	.byte	0,0,0
0000024f 2e2e2f736f75   2198 	.strz	"../source/McalFls/Fls_PBTypes.hpp"
00000255 7263652f4d63 
0000025b 616c466c732f 
00000261 466c735f5042 
00000267 54797065732e 
0000026d 68707000 
00000271 000000         2199 	.byte	0,0,0
00000274 2e2e2f736f75   2200 	.strz	"../source/ProjectCompiler/MemMap.hpp"
0000027a 7263652f5072 
00000280 6f6a65637443 
00000286 6f6d70696c65 
0000028c 722f4d656d4d 
00000292 61702e687070 
00000298 00 
00000299 000000         2201 	.byte	0,0,0
0000029c 2e2e2f736f75   2202 	.strz	"../source/ProjectCompiler/MemMap_Common.hpp"
000002a2 7263652f5072 
000002a8 6f6a65637443 
000002ae 6f6d70696c65 
000002b4 722f4d656d4d 
000002ba 61705f436f6d 
000002c0 6d6f6e2e6870 
000002c6 7000 
000002c8 000000         2203 	.byte	0,0,0
000002cb 2e2e2f736f75   2204 	.strz	"../source/McalFls/r_fdl_types.hpp"
000002d1 7263652f4d63 
000002d7 616c466c732f 
000002dd 725f66646c5f 
000002e3 74797065732e 
000002e9 68707000 
000002ed 000000         2205 	.byte	0,0,0
000002f0 2e2e2f736f75   2206 	.strz	"../source/McalFls/fdl_descriptor.hpp"
000002f6 7263652f4d63 
000002fc 616c466c732f 

                                                                      Page 43
                                                              C:\Users\nhuliyap\AppData\Local\Temp\gh_0000d941.s
00000302 66646c5f6465 
00000308 736372697074 
0000030e 6f722e687070 
00000314 00 
00000315 000000         2207 	.byte	0,0,0
00000318 2e2e2f736f75   2208 	.strz	"../source/wrappers/SchM_Fls.hpp"
0000031e 7263652f7772 
00000324 617070657273 
0000032a 2f5363684d5f 
00000330 466c732e6870 
00000336 7000 
00000338 000000         2209 	.byte	0,0,0
0000033b 2e2e2f736f75   2210 	.strz	"../source/wrappers/OS/Os.hpp"
00000341 7263652f7772 
00000347 617070657273 
0000034d 2f4f532f4f73 
00000353 2e68707000 
00000358 000000         2211 	.byte	0,0,0
0000035b 2e2e2f736f75   2212 	.strz	"../source/SwcServiceOs/Types_SwcServiceOs.hpp"
00000361 7263652f5377 
00000367 635365727669 
0000036d 63654f732f54 
00000373 797065735f53 
00000379 776353657276 
0000037f 6963654f732e 
00000385 68707000 
00000389 000000         2213 	.byte	0,0,0
0000038c 2e2e2f736f75   2214 	.strz	"../source/ProjectCompiler/Os_MemMap.hpp"
00000392 7263652f5072 
00000398 6f6a65637443 
0000039e 6f6d70696c65 
000003a4 722f4f735f4d 
000003aa 656d4d61702e 
000003b0 68707000 
000003b4 000000         2215 	.byte	0,0,0
000003b7 2e2e2f736f75   2216 	.strz	"../source/ProjectCfg/Os_Cfg.hpp"
000003bd 7263652f5072 
000003c3 6f6a65637443 
000003c9 66672f4f735f 
000003cf 4366672e6870 
000003d5 7000 
000003d7 000000         2217 	.byte	0,0,0
000003da 2e2e2f736f75   2218 	.strz	"../source/McalFls/r_fdl_env.hpp"
000003e0 7263652f4d63 
000003e6 616c466c732f 
000003ec 725f66646c5f 
000003f2 656e762e6870 
000003f8 7000 
000003fa 000000         2219 	.byte	0,0,0
000003fd 2e2e2f736f75   2220 	.strz	"../source/ProjectCompiler/r_fdl_mem_map.hpp"
00000403 7263652f5072 
00000409 6f6a65637443 
0000040f 6f6d70696c65 
00000415 722f725f6664 
0000041b 6c5f6d656d5f 
00000421 6d61702e6870 
00000427 7000 
00000429 000000         2221 	.byte	0,0,0
0000042c 00             2222 	.byte	0
                        2223 .Ldw_lpro_end:
                        2224 	.section	.debug_macinfo

                                                                      Page 44
                                                              C:\Users\nhuliyap\AppData\Local\Temp\gh_0000d941.s
                        2225 .Ldw_macinfo_begin:
                        2226 	.section	.debug_frame
                        2227 .LDW_4e24e40:
00000000 00000000*      2228 	.word	.LDW_unq_2-.LDW_unq_1
                        2229 .LDW_unq_1:
00000004 ffffffff       2230 	.byte	255,255,255,255
00000008 01             2231 	.byte	1
00000009 00             2232 	.byte	0
0000000a 01             2233 	.byte	1
0000000b 01             2234 	.byte	1
0000000c 1f             2235 	.byte	31
0000000d 0c             2236 	.byte	12
0000000e 03             2237 	.byte	3
0000000f 00             2238 	.byte	0
00000010 07             2239 	.byte	7
00000011 00             2240 	.byte	0
00000012 07             2241 	.byte	7
00000013 01             2242 	.byte	1
00000014 07             2243 	.byte	7
00000015 02             2244 	.byte	2
00000016 07             2245 	.byte	7
00000017 03             2246 	.byte	3
00000018 07             2247 	.byte	7
00000019 04             2248 	.byte	4
0000001a 07             2249 	.byte	7
0000001b 05             2250 	.byte	5
0000001c 07             2251 	.byte	7
0000001d 06             2252 	.byte	6
0000001e 07             2253 	.byte	7
0000001f 07             2254 	.byte	7
00000020 07             2255 	.byte	7
00000021 08             2256 	.byte	8
00000022 07             2257 	.byte	7
00000023 09             2258 	.byte	9
00000024 07             2259 	.byte	7
00000025 0a             2260 	.byte	10
00000026 07             2261 	.byte	7
00000027 0b             2262 	.byte	11
00000028 07             2263 	.byte	7
00000029 0c             2264 	.byte	12
0000002a 07             2265 	.byte	7
0000002b 0d             2266 	.byte	13
0000002c 07             2267 	.byte	7
0000002d 0e             2268 	.byte	14
0000002e 07             2269 	.byte	7
0000002f 0f             2270 	.byte	15
00000030 07             2271 	.byte	7
00000031 10             2272 	.byte	16
00000032 07             2273 	.byte	7
00000033 11             2274 	.byte	17
00000034 07             2275 	.byte	7
00000035 12             2276 	.byte	18
00000036 07             2277 	.byte	7
00000037 13             2278 	.byte	19
00000038 08             2279 	.byte	8
00000039 14             2280 	.byte	20
0000003a 08             2281 	.byte	8
0000003b 15             2282 	.byte	21
0000003c 08             2283 	.byte	8
0000003d 16             2284 	.byte	22
0000003e 08             2285 	.byte	8

                                                                      Page 45
                                                              C:\Users\nhuliyap\AppData\Local\Temp\gh_0000d941.s
0000003f 17             2286 	.byte	23
00000040 08             2287 	.byte	8
00000041 18             2288 	.byte	24
00000042 08             2289 	.byte	8
00000043 19             2290 	.byte	25
00000044 08             2291 	.byte	8
00000045 1a             2292 	.byte	26
00000046 08             2293 	.byte	8
00000047 1b             2294 	.byte	27
00000048 08             2295 	.byte	8
00000049 1c             2296 	.byte	28
0000004a 08             2297 	.byte	8
0000004b 1d             2298 	.byte	29
0000004c 07             2299 	.byte	7
0000004d 1e             2300 	.byte	30
0000004e 08             2301 	.byte	8
0000004f 1f             2302 	.byte	31
00000050 07             2303 	.byte	7
00000051 20             2304 	.byte	32
00000052 07             2305 	.byte	7
00000053 21             2306 	.byte	33
00000054 07             2307 	.byte	7
00000055 22             2308 	.byte	34
00000056 07             2309 	.byte	7
00000057 23             2310 	.byte	35
00000058 07             2311 	.byte	7
00000059 24             2312 	.byte	36
0000005a 07             2313 	.byte	7
0000005b 25             2314 	.byte	37
0000005c 07             2315 	.byte	7
0000005d 26             2316 	.byte	38
0000005e 07             2317 	.byte	7
0000005f 27             2318 	.byte	39
00000060 07             2319 	.byte	7
00000061 28             2320 	.byte	40
00000062 07             2321 	.byte	7
00000063 29             2322 	.byte	41
00000064 07             2323 	.byte	7
00000065 2a             2324 	.byte	42
00000066 07             2325 	.byte	7
00000067 2b             2326 	.byte	43
00000068 07             2327 	.byte	7
00000069 2c             2328 	.byte	44
0000006a 07             2329 	.byte	7
0000006b 2d             2330 	.byte	45
0000006c 07             2331 	.byte	7
0000006d 2e             2332 	.byte	46
0000006e 07             2333 	.byte	7
0000006f 2f             2334 	.byte	47
00000070 07             2335 	.byte	7
00000071 30             2336 	.byte	48
00000072 07             2337 	.byte	7
00000073 31             2338 	.byte	49
00000074 07             2339 	.byte	7
00000075 32             2340 	.byte	50
00000076 07             2341 	.byte	7
00000077 33             2342 	.byte	51
00000078 07             2343 	.byte	7
00000079 34             2344 	.byte	52
0000007a 07             2345 	.byte	7
0000007b 35             2346 	.byte	53

                                                                      Page 46
                                                              C:\Users\nhuliyap\AppData\Local\Temp\gh_0000d941.s
0000007c 07             2347 	.byte	7
0000007d 36             2348 	.byte	54
0000007e 07             2349 	.byte	7
0000007f 37             2350 	.byte	55
00000080 07             2351 	.byte	7
00000081 38             2352 	.byte	56
00000082 07             2353 	.byte	7
00000083 39             2354 	.byte	57
00000084 07             2355 	.byte	7
00000085 3a             2356 	.byte	58
00000086 07             2357 	.byte	7
00000087 3b             2358 	.byte	59
00000088 07             2359 	.byte	7
00000089 3c             2360 	.byte	60
0000008a 07             2361 	.byte	7
0000008b 3d             2362 	.byte	61
0000008c 07             2363 	.byte	7
0000008d 3e             2364 	.byte	62
0000008e 07             2365 	.byte	7
0000008f 3f             2366 	.byte	63
                        2367 .LDW_unq_2:
                        2368 	.section	.debug_info
                        2369 .LDW_4979d68:
000000a0 29             2370 	.byte	41
000000a1 00000000*      2371 	.word	.LDW_4979d10
                        2372 
                        2373 	.section	.debug_abbrev
00000017 29             2374 	.byte	41
00000018 26             2375 	.byte	38
00000019 00             2376 	.byte	0
0000001a 4910           2377 	.byte	73,16
0000001c 0000           2378 	.byte	0,0
                        2379 
                        2380 	.section	.debug_info
                        2381 .LDW_4937080:
000000a5 2f             2382 	.byte	47
000000a6 00000000*      2383 	.word	.LDW_4979d68
                        2384 
                        2385 	.section	.debug_abbrev
0000001e 2f             2386 	.byte	47
0000001f 0f             2387 	.byte	15
00000020 00             2388 	.byte	0
00000021 4910           2389 	.byte	73,16
00000023 0000           2390 	.byte	0,0
                        2391 
                        2392 	.section	.debug_info
                        2393 .LDW_4937278:
000000aa 44             2394 	.byte	68
000000ab 00000000*      2395 	.word	.LDW_4979c60
000000af 01             2396 	.byte	1
                        2397 
                        2398 	.section	.debug_abbrev
00000025 44             2399 	.byte	68
00000026 15             2400 	.byte	21
00000027 01             2401 	.byte	1
00000028 4910           2402 	.byte	73,16
0000002a 270c           2403 	.byte	39,12
0000002c 0000           2404 	.byte	0,0
                        2405 
                        2406 	.section	.debug_info
                        2407 .LDW_497a8e0:

                                                                      Page 47
                                                              C:\Users\nhuliyap\AppData\Local\Temp\gh_0000d941.s
000000b0 12             2408 	.byte	18
000000b1 00000000*      2409 	.word	.LDW_4937080
000000b5 00             2410 	.byte	0
                        2411 
                        2412 	.section	.debug_abbrev
0000002e 12             2413 	.byte	18
0000002f 05             2414 	.byte	5
00000030 00             2415 	.byte	0
00000031 4910           2416 	.byte	73,16
00000033 4b0c           2417 	.byte	75,12
00000035 0000           2418 	.byte	0,0
                        2419 
                        2420 	.section	.debug_info
000000b6 00             2421 	.byte	0
                        2422 
                        2423 .LDW_49371d0:
000000b7 25             2424 	.byte	37
000000b8 756e7369676e   2425 	.strz	"unsigned long"
000000be 6564206c6f6e 
000000c4 6700 
000000c6 07             2426 	.byte	7
000000c7 04             2427 	.byte	4
                        2428 
                        2429 	.section	.debug_abbrev
00000037 25             2430 	.byte	37
00000038 24             2431 	.byte	36
00000039 00             2432 	.byte	0
0000003a 0308           2433 	.byte	3,8
0000003c 3e0b           2434 	.byte	62,11
0000003e 0b0b           2435 	.byte	11,11
00000040 0000           2436 	.byte	0,0
                        2437 
                        2438 	.section	.debug_info
                        2439 .LDW_4936fd8:
000000c8 25             2440 	.byte	37
000000c9 756e7369676e   2441 	.strz	"unsigned short"
000000cf 65642073686f 
000000d5 727400 
000000d8 07             2442 	.byte	7
000000d9 02             2443 	.byte	2
                        2444 
                        2445 .LDW_497a118:
000000da 2b             2446 	.byte	43
000000db 00000000*      2447 	.word	.LDW_497a0c0
                        2448 
                        2449 	.section	.debug_abbrev
00000042 2b             2450 	.byte	43
00000043 35             2451 	.byte	53
00000044 00             2452 	.byte	0
00000045 4910           2453 	.byte	73,16
00000047 0000           2454 	.byte	0,0
                        2455 
                        2456 	.section	.debug_info
                        2457 .LDW_4937010:
000000df 2f             2458 	.byte	47
000000e0 00000000*      2459 	.word	.LDW_497a170
                        2460 
                        2461 .LDW_49370b8:
000000e4 45             2462 	.byte	69
000000e5 01             2463 	.byte	1
                        2464 

                                                                      Page 48
                                                              C:\Users\nhuliyap\AppData\Local\Temp\gh_0000d941.s
                        2465 	.section	.debug_abbrev
00000049 45             2466 	.byte	69
0000004a 15             2467 	.byte	21
0000004b 01             2468 	.byte	1
0000004c 270c           2469 	.byte	39,12
0000004e 0000           2470 	.byte	0,0
                        2471 
                        2472 	.section	.debug_info
                        2473 .LDW_497a910:
000000e6 12             2474 	.byte	18
000000e7 00000000*      2475 	.word	.LDW_4937010
000000eb 00             2476 	.byte	0
                        2477 
000000ec 00             2478 	.byte	0
                        2479 
                        2480 .LDW_49370f0:
000000ed 2f             2481 	.byte	47
000000ee 00000000*      2482 	.word	.LDW_4979c60
                        2483 
                        2484 .LDW_4937048:
000000f2 44             2485 	.byte	68
000000f3 00000000*      2486 	.word	.LDW_4c74e48
000000f7 01             2487 	.byte	1
                        2488 
                        2489 .LDW_497a940:
000000f8 12             2490 	.byte	18
000000f9 00000000*      2491 	.word	.LDW_49370f0
000000fd 00             2492 	.byte	0
                        2493 
000000fe 00             2494 	.byte	0
                        2495 
                        2496 .LDW_4937198:
000000ff 44             2497 	.byte	68
00000100 00000000*      2498 	.word	.LDW_4c74e48
00000104 01             2499 	.byte	1
                        2500 
00000105 00             2501 	.byte	0
                        2502 
                        2503 .LDW_4937128:
00000106 44             2504 	.byte	68
00000107 00000000*      2505 	.word	.LDW_4c74e48
0000010b 01             2506 	.byte	1
                        2507 
                        2508 .LDW_497a580:
0000010c 12             2509 	.byte	18
0000010d 00000000*      2510 	.word	.LDW_49370f0
00000111 00             2511 	.byte	0
                        2512 
00000112 00             2513 	.byte	0
                        2514 
                        2515 .LDW_49372b0:
00000113 44             2516 	.byte	68
00000114 00000000*      2517 	.word	.LDW_4c74e48
00000118 01             2518 	.byte	1
                        2519 
                        2520 .LDW_497a430:
00000119 12             2521 	.byte	18
0000011a 00000000*      2522 	.word	.LDW_49370f0
0000011e 00             2523 	.byte	0
                        2524 
0000011f 00             2525 	.byte	0

                                                                      Page 49
                                                              C:\Users\nhuliyap\AppData\Local\Temp\gh_0000d941.s
                        2526 
                        2527 .LDW_49372e8:
00000120 44             2528 	.byte	68
00000121 00000000*      2529 	.word	.LDW_4c74e48
00000125 01             2530 	.byte	1
                        2531 
                        2532 .LDW_497a5e0:
00000126 12             2533 	.byte	18
00000127 00000000*      2534 	.word	.LDW_49370f0
0000012b 00             2535 	.byte	0
                        2536 
0000012c 00             2537 	.byte	0
                        2538 
                        2539 .LDW_4937320:
0000012d 44             2540 	.byte	68
0000012e 00000000*      2541 	.word	.LDW_4c74e48
00000132 01             2542 	.byte	1
                        2543 
                        2544 .LDW_497a6a0:
00000133 12             2545 	.byte	18
00000134 00000000*      2546 	.word	.LDW_49370f0
00000138 00             2547 	.byte	0
                        2548 
00000139 00             2549 	.byte	0
                        2550 
                        2551 .LDW_49374a8:
0000013a 44             2552 	.byte	68
0000013b 00000000*      2553 	.word	.LDW_4c74e48
0000013f 01             2554 	.byte	1
                        2555 
                        2556 .LDW_497aa60:
00000140 12             2557 	.byte	18
00000141 00000000*      2558 	.word	.LDW_49370f0
00000145 00             2559 	.byte	0
                        2560 
00000146 00             2561 	.byte	0
                        2562 
                        2563 .LDW_49374e0:
00000147 45             2564 	.byte	69
00000148 01             2565 	.byte	1
                        2566 
00000149 00             2567 	.byte	0
                        2568 
                        2569 .LDW_4937470:
0000014a 25             2570 	.byte	37
0000014b 756e7369676e   2571 	.strz	"unsigned char"
00000151 656420636861 
00000157 7200 
00000159 08             2572 	.byte	8
0000015a 01             2573 	.byte	1
                        2574 
                        2575 .LDW_4c76a28:
0000015b 29             2576 	.byte	41
0000015c 00000000*      2577 	.word	.LDW_4c76d98
                        2578 
                        2579 .LDW_4ca5e60:
00000160 2f             2580 	.byte	47
00000161 00000000*      2581 	.word	.LDW_4c76a28
                        2582 
                        2583 .LDW_4ca5ed0:
00000165 44             2584 	.byte	68

                                                                      Page 50
                                                              C:\Users\nhuliyap\AppData\Local\Temp\gh_0000d941.s
00000166 00000000*      2585 	.word	.LDW_4ca5e60
0000016a 01             2586 	.byte	1
                        2587 
0000016b 00             2588 	.byte	0
                        2589 
                        2590 .LDW_4ca61a8:
0000016c 25             2591 	.byte	37
0000016d 696e7400       2592 	.strz	"int"
00000171 05             2593 	.byte	5
00000172 04             2594 	.byte	4
                        2595 
                        2596 .LDW_4c75b38:
00000173 3a             2597 	.byte	58
00000174 00             2598 	.byte	0
00000175 13             2599 	.byte	19
00000176 00000000*      2600 	.word	.LDW_4c76a28
                        2601 
                        2602 	.section	.debug_abbrev
00000050 3a             2603 	.byte	58
00000051 01             2604 	.byte	1
00000052 01             2605 	.byte	1
00000053 090b           2606 	.byte	9,11
00000055 0b0f           2607 	.byte	11,15
00000057 4910           2608 	.byte	73,16
00000059 0000           2609 	.byte	0,0
                        2610 
                        2611 	.section	.debug_info
0000017a 32             2612 	.byte	50
0000017b 00000000*      2613 	.word	.LDW_4ca61a8
0000017f 04             2614 	.byte	4
00000180 00             2615 	.byte	0
00000181 12             2616 	.byte	18
                        2617 
                        2618 	.section	.debug_abbrev
0000005b 32             2619 	.byte	50
0000005c 21             2620 	.byte	33
0000005d 00             2621 	.byte	0
0000005e 4910           2622 	.byte	73,16
00000060 0b0f           2623 	.byte	11,15
00000062 220d           2624 	.byte	34,13
00000064 2f0d           2625 	.byte	47,13
00000066 0000           2626 	.byte	0,0
                        2627 
                        2628 	.section	.debug_info
00000182 00             2629 	.byte	0
                        2630 
                        2631 .LDW_4ca6138:
00000183 44             2632 	.byte	68
00000184 00000000*      2633 	.word	.LDW_4979c60
00000188 01             2634 	.byte	1
                        2635 
00000189 00             2636 	.byte	0
                        2637 
                        2638 .LDW_4ca5e98:
0000018a 44             2639 	.byte	68
0000018b 00000000*      2640 	.word	.LDW_4979c60
0000018f 01             2641 	.byte	1
                        2642 
00000190 00             2643 	.byte	0
                        2644 
                        2645 .LDW_4ca6368:

                                                                      Page 51
                                                              C:\Users\nhuliyap\AppData\Local\Temp\gh_0000d941.s
00000191 44             2646 	.byte	68
00000192 00000000*      2647 	.word	.LDW_4979c60
00000196 01             2648 	.byte	1
                        2649 
00000197 00             2650 	.byte	0
                        2651 
                        2652 .LDW_4ca6288:
00000198 44             2653 	.byte	68
00000199 00000000*      2654 	.word	.LDW_4979c60
0000019d 01             2655 	.byte	1
                        2656 
0000019e 00             2657 	.byte	0
                        2658 
                        2659 .LDW_4ca6218:
0000019f 44             2660 	.byte	68
000001a0 00000000*      2661 	.word	.LDW_4979c60
000001a4 01             2662 	.byte	1
                        2663 
000001a5 00             2664 	.byte	0
                        2665 
                        2666 .LDW_4ca6250:
000001a6 44             2667 	.byte	68
000001a7 00000000*      2668 	.word	.LDW_4c74e48
000001ab 01             2669 	.byte	1
                        2670 
                        2671 .LDW_4e17ba0:
000001ac 12             2672 	.byte	18
000001ad 00000000*      2673 	.word	.LDW_4937010
000001b1 00             2674 	.byte	0
                        2675 
                        2676 .LDW_4e17cf0:
000001b2 12             2677 	.byte	18
000001b3 00000000*      2678 	.word	.LDW_49370f0
000001b7 00             2679 	.byte	0
                        2680 
                        2681 .LDW_4e17bd0:
000001b8 12             2682 	.byte	18
000001b9 00000000*      2683 	.word	.LDW_4c74e48
000001bd 00             2684 	.byte	0
                        2685 
000001be 00             2686 	.byte	0
                        2687 
                        2688 .LDW_4ca62c0:
000001bf 45             2689 	.byte	69
000001c0 01             2690 	.byte	1
                        2691 
                        2692 .LDW_4e17c00:
000001c1 12             2693 	.byte	18
000001c2 00000000*      2694 	.word	.LDW_4979c60
000001c6 00             2695 	.byte	0
                        2696 
000001c7 00             2697 	.byte	0
                        2698 
                        2699 .LDW_4ca6058:
000001c8 44             2700 	.byte	68
000001c9 00000000*      2701 	.word	.LDW_4c74e48
000001cd 01             2702 	.byte	1
                        2703 
000001ce 00             2704 	.byte	0
                        2705 
                        2706 .LDW_4ca5f08:

                                                                      Page 52
                                                              C:\Users\nhuliyap\AppData\Local\Temp\gh_0000d941.s
000001cf 25             2707 	.byte	37
000001d0 756e7369676e   2708 	.strz	"unsigned int"
000001d6 656420696e74 
000001dc 00 
000001dd 07             2709 	.byte	7
000001de 04             2710 	.byte	4
                        2711 
                        2712 .LDW_4e35298:
000001df 2f             2713 	.byte	47
000001e0 00000000*      2714 	.word	.LDW_4979f08
                        2715 
                        2716 .LDW_4e39290:
000001e4 25             2717 	.byte	37
000001e5 6368617200     2718 	.strz	"char"
000001ea 06             2719 	.byte	6
000001eb 01             2720 	.byte	1
                        2721 
                        2722 .LDW_4e764a0:
000001ec 44             2723 	.byte	68
000001ed 00000000*      2724 	.word	.LDW_4979c60
000001f1 01             2725 	.byte	1
                        2726 
000001f2 00             2727 	.byte	0
                        2728 
                        2729 .LDW_4e76078:
000001f3 44             2730 	.byte	68
000001f4 00000000*      2731 	.word	.LDW_4c74e48
000001f8 01             2732 	.byte	1
                        2733 
000001f9 00             2734 	.byte	0
                        2735 
                        2736 .LDW_4e763f8:
000001fa 44             2737 	.byte	68
000001fb 00000000*      2738 	.word	.LDW_4c74e48
000001ff 01             2739 	.byte	1
                        2740 
00000200 00             2741 	.byte	0
                        2742 
                        2743 .LDW_4e760b0:
00000201 44             2744 	.byte	68
00000202 00000000*      2745 	.word	.LDW_4c74e48
00000206 01             2746 	.byte	1
                        2747 
                        2748 .LDW_4e78d98:
00000207 12             2749 	.byte	18
00000208 00000000*      2750 	.word	.LDW_4c75210
0000020c 00             2751 	.byte	0
                        2752 
0000020d 00             2753 	.byte	0
                        2754 
                        2755 .LDW_4e76200:
0000020e 45             2756 	.byte	69
0000020f 01             2757 	.byte	1
                        2758 
00000210 00             2759 	.byte	0
                        2760 
                        2761 .LDW_4e76318:
00000211 44             2762 	.byte	68
00000212 00000000*      2763 	.word	.LDW_4979c60
00000216 01             2764 	.byte	1
                        2765 

                                                                      Page 53
                                                              C:\Users\nhuliyap\AppData\Local\Temp\gh_0000d941.s
00000217 00             2766 	.byte	0
                        2767 
                        2768 .LDW_4e76430:
00000218 45             2769 	.byte	69
00000219 01             2770 	.byte	1
                        2771 
0000021a 00             2772 	.byte	0
                        2773 
                        2774 .LDW_4e39e68:
0000021b 2b             2775 	.byte	43
0000021c 00000000*      2776 	.word	.LDW_4979f08
                        2777 
                        2778 .LDW_4e765b8:
00000220 2f             2779 	.byte	47
00000221 00000000*      2780 	.word	.LDW_4e39e68
                        2781 
                        2782 .LDW_4e76350:
00000225 44             2783 	.byte	68
00000226 00000000*      2784 	.word	.LDW_4979c60
0000022a 01             2785 	.byte	1
                        2786 
                        2787 .LDW_4e78be8:
0000022b 12             2788 	.byte	18
0000022c 00000000*      2789 	.word	.LDW_4e765b8
00000230 00             2790 	.byte	0
                        2791 
                        2792 .LDW_4e78918:
00000231 12             2793 	.byte	18
00000232 00000000*      2794 	.word	.LDW_4979f08
00000236 00             2795 	.byte	0
                        2796 
                        2797 .LDW_4e789a8:
00000237 12             2798 	.byte	18
00000238 00000000*      2799 	.word	.LDW_4979f08
0000023c 00             2800 	.byte	0
                        2801 
0000023d 00             2802 	.byte	0
                        2803 
                        2804 .LDW_4e76468:
0000023e 44             2805 	.byte	68
0000023f 00000000*      2806 	.word	.LDW_4c74e48
00000243 01             2807 	.byte	1
                        2808 
00000244 00             2809 	.byte	0
                        2810 
                        2811 .LDW_4e765f0:
00000245 45             2812 	.byte	69
00000246 01             2813 	.byte	1
                        2814 
00000247 00             2815 	.byte	0
                        2816 
                        2817 .LDW_4e766d0:
00000248 44             2818 	.byte	68
00000249 00000000*      2819 	.word	.LDW_4979c60
0000024d 01             2820 	.byte	1
                        2821 
0000024e 00             2822 	.byte	0
                        2823 
                        2824 .LDW_4e764d8:
0000024f 44             2825 	.byte	68
00000250 00000000*      2826 	.word	.LDW_4979f08

                                                                      Page 54
                                                              C:\Users\nhuliyap\AppData\Local\Temp\gh_0000d941.s
00000254 01             2827 	.byte	1
                        2828 
00000255 00             2829 	.byte	0
                        2830 
                        2831 .LDW_4e76548:
00000256 44             2832 	.byte	68
00000257 00000000*      2833 	.word	.LDW_4979c60
0000025b 01             2834 	.byte	1
                        2835 
                        2836 .LDW_4e78d68:
0000025c 12             2837 	.byte	18
0000025d 00000000*      2838 	.word	.LDW_4979f08
00000261 00             2839 	.byte	0
                        2840 
                        2841 .LDW_4e78e88:
00000262 12             2842 	.byte	18
00000263 00000000*      2843 	.word	.LDW_4979f08
00000267 00             2844 	.byte	0
                        2845 
                        2846 .LDW_4e78948:
00000268 12             2847 	.byte	18
00000269 00000000*      2848 	.word	.LDW_4c76d98
0000026d 00             2849 	.byte	0
                        2850 
                        2851 .LDW_4e78df8:
0000026e 12             2852 	.byte	18
0000026f 00000000*      2853 	.word	.LDW_4c76be0
00000273 00             2854 	.byte	0
                        2855 
00000274 00             2856 	.byte	0
                        2857 
                        2858 .LDW_4e76510:
00000275 44             2859 	.byte	68
00000276 00000000*      2860 	.word	.LDW_4979c60
0000027a 01             2861 	.byte	1
                        2862 
                        2863 .LDW_4e78c18:
0000027b 12             2864 	.byte	18
0000027c 00000000*      2865 	.word	.LDW_4979f08
00000280 00             2866 	.byte	0
                        2867 
                        2868 .LDW_4e78e28:
00000281 12             2869 	.byte	18
00000282 00000000*      2870 	.word	.LDW_4979f08
00000286 00             2871 	.byte	0
                        2872 
                        2873 .LDW_4e78c48:
00000287 12             2874 	.byte	18
00000288 00000000*      2875 	.word	.LDW_4979f08
0000028c 00             2876 	.byte	0
                        2877 
                        2878 .LDW_4e78c78:
0000028d 12             2879 	.byte	18
0000028e 00000000*      2880 	.word	.LDW_4c76be0
00000292 00             2881 	.byte	0
                        2882 
00000293 00             2883 	.byte	0
                        2884 
                        2885 .LDW_4e76628:
00000294 45             2886 	.byte	69
00000295 01             2887 	.byte	1

                                                                      Page 55
                                                              C:\Users\nhuliyap\AppData\Local\Temp\gh_0000d941.s
                        2888 
00000296 00             2889 	.byte	0
                        2890 
                        2891 .LDW_4e76660:
00000297 44             2892 	.byte	68
00000298 00000000*      2893 	.word	.LDW_4979c60
0000029c 01             2894 	.byte	1
                        2895 
                        2896 .LDW_4e78978:
0000029d 12             2897 	.byte	18
0000029e 00000000*      2898 	.word	.LDW_497a010
000002a2 00             2899 	.byte	0
                        2900 
000002a3 00             2901 	.byte	0
                        2902 
                        2903 .LDW_4e76698:
000002a4 44             2904 	.byte	68
000002a5 00000000*      2905 	.word	.LDW_4979c60
000002a9 01             2906 	.byte	1
                        2907 
000002aa 00             2908 	.byte	0
                        2909 
                        2910 .LDW_4e76820:
000002ab 44             2911 	.byte	68
000002ac 00000000*      2912 	.word	.LDW_4979c60
000002b0 01             2913 	.byte	1
                        2914 
                        2915 .LDW_4e78e58:
000002b1 12             2916 	.byte	18
000002b2 00000000*      2917 	.word	.LDW_4979f08
000002b6 00             2918 	.byte	0
                        2919 
                        2920 .LDW_4e79038:
000002b7 12             2921 	.byte	18
000002b8 00000000*      2922 	.word	.LDW_4979f08
000002bc 00             2923 	.byte	0
                        2924 
                        2925 .LDW_4e79398:
000002bd 12             2926 	.byte	18
000002be 00000000*      2927 	.word	.LDW_4c76be0
000002c2 00             2928 	.byte	0
                        2929 
                        2930 .LDW_4e790f8:
000002c3 12             2931 	.byte	18
000002c4 00000000*      2932 	.word	.LDW_4979f08
000002c8 00             2933 	.byte	0
                        2934 
000002c9 00             2935 	.byte	0
                        2936 
                        2937 .LDW_4e76740:
000002ca 45             2938 	.byte	69
000002cb 01             2939 	.byte	1
                        2940 
                        2941 .LDW_4e790c8:
000002cc 12             2942 	.byte	18
000002cd 00000000*      2943 	.word	.LDW_4979f08
000002d1 00             2944 	.byte	0
                        2945 
                        2946 .LDW_4e79008:
000002d2 12             2947 	.byte	18
000002d3 00000000*      2948 	.word	.LDW_4c76d98

                                                                      Page 56
                                                              C:\Users\nhuliyap\AppData\Local\Temp\gh_0000d941.s
000002d7 00             2949 	.byte	0
                        2950 
000002d8 00             2951 	.byte	0
                        2952 
                        2953 .LDW_4e76778:
000002d9 45             2954 	.byte	69
000002da 01             2955 	.byte	1
                        2956 
                        2957 .LDW_4e79308:
000002db 12             2958 	.byte	18
000002dc 00000000*      2959 	.word	.LDW_4e35298
000002e0 00             2960 	.byte	0
                        2961 
                        2962 .LDW_4e791b8:
000002e1 12             2963 	.byte	18
000002e2 00000000*      2964 	.word	.LDW_4979f08
000002e6 00             2965 	.byte	0
                        2966 
000002e7 00             2967 	.byte	0
                        2968 
                        2969 .LDW_4e76890:
000002e8 45             2970 	.byte	69
000002e9 01             2971 	.byte	1
                        2972 
000002ea 00             2973 	.byte	0
                        2974 
                        2975 .LDW_4e76708:
000002eb 44             2976 	.byte	68
000002ec 00000000*      2977 	.word	.LDW_4979c60
000002f0 01             2978 	.byte	1
                        2979 
000002f1 00             2980 	.byte	0
                        2981 
                        2982 .LDW_4c76d98:
000002f2 28             2983 	.byte	40
000002f3 75696e74385f   2984 	.strz	"uint8_t"
000002f9 7400 
000002fb 27             2985 	.byte	39
000002fc 18             2986 	.byte	24
000002fd 04             2987 	.byte	4
000002fe 00000000*      2988 	.word	.LDW_4937470
                        2989 
                        2990 	.section	.debug_abbrev
00000068 28             2991 	.byte	40
00000069 16             2992 	.byte	22
0000006a 00             2993 	.byte	0
0000006b 0308           2994 	.byte	3,8
0000006d 3b0f           2995 	.byte	59,15
0000006f 390f           2996 	.byte	57,15
00000071 3a0f           2997 	.byte	58,15
00000073 4910           2998 	.byte	73,16
00000075 0000           2999 	.byte	0,0
                        3000 
                        3001 	.section	.debug_info
                        3002 .LDW_497a010:
00000302 28             3003 	.byte	40
00000303 75696e743136   3004 	.strz	"uint16_t"
00000309 5f7400 
0000030c 28             3005 	.byte	40
0000030d 18             3006 	.byte	24
0000030e 04             3007 	.byte	4

                                                                      Page 57
                                                              C:\Users\nhuliyap\AppData\Local\Temp\gh_0000d941.s
0000030f 00000000*      3008 	.word	.LDW_4936fd8
                        3009 
                        3010 .LDW_4979f08:
00000313 28             3011 	.byte	40
00000314 75696e743332   3012 	.strz	"uint32_t"
0000031a 5f7400 
0000031d 29             3013 	.byte	41
0000031e 18             3014 	.byte	24
0000031f 04             3015 	.byte	4
00000320 00000000*      3016 	.word	.LDW_49371d0
                        3017 
                        3018 .LDW_4979cb8:
00000324 40             3019 	.byte	64
00000325 525f46444c5f   3020 	.strz	"R_FDL_DESCRIPTOR_T"
0000032b 444553435249 
00000331 50544f525f54 
00000337 00 
00000338 16             3021 	.byte	22
00000339 10             3022 	.byte	16
0000033a 13             3023 	.byte	19
0000033b 08             3024 	.byte	8
0000033c 01             3025 	.byte	1
                        3026 
                        3027 	.section	.debug_abbrev
00000077 40             3028 	.byte	64
00000078 13             3029 	.byte	19
00000079 01             3030 	.byte	1
0000007a 0308           3031 	.byte	3,8
0000007c 3b0f           3032 	.byte	59,15
0000007e 390f           3033 	.byte	57,15
00000080 3a0f           3034 	.byte	58,15
00000082 0b0f           3035 	.byte	11,15
00000084 320b           3036 	.byte	50,11
00000086 0000           3037 	.byte	0,0
                        3038 
                        3039 	.section	.debug_info
                        3040 .LDW_4e71ea8:
0000033d 23             3041 	.byte	35
0000033e 637075467265   3042 	.strz	"cpuFrequencyMHz_u16"
00000344 7175656e6379 
0000034a 4d487a5f7531 
00000350 3600 
00000352 18             3043 	.byte	24
00000353 10             3044 	.byte	16
00000354 13             3045 	.byte	19
00000355 00000000*      3046 	.word	.LDW_497a010
00000359 0223           3047 	.byte	2,35
0000035b 00             3048 	.byte	0
0000035c 01             3049 	.byte	1
                        3050 
                        3051 	.section	.debug_abbrev
00000088 23             3052 	.byte	35
00000089 0d             3053 	.byte	13
0000008a 00             3054 	.byte	0
0000008b 0308           3055 	.byte	3,8
0000008d 3b0f           3056 	.byte	59,15
0000008f 390f           3057 	.byte	57,15
00000091 3a0f           3058 	.byte	58,15
00000093 4910           3059 	.byte	73,16
00000095 380a           3060 	.byte	56,10
00000097 320b           3061 	.byte	50,11

                                                                      Page 58
                                                              C:\Users\nhuliyap\AppData\Local\Temp\gh_0000d941.s
00000099 0000           3062 	.byte	0,0
                        3063 
                        3064 	.section	.debug_info
                        3065 .LDW_4e71fc8:
0000035d 23             3066 	.byte	35
0000035e 66646c506f6f   3067 	.strz	"fdlPoolSize_u16"
00000364 6c53697a655f 
0000036a 75313600 
0000036e 19             3068 	.byte	25
0000036f 10             3069 	.byte	16
00000370 13             3070 	.byte	19
00000371 00000000*      3071 	.word	.LDW_497a010
00000375 0223           3072 	.byte	2,35
00000377 02             3073 	.byte	2
00000378 01             3074 	.byte	1
                        3075 
                        3076 .LDW_4e71a28:
00000379 23             3077 	.byte	35
0000037a 65656c506f6f   3078 	.strz	"eelPoolStart_u16"
00000380 6c5374617274 
00000386 5f75313600 
0000038b 1a             3079 	.byte	26
0000038c 10             3080 	.byte	16
0000038d 13             3081 	.byte	19
0000038e 00000000*      3082 	.word	.LDW_497a010
00000392 0223           3083 	.byte	2,35
00000394 04             3084 	.byte	4
00000395 01             3085 	.byte	1
                        3086 
                        3087 .LDW_4e71b90:
00000396 23             3088 	.byte	35
00000397 65656c506f6f   3089 	.strz	"eelPoolSize_u16"
0000039d 6c53697a655f 
000003a3 75313600 
000003a7 1b             3090 	.byte	27
000003a8 10             3091 	.byte	16
000003a9 13             3092 	.byte	19
000003aa 00000000*      3093 	.word	.LDW_497a010
000003ae 0223           3094 	.byte	2,35
000003b0 06             3095 	.byte	6
000003b1 01             3096 	.byte	1
                        3097 
000003b2 00             3098 	.byte	0
                        3099 
                        3100 .LDW_4979d10:
000003b3 28             3101 	.byte	40
000003b4 725f66646c5f   3102 	.strz	"r_fdl_descriptor_t"
000003ba 646573637269 
000003c0 70746f725f74 
000003c6 00 
000003c7 1c             3103 	.byte	28
000003c8 02             3104 	.byte	2
000003c9 13             3105 	.byte	19
000003ca 00000000*      3106 	.word	.LDW_4979cb8
                        3107 
                        3108 .LDW_494c060:
000003ce 2e             3109 	.byte	46
000003cf 525f46444c5f   3110 	.strz	"R_FDL_STATUS_T"
000003d5 535441545553 
000003db 5f5400 
000003de 1e             3111 	.byte	30

                                                                      Page 59
                                                              C:\Users\nhuliyap\AppData\Local\Temp\gh_0000d941.s
000003df 0e             3112 	.byte	14
000003e0 13             3113 	.byte	19
000003e1 01             3114 	.byte	1
000003e2 01             3115 	.byte	1
                        3116 
                        3117 	.section	.debug_abbrev
0000009b 2e             3118 	.byte	46
0000009c 04             3119 	.byte	4
0000009d 01             3120 	.byte	1
0000009e 0308           3121 	.byte	3,8
000000a0 3b0f           3122 	.byte	59,15
000000a2 390f           3123 	.byte	57,15
000000a4 3a0f           3124 	.byte	58,15
000000a6 0b0f           3125 	.byte	11,15
000000a8 320b           3126 	.byte	50,11
000000aa 0000           3127 	.byte	0,0
                        3128 
                        3129 	.section	.debug_info
                        3130 .LDW_497da08:
000003e3 2d             3131 	.byte	45
000003e4 525f46444c5f   3132 	.strz	"R_FDL_OK"
000003ea 4f4b00 
000003ed 20             3133 	.byte	32
000003ee 05             3134 	.byte	5
000003ef 13             3135 	.byte	19
000003f0 00             3136 	.byte	0
                        3137 
                        3138 	.section	.debug_abbrev
000000ac 2d             3139 	.byte	45
000000ad 28             3140 	.byte	40
000000ae 00             3141 	.byte	0
000000af 0308           3142 	.byte	3,8
000000b1 3b0f           3143 	.byte	59,15
000000b3 390f           3144 	.byte	57,15
000000b5 3a0f           3145 	.byte	58,15
000000b7 1c0d           3146 	.byte	28,13
000000b9 0000           3147 	.byte	0,0
                        3148 
                        3149 	.section	.debug_info
                        3150 .LDW_497da48:
000003f1 2d             3151 	.byte	45
000003f2 525f46444c5f   3152 	.strz	"R_FDL_BUSY"
000003f8 4255535900 
000003fd 21             3153 	.byte	33
000003fe 08             3154 	.byte	8
000003ff 13             3155 	.byte	19
00000400 01             3156 	.byte	1
                        3157 
                        3158 .LDW_497da88:
00000401 2d             3159 	.byte	45
00000402 525f46444c5f   3160 	.strz	"R_FDL_SUSPENDED"
00000408 53555350454e 
0000040e 44454400 
00000412 22             3161 	.byte	34
00000413 08             3162 	.byte	8
00000414 13             3163 	.byte	19
00000415 02             3164 	.byte	2
                        3165 
                        3166 .LDW_497dac8:
00000416 2d             3167 	.byte	45
00000417 525f46444c5f   3168 	.strz	"R_FDL_ERR_CONFIGURATION"

                                                                      Page 60
                                                              C:\Users\nhuliyap\AppData\Local\Temp\gh_0000d941.s
0000041d 4552525f434f 
00000423 4e4649475552 
00000429 4154494f4e00 
0000042f 23             3169 	.byte	35
00000430 08             3170 	.byte	8
00000431 13             3171 	.byte	19
00000432 03             3172 	.byte	3
                        3173 
                        3174 .LDW_497db08:
00000433 2d             3175 	.byte	45
00000434 525f46444c5f   3176 	.strz	"R_FDL_ERR_PARAMETER"
0000043a 4552525f5041 
00000440 52414d455445 
00000446 5200 
00000448 24             3177 	.byte	36
00000449 08             3178 	.byte	8
0000044a 13             3179 	.byte	19
0000044b 04             3180 	.byte	4
                        3181 
                        3182 .LDW_497db48:
0000044c 2d             3183 	.byte	45
0000044d 525f46444c5f   3184 	.strz	"R_FDL_ERR_PROTECTION"
00000453 4552525f5052 
00000459 4f5445435449 
0000045f 4f4e00 
00000462 25             3185 	.byte	37
00000463 08             3186 	.byte	8
00000464 13             3187 	.byte	19
00000465 05             3188 	.byte	5
                        3189 
                        3190 .LDW_4979398:
00000466 2d             3191 	.byte	45
00000467 525f46444c5f   3192 	.strz	"R_FDL_ERR_REJECTED"
0000046d 4552525f5245 
00000473 4a4543544544 
00000479 00 
0000047a 26             3193 	.byte	38
0000047b 08             3194 	.byte	8
0000047c 13             3195 	.byte	19
0000047d 06             3196 	.byte	6
                        3197 
                        3198 .LDW_49793d8:
0000047e 2d             3199 	.byte	45
0000047f 525f46444c5f   3200 	.strz	"R_FDL_ERR_WRITE"
00000485 4552525f5752 
0000048b 49544500 
0000048f 27             3201 	.byte	39
00000490 08             3202 	.byte	8
00000491 13             3203 	.byte	19
00000492 07             3204 	.byte	7
                        3205 
                        3206 .LDW_4979418:
00000493 2d             3207 	.byte	45
00000494 525f46444c5f   3208 	.strz	"R_FDL_ERR_ERASE"
0000049a 4552525f4552 
000004a0 41534500 
000004a4 28             3209 	.byte	40
000004a5 08             3210 	.byte	8
000004a6 13             3211 	.byte	19
000004a7 08             3212 	.byte	8
                        3213 

                                                                      Page 61
                                                              C:\Users\nhuliyap\AppData\Local\Temp\gh_0000d941.s
                        3214 .LDW_4979b80:
000004a8 2d             3215 	.byte	45
000004a9 525f46444c5f   3216 	.strz	"R_FDL_ERR_BLANKCHECK"
000004af 4552525f424c 
000004b5 414e4b434845 
000004bb 434b00 
000004be 29             3217 	.byte	41
000004bf 08             3218 	.byte	8
000004c0 13             3219 	.byte	19
000004c1 09             3220 	.byte	9
                        3221 
                        3222 .LDW_4979540:
000004c2 2d             3223 	.byte	45
000004c3 525f46444c5f   3224 	.strz	"R_FDL_ERR_COMMAND"
000004c9 4552525f434f 
000004cf 4d4d414e4400 
000004d5 2a             3225 	.byte	42
000004d6 08             3226 	.byte	8
000004d7 13             3227 	.byte	19
000004d8 0a             3228 	.byte	10
                        3229 
                        3230 .LDW_49794c0:
000004d9 2d             3231 	.byte	45
000004da 525f46444c5f   3232 	.strz	"R_FDL_ERR_ECC_SED"
000004e0 4552525f4543 
000004e6 435f53454400 
000004ec 2b             3233 	.byte	43
000004ed 08             3234 	.byte	8
000004ee 13             3235 	.byte	19
000004ef 0b             3236 	.byte	11
                        3237 
                        3238 .LDW_4979bc0:
000004f0 2d             3239 	.byte	45
000004f1 525f46444c5f   3240 	.strz	"R_FDL_ERR_ECC_DED"
000004f7 4552525f4543 
000004fd 435f44454400 
00000503 2c             3241 	.byte	44
00000504 08             3242 	.byte	8
00000505 13             3243 	.byte	19
00000506 0c             3244 	.byte	12
                        3245 
                        3246 .LDW_49798c0:
00000507 2d             3247 	.byte	45
00000508 525f46444c5f   3248 	.strz	"R_FDL_ERR_INTERNAL"
0000050e 4552525f494e 
00000514 5445524e414c 
0000051a 00 
0000051b 2d             3249 	.byte	45
0000051c 08             3250 	.byte	8
0000051d 13             3251 	.byte	19
0000051e 0d             3252 	.byte	13
                        3253 
                        3254 .LDW_4979940:
0000051f 2d             3255 	.byte	45
00000520 525f46444c5f   3256 	.strz	"R_FDL_CANCELLED"
00000526 43414e43454c 
0000052c 4c454400 
00000530 2e             3257 	.byte	46
00000531 08             3258 	.byte	8
00000532 13             3259 	.byte	19
00000533 0e             3260 	.byte	14

                                                                      Page 62
                                                              C:\Users\nhuliyap\AppData\Local\Temp\gh_0000d941.s
                        3261 
00000534 00             3262 	.byte	0
                        3263 
                        3264 .LDW_4979c60:
00000535 28             3265 	.byte	40
00000536 725f66646c5f   3266 	.strz	"r_fdl_status_t"
0000053c 737461747573 
00000542 5f7400 
00000545 2f             3267 	.byte	47
00000546 02             3268 	.byte	2
00000547 13             3269 	.byte	19
00000548 00000000*      3270 	.word	.LDW_494c060
                        3271 
                        3272 .LDW_4ca6558:
0000054c 2e             3273 	.byte	46
0000054d 525f46444c5f   3274 	.strz	"R_FDL_ACCESS_TYPE_T"
00000553 414343455353 
00000559 5f545950455f 
0000055f 5400 
00000561 31             3275 	.byte	49
00000562 0e             3276 	.byte	14
00000563 13             3277 	.byte	19
00000564 01             3278 	.byte	1
00000565 01             3279 	.byte	1
                        3280 
                        3281 .LDW_49796c0:
00000566 2d             3282 	.byte	45
00000567 525f46444c5f   3283 	.strz	"R_FDL_ACCESS_NONE"
0000056d 414343455353 
00000573 5f4e4f4e4500 
00000579 33             3284 	.byte	51
0000057a 05             3285 	.byte	5
0000057b 13             3286 	.byte	19
0000057c 00             3287 	.byte	0
                        3288 
                        3289 .LDW_4979980:
0000057d 2d             3290 	.byte	45
0000057e 525f46444c5f   3291 	.strz	"R_FDL_ACCESS_USER"
00000584 414343455353 
0000058a 5f5553455200 
00000590 34             3292 	.byte	52
00000591 08             3293 	.byte	8
00000592 13             3294 	.byte	19
00000593 01             3295 	.byte	1
                        3296 
                        3297 .LDW_4979500:
00000594 2d             3298 	.byte	45
00000595 525f46444c5f   3299 	.strz	"R_FDL_ACCESS_EEL"
0000059b 414343455353 
000005a1 5f45454c00 
000005a6 35             3300 	.byte	53
000005a7 08             3301 	.byte	8
000005a8 13             3302 	.byte	19
000005a9 02             3303 	.byte	2
                        3304 
000005aa 00             3305 	.byte	0
                        3306 
                        3307 .LDW_4c76be0:
000005ab 28             3308 	.byte	40
000005ac 725f66646c5f   3309 	.strz	"r_fdl_accessType_t"
000005b2 616363657373 

                                                                      Page 63
                                                              C:\Users\nhuliyap\AppData\Local\Temp\gh_0000d941.s
000005b8 547970655f74 
000005be 00 
000005bf 36             3310 	.byte	54
000005c0 02             3311 	.byte	2
000005c1 13             3312 	.byte	19
000005c2 00000000*      3313 	.word	.LDW_4ca6558
                        3314 
                        3315 .LDW_4c75920:
000005c6 2e             3316 	.byte	46
000005c7 525f46444c5f   3317 	.strz	"R_FDL_COMMAND_T"
000005cd 434f4d4d414e 
000005d3 445f5400 
000005d7 38             3318 	.byte	56
000005d8 0e             3319 	.byte	14
000005d9 13             3320 	.byte	19
000005da 01             3321 	.byte	1
000005db 01             3322 	.byte	1
                        3323 
                        3324 .LDW_4979a00:
000005dc 2d             3325 	.byte	45
000005dd 525f46444c5f   3326 	.strz	"R_FDL_CMD_ERASE"
000005e3 434d445f4552 
000005e9 41534500 
000005ed 3a             3327 	.byte	58
000005ee 05             3328 	.byte	5
000005ef 13             3329 	.byte	19
000005f0 00             3330 	.byte	0
                        3331 
                        3332 .LDW_49799c0:
000005f1 2d             3333 	.byte	45
000005f2 525f46444c5f   3334 	.strz	"R_FDL_CMD_WRITE"
000005f8 434d445f5752 
000005fe 49544500 
00000602 3b             3335 	.byte	59
00000603 08             3336 	.byte	8
00000604 13             3337 	.byte	19
00000605 01             3338 	.byte	1
                        3339 
                        3340 .LDW_4979a40:
00000606 2d             3341 	.byte	45
00000607 525f46444c5f   3342 	.strz	"R_FDL_CMD_BLANKCHECK"
0000060d 434d445f424c 
00000613 414e4b434845 
00000619 434b00 
0000061c 3c             3343 	.byte	60
0000061d 08             3344 	.byte	8
0000061e 13             3345 	.byte	19
0000061f 02             3346 	.byte	2
                        3347 
                        3348 .LDW_4979680:
00000620 2d             3349 	.byte	45
00000621 525f46444c5f   3350 	.strz	"R_FDL_CMD_READ"
00000627 434d445f5245 
0000062d 414400 
00000630 3d             3351 	.byte	61
00000631 08             3352 	.byte	8
00000632 13             3353 	.byte	19
00000633 03             3354 	.byte	3
                        3355 
                        3356 .LDW_4979700:
00000634 2d             3357 	.byte	45

                                                                      Page 64
                                                              C:\Users\nhuliyap\AppData\Local\Temp\gh_0000d941.s
00000635 525f46444c5f   3358 	.strz	"R_FDL_CMD_PREPARE_ENV"
0000063b 434d445f5052 
00000641 45504152455f 
00000647 454e5600 
0000064b 41             3359 	.byte	65
0000064c 05             3360 	.byte	5
0000064d 13             3361 	.byte	19
0000064e 05             3362 	.byte	5
                        3363 
0000064f 00             3364 	.byte	0
                        3365 
                        3366 .LDW_4c75210:
00000650 28             3367 	.byte	40
00000651 725f66646c5f   3368 	.strz	"r_fdl_command_t"
00000657 636f6d6d616e 
0000065d 645f7400 
00000661 42             3369 	.byte	66
00000662 02             3370 	.byte	2
00000663 13             3371 	.byte	19
00000664 00000000*      3372 	.word	.LDW_4c75920
                        3373 
                        3374 .LDW_497a0c0:
00000668 40             3375 	.byte	64
00000669 525f46444c5f   3376 	.strz	"R_FDL_REQUEST_T"
0000066f 524551554553 
00000675 545f5400 
00000679 44             3377 	.byte	68
0000067a 19             3378 	.byte	25
0000067b 13             3379 	.byte	19
0000067c 10             3380 	.byte	16
0000067d 01             3381 	.byte	1
                        3382 
                        3383 .LDW_4e719e0:
0000067e 23             3384 	.byte	35
0000067f 636f6d6d616e   3385 	.strz	"command_enu"
00000685 645f656e7500 
0000068b 46             3386 	.byte	70
0000068c 19             3387 	.byte	25
0000068d 13             3388 	.byte	19
0000068e 00000000*      3389 	.word	.LDW_4c75210
00000692 0223           3390 	.byte	2,35
00000694 00             3391 	.byte	0
00000695 01             3392 	.byte	1
                        3393 
                        3394 .LDW_4e71a70:
00000696 23             3395 	.byte	35
00000697 627566416464   3396 	.strz	"bufAddr_u32"
0000069d 725f75333200 
000006a3 47             3397 	.byte	71
000006a4 18             3398 	.byte	24
000006a5 13             3399 	.byte	19
000006a6 00000000*      3400 	.word	.LDW_4979f08
000006aa 0223           3401 	.byte	2,35
000006ac 04             3402 	.byte	4
000006ad 01             3403 	.byte	1
                        3404 
                        3405 .LDW_4e71c68:
000006ae 23             3406 	.byte	35
000006af 6964785f7533   3407 	.strz	"idx_u32"
000006b5 3200 
000006b7 48             3408 	.byte	72

                                                                      Page 65
                                                              C:\Users\nhuliyap\AppData\Local\Temp\gh_0000d941.s
000006b8 18             3409 	.byte	24
000006b9 13             3410 	.byte	19
000006ba 00000000*      3411 	.word	.LDW_4979f08
000006be 0223           3412 	.byte	2,35
000006c0 08             3413 	.byte	8
000006c1 01             3414 	.byte	1
                        3415 
                        3416 .LDW_4e71e60:
000006c2 23             3417 	.byte	35
000006c3 636e745f7531   3418 	.strz	"cnt_u16"
000006c9 3600 
000006cb 49             3419 	.byte	73
000006cc 18             3420 	.byte	24
000006cd 13             3421 	.byte	19
000006ce 00000000*      3422 	.word	.LDW_497a010
000006d2 0223           3423 	.byte	2,35
000006d4 0c             3424 	.byte	12
000006d5 01             3425 	.byte	1
                        3426 
                        3427 .LDW_4e71ab8:
000006d6 23             3428 	.byte	35
000006d7 616363657373   3429 	.strz	"accessType_enu"
000006dd 547970655f65 
000006e3 6e7500 
000006e6 4a             3430 	.byte	74
000006e7 19             3431 	.byte	25
000006e8 13             3432 	.byte	19
000006e9 00000000*      3433 	.word	.LDW_4c76be0
000006ed 0223           3434 	.byte	2,35
000006ef 0e             3435 	.byte	14
000006f0 01             3436 	.byte	1
                        3437 
                        3438 .LDW_4e71f38:
000006f1 23             3439 	.byte	35
000006f2 737461747573   3440 	.strz	"status_enu"
000006f8 5f656e7500 
000006fd 4b             3441 	.byte	75
000006fe 19             3442 	.byte	25
000006ff 13             3443 	.byte	19
00000700 00000000*      3444 	.word	.LDW_4979c60
00000704 0223           3445 	.byte	2,35
00000706 0f             3446 	.byte	15
00000707 01             3447 	.byte	1
                        3448 
00000708 00             3449 	.byte	0
                        3450 
                        3451 .LDW_497a170:
00000709 28             3452 	.byte	40
0000070a 725f66646c5f   3453 	.strz	"r_fdl_request_t"
00000710 726571756573 
00000716 745f7400 
0000071a 4c             3454 	.byte	76
0000071b 02             3455 	.byte	2
0000071c 13             3456 	.byte	19
0000071d 00000000*      3457 	.word	.LDW_497a118
                        3458 
                        3459 .LDW_497a2b8:
00000721 2e             3460 	.byte	46
00000722 525f46444c5f   3461 	.strz	"R_FDL_FLAG_T"
00000728 464c41475f54 
0000072e 00 

                                                                      Page 66
                                                              C:\Users\nhuliyap\AppData\Local\Temp\gh_0000d941.s
0000072f 17             3462 	.byte	23
00000730 0e             3463 	.byte	14
00000731 02             3464 	.byte	2
00000732 01             3465 	.byte	1
00000733 01             3466 	.byte	1
                        3467 
                        3468 .LDW_4979880:
00000734 2d             3469 	.byte	45
00000735 525f46444c5f   3470 	.strz	"R_FDL_FALSE"
0000073b 46414c534500 
00000741 19             3471 	.byte	25
00000742 05             3472 	.byte	5
00000743 02             3473 	.byte	2
00000744 00             3474 	.byte	0
                        3475 
                        3476 .LDW_4979640:
00000745 2d             3477 	.byte	45
00000746 525f46444c5f   3478 	.strz	"R_FDL_TRUE"
0000074c 5452554500 
00000751 1a             3479 	.byte	26
00000752 08             3480 	.byte	8
00000753 02             3481 	.byte	2
00000754 01             3482 	.byte	1
                        3483 
00000755 00             3484 	.byte	0
                        3485 
                        3486 .LDW_4c74e48:
00000756 28             3487 	.byte	40
00000757 725f66646c5f   3488 	.strz	"r_fdl_flag_t"
0000075d 666c61675f74 
00000763 00 
00000764 1b             3489 	.byte	27
00000765 02             3490 	.byte	2
00000766 02             3491 	.byte	2
00000767 00000000*      3492 	.word	.LDW_497a2b8
                        3493 
                        3494 .LDW_4e32060:
0000076b 2e             3495 	.byte	46
0000076c 525f46444c5f   3496 	.strz	"R_FDL_INT_STATUS_T"
00000772 494e545f5354 
00000778 415455535f54 
0000077e 00 
0000077f 1d             3497 	.byte	29
00000780 0e             3498 	.byte	14
00000781 02             3499 	.byte	2
00000782 04             3500 	.byte	4
00000783 01             3501 	.byte	1
                        3502 
                        3503 .LDW_4e18d58:
00000784 2d             3504 	.byte	45
00000785 525f46444c5f   3505 	.strz	"R_FDL_ISTAT_NOINIT"
0000078b 49535441545f 
00000791 4e4f494e4954 
00000797 00 
00000798 1f             3506 	.byte	31
00000799 05             3507 	.byte	5
0000079a 02             3508 	.byte	2
0000079b 00             3509 	.byte	0
                        3510 
                        3511 .LDW_4e18e18:
0000079c 2d             3512 	.byte	45

                                                                      Page 67
                                                              C:\Users\nhuliyap\AppData\Local\Temp\gh_0000d941.s
0000079d 525f46444c5f   3513 	.strz	"R_FDL_ISTAT_INIT"
000007a3 49535441545f 
000007a9 494e495400 
000007ae 20             3514 	.byte	32
000007af 08             3515 	.byte	8
000007b0 02             3516 	.byte	2
000007b1 d4aad5aa05     3517 	.byte	212,170,213,170,5
                        3518 
                        3519 .LDW_4e19198:
000007b6 2d             3520 	.byte	45
000007b7 525f46444c5f   3521 	.strz	"R_FDL_ISTAT_NORMALOP"
000007bd 49535441545f 
000007c3 4e4f524d414c 
000007c9 4f5000 
000007cc 21             3522 	.byte	33
000007cd 08             3523 	.byte	8
000007ce 02             3524 	.byte	2
000007cf d5aad5aa05     3525 	.byte	213,170,213,170,5
                        3526 
                        3527 .LDW_4e18d98:
000007d4 2d             3528 	.byte	45
000007d5 525f46444c5f   3529 	.strz	"R_FDL_ISTAT_SUSPEND_PR"
000007db 49535441545f 
000007e1 53555350454e 
000007e7 445f505200 
000007ec 22             3530 	.byte	34
000007ed 08             3531 	.byte	8
000007ee 02             3532 	.byte	2
000007ef d6aad5aa05     3533 	.byte	214,170,213,170,5
                        3534 
                        3535 .LDW_4e18c98:
000007f4 2d             3536 	.byte	45
000007f5 525f46444c5f   3537 	.strz	"R_FDL_ISTAT_SUSPENDED"
000007fb 49535441545f 
00000801 53555350454e 
00000807 44454400 
0000080b 23             3538 	.byte	35
0000080c 08             3539 	.byte	8
0000080d 02             3540 	.byte	2
0000080e d7aad5aa05     3541 	.byte	215,170,213,170,5
                        3542 
                        3543 .LDW_4e19118:
00000813 2d             3544 	.byte	45
00000814 525f46444c5f   3545 	.strz	"R_FDL_ISTAT_STANDBY_PR"
0000081a 49535441545f 
00000820 5354414e4442 
00000826 595f505200 
0000082b 24             3546 	.byte	36
0000082c 08             3547 	.byte	8
0000082d 02             3548 	.byte	2
0000082e d8aad5aa05     3549 	.byte	216,170,213,170,5
                        3550 
                        3551 .LDW_4e18fd8:
00000833 2d             3552 	.byte	45
00000834 525f46444c5f   3553 	.strz	"R_FDL_ISTAT_STANDBY"
0000083a 49535441545f 
00000840 5354414e4442 
00000846 5900 
00000848 25             3554 	.byte	37
00000849 08             3555 	.byte	8
0000084a 02             3556 	.byte	2

                                                                      Page 68
                                                              C:\Users\nhuliyap\AppData\Local\Temp\gh_0000d941.s
0000084b d9aad5aa05     3557 	.byte	217,170,213,170,5
                        3558 
00000850 00             3559 	.byte	0
                        3560 
                        3561 .LDW_4e34c30:
00000851 28             3562 	.byte	40
00000852 725f66646c5f   3563 	.strz	"r_fdl_int_status_t"
00000858 696e745f7374 
0000085e 617475735f74 
00000864 00 
00000865 26             3564 	.byte	38
00000866 02             3565 	.byte	2
00000867 02             3566 	.byte	2
00000868 00000000*      3567 	.word	.LDW_4e32060
                        3568 
                        3569 .LDW_4e31c50:
0000086c 2e             3570 	.byte	46
0000086d 525f46444c5f   3571 	.strz	"R_FDL_OP_STATUS_T"
00000873 4f505f535441 
00000879 5455535f5400 
0000087f 2a             3572 	.byte	42
00000880 0e             3573 	.byte	14
00000881 02             3574 	.byte	2
00000882 01             3575 	.byte	1
00000883 01             3576 	.byte	1
                        3577 
                        3578 .LDW_4e19018:
00000884 2d             3579 	.byte	45
00000885 525f46444c5f   3580 	.strz	"R_FDL_OP_IDLE"
0000088b 4f505f49444c 
00000891 4500 
00000893 2c             3581 	.byte	44
00000894 05             3582 	.byte	5
00000895 02             3583 	.byte	2
00000896 00             3584 	.byte	0
                        3585 
                        3586 .LDW_4e19098:
00000897 2d             3587 	.byte	45
00000898 525f46444c5f   3588 	.strz	"R_FDL_OP_EXECUTE_SYNC_ON"
0000089e 4f505f455845 
000008a4 435554455f53 
000008aa 594e435f4f4e 
000008b0 00 
000008b1 2d             3589 	.byte	45
000008b2 08             3590 	.byte	8
000008b3 02             3591 	.byte	2
000008b4 01             3592 	.byte	1
                        3593 
                        3594 .LDW_4e18e98:
000008b5 2d             3595 	.byte	45
000008b6 525f46444c5f   3596 	.strz	"R_FDL_OP_PREPARE_START"
000008bc 4f505f505245 
000008c2 504152455f53 
000008c8 5441525400 
000008cd 2e             3597 	.byte	46
000008ce 08             3598 	.byte	8
000008cf 02             3599 	.byte	2
000008d0 02             3600 	.byte	2
                        3601 
                        3602 .LDW_4e190d8:
000008d1 2d             3603 	.byte	45

                                                                      Page 69
                                                              C:\Users\nhuliyap\AppData\Local\Temp\gh_0000d941.s
000008d2 525f46444c5f   3604 	.strz	"R_FDL_OP_PREPARE_RST_FCU"
000008d8 4f505f505245 
000008de 504152455f52 
000008e4 53545f464355 
000008ea 00 
000008eb 2f             3605 	.byte	47
000008ec 08             3606 	.byte	8
000008ed 02             3607 	.byte	2
000008ee 03             3608 	.byte	3
                        3609 
                        3610 .LDW_4e18f18:
000008ef 2d             3611 	.byte	45
000008f0 525f46444c5f   3612 	.strz	"R_FDL_OP_PREPARE_END"
000008f6 4f505f505245 
000008fc 504152455f45 
00000902 4e4400 
00000905 30             3613 	.byte	48
00000906 08             3614 	.byte	8
00000907 02             3615 	.byte	2
00000908 04             3616 	.byte	4
                        3617 
                        3618 .LDW_4e19158:
00000909 2d             3619 	.byte	45
0000090a 525f46444c5f   3620 	.strz	"R_FDL_OP_RESUME_SYNC_ON"
00000910 4f505f524553 
00000916 554d455f5359 
0000091c 4e435f4f4e00 
00000922 31             3621 	.byte	49
00000923 08             3622 	.byte	8
00000924 02             3623 	.byte	2
00000925 05             3624 	.byte	5
                        3625 
                        3626 .LDW_4e18ed8:
00000926 2d             3627 	.byte	45
00000927 525f46444c5f   3628 	.strz	"R_FDL_OP_RESUME_MULTI_SYNC_ON"
0000092d 4f505f524553 
00000933 554d455f4d55 
00000939 4c54495f5359 
0000093f 4e435f4f4e00 
00000945 32             3629 	.byte	50
00000946 08             3630 	.byte	8
00000947 02             3631 	.byte	2
00000948 06             3632 	.byte	6
                        3633 
                        3634 .LDW_4e18a58:
00000949 2d             3635 	.byte	45
0000094a 525f46444c5f   3636 	.strz	"R_FDL_OP_BUSY"
00000950 4f505f425553 
00000956 5900 
00000958 33             3637 	.byte	51
00000959 08             3638 	.byte	8
0000095a 02             3639 	.byte	2
0000095b 07             3640 	.byte	7
                        3641 
                        3642 .LDW_4e18b58:
0000095c 2d             3643 	.byte	45
0000095d 525f46444c5f   3644 	.strz	"R_FDL_OP_SUSPEND_SYNC_OFF"
00000963 4f505f535553 
00000969 50454e445f53 
0000096f 594e435f4f46 
00000975 4600 

                                                                      Page 70
                                                              C:\Users\nhuliyap\AppData\Local\Temp\gh_0000d941.s
00000977 34             3645 	.byte	52
00000978 08             3646 	.byte	8
00000979 02             3647 	.byte	2
0000097a 08             3648 	.byte	8
                        3649 
                        3650 .LDW_4e18a98:
0000097b 2d             3651 	.byte	45
0000097c 525f46444c5f   3652 	.strz	"R_FDL_OP_END_SYNC_OFF"
00000982 4f505f454e44 
00000988 5f53594e435f 
0000098e 4f464600 
00000992 35             3653 	.byte	53
00000993 08             3654 	.byte	8
00000994 02             3655 	.byte	2
00000995 09             3656 	.byte	9
                        3657 
00000996 00             3658 	.byte	0
                        3659 
                        3660 .LDW_4e34448:
00000997 28             3661 	.byte	40
00000998 725f66646c5f   3662 	.strz	"r_fdl_op_status_t"
0000099e 6f705f737461 
000009a4 7475735f7400 
000009aa 36             3663 	.byte	54
000009ab 02             3664 	.byte	2
000009ac 02             3665 	.byte	2
000009ad 00000000*      3666 	.word	.LDW_4e31c50
                        3667 
                        3668 .LDW_4e344a0:
000009b1 40             3669 	.byte	64
000009b2 525f46444c5f   3670 	.strz	"R_FDL_MULTIOP_T"
000009b8 4d554c54494f 
000009be 505f5400 
000009c2 38             3671 	.byte	56
000009c3 10             3672 	.byte	16
000009c4 02             3673 	.byte	2
000009c5 10             3674 	.byte	16
000009c6 01             3675 	.byte	1
                        3676 
                        3677 .LDW_4e33870:
000009c7 23             3678 	.byte	35
000009c8 666c61736841   3679 	.strz	"flashAdd_u32"
000009ce 64645f753332 
000009d4 00 
000009d5 3a             3680 	.byte	58
000009d6 18             3681 	.byte	24
000009d7 02             3682 	.byte	2
000009d8 00000000*      3683 	.word	.LDW_4979f08
000009dc 0223           3684 	.byte	2,35
000009de 00             3685 	.byte	0
000009df 01             3686 	.byte	1
                        3687 
                        3688 .LDW_4e33af8:
000009e0 23             3689 	.byte	35
000009e1 627566416464   3690 	.strz	"bufAdd_u32"
000009e7 5f75333200 
000009ec 3b             3691 	.byte	59
000009ed 18             3692 	.byte	24
000009ee 02             3693 	.byte	2
000009ef 00000000*      3694 	.word	.LDW_4979f08
000009f3 0223           3695 	.byte	2,35

                                                                      Page 71
                                                              C:\Users\nhuliyap\AppData\Local\Temp\gh_0000d941.s
000009f5 04             3696 	.byte	4
000009f6 01             3697 	.byte	1
                        3698 
                        3699 .LDW_4e33630:
000009f7 23             3700 	.byte	35
000009f8 666c61736841   3701 	.strz	"flashAddEnd_u32"
000009fe 6464456e645f 
00000a04 75333200 
00000a08 3c             3702 	.byte	60
00000a09 18             3703 	.byte	24
00000a0a 02             3704 	.byte	2
00000a0b 00000000*      3705 	.word	.LDW_4979f08
00000a0f 0223           3706 	.byte	2,35
00000a11 08             3707 	.byte	8
00000a12 01             3708 	.byte	1
                        3709 
                        3710 .LDW_4e33708:
00000a13 23             3711 	.byte	35
00000a14 616363657373   3712 	.strz	"accessType_enu"
00000a1a 547970655f65 
00000a20 6e7500 
00000a23 3d             3713 	.byte	61
00000a24 19             3714 	.byte	25
00000a25 02             3715 	.byte	2
00000a26 00000000*      3716 	.word	.LDW_4c76be0
00000a2a 0223           3717 	.byte	2,35
00000a2c 0c             3718 	.byte	12
00000a2d 01             3719 	.byte	1
                        3720 
00000a2e 00             3721 	.byte	0
                        3722 
                        3723 .LDW_4e344f8:
00000a2f 28             3724 	.byte	40
00000a30 725f66646c5f   3725 	.strz	"r_fdl_multiOp_t"
00000a36 6d756c74694f 
00000a3c 705f7400 
00000a40 3e             3726 	.byte	62
00000a41 02             3727 	.byte	2
00000a42 02             3728 	.byte	2
00000a43 00000000*      3729 	.word	.LDW_4e344a0
                        3730 
                        3731 .LDW_4e34550:
00000a47 40             3732 	.byte	64
00000a48 525f46444c5f   3733 	.strz	"R_FDL_DATA_T"
00000a4e 444154415f54 
00000a54 00 
00000a55 40             3734 	.byte	64
00000a56 10             3735 	.byte	16
00000a57 02             3736 	.byte	2
00000a58 54             3737 	.byte	84
00000a59 01             3738 	.byte	1
                        3739 
                        3740 .LDW_4e336c0:
00000a5a 23             3741 	.byte	35
00000a5b 52544366675f   3742 	.strz	"RTCfg_pstr"
00000a61 7073747200 
00000a66 42             3743 	.byte	66
00000a67 20             3744 	.byte	32
00000a68 02             3745 	.byte	2
00000a69 00000000*      3746 	.word	.LDW_4937080
00000a6d 0223           3747 	.byte	2,35

                                                                      Page 72
                                                              C:\Users\nhuliyap\AppData\Local\Temp\gh_0000d941.s
00000a6f 00             3748 	.byte	0
00000a70 01             3749 	.byte	1
                        3750 
                        3751 .LDW_4e33558:
00000a71 23             3752 	.byte	35
00000a72 6d756c4f705f   3753 	.strz	"mulOp_str"
00000a78 73747200 
00000a7c 43             3754 	.byte	67
00000a7d 19             3755 	.byte	25
00000a7e 02             3756 	.byte	2
00000a7f 00000000*      3757 	.word	.LDW_4e344f8
00000a83 0223           3758 	.byte	2,35
00000a85 04             3759 	.byte	4
00000a86 01             3760 	.byte	1
                        3761 
                        3762 .LDW_4e337e0:
00000a87 23             3763 	.byte	35
00000a88 7370644d756c   3764 	.strz	"spdMulOp_str"
00000a8e 4f705f737472 
00000a94 00 
00000a95 44             3765 	.byte	68
00000a96 19             3766 	.byte	25
00000a97 02             3767 	.byte	2
00000a98 00000000*      3768 	.word	.LDW_4e344f8
00000a9c 0223           3769 	.byte	2,35
00000a9e 14             3770 	.byte	20
00000a9f 01             3771 	.byte	1
                        3772 
                        3773 .LDW_4e33b40:
00000aa0 23             3774 	.byte	35
00000aa1 726571537573   3775 	.strz	"reqSuspend_pstr"
00000aa7 70656e645f70 
00000aad 73747200 
00000ab1 45             3776 	.byte	69
00000ab2 19             3777 	.byte	25
00000ab3 02             3778 	.byte	2
00000ab4 00000000*      3779 	.word	.LDW_4937010
00000ab8 0223           3780 	.byte	2,35
00000aba 24             3781 	.byte	36
00000abb 01             3782 	.byte	1
                        3783 
                        3784 .LDW_4e33360:
00000abc 23             3785 	.byte	35
00000abd 726571496e74   3786 	.strz	"reqInt_pstr"
00000ac3 5f7073747200 
00000ac9 46             3787 	.byte	70
00000aca 19             3788 	.byte	25
00000acb 02             3789 	.byte	2
00000acc 00000000*      3790 	.word	.LDW_4937010
00000ad0 0223           3791 	.byte	2,35
00000ad2 28             3792 	.byte	40
00000ad3 01             3793 	.byte	1
                        3794 
                        3795 .LDW_4e335a0:
00000ad4 23             3796 	.byte	35
00000ad5 6f7053746174   3797 	.strz	"opStatus_enu"
00000adb 75735f656e75 
00000ae1 00 
00000ae2 47             3798 	.byte	71
00000ae3 19             3799 	.byte	25
00000ae4 02             3800 	.byte	2

                                                                      Page 73
                                                              C:\Users\nhuliyap\AppData\Local\Temp\gh_0000d941.s
00000ae5 00000000*      3801 	.word	.LDW_4e34448
00000ae9 0223           3802 	.byte	2,35
00000aeb 2c             3803 	.byte	44
00000aec 01             3804 	.byte	1
                        3805 
                        3806 .LDW_4e33288:
00000aed 23             3807 	.byte	35
00000aee 6f704661696c   3808 	.strz	"opFailAddr_u32"
00000af4 416464725f75 
00000afa 333200 
00000afd 48             3809 	.byte	72
00000afe 18             3810 	.byte	24
00000aff 02             3811 	.byte	2
00000b00 00000000*      3812 	.word	.LDW_4979f08
00000b04 0223           3813 	.byte	2,35
00000b06 30             3814 	.byte	48
00000b07 01             3815 	.byte	1
                        3816 
                        3817 .LDW_4e333a8:
00000b08 23             3818 	.byte	35
00000b09 646653697a65   3819 	.strz	"dfSize_u32"
00000b0f 5f75333200 
00000b14 49             3820 	.byte	73
00000b15 18             3821 	.byte	24
00000b16 02             3822 	.byte	2
00000b17 00000000*      3823 	.word	.LDW_4979f08
00000b1b 0223           3824 	.byte	2,35
00000b1d 34             3825 	.byte	52
00000b1e 01             3826 	.byte	1
                        3827 
                        3828 .LDW_4e333f0:
00000b1f 23             3829 	.byte	35
00000b20 626173654164   3830 	.strz	"baseAddrECC_u32"
00000b26 64724543435f 
00000b2c 75333200 
00000b30 4a             3831 	.byte	74
00000b31 18             3832 	.byte	24
00000b32 02             3833 	.byte	2
00000b33 00000000*      3834 	.word	.LDW_4979f08
00000b37 0223           3835 	.byte	2,35
00000b39 38             3836 	.byte	56
00000b3a 01             3837 	.byte	1
                        3838 
                        3839 .LDW_4e335e8:
00000b3b 23             3840 	.byte	35
00000b3c 63686b73756d   3841 	.strz	"chksumEndAddr_u32"
00000b42 456e64416464 
00000b48 725f75333200 
00000b4e 4b             3842 	.byte	75
00000b4f 18             3843 	.byte	24
00000b50 02             3844 	.byte	2
00000b51 00000000*      3845 	.word	.LDW_4979f08
00000b55 0223           3846 	.byte	2,35
00000b57 3c             3847 	.byte	60
00000b58 01             3848 	.byte	1
                        3849 
                        3850 .LDW_4e36868:
00000b59 23             3851 	.byte	35
00000b5a 63686b73756d   3852 	.strz	"chksumVal_u32"
00000b60 56616c5f7533 
00000b66 3200 

                                                                      Page 74
                                                              C:\Users\nhuliyap\AppData\Local\Temp\gh_0000d941.s
00000b68 4c             3853 	.byte	76
00000b69 18             3854 	.byte	24
00000b6a 02             3855 	.byte	2
00000b6b 00000000*      3856 	.word	.LDW_4979f08
00000b6f 0223           3857 	.byte	2,35
00000b71 40             3858 	.byte	64
00000b72 01             3859 	.byte	1
                        3860 
                        3861 .LDW_4e36a18:
00000b73 23             3862 	.byte	35
00000b74 666c6173684d   3863 	.strz	"flashMode_u16"
00000b7a 6f64655f7531 
00000b80 3600 
00000b82 4d             3864 	.byte	77
00000b83 18             3865 	.byte	24
00000b84 02             3866 	.byte	2
00000b85 00000000*      3867 	.word	.LDW_497a010
00000b89 0223           3868 	.byte	2,35
00000b8b 44             3869 	.byte	68
00000b8c 01             3870 	.byte	1
                        3871 
                        3872 .LDW_4e36508:
00000b8d 23             3873 	.byte	35
00000b8e 737064526573   3874 	.strz	"spdResStatus_enu"
00000b94 537461747573 
00000b9a 5f656e7500 
00000b9f 4e             3875 	.byte	78
00000ba0 19             3876 	.byte	25
00000ba1 02             3877 	.byte	2
00000ba2 00000000*      3878 	.word	.LDW_4979c60
00000ba6 0223           3879 	.byte	2,35
00000ba8 46             3880 	.byte	70
00000ba9 01             3881 	.byte	1
                        3882 
                        3883 .LDW_4e367d8:
00000baa 23             3884 	.byte	35
00000bab 6f7052657375   3885 	.strz	"opResult_enu"
00000bb1 6c745f656e75 
00000bb7 00 
00000bb8 4f             3886 	.byte	79
00000bb9 19             3887 	.byte	25
00000bba 02             3888 	.byte	2
00000bbb 00000000*      3889 	.word	.LDW_4979c60
00000bbf 0223           3890 	.byte	2,35
00000bc1 47             3891 	.byte	71
00000bc2 01             3892 	.byte	1
                        3893 
                        3894 .LDW_4e366b8:
00000bc3 23             3895 	.byte	35
00000bc4 63616e63656c   3896 	.strz	"cancelRequest_enu"
00000bca 526571756573 
00000bd0 745f656e7500 
00000bd6 50             3897 	.byte	80
00000bd7 19             3898 	.byte	25
00000bd8 02             3899 	.byte	2
00000bd9 00000000*      3900 	.word	.LDW_4c74e48
00000bdd 0223           3901 	.byte	2,35
00000bdf 48             3902 	.byte	72
00000be0 01             3903 	.byte	1
                        3904 
                        3905 .LDW_4e36628:

                                                                      Page 75
                                                              C:\Users\nhuliyap\AppData\Local\Temp\gh_0000d941.s
00000be1 23             3906 	.byte	35
00000be2 737064537064   3907 	.strz	"spdSpdRequest_enu"
00000be8 526571756573 
00000bee 745f656e7500 
00000bf4 51             3908 	.byte	81
00000bf5 19             3909 	.byte	25
00000bf6 02             3910 	.byte	2
00000bf7 00000000*      3911 	.word	.LDW_4c74e48
00000bfb 0223           3912 	.byte	2,35
00000bfd 49             3913 	.byte	73
00000bfe 01             3914 	.byte	1
                        3915 
                        3916 .LDW_4e368f8:
00000bff 23             3917 	.byte	35
00000c00 737064526573   3918 	.strz	"spdResRequest_enu"
00000c06 526571756573 
00000c0c 745f656e7500 
00000c12 52             3919 	.byte	82
00000c13 19             3920 	.byte	25
00000c14 02             3921 	.byte	2
00000c15 00000000*      3922 	.word	.LDW_4c74e48
00000c19 0223           3923 	.byte	2,35
00000c1b 4a             3924 	.byte	74
00000c1c 01             3925 	.byte	1
                        3926 
                        3927 .LDW_4e368b0:
00000c1d 23             3928 	.byte	35
00000c1e 737442794953   3929 	.strz	"stByIStatBackUp_enu"
00000c24 746174426163 
00000c2a 6b55705f656e 
00000c30 7500 
00000c32 53             3930 	.byte	83
00000c33 19             3931 	.byte	25
00000c34 02             3932 	.byte	2
00000c35 00000000*      3933 	.word	.LDW_4e34c30
00000c39 0223           3934 	.byte	2,35
00000c3b 4c             3935 	.byte	76
00000c3c 01             3936 	.byte	1
                        3937 
                        3938 .LDW_4e365e0:
00000c3d 23             3939 	.byte	35
00000c3e 69537461745f   3940 	.strz	"iStat_enu"
00000c44 656e7500 
00000c48 54             3941 	.byte	84
00000c49 19             3942 	.byte	25
00000c4a 02             3943 	.byte	2
00000c4b 00000000*      3944 	.word	.LDW_4e34c30
00000c4f 0223           3945 	.byte	2,35
00000c51 50             3946 	.byte	80
00000c52 01             3947 	.byte	1
                        3948 
00000c53 00             3949 	.byte	0
                        3950 
                        3951 .LDW_4e36dc0:
00000c54 28             3952 	.byte	40
00000c55 725f66646c5f   3953 	.strz	"r_fdl_data_t"
00000c5b 646174615f74 
00000c61 00 
00000c62 55             3954 	.byte	85
00000c63 02             3955 	.byte	2
00000c64 02             3956 	.byte	2

                                                                      Page 76
                                                              C:\Users\nhuliyap\AppData\Local\Temp\gh_0000d941.s
00000c65 00000000*      3957 	.word	.LDW_4e34550
                        3958 
                        3959 .LDW_4e379c8:
00000c69 04             3960 	.byte	4
00000c6a 675f66646c5f   3961 	.strz	"g_fdl_str"
00000c70 73747200 
00000c74 1f             3962 	.byte	31
00000c75 1b             3963 	.byte	27
00000c76 01             3964 	.byte	1
00000c77 00000000*      3965 	.word	.LDW_4e36dc0
00000c7b 01             3966 	.byte	1
00000c7c 00             3967 	.byte	0
00000c7d 0503           3968 	.byte	5,3
00000c7f 00000000*      3969 	.word	_g_fdl_str
                        3970 
                        3971 	.section	.debug_abbrev
000000bb 04             3972 	.byte	4
000000bc 34             3973 	.byte	52
000000bd 00             3974 	.byte	0
000000be 0308           3975 	.byte	3,8
000000c0 3b0f           3976 	.byte	59,15
000000c2 390f           3977 	.byte	57,15
000000c4 3a0f           3978 	.byte	58,15
000000c6 4910           3979 	.byte	73,16
000000c8 3f0c           3980 	.byte	63,12
000000ca 3c0c           3981 	.byte	60,12
000000cc 020a           3982 	.byte	2,10
000000ce 0000           3983 	.byte	0,0
                        3984 
                        3985 	.section	.debug_info
                        3986 .LDW_4e786c0:
00000c83 16             3987 	.byte	22
00000c84 525f46444c5f   3988 	.strz	"R_FDL_FCUFct_CheckFatalError"
00000c8a 464355466374 
00000c90 5f436865636b 
00000c96 466174616c45 
00000c9c 72726f7200 
00000ca1 5b             3989 	.byte	91
00000ca2 11             3990 	.byte	17
00000ca3 02             3991 	.byte	2
00000ca4 00000000*      3992 	.word	.LDW_4979c60
00000ca8 01             3993 	.byte	1
00000ca9 00             3994 	.byte	0
00000caa 01             3995 	.byte	1
00000cab 01             3996 	.byte	1
00000cac 00             3997 	.byte	0
00000cad 01             3998 	.byte	1
                        3999 
                        4000 	.section	.debug_abbrev
000000d0 16             4001 	.byte	22
000000d1 2e             4002 	.byte	46
000000d2 01             4003 	.byte	1
000000d3 0308           4004 	.byte	3,8
000000d5 3b0f           4005 	.byte	59,15
000000d7 390f           4006 	.byte	57,15
000000d9 3a0f           4007 	.byte	58,15
000000db 4910           4008 	.byte	73,16
000000dd 3c0c           4009 	.byte	60,12
000000df 200b           4010 	.byte	32,11
000000e1 3f0c           4011 	.byte	63,12
000000e3 320b           4012 	.byte	50,11

                                                                      Page 77
                                                              C:\Users\nhuliyap\AppData\Local\Temp\gh_0000d941.s
000000e5 4c0b           4013 	.byte	76,11
000000e7 270c           4014 	.byte	39,12
000000e9 0000           4015 	.byte	0,0
                        4016 
                        4017 	.section	.debug_info
00000cae 00             4018 	.byte	0
                        4019 
                        4020 .LDW_4e78168:
00000caf 16             4021 	.byte	22
00000cb0 525f46444c5f   4022 	.strz	"R_FDL_FCUFct_ChkReady"
00000cb6 464355466374 
00000cbc 5f43686b5265 
00000cc2 61647900 
00000cc6 5c             4023 	.byte	92
00000cc7 11             4024 	.byte	17
00000cc8 02             4025 	.byte	2
00000cc9 00000000*      4026 	.word	.LDW_4c74e48
00000ccd 01             4027 	.byte	1
00000cce 00             4028 	.byte	0
00000ccf 01             4029 	.byte	1
00000cd0 01             4030 	.byte	1
00000cd1 00             4031 	.byte	0
00000cd2 01             4032 	.byte	1
                        4033 
00000cd3 00             4034 	.byte	0
                        4035 
                        4036 .LDW_4e77fa0:
00000cd4 16             4037 	.byte	22
00000cd5 525f46444c5f   4038 	.strz	"R_FDL_FCUFct_ChkSuspendable"
00000cdb 464355466374 
00000ce1 5f43686b5375 
00000ce7 7370656e6461 
00000ced 626c6500 
00000cf1 5d             4039 	.byte	93
00000cf2 11             4040 	.byte	17
00000cf3 02             4041 	.byte	2
00000cf4 00000000*      4042 	.word	.LDW_4c74e48
00000cf8 01             4043 	.byte	1
00000cf9 00             4044 	.byte	0
00000cfa 01             4045 	.byte	1
00000cfb 01             4046 	.byte	1
00000cfc 00             4047 	.byte	0
00000cfd 01             4048 	.byte	1
                        4049 
00000cfe 00             4050 	.byte	0
                        4051 
                        4052 .LDW_4e77d40:
00000cff 16             4053 	.byte	22
00000d00 525f46444c5f   4054 	.strz	"R_FDL_FCUFct_ChkStartable"
00000d06 464355466374 
00000d0c 5f43686b5374 
00000d12 61727461626c 
00000d18 6500 
00000d1a 5e             4055 	.byte	94
00000d1b 11             4056 	.byte	17
00000d1c 02             4057 	.byte	2
00000d1d 00000000*      4058 	.word	.LDW_4c74e48
00000d21 01             4059 	.byte	1
00000d22 00             4060 	.byte	0
00000d23 01             4061 	.byte	1
00000d24 01             4062 	.byte	1

                                                                      Page 78
                                                              C:\Users\nhuliyap\AppData\Local\Temp\gh_0000d941.s
00000d25 00             4063 	.byte	0
00000d26 01             4064 	.byte	1
                        4065 
00000d27 00             4066 	.byte	0
                        4067 
                        4068 .LDW_4e787f0:
00000d28 15             4069 	.byte	21
00000d29 525f46444c5f   4070 	.strz	"R_FDL_FCUFct_ClearStatus"
00000d2f 464355466374 
00000d35 5f436c656172 
00000d3b 537461747573 
00000d41 00 
00000d42 5f             4071 	.byte	95
00000d43 11             4072 	.byte	17
00000d44 02             4073 	.byte	2
00000d45 01             4074 	.byte	1
00000d46 00             4075 	.byte	0
00000d47 01             4076 	.byte	1
00000d48 01             4077 	.byte	1
00000d49 00             4078 	.byte	0
00000d4a 01             4079 	.byte	1
                        4080 
                        4081 	.section	.debug_abbrev
000000eb 15             4082 	.byte	21
000000ec 2e             4083 	.byte	46
000000ed 01             4084 	.byte	1
000000ee 0308           4085 	.byte	3,8
000000f0 3b0f           4086 	.byte	59,15
000000f2 390f           4087 	.byte	57,15
000000f4 3a0f           4088 	.byte	58,15
000000f6 3c0c           4089 	.byte	60,12
000000f8 200b           4090 	.byte	32,11
000000fa 3f0c           4091 	.byte	63,12
000000fc 320b           4092 	.byte	50,11
000000fe 4c0b           4093 	.byte	76,11
00000100 270c           4094 	.byte	39,12
00000102 0000           4095 	.byte	0,0
                        4096 
                        4097 	.section	.debug_info
00000d4b 00             4098 	.byte	0
                        4099 
                        4100 .LDW_4e77e70:
00000d4c 16             4101 	.byte	22
00000d4d 525f46444c5f   4102 	.strz	"R_FDL_FCUFct_GetStat"
00000d53 464355466374 
00000d59 5f4765745374 
00000d5f 617400 
00000d62 60             4103 	.byte	96
00000d63 11             4104 	.byte	17
00000d64 02             4105 	.byte	2
00000d65 00000000*      4106 	.word	.LDW_4979c60
00000d69 01             4107 	.byte	1
00000d6a 00             4108 	.byte	0
00000d6b 01             4109 	.byte	1
00000d6c 01             4110 	.byte	1
00000d6d 00             4111 	.byte	0
00000d6e 01             4112 	.byte	1
                        4113 
00000d6f 00             4114 	.byte	0
                        4115 
                        4116 .LDW_4e77dd8:

                                                                      Page 79
                                                              C:\Users\nhuliyap\AppData\Local\Temp\gh_0000d941.s
00000d70 15             4117 	.byte	21
00000d71 525f46444c5f   4118 	.strz	"R_FDL_FCUFct_InitRAM"
00000d77 464355466374 
00000d7d 5f496e697452 
00000d83 414d00 
00000d86 61             4119 	.byte	97
00000d87 11             4120 	.byte	17
00000d88 02             4121 	.byte	2
00000d89 01             4122 	.byte	1
00000d8a 00             4123 	.byte	0
00000d8b 01             4124 	.byte	1
00000d8c 01             4125 	.byte	1
00000d8d 00             4126 	.byte	0
00000d8e 01             4127 	.byte	1
                        4128 
00000d8f 00             4129 	.byte	0
                        4130 
                        4131 .LDW_4e780d0:
00000d90 16             4132 	.byte	22
00000d91 525f46444c5f   4133 	.strz	"R_FDL_FCUFct_ReadOperation"
00000d97 464355466374 
00000d9d 5f526561644f 
00000da3 706572617469 
00000da9 6f6e00 
00000dac 62             4134 	.byte	98
00000dad 11             4135 	.byte	17
00000dae 02             4136 	.byte	2
00000daf 00000000*      4137 	.word	.LDW_4979c60
00000db3 01             4138 	.byte	1
00000db4 00             4139 	.byte	0
00000db5 01             4140 	.byte	1
00000db6 01             4141 	.byte	1
00000db7 00             4142 	.byte	0
00000db8 01             4143 	.byte	1
                        4144 
00000db9 00             4145 	.byte	0
                        4146 
                        4147 .LDW_4e78590:
00000dba 16             4148 	.byte	22
00000dbb 525f46444c5f   4149 	.strz	"R_FDL_FCUFct_ResumeChkNeed"
00000dc1 464355466374 
00000dc7 5f526573756d 
00000dcd 6543686b4e65 
00000dd3 656400 
00000dd6 65             4150 	.byte	101
00000dd7 11             4151 	.byte	17
00000dd8 02             4152 	.byte	2
00000dd9 00000000*      4153 	.word	.LDW_4c74e48
00000ddd 01             4154 	.byte	1
00000dde 00             4155 	.byte	0
00000ddf 01             4156 	.byte	1
00000de0 01             4157 	.byte	1
00000de1 00             4158 	.byte	0
00000de2 01             4159 	.byte	1
                        4160 
00000de3 00             4161 	.byte	0
                        4162 
                        4163 .LDW_4e78330:
00000de4 15             4164 	.byte	21
00000de5 525f46444c5f   4165 	.strz	"R_FDL_FCUFct_Resume"
00000deb 464355466374 

                                                                      Page 80
                                                              C:\Users\nhuliyap\AppData\Local\Temp\gh_0000d941.s
00000df1 5f526573756d 
00000df7 6500 
00000df9 66             4166 	.byte	102
00000dfa 11             4167 	.byte	17
00000dfb 02             4168 	.byte	2
00000dfc 01             4169 	.byte	1
00000dfd 00             4170 	.byte	0
00000dfe 01             4171 	.byte	1
00000dff 01             4172 	.byte	1
00000e00 00             4173 	.byte	0
00000e01 01             4174 	.byte	1
                        4175 
00000e02 00             4176 	.byte	0
                        4177 
                        4178 .LDW_4e78200:
00000e03 16             4179 	.byte	22
00000e04 525f46444c5f   4180 	.strz	"R_FDL_FCUFct_SetFrequency"
00000e0a 464355466374 
00000e10 5f5365744672 
00000e16 657175656e63 
00000e1c 7900 
00000e1e 67             4181 	.byte	103
00000e1f 11             4182 	.byte	17
00000e20 02             4183 	.byte	2
00000e21 00000000*      4184 	.word	.LDW_4979c60
00000e25 01             4185 	.byte	1
00000e26 00             4186 	.byte	0
00000e27 01             4187 	.byte	1
00000e28 01             4188 	.byte	1
00000e29 00             4189 	.byte	0
00000e2a 01             4190 	.byte	1
                        4191 
00000e2b 00             4192 	.byte	0
                        4193 
                        4194 .LDW_4e78628:
00000e2c 16             4195 	.byte	22
00000e2d 525f46444c5f   4196 	.strz	"R_FDL_FCUFct_GetDFSize"
00000e33 464355466374 
00000e39 5f4765744446 
00000e3f 53697a6500 
00000e44 68             4197 	.byte	104
00000e45 11             4198 	.byte	17
00000e46 02             4199 	.byte	2
00000e47 00000000*      4200 	.word	.LDW_4979f08
00000e4b 01             4201 	.byte	1
00000e4c 00             4202 	.byte	0
00000e4d 01             4203 	.byte	1
00000e4e 01             4204 	.byte	1
00000e4f 00             4205 	.byte	0
00000e50 01             4206 	.byte	1
                        4207 
00000e51 00             4208 	.byte	0
                        4209 
                        4210 .LDW_4e77c10:
00000e52 16             4211 	.byte	22
00000e53 525f46444c5f   4212 	.strz	"R_FDL_FCUFct_StartBCEraseOperation"
00000e59 464355466374 
00000e5f 5f5374617274 
00000e65 424345726173 
00000e6b 654f70657261 
00000e71 74696f6e00 

                                                                      Page 81
                                                              C:\Users\nhuliyap\AppData\Local\Temp\gh_0000d941.s
00000e76 69             4213 	.byte	105
00000e77 11             4214 	.byte	17
00000e78 02             4215 	.byte	2
00000e79 00000000*      4216 	.word	.LDW_4979c60
00000e7d 01             4217 	.byte	1
00000e7e 00             4218 	.byte	0
00000e7f 01             4219 	.byte	1
00000e80 01             4220 	.byte	1
00000e81 00             4221 	.byte	0
00000e82 01             4222 	.byte	1
                        4223 
00000e83 00             4224 	.byte	0
                        4225 
                        4226 .LDW_4e77f08:
00000e84 16             4227 	.byte	22
00000e85 525f46444c5f   4228 	.strz	"R_FDL_FCUFct_StartWriteOperation"
00000e8b 464355466374 
00000e91 5f5374617274 
00000e97 57726974654f 
00000e9d 706572617469 
00000ea3 6f6e00 
00000ea6 6d             4229 	.byte	109
00000ea7 11             4230 	.byte	17
00000ea8 02             4231 	.byte	2
00000ea9 00000000*      4232 	.word	.LDW_4979c60
00000ead 01             4233 	.byte	1
00000eae 00             4234 	.byte	0
00000eaf 01             4235 	.byte	1
00000eb0 01             4236 	.byte	1
00000eb1 00             4237 	.byte	0
00000eb2 01             4238 	.byte	1
                        4239 
00000eb3 00             4240 	.byte	0
                        4241 
                        4242 .LDW_4e7b800:
00000eb4 15             4243 	.byte	21
00000eb5 525f46444c5f   4244 	.strz	"R_FDL_FCUFct_Suspend"
00000ebb 464355466374 
00000ec1 5f5375737065 
00000ec7 6e6400 
00000eca 71             4245 	.byte	113
00000ecb 11             4246 	.byte	17
00000ecc 02             4247 	.byte	2
00000ecd 01             4248 	.byte	1
00000ece 00             4249 	.byte	0
00000ecf 01             4250 	.byte	1
00000ed0 01             4251 	.byte	1
00000ed1 00             4252 	.byte	0
00000ed2 01             4253 	.byte	1
                        4254 
00000ed3 00             4255 	.byte	0
                        4256 
                        4257 .LDW_4e7ae80:
00000ed4 16             4258 	.byte	22
00000ed5 525f46444c5f   4259 	.strz	"R_FDL_FCUFct_SwitchMode_Start"
00000edb 464355466374 
00000ee1 5f5377697463 
00000ee7 684d6f64655f 
00000eed 537461727400 
00000ef3 72             4260 	.byte	114
00000ef4 11             4261 	.byte	17

                                                                      Page 82
                                                              C:\Users\nhuliyap\AppData\Local\Temp\gh_0000d941.s
00000ef5 02             4262 	.byte	2
00000ef6 00000000*      4263 	.word	.LDW_4979c60
00000efa 01             4264 	.byte	1
00000efb 00             4265 	.byte	0
00000efc 01             4266 	.byte	1
00000efd 01             4267 	.byte	1
00000efe 00             4268 	.byte	0
00000eff 01             4269 	.byte	1
                        4270 
00000f00 00             4271 	.byte	0
                        4272 
                        4273 .LDW_4e7b048:
00000f01 16             4274 	.byte	22
00000f02 525f46444c5f   4275 	.strz	"R_FDL_FCUFct_SwitchMode_Check"
00000f08 464355466374 
00000f0e 5f5377697463 
00000f14 684d6f64655f 
00000f1a 436865636b00 
00000f20 73             4276 	.byte	115
00000f21 11             4277 	.byte	17
00000f22 02             4278 	.byte	2
00000f23 00000000*      4279 	.word	.LDW_4979c60
00000f27 01             4280 	.byte	1
00000f28 00             4281 	.byte	0
00000f29 01             4282 	.byte	1
00000f2a 01             4283 	.byte	1
00000f2b 00             4284 	.byte	0
00000f2c 01             4285 	.byte	1
                        4286 
00000f2d 00             4287 	.byte	0
                        4288 
                        4289 .LDW_4e7b2a8:
00000f2e 16             4290 	.byte	22
00000f2f 525f46444c5f   4291 	.strz	"R_FDL_IFct_ChkAccessBoundaries"
00000f35 494663745f43 
00000f3b 686b41636365 
00000f41 7373426f756e 
00000f47 646172696573 
00000f4d 00 
00000f4e 74             4292 	.byte	116
00000f4f 11             4293 	.byte	17
00000f50 02             4294 	.byte	2
00000f51 00000000*      4295 	.word	.LDW_4979c60
00000f55 01             4296 	.byte	1
00000f56 00             4297 	.byte	0
00000f57 01             4298 	.byte	1
00000f58 01             4299 	.byte	1
00000f59 00             4300 	.byte	0
00000f5a 01             4301 	.byte	1
                        4302 
00000f5b 00             4303 	.byte	0
                        4304 
                        4305 .LDW_4e7b3d8:
00000f5c 15             4306 	.byte	21
00000f5d 525f46444c5f   4307 	.strz	"R_FDL_IFct_WriteMemoryU08"
00000f63 494663745f57 
00000f69 726974654d65 
00000f6f 6d6f72795530 
00000f75 3800 
00000f77 78             4308 	.byte	120
00000f78 11             4309 	.byte	17

                                                                      Page 83
                                                              C:\Users\nhuliyap\AppData\Local\Temp\gh_0000d941.s
00000f79 02             4310 	.byte	2
00000f7a 01             4311 	.byte	1
00000f7b 00             4312 	.byte	0
00000f7c 01             4313 	.byte	1
00000f7d 01             4314 	.byte	1
00000f7e 00             4315 	.byte	0
00000f7f 01             4316 	.byte	1
                        4317 
00000f80 00             4318 	.byte	0
                        4319 
                        4320 .LDW_4e7b0e0:
00000f81 15             4321 	.byte	21
00000f82 525f46444c5f   4322 	.strz	"R_FDL_IFct_CalcFOpUnitCnt_BC"
00000f88 494663745f43 
00000f8e 616c63464f70 
00000f94 556e6974436e 
00000f9a 745f424300 
00000f9f 7a             4323 	.byte	122
00000fa0 11             4324 	.byte	17
00000fa1 02             4325 	.byte	2
00000fa2 01             4326 	.byte	1
00000fa3 00             4327 	.byte	0
00000fa4 01             4328 	.byte	1
00000fa5 01             4329 	.byte	1
00000fa6 00             4330 	.byte	0
00000fa7 01             4331 	.byte	1
                        4332 
00000fa8 00             4333 	.byte	0
                        4334 
                        4335 .LDW_4e7acb8:
00000fa9 15             4336 	.byte	21
00000faa 525f46444c5f   4337 	.strz	"R_FDL_FCUFct_ForcedStop"
00000fb0 464355466374 
00000fb6 5f466f726365 
00000fbc 6453746f7000 
00000fc2 7c             4338 	.byte	124
00000fc3 11             4339 	.byte	17
00000fc4 02             4340 	.byte	2
00000fc5 01             4341 	.byte	1
00000fc6 00             4342 	.byte	0
00000fc7 01             4343 	.byte	1
00000fc8 01             4344 	.byte	1
00000fc9 00             4345 	.byte	0
00000fca 01             4346 	.byte	1
                        4347 
00000fcb 00             4348 	.byte	0
                        4349 
                        4350 .LDW_4e7ad50:
00000fcc 16             4351 	.byte	22
00000fcd 525f46444c5f   4352 	.strz	"R_FDL_FCUFct_VerifyChecksum"
00000fd3 464355466374 
00000fd9 5f5665726966 
00000fdf 79436865636b 
00000fe5 73756d00 
00000fe9 7d             4353 	.byte	125
00000fea 11             4354 	.byte	17
00000feb 02             4355 	.byte	2
00000fec 00000000*      4356 	.word	.LDW_4979c60
00000ff0 01             4357 	.byte	1
00000ff1 00             4358 	.byte	0
00000ff2 01             4359 	.byte	1

                                                                      Page 84
                                                              C:\Users\nhuliyap\AppData\Local\Temp\gh_0000d941.s
00000ff3 01             4360 	.byte	1
00000ff4 00             4361 	.byte	0
00000ff5 01             4362 	.byte	1
                        4363 
00000ff6 00             4364 	.byte	0
                        4365 
                        4366 .LDW_4979dc0:
00000ff7 14             4367 	.byte	20
00000ff8 525f46444c5f   4368 	.strz	"R_FDL_InitVariables"
00000ffe 496e69745661 
00001004 726961626c65 
0000100a 7300 
0000100c 28             4369 	.byte	40
0000100d 10             4370 	.byte	16
0000100e 01             4371 	.byte	1
0000100f 00000000*      4372 	.word	.LDW_4979c60
00001013 00000000*      4373 	.word	_R_FDL_InitVariables
00001017 00000000*      4374 	.word	___ghs_eofn_R_FDL_InitVariables
0000101b 0153           4375 	.byte	1,83
0000101d 828080e00b     4376 	.byte	130,128,128,224,11
00001022 14             4377 	.byte	20
00001023 03             4378 	.byte	3
00001024 14             4379 	.byte	20
00001025 00             4380 	.byte	0
00001026 00             4381 	.byte	0
00001027 00             4382 	.byte	0
00001028 01             4383 	.byte	1
00001029 01             4384 	.byte	1
0000102a 00             4385 	.byte	0
0000102b 01             4386 	.byte	1
                        4387 
                        4388 	.section	.debug_abbrev
00000104 14             4389 	.byte	20
00000105 2e             4390 	.byte	46
00000106 01             4391 	.byte	1
00000107 0308           4392 	.byte	3,8
00000109 3b0f           4393 	.byte	59,15
0000010b 390f           4394 	.byte	57,15
0000010d 3a0f           4395 	.byte	58,15
0000010f 4910           4396 	.byte	73,16
00000111 1101           4397 	.byte	17,1
00000113 1201           4398 	.byte	18,1
00000115 400a           4399 	.byte	64,10
00000117 8341           4400 	.byte	131,65
00000119 0f             4401 	.byte	15
0000011a 8741           4402 	.byte	135,65
0000011c 0d             4403 	.byte	13
0000011d 8541           4404 	.byte	133,65
0000011f 0f             4405 	.byte	15
00000120 8641           4406 	.byte	134,65
00000122 0d             4407 	.byte	13
00000123 9241           4408 	.byte	146,65
00000125 0f             4409 	.byte	15
00000126 3c0c           4410 	.byte	60,12
00000128 200b           4411 	.byte	32,11
0000012a 3f0c           4412 	.byte	63,12
0000012c 320b           4413 	.byte	50,11
0000012e 4c0b           4414 	.byte	76,11
00000130 270c           4415 	.byte	39,12
00000132 0000           4416 	.byte	0,0
                        4417 

                                                                      Page 85
                                                              C:\Users\nhuliyap\AppData\Local\Temp\gh_0000d941.s
                        4418 	.section	.debug_frame
                        4419 .LDW_4e9c168:
00000090 00000000*      4420 	.word	.LDW_unq_4-.LDW_unq_3
                        4421 .LDW_unq_3:
00000094 00000000*      4422 	.word	.LDW_4e24e40
00000098 00000000*      4423 	.word	_R_FDL_InitVariables
0000009c 00000000*      4424 	.word	___ghs_eofn_R_FDL_InitVariables-_R_FDL_InitVariables
000000a0 44             4425 	.byte	68
000000a1 9f             4426 	.byte	159
000000a2 00             4427 	.byte	0
000000a3 40             4428 	.byte	64
000000a4 9d             4429 	.byte	157
000000a5 04             4430 	.byte	4
000000a6 40             4431 	.byte	64
000000a7 9c             4432 	.byte	156
000000a8 08             4433 	.byte	8
000000a9 40             4434 	.byte	64
000000aa 9b             4435 	.byte	155
000000ab 0c             4436 	.byte	12
000000ac 40             4437 	.byte	64
000000ad 9a             4438 	.byte	154
000000ae 10             4439 	.byte	16
000000af 01             4440 	.byte	1
000000b0 00000000*      4441 	.word	.LDW11
                        4442 .LDW_unq_4:
                        4443 	.section	.debug_line
0000042d 000502         4444 	.byte	0,5,2
00000430 00000000*      4445 	.word	_R_FDL_InitVariables
00000434 03             4446 	.byte	3
00000435 28             4447 	.byte	40
00000436 02             4448 	.byte	2
00000437 00             4449 	.byte	0
00000438 01             4450 	.byte	1
00000439 06             4451 	.byte	6
0000043a 03             4452 	.byte	3
0000043b 06             4453 	.byte	6
0000043c 02             4454 	.byte	2
0000043d 06             4455 	.byte	6
0000043e 01             4456 	.byte	1
0000043f 000502         4457 	.byte	0,5,2
00000442 00000000*      4458 	.word	.LDWlin1
00000446 0b             4459 	.byte	11
00000447 1c             4460 	.byte	28
00000448 000502         4461 	.byte	0,5,2
0000044b 00000000*      4462 	.word	.LDWlin2
0000044f 0b             4463 	.byte	11
00000450 03             4464 	.byte	3
00000451 7d             4465 	.byte	125
00000452 02             4466 	.byte	2
00000453 02             4467 	.byte	2
00000454 01             4468 	.byte	1
00000455 000502         4469 	.byte	0,5,2
00000458 00000000*      4470 	.word	.LDWlin3
0000045c 03             4471 	.byte	3
0000045d 04             4472 	.byte	4
0000045e 02             4473 	.byte	2
0000045f 00             4474 	.byte	0
00000460 01             4475 	.byte	1
00000461 0c             4476 	.byte	12
00000462 1d             4477 	.byte	29
00000463 000502         4478 	.byte	0,5,2

                                                                      Page 86
                                                              C:\Users\nhuliyap\AppData\Local\Temp\gh_0000d941.s
00000466 00000000*      4479 	.word	.LDWlin4
0000046a 0b             4480 	.byte	11
0000046b 0c             4481 	.byte	12
0000046c 1c             4482 	.byte	28
0000046d 13             4483 	.byte	19
0000046e 14             4484 	.byte	20
0000046f 13             4485 	.byte	19
00000470 13             4486 	.byte	19
00000471 13             4487 	.byte	19
00000472 13             4488 	.byte	19
00000473 1c             4489 	.byte	28
00000474 000502         4490 	.byte	0,5,2
00000477 00000000*      4491 	.word	.LDWlin5
0000047b 0b             4492 	.byte	11
0000047c 0d             4493 	.byte	13
0000047d 06             4494 	.byte	6
0000047e 000502         4495 	.byte	0,5,2
00000481 00000000*      4496 	.word	.LDWlin6
00000485 02             4497 	.byte	2
00000486 00             4498 	.byte	0
00000487 000502         4499 	.byte	0,5,2
0000048a 00000000*      4500 	.word	.LDWlin7
0000048e 0c             4501 	.byte	12
0000048f 03             4502 	.byte	3
00000490 04             4503 	.byte	4
00000491 02             4504 	.byte	2
00000492 00             4505 	.byte	0
00000493 01             4506 	.byte	1
00000494 06             4507 	.byte	6
00000495 0b             4508 	.byte	11
00000496 02             4509 	.byte	2
00000497 00             4510 	.byte	0
00000498 0b             4511 	.byte	11
00000499 0b             4512 	.byte	11
0000049a 0b             4513 	.byte	11
0000049b 000502         4514 	.byte	0,5,2
0000049e 00000000*      4515 	.word	.LDWlin8
000004a2 0b             4516 	.byte	11
000004a3 02             4517 	.byte	2
000004a4 00             4518 	.byte	0
000004a5 0c             4519 	.byte	12
000004a6 0b             4520 	.byte	11
000004a7 0c             4521 	.byte	12
000004a8 000502         4522 	.byte	0,5,2
000004ab 00000000*      4523 	.word	.LDWlin9
000004af 0b             4524 	.byte	11
000004b0 02             4525 	.byte	2
000004b1 00             4526 	.byte	0
000004b2 0c             4527 	.byte	12
000004b3 02             4528 	.byte	2
000004b4 04             4529 	.byte	4
000004b5 000101         4530 	.byte	0,1,1
                        4531 	.section	.debug_info
                        4532 .LDW_4979e58:
0000102c 0f             4533 	.byte	15
0000102d 646573637269   4534 	.strz	"descriptor_pstr"
00001033 70746f725f70 
00001039 73747200 
0000103d 28             4535 	.byte	40
0000103e 40             4536 	.byte	64
0000103f 01             4537 	.byte	1

                                                                      Page 87
                                                              C:\Users\nhuliyap\AppData\Local\Temp\gh_0000d941.s
00001040 00000000*      4538 	.word	.LDW_4937080
00001044 00             4539 	.byte	0
00001045 016a           4540 	.byte	1,106
                        4541 
                        4542 	.section	.debug_abbrev
00000134 0f             4543 	.byte	15
00000135 05             4544 	.byte	5
00000136 00             4545 	.byte	0
00000137 0308           4546 	.byte	3,8
00000139 3b0f           4547 	.byte	59,15
0000013b 390f           4548 	.byte	57,15
0000013d 3a0f           4549 	.byte	58,15
0000013f 4910           4550 	.byte	73,16
00000141 4b0c           4551 	.byte	75,12
00000143 020a           4552 	.byte	2,10
00000145 0000           4553 	.byte	0,0
                        4554 
                        4555 	.section	.debug_info
                        4556 .LDW_497a670:
00001047 1d             4557 	.byte	29
00001048 00000000*      4558 	.word	.LDW01
0000104c 00000000*      4559 	.word	.LDW11
                        4560 
                        4561 	.section	.debug_abbrev
00000147 1d             4562 	.byte	29
00000148 0b             4563 	.byte	11
00000149 01             4564 	.byte	1
0000014a 1101           4565 	.byte	17,1
0000014c 1201           4566 	.byte	18,1
0000014e 0000           4567 	.byte	0,0
                        4568 
                        4569 	.section	.debug_info
                        4570 .LDW_4979eb0:
00001050 04             4571 	.byte	4
00001051 72657400       4572 	.strz	"ret"
00001055 2a             4573 	.byte	42
00001056 14             4574 	.byte	20
00001057 01             4575 	.byte	1
00001058 00000000*      4576 	.word	.LDW_4979c60
0000105c 00             4577 	.byte	0
0000105d 00             4578 	.byte	0
0000105e 015a           4579 	.byte	1,90
                        4580 
                        4581 .LDW_4979f60:
00001060 04             4582 	.byte	4
00001061 666441646400   4583 	.strz	"fdAdd"
00001067 2b             4584 	.byte	43
00001068 13             4585 	.byte	19
00001069 01             4586 	.byte	1
0000106a 00000000*      4587 	.word	.LDW_4979f08
0000106e 00             4588 	.byte	0
0000106f 00             4589 	.byte	0
00001070 016b           4590 	.byte	1,107
                        4591 
                        4592 .LDW_4979fb8:
00001072 05             4593 	.byte	5
00001073 6900           4594 	.strz	"i"
00001075 2c             4595 	.byte	44
00001076 13             4596 	.byte	19
00001077 01             4597 	.byte	1
00001078 00000000*      4598 	.word	.LDW_4979f08

                                                                      Page 88
                                                              C:\Users\nhuliyap\AppData\Local\Temp\gh_0000d941.s
0000107c 00             4599 	.byte	0
0000107d 00             4600 	.byte	0
                        4601 
                        4602 	.section	.debug_abbrev
00000150 05             4603 	.byte	5
00000151 34             4604 	.byte	52
00000152 00             4605 	.byte	0
00000153 0308           4606 	.byte	3,8
00000155 3b0f           4607 	.byte	59,15
00000157 390f           4608 	.byte	57,15
00000159 3a0f           4609 	.byte	58,15
0000015b 4910           4610 	.byte	73,16
0000015d 3f0c           4611 	.byte	63,12
0000015f 3c0c           4612 	.byte	60,12
00000161 0000           4613 	.byte	0,0
                        4614 
                        4615 	.section	.debug_info
                        4616 .LDW_497a068:
0000107e 05             4617 	.byte	5
0000107f 626c6b456e64   4618 	.strz	"blkEnd"
00001085 00 
00001086 2d             4619 	.byte	45
00001087 13             4620 	.byte	19
00001088 01             4621 	.byte	1
00001089 00000000*      4622 	.word	.LDW_497a010
0000108d 00             4623 	.byte	0
0000108e 00             4624 	.byte	0
                        4625 
0000108f 00             4626 	.byte	0
                        4627 
00001090 00             4628 	.byte	0
                        4629 
                        4630 .LDW_497a1c8:
00001091 13             4631 	.byte	19
00001092 525f46444c5f   4632 	.strz	"R_FDL_Execute"
00001098 457865637574 
0000109e 6500 
000010a0 65             4633 	.byte	101
000010a1 07             4634 	.byte	7
000010a2 01             4635 	.byte	1
000010a3 00000000*      4636 	.word	_R_FDL_Execute
000010a7 00000000*      4637 	.word	___ghs_eofn_R_FDL_Execute
000010ab 0153           4638 	.byte	1,83
000010ad 828080800b     4639 	.byte	130,128,128,128,11
000010b2 0c             4640 	.byte	12
000010b3 03             4641 	.byte	3
000010b4 10             4642 	.byte	16
000010b5 00             4643 	.byte	0
000010b6 00             4644 	.byte	0
000010b7 00             4645 	.byte	0
000010b8 01             4646 	.byte	1
000010b9 01             4647 	.byte	1
000010ba 00             4648 	.byte	0
000010bb 01             4649 	.byte	1
                        4650 
                        4651 	.section	.debug_abbrev
00000163 13             4652 	.byte	19
00000164 2e             4653 	.byte	46
00000165 01             4654 	.byte	1
00000166 0308           4655 	.byte	3,8
00000168 3b0f           4656 	.byte	59,15

                                                                      Page 89
                                                              C:\Users\nhuliyap\AppData\Local\Temp\gh_0000d941.s
0000016a 390f           4657 	.byte	57,15
0000016c 3a0f           4658 	.byte	58,15
0000016e 1101           4659 	.byte	17,1
00000170 1201           4660 	.byte	18,1
00000172 400a           4661 	.byte	64,10
00000174 8341           4662 	.byte	131,65
00000176 0f             4663 	.byte	15
00000177 8741           4664 	.byte	135,65
00000179 0d             4665 	.byte	13
0000017a 8541           4666 	.byte	133,65
0000017c 0f             4667 	.byte	15
0000017d 8641           4668 	.byte	134,65
0000017f 0d             4669 	.byte	13
00000180 9241           4670 	.byte	146,65
00000182 0f             4671 	.byte	15
00000183 3c0c           4672 	.byte	60,12
00000185 200b           4673 	.byte	32,11
00000187 3f0c           4674 	.byte	63,12
00000189 320b           4675 	.byte	50,11
0000018b 4c0b           4676 	.byte	76,11
0000018d 270c           4677 	.byte	39,12
0000018f 0000           4678 	.byte	0,0
                        4679 
                        4680 	.section	.debug_frame
                        4681 .LDW_4e9bd68:
000000b4 00000000*      4682 	.word	.LDW_unq_6-.LDW_unq_5
                        4683 .LDW_unq_5:
000000b8 00000000*      4684 	.word	.LDW_4e24e40
000000bc 00000000*      4685 	.word	_R_FDL_Execute
000000c0 00000000*      4686 	.word	___ghs_eofn_R_FDL_Execute-_R_FDL_Execute
000000c4 44             4687 	.byte	68
000000c5 9f             4688 	.byte	159
000000c6 03             4689 	.byte	3
000000c7 40             4690 	.byte	64
000000c8 9d             4691 	.byte	157
000000c9 07             4692 	.byte	7
000000ca 40             4693 	.byte	64
000000cb 9c             4694 	.byte	156
000000cc 0b             4695 	.byte	11
000000cd 01             4696 	.byte	1
000000ce 00000000*      4697 	.word	.LDW51
000000d2 00             4698 	.byte	0
000000d3 00             4699 	.byte	0
                        4700 .LDW_unq_6:
                        4701 	.section	.debug_line
000004b8 000502         4702 	.byte	0,5,2
000004bb 00000000*      4703 	.word	_R_FDL_Execute
000004bf 03             4704 	.byte	3
000004c0 e500           4705 	.byte	229,0
000004c2 02             4706 	.byte	2
000004c3 00             4707 	.byte	0
000004c4 01             4708 	.byte	1
000004c5 06             4709 	.byte	6
000004c6 25             4710 	.byte	37
000004c7 24             4711 	.byte	36
000004c8 000502         4712 	.byte	0,5,2
000004cb 00000000*      4713 	.word	.LDWlin39
000004cf 0b             4714 	.byte	11
000004d0 0b             4715 	.byte	11
000004d1 000502         4716 	.byte	0,5,2
000004d4 00000000*      4717 	.word	.LDWlin40

                                                                      Page 90
                                                              C:\Users\nhuliyap\AppData\Local\Temp\gh_0000d941.s
000004d8 0b             4718 	.byte	11
000004d9 0b             4719 	.byte	11
000004da 000502         4720 	.byte	0,5,2
000004dd 00000000*      4721 	.word	.LDWlin41
000004e1 0b             4722 	.byte	11
000004e2 0b             4723 	.byte	11
000004e3 000502         4724 	.byte	0,5,2
000004e6 00000000*      4725 	.word	.LDWlin42
000004ea 0b             4726 	.byte	11
000004eb 0b             4727 	.byte	11
000004ec 000502         4728 	.byte	0,5,2
000004ef 00000000*      4729 	.word	.LDWlin43
000004f3 0b             4730 	.byte	11
000004f4 000502         4731 	.byte	0,5,2
000004f7 00000000*      4732 	.word	.LDWlin44
000004fb 0b             4733 	.byte	11
000004fc 0b             4734 	.byte	11
000004fd 13             4735 	.byte	19
000004fe 000502         4736 	.byte	0,5,2
00000501 00000000*      4737 	.word	.LDWlin45
00000505 0b             4738 	.byte	11
00000506 02             4739 	.byte	2
00000507 00             4740 	.byte	0
00000508 0b             4741 	.byte	11
00000509 02             4742 	.byte	2
0000050a 00             4743 	.byte	0
0000050b 0b             4744 	.byte	11
0000050c 0b             4745 	.byte	11
0000050d 02             4746 	.byte	2
0000050e 00             4747 	.byte	0
0000050f 000502         4748 	.byte	0,5,2
00000512 00000000*      4749 	.word	.LDWlin46
00000516 0d             4750 	.byte	13
00000517 0c             4751 	.byte	12
00000518 000502         4752 	.byte	0,5,2
0000051b 00000000*      4753 	.word	.LDWlin47
0000051f 03             4754 	.byte	3
00000520 1e             4755 	.byte	30
00000521 02             4756 	.byte	2
00000522 00             4757 	.byte	0
00000523 01             4758 	.byte	1
00000524 0d             4759 	.byte	13
00000525 0c             4760 	.byte	12
00000526 03             4761 	.byte	3
00000527 0f             4762 	.byte	15
00000528 02             4763 	.byte	2
00000529 04             4764 	.byte	4
0000052a 01             4765 	.byte	1
0000052b 0b             4766 	.byte	11
0000052c 0c             4767 	.byte	12
0000052d 1c             4768 	.byte	28
0000052e 000502         4769 	.byte	0,5,2
00000531 00000000*      4770 	.word	.LDWlin48
00000535 03             4771 	.byte	3
00000536 4e             4772 	.byte	78
00000537 02             4773 	.byte	2
00000538 00             4774 	.byte	0
00000539 01             4775 	.byte	1
0000053a 03             4776 	.byte	3
0000053b 08             4777 	.byte	8
0000053c 02             4778 	.byte	2

                                                                      Page 91
                                                              C:\Users\nhuliyap\AppData\Local\Temp\gh_0000d941.s
0000053d 00             4779 	.byte	0
0000053e 01             4780 	.byte	1
0000053f 0b             4781 	.byte	11
00000540 06             4782 	.byte	6
00000541 000502         4783 	.byte	0,5,2
00000544 00000000*      4784 	.word	.LDWlin49
00000548 03             4785 	.byte	3
00000549 76             4786 	.byte	118
0000054a 02             4787 	.byte	2
0000054b 00             4788 	.byte	0
0000054c 01             4789 	.byte	1
0000054d 03             4790 	.byte	3
0000054e 0c             4791 	.byte	12
0000054f 02             4792 	.byte	2
00000550 00             4793 	.byte	0
00000551 01             4794 	.byte	1
00000552 06             4795 	.byte	6
00000553 0b             4796 	.byte	11
00000554 02             4797 	.byte	2
00000555 00             4798 	.byte	0
00000556 0b             4799 	.byte	11
00000557 03             4800 	.byte	3
00000558 04             4801 	.byte	4
00000559 02             4802 	.byte	2
0000055a 00             4803 	.byte	0
0000055b 01             4804 	.byte	1
0000055c 0b             4805 	.byte	11
0000055d 000502         4806 	.byte	0,5,2
00000560 00000000*      4807 	.word	.LDWlin50
00000564 0b             4808 	.byte	11
00000565 03             4809 	.byte	3
00000566 04             4810 	.byte	4
00000567 02             4811 	.byte	2
00000568 00             4812 	.byte	0
00000569 01             4813 	.byte	1
0000056a 03             4814 	.byte	3
0000056b 08             4815 	.byte	8
0000056c 02             4816 	.byte	2
0000056d 00             4817 	.byte	0
0000056e 01             4818 	.byte	1
0000056f 0c             4819 	.byte	12
00000570 0b             4820 	.byte	11
00000571 0b             4821 	.byte	11
00000572 0c             4822 	.byte	12
00000573 02             4823 	.byte	2
00000574 00             4824 	.byte	0
00000575 02             4825 	.byte	2
00000576 00             4826 	.byte	0
00000577 02             4827 	.byte	2
00000578 00             4828 	.byte	0
00000579 0b             4829 	.byte	11
0000057a 02             4830 	.byte	2
0000057b 00             4831 	.byte	0
0000057c 0c             4832 	.byte	12
0000057d 000502         4833 	.byte	0,5,2
00000580 00000000*      4834 	.word	.LDWlin51
00000584 0b             4835 	.byte	11
00000585 0c             4836 	.byte	12
00000586 03             4837 	.byte	3
00000587 08             4838 	.byte	8
00000588 02             4839 	.byte	2

                                                                      Page 92
                                                              C:\Users\nhuliyap\AppData\Local\Temp\gh_0000d941.s
00000589 04             4840 	.byte	4
0000058a 01             4841 	.byte	1
0000058b 02             4842 	.byte	2
0000058c 00             4843 	.byte	0
0000058d 0c             4844 	.byte	12
0000058e 1b             4845 	.byte	27
0000058f 02             4846 	.byte	2
00000590 00             4847 	.byte	0
00000591 0c             4848 	.byte	12
00000592 02             4849 	.byte	2
00000593 04             4850 	.byte	4
00000594 000101         4851 	.byte	0,1,1
                        4852 	.section	.debug_info
                        4853 .LDW_497a260:
000010bc 0f             4854 	.byte	15
000010bd 726571756573   4855 	.strz	"request_pstr"
000010c3 745f70737472 
000010c9 00 
000010ca 65             4856 	.byte	101
000010cb 28             4857 	.byte	40
000010cc 01             4858 	.byte	1
000010cd 00000000*      4859 	.word	.LDW_4937010
000010d1 00             4860 	.byte	0
000010d2 016d           4861 	.byte	1,109
                        4862 
                        4863 .LDW_497a520:
000010d4 1d             4864 	.byte	29
000010d5 00000000*      4865 	.word	.LDW41
000010d9 00000000*      4866 	.word	.LDW51
                        4867 
                        4868 .LDW_4c74ea0:
000010dd 04             4869 	.byte	4
000010de 726571457272   4870 	.strz	"reqErr"
000010e4 00 
000010e5 67             4871 	.byte	103
000010e6 14             4872 	.byte	20
000010e7 01             4873 	.byte	1
000010e8 00000000*      4874 	.word	.LDW_4979c60
000010ec 00             4875 	.byte	0
000010ed 00             4876 	.byte	0
000010ee 0273           4877 	.byte	2,115
000010f0 03             4878 	.byte	3
                        4879 
000010f1 00             4880 	.byte	0
                        4881 
000010f2 00             4882 	.byte	0
                        4883 
                        4884 .LDW_497a308:
000010f3 14             4885 	.byte	20
000010f4 525f46444c5f   4886 	.strz	"R_FDL_Handler_CancelReq"
000010fa 48616e646c65 
00001100 725f43616e63 
00001106 656c52657100 
0000110c c401           4887 	.byte	196,1
0000110e 1b             4888 	.byte	27
0000110f 01             4889 	.byte	1
00001110 00000000*      4890 	.word	.LDW_4c74e48
00001114 00000000*      4891 	.word	_R_FDL_Handler_CancelReq..C.3A.5C_ECU2.5CECU_Rivian_A1.5CTarget.5Crepo_projects.5CpRealEcu.5CcL_R2023.2E09.2E01.5Cmake.5Coutput.5Cobjects.5Cr_fdl_user_if.
00001118 00000000*      4892 	.word	___ghs_eofn_R_FDL_Handler_CancelReq
0000111c 0153           4893 	.byte	1,83
0000111e 828080e00b     4894 	.byte	130,128,128,224,11

                                                                      Page 93
                                                              C:\Users\nhuliyap\AppData\Local\Temp\gh_0000d941.s
00001123 14             4895 	.byte	20
00001124 03             4896 	.byte	3
00001125 14             4897 	.byte	20
00001126 00             4898 	.byte	0
00001127 00             4899 	.byte	0
00001128 00             4900 	.byte	0
00001129 00             4901 	.byte	0
0000112a 01             4902 	.byte	1
0000112b 00             4903 	.byte	0
0000112c 01             4904 	.byte	1
                        4905 
                        4906 	.section	.debug_frame
                        4907 .LDW_4e9c268:
000000d4 00000000*      4908 	.word	.LDW_unq_8-.LDW_unq_7
                        4909 .LDW_unq_7:
000000d8 00000000*      4910 	.word	.LDW_4e24e40
000000dc 00000000*      4911 	.word	_R_FDL_Handler_CancelReq..C.3A.5C_ECU2.5CECU_Rivian_A1.5CTarget.5Crepo_projects.5CpRealEcu.5CcL_R2023.2E09.2E01.5Cmake.5Coutput.5Cobjects.5Cr_fdl_user_if.
000000e0 00000000*      4912 	.word	___ghs_eofn_R_FDL_Handler_CancelReq-_R_FDL_Handler_CancelReq..C.3A.5C_ECU2.5CECU_Rivian_A1.5CTarget.5Crepo_projects.5CpRealEcu.5CcL_R2023.2E09.2E01.5Cmake.5Coutput.5Cobjects.5Cr_fdl_user_if.
000000e4 44             4913 	.byte	68
000000e5 9f             4914 	.byte	159
000000e6 00             4915 	.byte	0
000000e7 40             4916 	.byte	64
000000e8 9d             4917 	.byte	157
000000e9 04             4918 	.byte	4
000000ea 40             4919 	.byte	64
000000eb 9c             4920 	.byte	156
000000ec 08             4921 	.byte	8
000000ed 40             4922 	.byte	64
000000ee 9b             4923 	.byte	155
000000ef 0c             4924 	.byte	12
000000f0 40             4925 	.byte	64
000000f1 9a             4926 	.byte	154
000000f2 10             4927 	.byte	16
000000f3 01             4928 	.byte	1
000000f4 00000000*      4929 	.word	.LDW71
                        4930 .LDW_unq_8:
                        4931 	.section	.debug_line
00000597 000502         4932 	.byte	0,5,2
0000059a 00000000*      4933 	.word	_R_FDL_Handler_CancelReq..C.3A.5C_ECU2.5CECU_Rivian_A1.5CTarget.5Crepo_projects.5CpRealEcu.5CcL_R2023.2E09.2E01.5Cmake.5Coutput.5Cobjects.5Cr_fdl_user_if.
0000059e 03             4934 	.byte	3
0000059f c401           4935 	.byte	196,1
000005a1 02             4936 	.byte	2
000005a2 00             4937 	.byte	0
000005a3 01             4938 	.byte	1
000005a4 06             4939 	.byte	6
000005a5 03             4940 	.byte	3
000005a6 05             4941 	.byte	5
000005a7 02             4942 	.byte	2
000005a8 06             4943 	.byte	6
000005a9 01             4944 	.byte	1
000005aa 000502         4945 	.byte	0,5,2
000005ad 00000000*      4946 	.word	.LDWlin52
000005b1 03             4947 	.byte	3
000005b2 7e             4948 	.byte	126
000005b3 02             4949 	.byte	2
000005b4 00             4950 	.byte	0
000005b5 01             4951 	.byte	1
000005b6 000502         4952 	.byte	0,5,2
000005b9 00000000*      4953 	.word	.LDWlin53
000005bd 0d             4954 	.byte	13
000005be 0b             4955 	.byte	11

                                                                      Page 94
                                                              C:\Users\nhuliyap\AppData\Local\Temp\gh_0000d941.s
000005bf 000502         4956 	.byte	0,5,2
000005c2 00000000*      4957 	.word	.LDWlin54
000005c6 0b             4958 	.byte	11
000005c7 0b             4959 	.byte	11
000005c8 000502         4960 	.byte	0,5,2
000005cb 00000000*      4961 	.word	.LDWlin55
000005cf 0b             4962 	.byte	11
000005d0 0b             4963 	.byte	11
000005d1 000502         4964 	.byte	0,5,2
000005d4 00000000*      4965 	.word	.LDWlin56
000005d8 0b             4966 	.byte	11
000005d9 000502         4967 	.byte	0,5,2
000005dc 00000000*      4968 	.word	.LDWlin57
000005e0 0c             4969 	.byte	12
000005e1 23             4970 	.byte	35
000005e2 000502         4971 	.byte	0,5,2
000005e5 00000000*      4972 	.word	.LDWlin58
000005e9 0b             4973 	.byte	11
000005ea 0b             4974 	.byte	11
000005eb 0b             4975 	.byte	11
000005ec 1b             4976 	.byte	27
000005ed 13             4977 	.byte	19
000005ee 02             4978 	.byte	2
000005ef 00             4979 	.byte	0
000005f0 0c             4980 	.byte	12
000005f1 15             4981 	.byte	21
000005f2 000502         4982 	.byte	0,5,2
000005f5 00000000*      4983 	.word	.LDWlin59
000005f9 03             4984 	.byte	3
000005fa 7e             4985 	.byte	126
000005fb 02             4986 	.byte	2
000005fc 00             4987 	.byte	0
000005fd 01             4988 	.byte	1
000005fe 13             4989 	.byte	19
000005ff 1d             4990 	.byte	29
00000600 000502         4991 	.byte	0,5,2
00000603 00000000*      4992 	.word	.LDWlin60
00000607 0b             4993 	.byte	11
00000608 0b             4994 	.byte	11
00000609 13             4995 	.byte	19
0000060a 000502         4996 	.byte	0,5,2
0000060d 00000000*      4997 	.word	.LDWlin61
00000611 0b             4998 	.byte	11
00000612 02             4999 	.byte	2
00000613 00             5000 	.byte	0
00000614 0b             5001 	.byte	11
00000615 0b             5002 	.byte	11
00000616 0b             5003 	.byte	11
00000617 13             5004 	.byte	19
00000618 02             5005 	.byte	2
00000619 00             5006 	.byte	0
0000061a 0b             5007 	.byte	11
0000061b 02             5008 	.byte	2
0000061c 00             5009 	.byte	0
0000061d 0c             5010 	.byte	12
0000061e 06             5011 	.byte	6
0000061f 02             5012 	.byte	2
00000620 02             5013 	.byte	2
00000621 02             5014 	.byte	2
00000622 04             5015 	.byte	4
00000623 000101         5016 	.byte	0,1,1

                                                                      Page 95
                                                              C:\Users\nhuliyap\AppData\Local\Temp\gh_0000d941.s
                        5017 	.section	.debug_info
                        5018 .LDW_4c753c8:
0000112d 0f             5019 	.byte	15
0000112e 746d70537461   5020 	.strz	"tmpStat_penu"
00001134 745f70656e75 
0000113a 00 
0000113b c401           5021 	.byte	196,1
0000113d 45             5022 	.byte	69
0000113e 01             5023 	.byte	1
0000113f 00000000*      5024 	.word	.LDW_49370f0
00001143 00             5025 	.byte	0
00001144 016a           5026 	.byte	1,106
                        5027 
                        5028 .LDW_497a3d0:
00001146 1d             5029 	.byte	29
00001147 00000000*      5030 	.word	.LDW61
0000114b 00000000*      5031 	.word	.LDW71
                        5032 
                        5033 .LDW_4c75318:
0000114f 04             5034 	.byte	4
00001150 636f6e7400     5035 	.strz	"cont"
00001155 c601           5036 	.byte	198,1
00001157 12             5037 	.byte	18
00001158 01             5038 	.byte	1
00001159 00000000*      5039 	.word	.LDW_4c74e48
0000115d 00             5040 	.byte	0
0000115e 00             5041 	.byte	0
0000115f 016c           5042 	.byte	1,108
                        5043 
00001161 00             5044 	.byte	0
                        5045 
00001162 00             5046 	.byte	0
                        5047 
                        5048 .LDW_4c75628:
00001163 14             5049 	.byte	20
00001164 525f46444c5f   5050 	.strz	"R_FDL_Handler_BusyAndSuspendPossible"
0000116a 48616e646c65 
00001170 725f42757379 
00001176 416e64537573 
0000117c 70656e64506f 
00001182 737369626c65 
00001188 00 
00001189 f201           5051 	.byte	242,1
0000118b 1b             5052 	.byte	27
0000118c 01             5053 	.byte	1
0000118d 00000000*      5054 	.word	.LDW_4c74e48
00001191 00000000*      5055 	.word	_R_FDL_Handler_BusyAndSuspendPossible..C.3A.5C_ECU2.5CECU_Rivian_A1.5CTarget.5Crepo_projects.5CpRealEcu.5CcL_R2023.2E09.2E01.5Cmake.5Coutput.5Cobjects.5Cr_fdl_user_if.
00001195 00000000*      5056 	.word	___ghs_eofn_R_FDL_Handler_BusyAndSuspendPossible
00001199 0153           5057 	.byte	1,83
0000119b 828080800b     5058 	.byte	130,128,128,128,11
000011a0 0c             5059 	.byte	12
000011a1 03             5060 	.byte	3
000011a2 0c             5061 	.byte	12
000011a3 00             5062 	.byte	0
000011a4 00             5063 	.byte	0
000011a5 00             5064 	.byte	0
000011a6 00             5065 	.byte	0
000011a7 01             5066 	.byte	1
000011a8 00             5067 	.byte	0
000011a9 01             5068 	.byte	1
                        5069 

                                                                      Page 96
                                                              C:\Users\nhuliyap\AppData\Local\Temp\gh_0000d941.s
                        5070 	.section	.debug_frame
                        5071 .LDW_4e9c068:
000000f8 00000000*      5072 	.word	.LDW_unq_a-.LDW_unq_9
                        5073 .LDW_unq_9:
000000fc 00000000*      5074 	.word	.LDW_4e24e40
00000100 00000000*      5075 	.word	_R_FDL_Handler_BusyAndSuspendPossible..C.3A.5C_ECU2.5CECU_Rivian_A1.5CTarget.5Crepo_projects.5CpRealEcu.5CcL_R2023.2E09.2E01.5Cmake.5Coutput.5Cobjects.5Cr_fdl_user_if.
00000104 00000000*      5076 	.word	___ghs_eofn_R_FDL_Handler_BusyAndSuspendPossible-_R_FDL_Handler_BusyAndSuspendPossible..C.3A.5C_ECU2.5CECU_Rivian_A1.5CTarget.5Crepo_projects.5CpRealEcu.5CcL_R2023.2E09.2E01.5Cmake.5Coutput.5Cobjects.5Cr_fdl_user_if.
00000108 44             5077 	.byte	68
00000109 9f             5078 	.byte	159
0000010a 00             5079 	.byte	0
0000010b 40             5080 	.byte	64
0000010c 9d             5081 	.byte	157
0000010d 04             5082 	.byte	4
0000010e 40             5083 	.byte	64
0000010f 9c             5084 	.byte	156
00000110 08             5085 	.byte	8
00000111 01             5086 	.byte	1
00000112 00000000*      5087 	.word	.LDW91
00000116 00             5088 	.byte	0
00000117 00             5089 	.byte	0
                        5090 .LDW_unq_a:
                        5091 	.section	.debug_line
00000626 000502         5092 	.byte	0,5,2
00000629 00000000*      5093 	.word	_R_FDL_Handler_BusyAndSuspendPossible..C.3A.5C_ECU2.5CECU_Rivian_A1.5CTarget.5Crepo_projects.5CpRealEcu.5CcL_R2023.2E09.2E01.5Cmake.5Coutput.5Cobjects.5Cr_fdl_user_if.
0000062d 03             5094 	.byte	3
0000062e f101           5095 	.byte	241,1
00000630 02             5096 	.byte	2
00000631 00             5097 	.byte	0
00000632 01             5098 	.byte	1
00000633 06             5099 	.byte	6
00000634 03             5100 	.byte	3
00000635 05             5101 	.byte	5
00000636 02             5102 	.byte	2
00000637 04             5103 	.byte	4
00000638 01             5104 	.byte	1
00000639 000502         5105 	.byte	0,5,2
0000063c 00000000*      5106 	.word	.LDWlin62
00000640 03             5107 	.byte	3
00000641 7e             5108 	.byte	126
00000642 02             5109 	.byte	2
00000643 00             5110 	.byte	0
00000644 01             5111 	.byte	1
00000645 000502         5112 	.byte	0,5,2
00000648 00000000*      5113 	.word	.LDWlin63
0000064c 0d             5114 	.byte	13
0000064d 0b             5115 	.byte	11
0000064e 000502         5116 	.byte	0,5,2
00000651 00000000*      5117 	.word	.LDWlin64
00000655 0b             5118 	.byte	11
00000656 0c             5119 	.byte	12
00000657 000502         5120 	.byte	0,5,2
0000065a 00000000*      5121 	.word	.LDWlin65
0000065e 0c             5122 	.byte	12
0000065f 13             5123 	.byte	19
00000660 000502         5124 	.byte	0,5,2
00000663 00000000*      5125 	.word	.LDWlin66
00000667 0b             5126 	.byte	11
00000668 13             5127 	.byte	19
00000669 02             5128 	.byte	2
0000066a 00             5129 	.byte	0
0000066b 0b             5130 	.byte	11

                                                                      Page 97
                                                              C:\Users\nhuliyap\AppData\Local\Temp\gh_0000d941.s
0000066c 02             5131 	.byte	2
0000066d 00             5132 	.byte	0
0000066e 0c             5133 	.byte	12
0000066f 06             5134 	.byte	6
00000670 02             5135 	.byte	2
00000671 02             5136 	.byte	2
00000672 02             5137 	.byte	2
00000673 04             5138 	.byte	4
00000674 000101         5139 	.byte	0,1,1
                        5140 	.section	.debug_info
                        5141 .LDW_497a550:
000011aa 1d             5142 	.byte	29
000011ab 00000000*      5143 	.word	.LDW81
000011af 00000000*      5144 	.word	.LDW91
                        5145 
                        5146 .LDW_4c74f50:
000011b3 04             5147 	.byte	4
000011b4 636f6e7400     5148 	.strz	"cont"
000011b9 f301           5149 	.byte	243,1
000011bb 12             5150 	.byte	18
000011bc 01             5151 	.byte	1
000011bd 00000000*      5152 	.word	.LDW_4c74e48
000011c1 00             5153 	.byte	0
000011c2 00             5154 	.byte	0
000011c3 016c           5155 	.byte	1,108
                        5156 
000011c5 00             5157 	.byte	0
                        5158 
000011c6 00             5159 	.byte	0
                        5160 
                        5161 .LDW_4c756c0:
000011c7 14             5162 	.byte	20
000011c8 525f46444c5f   5163 	.strz	"R_FDL_Handler_ChkResume"
000011ce 48616e646c65 
000011d4 725f43686b52 
000011da 6573756d6500 
000011e0 8b02           5164 	.byte	139,2
000011e2 1b             5165 	.byte	27
000011e3 01             5166 	.byte	1
000011e4 00000000*      5167 	.word	.LDW_4c74e48
000011e8 00000000*      5168 	.word	_R_FDL_Handler_ChkResume..C.3A.5C_ECU2.5CECU_Rivian_A1.5CTarget.5Crepo_projects.5CpRealEcu.5CcL_R2023.2E09.2E01.5Cmake.5Coutput.5Cobjects.5Cr_fdl_user_if.
000011ec 00000000*      5169 	.word	___ghs_eofn_R_FDL_Handler_ChkResume
000011f0 0153           5170 	.byte	1,83
000011f2 828080c00b     5171 	.byte	130,128,128,192,11
000011f7 10             5172 	.byte	16
000011f8 03             5173 	.byte	3
000011f9 10             5174 	.byte	16
000011fa 00             5175 	.byte	0
000011fb 00             5176 	.byte	0
000011fc 00             5177 	.byte	0
000011fd 00             5178 	.byte	0
000011fe 01             5179 	.byte	1
000011ff 00             5180 	.byte	0
00001200 01             5181 	.byte	1
                        5182 
                        5183 	.section	.debug_frame
                        5184 .LDW_4e9bea8:
00000118 00000000*      5185 	.word	.LDW_unq_c-.LDW_unq_b
                        5186 .LDW_unq_b:
0000011c 00000000*      5187 	.word	.LDW_4e24e40
00000120 00000000*      5188 	.word	_R_FDL_Handler_ChkResume..C.3A.5C_ECU2.5CECU_Rivian_A1.5CTarget.5Crepo_projects.5CpRealEcu.5CcL_R2023.2E09.2E01.5Cmake.5Coutput.5Cobjects.5Cr_fdl_user_if.

                                                                      Page 98
                                                              C:\Users\nhuliyap\AppData\Local\Temp\gh_0000d941.s
00000124 00000000*      5189 	.word	___ghs_eofn_R_FDL_Handler_ChkResume-_R_FDL_Handler_ChkResume..C.3A.5C_ECU2.5CECU_Rivian_A1.5CTarget.5Crepo_projects.5CpRealEcu.5CcL_R2023.2E09.2E01.5Cmake.5Coutput.5Cobjects.5Cr_fdl_user_if.
00000128 44             5190 	.byte	68
00000129 9f             5191 	.byte	159
0000012a 00             5192 	.byte	0
0000012b 40             5193 	.byte	64
0000012c 9d             5194 	.byte	157
0000012d 04             5195 	.byte	4
0000012e 40             5196 	.byte	64
0000012f 9c             5197 	.byte	156
00000130 08             5198 	.byte	8
00000131 40             5199 	.byte	64
00000132 9b             5200 	.byte	155
00000133 0c             5201 	.byte	12
00000134 01             5202 	.byte	1
00000135 00000000*      5203 	.word	.LDW12
00000139 00             5204 	.byte	0
0000013a 00             5205 	.byte	0
0000013b 00             5206 	.byte	0
                        5207 .LDW_unq_c:
                        5208 	.section	.debug_line
00000677 000502         5209 	.byte	0,5,2
0000067a 00000000*      5210 	.word	_R_FDL_Handler_ChkResume..C.3A.5C_ECU2.5CECU_Rivian_A1.5CTarget.5Crepo_projects.5CpRealEcu.5CcL_R2023.2E09.2E01.5Cmake.5Coutput.5Cobjects.5Cr_fdl_user_if.
0000067e 03             5211 	.byte	3
0000067f 8b02           5212 	.byte	139,2
00000681 02             5213 	.byte	2
00000682 00             5214 	.byte	0
00000683 01             5215 	.byte	1
00000684 06             5216 	.byte	6
00000685 03             5217 	.byte	3
00000686 06             5218 	.byte	6
00000687 02             5219 	.byte	2
00000688 06             5220 	.byte	6
00000689 01             5221 	.byte	1
0000068a 000502         5222 	.byte	0,5,2
0000068d 00000000*      5223 	.word	.LDWlin67
00000691 03             5224 	.byte	3
00000692 7e             5225 	.byte	126
00000693 02             5226 	.byte	2
00000694 00             5227 	.byte	0
00000695 01             5228 	.byte	1
00000696 000502         5229 	.byte	0,5,2
00000699 00000000*      5230 	.word	.LDWlin68
0000069d 03             5231 	.byte	3
0000069e 07             5232 	.byte	7
0000069f 02             5233 	.byte	2
000006a0 00             5234 	.byte	0
000006a1 01             5235 	.byte	1
000006a2 03             5236 	.byte	3
000006a3 7d             5237 	.byte	125
000006a4 02             5238 	.byte	2
000006a5 04             5239 	.byte	4
000006a6 01             5240 	.byte	1
000006a7 0b             5241 	.byte	11
000006a8 000502         5242 	.byte	0,5,2
000006ab 00000000*      5243 	.word	.LDWlin69
000006af 0d             5244 	.byte	13
000006b0 0b             5245 	.byte	11
000006b1 000502         5246 	.byte	0,5,2
000006b4 00000000*      5247 	.word	.LDWlin70
000006b8 0b             5248 	.byte	11
000006b9 03             5249 	.byte	3

                                                                      Page 99
                                                              C:\Users\nhuliyap\AppData\Local\Temp\gh_0000d941.s
000006ba 04             5250 	.byte	4
000006bb 02             5251 	.byte	2
000006bc 02             5252 	.byte	2
000006bd 01             5253 	.byte	1
000006be 0b             5254 	.byte	11
000006bf 0b             5255 	.byte	11
000006c0 06             5256 	.byte	6
000006c1 000502         5257 	.byte	0,5,2
000006c4 00000000*      5258 	.word	.LDWlin71
000006c8 0b             5259 	.byte	11
000006c9 03             5260 	.byte	3
000006ca 12             5261 	.byte	18
000006cb 02             5262 	.byte	2
000006cc 00             5263 	.byte	0
000006cd 01             5264 	.byte	1
000006ce 03             5265 	.byte	3
000006cf 6d             5266 	.byte	109
000006d0 02             5267 	.byte	2
000006d1 00             5268 	.byte	0
000006d2 01             5269 	.byte	1
000006d3 14             5270 	.byte	20
000006d4 03             5271 	.byte	3
000006d5 12             5272 	.byte	18
000006d6 02             5273 	.byte	2
000006d7 00             5274 	.byte	0
000006d8 01             5275 	.byte	1
000006d9 03             5276 	.byte	3
000006da 6c             5277 	.byte	108
000006db 02             5278 	.byte	2
000006dc 00             5279 	.byte	0
000006dd 01             5280 	.byte	1
000006de 06             5281 	.byte	6
000006df 000502         5282 	.byte	0,5,2
000006e2 00000000*      5283 	.word	.LDWlin72
000006e6 0d             5284 	.byte	13
000006e7 02             5285 	.byte	2
000006e8 00             5286 	.byte	0
000006e9 0b             5287 	.byte	11
000006ea 0b             5288 	.byte	11
000006eb 0c             5289 	.byte	12
000006ec 000502         5290 	.byte	0,5,2
000006ef 00000000*      5291 	.word	.LDWlin73
000006f3 0c             5292 	.byte	12
000006f4 0b             5293 	.byte	11
000006f5 000502         5294 	.byte	0,5,2
000006f8 00000000*      5295 	.word	.LDWlin74
000006fc 0b             5296 	.byte	11
000006fd 06             5297 	.byte	6
000006fe 000502         5298 	.byte	0,5,2
00000701 00000000*      5299 	.word	.LDWlin75
00000705 03             5300 	.byte	3
00000706 72             5301 	.byte	114
00000707 02             5302 	.byte	2
00000708 00             5303 	.byte	0
00000709 01             5304 	.byte	1
0000070a 06             5305 	.byte	6
0000070b 03             5306 	.byte	3
0000070c 0f             5307 	.byte	15
0000070d 02             5308 	.byte	2
0000070e 00             5309 	.byte	0
0000070f 01             5310 	.byte	1

                                                                      Page 100
                                                              C:\Users\nhuliyap\AppData\Local\Temp\gh_0000d941.s
00000710 0c             5311 	.byte	12
00000711 000502         5312 	.byte	0,5,2
00000714 00000000*      5313 	.word	.LDWlin76
00000718 03             5314 	.byte	3
00000719 04             5315 	.byte	4
0000071a 02             5316 	.byte	2
0000071b 00             5317 	.byte	0
0000071c 01             5318 	.byte	1
0000071d 03             5319 	.byte	3
0000071e 7d             5320 	.byte	125
0000071f 02             5321 	.byte	2
00000720 02             5322 	.byte	2
00000721 01             5323 	.byte	1
00000722 0b             5324 	.byte	11
00000723 0b             5325 	.byte	11
00000724 000502         5326 	.byte	0,5,2
00000727 00000000*      5327 	.word	.LDWlin77
0000072b 03             5328 	.byte	3
0000072c 04             5329 	.byte	4
0000072d 02             5330 	.byte	2
0000072e 00             5331 	.byte	0
0000072f 01             5332 	.byte	1
00000730 02             5333 	.byte	2
00000731 00             5334 	.byte	0
00000732 0b             5335 	.byte	11
00000733 0b             5336 	.byte	11
00000734 0b             5337 	.byte	11
00000735 1b             5338 	.byte	27
00000736 13             5339 	.byte	19
00000737 02             5340 	.byte	2
00000738 00             5341 	.byte	0
00000739 0c             5342 	.byte	12
0000073a 02             5343 	.byte	2
0000073b 00             5344 	.byte	0
0000073c 0c             5345 	.byte	12
0000073d 000502         5346 	.byte	0,5,2
00000740 00000000*      5347 	.word	.LDWlin78
00000744 0b             5348 	.byte	11
00000745 0c             5349 	.byte	12
00000746 1c             5350 	.byte	28
00000747 2b             5351 	.byte	43
00000748 13             5352 	.byte	19
00000749 13             5353 	.byte	19
0000074a 13             5354 	.byte	19
0000074b 13             5355 	.byte	19
0000074c 000502         5356 	.byte	0,5,2
0000074f 00000000*      5357 	.word	.LDWlin79
00000753 0b             5358 	.byte	11
00000754 02             5359 	.byte	2
00000755 00             5360 	.byte	0
00000756 0b             5361 	.byte	11
00000757 0b             5362 	.byte	11
00000758 0b             5363 	.byte	11
00000759 13             5364 	.byte	19
0000075a 02             5365 	.byte	2
0000075b 00             5366 	.byte	0
0000075c 0c             5367 	.byte	12
0000075d 06             5368 	.byte	6
0000075e 02             5369 	.byte	2
0000075f 02             5370 	.byte	2
00000760 02             5371 	.byte	2

                                                                      Page 101
                                                              C:\Users\nhuliyap\AppData\Local\Temp\gh_0000d941.s
00000761 04             5372 	.byte	4
00000762 000101         5373 	.byte	0,1,1
                        5374 	.section	.debug_info
                        5375 .LDW_4c751b8:
00001201 0f             5376 	.byte	15
00001202 746d70537461   5377 	.strz	"tmpStat_penu"
00001208 745f70656e75 
0000120e 00 
0000120f 8b02           5378 	.byte	139,2
00001211 45             5379 	.byte	69
00001212 01             5380 	.byte	1
00001213 00000000*      5381 	.word	.LDW_49370f0
00001217 00             5382 	.byte	0
00001218 016e           5383 	.byte	1,110
                        5384 
                        5385 .LDW_497a5b0:
0000121a 1d             5386 	.byte	29
0000121b 00000000*      5387 	.word	.LDW02
0000121f 00000000*      5388 	.word	.LDW12
                        5389 
                        5390 .LDW_4c74ef8:
00001223 04             5391 	.byte	4
00001224 636f6e7400     5392 	.strz	"cont"
00001229 8d02           5393 	.byte	141,2
0000122b 14             5394 	.byte	20
0000122c 01             5395 	.byte	1
0000122d 00000000*      5396 	.word	.LDW_4c74e48
00001231 00             5397 	.byte	0
00001232 00             5398 	.byte	0
00001233 016b           5399 	.byte	1,107
                        5400 
                        5401 .LDW_4c75000:
00001235 04             5402 	.byte	4
00001236 72657300       5403 	.strz	"res"
0000123a 8e02           5404 	.byte	142,2
0000123c 14             5405 	.byte	20
0000123d 01             5406 	.byte	1
0000123e 00000000*      5407 	.word	.LDW_4979c60
00001242 00             5408 	.byte	0
00001243 00             5409 	.byte	0
00001244 015a           5410 	.byte	1,90
                        5411 
00001246 00             5412 	.byte	0
                        5413 
00001247 00             5414 	.byte	0
                        5415 
                        5416 .LDW_4c75758:
00001248 14             5417 	.byte	20
00001249 525f46444c5f   5418 	.strz	"R_FDL_Handler_ReactOnFatalErrors"
0000124f 48616e646c65 
00001255 725f52656163 
0000125b 744f6e466174 
00001261 616c4572726f 
00001267 727300 
0000126a d602           5419 	.byte	214,2
0000126c 1b             5420 	.byte	27
0000126d 01             5421 	.byte	1
0000126e 00000000*      5422 	.word	.LDW_4c74e48
00001272 00000000*      5423 	.word	_R_FDL_Handler_ReactOnFatalErrors..C.3A.5C_ECU2.5CECU_Rivian_A1.5CTarget.5Crepo_projects.5CpRealEcu.5CcL_R2023.2E09.2E01.5Cmake.5Coutput.5Cobjects.5Cr_fdl_user_if.
00001276 00000000*      5424 	.word	___ghs_eofn_R_FDL_Handler_ReactOnFatalErrors
0000127a 0153           5425 	.byte	1,83

                                                                      Page 102
                                                              C:\Users\nhuliyap\AppData\Local\Temp\gh_0000d941.s
0000127c 828080c00b     5426 	.byte	130,128,128,192,11
00001281 10             5427 	.byte	16
00001282 03             5428 	.byte	3
00001283 10             5429 	.byte	16
00001284 00             5430 	.byte	0
00001285 00             5431 	.byte	0
00001286 00             5432 	.byte	0
00001287 00             5433 	.byte	0
00001288 01             5434 	.byte	1
00001289 00             5435 	.byte	0
0000128a 01             5436 	.byte	1
                        5437 
                        5438 	.section	.debug_frame
                        5439 .LDW_4e9bbe8:
0000013c 00000000*      5440 	.word	.LDW_unq_e-.LDW_unq_d
                        5441 .LDW_unq_d:
00000140 00000000*      5442 	.word	.LDW_4e24e40
00000144 00000000*      5443 	.word	_R_FDL_Handler_ReactOnFatalErrors..C.3A.5C_ECU2.5CECU_Rivian_A1.5CTarget.5Crepo_projects.5CpRealEcu.5CcL_R2023.2E09.2E01.5Cmake.5Coutput.5Cobjects.5Cr_fdl_user_if.
00000148 00000000*      5444 	.word	___ghs_eofn_R_FDL_Handler_ReactOnFatalErrors-_R_FDL_Handler_ReactOnFatalErrors..C.3A.5C_ECU2.5CECU_Rivian_A1.5CTarget.5Crepo_projects.5CpRealEcu.5CcL_R2023.2E09.2E01.5Cmake.5Coutput.5Cobjects.5Cr_fdl_user_if.
0000014c 44             5445 	.byte	68
0000014d 9f             5446 	.byte	159
0000014e 00             5447 	.byte	0
0000014f 40             5448 	.byte	64
00000150 9d             5449 	.byte	157
00000151 04             5450 	.byte	4
00000152 40             5451 	.byte	64
00000153 9c             5452 	.byte	156
00000154 08             5453 	.byte	8
00000155 40             5454 	.byte	64
00000156 9b             5455 	.byte	155
00000157 0c             5456 	.byte	12
00000158 01             5457 	.byte	1
00000159 00000000*      5458 	.word	.LDW32
0000015d 00             5459 	.byte	0
0000015e 00             5460 	.byte	0
0000015f 00             5461 	.byte	0
                        5462 .LDW_unq_e:
                        5463 	.section	.debug_line
00000765 000502         5464 	.byte	0,5,2
00000768 00000000*      5465 	.word	_R_FDL_Handler_ReactOnFatalErrors..C.3A.5C_ECU2.5CECU_Rivian_A1.5CTarget.5Crepo_projects.5CpRealEcu.5CcL_R2023.2E09.2E01.5Cmake.5Coutput.5Cobjects.5Cr_fdl_user_if.
0000076c 03             5466 	.byte	3
0000076d d602           5467 	.byte	214,2
0000076f 02             5468 	.byte	2
00000770 00             5469 	.byte	0
00000771 01             5470 	.byte	1
00000772 06             5471 	.byte	6
00000773 03             5472 	.byte	3
00000774 04             5473 	.byte	4
00000775 02             5474 	.byte	2
00000776 06             5475 	.byte	6
00000777 01             5476 	.byte	1
00000778 14             5477 	.byte	20
00000779 000502         5478 	.byte	0,5,2
0000077c 00000000*      5479 	.word	.LDWlin80
00000780 0c             5480 	.byte	12
00000781 000502         5481 	.byte	0,5,2
00000784 00000000*      5482 	.word	.LDWlin81
00000788 0b             5483 	.byte	11
00000789 0b             5484 	.byte	11
0000078a 000502         5485 	.byte	0,5,2
0000078d 00000000*      5486 	.word	.LDWlin82

                                                                      Page 103
                                                              C:\Users\nhuliyap\AppData\Local\Temp\gh_0000d941.s
00000791 0b             5487 	.byte	11
00000792 000502         5488 	.byte	0,5,2
00000795 00000000*      5489 	.word	.LDWlin83
00000799 0c             5490 	.byte	12
0000079a 000502         5491 	.byte	0,5,2
0000079d 00000000*      5492 	.word	.LDWlin84
000007a1 0b             5493 	.byte	11
000007a2 0b             5494 	.byte	11
000007a3 000502         5495 	.byte	0,5,2
000007a6 00000000*      5496 	.word	.LDWlin85
000007aa 0c             5497 	.byte	12
000007ab 1b             5498 	.byte	27
000007ac 13             5499 	.byte	19
000007ad 0b             5500 	.byte	11
000007ae 0c             5501 	.byte	12
000007af 02             5502 	.byte	2
000007b0 00             5503 	.byte	0
000007b1 0c             5504 	.byte	12
000007b2 23             5505 	.byte	35
000007b3 02             5506 	.byte	2
000007b4 00             5507 	.byte	0
000007b5 0c             5508 	.byte	12
000007b6 06             5509 	.byte	6
000007b7 02             5510 	.byte	2
000007b8 02             5511 	.byte	2
000007b9 02             5512 	.byte	2
000007ba 04             5513 	.byte	4
000007bb 000101         5514 	.byte	0,1,1
                        5515 	.section	.debug_info
                        5516 .LDW_4c74fa8:
0000128b 0f             5517 	.byte	15
0000128c 746d70537461   5518 	.strz	"tmpStat_penu"
00001292 745f70656e75 
00001298 00 
00001299 d602           5519 	.byte	214,2
0000129b 4e             5520 	.byte	78
0000129c 01             5521 	.byte	1
0000129d 00000000*      5522 	.word	.LDW_49370f0
000012a1 00             5523 	.byte	0
000012a2 016b           5524 	.byte	1,107
                        5525 
                        5526 .LDW_497a460:
000012a4 1d             5527 	.byte	29
000012a5 00000000*      5528 	.word	.LDW22
000012a9 00000000*      5529 	.word	.LDW32
                        5530 
                        5531 .LDW_4c75058:
000012ad 04             5532 	.byte	4
000012ae 636f6e7400     5533 	.strz	"cont"
000012b3 d802           5534 	.byte	216,2
000012b5 14             5535 	.byte	20
000012b6 01             5536 	.byte	1
000012b7 00000000*      5537 	.word	.LDW_4c74e48
000012bb 00             5538 	.byte	0
000012bc 00             5539 	.byte	0
000012bd 016c           5540 	.byte	1,108
                        5541 
                        5542 .LDW_4c75580:
000012bf 04             5543 	.byte	4
000012c0 7374617400     5544 	.strz	"stat"
000012c5 d902           5545 	.byte	217,2

                                                                      Page 104
                                                              C:\Users\nhuliyap\AppData\Local\Temp\gh_0000d941.s
000012c7 14             5546 	.byte	20
000012c8 01             5547 	.byte	1
000012c9 00000000*      5548 	.word	.LDW_4979c60
000012cd 00             5549 	.byte	0
000012ce 00             5550 	.byte	0
000012cf 016d           5551 	.byte	1,109
                        5552 
000012d1 00             5553 	.byte	0
                        5554 
000012d2 00             5555 	.byte	0
                        5556 
                        5557 .LDW_4c757f0:
000012d3 14             5558 	.byte	20
000012d4 525f46444c5f   5559 	.strz	"R_FDL_Handler_StatusCheckAndSuspendOnReady"
000012da 48616e646c65 
000012e0 725f53746174 
000012e6 757343686563 
000012ec 6b416e645375 
000012f2 7370656e644f 
000012f8 6e5265616479 
000012fe 00 
000012ff f902           5560 	.byte	249,2
00001301 1b             5561 	.byte	27
00001302 01             5562 	.byte	1
00001303 00000000*      5563 	.word	.LDW_4c74e48
00001307 00000000*      5564 	.word	_R_FDL_Handler_StatusCheckAndSuspendOnReady..C.3A.5C_ECU2.5CECU_Rivian_A1.5CTarget.5Crepo_projects.5CpRealEcu.5CcL_R2023.2E09.2E01.5Cmake.5Coutput.5Cobjects.5Cr_fdl_user_if.
0000130b 00000000*      5565 	.word	___ghs_eofn_R_FDL_Handler_StatusCheckAndSuspendOnReady
0000130f 0153           5566 	.byte	1,83
00001311 828080e00b     5567 	.byte	130,128,128,224,11
00001316 14             5568 	.byte	20
00001317 03             5569 	.byte	3
00001318 14             5570 	.byte	20
00001319 00             5571 	.byte	0
0000131a 00             5572 	.byte	0
0000131b 00             5573 	.byte	0
0000131c 00             5574 	.byte	0
0000131d 01             5575 	.byte	1
0000131e 00             5576 	.byte	0
0000131f 01             5577 	.byte	1
                        5578 
                        5579 	.section	.debug_frame
                        5580 .LDW_4e9c828:
00000160 00000000*      5581 	.word	.LDW_unq_10-.LDW_unq_f
                        5582 .LDW_unq_f:
00000164 00000000*      5583 	.word	.LDW_4e24e40
00000168 00000000*      5584 	.word	_R_FDL_Handler_StatusCheckAndSuspendOnReady..C.3A.5C_ECU2.5CECU_Rivian_A1.5CTarget.5Crepo_projects.5CpRealEcu.5CcL_R2023.2E09.2E01.5Cmake.5Coutput.5Cobjects.5Cr_fdl_user_if.
0000016c 00000000*      5585 	.word	___ghs_eofn_R_FDL_Handler_StatusCheckAndSuspendOnReady-_R_FDL_Handler_StatusCheckAndSuspendOnReady..C.3A.5C_ECU2.5CECU_Rivian_A1.5CTarget.5Crepo_projects.5CpRealEcu.5CcL_R2023.2E09.2E01.5Cmake.5Coutput.5Cobjects.5Cr_fdl_user_if.
00000170 44             5586 	.byte	68
00000171 9f             5587 	.byte	159
00000172 00             5588 	.byte	0
00000173 40             5589 	.byte	64
00000174 9d             5590 	.byte	157
00000175 04             5591 	.byte	4
00000176 40             5592 	.byte	64
00000177 9c             5593 	.byte	156
00000178 08             5594 	.byte	8
00000179 40             5595 	.byte	64
0000017a 9b             5596 	.byte	155
0000017b 0c             5597 	.byte	12
0000017c 40             5598 	.byte	64
0000017d 9a             5599 	.byte	154

                                                                      Page 105
                                                              C:\Users\nhuliyap\AppData\Local\Temp\gh_0000d941.s
0000017e 10             5600 	.byte	16
0000017f 01             5601 	.byte	1
00000180 00000000*      5602 	.word	.LDW52
                        5603 .LDW_unq_10:
                        5604 	.section	.debug_line
000007be 000502         5605 	.byte	0,5,2
000007c1 00000000*      5606 	.word	_R_FDL_Handler_StatusCheckAndSuspendOnReady..C.3A.5C_ECU2.5CECU_Rivian_A1.5CTarget.5Crepo_projects.5CpRealEcu.5CcL_R2023.2E09.2E01.5Cmake.5Coutput.5Cobjects.5Cr_fdl_user_if.
000007c5 03             5607 	.byte	3
000007c6 f902           5608 	.byte	249,2
000007c8 02             5609 	.byte	2
000007c9 00             5610 	.byte	0
000007ca 01             5611 	.byte	1
000007cb 06             5612 	.byte	6
000007cc 03             5613 	.byte	3
000007cd 04             5614 	.byte	4
000007ce 02             5615 	.byte	2
000007cf 06             5616 	.byte	6
000007d0 01             5617 	.byte	1
000007d1 14             5618 	.byte	20
000007d2 000502         5619 	.byte	0,5,2
000007d5 00000000*      5620 	.word	.LDWlin86
000007d9 0b             5621 	.byte	11
000007da 000502         5622 	.byte	0,5,2
000007dd 00000000*      5623 	.word	.LDWlin87
000007e1 0c             5624 	.byte	12
000007e2 000502         5625 	.byte	0,5,2
000007e5 00000000*      5626 	.word	.LDWlin88
000007e9 0b             5627 	.byte	11
000007ea 0c             5628 	.byte	12
000007eb 1b             5629 	.byte	27
000007ec 000502         5630 	.byte	0,5,2
000007ef 00000000*      5631 	.word	.LDWlin89
000007f3 0b             5632 	.byte	11
000007f4 02             5633 	.byte	2
000007f5 00             5634 	.byte	0
000007f6 0b             5635 	.byte	11
000007f7 000502         5636 	.byte	0,5,2
000007fa 00000000*      5637 	.word	.LDWlin90
000007fe 0b             5638 	.byte	11
000007ff 0b             5639 	.byte	11
00000800 1c             5640 	.byte	28
00000801 000502         5641 	.byte	0,5,2
00000804 00000000*      5642 	.word	.LDWlin91
00000808 0b             5643 	.byte	11
00000809 000502         5644 	.byte	0,5,2
0000080c 00000000*      5645 	.word	.LDWlin92
00000810 0c             5646 	.byte	12
00000811 000502         5647 	.byte	0,5,2
00000814 00000000*      5648 	.word	.LDWlin93
00000818 0b             5649 	.byte	11
00000819 0b             5650 	.byte	11
0000081a 24             5651 	.byte	36
0000081b 1c             5652 	.byte	28
0000081c 000502         5653 	.byte	0,5,2
0000081f 00000000*      5654 	.word	.LDWlin94
00000823 0b             5655 	.byte	11
00000824 0b             5656 	.byte	11
00000825 0b             5657 	.byte	11
00000826 1b             5658 	.byte	27
00000827 23             5659 	.byte	35
00000828 02             5660 	.byte	2

                                                                      Page 106
                                                              C:\Users\nhuliyap\AppData\Local\Temp\gh_0000d941.s
00000829 00             5661 	.byte	0
0000082a 0c             5662 	.byte	12
0000082b 1b             5663 	.byte	27
0000082c 13             5664 	.byte	19
0000082d 13             5665 	.byte	19
0000082e 34             5666 	.byte	52
0000082f 13             5667 	.byte	19
00000830 02             5668 	.byte	2
00000831 00             5669 	.byte	0
00000832 0c             5670 	.byte	12
00000833 06             5671 	.byte	6
00000834 02             5672 	.byte	2
00000835 02             5673 	.byte	2
00000836 02             5674 	.byte	2
00000837 04             5675 	.byte	4
00000838 000101         5676 	.byte	0,1,1
                        5677 	.section	.debug_info
                        5678 .LDW_4c75370:
00001320 0f             5679 	.byte	15
00001321 746d70537461   5680 	.strz	"tmpStat_penu"
00001327 745f70656e75 
0000132d 00 
0000132e f902           5681 	.byte	249,2
00001330 58             5682 	.byte	88
00001331 01             5683 	.byte	1
00001332 00000000*      5684 	.word	.LDW_49370f0
00001336 00             5685 	.byte	0
00001337 016b           5686 	.byte	1,107
                        5687 
                        5688 .LDW_497a610:
00001339 1d             5689 	.byte	29
0000133a 00000000*      5690 	.word	.LDW42
0000133e 00000000*      5691 	.word	.LDW52
                        5692 
                        5693 .LDW_4c75268:
00001342 04             5694 	.byte	4
00001343 636f6e7400     5695 	.strz	"cont"
00001348 fb02           5696 	.byte	251,2
0000134a 14             5697 	.byte	20
0000134b 01             5698 	.byte	1
0000134c 00000000*      5699 	.word	.LDW_4c74e48
00001350 00             5700 	.byte	0
00001351 00             5701 	.byte	0
00001352 016a           5702 	.byte	1,106
                        5703 
                        5704 .LDW_4c750b0:
00001354 05             5705 	.byte	5
00001355 72657300       5706 	.strz	"res"
00001359 fc02           5707 	.byte	252,2
0000135b 14             5708 	.byte	20
0000135c 01             5709 	.byte	1
0000135d 00000000*      5710 	.word	.LDW_4979c60
00001361 00             5711 	.byte	0
00001362 00             5712 	.byte	0
                        5713 
00001363 00             5714 	.byte	0
                        5715 
00001364 00             5716 	.byte	0
                        5717 
                        5718 .LDW_4c75888:
00001365 14             5719 	.byte	20

                                                                      Page 107
                                                              C:\Users\nhuliyap\AppData\Local\Temp\gh_0000d941.s
00001366 525f46444c5f   5720 	.strz	"R_FDL_Handler_MultiOperation"
0000136c 48616e646c65 
00001372 725f4d756c74 
00001378 694f70657261 
0000137e 74696f6e00 
00001383 ac03           5721 	.byte	172,3
00001385 1b             5722 	.byte	27
00001386 01             5723 	.byte	1
00001387 00000000*      5724 	.word	.LDW_4c74e48
0000138b 00000000*      5725 	.word	_R_FDL_Handler_MultiOperation..C.3A.5C_ECU2.5CECU_Rivian_A1.5CTarget.5Crepo_projects.5CpRealEcu.5CcL_R2023.2E09.2E01.5Cmake.5Coutput.5Cobjects.5Cr_fdl_user_if.
0000138f 00000000*      5726 	.word	___ghs_eofn_R_FDL_Handler_MultiOperation
00001393 0153           5727 	.byte	1,83
00001395 828080800b     5728 	.byte	130,128,128,128,11
0000139a 0c             5729 	.byte	12
0000139b 03             5730 	.byte	3
0000139c 10             5731 	.byte	16
0000139d 00             5732 	.byte	0
0000139e 00             5733 	.byte	0
0000139f 00             5734 	.byte	0
000013a0 00             5735 	.byte	0
000013a1 01             5736 	.byte	1
000013a2 00             5737 	.byte	0
000013a3 01             5738 	.byte	1
                        5739 
                        5740 	.section	.debug_frame
                        5741 .LDW_4e9cae8:
00000184 00000000*      5742 	.word	.LDW_unq_12-.LDW_unq_11
                        5743 .LDW_unq_11:
00000188 00000000*      5744 	.word	.LDW_4e24e40
0000018c 00000000*      5745 	.word	_R_FDL_Handler_MultiOperation..C.3A.5C_ECU2.5CECU_Rivian_A1.5CTarget.5Crepo_projects.5CpRealEcu.5CcL_R2023.2E09.2E01.5Cmake.5Coutput.5Cobjects.5Cr_fdl_user_if.
00000190 00000000*      5746 	.word	___ghs_eofn_R_FDL_Handler_MultiOperation-_R_FDL_Handler_MultiOperation..C.3A.5C_ECU2.5CECU_Rivian_A1.5CTarget.5Crepo_projects.5CpRealEcu.5CcL_R2023.2E09.2E01.5Cmake.5Coutput.5Cobjects.5Cr_fdl_user_if.
00000194 44             5747 	.byte	68
00000195 9f             5748 	.byte	159
00000196 03             5749 	.byte	3
00000197 40             5750 	.byte	64
00000198 9d             5751 	.byte	157
00000199 07             5752 	.byte	7
0000019a 40             5753 	.byte	64
0000019b 9c             5754 	.byte	156
0000019c 0b             5755 	.byte	11
0000019d 01             5756 	.byte	1
0000019e 00000000*      5757 	.word	.LDW72
000001a2 00             5758 	.byte	0
000001a3 00             5759 	.byte	0
                        5760 .LDW_unq_12:
                        5761 	.section	.debug_line
0000083b 000502         5762 	.byte	0,5,2
0000083e 00000000*      5763 	.word	_R_FDL_Handler_MultiOperation..C.3A.5C_ECU2.5CECU_Rivian_A1.5CTarget.5Crepo_projects.5CpRealEcu.5CcL_R2023.2E09.2E01.5Cmake.5Coutput.5Cobjects.5Cr_fdl_user_if.
00000842 03             5764 	.byte	3
00000843 ac03           5765 	.byte	172,3
00000845 02             5766 	.byte	2
00000846 00             5767 	.byte	0
00000847 01             5768 	.byte	1
00000848 06             5769 	.byte	6
00000849 03             5770 	.byte	3
0000084a 06             5771 	.byte	6
0000084b 02             5772 	.byte	2
0000084c 06             5773 	.byte	6
0000084d 01             5774 	.byte	1
0000084e 000502         5775 	.byte	0,5,2
00000851 00000000*      5776 	.word	.LDWlin95

                                                                      Page 108
                                                              C:\Users\nhuliyap\AppData\Local\Temp\gh_0000d941.s
00000855 0c             5777 	.byte	12
00000856 03             5778 	.byte	3
00000857 7d             5779 	.byte	125
00000858 02             5780 	.byte	2
00000859 04             5781 	.byte	4
0000085a 01             5782 	.byte	1
0000085b 000502         5783 	.byte	0,5,2
0000085e 00000000*      5784 	.word	.LDWlin96
00000862 03             5785 	.byte	3
00000863 05             5786 	.byte	5
00000864 02             5787 	.byte	2
00000865 00             5788 	.byte	0
00000866 01             5789 	.byte	1
00000867 03             5790 	.byte	3
00000868 04             5791 	.byte	4
00000869 02             5792 	.byte	2
0000086a 00             5793 	.byte	0
0000086b 01             5794 	.byte	1
0000086c 000502         5795 	.byte	0,5,2
0000086f 00000000*      5796 	.word	.LDWlin97
00000873 03             5797 	.byte	3
00000874 0f             5798 	.byte	15
00000875 02             5799 	.byte	2
00000876 00             5800 	.byte	0
00000877 01             5801 	.byte	1
00000878 03             5802 	.byte	3
00000879 73             5803 	.byte	115
0000087a 02             5804 	.byte	2
0000087b 04             5805 	.byte	4
0000087c 01             5806 	.byte	1
0000087d 03             5807 	.byte	3
0000087e 0a             5808 	.byte	10
0000087f 02             5809 	.byte	2
00000880 00             5810 	.byte	0
00000881 01             5811 	.byte	1
00000882 000502         5812 	.byte	0,5,2
00000885 00000000*      5813 	.word	.LDWlin98
00000889 03             5814 	.byte	3
0000088a 08             5815 	.byte	8
0000088b 02             5816 	.byte	2
0000088c 00             5817 	.byte	0
0000088d 01             5818 	.byte	1
0000088e 2b             5819 	.byte	43
0000088f 000502         5820 	.byte	0,5,2
00000892 00000000*      5821 	.word	.LDWlin99
00000896 0b             5822 	.byte	11
00000897 0b             5823 	.byte	11
00000898 02             5824 	.byte	2
00000899 00             5825 	.byte	0
0000089a 000502         5826 	.byte	0,5,2
0000089d 00000000*      5827 	.word	.LDWlin100
000008a1 0b             5828 	.byte	11
000008a2 0b             5829 	.byte	11
000008a3 000502         5830 	.byte	0,5,2
000008a6 00000000*      5831 	.word	.LDWlin101
000008aa 03             5832 	.byte	3
000008ab 05             5833 	.byte	5
000008ac 02             5834 	.byte	2
000008ad 00             5835 	.byte	0
000008ae 01             5836 	.byte	1
000008af 000502         5837 	.byte	0,5,2

                                                                      Page 109
                                                              C:\Users\nhuliyap\AppData\Local\Temp\gh_0000d941.s
000008b2 00000000*      5838 	.word	.LDWlin102
000008b6 0b             5839 	.byte	11
000008b7 0b             5840 	.byte	11
000008b8 0b             5841 	.byte	11
000008b9 34             5842 	.byte	52
000008ba 000502         5843 	.byte	0,5,2
000008bd 00000000*      5844 	.word	.LDWlin103
000008c1 0c             5845 	.byte	12
000008c2 000502         5846 	.byte	0,5,2
000008c5 00000000*      5847 	.word	.LDWlin104
000008c9 03             5848 	.byte	3
000008ca 05             5849 	.byte	5
000008cb 02             5850 	.byte	2
000008cc 00             5851 	.byte	0
000008cd 01             5852 	.byte	1
000008ce 3b             5853 	.byte	59
000008cf 02             5854 	.byte	2
000008d0 00             5855 	.byte	0
000008d1 02             5856 	.byte	2
000008d2 00             5857 	.byte	0
000008d3 02             5858 	.byte	2
000008d4 00             5859 	.byte	0
000008d5 0c             5860 	.byte	12
000008d6 000502         5861 	.byte	0,5,2
000008d9 00000000*      5862 	.word	.LDWlin105
000008dd 0b             5863 	.byte	11
000008de 0b             5864 	.byte	11
000008df 000502         5865 	.byte	0,5,2
000008e2 00000000*      5866 	.word	.LDWlin106
000008e6 0b             5867 	.byte	11
000008e7 000502         5868 	.byte	0,5,2
000008ea 00000000*      5869 	.word	.LDWlin107
000008ee 0b             5870 	.byte	11
000008ef 0b             5871 	.byte	11
000008f0 24             5872 	.byte	36
000008f1 23             5873 	.byte	35
000008f2 1b             5874 	.byte	27
000008f3 02             5875 	.byte	2
000008f4 00             5876 	.byte	0
000008f5 0b             5877 	.byte	11
000008f6 02             5878 	.byte	2
000008f7 00             5879 	.byte	0
000008f8 0c             5880 	.byte	12
000008f9 000502         5881 	.byte	0,5,2
000008fc 00000000*      5882 	.word	.LDWlin108
00000900 0b             5883 	.byte	11
00000901 02             5884 	.byte	2
00000902 00             5885 	.byte	0
00000903 0c             5886 	.byte	12
00000904 02             5887 	.byte	2
00000905 04             5888 	.byte	4
00000906 000101         5889 	.byte	0,1,1
                        5890 	.section	.debug_info
                        5891 .LDW_4c75108:
000013a4 0f             5892 	.byte	15
000013a5 746d70537461   5893 	.strz	"tmpStat_penu"
000013ab 745f70656e75 
000013b1 00 
000013b2 ac03           5894 	.byte	172,3
000013b4 4a             5895 	.byte	74
000013b5 01             5896 	.byte	1

                                                                      Page 110
                                                              C:\Users\nhuliyap\AppData\Local\Temp\gh_0000d941.s
000013b6 00000000*      5897 	.word	.LDW_49370f0
000013ba 00             5898 	.byte	0
000013bb 016c           5899 	.byte	1,108
                        5900 
                        5901 .LDW_497a700:
000013bd 1d             5902 	.byte	29
000013be 00000000*      5903 	.word	.LDW62
000013c2 00000000*      5904 	.word	.LDW72
                        5905 
                        5906 .LDW_4c75528:
000013c6 04             5907 	.byte	4
000013c7 636f6e7400     5908 	.strz	"cont"
000013cc ae03           5909 	.byte	174,3
000013ce 15             5910 	.byte	21
000013cf 01             5911 	.byte	1
000013d0 00000000*      5912 	.word	.LDW_4c74e48
000013d4 00             5913 	.byte	0
000013d5 00             5914 	.byte	0
000013d6 015a           5915 	.byte	1,90
                        5916 
                        5917 .LDW_4c75160:
000013d8 04             5918 	.byte	4
000013d9 636e7400       5919 	.strz	"cnt"
000013dd af03           5920 	.byte	175,3
000013df 14             5921 	.byte	20
000013e0 01             5922 	.byte	1
000013e1 00000000*      5923 	.word	.LDW_4979f08
000013e5 00             5924 	.byte	0
000013e6 00             5925 	.byte	0
000013e7 0273           5926 	.byte	2,115
000013e9 00             5927 	.byte	0
                        5928 
                        5929 .LDW_4c752c0:
000013ea 04             5930 	.byte	4
000013eb 636d6400       5931 	.strz	"cmd"
000013ef b003           5932 	.byte	176,3
000013f1 15             5933 	.byte	21
000013f2 01             5934 	.byte	1
000013f3 00000000*      5935 	.word	.LDW_4c75210
000013f7 00             5936 	.byte	0
000013f8 00             5937 	.byte	0
000013f9 0159           5938 	.byte	1,89
                        5939 
000013fb 00             5940 	.byte	0
                        5941 
000013fc 00             5942 	.byte	0
                        5943 
                        5944 .LDW_4c75970:
000013fd 14             5945 	.byte	20
000013fe 525f46444c5f   5946 	.strz	"R_FDL_Handler_OperationStates"
00001404 48616e646c65 
0000140a 725f4f706572 
00001410 6174696f6e53 
00001416 746174657300 
0000141c fe03           5947 	.byte	254,3
0000141e 1b             5948 	.byte	27
0000141f 01             5949 	.byte	1
00001420 00000000*      5950 	.word	.LDW_4c74e48
00001424 00000000*      5951 	.word	_R_FDL_Handler_OperationStates..C.3A.5C_ECU2.5CECU_Rivian_A1.5CTarget.5Crepo_projects.5CpRealEcu.5CcL_R2023.2E09.2E01.5Cmake.5Coutput.5Cobjects.5Cr_fdl_user_if.
00001428 00000000*      5952 	.word	___ghs_eofn_R_FDL_Handler_OperationStates
0000142c 0153           5953 	.byte	1,83

                                                                      Page 111
                                                              C:\Users\nhuliyap\AppData\Local\Temp\gh_0000d941.s
0000142e 828080c00b     5954 	.byte	130,128,128,192,11
00001433 10             5955 	.byte	16
00001434 03             5956 	.byte	3
00001435 10             5957 	.byte	16
00001436 00             5958 	.byte	0
00001437 00             5959 	.byte	0
00001438 00             5960 	.byte	0
00001439 00             5961 	.byte	0
0000143a 01             5962 	.byte	1
0000143b 00             5963 	.byte	0
0000143c 01             5964 	.byte	1
                        5965 
                        5966 	.section	.debug_frame
                        5967 .LDW_4e9c8a8:
000001a4 00000000*      5968 	.word	.LDW_unq_14-.LDW_unq_13
                        5969 .LDW_unq_13:
000001a8 00000000*      5970 	.word	.LDW_4e24e40
000001ac 00000000*      5971 	.word	_R_FDL_Handler_OperationStates..C.3A.5C_ECU2.5CECU_Rivian_A1.5CTarget.5Crepo_projects.5CpRealEcu.5CcL_R2023.2E09.2E01.5Cmake.5Coutput.5Cobjects.5Cr_fdl_user_if.
000001b0 00000000*      5972 	.word	___ghs_eofn_R_FDL_Handler_OperationStates-_R_FDL_Handler_OperationStates..C.3A.5C_ECU2.5CECU_Rivian_A1.5CTarget.5Crepo_projects.5CpRealEcu.5CcL_R2023.2E09.2E01.5Cmake.5Coutput.5Cobjects.5Cr_fdl_user_if.
000001b4 44             5973 	.byte	68
000001b5 9f             5974 	.byte	159
000001b6 00             5975 	.byte	0
000001b7 40             5976 	.byte	64
000001b8 9d             5977 	.byte	157
000001b9 04             5978 	.byte	4
000001ba 40             5979 	.byte	64
000001bb 9c             5980 	.byte	156
000001bc 08             5981 	.byte	8
000001bd 40             5982 	.byte	64
000001be 9b             5983 	.byte	155
000001bf 0c             5984 	.byte	12
000001c0 01             5985 	.byte	1
000001c1 00000000*      5986 	.word	.LDW92
000001c5 00             5987 	.byte	0
000001c6 00             5988 	.byte	0
000001c7 00             5989 	.byte	0
                        5990 .LDW_unq_14:
                        5991 	.section	.debug_line
00000909 000502         5992 	.byte	0,5,2
0000090c 00000000*      5993 	.word	_R_FDL_Handler_OperationStates..C.3A.5C_ECU2.5CECU_Rivian_A1.5CTarget.5Crepo_projects.5CpRealEcu.5CcL_R2023.2E09.2E01.5Cmake.5Coutput.5Cobjects.5Cr_fdl_user_if.
00000910 03             5994 	.byte	3
00000911 fe03           5995 	.byte	254,3
00000913 02             5996 	.byte	2
00000914 00             5997 	.byte	0
00000915 01             5998 	.byte	1
00000916 06             5999 	.byte	6
00000917 03             6000 	.byte	3
00000918 05             6001 	.byte	5
00000919 02             6002 	.byte	2
0000091a 06             6003 	.byte	6
0000091b 01             6004 	.byte	1
0000091c 000502         6005 	.byte	0,5,2
0000091f 00000000*      6006 	.word	.LDWlin109
00000923 03             6007 	.byte	3
00000924 7e             6008 	.byte	126
00000925 02             6009 	.byte	2
00000926 00             6010 	.byte	0
00000927 01             6011 	.byte	1
00000928 000502         6012 	.byte	0,5,2
0000092b 00000000*      6013 	.word	.LDWlin110
0000092f 03             6014 	.byte	3

                                                                      Page 112
                                                              C:\Users\nhuliyap\AppData\Local\Temp\gh_0000d941.s
00000930 04             6015 	.byte	4
00000931 02             6016 	.byte	2
00000932 00             6017 	.byte	0
00000933 01             6018 	.byte	1
00000934 0b             6019 	.byte	11
00000935 000502         6020 	.byte	0,5,2
00000938 00000000*      6021 	.word	.LDWlin111
0000093c 0b             6022 	.byte	11
0000093d 000502         6023 	.byte	0,5,2
00000940 00000000*      6024 	.word	.LDWlin112
00000944 0b             6025 	.byte	11
00000945 0b             6026 	.byte	11
00000946 000502         6027 	.byte	0,5,2
00000949 00000000*      6028 	.word	.LDWlin113
0000094d 0d             6029 	.byte	13
0000094e 0b             6030 	.byte	11
0000094f 000502         6031 	.byte	0,5,2
00000952 00000000*      6032 	.word	.LDWlin114
00000956 0b             6033 	.byte	11
00000957 0b             6034 	.byte	11
00000958 000502         6035 	.byte	0,5,2
0000095b 00000000*      6036 	.word	.LDWlin115
0000095f 0b             6037 	.byte	11
00000960 000502         6038 	.byte	0,5,2
00000963 00000000*      6039 	.word	.LDWlin116
00000967 0c             6040 	.byte	12
00000968 24             6041 	.byte	36
00000969 03             6042 	.byte	3
0000096a 7f             6043 	.byte	127
0000096b 02             6044 	.byte	2
0000096c 02             6045 	.byte	2
0000096d 01             6046 	.byte	1
0000096e 000502         6047 	.byte	0,5,2
00000971 00000000*      6048 	.word	.LDWlin117
00000975 0c             6049 	.byte	12
00000976 0c             6050 	.byte	12
00000977 0b             6051 	.byte	11
00000978 000502         6052 	.byte	0,5,2
0000097b 00000000*      6053 	.word	.LDWlin118
0000097f 0b             6054 	.byte	11
00000980 02             6055 	.byte	2
00000981 00             6056 	.byte	0
00000982 0b             6057 	.byte	11
00000983 03             6058 	.byte	3
00000984 04             6059 	.byte	4
00000985 02             6060 	.byte	2
00000986 00             6061 	.byte	0
00000987 01             6062 	.byte	1
00000988 0c             6063 	.byte	12
00000989 000502         6064 	.byte	0,5,2
0000098c 00000000*      6065 	.word	.LDWlin119
00000990 0c             6066 	.byte	12
00000991 000502         6067 	.byte	0,5,2
00000994 00000000*      6068 	.word	.LDWlin120
00000998 0b             6069 	.byte	11
00000999 000502         6070 	.byte	0,5,2
0000099c 00000000*      6071 	.word	.LDWlin121
000009a0 0b             6072 	.byte	11
000009a1 0b             6073 	.byte	11
000009a2 1b             6074 	.byte	27
000009a3 06             6075 	.byte	6

                                                                      Page 113
                                                              C:\Users\nhuliyap\AppData\Local\Temp\gh_0000d941.s
000009a4 25             6076 	.byte	37
000009a5 03             6077 	.byte	3
000009a6 2d             6078 	.byte	45
000009a7 02             6079 	.byte	2
000009a8 00             6080 	.byte	0
000009a9 01             6081 	.byte	1
000009aa 06             6082 	.byte	6
000009ab 03             6083 	.byte	3
000009ac 22             6084 	.byte	34
000009ad 02             6085 	.byte	2
000009ae 00             6086 	.byte	0
000009af 01             6087 	.byte	1
000009b0 0d             6088 	.byte	13
000009b1 0d             6089 	.byte	13
000009b2 0c             6090 	.byte	12
000009b3 0b             6091 	.byte	11
000009b4 0b             6092 	.byte	11
000009b5 0b             6093 	.byte	11
000009b6 000502         6094 	.byte	0,5,2
000009b9 00000000*      6095 	.word	.LDWlin122
000009bd 03             6096 	.byte	3
000009be a77f           6097 	.byte	167,127
000009c0 02             6098 	.byte	2
000009c1 00             6099 	.byte	0
000009c2 01             6100 	.byte	1
000009c3 03             6101 	.byte	3
000009c4 04             6102 	.byte	4
000009c5 02             6103 	.byte	2
000009c6 00             6104 	.byte	0
000009c7 01             6105 	.byte	1
000009c8 0c             6106 	.byte	12
000009c9 000502         6107 	.byte	0,5,2
000009cc 00000000*      6108 	.word	.LDWlin123
000009d0 0b             6109 	.byte	11
000009d1 000502         6110 	.byte	0,5,2
000009d4 00000000*      6111 	.word	.LDWlin124
000009d8 0c             6112 	.byte	12
000009d9 000502         6113 	.byte	0,5,2
000009dc 00000000*      6114 	.word	.LDWlin125
000009e0 0c             6115 	.byte	12
000009e1 1b             6116 	.byte	27
000009e2 23             6117 	.byte	35
000009e3 13             6118 	.byte	19
000009e4 000502         6119 	.byte	0,5,2
000009e7 00000000*      6120 	.word	.LDWlin126
000009eb 02             6121 	.byte	2
000009ec 00             6122 	.byte	0
000009ed 03             6123 	.byte	3
000009ee 04             6124 	.byte	4
000009ef 02             6125 	.byte	2
000009f0 00             6126 	.byte	0
000009f1 01             6127 	.byte	1
000009f2 0b             6128 	.byte	11
000009f3 000502         6129 	.byte	0,5,2
000009f6 00000000*      6130 	.word	.LDWlin127
000009fa 0c             6131 	.byte	12
000009fb 000502         6132 	.byte	0,5,2
000009fe 00000000*      6133 	.word	.LDWlin128
00000a02 0b             6134 	.byte	11
00000a03 0b             6135 	.byte	11
00000a04 000502         6136 	.byte	0,5,2

                                                                      Page 114
                                                              C:\Users\nhuliyap\AppData\Local\Temp\gh_0000d941.s
00000a07 00000000*      6137 	.word	.LDWlin129
00000a0b 03             6138 	.byte	3
00000a0c 05             6139 	.byte	5
00000a0d 02             6140 	.byte	2
00000a0e 00             6141 	.byte	0
00000a0f 01             6142 	.byte	1
00000a10 03             6143 	.byte	3
00000a11 7d             6144 	.byte	125
00000a12 02             6145 	.byte	2
00000a13 06             6146 	.byte	6
00000a14 01             6147 	.byte	1
00000a15 000502         6148 	.byte	0,5,2
00000a18 00000000*      6149 	.word	.LDWlin130
00000a1c 03             6150 	.byte	3
00000a1d 04             6151 	.byte	4
00000a1e 02             6152 	.byte	2
00000a1f 00             6153 	.byte	0
00000a20 01             6154 	.byte	1
00000a21 0c             6155 	.byte	12
00000a22 000502         6156 	.byte	0,5,2
00000a25 00000000*      6157 	.word	.LDWlin131
00000a29 03             6158 	.byte	3
00000a2a 05             6159 	.byte	5
00000a2b 02             6160 	.byte	2
00000a2c 00             6161 	.byte	0
00000a2d 01             6162 	.byte	1
00000a2e 02             6163 	.byte	2
00000a2f 00             6164 	.byte	0
00000a30 0b             6165 	.byte	11
00000a31 02             6166 	.byte	2
00000a32 00             6167 	.byte	0
00000a33 0c             6168 	.byte	12
00000a34 000502         6169 	.byte	0,5,2
00000a37 00000000*      6170 	.word	.LDWlin132
00000a3b 0b             6171 	.byte	11
00000a3c 0b             6172 	.byte	11
00000a3d 000502         6173 	.byte	0,5,2
00000a40 00000000*      6174 	.word	.LDWlin133
00000a44 03             6175 	.byte	3
00000a45 04             6176 	.byte	4
00000a46 02             6177 	.byte	2
00000a47 00             6178 	.byte	0
00000a48 01             6179 	.byte	1
00000a49 03             6180 	.byte	3
00000a4a 04             6181 	.byte	4
00000a4b 02             6182 	.byte	2
00000a4c 00             6183 	.byte	0
00000a4d 01             6184 	.byte	1
00000a4e 0b             6185 	.byte	11
00000a4f 000502         6186 	.byte	0,5,2
00000a52 00000000*      6187 	.word	.LDWlin134
00000a56 0b             6188 	.byte	11
00000a57 23             6189 	.byte	35
00000a58 1b             6190 	.byte	27
00000a59 000502         6191 	.byte	0,5,2
00000a5c 00000000*      6192 	.word	.LDWlin135
00000a60 02             6193 	.byte	2
00000a61 00             6194 	.byte	0
00000a62 03             6195 	.byte	3
00000a63 04             6196 	.byte	4
00000a64 02             6197 	.byte	2

                                                                      Page 115
                                                              C:\Users\nhuliyap\AppData\Local\Temp\gh_0000d941.s
00000a65 00             6198 	.byte	0
00000a66 01             6199 	.byte	1
00000a67 0b             6200 	.byte	11
00000a68 23             6201 	.byte	35
00000a69 1b             6202 	.byte	27
00000a6a 000502         6203 	.byte	0,5,2
00000a6d 00000000*      6204 	.word	.LDWlin136
00000a71 02             6205 	.byte	2
00000a72 00             6206 	.byte	0
00000a73 03             6207 	.byte	3
00000a74 04             6208 	.byte	4
00000a75 02             6209 	.byte	2
00000a76 00             6210 	.byte	0
00000a77 01             6211 	.byte	1
00000a78 0b             6212 	.byte	11
00000a79 13             6213 	.byte	19
00000a7a 1b             6214 	.byte	27
00000a7b 23             6215 	.byte	35
00000a7c 000502         6216 	.byte	0,5,2
00000a7f 00000000*      6217 	.word	.LDWlin137
00000a83 02             6218 	.byte	2
00000a84 00             6219 	.byte	0
00000a85 03             6220 	.byte	3
00000a86 04             6221 	.byte	4
00000a87 02             6222 	.byte	2
00000a88 00             6223 	.byte	0
00000a89 01             6224 	.byte	1
00000a8a 0b             6225 	.byte	11
00000a8b 24             6226 	.byte	36
00000a8c 1b             6227 	.byte	27
00000a8d 000502         6228 	.byte	0,5,2
00000a90 00000000*      6229 	.word	.LDWlin138
00000a94 0b             6230 	.byte	11
00000a95 03             6231 	.byte	3
00000a96 0d             6232 	.byte	13
00000a97 02             6233 	.byte	2
00000a98 04             6234 	.byte	4
00000a99 01             6235 	.byte	1
00000a9a 02             6236 	.byte	2
00000a9b 00             6237 	.byte	0
00000a9c 0b             6238 	.byte	11
00000a9d 02             6239 	.byte	2
00000a9e 00             6240 	.byte	0
00000a9f 0b             6241 	.byte	11
00000aa0 06             6242 	.byte	6
00000aa1 02             6243 	.byte	2
00000aa2 02             6244 	.byte	2
00000aa3 02             6245 	.byte	2
00000aa4 04             6246 	.byte	4
00000aa5 000101         6247 	.byte	0,1,1
                        6248 	.section	.debug_info
                        6249 .LDW_4c75420:
0000143d 0f             6250 	.byte	15
0000143e 746d70537461   6251 	.strz	"tmpStat_penu"
00001444 745f70656e75 
0000144a 00 
0000144b fe03           6252 	.byte	254,3
0000144d 4b             6253 	.byte	75
0000144e 01             6254 	.byte	1
0000144f 00000000*      6255 	.word	.LDW_49370f0
00001453 00             6256 	.byte	0

                                                                      Page 116
                                                              C:\Users\nhuliyap\AppData\Local\Temp\gh_0000d941.s
00001454 016c           6257 	.byte	1,108
                        6258 
                        6259 .LDW_497aa30:
00001456 1d             6260 	.byte	29
00001457 00000000*      6261 	.word	.LDW82
0000145b 00000000*      6262 	.word	.LDW92
                        6263 
                        6264 .LDW_4c75478:
0000145f 04             6265 	.byte	4
00001460 636f6e7400     6266 	.strz	"cont"
00001465 8004           6267 	.byte	128,4
00001467 12             6268 	.byte	18
00001468 01             6269 	.byte	1
00001469 00000000*      6270 	.word	.LDW_4c74e48
0000146d 00             6271 	.byte	0
0000146e 00             6272 	.byte	0
0000146f 016b           6273 	.byte	1,107
                        6274 
00001471 00             6275 	.byte	0
                        6276 
00001472 00             6277 	.byte	0
                        6278 
                        6279 .LDW_4c75a08:
00001473 13             6280 	.byte	19
00001474 525f46444c5f   6281 	.strz	"R_FDL_Handler"
0000147a 48616e646c65 
00001480 7200 
00001482 8e05           6282 	.byte	142,5
00001484 06             6283 	.byte	6
00001485 01             6284 	.byte	1
00001486 00000000*      6285 	.word	_R_FDL_Handler
0000148a 00000000*      6286 	.word	___ghs_eofn_R_FDL_Handler
0000148e 0153           6287 	.byte	1,83
00001490 828080800a     6288 	.byte	130,128,128,128,10
00001495 08             6289 	.byte	8
00001496 03             6290 	.byte	3
00001497 0c             6291 	.byte	12
00001498 00             6292 	.byte	0
00001499 00             6293 	.byte	0
0000149a 00             6294 	.byte	0
0000149b 01             6295 	.byte	1
0000149c 01             6296 	.byte	1
0000149d 00             6297 	.byte	0
0000149e 01             6298 	.byte	1
                        6299 
                        6300 	.section	.debug_frame
                        6301 .LDW_4e9c928:
000001c8 00000000*      6302 	.word	.LDW_unq_16-.LDW_unq_15
                        6303 .LDW_unq_15:
000001cc 00000000*      6304 	.word	.LDW_4e24e40
000001d0 00000000*      6305 	.word	_R_FDL_Handler
000001d4 00000000*      6306 	.word	___ghs_eofn_R_FDL_Handler-_R_FDL_Handler
000001d8 44             6307 	.byte	68
000001d9 9f             6308 	.byte	159
000001da 03             6309 	.byte	3
000001db 40             6310 	.byte	64
000001dc 9d             6311 	.byte	157
000001dd 07             6312 	.byte	7
000001de 01             6313 	.byte	1
000001df 00000000*      6314 	.word	.LDW53
000001e3 00             6315 	.byte	0

                                                                      Page 117
                                                              C:\Users\nhuliyap\AppData\Local\Temp\gh_0000d941.s
                        6316 .LDW_unq_16:
                        6317 	.section	.debug_line
00000aa8 000502         6318 	.byte	0,5,2
00000aab 00000000*      6319 	.word	_R_FDL_Handler
00000aaf 03             6320 	.byte	3
00000ab0 8d05           6321 	.byte	141,5
00000ab2 02             6322 	.byte	2
00000ab3 00             6323 	.byte	0
00000ab4 01             6324 	.byte	1
00000ab5 06             6325 	.byte	6
00000ab6 03             6326 	.byte	3
00000ab7 05             6327 	.byte	5
00000ab8 02             6328 	.byte	2
00000ab9 04             6329 	.byte	4
00000aba 01             6330 	.byte	1
00000abb 24             6331 	.byte	36
00000abc 000502         6332 	.byte	0,5,2
00000abf 00000000*      6333 	.word	.LDWlin142
00000ac3 03             6334 	.byte	3
00000ac4 04             6335 	.byte	4
00000ac5 02             6336 	.byte	2
00000ac6 00             6337 	.byte	0
00000ac7 01             6338 	.byte	1
00000ac8 0c             6339 	.byte	12
00000ac9 000502         6340 	.byte	0,5,2
00000acc 00000000*      6341 	.word	.LDWlin143
00000ad0 0c             6342 	.byte	12
00000ad1 000502         6343 	.byte	0,5,2
00000ad4 00000000*      6344 	.word	.LDWlin144
00000ad8 0b             6345 	.byte	11
00000ad9 0b             6346 	.byte	11
00000ada 000502         6347 	.byte	0,5,2
00000add 00000000*      6348 	.word	.LDWlin145
00000ae1 0b             6349 	.byte	11
00000ae2 02             6350 	.byte	2
00000ae3 00             6351 	.byte	0
00000ae4 0c             6352 	.byte	12
00000ae5 000502         6353 	.byte	0,5,2
00000ae8 00000000*      6354 	.word	.LDWlin146
00000aec 0b             6355 	.byte	11
00000aed 0b             6356 	.byte	11
00000aee 000502         6357 	.byte	0,5,2
00000af1 00000000*      6358 	.word	.LDWlin147
00000af5 0b             6359 	.byte	11
00000af6 02             6360 	.byte	2
00000af7 00             6361 	.byte	0
00000af8 0c             6362 	.byte	12
00000af9 000502         6363 	.byte	0,5,2
00000afc 00000000*      6364 	.word	.LDWlin148
00000b00 0b             6365 	.byte	11
00000b01 0b             6366 	.byte	11
00000b02 000502         6367 	.byte	0,5,2
00000b05 00000000*      6368 	.word	.LDWlin149
00000b09 0b             6369 	.byte	11
00000b0a 02             6370 	.byte	2
00000b0b 00             6371 	.byte	0
00000b0c 0c             6372 	.byte	12
00000b0d 000502         6373 	.byte	0,5,2
00000b10 00000000*      6374 	.word	.LDWlin150
00000b14 0b             6375 	.byte	11
00000b15 0b             6376 	.byte	11

                                                                      Page 118
                                                              C:\Users\nhuliyap\AppData\Local\Temp\gh_0000d941.s
00000b16 000502         6377 	.byte	0,5,2
00000b19 00000000*      6378 	.word	.LDWlin151
00000b1d 0b             6379 	.byte	11
00000b1e 02             6380 	.byte	2
00000b1f 00             6381 	.byte	0
00000b20 0c             6382 	.byte	12
00000b21 000502         6383 	.byte	0,5,2
00000b24 00000000*      6384 	.word	.LDWlin152
00000b28 0b             6385 	.byte	11
00000b29 0b             6386 	.byte	11
00000b2a 000502         6387 	.byte	0,5,2
00000b2d 00000000*      6388 	.word	.LDWlin153
00000b31 0b             6389 	.byte	11
00000b32 02             6390 	.byte	2
00000b33 00             6391 	.byte	0
00000b34 0c             6392 	.byte	12
00000b35 000502         6393 	.byte	0,5,2
00000b38 00000000*      6394 	.word	.LDWlin154
00000b3c 0b             6395 	.byte	11
00000b3d 0b             6396 	.byte	11
00000b3e 000502         6397 	.byte	0,5,2
00000b41 00000000*      6398 	.word	.LDWlin155
00000b45 0b             6399 	.byte	11
00000b46 02             6400 	.byte	2
00000b47 00             6401 	.byte	0
00000b48 0c             6402 	.byte	12
00000b49 000502         6403 	.byte	0,5,2
00000b4c 00000000*      6404 	.word	.LDWlin156
00000b50 0b             6405 	.byte	11
00000b51 0b             6406 	.byte	11
00000b52 000502         6407 	.byte	0,5,2
00000b55 00000000*      6408 	.word	.LDWlin157
00000b59 0b             6409 	.byte	11
00000b5a 02             6410 	.byte	2
00000b5b 00             6411 	.byte	0
00000b5c 0c             6412 	.byte	12
00000b5d 000502         6413 	.byte	0,5,2
00000b60 00000000*      6414 	.word	.LDWlin158
00000b64 0b             6415 	.byte	11
00000b65 0b             6416 	.byte	11
00000b66 000502         6417 	.byte	0,5,2
00000b69 00000000*      6418 	.word	.LDWlin159
00000b6d 0b             6419 	.byte	11
00000b6e 000502         6420 	.byte	0,5,2
00000b71 00000000*      6421 	.word	.LDWlin160
00000b75 0b             6422 	.byte	11
00000b76 000502         6423 	.byte	0,5,2
00000b79 00000000*      6424 	.word	.LDWlin161
00000b7d 03             6425 	.byte	3
00000b7e 04             6426 	.byte	4
00000b7f 02             6427 	.byte	2
00000b80 00             6428 	.byte	0
00000b81 01             6429 	.byte	1
00000b82 03             6430 	.byte	3
00000b83 7d             6431 	.byte	125
00000b84 02             6432 	.byte	2
00000b85 04             6433 	.byte	4
00000b86 01             6434 	.byte	1
00000b87 0b             6435 	.byte	11
00000b88 2d             6436 	.byte	45
00000b89 000502         6437 	.byte	0,5,2

                                                                      Page 119
                                                              C:\Users\nhuliyap\AppData\Local\Temp\gh_0000d941.s
00000b8c 00000000*      6438 	.word	.LDWlin162
00000b90 0b             6439 	.byte	11
00000b91 02             6440 	.byte	2
00000b92 00             6441 	.byte	0
00000b93 0b             6442 	.byte	11
00000b94 02             6443 	.byte	2
00000b95 00             6444 	.byte	0
00000b96 0c             6445 	.byte	12
00000b97 000502         6446 	.byte	0,5,2
00000b9a 00000000*      6447 	.word	.LDWlin163
00000b9e 0b             6448 	.byte	11
00000b9f 0b             6449 	.byte	11
00000ba0 000502         6450 	.byte	0,5,2
00000ba3 00000000*      6451 	.word	.LDWlin164
00000ba7 0b             6452 	.byte	11
00000ba8 02             6453 	.byte	2
00000ba9 00             6454 	.byte	0
00000baa 03             6455 	.byte	3
00000bab 06             6456 	.byte	6
00000bac 02             6457 	.byte	2
00000bad 00             6458 	.byte	0
00000bae 01             6459 	.byte	1
00000baf 02             6460 	.byte	2
00000bb0 00             6461 	.byte	0
00000bb1 0b             6462 	.byte	11
00000bb2 02             6463 	.byte	2
00000bb3 04             6464 	.byte	4
00000bb4 000101         6465 	.byte	0,1,1
                        6466 	.section	.debug_info
                        6467 .LDW_497ab50:
0000149f 1d             6468 	.byte	29
000014a0 00000000*      6469 	.word	.LDW43
000014a4 00000000*      6470 	.word	.LDW53
                        6471 
                        6472 .LDW_4c754d0:
000014a8 04             6473 	.byte	4
000014a9 636f6e744864   6474 	.strz	"contHdrFct"
000014af 7246637400 
000014b4 8f05           6475 	.byte	143,5
000014b6 14             6476 	.byte	20
000014b7 01             6477 	.byte	1
000014b8 00000000*      6478 	.word	.LDW_4c74e48
000014bc 00             6479 	.byte	0
000014bd 00             6480 	.byte	0
000014be 015a           6481 	.byte	1,90
                        6482 
                        6483 .LDW_4c76ef8:
000014c0 04             6484 	.byte	4
000014c1 746d70537461   6485 	.strz	"tmpStatus"
000014c7 74757300 
000014cb 9005           6486 	.byte	144,5
000014cd 14             6487 	.byte	20
000014ce 01             6488 	.byte	1
000014cf 00000000*      6489 	.word	.LDW_4979c60
000014d3 00             6490 	.byte	0
000014d4 00             6491 	.byte	0
000014d5 0273           6492 	.byte	2,115
000014d7 03             6493 	.byte	3
                        6494 
                        6495 .LDW_4c76b30:
000014d8 05             6496 	.byte	5

                                                                      Page 120
                                                              C:\Users\nhuliyap\AppData\Local\Temp\gh_0000d941.s
000014d9 72657300       6497 	.strz	"res"
000014dd 9105           6498 	.byte	145,5
000014df 14             6499 	.byte	20
000014e0 01             6500 	.byte	1
000014e1 00000000*      6501 	.word	.LDW_4979c60
000014e5 00             6502 	.byte	0
000014e6 00             6503 	.byte	0
                        6504 
000014e7 00             6505 	.byte	0
                        6506 
000014e8 00             6507 	.byte	0
                        6508 
                        6509 .LDW_4c75aa0:
000014e9 14             6510 	.byte	20
000014ea 525f46444c5f   6511 	.strz	"R_FDL_GetVersionString"
000014f0 476574566572 
000014f6 73696f6e5374 
000014fc 72696e6700 
00001501 df05           6512 	.byte	223,5
00001503 10             6513 	.byte	16
00001504 01             6514 	.byte	1
00001505 00000000*      6515 	.word	.LDW_4ca5e60
00001509 00000000*      6516 	.word	_R_FDL_GetVersionString
0000150d 00000000*      6517 	.word	___ghs_eofn_R_FDL_GetVersionString
00001511 0153           6518 	.byte	1,83
00001513 02             6519 	.byte	2
00001514 00             6520 	.byte	0
00001515 02             6521 	.byte	2
00001516 00             6522 	.byte	0
00001517 00             6523 	.byte	0
00001518 00             6524 	.byte	0
00001519 00             6525 	.byte	0
0000151a 01             6526 	.byte	1
0000151b 01             6527 	.byte	1
0000151c 00             6528 	.byte	0
0000151d 01             6529 	.byte	1
                        6530 
                        6531 	.section	.debug_frame
                        6532 .LDW_4e9c5e8:
000001e4 00000000*      6533 	.word	.LDW_unq_18-.LDW_unq_17
                        6534 .LDW_unq_17:
000001e8 00000000*      6535 	.word	.LDW_4e24e40
000001ec 00000000*      6536 	.word	_R_FDL_GetVersionString
000001f0 00000000*      6537 	.word	___ghs_eofn_R_FDL_GetVersionString-_R_FDL_GetVersionString
000001f4 01             6538 	.byte	1
000001f5 00000000*      6539 	.word	.LDW73
000001f9 00             6540 	.byte	0
000001fa 00             6541 	.byte	0
000001fb 00             6542 	.byte	0
                        6543 .LDW_unq_18:
                        6544 	.section	.debug_line
00000bb7 000502         6545 	.byte	0,5,2
00000bba 00000000*      6546 	.word	_R_FDL_GetVersionString
00000bbe 06             6547 	.byte	6
00000bbf 03             6548 	.byte	3
00000bc0 e105           6549 	.byte	225,5
00000bc2 02             6550 	.byte	2
00000bc3 00             6551 	.byte	0
00000bc4 01             6552 	.byte	1
00000bc5 06             6553 	.byte	6
00000bc6 000502         6554 	.byte	0,5,2

                                                                      Page 121
                                                              C:\Users\nhuliyap\AppData\Local\Temp\gh_0000d941.s
00000bc9 00000000*      6555 	.word	.LDWlin165
00000bcd 02             6556 	.byte	2
00000bce 00             6557 	.byte	0
00000bcf 02             6558 	.byte	2
00000bd0 02             6559 	.byte	2
00000bd1 000101         6560 	.byte	0,1,1
                        6561 	.section	.debug_info
                        6562 .LDW_497aac0:
0000151e 1d             6563 	.byte	29
0000151f 00000000*      6564 	.word	.LDW63
00001523 00000000*      6565 	.word	.LDW73
                        6566 
                        6567 .LDW_4c76ea0:
00001527 04             6568 	.byte	4
00001528 725f66646c5f   6569 	.strz	"r_fdl_vStr"
0000152e 7653747200 
00001533 e005           6570 	.byte	224,5
00001535 19             6571 	.byte	25
00001536 01             6572 	.byte	1
00001537 00000000*      6573 	.word	.LDW_4c75b38
0000153b 00             6574 	.byte	0
0000153c 00             6575 	.byte	0
0000153d 0503           6576 	.byte	5,3
0000153f 00000000*      6577 	.word	_r_fdl_vStr.R_FDL_GetVersionString.C.3A.5C_ECU2.5CECU_Rivian_A1.5CTarget.5Crepo_projects.5CpRealEcu.5CcL_R2023.2E09.2E01.5Cmake.5Coutput.5Cobjects.5Cr_fdl_user_if..0
                        6578 
00001543 00             6579 	.byte	0
                        6580 
00001544 00             6581 	.byte	0
                        6582 
                        6583 .LDW_4c75bc0:
00001545 14             6584 	.byte	20
00001546 525f46444c5f   6585 	.strz	"R_FDL_SuspendRequest"
0000154c 53757370656e 
00001552 645265717565 
00001558 737400 
0000155b eb05           6586 	.byte	235,5
0000155d 10             6587 	.byte	16
0000155e 01             6588 	.byte	1
0000155f 00000000*      6589 	.word	.LDW_4979c60
00001563 00000000*      6590 	.word	_R_FDL_SuspendRequest
00001567 00000000*      6591 	.word	___ghs_eofn_R_FDL_SuspendRequest
0000156b 0153           6592 	.byte	1,83
0000156d 828080800a     6593 	.byte	130,128,128,128,10
00001572 08             6594 	.byte	8
00001573 03             6595 	.byte	3
00001574 08             6596 	.byte	8
00001575 00             6597 	.byte	0
00001576 00             6598 	.byte	0
00001577 00             6599 	.byte	0
00001578 01             6600 	.byte	1
00001579 01             6601 	.byte	1
0000157a 00             6602 	.byte	0
0000157b 01             6603 	.byte	1
                        6604 
                        6605 	.section	.debug_frame
                        6606 .LDW_4e9c568:
000001fc 00000000*      6607 	.word	.LDW_unq_1a-.LDW_unq_19
                        6608 .LDW_unq_19:
00000200 00000000*      6609 	.word	.LDW_4e24e40
00000204 00000000*      6610 	.word	_R_FDL_SuspendRequest
00000208 00000000*      6611 	.word	___ghs_eofn_R_FDL_SuspendRequest-_R_FDL_SuspendRequest

                                                                      Page 122
                                                              C:\Users\nhuliyap\AppData\Local\Temp\gh_0000d941.s
0000020c 44             6612 	.byte	68
0000020d 9f             6613 	.byte	159
0000020e 00             6614 	.byte	0
0000020f 40             6615 	.byte	64
00000210 9d             6616 	.byte	157
00000211 04             6617 	.byte	4
00000212 01             6618 	.byte	1
00000213 00000000*      6619 	.word	.LDW93
00000217 00             6620 	.byte	0
                        6621 .LDW_unq_1a:
                        6622 	.section	.debug_line
00000bd4 000502         6623 	.byte	0,5,2
00000bd7 00000000*      6624 	.word	_R_FDL_SuspendRequest
00000bdb 03             6625 	.byte	3
00000bdc ea05           6626 	.byte	234,5
00000bde 02             6627 	.byte	2
00000bdf 00             6628 	.byte	0
00000be0 01             6629 	.byte	1
00000be1 06             6630 	.byte	6
00000be2 1d             6631 	.byte	29
00000be3 14             6632 	.byte	20
00000be4 000502         6633 	.byte	0,5,2
00000be7 00000000*      6634 	.word	.LDWlin166
00000beb 0b             6635 	.byte	11
00000bec 0c             6636 	.byte	12
00000bed 000502         6637 	.byte	0,5,2
00000bf0 00000000*      6638 	.word	.LDWlin167
00000bf4 03             6639 	.byte	3
00000bf5 04             6640 	.byte	4
00000bf6 02             6641 	.byte	2
00000bf7 00             6642 	.byte	0
00000bf8 01             6643 	.byte	1
00000bf9 0b             6644 	.byte	11
00000bfa 13             6645 	.byte	19
00000bfb 13             6646 	.byte	19
00000bfc 02             6647 	.byte	2
00000bfd 00             6648 	.byte	0
00000bfe 0b             6649 	.byte	11
00000bff 02             6650 	.byte	2
00000c00 00             6651 	.byte	0
00000c01 0c             6652 	.byte	12
00000c02 06             6653 	.byte	6
00000c03 02             6654 	.byte	2
00000c04 02             6655 	.byte	2
00000c05 02             6656 	.byte	2
00000c06 04             6657 	.byte	4
00000c07 000101         6658 	.byte	0,1,1
                        6659 	.section	.debug_info
                        6660 .LDW_497aaf0:
0000157c 1d             6661 	.byte	29
0000157d 00000000*      6662 	.word	.LDW83
00001581 00000000*      6663 	.word	.LDW93
                        6664 
                        6665 .LDW_4c770b0:
00001585 04             6666 	.byte	4
00001586 72657400       6667 	.strz	"ret"
0000158a ec05           6668 	.byte	236,5
0000158c 14             6669 	.byte	20
0000158d 01             6670 	.byte	1
0000158e 00000000*      6671 	.word	.LDW_4979c60
00001592 00             6672 	.byte	0

                                                                      Page 123
                                                              C:\Users\nhuliyap\AppData\Local\Temp\gh_0000d941.s
00001593 00             6673 	.byte	0
00001594 016d           6674 	.byte	1,109
                        6675 
00001596 00             6676 	.byte	0
                        6677 
00001597 00             6678 	.byte	0
                        6679 
                        6680 .LDW_4c75c58:
00001598 14             6681 	.byte	20
00001599 525f46444c5f   6682 	.strz	"R_FDL_ResumeRequest"
0000159f 526573756d65 
000015a5 526571756573 
000015ab 7400 
000015ad 8406           6683 	.byte	132,6
000015af 10             6684 	.byte	16
000015b0 01             6685 	.byte	1
000015b1 00000000*      6686 	.word	.LDW_4979c60
000015b5 00000000*      6687 	.word	_R_FDL_ResumeRequest
000015b9 00000000*      6688 	.word	___ghs_eofn_R_FDL_ResumeRequest
000015bd 0153           6689 	.byte	1,83
000015bf 828080800a     6690 	.byte	130,128,128,128,10
000015c4 08             6691 	.byte	8
000015c5 03             6692 	.byte	3
000015c6 08             6693 	.byte	8
000015c7 00             6694 	.byte	0
000015c8 00             6695 	.byte	0
000015c9 00             6696 	.byte	0
000015ca 01             6697 	.byte	1
000015cb 01             6698 	.byte	1
000015cc 00             6699 	.byte	0
000015cd 01             6700 	.byte	1
                        6701 
                        6702 	.section	.debug_frame
                        6703 .LDW_4f6cd98:
00000218 00000000*      6704 	.word	.LDW_unq_1c-.LDW_unq_1b
                        6705 .LDW_unq_1b:
0000021c 00000000*      6706 	.word	.LDW_4e24e40
00000220 00000000*      6707 	.word	_R_FDL_ResumeRequest
00000224 00000000*      6708 	.word	___ghs_eofn_R_FDL_ResumeRequest-_R_FDL_ResumeRequest
00000228 44             6709 	.byte	68
00000229 9f             6710 	.byte	159
0000022a 00             6711 	.byte	0
0000022b 40             6712 	.byte	64
0000022c 9d             6713 	.byte	157
0000022d 04             6714 	.byte	4
0000022e 01             6715 	.byte	1
0000022f 00000000*      6716 	.word	.LDW14
00000233 00             6717 	.byte	0
                        6718 .LDW_unq_1c:
                        6719 	.section	.debug_line
00000c0a 000502         6720 	.byte	0,5,2
00000c0d 00000000*      6721 	.word	_R_FDL_ResumeRequest
00000c11 03             6722 	.byte	3
00000c12 8306           6723 	.byte	131,6
00000c14 02             6724 	.byte	2
00000c15 00             6725 	.byte	0
00000c16 01             6726 	.byte	1
00000c17 06             6727 	.byte	6
00000c18 1d             6728 	.byte	29
00000c19 14             6729 	.byte	20
00000c1a 000502         6730 	.byte	0,5,2

                                                                      Page 124
                                                              C:\Users\nhuliyap\AppData\Local\Temp\gh_0000d941.s
00000c1d 00000000*      6731 	.word	.LDWlin168
00000c21 0b             6732 	.byte	11
00000c22 0c             6733 	.byte	12
00000c23 000502         6734 	.byte	0,5,2
00000c26 00000000*      6735 	.word	.LDWlin169
00000c2a 0c             6736 	.byte	12
00000c2b 0b             6737 	.byte	11
00000c2c 06             6738 	.byte	6
00000c2d 000502         6739 	.byte	0,5,2
00000c30 00000000*      6740 	.word	.LDWlin170
00000c34 0d             6741 	.byte	13
00000c35 06             6742 	.byte	6
00000c36 0b             6743 	.byte	11
00000c37 02             6744 	.byte	2
00000c38 00             6745 	.byte	0
00000c39 0b             6746 	.byte	11
00000c3a 0b             6747 	.byte	11
00000c3b 0b             6748 	.byte	11
00000c3c 13             6749 	.byte	19
00000c3d 02             6750 	.byte	2
00000c3e 00             6751 	.byte	0
00000c3f 0c             6752 	.byte	12
00000c40 06             6753 	.byte	6
00000c41 02             6754 	.byte	2
00000c42 02             6755 	.byte	2
00000c43 02             6756 	.byte	2
00000c44 04             6757 	.byte	4
00000c45 000101         6758 	.byte	0,1,1
                        6759 	.section	.debug_info
                        6760 .LDW_497a9d0:
000015ce 1d             6761 	.byte	29
000015cf 00000000*      6762 	.word	.LDW04
000015d3 00000000*      6763 	.word	.LDW14
                        6764 
                        6765 .LDW_4c76920:
000015d7 04             6766 	.byte	4
000015d8 72657400       6767 	.strz	"ret"
000015dc 8506           6768 	.byte	133,6
000015de 14             6769 	.byte	20
000015df 01             6770 	.byte	1
000015e0 00000000*      6771 	.word	.LDW_4979c60
000015e4 00             6772 	.byte	0
000015e5 00             6773 	.byte	0
000015e6 016d           6774 	.byte	1,109
                        6775 
000015e8 00             6776 	.byte	0
                        6777 
000015e9 00             6778 	.byte	0
                        6779 
                        6780 .LDW_4c75cf0:
000015ea 14             6781 	.byte	20
000015eb 525f46444c5f   6782 	.strz	"R_FDL_StandBy"
000015f1 5374616e6442 
000015f7 7900 
000015f9 a006           6783 	.byte	160,6
000015fb 10             6784 	.byte	16
000015fc 01             6785 	.byte	1
000015fd 00000000*      6786 	.word	.LDW_4979c60
00001601 00000000*      6787 	.word	_R_FDL_StandBy
00001605 00000000*      6788 	.word	___ghs_eofn_R_FDL_StandBy
00001609 0153           6789 	.byte	1,83

                                                                      Page 125
                                                              C:\Users\nhuliyap\AppData\Local\Temp\gh_0000d941.s
0000160b 828080c00b     6790 	.byte	130,128,128,192,11
00001610 10             6791 	.byte	16
00001611 03             6792 	.byte	3
00001612 10             6793 	.byte	16
00001613 00             6794 	.byte	0
00001614 00             6795 	.byte	0
00001615 00             6796 	.byte	0
00001616 01             6797 	.byte	1
00001617 01             6798 	.byte	1
00001618 00             6799 	.byte	0
00001619 01             6800 	.byte	1
                        6801 
                        6802 	.section	.debug_frame
                        6803 .LDW_4f6d058:
00000234 00000000*      6804 	.word	.LDW_unq_1e-.LDW_unq_1d
                        6805 .LDW_unq_1d:
00000238 00000000*      6806 	.word	.LDW_4e24e40
0000023c 00000000*      6807 	.word	_R_FDL_StandBy
00000240 00000000*      6808 	.word	___ghs_eofn_R_FDL_StandBy-_R_FDL_StandBy
00000244 44             6809 	.byte	68
00000245 9f             6810 	.byte	159
00000246 00             6811 	.byte	0
00000247 40             6812 	.byte	64
00000248 9d             6813 	.byte	157
00000249 04             6814 	.byte	4
0000024a 40             6815 	.byte	64
0000024b 9c             6816 	.byte	156
0000024c 08             6817 	.byte	8
0000024d 40             6818 	.byte	64
0000024e 9b             6819 	.byte	155
0000024f 0c             6820 	.byte	12
00000250 01             6821 	.byte	1
00000251 00000000*      6822 	.word	.LDW34
00000255 00             6823 	.byte	0
00000256 00             6824 	.byte	0
00000257 00             6825 	.byte	0
                        6826 .LDW_unq_1e:
                        6827 	.section	.debug_line
00000c48 000502         6828 	.byte	0,5,2
00000c4b 00000000*      6829 	.word	_R_FDL_StandBy
00000c4f 03             6830 	.byte	3
00000c50 9f06           6831 	.byte	159,6
00000c52 02             6832 	.byte	2
00000c53 00             6833 	.byte	0
00000c54 01             6834 	.byte	1
00000c55 06             6835 	.byte	6
00000c56 1d             6836 	.byte	29
00000c57 000502         6837 	.byte	0,5,2
00000c5a 00000000*      6838 	.word	.LDWlin171
00000c5e 0d             6839 	.byte	13
00000c5f 0c             6840 	.byte	12
00000c60 000502         6841 	.byte	0,5,2
00000c63 00000000*      6842 	.word	.LDWlin172
00000c67 0b             6843 	.byte	11
00000c68 0b             6844 	.byte	11
00000c69 14             6845 	.byte	20
00000c6a 2b             6846 	.byte	43
00000c6b 02             6847 	.byte	2
00000c6c 00             6848 	.byte	0
00000c6d 0c             6849 	.byte	12
00000c6e 000502         6850 	.byte	0,5,2

                                                                      Page 126
                                                              C:\Users\nhuliyap\AppData\Local\Temp\gh_0000d941.s
00000c71 00000000*      6851 	.word	.LDWlin173
00000c75 0b             6852 	.byte	11
00000c76 0c             6853 	.byte	12
00000c77 14             6854 	.byte	20
00000c78 000502         6855 	.byte	0,5,2
00000c7b 00000000*      6856 	.word	.LDWlin174
00000c7f 0b             6857 	.byte	11
00000c80 0b             6858 	.byte	11
00000c81 000502         6859 	.byte	0,5,2
00000c84 00000000*      6860 	.word	.LDWlin175
00000c88 0b             6861 	.byte	11
00000c89 02             6862 	.byte	2
00000c8a 00             6863 	.byte	0
00000c8b 0b             6864 	.byte	11
00000c8c 0b             6865 	.byte	11
00000c8d 0c             6866 	.byte	12
00000c8e 2b             6867 	.byte	43
00000c8f 000502         6868 	.byte	0,5,2
00000c92 00000000*      6869 	.word	.LDWlin176
00000c96 0b             6870 	.byte	11
00000c97 02             6871 	.byte	2
00000c98 00             6872 	.byte	0
00000c99 0b             6873 	.byte	11
00000c9a 0b             6874 	.byte	11
00000c9b 0c             6875 	.byte	12
00000c9c 13             6876 	.byte	19
00000c9d 02             6877 	.byte	2
00000c9e 00             6878 	.byte	0
00000c9f 0c             6879 	.byte	12
00000ca0 06             6880 	.byte	6
00000ca1 02             6881 	.byte	2
00000ca2 02             6882 	.byte	2
00000ca3 02             6883 	.byte	2
00000ca4 04             6884 	.byte	4
00000ca5 000101         6885 	.byte	0,1,1
                        6886 	.section	.debug_info
                        6887 .LDW_497ab20:
0000161a 1d             6888 	.byte	29
0000161b 00000000*      6889 	.word	.LDW24
0000161f 00000000*      6890 	.word	.LDW34
                        6891 
                        6892 .LDW_4c76c38:
00001623 04             6893 	.byte	4
00001624 72657400       6894 	.strz	"ret"
00001628 a106           6895 	.byte	161,6
0000162a 14             6896 	.byte	20
0000162b 01             6897 	.byte	1
0000162c 00000000*      6898 	.word	.LDW_4979c60
00001630 00             6899 	.byte	0
00001631 00             6900 	.byte	0
00001632 016d           6901 	.byte	1,109
                        6902 
00001634 00             6903 	.byte	0
                        6904 
00001635 00             6905 	.byte	0
                        6906 
                        6907 .LDW_4c75d88:
00001636 14             6908 	.byte	20
00001637 525f46444c5f   6909 	.strz	"R_FDL_WakeUp"
0000163d 57616b655570 
00001643 00 

                                                                      Page 127
                                                              C:\Users\nhuliyap\AppData\Local\Temp\gh_0000d941.s
00001644 cb06           6910 	.byte	203,6
00001646 10             6911 	.byte	16
00001647 01             6912 	.byte	1
00001648 00000000*      6913 	.word	.LDW_4979c60
0000164c 00000000*      6914 	.word	_R_FDL_WakeUp
00001650 00000000*      6915 	.word	___ghs_eofn_R_FDL_WakeUp
00001654 0153           6916 	.byte	1,83
00001656 828080800a     6917 	.byte	130,128,128,128,10
0000165b 08             6918 	.byte	8
0000165c 03             6919 	.byte	3
0000165d 08             6920 	.byte	8
0000165e 00             6921 	.byte	0
0000165f 00             6922 	.byte	0
00001660 00             6923 	.byte	0
00001661 01             6924 	.byte	1
00001662 01             6925 	.byte	1
00001663 00             6926 	.byte	0
00001664 01             6927 	.byte	1
                        6928 
                        6929 	.section	.debug_frame
                        6930 .LDW_4f6ce98:
00000258 00000000*      6931 	.word	.LDW_unq_20-.LDW_unq_1f
                        6932 .LDW_unq_1f:
0000025c 00000000*      6933 	.word	.LDW_4e24e40
00000260 00000000*      6934 	.word	_R_FDL_WakeUp
00000264 00000000*      6935 	.word	___ghs_eofn_R_FDL_WakeUp-_R_FDL_WakeUp
00000268 48             6936 	.byte	72
00000269 9f             6937 	.byte	159
0000026a 00             6938 	.byte	0
0000026b 40             6939 	.byte	64
0000026c 9d             6940 	.byte	157
0000026d 04             6941 	.byte	4
0000026e 01             6942 	.byte	1
0000026f 00000000*      6943 	.word	.LDW54
00000273 00             6944 	.byte	0
                        6945 .LDW_unq_20:
                        6946 	.section	.debug_line
00000ca8 000502         6947 	.byte	0,5,2
00000cab 00000000*      6948 	.word	_R_FDL_WakeUp
00000caf 03             6949 	.byte	3
00000cb0 ca06           6950 	.byte	202,6
00000cb2 02             6951 	.byte	2
00000cb3 00             6952 	.byte	0
00000cb4 01             6953 	.byte	1
00000cb5 06             6954 	.byte	6
00000cb6 2d             6955 	.byte	45
00000cb7 000502         6956 	.byte	0,5,2
00000cba 00000000*      6957 	.word	.LDWlin177
00000cbe 03             6958 	.byte	3
00000cbf 04             6959 	.byte	4
00000cc0 02             6960 	.byte	2
00000cc1 00             6961 	.byte	0
00000cc2 01             6962 	.byte	1
00000cc3 03             6963 	.byte	3
00000cc4 7d             6964 	.byte	125
00000cc5 02             6965 	.byte	2
00000cc6 02             6966 	.byte	2
00000cc7 01             6967 	.byte	1
00000cc8 0b             6968 	.byte	11
00000cc9 03             6969 	.byte	3
00000cca 04             6970 	.byte	4

                                                                      Page 128
                                                              C:\Users\nhuliyap\AppData\Local\Temp\gh_0000d941.s
00000ccb 02             6971 	.byte	2
00000ccc 04             6972 	.byte	4
00000ccd 01             6973 	.byte	1
00000cce 000502         6974 	.byte	0,5,2
00000cd1 00000000*      6975 	.word	.LDWlin178
00000cd5 0b             6976 	.byte	11
00000cd6 0b             6977 	.byte	11
00000cd7 000502         6978 	.byte	0,5,2
00000cda 00000000*      6979 	.word	.LDWlin179
00000cde 0b             6980 	.byte	11
00000cdf 02             6981 	.byte	2
00000ce0 00             6982 	.byte	0
00000ce1 0b             6983 	.byte	11
00000ce2 0b             6984 	.byte	11
00000ce3 0b             6985 	.byte	11
00000ce4 13             6986 	.byte	19
00000ce5 02             6987 	.byte	2
00000ce6 00             6988 	.byte	0
00000ce7 0c             6989 	.byte	12
00000ce8 06             6990 	.byte	6
00000ce9 02             6991 	.byte	2
00000cea 02             6992 	.byte	2
00000ceb 02             6993 	.byte	2
00000cec 04             6994 	.byte	4
00000ced 000101         6995 	.byte	0,1,1
                        6996 	.section	.debug_info
                        6997 .LDW_497aa00:
00001665 1d             6998 	.byte	29
00001666 00000000*      6999 	.word	.LDW44
0000166a 00000000*      7000 	.word	.LDW54
                        7001 
                        7002 .LDW_4c76f50:
0000166e 04             7003 	.byte	4
0000166f 72657400       7004 	.strz	"ret"
00001673 cc06           7005 	.byte	204,6
00001675 14             7006 	.byte	20
00001676 01             7007 	.byte	1
00001677 00000000*      7008 	.word	.LDW_4979c60
0000167b 00             7009 	.byte	0
0000167c 00             7010 	.byte	0
0000167d 016d           7011 	.byte	1,109
                        7012 
0000167f 00             7013 	.byte	0
                        7014 
00001680 00             7015 	.byte	0
                        7016 
                        7017 .LDW_4e502d8:
00001681 14             7018 	.byte	20
00001682 525f46444c5f   7019 	.strz	"R_FDL_CancelRequest"
00001688 43616e63656c 
0000168e 526571756573 
00001694 7400 
00001696 e406           7020 	.byte	228,6
00001698 10             7021 	.byte	16
00001699 01             7022 	.byte	1
0000169a 00000000*      7023 	.word	.LDW_4979c60
0000169e 00000000*      7024 	.word	_R_FDL_CancelRequest
000016a2 00000000*      7025 	.word	___ghs_eofn_R_FDL_CancelRequest
000016a6 0153           7026 	.byte	1,83
000016a8 828080800b     7027 	.byte	130,128,128,128,11
000016ad 0c             7028 	.byte	12

                                                                      Page 129
                                                              C:\Users\nhuliyap\AppData\Local\Temp\gh_0000d941.s
000016ae 03             7029 	.byte	3
000016af 0c             7030 	.byte	12
000016b0 00             7031 	.byte	0
000016b1 00             7032 	.byte	0
000016b2 00             7033 	.byte	0
000016b3 01             7034 	.byte	1
000016b4 01             7035 	.byte	1
000016b5 00             7036 	.byte	0
000016b6 01             7037 	.byte	1
                        7038 
                        7039 	.section	.debug_frame
                        7040 .LDW_4f6cc18:
00000274 00000000*      7041 	.word	.LDW_unq_22-.LDW_unq_21
                        7042 .LDW_unq_21:
00000278 00000000*      7043 	.word	.LDW_4e24e40
0000027c 00000000*      7044 	.word	_R_FDL_CancelRequest
00000280 00000000*      7045 	.word	___ghs_eofn_R_FDL_CancelRequest-_R_FDL_CancelRequest
00000284 44             7046 	.byte	68
00000285 9f             7047 	.byte	159
00000286 00             7048 	.byte	0
00000287 40             7049 	.byte	64
00000288 9d             7050 	.byte	157
00000289 04             7051 	.byte	4
0000028a 40             7052 	.byte	64
0000028b 9c             7053 	.byte	156
0000028c 08             7054 	.byte	8
0000028d 01             7055 	.byte	1
0000028e 00000000*      7056 	.word	.LDW74
00000292 00             7057 	.byte	0
00000293 00             7058 	.byte	0
                        7059 .LDW_unq_22:
                        7060 	.section	.debug_line
00000cf0 000502         7061 	.byte	0,5,2
00000cf3 00000000*      7062 	.word	_R_FDL_CancelRequest
00000cf7 03             7063 	.byte	3
00000cf8 e306           7064 	.byte	227,6
00000cfa 02             7065 	.byte	2
00000cfb 00             7066 	.byte	0
00000cfc 01             7067 	.byte	1
00000cfd 06             7068 	.byte	6
00000cfe 1d             7069 	.byte	29
00000cff 14             7070 	.byte	20
00000d00 000502         7071 	.byte	0,5,2
00000d03 00000000*      7072 	.word	.LDWlin180
00000d07 0d             7073 	.byte	13
00000d08 0c             7074 	.byte	12
00000d09 000502         7075 	.byte	0,5,2
00000d0c 00000000*      7076 	.word	.LDWlin181
00000d10 0c             7077 	.byte	12
00000d11 0b             7078 	.byte	11
00000d12 000502         7079 	.byte	0,5,2
00000d15 00000000*      7080 	.word	.LDWlin182
00000d19 03             7081 	.byte	3
00000d1a 06             7082 	.byte	6
00000d1b 02             7083 	.byte	2
00000d1c 00             7084 	.byte	0
00000d1d 01             7085 	.byte	1
00000d1e 0b             7086 	.byte	11
00000d1f 0c             7087 	.byte	12
00000d20 02             7088 	.byte	2
00000d21 00             7089 	.byte	0

                                                                      Page 130
                                                              C:\Users\nhuliyap\AppData\Local\Temp\gh_0000d941.s
00000d22 02             7090 	.byte	2
00000d23 00             7091 	.byte	0
00000d24 02             7092 	.byte	2
00000d25 00             7093 	.byte	0
00000d26 0c             7094 	.byte	12
00000d27 000502         7095 	.byte	0,5,2
00000d2a 00000000*      7096 	.word	.LDWlin183
00000d2e 03             7097 	.byte	3
00000d2f 76             7098 	.byte	118
00000d30 02             7099 	.byte	2
00000d31 00             7100 	.byte	0
00000d32 01             7101 	.byte	1
00000d33 0b             7102 	.byte	11
00000d34 02             7103 	.byte	2
00000d35 00             7104 	.byte	0
00000d36 000502         7105 	.byte	0,5,2
00000d39 00000000*      7106 	.word	.LDWlin184
00000d3d 03             7107 	.byte	3
00000d3e 0a             7108 	.byte	10
00000d3f 02             7109 	.byte	2
00000d40 00             7110 	.byte	0
00000d41 01             7111 	.byte	1
00000d42 0b             7112 	.byte	11
00000d43 06             7113 	.byte	6
00000d44 000502         7114 	.byte	0,5,2
00000d47 00000000*      7115 	.word	.LDWlin185
00000d4b 03             7116 	.byte	3
00000d4c 78             7117 	.byte	120
00000d4d 02             7118 	.byte	2
00000d4e 00             7119 	.byte	0
00000d4f 01             7120 	.byte	1
00000d50 06             7121 	.byte	6
00000d51 03             7122 	.byte	3
00000d52 09             7123 	.byte	9
00000d53 02             7124 	.byte	2
00000d54 00             7125 	.byte	0
00000d55 01             7126 	.byte	1
00000d56 02             7127 	.byte	2
00000d57 00             7128 	.byte	0
00000d58 0b             7129 	.byte	11
00000d59 0b             7130 	.byte	11
00000d5a 0b             7131 	.byte	11
00000d5b 13             7132 	.byte	19
00000d5c 02             7133 	.byte	2
00000d5d 00             7134 	.byte	0
00000d5e 0c             7135 	.byte	12
00000d5f 06             7136 	.byte	6
00000d60 02             7137 	.byte	2
00000d61 02             7138 	.byte	2
00000d62 02             7139 	.byte	2
00000d63 04             7140 	.byte	4
00000d64 000101         7141 	.byte	0,1,1
                        7142 	.section	.debug_info
                        7143 .LDW_497aa90:
000016b7 1d             7144 	.byte	29
000016b8 00000000*      7145 	.word	.LDW64
000016bc 00000000*      7146 	.word	.LDW74
                        7147 
                        7148 .LDW_4c76d40:
000016c0 04             7149 	.byte	4
000016c1 72657400       7150 	.strz	"ret"

                                                                      Page 131
                                                              C:\Users\nhuliyap\AppData\Local\Temp\gh_0000d941.s
000016c5 e506           7151 	.byte	229,6
000016c7 14             7152 	.byte	20
000016c8 01             7153 	.byte	1
000016c9 00000000*      7154 	.word	.LDW_4979c60
000016cd 00             7155 	.byte	0
000016ce 00             7156 	.byte	0
000016cf 016c           7157 	.byte	1,108
                        7158 
000016d1 00             7159 	.byte	0
                        7160 
000016d2 00             7161 	.byte	0
                        7162 
                        7163 .LDW_4e508c8:
000016d3 14             7164 	.byte	20
000016d4 525f46444c5f   7165 	.strz	"R_FDL_UFct_FlashOpStart"
000016da 554663745f46 
000016e0 6c6173684f70 
000016e6 537461727400 
000016ec 8c07           7166 	.byte	140,7
000016ee 1b             7167 	.byte	27
000016ef 01             7168 	.byte	1
000016f0 00000000*      7169 	.word	.LDW_4c74e48
000016f4 00000000*      7170 	.word	_R_FDL_UFct_FlashOpStart..C.3A.5C_ECU2.5CECU_Rivian_A1.5CTarget.5Crepo_projects.5CpRealEcu.5CcL_R2023.2E09.2E01.5Cmake.5Coutput.5Cobjects.5Cr_fdl_user_if.
000016f8 00000000*      7171 	.word	___ghs_eofn_R_FDL_UFct_FlashOpStart
000016fc 0153           7172 	.byte	1,83
000016fe 8280c0ff0b     7173 	.byte	130,128,192,255,11
00001703 2c             7174 	.byte	44
00001704 03             7175 	.byte	3
00001705 34             7176 	.byte	52
00001706 00             7177 	.byte	0
00001707 00             7178 	.byte	0
00001708 00             7179 	.byte	0
00001709 00             7180 	.byte	0
0000170a 01             7181 	.byte	1
0000170b 00             7182 	.byte	0
0000170c 01             7183 	.byte	1
                        7184 
                        7185 	.section	.debug_frame
                        7186 .LDW_4e9c228:
00000294 00000000*      7187 	.word	.LDW_unq_24-.LDW_unq_23
                        7188 .LDW_unq_23:
00000298 00000000*      7189 	.word	.LDW_4e24e40
0000029c 00000000*      7190 	.word	_R_FDL_UFct_FlashOpStart..C.3A.5C_ECU2.5CECU_Rivian_A1.5CTarget.5Crepo_projects.5CpRealEcu.5CcL_R2023.2E09.2E01.5Cmake.5Coutput.5Cobjects.5Cr_fdl_user_if.
000002a0 00000000*      7191 	.word	___ghs_eofn_R_FDL_UFct_FlashOpStart-_R_FDL_UFct_FlashOpStart..C.3A.5C_ECU2.5CECU_Rivian_A1.5CTarget.5Crepo_projects.5CpRealEcu.5CcL_R2023.2E09.2E01.5Cmake.5Coutput.5Cobjects.5Cr_fdl_user_if.
000002a4 44             7192 	.byte	68
000002a5 9f             7193 	.byte	159
000002a6 06             7194 	.byte	6
000002a7 40             7195 	.byte	64
000002a8 9d             7196 	.byte	157
000002a9 0a             7197 	.byte	10
000002aa 40             7198 	.byte	64
000002ab 9c             7199 	.byte	156
000002ac 0e             7200 	.byte	14
000002ad 40             7201 	.byte	64
000002ae 9b             7202 	.byte	155
000002af 12             7203 	.byte	18
000002b0 40             7204 	.byte	64
000002b1 9a             7205 	.byte	154
000002b2 16             7206 	.byte	22
000002b3 40             7207 	.byte	64
000002b4 99             7208 	.byte	153

                                                                      Page 132
                                                              C:\Users\nhuliyap\AppData\Local\Temp\gh_0000d941.s
000002b5 1a             7209 	.byte	26
000002b6 40             7210 	.byte	64
000002b7 98             7211 	.byte	152
000002b8 1e             7212 	.byte	30
000002b9 40             7213 	.byte	64
000002ba 97             7214 	.byte	151
000002bb 22             7215 	.byte	34
000002bc 40             7216 	.byte	64
000002bd 96             7217 	.byte	150
000002be 26             7218 	.byte	38
000002bf 40             7219 	.byte	64
000002c0 95             7220 	.byte	149
000002c1 2a             7221 	.byte	42
000002c2 40             7222 	.byte	64
000002c3 94             7223 	.byte	148
000002c4 2e             7224 	.byte	46
000002c5 01             7225 	.byte	1
000002c6 00000000*      7226 	.word	.LDW31
000002ca 00             7227 	.byte	0
000002cb 00             7228 	.byte	0
                        7229 .LDW_unq_24:
                        7230 	.section	.debug_line
00000d67 000502         7231 	.byte	0,5,2
00000d6a 00000000*      7232 	.word	_R_FDL_UFct_FlashOpStart..C.3A.5C_ECU2.5CECU_Rivian_A1.5CTarget.5Crepo_projects.5CpRealEcu.5CcL_R2023.2E09.2E01.5Cmake.5Coutput.5Cobjects.5Cr_fdl_user_if.
00000d6e 03             7233 	.byte	3
00000d6f 8e07           7234 	.byte	142,7
00000d71 02             7235 	.byte	2
00000d72 00             7236 	.byte	0
00000d73 01             7237 	.byte	1
00000d74 06             7238 	.byte	6
00000d75 03             7239 	.byte	3
00000d76 0c             7240 	.byte	12
00000d77 02             7241 	.byte	2
00000d78 0c             7242 	.byte	12
00000d79 01             7243 	.byte	1
00000d7a 1b             7244 	.byte	27
00000d7b 13             7245 	.byte	19
00000d7c 13             7246 	.byte	19
00000d7d 13             7247 	.byte	19
00000d7e 15             7248 	.byte	21
00000d7f 23             7249 	.byte	35
00000d80 1c             7250 	.byte	28
00000d81 000502         7251 	.byte	0,5,2
00000d84 00000000*      7252 	.word	.LDWlin10
00000d88 0b             7253 	.byte	11
00000d89 0b             7254 	.byte	11
00000d8a 1d             7255 	.byte	29
00000d8b 03             7256 	.byte	3
00000d8c 7e             7257 	.byte	126
00000d8d 02             7258 	.byte	2
00000d8e 06             7259 	.byte	6
00000d8f 01             7260 	.byte	1
00000d90 03             7261 	.byte	3
00000d91 04             7262 	.byte	4
00000d92 02             7263 	.byte	2
00000d93 04             7264 	.byte	4
00000d94 01             7265 	.byte	1
00000d95 14             7266 	.byte	20
00000d96 000502         7267 	.byte	0,5,2
00000d99 00000000*      7268 	.word	.LDWlin11
00000d9d 0b             7269 	.byte	11

                                                                      Page 133
                                                              C:\Users\nhuliyap\AppData\Local\Temp\gh_0000d941.s
00000d9e 0b             7270 	.byte	11
00000d9f 02             7271 	.byte	2
00000da0 00             7272 	.byte	0
00000da1 000502         7273 	.byte	0,5,2
00000da4 00000000*      7274 	.word	.LDWlin12
00000da8 0b             7275 	.byte	11
00000da9 0c             7276 	.byte	12
00000daa 1c             7277 	.byte	28
00000dab 000502         7278 	.byte	0,5,2
00000dae 00000000*      7279 	.word	.LDWlin13
00000db2 0c             7280 	.byte	12
00000db3 14             7281 	.byte	20
00000db4 000502         7282 	.byte	0,5,2
00000db7 00000000*      7283 	.word	.LDWlin14
00000dbb 0b             7284 	.byte	11
00000dbc 0b             7285 	.byte	11
00000dbd 02             7286 	.byte	2
00000dbe 00             7287 	.byte	0
00000dbf 000502         7288 	.byte	0,5,2
00000dc2 00000000*      7289 	.word	.LDWlin15
00000dc6 0b             7290 	.byte	11
00000dc7 0c             7291 	.byte	12
00000dc8 25             7292 	.byte	37
00000dc9 000502         7293 	.byte	0,5,2
00000dcc 00000000*      7294 	.word	.LDWlin16
00000dd0 0b             7295 	.byte	11
00000dd1 03             7296 	.byte	3
00000dd2 0d             7297 	.byte	13
00000dd3 02             7298 	.byte	2
00000dd4 00             7299 	.byte	0
00000dd5 01             7300 	.byte	1
00000dd6 0d             7301 	.byte	13
00000dd7 1c             7302 	.byte	28
00000dd8 13             7303 	.byte	19
00000dd9 02             7304 	.byte	2
00000dda 00             7305 	.byte	0
00000ddb 02             7306 	.byte	2
00000ddc 00             7307 	.byte	0
00000ddd 02             7308 	.byte	2
00000dde 00             7309 	.byte	0
00000ddf 02             7310 	.byte	2
00000de0 00             7311 	.byte	0
00000de1 02             7312 	.byte	2
00000de2 00             7313 	.byte	0
00000de3 0c             7314 	.byte	12
00000de4 3c             7315 	.byte	60
00000de5 000502         7316 	.byte	0,5,2
00000de8 00000000*      7317 	.word	.LDWlin17
00000dec 0b             7318 	.byte	11
00000ded 0b             7319 	.byte	11
00000dee 000502         7320 	.byte	0,5,2
00000df1 00000000*      7321 	.word	.LDWlin18
00000df5 0d             7322 	.byte	13
00000df6 0b             7323 	.byte	11
00000df7 0b             7324 	.byte	11
00000df8 000502         7325 	.byte	0,5,2
00000dfb 00000000*      7326 	.word	.LDWlin19
00000dff 0b             7327 	.byte	11
00000e00 02             7328 	.byte	2
00000e01 00             7329 	.byte	0
00000e02 0c             7330 	.byte	12

                                                                      Page 134
                                                              C:\Users\nhuliyap\AppData\Local\Temp\gh_0000d941.s
00000e03 23             7331 	.byte	35
00000e04 02             7332 	.byte	2
00000e05 00             7333 	.byte	0
00000e06 0c             7334 	.byte	12
00000e07 000502         7335 	.byte	0,5,2
00000e0a 00000000*      7336 	.word	.LDWlin20
00000e0e 0b             7337 	.byte	11
00000e0f 0c             7338 	.byte	12
00000e10 000502         7339 	.byte	0,5,2
00000e13 00000000*      7340 	.word	.LDWlin21
00000e17 0b             7341 	.byte	11
00000e18 0c             7342 	.byte	12
00000e19 000502         7343 	.byte	0,5,2
00000e1c 00000000*      7344 	.word	.LDWlin22
00000e20 0b             7345 	.byte	11
00000e21 0b             7346 	.byte	11
00000e22 000502         7347 	.byte	0,5,2
00000e25 00000000*      7348 	.word	.LDWlin23
00000e29 0d             7349 	.byte	13
00000e2a 000502         7350 	.byte	0,5,2
00000e2d 00000000*      7351 	.word	.LDWlin24
00000e31 0b             7352 	.byte	11
00000e32 0b             7353 	.byte	11
00000e33 0b             7354 	.byte	11
00000e34 000502         7355 	.byte	0,5,2
00000e37 00000000*      7356 	.word	.LDWlin25
00000e3b 0b             7357 	.byte	11
00000e3c 02             7358 	.byte	2
00000e3d 00             7359 	.byte	0
00000e3e 0b             7360 	.byte	11
00000e3f 0b             7361 	.byte	11
00000e40 0b             7362 	.byte	11
00000e41 000502         7363 	.byte	0,5,2
00000e44 00000000*      7364 	.word	.LDWlin26
00000e48 0b             7365 	.byte	11
00000e49 0b             7366 	.byte	11
00000e4a 000502         7367 	.byte	0,5,2
00000e4d 00000000*      7368 	.word	.LDWlin27
00000e51 0b             7369 	.byte	11
00000e52 000502         7370 	.byte	0,5,2
00000e55 00000000*      7371 	.word	.LDWlin28
00000e59 0b             7372 	.byte	11
00000e5a 0b             7373 	.byte	11
00000e5b 000502         7374 	.byte	0,5,2
00000e5e 00000000*      7375 	.word	.LDWlin29
00000e62 0b             7376 	.byte	11
00000e63 23             7377 	.byte	35
00000e64 0b             7378 	.byte	11
00000e65 000502         7379 	.byte	0,5,2
00000e68 00000000*      7380 	.word	.LDWlin30
00000e6c 0b             7381 	.byte	11
00000e6d 0c             7382 	.byte	12
00000e6e 0b             7383 	.byte	11
00000e6f 1b             7384 	.byte	27
00000e70 02             7385 	.byte	2
00000e71 00             7386 	.byte	0
00000e72 0b             7387 	.byte	11
00000e73 02             7388 	.byte	2
00000e74 00             7389 	.byte	0
00000e75 0b             7390 	.byte	11
00000e76 02             7391 	.byte	2

                                                                      Page 135
                                                              C:\Users\nhuliyap\AppData\Local\Temp\gh_0000d941.s
00000e77 00             7392 	.byte	0
00000e78 0c             7393 	.byte	12
00000e79 000502         7394 	.byte	0,5,2
00000e7c 00000000*      7395 	.word	.LDWlin31
00000e80 0b             7396 	.byte	11
00000e81 0b             7397 	.byte	11
00000e82 000502         7398 	.byte	0,5,2
00000e85 00000000*      7399 	.word	.LDWlin32
00000e89 0b             7400 	.byte	11
00000e8a 0b             7401 	.byte	11
00000e8b 000502         7402 	.byte	0,5,2
00000e8e 00000000*      7403 	.word	.LDWlin33
00000e92 0b             7404 	.byte	11
00000e93 0b             7405 	.byte	11
00000e94 0b             7406 	.byte	11
00000e95 000502         7407 	.byte	0,5,2
00000e98 00000000*      7408 	.word	.LDWlin34
00000e9c 0c             7409 	.byte	12
00000e9d 43             7410 	.byte	67
00000e9e 02             7411 	.byte	2
00000e9f 00             7412 	.byte	0
00000ea0 0c             7413 	.byte	12
00000ea1 000502         7414 	.byte	0,5,2
00000ea4 00000000*      7415 	.word	.LDWlin35
00000ea8 03             7416 	.byte	3
00000ea9 05             7417 	.byte	5
00000eaa 02             7418 	.byte	2
00000eab 00             7419 	.byte	0
00000eac 01             7420 	.byte	1
00000ead 03             7421 	.byte	3
00000eae 7f             7422 	.byte	127
00000eaf 02             7423 	.byte	2
00000eb0 04             7424 	.byte	4
00000eb1 01             7425 	.byte	1
00000eb2 03             7426 	.byte	3
00000eb3 7d             7427 	.byte	125
00000eb4 02             7428 	.byte	2
00000eb5 04             7429 	.byte	4
00000eb6 01             7430 	.byte	1
00000eb7 0b             7431 	.byte	11
00000eb8 03             7432 	.byte	3
00000eb9 04             7433 	.byte	4
00000eba 02             7434 	.byte	2
00000ebb 10             7435 	.byte	16
00000ebc 01             7436 	.byte	1
00000ebd 000502         7437 	.byte	0,5,2
00000ec0 00000000*      7438 	.word	.LDWlin36
00000ec4 0b             7439 	.byte	11
00000ec5 0b             7440 	.byte	11
00000ec6 0b             7441 	.byte	11
00000ec7 000502         7442 	.byte	0,5,2
00000eca 00000000*      7443 	.word	.LDWlin37
00000ece 0b             7444 	.byte	11
00000ecf 000502         7445 	.byte	0,5,2
00000ed2 00000000*      7446 	.word	.LDWlin38
00000ed6 0b             7447 	.byte	11
00000ed7 0c             7448 	.byte	12
00000ed8 1b             7449 	.byte	27
00000ed9 23             7450 	.byte	35
00000eda 23             7451 	.byte	35
00000edb 13             7452 	.byte	19

                                                                      Page 136
                                                              C:\Users\nhuliyap\AppData\Local\Temp\gh_0000d941.s
00000edc 02             7453 	.byte	2
00000edd 00             7454 	.byte	0
00000ede 0b             7455 	.byte	11
00000edf 02             7456 	.byte	2
00000ee0 00             7457 	.byte	0
00000ee1 0b             7458 	.byte	11
00000ee2 02             7459 	.byte	2
00000ee3 00             7460 	.byte	0
00000ee4 0b             7461 	.byte	11
00000ee5 02             7462 	.byte	2
00000ee6 00             7463 	.byte	0
00000ee7 0b             7464 	.byte	11
00000ee8 02             7465 	.byte	2
00000ee9 00             7466 	.byte	0
00000eea 0c             7467 	.byte	12
00000eeb 06             7468 	.byte	6
00000eec 02             7469 	.byte	2
00000eed 02             7470 	.byte	2
00000eee 02             7471 	.byte	2
00000eef 04             7472 	.byte	4
00000ef0 000101         7473 	.byte	0,1,1
                        7474 	.section	.debug_info
                        7475 .LDW_4c769d0:
0000170d 0f             7476 	.byte	15
0000170e 726571756573   7477 	.strz	"request_pstr"
00001714 745f70737472 
0000171a 00 
0000171b 8c07           7478 	.byte	140,7
0000171d 46             7479 	.byte	70
0000171e 01             7480 	.byte	1
0000171f 00000000*      7481 	.word	.LDW_4937010
00001723 00             7482 	.byte	0
00001724 016b           7483 	.byte	1,107
                        7484 
                        7485 .LDW_4c76df0:
00001726 0f             7486 	.byte	15
00001727 746d70537461   7487 	.strz	"tmpStat_penu"
0000172d 745f70656e75 
00001733 00 
00001734 8d07           7488 	.byte	141,7
00001736 49             7489 	.byte	73
00001737 01             7490 	.byte	1
00001738 00000000*      7491 	.word	.LDW_49370f0
0000173c 00             7492 	.byte	0
0000173d 016c           7493 	.byte	1,108
                        7494 
                        7495 .LDW_4c767c0:
0000173f 0f             7496 	.byte	15
00001740 697343616c6c   7497 	.strz	"isCalledFromExecute_enu"
00001746 656446726f6d 
0000174c 457865637574 
00001752 655f656e7500 
00001758 8e07           7498 	.byte	142,7
0000175a 49             7499 	.byte	73
0000175b 01             7500 	.byte	1
0000175c 00000000*      7501 	.word	.LDW_4c74e48
00001760 00             7502 	.byte	0
00001761 0164           7503 	.byte	1,100
                        7504 
                        7505 .LDW_4e17ff0:
00001763 1d             7506 	.byte	29

                                                                      Page 137
                                                              C:\Users\nhuliyap\AppData\Local\Temp\gh_0000d941.s
00001764 00000000*      7507 	.word	.LDW21
00001768 00000000*      7508 	.word	.LDW31
                        7509 
                        7510 .LDW_4c76c90:
0000176c 04             7511 	.byte	4
0000176d 616464466c61   7512 	.strz	"addFlash"
00001773 736800 
00001776 9007           7513 	.byte	144,7
00001778 17             7514 	.byte	23
00001779 01             7515 	.byte	1
0000177a 00000000*      7516 	.word	.LDW_4979f08
0000177e 00             7517 	.byte	0
0000177f 00             7518 	.byte	0
00001780 0273           7519 	.byte	2,115
00001782 00             7520 	.byte	0
                        7521 
                        7522 .LDW_4c76710:
00001783 04             7523 	.byte	4
00001784 636e74546f74   7524 	.strz	"cntTotal"
0000178a 616c00 
0000178d 9107           7525 	.byte	145,7
0000178f 17             7526 	.byte	23
00001790 01             7527 	.byte	1
00001791 00000000*      7528 	.word	.LDW_4979f08
00001795 00             7529 	.byte	0
00001796 00             7530 	.byte	0
00001797 016d           7531 	.byte	1,109
                        7532 
                        7533 .LDW_4c76fa8:
00001799 04             7534 	.byte	4
0000179a 616464427566   7535 	.strz	"addBuf"
000017a0 00 
000017a1 9207           7536 	.byte	146,7
000017a3 17             7537 	.byte	23
000017a4 01             7538 	.byte	1
000017a5 00000000*      7539 	.word	.LDW_4979f08
000017a9 00             7540 	.byte	0
000017aa 00             7541 	.byte	0
000017ab 016a           7542 	.byte	1,106
                        7543 
                        7544 .LDW_4c76e48:
000017ad 05             7545 	.byte	5
000017ae 6772616e756c   7546 	.strz	"granularityCurOp"
000017b4 617269747943 
000017ba 75724f7000 
000017bf 9307           7547 	.byte	147,7
000017c1 17             7548 	.byte	23
000017c2 01             7549 	.byte	1
000017c3 00000000*      7550 	.word	.LDW_4979f08
000017c7 00             7551 	.byte	0
000017c8 00             7552 	.byte	0
                        7553 
                        7554 .LDW_4c76818:
000017c9 04             7555 	.byte	4
000017ca 636e74437572   7556 	.strz	"cntCurOp"
000017d0 4f7000 
000017d3 9407           7557 	.byte	148,7
000017d5 17             7558 	.byte	23
000017d6 01             7559 	.byte	1
000017d7 00000000*      7560 	.word	.LDW_4979f08
000017db 00             7561 	.byte	0

                                                                      Page 138
                                                              C:\Users\nhuliyap\AppData\Local\Temp\gh_0000d941.s
000017dc 00             7562 	.byte	0
000017dd 0273           7563 	.byte	2,115
000017df 04             7564 	.byte	4
                        7565 
                        7566 .LDW_4c76a80:
000017e0 04             7567 	.byte	4
000017e1 616464456e64   7568 	.strz	"addEndCurOp"
000017e7 4375724f7000 
000017ed 9507           7569 	.byte	149,7
000017ef 17             7570 	.byte	23
000017f0 01             7571 	.byte	1
000017f1 00000000*      7572 	.word	.LDW_4979f08
000017f5 00             7573 	.byte	0
000017f6 00             7574 	.byte	0
000017f7 0165           7575 	.byte	1,101
                        7576 
                        7577 .LDW_4c76ad8:
000017f9 04             7578 	.byte	4
000017fa 636d6400       7579 	.strz	"cmd"
000017fe 9607           7580 	.byte	150,7
00001800 18             7581 	.byte	24
00001801 01             7582 	.byte	1
00001802 00000000*      7583 	.word	.LDW_4c75210
00001806 00             7584 	.byte	0
00001807 00             7585 	.byte	0
00001808 0169           7586 	.byte	1,105
                        7587 
                        7588 .LDW_4c76978:
0000180a 04             7589 	.byte	4
0000180b 616363547970   7590 	.strz	"accType"
00001811 6500 
00001813 9707           7591 	.byte	151,7
00001815 18             7592 	.byte	24
00001816 01             7593 	.byte	1
00001817 00000000*      7594 	.word	.LDW_4c76be0
0000181b 00             7595 	.byte	0
0000181c 00             7596 	.byte	0
0000181d 0167           7597 	.byte	1,103
                        7598 
                        7599 .LDW_4c76768:
0000181f 04             7600 	.byte	4
00001820 636f6e7400     7601 	.strz	"cont"
00001825 9807           7602 	.byte	152,7
00001827 18             7603 	.byte	24
00001828 01             7604 	.byte	1
00001829 00000000*      7605 	.word	.LDW_4c74e48
0000182d 00             7606 	.byte	0
0000182e 00             7607 	.byte	0
0000182f 0168           7608 	.byte	1,104
                        7609 
                        7610 .LDW_4c77000:
00001831 04             7611 	.byte	4
00001832 666375436d64   7612 	.strz	"fcuCmd"
00001838 00 
00001839 9907           7613 	.byte	153,7
0000183b 17             7614 	.byte	23
0000183c 01             7615 	.byte	1
0000183d 00000000*      7616 	.word	.LDW_4c76d98
00001841 00             7617 	.byte	0
00001842 00             7618 	.byte	0
00001843 0166           7619 	.byte	1,102

                                                                      Page 139
                                                              C:\Users\nhuliyap\AppData\Local\Temp\gh_0000d941.s
                        7620 
00001845 00             7621 	.byte	0
                        7622 
00001846 00             7623 	.byte	0
                        7624 
                        7625 .LDW_4e50bc0:
00001847 13             7626 	.byte	19
00001848 525f46444c5f   7627 	.strz	"R_FDL_UFct_EndCurrentOperation"
0000184e 554663745f45 
00001854 6e6443757272 
0000185a 656e744f7065 
00001860 726174696f6e 
00001866 00 
00001867 b308           7628 	.byte	179,8
00001869 13             7629 	.byte	19
0000186a 01             7630 	.byte	1
0000186b 00000000*      7631 	.word	_R_FDL_UFct_EndCurrentOperation..C.3A.5C_ECU2.5CECU_Rivian_A1.5CTarget.5Crepo_projects.5CpRealEcu.5CcL_R2023.2E09.2E01.5Cmake.5Coutput.5Cobjects.5Cr_fdl_user_if.
0000186f 00000000*      7632 	.word	___ghs_eofn_R_FDL_UFct_EndCurrentOperation
00001873 0153           7633 	.byte	1,83
00001875 02             7634 	.byte	2
00001876 00             7635 	.byte	0
00001877 02             7636 	.byte	2
00001878 00             7637 	.byte	0
00001879 00             7638 	.byte	0
0000187a 00             7639 	.byte	0
0000187b 00             7640 	.byte	0
0000187c 00             7641 	.byte	0
0000187d 01             7642 	.byte	1
0000187e 00             7643 	.byte	0
0000187f 01             7644 	.byte	1
                        7645 
                        7646 	.section	.debug_frame
                        7647 .LDW_4e9c9e8:
000002cc 00000000*      7648 	.word	.LDW_unq_26-.LDW_unq_25
                        7649 .LDW_unq_25:
000002d0 00000000*      7650 	.word	.LDW_4e24e40
000002d4 00000000*      7651 	.word	_R_FDL_UFct_EndCurrentOperation..C.3A.5C_ECU2.5CECU_Rivian_A1.5CTarget.5Crepo_projects.5CpRealEcu.5CcL_R2023.2E09.2E01.5Cmake.5Coutput.5Cobjects.5Cr_fdl_user_if.
000002d8 00000000*      7652 	.word	___ghs_eofn_R_FDL_UFct_EndCurrentOperation-_R_FDL_UFct_EndCurrentOperation..C.3A.5C_ECU2.5CECU_Rivian_A1.5CTarget.5Crepo_projects.5CpRealEcu.5CcL_R2023.2E09.2E01.5Cmake.5Coutput.5Cobjects.5Cr_fdl_user_if.
000002dc 01             7653 	.byte	1
000002dd 00000000*      7654 	.word	.LDW33
000002e1 00             7655 	.byte	0
000002e2 00             7656 	.byte	0
000002e3 00             7657 	.byte	0
                        7658 .LDW_unq_26:
                        7659 	.section	.debug_line
00000ef3 000502         7660 	.byte	0,5,2
00000ef6 00000000*      7661 	.word	_R_FDL_UFct_EndCurrentOperation..C.3A.5C_ECU2.5CECU_Rivian_A1.5CTarget.5Crepo_projects.5CpRealEcu.5CcL_R2023.2E09.2E01.5Cmake.5Coutput.5Cobjects.5Cr_fdl_user_if.
00000efa 03             7662 	.byte	3
00000efb b308           7663 	.byte	179,8
00000efd 02             7664 	.byte	2
00000efe 00             7665 	.byte	0
00000eff 01             7666 	.byte	1
00000f00 06             7667 	.byte	6
00000f01 13             7668 	.byte	19
00000f02 000502         7669 	.byte	0,5,2
00000f05 00000000*      7670 	.word	.LDWlin140
00000f09 0b             7671 	.byte	11
00000f0a 000502         7672 	.byte	0,5,2
00000f0d 00000000*      7673 	.word	.LDWlin141
00000f11 0b             7674 	.byte	11
00000f12 0b             7675 	.byte	11

                                                                      Page 140
                                                              C:\Users\nhuliyap\AppData\Local\Temp\gh_0000d941.s
00000f13 23             7676 	.byte	35
00000f14 02             7677 	.byte	2
00000f15 00             7678 	.byte	0
00000f16 0b             7679 	.byte	11
00000f17 13             7680 	.byte	19
00000f18 1b             7681 	.byte	27
00000f19 13             7682 	.byte	19
00000f1a 02             7683 	.byte	2
00000f1b 02             7684 	.byte	2
00000f1c 000101         7685 	.byte	0,1,1
                        7686 	.section	.debug_info
                        7687 .LDW_4c76b88:
00001880 0f             7688 	.byte	15
00001881 7265745f656e   7689 	.strz	"ret_enu"
00001887 7500 
00001889 b308           7690 	.byte	179,8
0000188b 42             7691 	.byte	66
0000188c 01             7692 	.byte	1
0000188d 00000000*      7693 	.word	.LDW_4979c60
00001891 00             7694 	.byte	0
00001892 0156           7695 	.byte	1,86
                        7696 
                        7697 .LDW_4e17c30:
00001894 1d             7698 	.byte	29
00001895 00000000*      7699 	.word	.LDW23
00001899 00000000*      7700 	.word	.LDW33
                        7701 
0000189d 00             7702 	.byte	0
                        7703 
0000189e 00             7704 	.byte	0
                        7705 
                        7706 .LDW_4e50830:
0000189f 14             7707 	.byte	20
000018a0 525f46444c5f   7708 	.strz	"R_FDL_UFct_StateNotStandBy"
000018a6 554663745f53 
000018ac 746174654e6f 
000018b2 745374616e64 
000018b8 427900 
000018bb c308           7709 	.byte	195,8
000018bd 1b             7710 	.byte	27
000018be 01             7711 	.byte	1
000018bf 00000000*      7712 	.word	.LDW_4c74e48
000018c3 00000000*      7713 	.word	_R_FDL_UFct_StateNotStandBy..C.3A.5C_ECU2.5CECU_Rivian_A1.5CTarget.5Crepo_projects.5CpRealEcu.5CcL_R2023.2E09.2E01.5Cmake.5Coutput.5Cobjects.5Cr_fdl_user_if.
000018c7 00000000*      7714 	.word	___ghs_eofn_R_FDL_UFct_StateNotStandBy
000018cb 0153           7715 	.byte	1,83
000018cd 02             7716 	.byte	2
000018ce 00             7717 	.byte	0
000018cf 02             7718 	.byte	2
000018d0 00             7719 	.byte	0
000018d1 00             7720 	.byte	0
000018d2 00             7721 	.byte	0
000018d3 00             7722 	.byte	0
000018d4 00             7723 	.byte	0
000018d5 01             7724 	.byte	1
000018d6 00             7725 	.byte	0
000018d7 01             7726 	.byte	1
                        7727 
                        7728 	.section	.debug_frame
                        7729 .LDW_4e9c628:
000002e4 00000000*      7730 	.word	.LDW_unq_28-.LDW_unq_27
                        7731 .LDW_unq_27:

                                                                      Page 141
                                                              C:\Users\nhuliyap\AppData\Local\Temp\gh_0000d941.s
000002e8 00000000*      7732 	.word	.LDW_4e24e40
000002ec 00000000*      7733 	.word	_R_FDL_UFct_StateNotStandBy..C.3A.5C_ECU2.5CECU_Rivian_A1.5CTarget.5Crepo_projects.5CpRealEcu.5CcL_R2023.2E09.2E01.5Cmake.5Coutput.5Cobjects.5Cr_fdl_user_if.
000002f0 00000000*      7734 	.word	___ghs_eofn_R_FDL_UFct_StateNotStandBy-_R_FDL_UFct_StateNotStandBy..C.3A.5C_ECU2.5CECU_Rivian_A1.5CTarget.5Crepo_projects.5CpRealEcu.5CcL_R2023.2E09.2E01.5Cmake.5Coutput.5Cobjects.5Cr_fdl_user_if.
000002f4 01             7735 	.byte	1
000002f5 00000000*      7736 	.word	.LDW13
000002f9 00             7737 	.byte	0
000002fa 00             7738 	.byte	0
000002fb 00             7739 	.byte	0
                        7740 .LDW_unq_28:
                        7741 	.section	.debug_line
00000f1f 000502         7742 	.byte	0,5,2
00000f22 00000000*      7743 	.word	_R_FDL_UFct_StateNotStandBy..C.3A.5C_ECU2.5CECU_Rivian_A1.5CTarget.5Crepo_projects.5CpRealEcu.5CcL_R2023.2E09.2E01.5Cmake.5Coutput.5Cobjects.5Cr_fdl_user_if.
00000f26 06             7744 	.byte	6
00000f27 03             7745 	.byte	3
00000f28 c508           7746 	.byte	197,8
00000f2a 02             7747 	.byte	2
00000f2b 00             7748 	.byte	0
00000f2c 01             7749 	.byte	1
00000f2d 000502         7750 	.byte	0,5,2
00000f30 00000000*      7751 	.word	.LDWlin139
00000f34 03             7752 	.byte	3
00000f35 06             7753 	.byte	6
00000f36 02             7754 	.byte	2
00000f37 00             7755 	.byte	0
00000f38 01             7756 	.byte	1
00000f39 0b             7757 	.byte	11
00000f3a 0c             7758 	.byte	12
00000f3b 02             7759 	.byte	2
00000f3c 00             7760 	.byte	0
00000f3d 0c             7761 	.byte	12
00000f3e 02             7762 	.byte	2
00000f3f 02             7763 	.byte	2
00000f40 000101         7764 	.byte	0,1,1
                        7765 	.section	.debug_info
                        7766 .LDW_4e17c60:
000018d8 1d             7767 	.byte	29
000018d9 00000000*      7768 	.word	.LDW03
000018dd 00000000*      7769 	.word	.LDW13
                        7770 
                        7771 .LDW_4c76870:
000018e1 04             7772 	.byte	4
000018e2 72657400       7773 	.strz	"ret"
000018e6 c408           7774 	.byte	196,8
000018e8 12             7775 	.byte	18
000018e9 01             7776 	.byte	1
000018ea 00000000*      7777 	.word	.LDW_4c74e48
000018ee 00             7778 	.byte	0
000018ef 00             7779 	.byte	0
000018f0 015a           7780 	.byte	1,90
                        7781 
000018f2 00             7782 	.byte	0
                        7783 
000018f3 00             7784 	.byte	0
                        7785 
000018f4 00             7786 	.byte	0
                        7787 
                        7788 	.section	.debug_line
                        7789 .Ldw_line_end:
                        7790 	.section	.debug_macinfo
00000000 01             7791 	.byte	1
00000001 00             7792 	.byte	0

                                                                      Page 142
                                                              C:\Users\nhuliyap\AppData\Local\Temp\gh_0000d941.s
00000002 5f5f4748535f   7793 	.strz	"__GHS_VERSION_NUMBER 201517"
00000008 56455253494f 
0000000e 4e5f4e554d42 
00000014 455220323031 
0000001a 35313700 
0000001e 01             7794 	.byte	1
0000001f 00             7795 	.byte	0
00000020 5f5f6768735f   7796 	.strz	"__ghs__ 1"
00000026 5f203100 
0000002a 01             7797 	.byte	1
0000002b 00             7798 	.byte	0
0000002c 5f5f56383030   7799 	.strz	"__V800_registermode 32"
00000032 5f7265676973 
00000038 7465726d6f64 
0000003e 6520333200 
00000043 01             7800 	.byte	1
00000044 00             7801 	.byte	0
00000045 5f5f4c4c4f4e   7802 	.strz	"__LLONG_BIT 64"
0000004b 475f42495420 
00000051 363400 
00000054 03             7803 	.byte	3
00000055 00             7804 	.byte	0
00000056 01             7805 	.byte	1
00000057 01             7806 	.byte	1
00000058 09             7807 	.byte	9
00000059 525f46444c5f   7808 	.strz	"R_FDL_USERIF_C "
0000005f 555345524946 
00000065 5f432000 
00000069 03             7809 	.byte	3
0000006a 0b             7810 	.byte	11
0000006b 02             7811 	.byte	2
0000006c 03             7812 	.byte	3
0000006d 0c             7813 	.byte	12
0000006e 03             7814 	.byte	3
0000006f 01             7815 	.byte	1
00000070 0a             7816 	.byte	10
00000071 525f54595045   7817 	.strz	"R_TYPEDEFS_H "
00000077 444546535f48 
0000007d 2000 
0000007f 03             7818 	.byte	3
00000080 0c             7819 	.byte	12
00000081 04             7820 	.byte	4
00000082 03             7821 	.byte	3
00000083 07             7822 	.byte	7
00000084 05             7823 	.byte	5
00000085 01             7824 	.byte	1
00000086 02             7825 	.byte	2
00000087 5354445f5459   7826 	.strz	"STD_TYPES_H "
0000008d 5045535f4820 
00000093 00 
00000094 03             7827 	.byte	3
00000095 1c             7828 	.byte	28
00000096 06             7829 	.byte	6
00000097 04             7830 	.byte	4
00000098 03             7831 	.byte	3
00000099 1d             7832 	.byte	29
0000009a 07             7833 	.byte	7
0000009b 03             7834 	.byte	3
0000009c 1b             7835 	.byte	27
0000009d 08             7836 	.byte	8
0000009e 03             7837 	.byte	3

                                                                      Page 143
                                                              C:\Users\nhuliyap\AppData\Local\Temp\gh_0000d941.s
0000009f 54             7838 	.byte	84
000000a0 09             7839 	.byte	9
000000a1 01             7840 	.byte	1
000000a2 32             7841 	.byte	50
000000a3 4f535f434f4e   7842 	.strz	"OS_CONST "
000000a9 53542000 
000000ad 01             7843 	.byte	1
000000ae 35             7844 	.byte	53
000000af 4f535f415050   7845 	.strz	"OS_APPL_CODE "
000000b5 4c5f434f4445 
000000bb 2000 
000000bd 04             7846 	.byte	4
000000be 04             7847 	.byte	4
000000bf 01             7848 	.byte	1
000000c0 33             7849 	.byte	51
000000c1 4c4f43414c5f   7850 	.strz	"LOCAL_INLINE static inline"
000000c7 494e4c494e45 
000000cd 207374617469 
000000d3 6320696e6c69 
000000d9 6e6500 
000000dc 01             7851 	.byte	1
000000dd 34             7852 	.byte	52
000000de 46554e432872   7853 	.strz	"FUNC(rettype,memclass) rettype"
000000e4 657474797065 
000000ea 2c6d656d636c 
000000f0 617373292072 
000000f6 657474797065 
000000fc 00 
000000fd 01             7854 	.byte	1
000000fe 37             7855 	.byte	55
000000ff 503256415228   7856 	.strz	"P2VAR(ptrtype,memclass,ptrclass) ptrtype*"
00000105 707472747970 
0000010b 652c6d656d63 
00000111 6c6173732c70 
00000117 7472636c6173 
0000011d 732920707472 
00000123 747970652a00 
00000129 01             7857 	.byte	1
0000012a 38             7858 	.byte	56
0000012b 5032434f4e53   7859 	.strz	"P2CONST(ptrtype,memclass,ptrclass) const ptrtype*"
00000131 542870747274 
00000137 7970652c6d65 
0000013d 6d636c617373 
00000143 2c707472636c 
00000149 617373292063 
0000014f 6f6e73742070 
00000155 747274797065 
0000015b 2a00 
0000015d 01             7860 	.byte	1
0000015e 39             7861 	.byte	57
0000015f 434f4e535450   7862 	.strz	"CONSTP2VAR(ptrtype,memclass,ptrclass) ptrtype *const"
00000165 325641522870 
0000016b 747274797065 
00000171 2c6d656d636c 
00000177 6173732c7074 
0000017d 72636c617373 
00000183 292070747274 
00000189 797065202a63 
0000018f 6f6e737400 
00000194 01             7863 	.byte	1
00000195 3a             7864 	.byte	58

                                                                      Page 144
                                                              C:\Users\nhuliyap\AppData\Local\Temp\gh_0000d941.s
00000196 434f4e535450   7865 	.strz	"CONSTP2CONST(ptrtype,memclass,ptrclass) const ptrtype *const"
0000019c 32434f4e5354 
000001a2 287074727479 
000001a8 70652c6d656d 
000001ae 636c6173732c 
000001b4 707472636c61 
000001ba 73732920636f 
000001c0 6e7374207074 
000001c6 727479706520 
000001cc 2a636f6e7374 
000001d2 00 
000001d3 01             7866 	.byte	1
000001d4 3b             7867 	.byte	59
000001d5 503246554e43   7868 	.strz	"P2FUNC(rettype,ptrclass,fctname) rettype (*fctname)"
000001db 287265747479 
000001e1 70652c707472 
000001e7 636c6173732c 
000001ed 6663746e616d 
000001f3 652920726574 
000001f9 747970652028 
000001ff 2a6663746e61 
00000205 6d652900 
00000209 01             7869 	.byte	1
0000020a 3d             7870 	.byte	61
0000020b 434f4e535428   7871 	.strz	"CONST(type,memclass) const type"
00000211 747970652c6d 
00000217 656d636c6173 
0000021d 732920636f6e 
00000223 737420747970 
00000229 6500 
0000022b 01             7872 	.byte	1
0000022c 3e             7873 	.byte	62
0000022d 564152287661   7874 	.strz	"VAR(vartype,memclass) vartype"
00000233 72747970652c 
00000239 6d656d636c61 
0000023f 737329207661 
00000245 727479706500 
0000024b 04             7875 	.byte	4
0000024c 01             7876 	.byte	1
0000024d 3c             7877 	.byte	60
0000024e 5354445f4f4e   7878 	.strz	"STD_ON 1u"
00000254 20317500 
00000258 01             7879 	.byte	1
00000259 3d             7880 	.byte	61
0000025a 5354445f4f46   7881 	.strz	"STD_OFF 0u"
00000260 4620307500 
00000265 01             7882 	.byte	1
00000266 4a             7883 	.byte	74
00000267 535441545553   7884 	.strz	"STATUSTYPEDEFINED "
0000026d 545950454445 
00000273 46494e454420 
00000279 00 
0000027a 04             7885 	.byte	4
0000027b 04             7886 	.byte	4
0000027c 04             7887 	.byte	4
0000027d 03             7888 	.byte	3
0000027e 0d             7889 	.byte	13
0000027f 0a             7890 	.byte	10
00000280 01             7891 	.byte	1
00000281 0c             7892 	.byte	12
00000282 525f46444c5f   7893 	.strz	"R_FDL_COMP_GHS 1"

                                                                      Page 145
                                                              C:\Users\nhuliyap\AppData\Local\Temp\gh_0000d941.s
00000288 434f4d505f47 
0000028e 4853203100 
00000293 01             7894 	.byte	1
00000294 17             7895 	.byte	23
00000295 525f46444c5f   7896 	.strz	"R_FDL_COMPILER R_FDL_COMP_GHS"
0000029b 434f4d50494c 
000002a1 455220525f46 
000002a7 444c5f434f4d 
000002ad 505f47485300 
000002b3 03             7897 	.byte	3
000002b4 1a             7898 	.byte	26
000002b5 0b             7899 	.byte	11
000002b6 03             7900 	.byte	3
000002b7 23             7901 	.byte	35
000002b8 0c             7902 	.byte	12
000002b9 01             7903 	.byte	1
000002ba 06             7904 	.byte	6
000002bb 464c535f4152   7905 	.strz	"FLS_AR_FOUR_ZERO_THREE 403"
000002c1 5f464f55525f 
000002c7 5a45524f5f54 
000002cd 485245452034 
000002d3 303300 
000002d6 01             7906 	.byte	1
000002d7 07             7907 	.byte	7
000002d8 464c535f4152   7908 	.strz	"FLS_AR_THREE_TWO_TWO 322"
000002de 5f5448524545 
000002e4 5f54574f5f54 
000002ea 574f20333232 
000002f0 00 
000002f1 01             7909 	.byte	1
000002f2 09             7910 	.byte	9
000002f3 464c535f4152   7911 	.strz	"FLS_AR_HIGHER_VERSION FLS_AR_FOUR_ZERO_THREE"
000002f9 5f4849474845 
000002ff 525f56455253 
00000305 494f4e20464c 
0000030b 535f41525f46 
00000311 4f55525f5a45 
00000317 524f5f544852 
0000031d 454500 
00000320 01             7912 	.byte	1
00000321 0a             7913 	.byte	10
00000322 464c535f4152   7914 	.strz	"FLS_AR_LOWER_VERSION FLS_AR_THREE_TWO_TWO"
00000328 5f4c4f574552 
0000032e 5f5645525349 
00000334 4f4e20464c53 
0000033a 5f41525f5448 
00000340 5245455f5457 
00000346 4f5f54574f00 
0000034c 03             7915 	.byte	3
0000034d 0e             7916 	.byte	14
0000034e 0d             7917 	.byte	13
0000034f 03             7918 	.byte	3
00000350 1b             7919 	.byte	27
00000351 0e             7920 	.byte	14
00000352 04             7921 	.byte	4
00000353 01             7922 	.byte	1
00000354 2d             7923 	.byte	45
00000355 464c535f4152   7924 	.strz	"FLS_AR_VERSION FLS_AR_LOWER_VERSION"
0000035b 5f5645525349 
00000361 4f4e20464c53 
00000367 5f41525f4c4f 

                                                                      Page 146
                                                              C:\Users\nhuliyap\AppData\Local\Temp\gh_0000d941.s
0000036d 5745525f5645 
00000373 5253494f4e00 
00000379 01             7925 	.byte	1
0000037a 2e             7926 	.byte	46
0000037b 464c535f464c   7927 	.strz	"FLS_FLASH_ACCESS FLS_DATAFLASH_ACCESS"
00000381 4153485f4143 
00000387 434553532046 
0000038d 4c535f444154 
00000393 41464c415348 
00000399 5f4143434553 
0000039f 5300 
000003a1 01             7928 	.byte	1
000003a2 2f             7929 	.byte	47
000003a3 464c535f4445   7930 	.strz	"FLS_DEV_ERROR_DETECT STD_OFF"
000003a9 565f4552524f 
000003af 525f44455445 
000003b5 435420535444 
000003bb 5f4f464600 
000003c0 01             7931 	.byte	1
000003c1 30             7932 	.byte	48
000003c2 464c535f5645   7933 	.strz	"FLS_VERSION_INFO_API STD_OFF"
000003c8 5253494f4e5f 
000003ce 494e464f5f41 
000003d4 504920535444 
000003da 5f4f464600 
000003df 01             7934 	.byte	1
000003e0 31             7935 	.byte	49
000003e1 464c535f4341   7936 	.strz	"FLS_CANCEL_API STD_ON"
000003e7 4e43454c5f41 
000003ed 504920535444 
000003f3 5f4f4e00 
000003f7 01             7937 	.byte	1
000003f8 32             7938 	.byte	50
000003f9 464c535f434f   7939 	.strz	"FLS_COMPARE_API STD_ON"
000003ff 4d504152455f 
00000405 415049205354 
0000040b 445f4f4e00 
00000410 01             7940 	.byte	1
00000411 33             7941 	.byte	51
00000412 464c535f5345   7942 	.strz	"FLS_SET_MODE_API STD_OFF"
00000418 545f4d4f4445 
0000041e 5f4150492053 
00000424 54445f4f4646 
0000042a 00 
0000042b 01             7943 	.byte	1
0000042c 34             7944 	.byte	52
0000042d 464c535f4745   7945 	.strz	"FLS_GET_STATUS_API STD_ON"
00000433 545f53544154 
00000439 55535f415049 
0000043f 205354445f4f 
00000445 4e00 
00000447 01             7946 	.byte	1
00000448 35             7947 	.byte	53
00000449 464c535f4745   7948 	.strz	"FLS_GET_JOB_RESULT_API STD_ON"
0000044f 545f4a4f425f 
00000455 524553554c54 
0000045b 5f4150492053 
00000461 54445f4f4e00 
00000467 01             7949 	.byte	1
00000468 37             7950 	.byte	55
00000469 464c535f4352   7951 	.strz	"FLS_CRITICAL_SECTION_PROTECTION STD_ON"

                                                                      Page 147
                                                              C:\Users\nhuliyap\AppData\Local\Temp\gh_0000d941.s
0000046f 49544943414c 
00000475 5f5345435449 
0000047b 4f4e5f50524f 
00000481 54454354494f 
00000487 4e205354445f 
0000048d 4f4e00 
00000490 01             7952 	.byte	1
00000491 3b             7953 	.byte	59
00000492 464c535f5449   7954 	.strz	"FLS_TIMEOUT_MONITORING STD_OFF"
00000498 4d454f55545f 
0000049e 4d4f4e49544f 
000004a4 52494e472053 
000004aa 54445f4f4646 
000004b0 00 
000004b1 01             7955 	.byte	1
000004b2 3c             7956 	.byte	60
000004b3 464c535f424c   7957 	.strz	"FLS_BLANKCHECK_API STD_ON"
000004b9 414e4b434845 
000004bf 434b5f415049 
000004c5 205354445f4f 
000004cb 4e00 
000004cd 01             7958 	.byte	1
000004ce 3d             7959 	.byte	61
000004cf 464c535f5245   7960 	.strz	"FLS_READIMMEDIATE_API STD_OFF"
000004d5 4144494d4d45 
000004db 44494154455f 
000004e1 415049205354 
000004e7 445f4f464600 
000004ed 01             7961 	.byte	1
000004ee 3e             7962 	.byte	62
000004ef 464c535f494e   7963 	.strz	"FLS_INTERRUPT_MODE STD_OFF"
000004f5 544552525550 
000004fb 545f4d4f4445 
00000501 205354445f4f 
00000507 464600 
0000050a 01             7964 	.byte	1
0000050b 40             7965 	.byte	64
0000050c 464c535f5355   7966 	.strz	"FLS_SUSPEND_API STD_OFF"
00000512 5350454e445f 
00000518 415049205354 
0000051e 445f4f464600 
00000524 01             7967 	.byte	1
00000525 41             7968 	.byte	65
00000526 464c535f5245   7969 	.strz	"FLS_RESUME_API STD_OFF"
0000052c 53554d455f41 
00000532 504920535444 
00000538 5f4f464600 
0000053d 01             7970 	.byte	1
0000053e 49             7971 	.byte	73
0000053f 464c535f4648   7972 	.strz	"FLS_FHVE_REGS NOT_SUPPORTED"
00000545 56455f524547 
0000054b 53204e4f545f 
00000551 535550504f52 
00000557 54454400 
0000055b 01             7973 	.byte	1
0000055c 4a             7974 	.byte	74
0000055d 464c535f464c   7975 	.strz	"FLS_FLMD_REGS SUPPORTED"
00000563 4d445f524547 
00000569 532053555050 
0000056f 4f5254454400 
00000575 04             7976 	.byte	4

                                                                      Page 148
                                                              C:\Users\nhuliyap\AppData\Local\Temp\gh_0000d941.s
00000576 03             7977 	.byte	3
00000577 10             7978 	.byte	16
00000578 0f             7979 	.byte	15
00000579 03             7980 	.byte	3
0000057a 08             7981 	.byte	8
0000057b 10             7982 	.byte	16
0000057c 01             7983 	.byte	1
0000057d 2a             7984 	.byte	42
0000057e 535550504f52   7985 	.strz	"SUPPORTED 0"
00000584 544544203000 
0000058a 01             7986 	.byte	1
0000058b 2b             7987 	.byte	43
0000058c 4e4f545f5355   7988 	.strz	"NOT_SUPPORTED 1"
00000592 50504f525445 
00000598 44203100 
0000059c 01             7989 	.byte	1
0000059d 40             7990 	.byte	64
0000059e 464c535f4441   7991 	.strz	"FLS_DATAFLASH_ACCESS 0"
000005a4 5441464c4153 
000005aa 485f41434345 
000005b0 5353203000 
000005b5 01             7992 	.byte	1
000005b6 41             7993 	.byte	65
000005b7 464c535f434f   7994 	.strz	"FLS_CODEFLASH_ACCESS 1"
000005bd 4445464c4153 
000005c3 485f41434345 
000005c9 5353203100 
000005ce 01             7995 	.byte	1
000005cf 42             7996 	.byte	66
000005d0 464c535f4346   7997 	.strz	"FLS_CFDF_ACCESS 2"
000005d6 44465f414343 
000005dc 455353203200 
000005e2 01             7998 	.byte	1
000005e3 6b             7999 	.byte	107
000005e4 464c535f5354   8000 	.strz	"FLS_START_SEC_BUFFER_CODE "
000005ea 4152545f5345 
000005f0 435f42554646 
000005f6 45525f434f44 
000005fc 452000 
000005ff 03             8001 	.byte	3
00000600 6c             8002 	.byte	108
00000601 11             8003 	.byte	17
00000602 01             8004 	.byte	1
00000603 02             8005 	.byte	2
00000604 4d454d4d4150   8006 	.strz	"MEMMAP_VENDOR_ID (30u)"
0000060a 5f56454e444f 
00000610 525f49442028 
00000616 3330752900 
0000061b 01             8007 	.byte	1
0000061c 08             8008 	.byte	8
0000061d 4d454d4d4150   8009 	.strz	"MEMMAP_AR_RELEASE_MAJOR_VERSION (4u)"
00000623 5f41525f5245 
00000629 4c454153455f 
0000062f 4d414a4f525f 
00000635 56455253494f 
0000063b 4e2028347529 
00000641 00 
00000642 01             8010 	.byte	1
00000643 09             8011 	.byte	9
00000644 4d454d4d4150   8012 	.strz	"MEMMAP_AR_RELEASE_MINOR_VERSION (0u)"
0000064a 5f41525f5245 

                                                                      Page 149
                                                              C:\Users\nhuliyap\AppData\Local\Temp\gh_0000d941.s
00000650 4c454153455f 
00000656 4d494e4f525f 
0000065c 56455253494f 
00000662 4e2028307529 
00000668 00 
00000669 01             8013 	.byte	1
0000066a 0a             8014 	.byte	10
0000066b 4d454d4d4150   8015 	.strz	"MEMMAP_AR_RELEASE_REVISION_VERSION (3u)"
00000671 5f41525f5245 
00000677 4c454153455f 
0000067d 524556495349 
00000683 4f4e5f564552 
00000689 53494f4e2028 
0000068f 33752900 
00000693 01             8016 	.byte	1
00000694 10             8017 	.byte	16
00000695 4d454d5f4152   8018 	.strz	"MEM_AR_RELEASE_MAJOR_VERSION MEMMAP_AR_RELEASE_MAJOR_VERSION"
0000069b 5f52454c4541 
000006a1 53455f4d414a 
000006a7 4f525f564552 
000006ad 53494f4e204d 
000006b3 454d4d41505f 
000006b9 41525f52454c 
000006bf 454153455f4d 
000006c5 414a4f525f56 
000006cb 455253494f4e 
000006d1 00 
000006d2 01             8019 	.byte	1
000006d3 11             8020 	.byte	17
000006d4 4d454d5f4152   8021 	.strz	"MEM_AR_RELEASE_MINOR_VERSION MEMMAP_AR_RELEASE_MINOR_VERSION"
000006da 5f52454c4541 
000006e0 53455f4d494e 
000006e6 4f525f564552 
000006ec 53494f4e204d 
000006f2 454d4d41505f 
000006f8 41525f52454c 
000006fe 454153455f4d 
00000704 494e4f525f56 
0000070a 455253494f4e 
00000710 00 
00000711 01             8022 	.byte	1
00000712 12             8023 	.byte	18
00000713 4d454d5f4152   8024 	.strz	"MEM_AR_RELEASE_PATCH_VERSION MEMMAP_AR_RELEASE_REVISION_VERSION"
00000719 5f52454c4541 
0000071f 53455f504154 
00000725 43485f564552 
0000072b 53494f4e204d 
00000731 454d4d41505f 
00000737 41525f52454c 
0000073d 454153455f52 
00000743 45564953494f 
00000749 4e5f56455253 
0000074f 494f4e00 
00000753 01             8025 	.byte	1
00000754 18             8026 	.byte	24
00000755 4d454d4d4150   8027 	.strz	"MEMMAP_SW_MAJOR_VERSION (1u)"
0000075b 5f53575f4d41 
00000761 4a4f525f5645 
00000767 5253494f4e20 
0000076d 2831752900 
00000772 01             8028 	.byte	1

                                                                      Page 150
                                                              C:\Users\nhuliyap\AppData\Local\Temp\gh_0000d941.s
00000773 19             8029 	.byte	25
00000774 4d454d4d4150   8030 	.strz	"MEMMAP_SW_MINOR_VERSION (11u)"
0000077a 5f53575f4d49 
00000780 4e4f525f5645 
00000786 5253494f4e20 
0000078c 283131752900 
00000792 01             8031 	.byte	1
00000793 1a             8032 	.byte	26
00000794 4d454d4d4150   8033 	.strz	"MEMMAP_SW_PATCH_VERSION (0u)"
0000079a 5f53575f5041 
000007a0 5443485f5645 
000007a6 5253494f4e20 
000007ac 2830752900 
000007b1 01             8034 	.byte	1
000007b2 20             8035 	.byte	32
000007b3 4d454d5f5357   8036 	.strz	"MEM_SW_MAJOR_VERSION MEMMAP_SW_MAJOR_VERSION"
000007b9 5f4d414a4f52 
000007bf 5f5645525349 
000007c5 4f4e204d454d 
000007cb 4d41505f5357 
000007d1 5f4d414a4f52 
000007d7 5f5645525349 
000007dd 4f4e00 
000007e0 01             8037 	.byte	1
000007e1 21             8038 	.byte	33
000007e2 4d454d5f5357   8039 	.strz	"MEM_SW_MINOR_VERSION MEMMAP_SW_MINOR_VERSION"
000007e8 5f4d494e4f52 
000007ee 5f5645525349 
000007f4 4f4e204d454d 
000007fa 4d41505f5357 
00000800 5f4d494e4f52 
00000806 5f5645525349 
0000080c 4f4e00 
0000080f 01             8040 	.byte	1
00000810 22             8041 	.byte	34
00000811 4d454d5f5357   8042 	.strz	"MEM_SW_PATCH_VERSION MEMMAP_SW_PATCH_VERSION"
00000817 5f5041544348 
0000081d 5f5645525349 
00000823 4f4e204d454d 
00000829 4d41505f5357 
0000082f 5f5041544348 
00000835 5f5645525349 
0000083b 4f4e00 
0000083e 01             8043 	.byte	1
0000083f 24             8044 	.byte	36
00000840 4d454d4d4150   8045 	.strz	"MEMMAP_ERROR "
00000846 5f4552524f52 
0000084c 2000 
0000084e 01             8046 	.byte	1
0000084f 9502           8047 	.byte	149,2
00000851 53544152545f   8048 	.strz	"START_SEC_CODE "
00000857 5345435f434f 
0000085d 44452000 
00000861 03             8049 	.byte	3
00000862 f403           8050 	.byte	244,3
00000864 12             8051 	.byte	18
00000865 01             8052 	.byte	1
00000866 f407           8053 	.byte	244,7
00000868 434f44455f53   8054 	.strz	"CODE_SEC_OPEN "
0000086e 45435f4f5045 
00000874 4e2000 

                                                                      Page 151
                                                              C:\Users\nhuliyap\AppData\Local\Temp\gh_0000d941.s
00000877 04             8055 	.byte	4
00000878 04             8056 	.byte	4
00000879 01             8057 	.byte	1
0000087a 70             8058 	.byte	112
0000087b 464c535f5354   8059 	.strz	"FLS_STOP_SEC_BUFFER_CODE "
00000881 4f505f534543 
00000887 5f4255464645 
0000088d 525f434f4445 
00000893 2000 
00000895 03             8060 	.byte	3
00000896 71             8061 	.byte	113
00000897 11             8062 	.byte	17
00000898 01             8063 	.byte	1
00000899 02             8064 	.byte	2
0000089a 4d454d4d4150   8065 	.strz	"MEMMAP_VENDOR_ID (30u)"
000008a0 5f56454e444f 
000008a6 525f49442028 
000008ac 3330752900 
000008b1 01             8066 	.byte	1
000008b2 08             8067 	.byte	8
000008b3 4d454d4d4150   8068 	.strz	"MEMMAP_AR_RELEASE_MAJOR_VERSION (4u)"
000008b9 5f41525f5245 
000008bf 4c454153455f 
000008c5 4d414a4f525f 
000008cb 56455253494f 
000008d1 4e2028347529 
000008d7 00 
000008d8 01             8069 	.byte	1
000008d9 09             8070 	.byte	9
000008da 4d454d4d4150   8071 	.strz	"MEMMAP_AR_RELEASE_MINOR_VERSION (0u)"
000008e0 5f41525f5245 
000008e6 4c454153455f 
000008ec 4d494e4f525f 
000008f2 56455253494f 
000008f8 4e2028307529 
000008fe 00 
000008ff 01             8072 	.byte	1
00000900 0a             8073 	.byte	10
00000901 4d454d4d4150   8074 	.strz	"MEMMAP_AR_RELEASE_REVISION_VERSION (3u)"
00000907 5f41525f5245 
0000090d 4c454153455f 
00000913 524556495349 
00000919 4f4e5f564552 
0000091f 53494f4e2028 
00000925 33752900 
00000929 01             8075 	.byte	1
0000092a 10             8076 	.byte	16
0000092b 4d454d5f4152   8077 	.strz	"MEM_AR_RELEASE_MAJOR_VERSION MEMMAP_AR_RELEASE_MAJOR_VERSION"
00000931 5f52454c4541 
00000937 53455f4d414a 
0000093d 4f525f564552 
00000943 53494f4e204d 
00000949 454d4d41505f 
0000094f 41525f52454c 
00000955 454153455f4d 
0000095b 414a4f525f56 
00000961 455253494f4e 
00000967 00 
00000968 01             8078 	.byte	1
00000969 11             8079 	.byte	17
0000096a 4d454d5f4152   8080 	.strz	"MEM_AR_RELEASE_MINOR_VERSION MEMMAP_AR_RELEASE_MINOR_VERSION"

                                                                      Page 152
                                                              C:\Users\nhuliyap\AppData\Local\Temp\gh_0000d941.s
00000970 5f52454c4541 
00000976 53455f4d494e 
0000097c 4f525f564552 
00000982 53494f4e204d 
00000988 454d4d41505f 
0000098e 41525f52454c 
00000994 454153455f4d 
0000099a 494e4f525f56 
000009a0 455253494f4e 
000009a6 00 
000009a7 01             8081 	.byte	1
000009a8 12             8082 	.byte	18
000009a9 4d454d5f4152   8083 	.strz	"MEM_AR_RELEASE_PATCH_VERSION MEMMAP_AR_RELEASE_REVISION_VERSION"
000009af 5f52454c4541 
000009b5 53455f504154 
000009bb 43485f564552 
000009c1 53494f4e204d 
000009c7 454d4d41505f 
000009cd 41525f52454c 
000009d3 454153455f52 
000009d9 45564953494f 
000009df 4e5f56455253 
000009e5 494f4e00 
000009e9 01             8084 	.byte	1
000009ea 18             8085 	.byte	24
000009eb 4d454d4d4150   8086 	.strz	"MEMMAP_SW_MAJOR_VERSION (1u)"
000009f1 5f53575f4d41 
000009f7 4a4f525f5645 
000009fd 5253494f4e20 
00000a03 2831752900 
00000a08 01             8087 	.byte	1
00000a09 19             8088 	.byte	25
00000a0a 4d454d4d4150   8089 	.strz	"MEMMAP_SW_MINOR_VERSION (11u)"
00000a10 5f53575f4d49 
00000a16 4e4f525f5645 
00000a1c 5253494f4e20 
00000a22 283131752900 
00000a28 01             8090 	.byte	1
00000a29 1a             8091 	.byte	26
00000a2a 4d454d4d4150   8092 	.strz	"MEMMAP_SW_PATCH_VERSION (0u)"
00000a30 5f53575f5041 
00000a36 5443485f5645 
00000a3c 5253494f4e20 
00000a42 2830752900 
00000a47 01             8093 	.byte	1
00000a48 20             8094 	.byte	32
00000a49 4d454d5f5357   8095 	.strz	"MEM_SW_MAJOR_VERSION MEMMAP_SW_MAJOR_VERSION"
00000a4f 5f4d414a4f52 
00000a55 5f5645525349 
00000a5b 4f4e204d454d 
00000a61 4d41505f5357 
00000a67 5f4d414a4f52 
00000a6d 5f5645525349 
00000a73 4f4e00 
00000a76 01             8096 	.byte	1
00000a77 21             8097 	.byte	33
00000a78 4d454d5f5357   8098 	.strz	"MEM_SW_MINOR_VERSION MEMMAP_SW_MINOR_VERSION"
00000a7e 5f4d494e4f52 
00000a84 5f5645525349 
00000a8a 4f4e204d454d 
00000a90 4d41505f5357 

                                                                      Page 153
                                                              C:\Users\nhuliyap\AppData\Local\Temp\gh_0000d941.s
00000a96 5f4d494e4f52 
00000a9c 5f5645525349 
00000aa2 4f4e00 
00000aa5 01             8099 	.byte	1
00000aa6 22             8100 	.byte	34
00000aa7 4d454d5f5357   8101 	.strz	"MEM_SW_PATCH_VERSION MEMMAP_SW_PATCH_VERSION"
00000aad 5f5041544348 
00000ab3 5f5645525349 
00000ab9 4f4e204d454d 
00000abf 4d41505f5357 
00000ac5 5f5041544348 
00000acb 5f5645525349 
00000ad1 4f4e00 
00000ad4 01             8102 	.byte	1
00000ad5 24             8103 	.byte	36
00000ad6 4d454d4d4150   8104 	.strz	"MEMMAP_ERROR "
00000adc 5f4552524f52 
00000ae2 2000 
00000ae4 01             8105 	.byte	1
00000ae5 9902           8106 	.byte	153,2
00000ae7 53544f505f53   8107 	.strz	"STOP_SEC_CODE "
00000aed 45435f434f44 
00000af3 452000 
00000af6 03             8108 	.byte	3
00000af7 f403           8109 	.byte	244,3
00000af9 12             8110 	.byte	18
00000afa 04             8111 	.byte	4
00000afb 04             8112 	.byte	4
00000afc 04             8113 	.byte	4
00000afd 03             8114 	.byte	3
00000afe 09             8115 	.byte	9
00000aff 03             8116 	.byte	3
00000b00 04             8117 	.byte	4
00000b01 03             8118 	.byte	3
00000b02 10             8119 	.byte	16
00000b03 13             8120 	.byte	19
00000b04 01             8121 	.byte	1
00000b05 0a             8122 	.byte	10
00000b06 525f46444c5f   8123 	.strz	"R_FDL_TYPES_H "
00000b0c 54595045535f 
00000b12 482000 
00000b15 04             8124 	.byte	4
00000b16 04             8125 	.byte	4
00000b17 03             8126 	.byte	3
00000b18 1d             8127 	.byte	29
00000b19 14             8128 	.byte	20
00000b1a 04             8129 	.byte	4
00000b1b 01             8130 	.byte	1
00000b1c 72             8131 	.byte	114
00000b1d 464c535f5354   8132 	.strz	"FLS_START_SEC_PUBLIC_CODE "
00000b23 4152545f5345 
00000b29 435f5055424c 
00000b2f 49435f434f44 
00000b35 452000 
00000b38 03             8133 	.byte	3
00000b39 73             8134 	.byte	115
00000b3a 11             8135 	.byte	17
00000b3b 01             8136 	.byte	1
00000b3c 02             8137 	.byte	2
00000b3d 4d454d4d4150   8138 	.strz	"MEMMAP_VENDOR_ID (30u)"
00000b43 5f56454e444f 

                                                                      Page 154
                                                              C:\Users\nhuliyap\AppData\Local\Temp\gh_0000d941.s
00000b49 525f49442028 
00000b4f 3330752900 
00000b54 01             8139 	.byte	1
00000b55 08             8140 	.byte	8
00000b56 4d454d4d4150   8141 	.strz	"MEMMAP_AR_RELEASE_MAJOR_VERSION (4u)"
00000b5c 5f41525f5245 
00000b62 4c454153455f 
00000b68 4d414a4f525f 
00000b6e 56455253494f 
00000b74 4e2028347529 
00000b7a 00 
00000b7b 01             8142 	.byte	1
00000b7c 09             8143 	.byte	9
00000b7d 4d454d4d4150   8144 	.strz	"MEMMAP_AR_RELEASE_MINOR_VERSION (0u)"
00000b83 5f41525f5245 
00000b89 4c454153455f 
00000b8f 4d494e4f525f 
00000b95 56455253494f 
00000b9b 4e2028307529 
00000ba1 00 
00000ba2 01             8145 	.byte	1
00000ba3 0a             8146 	.byte	10
00000ba4 4d454d4d4150   8147 	.strz	"MEMMAP_AR_RELEASE_REVISION_VERSION (3u)"
00000baa 5f41525f5245 
00000bb0 4c454153455f 
00000bb6 524556495349 
00000bbc 4f4e5f564552 
00000bc2 53494f4e2028 
00000bc8 33752900 
00000bcc 01             8148 	.byte	1
00000bcd 10             8149 	.byte	16
00000bce 4d454d5f4152   8150 	.strz	"MEM_AR_RELEASE_MAJOR_VERSION MEMMAP_AR_RELEASE_MAJOR_VERSION"
00000bd4 5f52454c4541 
00000bda 53455f4d414a 
00000be0 4f525f564552 
00000be6 53494f4e204d 
00000bec 454d4d41505f 
00000bf2 41525f52454c 
00000bf8 454153455f4d 
00000bfe 414a4f525f56 
00000c04 455253494f4e 
00000c0a 00 
00000c0b 01             8151 	.byte	1
00000c0c 11             8152 	.byte	17
00000c0d 4d454d5f4152   8153 	.strz	"MEM_AR_RELEASE_MINOR_VERSION MEMMAP_AR_RELEASE_MINOR_VERSION"
00000c13 5f52454c4541 
00000c19 53455f4d494e 
00000c1f 4f525f564552 
00000c25 53494f4e204d 
00000c2b 454d4d41505f 
00000c31 41525f52454c 
00000c37 454153455f4d 
00000c3d 494e4f525f56 
00000c43 455253494f4e 
00000c49 00 
00000c4a 01             8154 	.byte	1
00000c4b 12             8155 	.byte	18
00000c4c 4d454d5f4152   8156 	.strz	"MEM_AR_RELEASE_PATCH_VERSION MEMMAP_AR_RELEASE_REVISION_VERSION"
00000c52 5f52454c4541 
00000c58 53455f504154 
00000c5e 43485f564552 

                                                                      Page 155
                                                              C:\Users\nhuliyap\AppData\Local\Temp\gh_0000d941.s
00000c64 53494f4e204d 
00000c6a 454d4d41505f 
00000c70 41525f52454c 
00000c76 454153455f52 
00000c7c 45564953494f 
00000c82 4e5f56455253 
00000c88 494f4e00 
00000c8c 01             8157 	.byte	1
00000c8d 18             8158 	.byte	24
00000c8e 4d454d4d4150   8159 	.strz	"MEMMAP_SW_MAJOR_VERSION (1u)"
00000c94 5f53575f4d41 
00000c9a 4a4f525f5645 
00000ca0 5253494f4e20 
00000ca6 2831752900 
00000cab 01             8160 	.byte	1
00000cac 19             8161 	.byte	25
00000cad 4d454d4d4150   8162 	.strz	"MEMMAP_SW_MINOR_VERSION (11u)"
00000cb3 5f53575f4d49 
00000cb9 4e4f525f5645 
00000cbf 5253494f4e20 
00000cc5 283131752900 
00000ccb 01             8163 	.byte	1
00000ccc 1a             8164 	.byte	26
00000ccd 4d454d4d4150   8165 	.strz	"MEMMAP_SW_PATCH_VERSION (0u)"
00000cd3 5f53575f5041 
00000cd9 5443485f5645 
00000cdf 5253494f4e20 
00000ce5 2830752900 
00000cea 01             8166 	.byte	1
00000ceb 20             8167 	.byte	32
00000cec 4d454d5f5357   8168 	.strz	"MEM_SW_MAJOR_VERSION MEMMAP_SW_MAJOR_VERSION"
00000cf2 5f4d414a4f52 
00000cf8 5f5645525349 
00000cfe 4f4e204d454d 
00000d04 4d41505f5357 
00000d0a 5f4d414a4f52 
00000d10 5f5645525349 
00000d16 4f4e00 
00000d19 01             8169 	.byte	1
00000d1a 21             8170 	.byte	33
00000d1b 4d454d5f5357   8171 	.strz	"MEM_SW_MINOR_VERSION MEMMAP_SW_MINOR_VERSION"
00000d21 5f4d494e4f52 
00000d27 5f5645525349 
00000d2d 4f4e204d454d 
00000d33 4d41505f5357 
00000d39 5f4d494e4f52 
00000d3f 5f5645525349 
00000d45 4f4e00 
00000d48 01             8172 	.byte	1
00000d49 22             8173 	.byte	34
00000d4a 4d454d5f5357   8174 	.strz	"MEM_SW_PATCH_VERSION MEMMAP_SW_PATCH_VERSION"
00000d50 5f5041544348 
00000d56 5f5645525349 
00000d5c 4f4e204d454d 
00000d62 4d41505f5357 
00000d68 5f5041544348 
00000d6e 5f5645525349 
00000d74 4f4e00 
00000d77 01             8175 	.byte	1
00000d78 24             8176 	.byte	36
00000d79 4d454d4d4150   8177 	.strz	"MEMMAP_ERROR "

                                                                      Page 156
                                                              C:\Users\nhuliyap\AppData\Local\Temp\gh_0000d941.s
00000d7f 5f4552524f52 
00000d85 2000 
00000d87 01             8178 	.byte	1
00000d88 f101           8179 	.byte	241,1
00000d8a 53544152545f   8180 	.strz	"START_SEC_CODE "
00000d90 5345435f434f 
00000d96 44452000 
00000d9a 03             8181 	.byte	3
00000d9b f403           8182 	.byte	244,3
00000d9d 12             8183 	.byte	18
00000d9e 01             8184 	.byte	1
00000d9f f407           8185 	.byte	244,7
00000da1 434f44455f53   8186 	.strz	"CODE_SEC_OPEN "
00000da7 45435f4f5045 
00000dad 4e2000 
00000db0 04             8187 	.byte	4
00000db1 04             8188 	.byte	4
00000db2 01             8189 	.byte	1
00000db3 d001           8190 	.byte	208,1
00000db5 464c535f5354   8191 	.strz	"FLS_STOP_SEC_PUBLIC_CODE "
00000dbb 4f505f534543 
00000dc1 5f5055424c49 
00000dc7 435f434f4445 
00000dcd 2000 
00000dcf 03             8192 	.byte	3
00000dd0 d101           8193 	.byte	209,1
00000dd2 11             8194 	.byte	17
00000dd3 01             8195 	.byte	1
00000dd4 02             8196 	.byte	2
00000dd5 4d454d4d4150   8197 	.strz	"MEMMAP_VENDOR_ID (30u)"
00000ddb 5f56454e444f 
00000de1 525f49442028 
00000de7 3330752900 
00000dec 01             8198 	.byte	1
00000ded 08             8199 	.byte	8
00000dee 4d454d4d4150   8200 	.strz	"MEMMAP_AR_RELEASE_MAJOR_VERSION (4u)"
00000df4 5f41525f5245 
00000dfa 4c454153455f 
00000e00 4d414a4f525f 
00000e06 56455253494f 
00000e0c 4e2028347529 
00000e12 00 
00000e13 01             8201 	.byte	1
00000e14 09             8202 	.byte	9
00000e15 4d454d4d4150   8203 	.strz	"MEMMAP_AR_RELEASE_MINOR_VERSION (0u)"
00000e1b 5f41525f5245 
00000e21 4c454153455f 
00000e27 4d494e4f525f 
00000e2d 56455253494f 
00000e33 4e2028307529 
00000e39 00 
00000e3a 01             8204 	.byte	1
00000e3b 0a             8205 	.byte	10
00000e3c 4d454d4d4150   8206 	.strz	"MEMMAP_AR_RELEASE_REVISION_VERSION (3u)"
00000e42 5f41525f5245 
00000e48 4c454153455f 
00000e4e 524556495349 
00000e54 4f4e5f564552 
00000e5a 53494f4e2028 
00000e60 33752900 
00000e64 01             8207 	.byte	1

                                                                      Page 157
                                                              C:\Users\nhuliyap\AppData\Local\Temp\gh_0000d941.s
00000e65 10             8208 	.byte	16
00000e66 4d454d5f4152   8209 	.strz	"MEM_AR_RELEASE_MAJOR_VERSION MEMMAP_AR_RELEASE_MAJOR_VERSION"
00000e6c 5f52454c4541 
00000e72 53455f4d414a 
00000e78 4f525f564552 
00000e7e 53494f4e204d 
00000e84 454d4d41505f 
00000e8a 41525f52454c 
00000e90 454153455f4d 
00000e96 414a4f525f56 
00000e9c 455253494f4e 
00000ea2 00 
00000ea3 01             8210 	.byte	1
00000ea4 11             8211 	.byte	17
00000ea5 4d454d5f4152   8212 	.strz	"MEM_AR_RELEASE_MINOR_VERSION MEMMAP_AR_RELEASE_MINOR_VERSION"
00000eab 5f52454c4541 
00000eb1 53455f4d494e 
00000eb7 4f525f564552 
00000ebd 53494f4e204d 
00000ec3 454d4d41505f 
00000ec9 41525f52454c 
00000ecf 454153455f4d 
00000ed5 494e4f525f56 
00000edb 455253494f4e 
00000ee1 00 
00000ee2 01             8213 	.byte	1
00000ee3 12             8214 	.byte	18
00000ee4 4d454d5f4152   8215 	.strz	"MEM_AR_RELEASE_PATCH_VERSION MEMMAP_AR_RELEASE_REVISION_VERSION"
00000eea 5f52454c4541 
00000ef0 53455f504154 
00000ef6 43485f564552 
00000efc 53494f4e204d 
00000f02 454d4d41505f 
00000f08 41525f52454c 
00000f0e 454153455f52 
00000f14 45564953494f 
00000f1a 4e5f56455253 
00000f20 494f4e00 
00000f24 01             8216 	.byte	1
00000f25 18             8217 	.byte	24
00000f26 4d454d4d4150   8218 	.strz	"MEMMAP_SW_MAJOR_VERSION (1u)"
00000f2c 5f53575f4d41 
00000f32 4a4f525f5645 
00000f38 5253494f4e20 
00000f3e 2831752900 
00000f43 01             8219 	.byte	1
00000f44 19             8220 	.byte	25
00000f45 4d454d4d4150   8221 	.strz	"MEMMAP_SW_MINOR_VERSION (11u)"
00000f4b 5f53575f4d49 
00000f51 4e4f525f5645 
00000f57 5253494f4e20 
00000f5d 283131752900 
00000f63 01             8222 	.byte	1
00000f64 1a             8223 	.byte	26
00000f65 4d454d4d4150   8224 	.strz	"MEMMAP_SW_PATCH_VERSION (0u)"
00000f6b 5f53575f5041 
00000f71 5443485f5645 
00000f77 5253494f4e20 
00000f7d 2830752900 
00000f82 01             8225 	.byte	1
00000f83 20             8226 	.byte	32

                                                                      Page 158
                                                              C:\Users\nhuliyap\AppData\Local\Temp\gh_0000d941.s
00000f84 4d454d5f5357   8227 	.strz	"MEM_SW_MAJOR_VERSION MEMMAP_SW_MAJOR_VERSION"
00000f8a 5f4d414a4f52 
00000f90 5f5645525349 
00000f96 4f4e204d454d 
00000f9c 4d41505f5357 
00000fa2 5f4d414a4f52 
00000fa8 5f5645525349 
00000fae 4f4e00 
00000fb1 01             8228 	.byte	1
00000fb2 21             8229 	.byte	33
00000fb3 4d454d5f5357   8230 	.strz	"MEM_SW_MINOR_VERSION MEMMAP_SW_MINOR_VERSION"
00000fb9 5f4d494e4f52 
00000fbf 5f5645525349 
00000fc5 4f4e204d454d 
00000fcb 4d41505f5357 
00000fd1 5f4d494e4f52 
00000fd7 5f5645525349 
00000fdd 4f4e00 
00000fe0 01             8231 	.byte	1
00000fe1 22             8232 	.byte	34
00000fe2 4d454d5f5357   8233 	.strz	"MEM_SW_PATCH_VERSION MEMMAP_SW_PATCH_VERSION"
00000fe8 5f5041544348 
00000fee 5f5645525349 
00000ff4 4f4e204d454d 
00000ffa 4d41505f5357 
00001000 5f5041544348 
00001006 5f5645525349 
0000100c 4f4e00 
0000100f 01             8234 	.byte	1
00001010 24             8235 	.byte	36
00001011 4d454d4d4150   8236 	.strz	"MEMMAP_ERROR "
00001017 5f4552524f52 
0000101d 2000 
0000101f 01             8237 	.byte	1
00001020 f501           8238 	.byte	245,1
00001022 53544f505f53   8239 	.strz	"STOP_SEC_CODE "
00001028 45435f434f44 
0000102e 452000 
00001031 03             8240 	.byte	3
00001032 f403           8241 	.byte	244,3
00001034 12             8242 	.byte	18
00001035 04             8243 	.byte	4
00001036 04             8244 	.byte	4
00001037 01             8245 	.byte	1
00001038 d301           8246 	.byte	211,1
0000103a 464c535f5354   8247 	.strz	"FLS_START_SEC_DBTOC_DATA_UNSPECIFIED "
00001040 4152545f5345 
00001046 435f4442544f 
0000104c 435f44415441 
00001052 5f554e535045 
00001058 434946494544 
0000105e 2000 
00001060 03             8248 	.byte	3
00001061 d401           8249 	.byte	212,1
00001063 11             8250 	.byte	17
00001064 01             8251 	.byte	1
00001065 02             8252 	.byte	2
00001066 4d454d4d4150   8253 	.strz	"MEMMAP_VENDOR_ID (30u)"
0000106c 5f56454e444f 
00001072 525f49442028 
00001078 3330752900 

                                                                      Page 159
                                                              C:\Users\nhuliyap\AppData\Local\Temp\gh_0000d941.s
0000107d 01             8254 	.byte	1
0000107e 08             8255 	.byte	8
0000107f 4d454d4d4150   8256 	.strz	"MEMMAP_AR_RELEASE_MAJOR_VERSION (4u)"
00001085 5f41525f5245 
0000108b 4c454153455f 
00001091 4d414a4f525f 
00001097 56455253494f 
0000109d 4e2028347529 
000010a3 00 
000010a4 01             8257 	.byte	1
000010a5 09             8258 	.byte	9
000010a6 4d454d4d4150   8259 	.strz	"MEMMAP_AR_RELEASE_MINOR_VERSION (0u)"
000010ac 5f41525f5245 
000010b2 4c454153455f 
000010b8 4d494e4f525f 
000010be 56455253494f 
000010c4 4e2028307529 
000010ca 00 
000010cb 01             8260 	.byte	1
000010cc 0a             8261 	.byte	10
000010cd 4d454d4d4150   8262 	.strz	"MEMMAP_AR_RELEASE_REVISION_VERSION (3u)"
000010d3 5f41525f5245 
000010d9 4c454153455f 
000010df 524556495349 
000010e5 4f4e5f564552 
000010eb 53494f4e2028 
000010f1 33752900 
000010f5 01             8263 	.byte	1
000010f6 10             8264 	.byte	16
000010f7 4d454d5f4152   8265 	.strz	"MEM_AR_RELEASE_MAJOR_VERSION MEMMAP_AR_RELEASE_MAJOR_VERSION"
000010fd 5f52454c4541 
00001103 53455f4d414a 
00001109 4f525f564552 
0000110f 53494f4e204d 
00001115 454d4d41505f 
0000111b 41525f52454c 
00001121 454153455f4d 
00001127 414a4f525f56 
0000112d 455253494f4e 
00001133 00 
00001134 01             8266 	.byte	1
00001135 11             8267 	.byte	17
00001136 4d454d5f4152   8268 	.strz	"MEM_AR_RELEASE_MINOR_VERSION MEMMAP_AR_RELEASE_MINOR_VERSION"
0000113c 5f52454c4541 
00001142 53455f4d494e 
00001148 4f525f564552 
0000114e 53494f4e204d 
00001154 454d4d41505f 
0000115a 41525f52454c 
00001160 454153455f4d 
00001166 494e4f525f56 
0000116c 455253494f4e 
00001172 00 
00001173 01             8269 	.byte	1
00001174 12             8270 	.byte	18
00001175 4d454d5f4152   8271 	.strz	"MEM_AR_RELEASE_PATCH_VERSION MEMMAP_AR_RELEASE_REVISION_VERSION"
0000117b 5f52454c4541 
00001181 53455f504154 
00001187 43485f564552 
0000118d 53494f4e204d 
00001193 454d4d41505f 

                                                                      Page 160
                                                              C:\Users\nhuliyap\AppData\Local\Temp\gh_0000d941.s
00001199 41525f52454c 
0000119f 454153455f52 
000011a5 45564953494f 
000011ab 4e5f56455253 
000011b1 494f4e00 
000011b5 01             8272 	.byte	1
000011b6 18             8273 	.byte	24
000011b7 4d454d4d4150   8274 	.strz	"MEMMAP_SW_MAJOR_VERSION (1u)"
000011bd 5f53575f4d41 
000011c3 4a4f525f5645 
000011c9 5253494f4e20 
000011cf 2831752900 
000011d4 01             8275 	.byte	1
000011d5 19             8276 	.byte	25
000011d6 4d454d4d4150   8277 	.strz	"MEMMAP_SW_MINOR_VERSION (11u)"
000011dc 5f53575f4d49 
000011e2 4e4f525f5645 
000011e8 5253494f4e20 
000011ee 283131752900 
000011f4 01             8278 	.byte	1
000011f5 1a             8279 	.byte	26
000011f6 4d454d4d4150   8280 	.strz	"MEMMAP_SW_PATCH_VERSION (0u)"
000011fc 5f53575f5041 
00001202 5443485f5645 
00001208 5253494f4e20 
0000120e 2830752900 
00001213 01             8281 	.byte	1
00001214 20             8282 	.byte	32
00001215 4d454d5f5357   8283 	.strz	"MEM_SW_MAJOR_VERSION MEMMAP_SW_MAJOR_VERSION"
0000121b 5f4d414a4f52 
00001221 5f5645525349 
00001227 4f4e204d454d 
0000122d 4d41505f5357 
00001233 5f4d414a4f52 
00001239 5f5645525349 
0000123f 4f4e00 
00001242 01             8284 	.byte	1
00001243 21             8285 	.byte	33
00001244 4d454d5f5357   8286 	.strz	"MEM_SW_MINOR_VERSION MEMMAP_SW_MINOR_VERSION"
0000124a 5f4d494e4f52 
00001250 5f5645525349 
00001256 4f4e204d454d 
0000125c 4d41505f5357 
00001262 5f4d494e4f52 
00001268 5f5645525349 
0000126e 4f4e00 
00001271 01             8287 	.byte	1
00001272 22             8288 	.byte	34
00001273 4d454d5f5357   8289 	.strz	"MEM_SW_PATCH_VERSION MEMMAP_SW_PATCH_VERSION"
00001279 5f5041544348 
0000127f 5f5645525349 
00001285 4f4e204d454d 
0000128b 4d41505f5357 
00001291 5f5041544348 
00001297 5f5645525349 
0000129d 4f4e00 
000012a0 01             8290 	.byte	1
000012a1 24             8291 	.byte	36
000012a2 4d454d4d4150   8292 	.strz	"MEMMAP_ERROR "
000012a8 5f4552524f52 
000012ae 2000 

                                                                      Page 161
                                                              C:\Users\nhuliyap\AppData\Local\Temp\gh_0000d941.s
000012b0 01             8293 	.byte	1
000012b1 dd02           8294 	.byte	221,2
000012b3 53544152545f   8295 	.strz	"START_SEC_CONST_UNSPECIFIED "
000012b9 5345435f434f 
000012bf 4e53545f554e 
000012c5 535045434946 
000012cb 4945442000 
000012d0 03             8296 	.byte	3
000012d1 f403           8297 	.byte	244,3
000012d3 12             8298 	.byte	18
000012d4 01             8299 	.byte	1
000012d5 b508           8300 	.byte	181,8
000012d7 434f4e53545f   8301 	.strz	"CONST_SEC_OPEN "
000012dd 5345435f4f50 
000012e3 454e2000 
000012e7 04             8302 	.byte	4
000012e8 04             8303 	.byte	4
000012e9 01             8304 	.byte	1
000012ea d801           8305 	.byte	216,1
000012ec 464c535f5354   8306 	.strz	"FLS_STOP_SEC_DBTOC_DATA_UNSPECIFIED "
000012f2 4f505f534543 
000012f8 5f4442544f43 
000012fe 5f444154415f 
00001304 554e53504543 
0000130a 494649454420 
00001310 00 
00001311 03             8307 	.byte	3
00001312 d901           8308 	.byte	217,1
00001314 11             8309 	.byte	17
00001315 01             8310 	.byte	1
00001316 02             8311 	.byte	2
00001317 4d454d4d4150   8312 	.strz	"MEMMAP_VENDOR_ID (30u)"
0000131d 5f56454e444f 
00001323 525f49442028 
00001329 3330752900 
0000132e 01             8313 	.byte	1
0000132f 08             8314 	.byte	8
00001330 4d454d4d4150   8315 	.strz	"MEMMAP_AR_RELEASE_MAJOR_VERSION (4u)"
00001336 5f41525f5245 
0000133c 4c454153455f 
00001342 4d414a4f525f 
00001348 56455253494f 
0000134e 4e2028347529 
00001354 00 
00001355 01             8316 	.byte	1
00001356 09             8317 	.byte	9
00001357 4d454d4d4150   8318 	.strz	"MEMMAP_AR_RELEASE_MINOR_VERSION (0u)"
0000135d 5f41525f5245 
00001363 4c454153455f 
00001369 4d494e4f525f 
0000136f 56455253494f 
00001375 4e2028307529 
0000137b 00 
0000137c 01             8319 	.byte	1
0000137d 0a             8320 	.byte	10
0000137e 4d454d4d4150   8321 	.strz	"MEMMAP_AR_RELEASE_REVISION_VERSION (3u)"
00001384 5f41525f5245 
0000138a 4c454153455f 
00001390 524556495349 
00001396 4f4e5f564552 
0000139c 53494f4e2028 

                                                                      Page 162
                                                              C:\Users\nhuliyap\AppData\Local\Temp\gh_0000d941.s
000013a2 33752900 
000013a6 01             8322 	.byte	1
000013a7 10             8323 	.byte	16
000013a8 4d454d5f4152   8324 	.strz	"MEM_AR_RELEASE_MAJOR_VERSION MEMMAP_AR_RELEASE_MAJOR_VERSION"
000013ae 5f52454c4541 
000013b4 53455f4d414a 
000013ba 4f525f564552 
000013c0 53494f4e204d 
000013c6 454d4d41505f 
000013cc 41525f52454c 
000013d2 454153455f4d 
000013d8 414a4f525f56 
000013de 455253494f4e 
000013e4 00 
000013e5 01             8325 	.byte	1
000013e6 11             8326 	.byte	17
000013e7 4d454d5f4152   8327 	.strz	"MEM_AR_RELEASE_MINOR_VERSION MEMMAP_AR_RELEASE_MINOR_VERSION"
000013ed 5f52454c4541 
000013f3 53455f4d494e 
000013f9 4f525f564552 
000013ff 53494f4e204d 
00001405 454d4d41505f 
0000140b 41525f52454c 
00001411 454153455f4d 
00001417 494e4f525f56 
0000141d 455253494f4e 
00001423 00 
00001424 01             8328 	.byte	1
00001425 12             8329 	.byte	18
00001426 4d454d5f4152   8330 	.strz	"MEM_AR_RELEASE_PATCH_VERSION MEMMAP_AR_RELEASE_REVISION_VERSION"
0000142c 5f52454c4541 
00001432 53455f504154 
00001438 43485f564552 
0000143e 53494f4e204d 
00001444 454d4d41505f 
0000144a 41525f52454c 
00001450 454153455f52 
00001456 45564953494f 
0000145c 4e5f56455253 
00001462 494f4e00 
00001466 01             8331 	.byte	1
00001467 18             8332 	.byte	24
00001468 4d454d4d4150   8333 	.strz	"MEMMAP_SW_MAJOR_VERSION (1u)"
0000146e 5f53575f4d41 
00001474 4a4f525f5645 
0000147a 5253494f4e20 
00001480 2831752900 
00001485 01             8334 	.byte	1
00001486 19             8335 	.byte	25
00001487 4d454d4d4150   8336 	.strz	"MEMMAP_SW_MINOR_VERSION (11u)"
0000148d 5f53575f4d49 
00001493 4e4f525f5645 
00001499 5253494f4e20 
0000149f 283131752900 
000014a5 01             8337 	.byte	1
000014a6 1a             8338 	.byte	26
000014a7 4d454d4d4150   8339 	.strz	"MEMMAP_SW_PATCH_VERSION (0u)"
000014ad 5f53575f5041 
000014b3 5443485f5645 
000014b9 5253494f4e20 
000014bf 2830752900 

                                                                      Page 163
                                                              C:\Users\nhuliyap\AppData\Local\Temp\gh_0000d941.s
000014c4 01             8340 	.byte	1
000014c5 20             8341 	.byte	32
000014c6 4d454d5f5357   8342 	.strz	"MEM_SW_MAJOR_VERSION MEMMAP_SW_MAJOR_VERSION"
000014cc 5f4d414a4f52 
000014d2 5f5645525349 
000014d8 4f4e204d454d 
000014de 4d41505f5357 
000014e4 5f4d414a4f52 
000014ea 5f5645525349 
000014f0 4f4e00 
000014f3 01             8343 	.byte	1
000014f4 21             8344 	.byte	33
000014f5 4d454d5f5357   8345 	.strz	"MEM_SW_MINOR_VERSION MEMMAP_SW_MINOR_VERSION"
000014fb 5f4d494e4f52 
00001501 5f5645525349 
00001507 4f4e204d454d 
0000150d 4d41505f5357 
00001513 5f4d494e4f52 
00001519 5f5645525349 
0000151f 4f4e00 
00001522 01             8346 	.byte	1
00001523 22             8347 	.byte	34
00001524 4d454d5f5357   8348 	.strz	"MEM_SW_PATCH_VERSION MEMMAP_SW_PATCH_VERSION"
0000152a 5f5041544348 
00001530 5f5645525349 
00001536 4f4e204d454d 
0000153c 4d41505f5357 
00001542 5f5041544348 
00001548 5f5645525349 
0000154e 4f4e00 
00001551 01             8349 	.byte	1
00001552 24             8350 	.byte	36
00001553 4d454d4d4150   8351 	.strz	"MEMMAP_ERROR "
00001559 5f4552524f52 
0000155f 2000 
00001561 01             8352 	.byte	1
00001562 e102           8353 	.byte	225,2
00001564 53544f505f53   8354 	.strz	"STOP_SEC_CONST "
0000156a 45435f434f4e 
00001570 53542000 
00001574 03             8355 	.byte	3
00001575 f403           8356 	.byte	244,3
00001577 12             8357 	.byte	18
00001578 04             8358 	.byte	4
00001579 04             8359 	.byte	4
0000157a 04             8360 	.byte	4
0000157b 03             8361 	.byte	3
0000157c 24             8362 	.byte	36
0000157d 15             8363 	.byte	21
0000157e 03             8364 	.byte	3
0000157f 06             8365 	.byte	6
00001580 16             8366 	.byte	22
00001581 03             8367 	.byte	3
00001582 19             8368 	.byte	25
00001583 17             8369 	.byte	23
00001584 04             8370 	.byte	4
00001585 01             8371 	.byte	1
00001586 e801           8372 	.byte	232,1
00001588 4f535f535441   8373 	.strz	"OS_START_SEC_CODE "
0000158e 52545f534543 
00001594 5f434f444520 

                                                                      Page 164
                                                              C:\Users\nhuliyap\AppData\Local\Temp\gh_0000d941.s
0000159a 00 
0000159b 03             8374 	.byte	3
0000159c e901           8375 	.byte	233,1
0000159e 18             8376 	.byte	24
0000159f 04             8377 	.byte	4
000015a0 01             8378 	.byte	1
000015a1 ee01           8379 	.byte	238,1
000015a3 4f535f53544f   8380 	.strz	"OS_STOP_SEC_CODE "
000015a9 505f5345435f 
000015af 434f44452000 
000015b5 03             8381 	.byte	3
000015b6 ef01           8382 	.byte	239,1
000015b8 18             8383 	.byte	24
000015b9 04             8384 	.byte	4
000015ba 01             8385 	.byte	1
000015bb f201           8386 	.byte	242,1
000015bd 4f535f564f4c   8387 	.strz	"OS_VOLATILE volatile"
000015c3 4154494c4520 
000015c9 766f6c617469 
000015cf 6c6500 
000015d2 01             8388 	.byte	1
000015d3 b803           8389 	.byte	184,3
000015d5 4465636c6172   8390 	.strz	"DeclareISR(x) "
000015db 654953522878 
000015e1 292000 
000015e4 01             8391 	.byte	1
000015e5 e003           8392 	.byte	224,3
000015e7 4465636c6172   8393 	.strz	"DeclareTask(x) "
000015ed 655461736b28 
000015f3 78292000 
000015f7 01             8394 	.byte	1
000015f8 8004           8395 	.byte	128,4
000015fa 4465636c6172   8396 	.strz	"DeclareAlarm(x) "
00001600 65416c61726d 
00001606 2878292000 
0000160b 01             8397 	.byte	1
0000160c a204           8398 	.byte	162,4
0000160e 4465636c6172   8399 	.strz	"DeclareCounter(x) "
00001614 65436f756e74 
0000161a 657228782920 
00001620 00 
00001621 01             8400 	.byte	1
00001622 e006           8401 	.byte	224,6
00001624 4f535f535441   8402 	.strz	"OS_START_SEC_CALLOUT_CODE "
0000162a 52545f534543 
00001630 5f43414c4c4f 
00001636 55545f434f44 
0000163c 452000 
0000163f 03             8403 	.byte	3
00001640 e106           8404 	.byte	225,6
00001642 18             8405 	.byte	24
00001643 04             8406 	.byte	4
00001644 01             8407 	.byte	1
00001645 ea06           8408 	.byte	234,6
00001647 4f535f53544f   8409 	.strz	"OS_STOP_SEC_CALLOUT_CODE "
0000164d 505f5345435f 
00001653 43414c4c4f55 
00001659 545f434f4445 
0000165f 2000 
00001661 03             8410 	.byte	3
00001662 eb06           8411 	.byte	235,6

                                                                      Page 165
                                                              C:\Users\nhuliyap\AppData\Local\Temp\gh_0000d941.s
00001664 18             8412 	.byte	24
00001665 04             8413 	.byte	4
00001666 01             8414 	.byte	1
00001667 ed06           8415 	.byte	237,6
00001669 4f535f535441   8416 	.strz	"OS_START_SEC_CALLOUT_CODE "
0000166f 52545f534543 
00001675 5f43414c4c4f 
0000167b 55545f434f44 
00001681 452000 
00001684 03             8417 	.byte	3
00001685 ee06           8418 	.byte	238,6
00001687 18             8419 	.byte	24
00001688 04             8420 	.byte	4
00001689 01             8421 	.byte	1
0000168a 8007           8422 	.byte	128,7
0000168c 4f535f53544f   8423 	.strz	"OS_STOP_SEC_CALLOUT_CODE "
00001692 505f5345435f 
00001698 43414c4c4f55 
0000169e 545f434f4445 
000016a4 2000 
000016a6 03             8424 	.byte	3
000016a7 8107           8425 	.byte	129,7
000016a9 18             8426 	.byte	24
000016aa 04             8427 	.byte	4
000016ab 01             8428 	.byte	1
000016ac 8307           8429 	.byte	131,7
000016ae 4f535f535441   8430 	.strz	"OS_START_SEC_CODE "
000016b4 52545f534543 
000016ba 5f434f444520 
000016c0 00 
000016c1 03             8431 	.byte	3
000016c2 8407           8432 	.byte	132,7
000016c4 18             8433 	.byte	24
000016c5 04             8434 	.byte	4
000016c6 01             8435 	.byte	1
000016c7 de07           8436 	.byte	222,7
000016c9 4f535f53544f   8437 	.strz	"OS_STOP_SEC_CODE "
000016cf 505f5345435f 
000016d5 434f44452000 
000016db 03             8438 	.byte	3
000016dc df07           8439 	.byte	223,7
000016de 18             8440 	.byte	24
000016df 04             8441 	.byte	4
000016e0 01             8442 	.byte	1
000016e1 e107           8443 	.byte	225,7
000016e3 4f535f535441   8444 	.strz	"OS_START_SEC_CONST_FAST_UNSPECIFIED "
000016e9 52545f534543 
000016ef 5f434f4e5354 
000016f5 5f464153545f 
000016fb 554e53504543 
00001701 494649454420 
00001707 00 
00001708 03             8445 	.byte	3
00001709 e207           8446 	.byte	226,7
0000170b 18             8447 	.byte	24
0000170c 04             8448 	.byte	4
0000170d 01             8449 	.byte	1
0000170e ec07           8450 	.byte	236,7
00001710 4f535f53544f   8451 	.strz	"OS_STOP_SEC_CONST_FAST_UNSPECIFIED "
00001716 505f5345435f 
0000171c 434f4e53545f 

                                                                      Page 166
                                                              C:\Users\nhuliyap\AppData\Local\Temp\gh_0000d941.s
00001722 464153545f55 
00001728 4e5350454349 
0000172e 464945442000 
00001734 03             8452 	.byte	3
00001735 ed07           8453 	.byte	237,7
00001737 18             8454 	.byte	24
00001738 04             8455 	.byte	4
00001739 01             8456 	.byte	1
0000173a ef07           8457 	.byte	239,7
0000173c 4f535f535441   8458 	.strz	"OS_START_SEC_CONST_UNSPECIFIED "
00001742 52545f534543 
00001748 5f434f4e5354 
0000174e 5f554e535045 
00001754 434946494544 
0000175a 2000 
0000175c 03             8459 	.byte	3
0000175d f007           8460 	.byte	240,7
0000175f 18             8461 	.byte	24
00001760 04             8462 	.byte	4
00001761 01             8463 	.byte	1
00001762 f407           8464 	.byte	244,7
00001764 4f535f53544f   8465 	.strz	"OS_STOP_SEC_CONST_UNSPECIFIED "
0000176a 505f5345435f 
00001770 434f4e53545f 
00001776 554e53504543 
0000177c 494649454420 
00001782 00 
00001783 03             8466 	.byte	3
00001784 f507           8467 	.byte	245,7
00001786 18             8468 	.byte	24
00001787 04             8469 	.byte	4
00001788 01             8470 	.byte	1
00001789 f707           8471 	.byte	247,7
0000178b 4f535f535441   8472 	.strz	"OS_START_SEC_VAR_CLEARED_UNSPECIFIED "
00001791 52545f534543 
00001797 5f5641525f43 
0000179d 4c4541524544 
000017a3 5f554e535045 
000017a9 434946494544 
000017af 2000 
000017b1 03             8473 	.byte	3
000017b2 f807           8474 	.byte	248,7
000017b4 18             8475 	.byte	24
000017b5 04             8476 	.byte	4
000017b6 01             8477 	.byte	1
000017b7 8008           8478 	.byte	128,8
000017b9 4f535f53544f   8479 	.strz	"OS_STOP_SEC_VAR_CLEARED_UNSPECIFIED "
000017bf 505f5345435f 
000017c5 5641525f434c 
000017cb 45415245445f 
000017d1 554e53504543 
000017d7 494649454420 
000017dd 00 
000017de 03             8480 	.byte	3
000017df 8108           8481 	.byte	129,8
000017e1 18             8482 	.byte	24
000017e2 04             8483 	.byte	4
000017e3 01             8484 	.byte	1
000017e4 8308           8485 	.byte	131,8
000017e6 4f535f535441   8486 	.strz	"OS_START_SEC_VAR_NO_INIT_UNSPECIFIED "
000017ec 52545f534543 

                                                                      Page 167
                                                              C:\Users\nhuliyap\AppData\Local\Temp\gh_0000d941.s
000017f2 5f5641525f4e 
000017f8 4f5f494e4954 
000017fe 5f554e535045 
00001804 434946494544 
0000180a 2000 
0000180c 03             8487 	.byte	3
0000180d 8408           8488 	.byte	132,8
0000180f 18             8489 	.byte	24
00001810 04             8490 	.byte	4
00001811 01             8491 	.byte	1
00001812 9608           8492 	.byte	150,8
00001814 4f535f53544f   8493 	.strz	"OS_STOP_SEC_VAR_NO_INIT_UNSPECIFIED "
0000181a 505f5345435f 
00001820 5641525f4e4f 
00001826 5f494e49545f 
0000182c 554e53504543 
00001832 494649454420 
00001838 00 
00001839 03             8494 	.byte	3
0000183a 9708           8495 	.byte	151,8
0000183c 18             8496 	.byte	24
0000183d 04             8497 	.byte	4
0000183e 03             8498 	.byte	3
0000183f 9908           8499 	.byte	153,8
00001841 19             8500 	.byte	25
00001842 01             8501 	.byte	1
00001843 e001           8502 	.byte	224,1
00001845 4f535f535441   8503 	.strz	"OS_START_SEC_CALLOUT_CODE "
0000184b 52545f534543 
00001851 5f43414c4c4f 
00001857 55545f434f44 
0000185d 452000 
00001860 03             8504 	.byte	3
00001861 e101           8505 	.byte	225,1
00001863 18             8506 	.byte	24
00001864 04             8507 	.byte	4
00001865 01             8508 	.byte	1
00001866 e901           8509 	.byte	233,1
00001868 4f535f53544f   8510 	.strz	"OS_STOP_SEC_CALLOUT_CODE "
0000186e 505f5345435f 
00001874 43414c4c4f55 
0000187a 545f434f4445 
00001880 2000 
00001882 03             8511 	.byte	3
00001883 ea01           8512 	.byte	234,1
00001885 18             8513 	.byte	24
00001886 04             8514 	.byte	4
00001887 01             8515 	.byte	1
00001888 ec01           8516 	.byte	236,1
0000188a 4f535f535441   8517 	.strz	"OS_START_SEC_CODE "
00001890 52545f534543 
00001896 5f434f444520 
0000189c 00 
0000189d 03             8518 	.byte	3
0000189e ed01           8519 	.byte	237,1
000018a0 18             8520 	.byte	24
000018a1 04             8521 	.byte	4
000018a2 01             8522 	.byte	1
000018a3 8302           8523 	.byte	131,2
000018a5 4f535f53544f   8524 	.strz	"OS_STOP_SEC_CODE "
000018ab 505f5345435f 

                                                                      Page 168
                                                              C:\Users\nhuliyap\AppData\Local\Temp\gh_0000d941.s
000018b1 434f44452000 
000018b7 03             8525 	.byte	3
000018b8 8402           8526 	.byte	132,2
000018ba 18             8527 	.byte	24
000018bb 04             8528 	.byte	4
000018bc 04             8529 	.byte	4
000018bd 04             8530 	.byte	4
000018be 04             8531 	.byte	4
000018bf 01             8532 	.byte	1
000018c0 39             8533 	.byte	57
000018c1 525f46444c5f   8534 	.strz	"R_FDL_F1L_PATCH_DF_OVERSIZE "
000018c7 46314c5f5041 
000018cd 5443485f4446 
000018d3 5f4f56455253 
000018d9 495a452000 
000018de 04             8535 	.byte	4
000018df 03             8536 	.byte	3
000018e0 1b             8537 	.byte	27
000018e1 13             8538 	.byte	19
000018e2 04             8539 	.byte	4
000018e3 01             8540 	.byte	1
000018e4 1e             8541 	.byte	30
000018e5 525f46444c5f   8542 	.strz	"R_FDL_EXTERN "
000018eb 45585445524e 
000018f1 2000 
000018f3 04             8543 	.byte	4
000018f4 03             8544 	.byte	3
000018f5 0e             8545 	.byte	14
000018f6 1a             8546 	.byte	26
000018f7 01             8547 	.byte	1
000018f8 32             8548 	.byte	50
000018f9 525f4643555f   8549 	.strz	"R_FCU_REGBIT_FENTRY_FENTRYD (0x0080u)"
000018ff 524547424954 
00001905 5f46454e5452 
0000190b 595f46454e54 
00001911 525944202830 
00001917 783030383075 
0000191d 2900 
0000191f 01             8550 	.byte	1
00001920 35             8551 	.byte	53
00001921 525f4643555f   8552 	.strz	"R_FCU_REGBIT_FENTRY_OFF (0x0000u)"
00001927 524547424954 
0000192d 5f46454e5452 
00001933 595f4f464620 
00001939 283078303030 
0000193f 30752900 
00001943 01             8553 	.byte	1
00001944 37             8554 	.byte	55
00001945 525f4643555f   8555 	.strz	"R_FCU_MODE_PE (R_FCU_REGBIT_FENTRY_FENTRYD)"
0000194b 4d4f44455f50 
00001951 452028525f46 
00001957 43555f524547 
0000195d 4249545f4645 
00001963 4e5452595f46 
00001969 454e54525944 
0000196f 2900 
00001971 01             8556 	.byte	1
00001972 39             8557 	.byte	57
00001973 525f4643555f   8558 	.strz	"R_FCU_MODE_USER (R_FCU_REGBIT_FENTRY_OFF)"
00001979 4d4f44455f55 
0000197f 534552202852 

                                                                      Page 169
                                                              C:\Users\nhuliyap\AppData\Local\Temp\gh_0000d941.s
00001985 5f4643555f52 
0000198b 45474249545f 
00001991 46454e545259 
00001997 5f4f46462900 
0000199d 01             8559 	.byte	1
0000199e 71             8560 	.byte	113
0000199f 525f4643555f   8561 	.strz	"R_FCU_CMD_ERASE (0x20u)"
000019a5 434d445f4552 
000019ab 415345202830 
000019b1 783230752900 
000019b7 01             8562 	.byte	1
000019b8 73             8563 	.byte	115
000019b9 525f4643555f   8564 	.strz	"R_FCU_CMD_BLANKCHECK (0x71u)"
000019bf 434d445f424c 
000019c5 414e4b434845 
000019cb 434b20283078 
000019d1 3731752900 
000019d6 01             8565 	.byte	1
000019d7 76             8566 	.byte	118
000019d8 525f4643555f   8567 	.strz	"R_FCU_CMD_WRITE (0xE8u)"
000019de 434d445f5752 
000019e4 495445202830 
000019ea 784538752900 
000019f0 01             8568 	.byte	1
000019f1 7e             8569 	.byte	126
000019f2 525f46444c5f   8570 	.strz	"R_FDL_BLOCK_SIZE (0x0040u)"
000019f8 424c4f434b5f 
000019fe 53495a452028 
00001a04 307830303430 
00001a0a 752900 
00001a0d 01             8571 	.byte	1
00001a0e 7f             8572 	.byte	127
00001a0f 525f46444c5f   8573 	.strz	"R_FDL_BLOCK_SIZE_2N (0x0006u)"
00001a15 424c4f434b5f 
00001a1b 53495a455f32 
00001a21 4e2028307830 
00001a27 303036752900 
00001a2d 01             8574 	.byte	1
00001a2e 8001           8575 	.byte	128,1
00001a30 525f46444c5f   8576 	.strz	"R_FDL_WRITE_SIZE (0x00000004uL)"
00001a36 57524954455f 
00001a3c 53495a452028 
00001a42 307830303030 
00001a48 30303034754c 
00001a4e 2900 
00001a50 01             8577 	.byte	1
00001a51 8401           8578 	.byte	132,1
00001a53 525f46444c5f   8579 	.strz	"R_FDL_U32_ALIGNED (0x03u)"
00001a59 5533325f414c 
00001a5f 49474e454420 
00001a65 283078303375 
00001a6b 2900 
00001a6d 04             8580 	.byte	4
00001a6e 01             8581 	.byte	1
00001a6f 10             8582 	.byte	16
00001a70 525f46444c5f   8583 	.strz	"R_FDL_VERSION_STRING \"DH850T01xxxxxxV200\""
00001a76 56455253494f 
00001a7c 4e5f53545249 
00001a82 4e4720224448 
00001a88 383530543031 
00001a8e 787878787878 

                                                                      Page 170
                                                              C:\Users\nhuliyap\AppData\Local\Temp\gh_0000d941.s
00001a94 563230302200 
00001a9a 01             8584 	.byte	1
00001a9b 12             8585 	.byte	18
00001a9c 525f46444c5f   8586 	.strz	"R_FDL_REQUEST_POINTER_UNDEFINED (r_fdl_request_t *)(0x00000000uL)"
00001aa2 524551554553 
00001aa8 545f504f494e 
00001aae 5445525f554e 
00001ab4 444546494e45 
00001aba 442028725f66 
00001ac0 646c5f726571 
00001ac6 756573745f74 
00001acc 202a29283078 
00001ad2 303030303030 
00001ad8 3030754c2900 
00001ade 01             8587 	.byte	1
00001adf 13             8588 	.byte	19
00001ae0 525f46444c5f   8589 	.strz	"R_FDL_DESCRIPTOR_POINTER_UNDEFINED (r_fdl_descriptor_t *)(0x00000000uL)"
00001ae6 444553435249 
00001aec 50544f525f50 
00001af2 4f494e544552 
00001af8 5f554e444546 
00001afe 494e45442028 
00001b04 725f66646c5f 
00001b0a 646573637269 
00001b10 70746f725f74 
00001b16 202a29283078 
00001b1c 303030303030 
00001b22 3030754c2900 
00001b28 01             8590 	.byte	1
00001b29 14             8591 	.byte	20
00001b2a 525f46444c5f   8592 	.strz	"R_FDL_NULL (0x00000000uL)"
00001b30 4e554c4c2028 
00001b36 307830303030 
00001b3c 30303030754c 
00001b42 2900 
00001b44 01             8593 	.byte	1
00001b45 15             8594 	.byte	21
00001b46 4155544f5341   8595 	.strz	"AUTOSAR_IMPLEMENTATION "
00001b4c 525f494d504c 
00001b52 454d454e5441 
00001b58 54494f4e2000 
00001b5e 01             8596 	.byte	1
00001b5f 58             8597 	.byte	88
00001b60 525f46444c5f   8598 	.strz	"R_FDL_STATIC static"
00001b66 535441544943 
00001b6c 207374617469 
00001b72 6300 
00001b74 01             8599 	.byte	1
00001b75 7f             8600 	.byte	127
00001b76 525f46444c5f   8601 	.strz	"R_FDL_START_SEC_VAR "
00001b7c 53544152545f 
00001b82 5345435f5641 
00001b88 522000 
00001b8b 03             8602 	.byte	3
00001b8c 8001           8603 	.byte	128,1
00001b8e 1b             8604 	.byte	27
00001b8f 01             8605 	.byte	1
00001b90 18             8606 	.byte	24
00001b91 46444c5f5354   8607 	.strz	"FDL_START_SEC_VAR_UNSPECIFIED "
00001b97 4152545f5345 
00001b9d 435f5641525f 

                                                                      Page 171
                                                              C:\Users\nhuliyap\AppData\Local\Temp\gh_0000d941.s
00001ba3 554e53504543 
00001ba9 494649454420 
00001baf 00 
00001bb0 03             8608 	.byte	3
00001bb1 20             8609 	.byte	32
00001bb2 11             8610 	.byte	17
00001bb3 01             8611 	.byte	1
00001bb4 02             8612 	.byte	2
00001bb5 4d454d4d4150   8613 	.strz	"MEMMAP_VENDOR_ID (30u)"
00001bbb 5f56454e444f 
00001bc1 525f49442028 
00001bc7 3330752900 
00001bcc 01             8614 	.byte	1
00001bcd 08             8615 	.byte	8
00001bce 4d454d4d4150   8616 	.strz	"MEMMAP_AR_RELEASE_MAJOR_VERSION (4u)"
00001bd4 5f41525f5245 
00001bda 4c454153455f 
00001be0 4d414a4f525f 
00001be6 56455253494f 
00001bec 4e2028347529 
00001bf2 00 
00001bf3 01             8617 	.byte	1
00001bf4 09             8618 	.byte	9
00001bf5 4d454d4d4150   8619 	.strz	"MEMMAP_AR_RELEASE_MINOR_VERSION (0u)"
00001bfb 5f41525f5245 
00001c01 4c454153455f 
00001c07 4d494e4f525f 
00001c0d 56455253494f 
00001c13 4e2028307529 
00001c19 00 
00001c1a 01             8620 	.byte	1
00001c1b 0a             8621 	.byte	10
00001c1c 4d454d4d4150   8622 	.strz	"MEMMAP_AR_RELEASE_REVISION_VERSION (3u)"
00001c22 5f41525f5245 
00001c28 4c454153455f 
00001c2e 524556495349 
00001c34 4f4e5f564552 
00001c3a 53494f4e2028 
00001c40 33752900 
00001c44 01             8623 	.byte	1
00001c45 10             8624 	.byte	16
00001c46 4d454d5f4152   8625 	.strz	"MEM_AR_RELEASE_MAJOR_VERSION MEMMAP_AR_RELEASE_MAJOR_VERSION"
00001c4c 5f52454c4541 
00001c52 53455f4d414a 
00001c58 4f525f564552 
00001c5e 53494f4e204d 
00001c64 454d4d41505f 
00001c6a 41525f52454c 
00001c70 454153455f4d 
00001c76 414a4f525f56 
00001c7c 455253494f4e 
00001c82 00 
00001c83 01             8626 	.byte	1
00001c84 11             8627 	.byte	17
00001c85 4d454d5f4152   8628 	.strz	"MEM_AR_RELEASE_MINOR_VERSION MEMMAP_AR_RELEASE_MINOR_VERSION"
00001c8b 5f52454c4541 
00001c91 53455f4d494e 
00001c97 4f525f564552 
00001c9d 53494f4e204d 
00001ca3 454d4d41505f 
00001ca9 41525f52454c 

                                                                      Page 172
                                                              C:\Users\nhuliyap\AppData\Local\Temp\gh_0000d941.s
00001caf 454153455f4d 
00001cb5 494e4f525f56 
00001cbb 455253494f4e 
00001cc1 00 
00001cc2 01             8629 	.byte	1
00001cc3 12             8630 	.byte	18
00001cc4 4d454d5f4152   8631 	.strz	"MEM_AR_RELEASE_PATCH_VERSION MEMMAP_AR_RELEASE_REVISION_VERSION"
00001cca 5f52454c4541 
00001cd0 53455f504154 
00001cd6 43485f564552 
00001cdc 53494f4e204d 
00001ce2 454d4d41505f 
00001ce8 41525f52454c 
00001cee 454153455f52 
00001cf4 45564953494f 
00001cfa 4e5f56455253 
00001d00 494f4e00 
00001d04 01             8632 	.byte	1
00001d05 18             8633 	.byte	24
00001d06 4d454d4d4150   8634 	.strz	"MEMMAP_SW_MAJOR_VERSION (1u)"
00001d0c 5f53575f4d41 
00001d12 4a4f525f5645 
00001d18 5253494f4e20 
00001d1e 2831752900 
00001d23 01             8635 	.byte	1
00001d24 19             8636 	.byte	25
00001d25 4d454d4d4150   8637 	.strz	"MEMMAP_SW_MINOR_VERSION (11u)"
00001d2b 5f53575f4d49 
00001d31 4e4f525f5645 
00001d37 5253494f4e20 
00001d3d 283131752900 
00001d43 01             8638 	.byte	1
00001d44 1a             8639 	.byte	26
00001d45 4d454d4d4150   8640 	.strz	"MEMMAP_SW_PATCH_VERSION (0u)"
00001d4b 5f53575f5041 
00001d51 5443485f5645 
00001d57 5253494f4e20 
00001d5d 2830752900 
00001d62 01             8641 	.byte	1
00001d63 20             8642 	.byte	32
00001d64 4d454d5f5357   8643 	.strz	"MEM_SW_MAJOR_VERSION MEMMAP_SW_MAJOR_VERSION"
00001d6a 5f4d414a4f52 
00001d70 5f5645525349 
00001d76 4f4e204d454d 
00001d7c 4d41505f5357 
00001d82 5f4d414a4f52 
00001d88 5f5645525349 
00001d8e 4f4e00 
00001d91 01             8644 	.byte	1
00001d92 21             8645 	.byte	33
00001d93 4d454d5f5357   8646 	.strz	"MEM_SW_MINOR_VERSION MEMMAP_SW_MINOR_VERSION"
00001d99 5f4d494e4f52 
00001d9f 5f5645525349 
00001da5 4f4e204d454d 
00001dab 4d41505f5357 
00001db1 5f4d494e4f52 
00001db7 5f5645525349 
00001dbd 4f4e00 
00001dc0 01             8647 	.byte	1
00001dc1 22             8648 	.byte	34
00001dc2 4d454d5f5357   8649 	.strz	"MEM_SW_PATCH_VERSION MEMMAP_SW_PATCH_VERSION"

                                                                      Page 173
                                                              C:\Users\nhuliyap\AppData\Local\Temp\gh_0000d941.s
00001dc8 5f5041544348 
00001dce 5f5645525349 
00001dd4 4f4e204d454d 
00001dda 4d41505f5357 
00001de0 5f5041544348 
00001de6 5f5645525349 
00001dec 4f4e00 
00001def 01             8650 	.byte	1
00001df0 24             8651 	.byte	36
00001df1 4d454d4d4150   8652 	.strz	"MEMMAP_ERROR "
00001df7 5f4552524f52 
00001dfd 2000 
00001dff 01             8653 	.byte	1
00001e00 f802           8654 	.byte	248,2
00001e02 53544152545f   8655 	.strz	"START_SEC_VAR_INIT_UNSPECIFIED "
00001e08 5345435f5641 
00001e0e 525f494e4954 
00001e14 5f554e535045 
00001e1a 434946494544 
00001e20 2000 
00001e22 03             8656 	.byte	3
00001e23 f403           8657 	.byte	244,3
00001e25 12             8658 	.byte	18
00001e26 01             8659 	.byte	1
00001e27 a209           8660 	.byte	162,9
00001e29 5641525f5345   8661 	.strz	"VAR_SEC_OPEN "
00001e2f 435f4f50454e 
00001e35 2000 
00001e37 04             8662 	.byte	4
00001e38 04             8663 	.byte	4
00001e39 04             8664 	.byte	4
00001e3a 01             8665 	.byte	1
00001e3b 8301           8666 	.byte	131,1
00001e3d 525f46444c5f   8667 	.strz	"R_FDL_NOINIT "
00001e43 4e4f494e4954 
00001e49 2000 
00001e4b 01             8668 	.byte	1
00001e4c 8c01           8669 	.byte	140,1
00001e4e 525f46444c5f   8670 	.strz	"R_FDL_STOP_SEC_VAR "
00001e54 53544f505f53 
00001e5a 45435f564152 
00001e60 2000 
00001e62 03             8671 	.byte	3
00001e63 8d01           8672 	.byte	141,1
00001e65 1b             8673 	.byte	27
00001e66 01             8674 	.byte	1
00001e67 1b             8675 	.byte	27
00001e68 46444c5f5354   8676 	.strz	"FDL_STOP_SEC_VAR_UNSPECIFIED "
00001e6e 4f505f534543 
00001e74 5f5641525f55 
00001e7a 4e5350454349 
00001e80 464945442000 
00001e86 03             8677 	.byte	3
00001e87 20             8678 	.byte	32
00001e88 11             8679 	.byte	17
00001e89 01             8680 	.byte	1
00001e8a 02             8681 	.byte	2
00001e8b 4d454d4d4150   8682 	.strz	"MEMMAP_VENDOR_ID (30u)"
00001e91 5f56454e444f 
00001e97 525f49442028 
00001e9d 3330752900 

                                                                      Page 174
                                                              C:\Users\nhuliyap\AppData\Local\Temp\gh_0000d941.s
00001ea2 01             8683 	.byte	1
00001ea3 08             8684 	.byte	8
00001ea4 4d454d4d4150   8685 	.strz	"MEMMAP_AR_RELEASE_MAJOR_VERSION (4u)"
00001eaa 5f41525f5245 
00001eb0 4c454153455f 
00001eb6 4d414a4f525f 
00001ebc 56455253494f 
00001ec2 4e2028347529 
00001ec8 00 
00001ec9 01             8686 	.byte	1
00001eca 09             8687 	.byte	9
00001ecb 4d454d4d4150   8688 	.strz	"MEMMAP_AR_RELEASE_MINOR_VERSION (0u)"
00001ed1 5f41525f5245 
00001ed7 4c454153455f 
00001edd 4d494e4f525f 
00001ee3 56455253494f 
00001ee9 4e2028307529 
00001eef 00 
00001ef0 01             8689 	.byte	1
00001ef1 0a             8690 	.byte	10
00001ef2 4d454d4d4150   8691 	.strz	"MEMMAP_AR_RELEASE_REVISION_VERSION (3u)"
00001ef8 5f41525f5245 
00001efe 4c454153455f 
00001f04 524556495349 
00001f0a 4f4e5f564552 
00001f10 53494f4e2028 
00001f16 33752900 
00001f1a 01             8692 	.byte	1
00001f1b 10             8693 	.byte	16
00001f1c 4d454d5f4152   8694 	.strz	"MEM_AR_RELEASE_MAJOR_VERSION MEMMAP_AR_RELEASE_MAJOR_VERSION"
00001f22 5f52454c4541 
00001f28 53455f4d414a 
00001f2e 4f525f564552 
00001f34 53494f4e204d 
00001f3a 454d4d41505f 
00001f40 41525f52454c 
00001f46 454153455f4d 
00001f4c 414a4f525f56 
00001f52 455253494f4e 
00001f58 00 
00001f59 01             8695 	.byte	1
00001f5a 11             8696 	.byte	17
00001f5b 4d454d5f4152   8697 	.strz	"MEM_AR_RELEASE_MINOR_VERSION MEMMAP_AR_RELEASE_MINOR_VERSION"
00001f61 5f52454c4541 
00001f67 53455f4d494e 
00001f6d 4f525f564552 
00001f73 53494f4e204d 
00001f79 454d4d41505f 
00001f7f 41525f52454c 
00001f85 454153455f4d 
00001f8b 494e4f525f56 
00001f91 455253494f4e 
00001f97 00 
00001f98 01             8698 	.byte	1
00001f99 12             8699 	.byte	18
00001f9a 4d454d5f4152   8700 	.strz	"MEM_AR_RELEASE_PATCH_VERSION MEMMAP_AR_RELEASE_REVISION_VERSION"
00001fa0 5f52454c4541 
00001fa6 53455f504154 
00001fac 43485f564552 
00001fb2 53494f4e204d 
00001fb8 454d4d41505f 

                                                                      Page 175
                                                              C:\Users\nhuliyap\AppData\Local\Temp\gh_0000d941.s
00001fbe 41525f52454c 
00001fc4 454153455f52 
00001fca 45564953494f 
00001fd0 4e5f56455253 
00001fd6 494f4e00 
00001fda 01             8701 	.byte	1
00001fdb 18             8702 	.byte	24
00001fdc 4d454d4d4150   8703 	.strz	"MEMMAP_SW_MAJOR_VERSION (1u)"
00001fe2 5f53575f4d41 
00001fe8 4a4f525f5645 
00001fee 5253494f4e20 
00001ff4 2831752900 
00001ff9 01             8704 	.byte	1
00001ffa 19             8705 	.byte	25
00001ffb 4d454d4d4150   8706 	.strz	"MEMMAP_SW_MINOR_VERSION (11u)"
00002001 5f53575f4d49 
00002007 4e4f525f5645 
0000200d 5253494f4e20 
00002013 283131752900 
00002019 01             8707 	.byte	1
0000201a 1a             8708 	.byte	26
0000201b 4d454d4d4150   8709 	.strz	"MEMMAP_SW_PATCH_VERSION (0u)"
00002021 5f53575f5041 
00002027 5443485f5645 
0000202d 5253494f4e20 
00002033 2830752900 
00002038 01             8710 	.byte	1
00002039 20             8711 	.byte	32
0000203a 4d454d5f5357   8712 	.strz	"MEM_SW_MAJOR_VERSION MEMMAP_SW_MAJOR_VERSION"
00002040 5f4d414a4f52 
00002046 5f5645525349 
0000204c 4f4e204d454d 
00002052 4d41505f5357 
00002058 5f4d414a4f52 
0000205e 5f5645525349 
00002064 4f4e00 
00002067 01             8713 	.byte	1
00002068 21             8714 	.byte	33
00002069 4d454d5f5357   8715 	.strz	"MEM_SW_MINOR_VERSION MEMMAP_SW_MINOR_VERSION"
0000206f 5f4d494e4f52 
00002075 5f5645525349 
0000207b 4f4e204d454d 
00002081 4d41505f5357 
00002087 5f4d494e4f52 
0000208d 5f5645525349 
00002093 4f4e00 
00002096 01             8716 	.byte	1
00002097 22             8717 	.byte	34
00002098 4d454d5f5357   8718 	.strz	"MEM_SW_PATCH_VERSION MEMMAP_SW_PATCH_VERSION"
0000209e 5f5041544348 
000020a4 5f5645525349 
000020aa 4f4e204d454d 
000020b0 4d41505f5357 
000020b6 5f5041544348 
000020bc 5f5645525349 
000020c2 4f4e00 
000020c5 01             8719 	.byte	1
000020c6 24             8720 	.byte	36
000020c7 4d454d4d4150   8721 	.strz	"MEMMAP_ERROR "
000020cd 5f4552524f52 
000020d3 2000 

                                                                      Page 176
                                                              C:\Users\nhuliyap\AppData\Local\Temp\gh_0000d941.s
000020d5 01             8722 	.byte	1
000020d6 fc02           8723 	.byte	252,2
000020d8 53544f505f53   8724 	.strz	"STOP_SEC_VAR "
000020de 45435f564152 
000020e4 2000 
000020e6 03             8725 	.byte	3
000020e7 f403           8726 	.byte	244,3
000020e9 12             8727 	.byte	18
000020ea 04             8728 	.byte	4
000020eb 04             8729 	.byte	4
000020ec 04             8730 	.byte	4
000020ed 04             8731 	.byte	4
000020ee 01             8732 	.byte	1
000020ef 1b             8733 	.byte	27
000020f0 525f46444c5f   8734 	.strz	"R_FDL_START_SEC_VAR "
000020f6 53544152545f 
000020fc 5345435f5641 
00002102 522000 
00002105 03             8735 	.byte	3
00002106 1c             8736 	.byte	28
00002107 1b             8737 	.byte	27
00002108 01             8738 	.byte	1
00002109 18             8739 	.byte	24
0000210a 46444c5f5354   8740 	.strz	"FDL_START_SEC_VAR_UNSPECIFIED "
00002110 4152545f5345 
00002116 435f5641525f 
0000211c 554e53504543 
00002122 494649454420 
00002128 00 
00002129 03             8741 	.byte	3
0000212a 20             8742 	.byte	32
0000212b 11             8743 	.byte	17
0000212c 01             8744 	.byte	1
0000212d 02             8745 	.byte	2
0000212e 4d454d4d4150   8746 	.strz	"MEMMAP_VENDOR_ID (30u)"
00002134 5f56454e444f 
0000213a 525f49442028 
00002140 3330752900 
00002145 01             8747 	.byte	1
00002146 08             8748 	.byte	8
00002147 4d454d4d4150   8749 	.strz	"MEMMAP_AR_RELEASE_MAJOR_VERSION (4u)"
0000214d 5f41525f5245 
00002153 4c454153455f 
00002159 4d414a4f525f 
0000215f 56455253494f 
00002165 4e2028347529 
0000216b 00 
0000216c 01             8750 	.byte	1
0000216d 09             8751 	.byte	9
0000216e 4d454d4d4150   8752 	.strz	"MEMMAP_AR_RELEASE_MINOR_VERSION (0u)"
00002174 5f41525f5245 
0000217a 4c454153455f 
00002180 4d494e4f525f 
00002186 56455253494f 
0000218c 4e2028307529 
00002192 00 
00002193 01             8753 	.byte	1
00002194 0a             8754 	.byte	10
00002195 4d454d4d4150   8755 	.strz	"MEMMAP_AR_RELEASE_REVISION_VERSION (3u)"
0000219b 5f41525f5245 
000021a1 4c454153455f 

                                                                      Page 177
                                                              C:\Users\nhuliyap\AppData\Local\Temp\gh_0000d941.s
000021a7 524556495349 
000021ad 4f4e5f564552 
000021b3 53494f4e2028 
000021b9 33752900 
000021bd 01             8756 	.byte	1
000021be 10             8757 	.byte	16
000021bf 4d454d5f4152   8758 	.strz	"MEM_AR_RELEASE_MAJOR_VERSION MEMMAP_AR_RELEASE_MAJOR_VERSION"
000021c5 5f52454c4541 
000021cb 53455f4d414a 
000021d1 4f525f564552 
000021d7 53494f4e204d 
000021dd 454d4d41505f 
000021e3 41525f52454c 
000021e9 454153455f4d 
000021ef 414a4f525f56 
000021f5 455253494f4e 
000021fb 00 
000021fc 01             8759 	.byte	1
000021fd 11             8760 	.byte	17
000021fe 4d454d5f4152   8761 	.strz	"MEM_AR_RELEASE_MINOR_VERSION MEMMAP_AR_RELEASE_MINOR_VERSION"
00002204 5f52454c4541 
0000220a 53455f4d494e 
00002210 4f525f564552 
00002216 53494f4e204d 
0000221c 454d4d41505f 
00002222 41525f52454c 
00002228 454153455f4d 
0000222e 494e4f525f56 
00002234 455253494f4e 
0000223a 00 
0000223b 01             8762 	.byte	1
0000223c 12             8763 	.byte	18
0000223d 4d454d5f4152   8764 	.strz	"MEM_AR_RELEASE_PATCH_VERSION MEMMAP_AR_RELEASE_REVISION_VERSION"
00002243 5f52454c4541 
00002249 53455f504154 
0000224f 43485f564552 
00002255 53494f4e204d 
0000225b 454d4d41505f 
00002261 41525f52454c 
00002267 454153455f52 
0000226d 45564953494f 
00002273 4e5f56455253 
00002279 494f4e00 
0000227d 01             8765 	.byte	1
0000227e 18             8766 	.byte	24
0000227f 4d454d4d4150   8767 	.strz	"MEMMAP_SW_MAJOR_VERSION (1u)"
00002285 5f53575f4d41 
0000228b 4a4f525f5645 
00002291 5253494f4e20 
00002297 2831752900 
0000229c 01             8768 	.byte	1
0000229d 19             8769 	.byte	25
0000229e 4d454d4d4150   8770 	.strz	"MEMMAP_SW_MINOR_VERSION (11u)"
000022a4 5f53575f4d49 
000022aa 4e4f525f5645 
000022b0 5253494f4e20 
000022b6 283131752900 
000022bc 01             8771 	.byte	1
000022bd 1a             8772 	.byte	26
000022be 4d454d4d4150   8773 	.strz	"MEMMAP_SW_PATCH_VERSION (0u)"
000022c4 5f53575f5041 

                                                                      Page 178
                                                              C:\Users\nhuliyap\AppData\Local\Temp\gh_0000d941.s
000022ca 5443485f5645 
000022d0 5253494f4e20 
000022d6 2830752900 
000022db 01             8774 	.byte	1
000022dc 20             8775 	.byte	32
000022dd 4d454d5f5357   8776 	.strz	"MEM_SW_MAJOR_VERSION MEMMAP_SW_MAJOR_VERSION"
000022e3 5f4d414a4f52 
000022e9 5f5645525349 
000022ef 4f4e204d454d 
000022f5 4d41505f5357 
000022fb 5f4d414a4f52 
00002301 5f5645525349 
00002307 4f4e00 
0000230a 01             8777 	.byte	1
0000230b 21             8778 	.byte	33
0000230c 4d454d5f5357   8779 	.strz	"MEM_SW_MINOR_VERSION MEMMAP_SW_MINOR_VERSION"
00002312 5f4d494e4f52 
00002318 5f5645525349 
0000231e 4f4e204d454d 
00002324 4d41505f5357 
0000232a 5f4d494e4f52 
00002330 5f5645525349 
00002336 4f4e00 
00002339 01             8780 	.byte	1
0000233a 22             8781 	.byte	34
0000233b 4d454d5f5357   8782 	.strz	"MEM_SW_PATCH_VERSION MEMMAP_SW_PATCH_VERSION"
00002341 5f5041544348 
00002347 5f5645525349 
0000234d 4f4e204d454d 
00002353 4d41505f5357 
00002359 5f5041544348 
0000235f 5f5645525349 
00002365 4f4e00 
00002368 01             8783 	.byte	1
00002369 24             8784 	.byte	36
0000236a 4d454d4d4150   8785 	.strz	"MEMMAP_ERROR "
00002370 5f4552524f52 
00002376 2000 
00002378 01             8786 	.byte	1
00002379 f802           8787 	.byte	248,2
0000237b 53544152545f   8788 	.strz	"START_SEC_VAR_INIT_UNSPECIFIED "
00002381 5345435f5641 
00002387 525f494e4954 
0000238d 5f554e535045 
00002393 434946494544 
00002399 2000 
0000239b 03             8789 	.byte	3
0000239c f403           8790 	.byte	244,3
0000239e 12             8791 	.byte	18
0000239f 01             8792 	.byte	1
000023a0 a209           8793 	.byte	162,9
000023a2 5641525f5345   8794 	.strz	"VAR_SEC_OPEN "
000023a8 435f4f50454e 
000023ae 2000 
000023b0 04             8795 	.byte	4
000023b1 04             8796 	.byte	4
000023b2 04             8797 	.byte	4
000023b3 01             8798 	.byte	1
000023b4 22             8799 	.byte	34
000023b5 525f46444c5f   8800 	.strz	"R_FDL_STOP_SEC_VAR "
000023bb 53544f505f53 

                                                                      Page 179
                                                              C:\Users\nhuliyap\AppData\Local\Temp\gh_0000d941.s
000023c1 45435f564152 
000023c7 2000 
000023c9 03             8801 	.byte	3
000023ca 23             8802 	.byte	35
000023cb 1b             8803 	.byte	27
000023cc 01             8804 	.byte	1
000023cd 1b             8805 	.byte	27
000023ce 46444c5f5354   8806 	.strz	"FDL_STOP_SEC_VAR_UNSPECIFIED "
000023d4 4f505f534543 
000023da 5f5641525f55 
000023e0 4e5350454349 
000023e6 464945442000 
000023ec 03             8807 	.byte	3
000023ed 20             8808 	.byte	32
000023ee 11             8809 	.byte	17
000023ef 01             8810 	.byte	1
000023f0 02             8811 	.byte	2
000023f1 4d454d4d4150   8812 	.strz	"MEMMAP_VENDOR_ID (30u)"
000023f7 5f56454e444f 
000023fd 525f49442028 
00002403 3330752900 
00002408 01             8813 	.byte	1
00002409 08             8814 	.byte	8
0000240a 4d454d4d4150   8815 	.strz	"MEMMAP_AR_RELEASE_MAJOR_VERSION (4u)"
00002410 5f41525f5245 
00002416 4c454153455f 
0000241c 4d414a4f525f 
00002422 56455253494f 
00002428 4e2028347529 
0000242e 00 
0000242f 01             8816 	.byte	1
00002430 09             8817 	.byte	9
00002431 4d454d4d4150   8818 	.strz	"MEMMAP_AR_RELEASE_MINOR_VERSION (0u)"
00002437 5f41525f5245 
0000243d 4c454153455f 
00002443 4d494e4f525f 
00002449 56455253494f 
0000244f 4e2028307529 
00002455 00 
00002456 01             8819 	.byte	1
00002457 0a             8820 	.byte	10
00002458 4d454d4d4150   8821 	.strz	"MEMMAP_AR_RELEASE_REVISION_VERSION (3u)"
0000245e 5f41525f5245 
00002464 4c454153455f 
0000246a 524556495349 
00002470 4f4e5f564552 
00002476 53494f4e2028 
0000247c 33752900 
00002480 01             8822 	.byte	1
00002481 10             8823 	.byte	16
00002482 4d454d5f4152   8824 	.strz	"MEM_AR_RELEASE_MAJOR_VERSION MEMMAP_AR_RELEASE_MAJOR_VERSION"
00002488 5f52454c4541 
0000248e 53455f4d414a 
00002494 4f525f564552 
0000249a 53494f4e204d 
000024a0 454d4d41505f 
000024a6 41525f52454c 
000024ac 454153455f4d 
000024b2 414a4f525f56 
000024b8 455253494f4e 
000024be 00 

                                                                      Page 180
                                                              C:\Users\nhuliyap\AppData\Local\Temp\gh_0000d941.s
000024bf 01             8825 	.byte	1
000024c0 11             8826 	.byte	17
000024c1 4d454d5f4152   8827 	.strz	"MEM_AR_RELEASE_MINOR_VERSION MEMMAP_AR_RELEASE_MINOR_VERSION"
000024c7 5f52454c4541 
000024cd 53455f4d494e 
000024d3 4f525f564552 
000024d9 53494f4e204d 
000024df 454d4d41505f 
000024e5 41525f52454c 
000024eb 454153455f4d 
000024f1 494e4f525f56 
000024f7 455253494f4e 
000024fd 00 
000024fe 01             8828 	.byte	1
000024ff 12             8829 	.byte	18
00002500 4d454d5f4152   8830 	.strz	"MEM_AR_RELEASE_PATCH_VERSION MEMMAP_AR_RELEASE_REVISION_VERSION"
00002506 5f52454c4541 
0000250c 53455f504154 
00002512 43485f564552 
00002518 53494f4e204d 
0000251e 454d4d41505f 
00002524 41525f52454c 
0000252a 454153455f52 
00002530 45564953494f 
00002536 4e5f56455253 
0000253c 494f4e00 
00002540 01             8831 	.byte	1
00002541 18             8832 	.byte	24
00002542 4d454d4d4150   8833 	.strz	"MEMMAP_SW_MAJOR_VERSION (1u)"
00002548 5f53575f4d41 
0000254e 4a4f525f5645 
00002554 5253494f4e20 
0000255a 2831752900 
0000255f 01             8834 	.byte	1
00002560 19             8835 	.byte	25
00002561 4d454d4d4150   8836 	.strz	"MEMMAP_SW_MINOR_VERSION (11u)"
00002567 5f53575f4d49 
0000256d 4e4f525f5645 
00002573 5253494f4e20 
00002579 283131752900 
0000257f 01             8837 	.byte	1
00002580 1a             8838 	.byte	26
00002581 4d454d4d4150   8839 	.strz	"MEMMAP_SW_PATCH_VERSION (0u)"
00002587 5f53575f5041 
0000258d 5443485f5645 
00002593 5253494f4e20 
00002599 2830752900 
0000259e 01             8840 	.byte	1
0000259f 20             8841 	.byte	32
000025a0 4d454d5f5357   8842 	.strz	"MEM_SW_MAJOR_VERSION MEMMAP_SW_MAJOR_VERSION"
000025a6 5f4d414a4f52 
000025ac 5f5645525349 
000025b2 4f4e204d454d 
000025b8 4d41505f5357 
000025be 5f4d414a4f52 
000025c4 5f5645525349 
000025ca 4f4e00 
000025cd 01             8843 	.byte	1
000025ce 21             8844 	.byte	33
000025cf 4d454d5f5357   8845 	.strz	"MEM_SW_MINOR_VERSION MEMMAP_SW_MINOR_VERSION"
000025d5 5f4d494e4f52 

                                                                      Page 181
                                                              C:\Users\nhuliyap\AppData\Local\Temp\gh_0000d941.s
000025db 5f5645525349 
000025e1 4f4e204d454d 
000025e7 4d41505f5357 
000025ed 5f4d494e4f52 
000025f3 5f5645525349 
000025f9 4f4e00 
000025fc 01             8846 	.byte	1
000025fd 22             8847 	.byte	34
000025fe 4d454d5f5357   8848 	.strz	"MEM_SW_PATCH_VERSION MEMMAP_SW_PATCH_VERSION"
00002604 5f5041544348 
0000260a 5f5645525349 
00002610 4f4e204d454d 
00002616 4d41505f5357 
0000261c 5f5041544348 
00002622 5f5645525349 
00002628 4f4e00 
0000262b 01             8849 	.byte	1
0000262c 24             8850 	.byte	36
0000262d 4d454d4d4150   8851 	.strz	"MEMMAP_ERROR "
00002633 5f4552524f52 
00002639 2000 
0000263b 01             8852 	.byte	1
0000263c fc02           8853 	.byte	252,2
0000263e 53544f505f53   8854 	.strz	"STOP_SEC_VAR "
00002644 45435f564152 
0000264a 2000 
0000264c 03             8855 	.byte	3
0000264d f403           8856 	.byte	244,3
0000264f 12             8857 	.byte	18
00002650 04             8858 	.byte	4
00002651 04             8859 	.byte	4
00002652 04             8860 	.byte	4
00002653 01             8861 	.byte	1
00002654 26             8862 	.byte	38
00002655 525f46444c5f   8863 	.strz	"R_FDL_START_SEC_PUBLIC_CODE "
0000265b 53544152545f 
00002661 5345435f5055 
00002667 424c49435f43 
0000266d 4f44452000 
00002672 03             8864 	.byte	3
00002673 27             8865 	.byte	39
00002674 1b             8866 	.byte	27
00002675 01             8867 	.byte	1
00002676 0c             8868 	.byte	12
00002677 46444c5f5354   8869 	.strz	"FDL_START_SEC_PUBLIC_CODE "
0000267d 4152545f5345 
00002683 435f5055424c 
00002689 49435f434f44 
0000268f 452000 
00002692 03             8870 	.byte	3
00002693 20             8871 	.byte	32
00002694 11             8872 	.byte	17
00002695 01             8873 	.byte	1
00002696 02             8874 	.byte	2
00002697 4d454d4d4150   8875 	.strz	"MEMMAP_VENDOR_ID (30u)"
0000269d 5f56454e444f 
000026a3 525f49442028 
000026a9 3330752900 
000026ae 01             8876 	.byte	1
000026af 08             8877 	.byte	8
000026b0 4d454d4d4150   8878 	.strz	"MEMMAP_AR_RELEASE_MAJOR_VERSION (4u)"

                                                                      Page 182
                                                              C:\Users\nhuliyap\AppData\Local\Temp\gh_0000d941.s
000026b6 5f41525f5245 
000026bc 4c454153455f 
000026c2 4d414a4f525f 
000026c8 56455253494f 
000026ce 4e2028347529 
000026d4 00 
000026d5 01             8879 	.byte	1
000026d6 09             8880 	.byte	9
000026d7 4d454d4d4150   8881 	.strz	"MEMMAP_AR_RELEASE_MINOR_VERSION (0u)"
000026dd 5f41525f5245 
000026e3 4c454153455f 
000026e9 4d494e4f525f 
000026ef 56455253494f 
000026f5 4e2028307529 
000026fb 00 
000026fc 01             8882 	.byte	1
000026fd 0a             8883 	.byte	10
000026fe 4d454d4d4150   8884 	.strz	"MEMMAP_AR_RELEASE_REVISION_VERSION (3u)"
00002704 5f41525f5245 
0000270a 4c454153455f 
00002710 524556495349 
00002716 4f4e5f564552 
0000271c 53494f4e2028 
00002722 33752900 
00002726 01             8885 	.byte	1
00002727 10             8886 	.byte	16
00002728 4d454d5f4152   8887 	.strz	"MEM_AR_RELEASE_MAJOR_VERSION MEMMAP_AR_RELEASE_MAJOR_VERSION"
0000272e 5f52454c4541 
00002734 53455f4d414a 
0000273a 4f525f564552 
00002740 53494f4e204d 
00002746 454d4d41505f 
0000274c 41525f52454c 
00002752 454153455f4d 
00002758 414a4f525f56 
0000275e 455253494f4e 
00002764 00 
00002765 01             8888 	.byte	1
00002766 11             8889 	.byte	17
00002767 4d454d5f4152   8890 	.strz	"MEM_AR_RELEASE_MINOR_VERSION MEMMAP_AR_RELEASE_MINOR_VERSION"
0000276d 5f52454c4541 
00002773 53455f4d494e 
00002779 4f525f564552 
0000277f 53494f4e204d 
00002785 454d4d41505f 
0000278b 41525f52454c 
00002791 454153455f4d 
00002797 494e4f525f56 
0000279d 455253494f4e 
000027a3 00 
000027a4 01             8891 	.byte	1
000027a5 12             8892 	.byte	18
000027a6 4d454d5f4152   8893 	.strz	"MEM_AR_RELEASE_PATCH_VERSION MEMMAP_AR_RELEASE_REVISION_VERSION"
000027ac 5f52454c4541 
000027b2 53455f504154 
000027b8 43485f564552 
000027be 53494f4e204d 
000027c4 454d4d41505f 
000027ca 41525f52454c 
000027d0 454153455f52 
000027d6 45564953494f 

                                                                      Page 183
                                                              C:\Users\nhuliyap\AppData\Local\Temp\gh_0000d941.s
000027dc 4e5f56455253 
000027e2 494f4e00 
000027e6 01             8894 	.byte	1
000027e7 18             8895 	.byte	24
000027e8 4d454d4d4150   8896 	.strz	"MEMMAP_SW_MAJOR_VERSION (1u)"
000027ee 5f53575f4d41 
000027f4 4a4f525f5645 
000027fa 5253494f4e20 
00002800 2831752900 
00002805 01             8897 	.byte	1
00002806 19             8898 	.byte	25
00002807 4d454d4d4150   8899 	.strz	"MEMMAP_SW_MINOR_VERSION (11u)"
0000280d 5f53575f4d49 
00002813 4e4f525f5645 
00002819 5253494f4e20 
0000281f 283131752900 
00002825 01             8900 	.byte	1
00002826 1a             8901 	.byte	26
00002827 4d454d4d4150   8902 	.strz	"MEMMAP_SW_PATCH_VERSION (0u)"
0000282d 5f53575f5041 
00002833 5443485f5645 
00002839 5253494f4e20 
0000283f 2830752900 
00002844 01             8903 	.byte	1
00002845 20             8904 	.byte	32
00002846 4d454d5f5357   8905 	.strz	"MEM_SW_MAJOR_VERSION MEMMAP_SW_MAJOR_VERSION"
0000284c 5f4d414a4f52 
00002852 5f5645525349 
00002858 4f4e204d454d 
0000285e 4d41505f5357 
00002864 5f4d414a4f52 
0000286a 5f5645525349 
00002870 4f4e00 
00002873 01             8906 	.byte	1
00002874 21             8907 	.byte	33
00002875 4d454d5f5357   8908 	.strz	"MEM_SW_MINOR_VERSION MEMMAP_SW_MINOR_VERSION"
0000287b 5f4d494e4f52 
00002881 5f5645525349 
00002887 4f4e204d454d 
0000288d 4d41505f5357 
00002893 5f4d494e4f52 
00002899 5f5645525349 
0000289f 4f4e00 
000028a2 01             8909 	.byte	1
000028a3 22             8910 	.byte	34
000028a4 4d454d5f5357   8911 	.strz	"MEM_SW_PATCH_VERSION MEMMAP_SW_PATCH_VERSION"
000028aa 5f5041544348 
000028b0 5f5645525349 
000028b6 4f4e204d454d 
000028bc 4d41505f5357 
000028c2 5f5041544348 
000028c8 5f5645525349 
000028ce 4f4e00 
000028d1 01             8912 	.byte	1
000028d2 24             8913 	.byte	36
000028d3 4d454d4d4150   8914 	.strz	"MEMMAP_ERROR "
000028d9 5f4552524f52 
000028df 2000 
000028e1 01             8915 	.byte	1
000028e2 e602           8916 	.byte	230,2
000028e4 53544152545f   8917 	.strz	"START_SEC_CODE "

                                                                      Page 184
                                                              C:\Users\nhuliyap\AppData\Local\Temp\gh_0000d941.s
000028ea 5345435f434f 
000028f0 44452000 
000028f4 03             8918 	.byte	3
000028f5 f403           8919 	.byte	244,3
000028f7 12             8920 	.byte	18
000028f8 01             8921 	.byte	1
000028f9 f407           8922 	.byte	244,7
000028fb 434f44455f53   8923 	.strz	"CODE_SEC_OPEN "
00002901 45435f4f5045 
00002907 4e2000 
0000290a 04             8924 	.byte	4
0000290b 04             8925 	.byte	4
0000290c 04             8926 	.byte	4
0000290d 01             8927 	.byte	1
0000290e 60             8928 	.byte	96
0000290f 525f46444c5f   8929 	.strz	"R_FDL_STOP_SEC_PUBLIC_CODE "
00002915 53544f505f53 
0000291b 45435f505542 
00002921 4c49435f434f 
00002927 44452000 
0000292b 03             8930 	.byte	3
0000292c 61             8931 	.byte	97
0000292d 1b             8932 	.byte	27
0000292e 01             8933 	.byte	1
0000292f 0f             8934 	.byte	15
00002930 46444c5f5354   8935 	.strz	"FDL_STOP_SEC_PUBLIC_CODE "
00002936 4f505f534543 
0000293c 5f5055424c49 
00002942 435f434f4445 
00002948 2000 
0000294a 03             8936 	.byte	3
0000294b 20             8937 	.byte	32
0000294c 11             8938 	.byte	17
0000294d 01             8939 	.byte	1
0000294e 02             8940 	.byte	2
0000294f 4d454d4d4150   8941 	.strz	"MEMMAP_VENDOR_ID (30u)"
00002955 5f56454e444f 
0000295b 525f49442028 
00002961 3330752900 
00002966 01             8942 	.byte	1
00002967 08             8943 	.byte	8
00002968 4d454d4d4150   8944 	.strz	"MEMMAP_AR_RELEASE_MAJOR_VERSION (4u)"
0000296e 5f41525f5245 
00002974 4c454153455f 
0000297a 4d414a4f525f 
00002980 56455253494f 
00002986 4e2028347529 
0000298c 00 
0000298d 01             8945 	.byte	1
0000298e 09             8946 	.byte	9
0000298f 4d454d4d4150   8947 	.strz	"MEMMAP_AR_RELEASE_MINOR_VERSION (0u)"
00002995 5f41525f5245 
0000299b 4c454153455f 
000029a1 4d494e4f525f 
000029a7 56455253494f 
000029ad 4e2028307529 
000029b3 00 
000029b4 01             8948 	.byte	1
000029b5 0a             8949 	.byte	10
000029b6 4d454d4d4150   8950 	.strz	"MEMMAP_AR_RELEASE_REVISION_VERSION (3u)"
000029bc 5f41525f5245 

                                                                      Page 185
                                                              C:\Users\nhuliyap\AppData\Local\Temp\gh_0000d941.s
000029c2 4c454153455f 
000029c8 524556495349 
000029ce 4f4e5f564552 
000029d4 53494f4e2028 
000029da 33752900 
000029de 01             8951 	.byte	1
000029df 10             8952 	.byte	16
000029e0 4d454d5f4152   8953 	.strz	"MEM_AR_RELEASE_MAJOR_VERSION MEMMAP_AR_RELEASE_MAJOR_VERSION"
000029e6 5f52454c4541 
000029ec 53455f4d414a 
000029f2 4f525f564552 
000029f8 53494f4e204d 
000029fe 454d4d41505f 
00002a04 41525f52454c 
00002a0a 454153455f4d 
00002a10 414a4f525f56 
00002a16 455253494f4e 
00002a1c 00 
00002a1d 01             8954 	.byte	1
00002a1e 11             8955 	.byte	17
00002a1f 4d454d5f4152   8956 	.strz	"MEM_AR_RELEASE_MINOR_VERSION MEMMAP_AR_RELEASE_MINOR_VERSION"
00002a25 5f52454c4541 
00002a2b 53455f4d494e 
00002a31 4f525f564552 
00002a37 53494f4e204d 
00002a3d 454d4d41505f 
00002a43 41525f52454c 
00002a49 454153455f4d 
00002a4f 494e4f525f56 
00002a55 455253494f4e 
00002a5b 00 
00002a5c 01             8957 	.byte	1
00002a5d 12             8958 	.byte	18
00002a5e 4d454d5f4152   8959 	.strz	"MEM_AR_RELEASE_PATCH_VERSION MEMMAP_AR_RELEASE_REVISION_VERSION"
00002a64 5f52454c4541 
00002a6a 53455f504154 
00002a70 43485f564552 
00002a76 53494f4e204d 
00002a7c 454d4d41505f 
00002a82 41525f52454c 
00002a88 454153455f52 
00002a8e 45564953494f 
00002a94 4e5f56455253 
00002a9a 494f4e00 
00002a9e 01             8960 	.byte	1
00002a9f 18             8961 	.byte	24
00002aa0 4d454d4d4150   8962 	.strz	"MEMMAP_SW_MAJOR_VERSION (1u)"
00002aa6 5f53575f4d41 
00002aac 4a4f525f5645 
00002ab2 5253494f4e20 
00002ab8 2831752900 
00002abd 01             8963 	.byte	1
00002abe 19             8964 	.byte	25
00002abf 4d454d4d4150   8965 	.strz	"MEMMAP_SW_MINOR_VERSION (11u)"
00002ac5 5f53575f4d49 
00002acb 4e4f525f5645 
00002ad1 5253494f4e20 
00002ad7 283131752900 
00002add 01             8966 	.byte	1
00002ade 1a             8967 	.byte	26
00002adf 4d454d4d4150   8968 	.strz	"MEMMAP_SW_PATCH_VERSION (0u)"

                                                                      Page 186
                                                              C:\Users\nhuliyap\AppData\Local\Temp\gh_0000d941.s
00002ae5 5f53575f5041 
00002aeb 5443485f5645 
00002af1 5253494f4e20 
00002af7 2830752900 
00002afc 01             8969 	.byte	1
00002afd 20             8970 	.byte	32
00002afe 4d454d5f5357   8971 	.strz	"MEM_SW_MAJOR_VERSION MEMMAP_SW_MAJOR_VERSION"
00002b04 5f4d414a4f52 
00002b0a 5f5645525349 
00002b10 4f4e204d454d 
00002b16 4d41505f5357 
00002b1c 5f4d414a4f52 
00002b22 5f5645525349 
00002b28 4f4e00 
00002b2b 01             8972 	.byte	1
00002b2c 21             8973 	.byte	33
00002b2d 4d454d5f5357   8974 	.strz	"MEM_SW_MINOR_VERSION MEMMAP_SW_MINOR_VERSION"
00002b33 5f4d494e4f52 
00002b39 5f5645525349 
00002b3f 4f4e204d454d 
00002b45 4d41505f5357 
00002b4b 5f4d494e4f52 
00002b51 5f5645525349 
00002b57 4f4e00 
00002b5a 01             8975 	.byte	1
00002b5b 22             8976 	.byte	34
00002b5c 4d454d5f5357   8977 	.strz	"MEM_SW_PATCH_VERSION MEMMAP_SW_PATCH_VERSION"
00002b62 5f5041544348 
00002b68 5f5645525349 
00002b6e 4f4e204d454d 
00002b74 4d41505f5357 
00002b7a 5f5041544348 
00002b80 5f5645525349 
00002b86 4f4e00 
00002b89 01             8978 	.byte	1
00002b8a 24             8979 	.byte	36
00002b8b 4d454d4d4150   8980 	.strz	"MEMMAP_ERROR "
00002b91 5f4552524f52 
00002b97 2000 
00002b99 01             8981 	.byte	1
00002b9a ea02           8982 	.byte	234,2
00002b9c 53544f505f53   8983 	.strz	"STOP_SEC_CODE "
00002ba2 45435f434f44 
00002ba8 452000 
00002bab 03             8984 	.byte	3
00002bac f403           8985 	.byte	244,3
00002bae 12             8986 	.byte	18
00002baf 04             8987 	.byte	4
00002bb0 04             8988 	.byte	4
00002bb1 04             8989 	.byte	4
00002bb2 01             8990 	.byte	1
00002bb3 63             8991 	.byte	99
00002bb4 525f46444c5f   8992 	.strz	"R_FDL_START_SEC_PUBLIC_CODE "
00002bba 53544152545f 
00002bc0 5345435f5055 
00002bc6 424c49435f43 
00002bcc 4f44452000 
00002bd1 03             8993 	.byte	3
00002bd2 64             8994 	.byte	100
00002bd3 1b             8995 	.byte	27
00002bd4 01             8996 	.byte	1

                                                                      Page 187
                                                              C:\Users\nhuliyap\AppData\Local\Temp\gh_0000d941.s
00002bd5 0c             8997 	.byte	12
00002bd6 46444c5f5354   8998 	.strz	"FDL_START_SEC_PUBLIC_CODE "
00002bdc 4152545f5345 
00002be2 435f5055424c 
00002be8 49435f434f44 
00002bee 452000 
00002bf1 03             8999 	.byte	3
00002bf2 20             9000 	.byte	32
00002bf3 11             9001 	.byte	17
00002bf4 01             9002 	.byte	1
00002bf5 02             9003 	.byte	2
00002bf6 4d454d4d4150   9004 	.strz	"MEMMAP_VENDOR_ID (30u)"
00002bfc 5f56454e444f 
00002c02 525f49442028 
00002c08 3330752900 
00002c0d 01             9005 	.byte	1
00002c0e 08             9006 	.byte	8
00002c0f 4d454d4d4150   9007 	.strz	"MEMMAP_AR_RELEASE_MAJOR_VERSION (4u)"
00002c15 5f41525f5245 
00002c1b 4c454153455f 
00002c21 4d414a4f525f 
00002c27 56455253494f 
00002c2d 4e2028347529 
00002c33 00 
00002c34 01             9008 	.byte	1
00002c35 09             9009 	.byte	9
00002c36 4d454d4d4150   9010 	.strz	"MEMMAP_AR_RELEASE_MINOR_VERSION (0u)"
00002c3c 5f41525f5245 
00002c42 4c454153455f 
00002c48 4d494e4f525f 
00002c4e 56455253494f 
00002c54 4e2028307529 
00002c5a 00 
00002c5b 01             9011 	.byte	1
00002c5c 0a             9012 	.byte	10
00002c5d 4d454d4d4150   9013 	.strz	"MEMMAP_AR_RELEASE_REVISION_VERSION (3u)"
00002c63 5f41525f5245 
00002c69 4c454153455f 
00002c6f 524556495349 
00002c75 4f4e5f564552 
00002c7b 53494f4e2028 
00002c81 33752900 
00002c85 01             9014 	.byte	1
00002c86 10             9015 	.byte	16
00002c87 4d454d5f4152   9016 	.strz	"MEM_AR_RELEASE_MAJOR_VERSION MEMMAP_AR_RELEASE_MAJOR_VERSION"
00002c8d 5f52454c4541 
00002c93 53455f4d414a 
00002c99 4f525f564552 
00002c9f 53494f4e204d 
00002ca5 454d4d41505f 
00002cab 41525f52454c 
00002cb1 454153455f4d 
00002cb7 414a4f525f56 
00002cbd 455253494f4e 
00002cc3 00 
00002cc4 01             9017 	.byte	1
00002cc5 11             9018 	.byte	17
00002cc6 4d454d5f4152   9019 	.strz	"MEM_AR_RELEASE_MINOR_VERSION MEMMAP_AR_RELEASE_MINOR_VERSION"
00002ccc 5f52454c4541 
00002cd2 53455f4d494e 
00002cd8 4f525f564552 

                                                                      Page 188
                                                              C:\Users\nhuliyap\AppData\Local\Temp\gh_0000d941.s
00002cde 53494f4e204d 
00002ce4 454d4d41505f 
00002cea 41525f52454c 
00002cf0 454153455f4d 
00002cf6 494e4f525f56 
00002cfc 455253494f4e 
00002d02 00 
00002d03 01             9020 	.byte	1
00002d04 12             9021 	.byte	18
00002d05 4d454d5f4152   9022 	.strz	"MEM_AR_RELEASE_PATCH_VERSION MEMMAP_AR_RELEASE_REVISION_VERSION"
00002d0b 5f52454c4541 
00002d11 53455f504154 
00002d17 43485f564552 
00002d1d 53494f4e204d 
00002d23 454d4d41505f 
00002d29 41525f52454c 
00002d2f 454153455f52 
00002d35 45564953494f 
00002d3b 4e5f56455253 
00002d41 494f4e00 
00002d45 01             9023 	.byte	1
00002d46 18             9024 	.byte	24
00002d47 4d454d4d4150   9025 	.strz	"MEMMAP_SW_MAJOR_VERSION (1u)"
00002d4d 5f53575f4d41 
00002d53 4a4f525f5645 
00002d59 5253494f4e20 
00002d5f 2831752900 
00002d64 01             9026 	.byte	1
00002d65 19             9027 	.byte	25
00002d66 4d454d4d4150   9028 	.strz	"MEMMAP_SW_MINOR_VERSION (11u)"
00002d6c 5f53575f4d49 
00002d72 4e4f525f5645 
00002d78 5253494f4e20 
00002d7e 283131752900 
00002d84 01             9029 	.byte	1
00002d85 1a             9030 	.byte	26
00002d86 4d454d4d4150   9031 	.strz	"MEMMAP_SW_PATCH_VERSION (0u)"
00002d8c 5f53575f5041 
00002d92 5443485f5645 
00002d98 5253494f4e20 
00002d9e 2830752900 
00002da3 01             9032 	.byte	1
00002da4 20             9033 	.byte	32
00002da5 4d454d5f5357   9034 	.strz	"MEM_SW_MAJOR_VERSION MEMMAP_SW_MAJOR_VERSION"
00002dab 5f4d414a4f52 
00002db1 5f5645525349 
00002db7 4f4e204d454d 
00002dbd 4d41505f5357 
00002dc3 5f4d414a4f52 
00002dc9 5f5645525349 
00002dcf 4f4e00 
00002dd2 01             9035 	.byte	1
00002dd3 21             9036 	.byte	33
00002dd4 4d454d5f5357   9037 	.strz	"MEM_SW_MINOR_VERSION MEMMAP_SW_MINOR_VERSION"
00002dda 5f4d494e4f52 
00002de0 5f5645525349 
00002de6 4f4e204d454d 
00002dec 4d41505f5357 
00002df2 5f4d494e4f52 
00002df8 5f5645525349 
00002dfe 4f4e00 

                                                                      Page 189
                                                              C:\Users\nhuliyap\AppData\Local\Temp\gh_0000d941.s
00002e01 01             9038 	.byte	1
00002e02 22             9039 	.byte	34
00002e03 4d454d5f5357   9040 	.strz	"MEM_SW_PATCH_VERSION MEMMAP_SW_PATCH_VERSION"
00002e09 5f5041544348 
00002e0f 5f5645525349 
00002e15 4f4e204d454d 
00002e1b 4d41505f5357 
00002e21 5f5041544348 
00002e27 5f5645525349 
00002e2d 4f4e00 
00002e30 01             9041 	.byte	1
00002e31 24             9042 	.byte	36
00002e32 4d454d4d4150   9043 	.strz	"MEMMAP_ERROR "
00002e38 5f4552524f52 
00002e3e 2000 
00002e40 01             9044 	.byte	1
00002e41 e602           9045 	.byte	230,2
00002e43 53544152545f   9046 	.strz	"START_SEC_CODE "
00002e49 5345435f434f 
00002e4f 44452000 
00002e53 03             9047 	.byte	3
00002e54 f403           9048 	.byte	244,3
00002e56 12             9049 	.byte	18
00002e57 01             9050 	.byte	1
00002e58 f407           9051 	.byte	244,7
00002e5a 434f44455f53   9052 	.strz	"CODE_SEC_OPEN "
00002e60 45435f4f5045 
00002e66 4e2000 
00002e69 04             9053 	.byte	4
00002e6a 04             9054 	.byte	4
00002e6b 04             9055 	.byte	4
00002e6c 01             9056 	.byte	1
00002e6d bf01           9057 	.byte	191,1
00002e6f 525f46444c5f   9058 	.strz	"R_FDL_STOP_SEC_PUBLIC_CODE "
00002e75 53544f505f53 
00002e7b 45435f505542 
00002e81 4c49435f434f 
00002e87 44452000 
00002e8b 03             9059 	.byte	3
00002e8c c001           9060 	.byte	192,1
00002e8e 1b             9061 	.byte	27
00002e8f 01             9062 	.byte	1
00002e90 0f             9063 	.byte	15
00002e91 46444c5f5354   9064 	.strz	"FDL_STOP_SEC_PUBLIC_CODE "
00002e97 4f505f534543 
00002e9d 5f5055424c49 
00002ea3 435f434f4445 
00002ea9 2000 
00002eab 03             9065 	.byte	3
00002eac 20             9066 	.byte	32
00002ead 11             9067 	.byte	17
00002eae 01             9068 	.byte	1
00002eaf 02             9069 	.byte	2
00002eb0 4d454d4d4150   9070 	.strz	"MEMMAP_VENDOR_ID (30u)"
00002eb6 5f56454e444f 
00002ebc 525f49442028 
00002ec2 3330752900 
00002ec7 01             9071 	.byte	1
00002ec8 08             9072 	.byte	8
00002ec9 4d454d4d4150   9073 	.strz	"MEMMAP_AR_RELEASE_MAJOR_VERSION (4u)"
00002ecf 5f41525f5245 

                                                                      Page 190
                                                              C:\Users\nhuliyap\AppData\Local\Temp\gh_0000d941.s
00002ed5 4c454153455f 
00002edb 4d414a4f525f 
00002ee1 56455253494f 
00002ee7 4e2028347529 
00002eed 00 
00002eee 01             9074 	.byte	1
00002eef 09             9075 	.byte	9
00002ef0 4d454d4d4150   9076 	.strz	"MEMMAP_AR_RELEASE_MINOR_VERSION (0u)"
00002ef6 5f41525f5245 
00002efc 4c454153455f 
00002f02 4d494e4f525f 
00002f08 56455253494f 
00002f0e 4e2028307529 
00002f14 00 
00002f15 01             9077 	.byte	1
00002f16 0a             9078 	.byte	10
00002f17 4d454d4d4150   9079 	.strz	"MEMMAP_AR_RELEASE_REVISION_VERSION (3u)"
00002f1d 5f41525f5245 
00002f23 4c454153455f 
00002f29 524556495349 
00002f2f 4f4e5f564552 
00002f35 53494f4e2028 
00002f3b 33752900 
00002f3f 01             9080 	.byte	1
00002f40 10             9081 	.byte	16
00002f41 4d454d5f4152   9082 	.strz	"MEM_AR_RELEASE_MAJOR_VERSION MEMMAP_AR_RELEASE_MAJOR_VERSION"
00002f47 5f52454c4541 
00002f4d 53455f4d414a 
00002f53 4f525f564552 
00002f59 53494f4e204d 
00002f5f 454d4d41505f 
00002f65 41525f52454c 
00002f6b 454153455f4d 
00002f71 414a4f525f56 
00002f77 455253494f4e 
00002f7d 00 
00002f7e 01             9083 	.byte	1
00002f7f 11             9084 	.byte	17
00002f80 4d454d5f4152   9085 	.strz	"MEM_AR_RELEASE_MINOR_VERSION MEMMAP_AR_RELEASE_MINOR_VERSION"
00002f86 5f52454c4541 
00002f8c 53455f4d494e 
00002f92 4f525f564552 
00002f98 53494f4e204d 
00002f9e 454d4d41505f 
00002fa4 41525f52454c 
00002faa 454153455f4d 
00002fb0 494e4f525f56 
00002fb6 455253494f4e 
00002fbc 00 
00002fbd 01             9086 	.byte	1
00002fbe 12             9087 	.byte	18
00002fbf 4d454d5f4152   9088 	.strz	"MEM_AR_RELEASE_PATCH_VERSION MEMMAP_AR_RELEASE_REVISION_VERSION"
00002fc5 5f52454c4541 
00002fcb 53455f504154 
00002fd1 43485f564552 
00002fd7 53494f4e204d 
00002fdd 454d4d41505f 
00002fe3 41525f52454c 
00002fe9 454153455f52 
00002fef 45564953494f 
00002ff5 4e5f56455253 

                                                                      Page 191
                                                              C:\Users\nhuliyap\AppData\Local\Temp\gh_0000d941.s
00002ffb 494f4e00 
00002fff 01             9089 	.byte	1
00003000 18             9090 	.byte	24
00003001 4d454d4d4150   9091 	.strz	"MEMMAP_SW_MAJOR_VERSION (1u)"
00003007 5f53575f4d41 
0000300d 4a4f525f5645 
00003013 5253494f4e20 
00003019 2831752900 
0000301e 01             9092 	.byte	1
0000301f 19             9093 	.byte	25
00003020 4d454d4d4150   9094 	.strz	"MEMMAP_SW_MINOR_VERSION (11u)"
00003026 5f53575f4d49 
0000302c 4e4f525f5645 
00003032 5253494f4e20 
00003038 283131752900 
0000303e 01             9095 	.byte	1
0000303f 1a             9096 	.byte	26
00003040 4d454d4d4150   9097 	.strz	"MEMMAP_SW_PATCH_VERSION (0u)"
00003046 5f53575f5041 
0000304c 5443485f5645 
00003052 5253494f4e20 
00003058 2830752900 
0000305d 01             9098 	.byte	1
0000305e 20             9099 	.byte	32
0000305f 4d454d5f5357   9100 	.strz	"MEM_SW_MAJOR_VERSION MEMMAP_SW_MAJOR_VERSION"
00003065 5f4d414a4f52 
0000306b 5f5645525349 
00003071 4f4e204d454d 
00003077 4d41505f5357 
0000307d 5f4d414a4f52 
00003083 5f5645525349 
00003089 4f4e00 
0000308c 01             9101 	.byte	1
0000308d 21             9102 	.byte	33
0000308e 4d454d5f5357   9103 	.strz	"MEM_SW_MINOR_VERSION MEMMAP_SW_MINOR_VERSION"
00003094 5f4d494e4f52 
0000309a 5f5645525349 
000030a0 4f4e204d454d 
000030a6 4d41505f5357 
000030ac 5f4d494e4f52 
000030b2 5f5645525349 
000030b8 4f4e00 
000030bb 01             9104 	.byte	1
000030bc 22             9105 	.byte	34
000030bd 4d454d5f5357   9106 	.strz	"MEM_SW_PATCH_VERSION MEMMAP_SW_PATCH_VERSION"
000030c3 5f5041544348 
000030c9 5f5645525349 
000030cf 4f4e204d454d 
000030d5 4d41505f5357 
000030db 5f5041544348 
000030e1 5f5645525349 
000030e7 4f4e00 
000030ea 01             9107 	.byte	1
000030eb 24             9108 	.byte	36
000030ec 4d454d4d4150   9109 	.strz	"MEMMAP_ERROR "
000030f2 5f4552524f52 
000030f8 2000 
000030fa 01             9110 	.byte	1
000030fb ea02           9111 	.byte	234,2
000030fd 53544f505f53   9112 	.strz	"STOP_SEC_CODE "
00003103 45435f434f44 

                                                                      Page 192
                                                              C:\Users\nhuliyap\AppData\Local\Temp\gh_0000d941.s
00003109 452000 
0000310c 03             9113 	.byte	3
0000310d f403           9114 	.byte	244,3
0000310f 12             9115 	.byte	18
00003110 04             9116 	.byte	4
00003111 04             9117 	.byte	4
00003112 04             9118 	.byte	4
00003113 01             9119 	.byte	1
00003114 c201           9120 	.byte	194,1
00003116 525f46444c5f   9121 	.strz	"R_FDL_START_SEC_PUBLIC_CODE "
0000311c 53544152545f 
00003122 5345435f5055 
00003128 424c49435f43 
0000312e 4f44452000 
00003133 03             9122 	.byte	3
00003134 c301           9123 	.byte	195,1
00003136 1b             9124 	.byte	27
00003137 01             9125 	.byte	1
00003138 0c             9126 	.byte	12
00003139 46444c5f5354   9127 	.strz	"FDL_START_SEC_PUBLIC_CODE "
0000313f 4152545f5345 
00003145 435f5055424c 
0000314b 49435f434f44 
00003151 452000 
00003154 03             9128 	.byte	3
00003155 20             9129 	.byte	32
00003156 11             9130 	.byte	17
00003157 01             9131 	.byte	1
00003158 02             9132 	.byte	2
00003159 4d454d4d4150   9133 	.strz	"MEMMAP_VENDOR_ID (30u)"
0000315f 5f56454e444f 
00003165 525f49442028 
0000316b 3330752900 
00003170 01             9134 	.byte	1
00003171 08             9135 	.byte	8
00003172 4d454d4d4150   9136 	.strz	"MEMMAP_AR_RELEASE_MAJOR_VERSION (4u)"
00003178 5f41525f5245 
0000317e 4c454153455f 
00003184 4d414a4f525f 
0000318a 56455253494f 
00003190 4e2028347529 
00003196 00 
00003197 01             9137 	.byte	1
00003198 09             9138 	.byte	9
00003199 4d454d4d4150   9139 	.strz	"MEMMAP_AR_RELEASE_MINOR_VERSION (0u)"
0000319f 5f41525f5245 
000031a5 4c454153455f 
000031ab 4d494e4f525f 
000031b1 56455253494f 
000031b7 4e2028307529 
000031bd 00 
000031be 01             9140 	.byte	1
000031bf 0a             9141 	.byte	10
000031c0 4d454d4d4150   9142 	.strz	"MEMMAP_AR_RELEASE_REVISION_VERSION (3u)"
000031c6 5f41525f5245 
000031cc 4c454153455f 
000031d2 524556495349 
000031d8 4f4e5f564552 
000031de 53494f4e2028 
000031e4 33752900 
000031e8 01             9143 	.byte	1

                                                                      Page 193
                                                              C:\Users\nhuliyap\AppData\Local\Temp\gh_0000d941.s
000031e9 10             9144 	.byte	16
000031ea 4d454d5f4152   9145 	.strz	"MEM_AR_RELEASE_MAJOR_VERSION MEMMAP_AR_RELEASE_MAJOR_VERSION"
000031f0 5f52454c4541 
000031f6 53455f4d414a 
000031fc 4f525f564552 
00003202 53494f4e204d 
00003208 454d4d41505f 
0000320e 41525f52454c 
00003214 454153455f4d 
0000321a 414a4f525f56 
00003220 455253494f4e 
00003226 00 
00003227 01             9146 	.byte	1
00003228 11             9147 	.byte	17
00003229 4d454d5f4152   9148 	.strz	"MEM_AR_RELEASE_MINOR_VERSION MEMMAP_AR_RELEASE_MINOR_VERSION"
0000322f 5f52454c4541 
00003235 53455f4d494e 
0000323b 4f525f564552 
00003241 53494f4e204d 
00003247 454d4d41505f 
0000324d 41525f52454c 
00003253 454153455f4d 
00003259 494e4f525f56 
0000325f 455253494f4e 
00003265 00 
00003266 01             9149 	.byte	1
00003267 12             9150 	.byte	18
00003268 4d454d5f4152   9151 	.strz	"MEM_AR_RELEASE_PATCH_VERSION MEMMAP_AR_RELEASE_REVISION_VERSION"
0000326e 5f52454c4541 
00003274 53455f504154 
0000327a 43485f564552 
00003280 53494f4e204d 
00003286 454d4d41505f 
0000328c 41525f52454c 
00003292 454153455f52 
00003298 45564953494f 
0000329e 4e5f56455253 
000032a4 494f4e00 
000032a8 01             9152 	.byte	1
000032a9 18             9153 	.byte	24
000032aa 4d454d4d4150   9154 	.strz	"MEMMAP_SW_MAJOR_VERSION (1u)"
000032b0 5f53575f4d41 
000032b6 4a4f525f5645 
000032bc 5253494f4e20 
000032c2 2831752900 
000032c7 01             9155 	.byte	1
000032c8 19             9156 	.byte	25
000032c9 4d454d4d4150   9157 	.strz	"MEMMAP_SW_MINOR_VERSION (11u)"
000032cf 5f53575f4d49 
000032d5 4e4f525f5645 
000032db 5253494f4e20 
000032e1 283131752900 
000032e7 01             9158 	.byte	1
000032e8 1a             9159 	.byte	26
000032e9 4d454d4d4150   9160 	.strz	"MEMMAP_SW_PATCH_VERSION (0u)"
000032ef 5f53575f5041 
000032f5 5443485f5645 
000032fb 5253494f4e20 
00003301 2830752900 
00003306 01             9161 	.byte	1
00003307 20             9162 	.byte	32

                                                                      Page 194
                                                              C:\Users\nhuliyap\AppData\Local\Temp\gh_0000d941.s
00003308 4d454d5f5357   9163 	.strz	"MEM_SW_MAJOR_VERSION MEMMAP_SW_MAJOR_VERSION"
0000330e 5f4d414a4f52 
00003314 5f5645525349 
0000331a 4f4e204d454d 
00003320 4d41505f5357 
00003326 5f4d414a4f52 
0000332c 5f5645525349 
00003332 4f4e00 
00003335 01             9164 	.byte	1
00003336 21             9165 	.byte	33
00003337 4d454d5f5357   9166 	.strz	"MEM_SW_MINOR_VERSION MEMMAP_SW_MINOR_VERSION"
0000333d 5f4d494e4f52 
00003343 5f5645525349 
00003349 4f4e204d454d 
0000334f 4d41505f5357 
00003355 5f4d494e4f52 
0000335b 5f5645525349 
00003361 4f4e00 
00003364 01             9167 	.byte	1
00003365 22             9168 	.byte	34
00003366 4d454d5f5357   9169 	.strz	"MEM_SW_PATCH_VERSION MEMMAP_SW_PATCH_VERSION"
0000336c 5f5041544348 
00003372 5f5645525349 
00003378 4f4e204d454d 
0000337e 4d41505f5357 
00003384 5f5041544348 
0000338a 5f5645525349 
00003390 4f4e00 
00003393 01             9170 	.byte	1
00003394 24             9171 	.byte	36
00003395 4d454d4d4150   9172 	.strz	"MEMMAP_ERROR "
0000339b 5f4552524f52 
000033a1 2000 
000033a3 01             9173 	.byte	1
000033a4 e602           9174 	.byte	230,2
000033a6 53544152545f   9175 	.strz	"START_SEC_CODE "
000033ac 5345435f434f 
000033b2 44452000 
000033b6 03             9176 	.byte	3
000033b7 f403           9177 	.byte	244,3
000033b9 12             9178 	.byte	18
000033ba 01             9179 	.byte	1
000033bb f407           9180 	.byte	244,7
000033bd 434f44455f53   9181 	.strz	"CODE_SEC_OPEN "
000033c3 45435f4f5045 
000033c9 4e2000 
000033cc 04             9182 	.byte	4
000033cd 04             9183 	.byte	4
000033ce 04             9184 	.byte	4
000033cf 01             9185 	.byte	1
000033d0 ed01           9186 	.byte	237,1
000033d2 525f46444c5f   9187 	.strz	"R_FDL_STOP_SEC_PUBLIC_CODE "
000033d8 53544f505f53 
000033de 45435f505542 
000033e4 4c49435f434f 
000033ea 44452000 
000033ee 03             9188 	.byte	3
000033ef ee01           9189 	.byte	238,1
000033f1 1b             9190 	.byte	27
000033f2 01             9191 	.byte	1
000033f3 0f             9192 	.byte	15

                                                                      Page 195
                                                              C:\Users\nhuliyap\AppData\Local\Temp\gh_0000d941.s
000033f4 46444c5f5354   9193 	.strz	"FDL_STOP_SEC_PUBLIC_CODE "
000033fa 4f505f534543 
00003400 5f5055424c49 
00003406 435f434f4445 
0000340c 2000 
0000340e 03             9194 	.byte	3
0000340f 20             9195 	.byte	32
00003410 11             9196 	.byte	17
00003411 01             9197 	.byte	1
00003412 02             9198 	.byte	2
00003413 4d454d4d4150   9199 	.strz	"MEMMAP_VENDOR_ID (30u)"
00003419 5f56454e444f 
0000341f 525f49442028 
00003425 3330752900 
0000342a 01             9200 	.byte	1
0000342b 08             9201 	.byte	8
0000342c 4d454d4d4150   9202 	.strz	"MEMMAP_AR_RELEASE_MAJOR_VERSION (4u)"
00003432 5f41525f5245 
00003438 4c454153455f 
0000343e 4d414a4f525f 
00003444 56455253494f 
0000344a 4e2028347529 
00003450 00 
00003451 01             9203 	.byte	1
00003452 09             9204 	.byte	9
00003453 4d454d4d4150   9205 	.strz	"MEMMAP_AR_RELEASE_MINOR_VERSION (0u)"
00003459 5f41525f5245 
0000345f 4c454153455f 
00003465 4d494e4f525f 
0000346b 56455253494f 
00003471 4e2028307529 
00003477 00 
00003478 01             9206 	.byte	1
00003479 0a             9207 	.byte	10
0000347a 4d454d4d4150   9208 	.strz	"MEMMAP_AR_RELEASE_REVISION_VERSION (3u)"
00003480 5f41525f5245 
00003486 4c454153455f 
0000348c 524556495349 
00003492 4f4e5f564552 
00003498 53494f4e2028 
0000349e 33752900 
000034a2 01             9209 	.byte	1
000034a3 10             9210 	.byte	16
000034a4 4d454d5f4152   9211 	.strz	"MEM_AR_RELEASE_MAJOR_VERSION MEMMAP_AR_RELEASE_MAJOR_VERSION"
000034aa 5f52454c4541 
000034b0 53455f4d414a 
000034b6 4f525f564552 
000034bc 53494f4e204d 
000034c2 454d4d41505f 
000034c8 41525f52454c 
000034ce 454153455f4d 
000034d4 414a4f525f56 
000034da 455253494f4e 
000034e0 00 
000034e1 01             9212 	.byte	1
000034e2 11             9213 	.byte	17
000034e3 4d454d5f4152   9214 	.strz	"MEM_AR_RELEASE_MINOR_VERSION MEMMAP_AR_RELEASE_MINOR_VERSION"
000034e9 5f52454c4541 
000034ef 53455f4d494e 
000034f5 4f525f564552 
000034fb 53494f4e204d 

                                                                      Page 196
                                                              C:\Users\nhuliyap\AppData\Local\Temp\gh_0000d941.s
00003501 454d4d41505f 
00003507 41525f52454c 
0000350d 454153455f4d 
00003513 494e4f525f56 
00003519 455253494f4e 
0000351f 00 
00003520 01             9215 	.byte	1
00003521 12             9216 	.byte	18
00003522 4d454d5f4152   9217 	.strz	"MEM_AR_RELEASE_PATCH_VERSION MEMMAP_AR_RELEASE_REVISION_VERSION"
00003528 5f52454c4541 
0000352e 53455f504154 
00003534 43485f564552 
0000353a 53494f4e204d 
00003540 454d4d41505f 
00003546 41525f52454c 
0000354c 454153455f52 
00003552 45564953494f 
00003558 4e5f56455253 
0000355e 494f4e00 
00003562 01             9218 	.byte	1
00003563 18             9219 	.byte	24
00003564 4d454d4d4150   9220 	.strz	"MEMMAP_SW_MAJOR_VERSION (1u)"
0000356a 5f53575f4d41 
00003570 4a4f525f5645 
00003576 5253494f4e20 
0000357c 2831752900 
00003581 01             9221 	.byte	1
00003582 19             9222 	.byte	25
00003583 4d454d4d4150   9223 	.strz	"MEMMAP_SW_MINOR_VERSION (11u)"
00003589 5f53575f4d49 
0000358f 4e4f525f5645 
00003595 5253494f4e20 
0000359b 283131752900 
000035a1 01             9224 	.byte	1
000035a2 1a             9225 	.byte	26
000035a3 4d454d4d4150   9226 	.strz	"MEMMAP_SW_PATCH_VERSION (0u)"
000035a9 5f53575f5041 
000035af 5443485f5645 
000035b5 5253494f4e20 
000035bb 2830752900 
000035c0 01             9227 	.byte	1
000035c1 20             9228 	.byte	32
000035c2 4d454d5f5357   9229 	.strz	"MEM_SW_MAJOR_VERSION MEMMAP_SW_MAJOR_VERSION"
000035c8 5f4d414a4f52 
000035ce 5f5645525349 
000035d4 4f4e204d454d 
000035da 4d41505f5357 
000035e0 5f4d414a4f52 
000035e6 5f5645525349 
000035ec 4f4e00 
000035ef 01             9230 	.byte	1
000035f0 21             9231 	.byte	33
000035f1 4d454d5f5357   9232 	.strz	"MEM_SW_MINOR_VERSION MEMMAP_SW_MINOR_VERSION"
000035f7 5f4d494e4f52 
000035fd 5f5645525349 
00003603 4f4e204d454d 
00003609 4d41505f5357 
0000360f 5f4d494e4f52 
00003615 5f5645525349 
0000361b 4f4e00 
0000361e 01             9233 	.byte	1

                                                                      Page 197
                                                              C:\Users\nhuliyap\AppData\Local\Temp\gh_0000d941.s
0000361f 22             9234 	.byte	34
00003620 4d454d5f5357   9235 	.strz	"MEM_SW_PATCH_VERSION MEMMAP_SW_PATCH_VERSION"
00003626 5f5041544348 
0000362c 5f5645525349 
00003632 4f4e204d454d 
00003638 4d41505f5357 
0000363e 5f5041544348 
00003644 5f5645525349 
0000364a 4f4e00 
0000364d 01             9236 	.byte	1
0000364e 24             9237 	.byte	36
0000364f 4d454d4d4150   9238 	.strz	"MEMMAP_ERROR "
00003655 5f4552524f52 
0000365b 2000 
0000365d 01             9239 	.byte	1
0000365e ea02           9240 	.byte	234,2
00003660 53544f505f53   9241 	.strz	"STOP_SEC_CODE "
00003666 45435f434f44 
0000366c 452000 
0000366f 03             9242 	.byte	3
00003670 f403           9243 	.byte	244,3
00003672 12             9244 	.byte	18
00003673 04             9245 	.byte	4
00003674 04             9246 	.byte	4
00003675 04             9247 	.byte	4
00003676 01             9248 	.byte	1
00003677 f001           9249 	.byte	240,1
00003679 525f46444c5f   9250 	.strz	"R_FDL_START_SEC_PUBLIC_CODE "
0000367f 53544152545f 
00003685 5345435f5055 
0000368b 424c49435f43 
00003691 4f44452000 
00003696 03             9251 	.byte	3
00003697 f101           9252 	.byte	241,1
00003699 1b             9253 	.byte	27
0000369a 01             9254 	.byte	1
0000369b 0c             9255 	.byte	12
0000369c 46444c5f5354   9256 	.strz	"FDL_START_SEC_PUBLIC_CODE "
000036a2 4152545f5345 
000036a8 435f5055424c 
000036ae 49435f434f44 
000036b4 452000 
000036b7 03             9257 	.byte	3
000036b8 20             9258 	.byte	32
000036b9 11             9259 	.byte	17
000036ba 01             9260 	.byte	1
000036bb 02             9261 	.byte	2
000036bc 4d454d4d4150   9262 	.strz	"MEMMAP_VENDOR_ID (30u)"
000036c2 5f56454e444f 
000036c8 525f49442028 
000036ce 3330752900 
000036d3 01             9263 	.byte	1
000036d4 08             9264 	.byte	8
000036d5 4d454d4d4150   9265 	.strz	"MEMMAP_AR_RELEASE_MAJOR_VERSION (4u)"
000036db 5f41525f5245 
000036e1 4c454153455f 
000036e7 4d414a4f525f 
000036ed 56455253494f 
000036f3 4e2028347529 
000036f9 00 
000036fa 01             9266 	.byte	1

                                                                      Page 198
                                                              C:\Users\nhuliyap\AppData\Local\Temp\gh_0000d941.s
000036fb 09             9267 	.byte	9
000036fc 4d454d4d4150   9268 	.strz	"MEMMAP_AR_RELEASE_MINOR_VERSION (0u)"
00003702 5f41525f5245 
00003708 4c454153455f 
0000370e 4d494e4f525f 
00003714 56455253494f 
0000371a 4e2028307529 
00003720 00 
00003721 01             9269 	.byte	1
00003722 0a             9270 	.byte	10
00003723 4d454d4d4150   9271 	.strz	"MEMMAP_AR_RELEASE_REVISION_VERSION (3u)"
00003729 5f41525f5245 
0000372f 4c454153455f 
00003735 524556495349 
0000373b 4f4e5f564552 
00003741 53494f4e2028 
00003747 33752900 
0000374b 01             9272 	.byte	1
0000374c 10             9273 	.byte	16
0000374d 4d454d5f4152   9274 	.strz	"MEM_AR_RELEASE_MAJOR_VERSION MEMMAP_AR_RELEASE_MAJOR_VERSION"
00003753 5f52454c4541 
00003759 53455f4d414a 
0000375f 4f525f564552 
00003765 53494f4e204d 
0000376b 454d4d41505f 
00003771 41525f52454c 
00003777 454153455f4d 
0000377d 414a4f525f56 
00003783 455253494f4e 
00003789 00 
0000378a 01             9275 	.byte	1
0000378b 11             9276 	.byte	17
0000378c 4d454d5f4152   9277 	.strz	"MEM_AR_RELEASE_MINOR_VERSION MEMMAP_AR_RELEASE_MINOR_VERSION"
00003792 5f52454c4541 
00003798 53455f4d494e 
0000379e 4f525f564552 
000037a4 53494f4e204d 
000037aa 454d4d41505f 
000037b0 41525f52454c 
000037b6 454153455f4d 
000037bc 494e4f525f56 
000037c2 455253494f4e 
000037c8 00 
000037c9 01             9278 	.byte	1
000037ca 12             9279 	.byte	18
000037cb 4d454d5f4152   9280 	.strz	"MEM_AR_RELEASE_PATCH_VERSION MEMMAP_AR_RELEASE_REVISION_VERSION"
000037d1 5f52454c4541 
000037d7 53455f504154 
000037dd 43485f564552 
000037e3 53494f4e204d 
000037e9 454d4d41505f 
000037ef 41525f52454c 
000037f5 454153455f52 
000037fb 45564953494f 
00003801 4e5f56455253 
00003807 494f4e00 
0000380b 01             9281 	.byte	1
0000380c 18             9282 	.byte	24
0000380d 4d454d4d4150   9283 	.strz	"MEMMAP_SW_MAJOR_VERSION (1u)"
00003813 5f53575f4d41 
00003819 4a4f525f5645 

                                                                      Page 199
                                                              C:\Users\nhuliyap\AppData\Local\Temp\gh_0000d941.s
0000381f 5253494f4e20 
00003825 2831752900 
0000382a 01             9284 	.byte	1
0000382b 19             9285 	.byte	25
0000382c 4d454d4d4150   9286 	.strz	"MEMMAP_SW_MINOR_VERSION (11u)"
00003832 5f53575f4d49 
00003838 4e4f525f5645 
0000383e 5253494f4e20 
00003844 283131752900 
0000384a 01             9287 	.byte	1
0000384b 1a             9288 	.byte	26
0000384c 4d454d4d4150   9289 	.strz	"MEMMAP_SW_PATCH_VERSION (0u)"
00003852 5f53575f5041 
00003858 5443485f5645 
0000385e 5253494f4e20 
00003864 2830752900 
00003869 01             9290 	.byte	1
0000386a 20             9291 	.byte	32
0000386b 4d454d5f5357   9292 	.strz	"MEM_SW_MAJOR_VERSION MEMMAP_SW_MAJOR_VERSION"
00003871 5f4d414a4f52 
00003877 5f5645525349 
0000387d 4f4e204d454d 
00003883 4d41505f5357 
00003889 5f4d414a4f52 
0000388f 5f5645525349 
00003895 4f4e00 
00003898 01             9293 	.byte	1
00003899 21             9294 	.byte	33
0000389a 4d454d5f5357   9295 	.strz	"MEM_SW_MINOR_VERSION MEMMAP_SW_MINOR_VERSION"
000038a0 5f4d494e4f52 
000038a6 5f5645525349 
000038ac 4f4e204d454d 
000038b2 4d41505f5357 
000038b8 5f4d494e4f52 
000038be 5f5645525349 
000038c4 4f4e00 
000038c7 01             9296 	.byte	1
000038c8 22             9297 	.byte	34
000038c9 4d454d5f5357   9298 	.strz	"MEM_SW_PATCH_VERSION MEMMAP_SW_PATCH_VERSION"
000038cf 5f5041544348 
000038d5 5f5645525349 
000038db 4f4e204d454d 
000038e1 4d41505f5357 
000038e7 5f5041544348 
000038ed 5f5645525349 
000038f3 4f4e00 
000038f6 01             9299 	.byte	1
000038f7 24             9300 	.byte	36
000038f8 4d454d4d4150   9301 	.strz	"MEMMAP_ERROR "
000038fe 5f4552524f52 
00003904 2000 
00003906 01             9302 	.byte	1
00003907 e602           9303 	.byte	230,2
00003909 53544152545f   9304 	.strz	"START_SEC_CODE "
0000390f 5345435f434f 
00003915 44452000 
00003919 03             9305 	.byte	3
0000391a f403           9306 	.byte	244,3
0000391c 12             9307 	.byte	18
0000391d 01             9308 	.byte	1
0000391e f407           9309 	.byte	244,7

                                                                      Page 200
                                                              C:\Users\nhuliyap\AppData\Local\Temp\gh_0000d941.s
00003920 434f44455f53   9310 	.strz	"CODE_SEC_OPEN "
00003926 45435f4f5045 
0000392c 4e2000 
0000392f 04             9311 	.byte	4
00003930 04             9312 	.byte	4
00003931 04             9313 	.byte	4
00003932 01             9314 	.byte	1
00003933 8602           9315 	.byte	134,2
00003935 525f46444c5f   9316 	.strz	"R_FDL_STOP_SEC_PUBLIC_CODE "
0000393b 53544f505f53 
00003941 45435f505542 
00003947 4c49435f434f 
0000394d 44452000 
00003951 03             9317 	.byte	3
00003952 8702           9318 	.byte	135,2
00003954 1b             9319 	.byte	27
00003955 01             9320 	.byte	1
00003956 0f             9321 	.byte	15
00003957 46444c5f5354   9322 	.strz	"FDL_STOP_SEC_PUBLIC_CODE "
0000395d 4f505f534543 
00003963 5f5055424c49 
00003969 435f434f4445 
0000396f 2000 
00003971 03             9323 	.byte	3
00003972 20             9324 	.byte	32
00003973 11             9325 	.byte	17
00003974 01             9326 	.byte	1
00003975 02             9327 	.byte	2
00003976 4d454d4d4150   9328 	.strz	"MEMMAP_VENDOR_ID (30u)"
0000397c 5f56454e444f 
00003982 525f49442028 
00003988 3330752900 
0000398d 01             9329 	.byte	1
0000398e 08             9330 	.byte	8
0000398f 4d454d4d4150   9331 	.strz	"MEMMAP_AR_RELEASE_MAJOR_VERSION (4u)"
00003995 5f41525f5245 
0000399b 4c454153455f 
000039a1 4d414a4f525f 
000039a7 56455253494f 
000039ad 4e2028347529 
000039b3 00 
000039b4 01             9332 	.byte	1
000039b5 09             9333 	.byte	9
000039b6 4d454d4d4150   9334 	.strz	"MEMMAP_AR_RELEASE_MINOR_VERSION (0u)"
000039bc 5f41525f5245 
000039c2 4c454153455f 
000039c8 4d494e4f525f 
000039ce 56455253494f 
000039d4 4e2028307529 
000039da 00 
000039db 01             9335 	.byte	1
000039dc 0a             9336 	.byte	10
000039dd 4d454d4d4150   9337 	.strz	"MEMMAP_AR_RELEASE_REVISION_VERSION (3u)"
000039e3 5f41525f5245 
000039e9 4c454153455f 
000039ef 524556495349 
000039f5 4f4e5f564552 
000039fb 53494f4e2028 
00003a01 33752900 
00003a05 01             9338 	.byte	1
00003a06 10             9339 	.byte	16

                                                                      Page 201
                                                              C:\Users\nhuliyap\AppData\Local\Temp\gh_0000d941.s
00003a07 4d454d5f4152   9340 	.strz	"MEM_AR_RELEASE_MAJOR_VERSION MEMMAP_AR_RELEASE_MAJOR_VERSION"
00003a0d 5f52454c4541 
00003a13 53455f4d414a 
00003a19 4f525f564552 
00003a1f 53494f4e204d 
00003a25 454d4d41505f 
00003a2b 41525f52454c 
00003a31 454153455f4d 
00003a37 414a4f525f56 
00003a3d 455253494f4e 
00003a43 00 
00003a44 01             9341 	.byte	1
00003a45 11             9342 	.byte	17
00003a46 4d454d5f4152   9343 	.strz	"MEM_AR_RELEASE_MINOR_VERSION MEMMAP_AR_RELEASE_MINOR_VERSION"
00003a4c 5f52454c4541 
00003a52 53455f4d494e 
00003a58 4f525f564552 
00003a5e 53494f4e204d 
00003a64 454d4d41505f 
00003a6a 41525f52454c 
00003a70 454153455f4d 
00003a76 494e4f525f56 
00003a7c 455253494f4e 
00003a82 00 
00003a83 01             9344 	.byte	1
00003a84 12             9345 	.byte	18
00003a85 4d454d5f4152   9346 	.strz	"MEM_AR_RELEASE_PATCH_VERSION MEMMAP_AR_RELEASE_REVISION_VERSION"
00003a8b 5f52454c4541 
00003a91 53455f504154 
00003a97 43485f564552 
00003a9d 53494f4e204d 
00003aa3 454d4d41505f 
00003aa9 41525f52454c 
00003aaf 454153455f52 
00003ab5 45564953494f 
00003abb 4e5f56455253 
00003ac1 494f4e00 
00003ac5 01             9347 	.byte	1
00003ac6 18             9348 	.byte	24
00003ac7 4d454d4d4150   9349 	.strz	"MEMMAP_SW_MAJOR_VERSION (1u)"
00003acd 5f53575f4d41 
00003ad3 4a4f525f5645 
00003ad9 5253494f4e20 
00003adf 2831752900 
00003ae4 01             9350 	.byte	1
00003ae5 19             9351 	.byte	25
00003ae6 4d454d4d4150   9352 	.strz	"MEMMAP_SW_MINOR_VERSION (11u)"
00003aec 5f53575f4d49 
00003af2 4e4f525f5645 
00003af8 5253494f4e20 
00003afe 283131752900 
00003b04 01             9353 	.byte	1
00003b05 1a             9354 	.byte	26
00003b06 4d454d4d4150   9355 	.strz	"MEMMAP_SW_PATCH_VERSION (0u)"
00003b0c 5f53575f5041 
00003b12 5443485f5645 
00003b18 5253494f4e20 
00003b1e 2830752900 
00003b23 01             9356 	.byte	1
00003b24 20             9357 	.byte	32
00003b25 4d454d5f5357   9358 	.strz	"MEM_SW_MAJOR_VERSION MEMMAP_SW_MAJOR_VERSION"

                                                                      Page 202
                                                              C:\Users\nhuliyap\AppData\Local\Temp\gh_0000d941.s
00003b2b 5f4d414a4f52 
00003b31 5f5645525349 
00003b37 4f4e204d454d 
00003b3d 4d41505f5357 
00003b43 5f4d414a4f52 
00003b49 5f5645525349 
00003b4f 4f4e00 
00003b52 01             9359 	.byte	1
00003b53 21             9360 	.byte	33
00003b54 4d454d5f5357   9361 	.strz	"MEM_SW_MINOR_VERSION MEMMAP_SW_MINOR_VERSION"
00003b5a 5f4d494e4f52 
00003b60 5f5645525349 
00003b66 4f4e204d454d 
00003b6c 4d41505f5357 
00003b72 5f4d494e4f52 
00003b78 5f5645525349 
00003b7e 4f4e00 
00003b81 01             9362 	.byte	1
00003b82 22             9363 	.byte	34
00003b83 4d454d5f5357   9364 	.strz	"MEM_SW_PATCH_VERSION MEMMAP_SW_PATCH_VERSION"
00003b89 5f5041544348 
00003b8f 5f5645525349 
00003b95 4f4e204d454d 
00003b9b 4d41505f5357 
00003ba1 5f5041544348 
00003ba7 5f5645525349 
00003bad 4f4e00 
00003bb0 01             9365 	.byte	1
00003bb1 24             9366 	.byte	36
00003bb2 4d454d4d4150   9367 	.strz	"MEMMAP_ERROR "
00003bb8 5f4552524f52 
00003bbe 2000 
00003bc0 01             9368 	.byte	1
00003bc1 ea02           9369 	.byte	234,2
00003bc3 53544f505f53   9370 	.strz	"STOP_SEC_CODE "
00003bc9 45435f434f44 
00003bcf 452000 
00003bd2 03             9371 	.byte	3
00003bd3 f403           9372 	.byte	244,3
00003bd5 12             9373 	.byte	18
00003bd6 04             9374 	.byte	4
00003bd7 04             9375 	.byte	4
00003bd8 04             9376 	.byte	4
00003bd9 01             9377 	.byte	1
00003bda 8902           9378 	.byte	137,2
00003bdc 525f46444c5f   9379 	.strz	"R_FDL_START_SEC_PUBLIC_CODE "
00003be2 53544152545f 
00003be8 5345435f5055 
00003bee 424c49435f43 
00003bf4 4f44452000 
00003bf9 03             9380 	.byte	3
00003bfa 8a02           9381 	.byte	138,2
00003bfc 1b             9382 	.byte	27
00003bfd 01             9383 	.byte	1
00003bfe 0c             9384 	.byte	12
00003bff 46444c5f5354   9385 	.strz	"FDL_START_SEC_PUBLIC_CODE "
00003c05 4152545f5345 
00003c0b 435f5055424c 
00003c11 49435f434f44 
00003c17 452000 
00003c1a 03             9386 	.byte	3

                                                                      Page 203
                                                              C:\Users\nhuliyap\AppData\Local\Temp\gh_0000d941.s
00003c1b 20             9387 	.byte	32
00003c1c 11             9388 	.byte	17
00003c1d 01             9389 	.byte	1
00003c1e 02             9390 	.byte	2
00003c1f 4d454d4d4150   9391 	.strz	"MEMMAP_VENDOR_ID (30u)"
00003c25 5f56454e444f 
00003c2b 525f49442028 
00003c31 3330752900 
00003c36 01             9392 	.byte	1
00003c37 08             9393 	.byte	8
00003c38 4d454d4d4150   9394 	.strz	"MEMMAP_AR_RELEASE_MAJOR_VERSION (4u)"
00003c3e 5f41525f5245 
00003c44 4c454153455f 
00003c4a 4d414a4f525f 
00003c50 56455253494f 
00003c56 4e2028347529 
00003c5c 00 
00003c5d 01             9395 	.byte	1
00003c5e 09             9396 	.byte	9
00003c5f 4d454d4d4150   9397 	.strz	"MEMMAP_AR_RELEASE_MINOR_VERSION (0u)"
00003c65 5f41525f5245 
00003c6b 4c454153455f 
00003c71 4d494e4f525f 
00003c77 56455253494f 
00003c7d 4e2028307529 
00003c83 00 
00003c84 01             9398 	.byte	1
00003c85 0a             9399 	.byte	10
00003c86 4d454d4d4150   9400 	.strz	"MEMMAP_AR_RELEASE_REVISION_VERSION (3u)"
00003c8c 5f41525f5245 
00003c92 4c454153455f 
00003c98 524556495349 
00003c9e 4f4e5f564552 
00003ca4 53494f4e2028 
00003caa 33752900 
00003cae 01             9401 	.byte	1
00003caf 10             9402 	.byte	16
00003cb0 4d454d5f4152   9403 	.strz	"MEM_AR_RELEASE_MAJOR_VERSION MEMMAP_AR_RELEASE_MAJOR_VERSION"
00003cb6 5f52454c4541 
00003cbc 53455f4d414a 
00003cc2 4f525f564552 
00003cc8 53494f4e204d 
00003cce 454d4d41505f 
00003cd4 41525f52454c 
00003cda 454153455f4d 
00003ce0 414a4f525f56 
00003ce6 455253494f4e 
00003cec 00 
00003ced 01             9404 	.byte	1
00003cee 11             9405 	.byte	17
00003cef 4d454d5f4152   9406 	.strz	"MEM_AR_RELEASE_MINOR_VERSION MEMMAP_AR_RELEASE_MINOR_VERSION"
00003cf5 5f52454c4541 
00003cfb 53455f4d494e 
00003d01 4f525f564552 
00003d07 53494f4e204d 
00003d0d 454d4d41505f 
00003d13 41525f52454c 
00003d19 454153455f4d 
00003d1f 494e4f525f56 
00003d25 455253494f4e 
00003d2b 00 

                                                                      Page 204
                                                              C:\Users\nhuliyap\AppData\Local\Temp\gh_0000d941.s
00003d2c 01             9407 	.byte	1
00003d2d 12             9408 	.byte	18
00003d2e 4d454d5f4152   9409 	.strz	"MEM_AR_RELEASE_PATCH_VERSION MEMMAP_AR_RELEASE_REVISION_VERSION"
00003d34 5f52454c4541 
00003d3a 53455f504154 
00003d40 43485f564552 
00003d46 53494f4e204d 
00003d4c 454d4d41505f 
00003d52 41525f52454c 
00003d58 454153455f52 
00003d5e 45564953494f 
00003d64 4e5f56455253 
00003d6a 494f4e00 
00003d6e 01             9410 	.byte	1
00003d6f 18             9411 	.byte	24
00003d70 4d454d4d4150   9412 	.strz	"MEMMAP_SW_MAJOR_VERSION (1u)"
00003d76 5f53575f4d41 
00003d7c 4a4f525f5645 
00003d82 5253494f4e20 
00003d88 2831752900 
00003d8d 01             9413 	.byte	1
00003d8e 19             9414 	.byte	25
00003d8f 4d454d4d4150   9415 	.strz	"MEMMAP_SW_MINOR_VERSION (11u)"
00003d95 5f53575f4d49 
00003d9b 4e4f525f5645 
00003da1 5253494f4e20 
00003da7 283131752900 
00003dad 01             9416 	.byte	1
00003dae 1a             9417 	.byte	26
00003daf 4d454d4d4150   9418 	.strz	"MEMMAP_SW_PATCH_VERSION (0u)"
00003db5 5f53575f5041 
00003dbb 5443485f5645 
00003dc1 5253494f4e20 
00003dc7 2830752900 
00003dcc 01             9419 	.byte	1
00003dcd 20             9420 	.byte	32
00003dce 4d454d5f5357   9421 	.strz	"MEM_SW_MAJOR_VERSION MEMMAP_SW_MAJOR_VERSION"
00003dd4 5f4d414a4f52 
00003dda 5f5645525349 
00003de0 4f4e204d454d 
00003de6 4d41505f5357 
00003dec 5f4d414a4f52 
00003df2 5f5645525349 
00003df8 4f4e00 
00003dfb 01             9422 	.byte	1
00003dfc 21             9423 	.byte	33
00003dfd 4d454d5f5357   9424 	.strz	"MEM_SW_MINOR_VERSION MEMMAP_SW_MINOR_VERSION"
00003e03 5f4d494e4f52 
00003e09 5f5645525349 
00003e0f 4f4e204d454d 
00003e15 4d41505f5357 
00003e1b 5f4d494e4f52 
00003e21 5f5645525349 
00003e27 4f4e00 
00003e2a 01             9425 	.byte	1
00003e2b 22             9426 	.byte	34
00003e2c 4d454d5f5357   9427 	.strz	"MEM_SW_PATCH_VERSION MEMMAP_SW_PATCH_VERSION"
00003e32 5f5041544348 
00003e38 5f5645525349 
00003e3e 4f4e204d454d 
00003e44 4d41505f5357 

                                                                      Page 205
                                                              C:\Users\nhuliyap\AppData\Local\Temp\gh_0000d941.s
00003e4a 5f5041544348 
00003e50 5f5645525349 
00003e56 4f4e00 
00003e59 01             9428 	.byte	1
00003e5a 24             9429 	.byte	36
00003e5b 4d454d4d4150   9430 	.strz	"MEMMAP_ERROR "
00003e61 5f4552524f52 
00003e67 2000 
00003e69 01             9431 	.byte	1
00003e6a e602           9432 	.byte	230,2
00003e6c 53544152545f   9433 	.strz	"START_SEC_CODE "
00003e72 5345435f434f 
00003e78 44452000 
00003e7c 03             9434 	.byte	3
00003e7d f403           9435 	.byte	244,3
00003e7f 12             9436 	.byte	18
00003e80 01             9437 	.byte	1
00003e81 f407           9438 	.byte	244,7
00003e83 434f44455f53   9439 	.strz	"CODE_SEC_OPEN "
00003e89 45435f4f5045 
00003e8f 4e2000 
00003e92 04             9440 	.byte	4
00003e93 04             9441 	.byte	4
00003e94 04             9442 	.byte	4
00003e95 01             9443 	.byte	1
00003e96 d102           9444 	.byte	209,2
00003e98 525f46444c5f   9445 	.strz	"R_FDL_STOP_SEC_PUBLIC_CODE "
00003e9e 53544f505f53 
00003ea4 45435f505542 
00003eaa 4c49435f434f 
00003eb0 44452000 
00003eb4 03             9446 	.byte	3
00003eb5 d202           9447 	.byte	210,2
00003eb7 1b             9448 	.byte	27
00003eb8 01             9449 	.byte	1
00003eb9 0f             9450 	.byte	15
00003eba 46444c5f5354   9451 	.strz	"FDL_STOP_SEC_PUBLIC_CODE "
00003ec0 4f505f534543 
00003ec6 5f5055424c49 
00003ecc 435f434f4445 
00003ed2 2000 
00003ed4 03             9452 	.byte	3
00003ed5 20             9453 	.byte	32
00003ed6 11             9454 	.byte	17
00003ed7 01             9455 	.byte	1
00003ed8 02             9456 	.byte	2
00003ed9 4d454d4d4150   9457 	.strz	"MEMMAP_VENDOR_ID (30u)"
00003edf 5f56454e444f 
00003ee5 525f49442028 
00003eeb 3330752900 
00003ef0 01             9458 	.byte	1
00003ef1 08             9459 	.byte	8
00003ef2 4d454d4d4150   9460 	.strz	"MEMMAP_AR_RELEASE_MAJOR_VERSION (4u)"
00003ef8 5f41525f5245 
00003efe 4c454153455f 
00003f04 4d414a4f525f 
00003f0a 56455253494f 
00003f10 4e2028347529 
00003f16 00 
00003f17 01             9461 	.byte	1
00003f18 09             9462 	.byte	9

                                                                      Page 206
                                                              C:\Users\nhuliyap\AppData\Local\Temp\gh_0000d941.s
00003f19 4d454d4d4150   9463 	.strz	"MEMMAP_AR_RELEASE_MINOR_VERSION (0u)"
00003f1f 5f41525f5245 
00003f25 4c454153455f 
00003f2b 4d494e4f525f 
00003f31 56455253494f 
00003f37 4e2028307529 
00003f3d 00 
00003f3e 01             9464 	.byte	1
00003f3f 0a             9465 	.byte	10
00003f40 4d454d4d4150   9466 	.strz	"MEMMAP_AR_RELEASE_REVISION_VERSION (3u)"
00003f46 5f41525f5245 
00003f4c 4c454153455f 
00003f52 524556495349 
00003f58 4f4e5f564552 
00003f5e 53494f4e2028 
00003f64 33752900 
00003f68 01             9467 	.byte	1
00003f69 10             9468 	.byte	16
00003f6a 4d454d5f4152   9469 	.strz	"MEM_AR_RELEASE_MAJOR_VERSION MEMMAP_AR_RELEASE_MAJOR_VERSION"
00003f70 5f52454c4541 
00003f76 53455f4d414a 
00003f7c 4f525f564552 
00003f82 53494f4e204d 
00003f88 454d4d41505f 
00003f8e 41525f52454c 
00003f94 454153455f4d 
00003f9a 414a4f525f56 
00003fa0 455253494f4e 
00003fa6 00 
00003fa7 01             9470 	.byte	1
00003fa8 11             9471 	.byte	17
00003fa9 4d454d5f4152   9472 	.strz	"MEM_AR_RELEASE_MINOR_VERSION MEMMAP_AR_RELEASE_MINOR_VERSION"
00003faf 5f52454c4541 
00003fb5 53455f4d494e 
00003fbb 4f525f564552 
00003fc1 53494f4e204d 
00003fc7 454d4d41505f 
00003fcd 41525f52454c 
00003fd3 454153455f4d 
00003fd9 494e4f525f56 
00003fdf 455253494f4e 
00003fe5 00 
00003fe6 01             9473 	.byte	1
00003fe7 12             9474 	.byte	18
00003fe8 4d454d5f4152   9475 	.strz	"MEM_AR_RELEASE_PATCH_VERSION MEMMAP_AR_RELEASE_REVISION_VERSION"
00003fee 5f52454c4541 
00003ff4 53455f504154 
00003ffa 43485f564552 
00004000 53494f4e204d 
00004006 454d4d41505f 
0000400c 41525f52454c 
00004012 454153455f52 
00004018 45564953494f 
0000401e 4e5f56455253 
00004024 494f4e00 
00004028 01             9476 	.byte	1
00004029 18             9477 	.byte	24
0000402a 4d454d4d4150   9478 	.strz	"MEMMAP_SW_MAJOR_VERSION (1u)"
00004030 5f53575f4d41 
00004036 4a4f525f5645 
0000403c 5253494f4e20 

                                                                      Page 207
                                                              C:\Users\nhuliyap\AppData\Local\Temp\gh_0000d941.s
00004042 2831752900 
00004047 01             9479 	.byte	1
00004048 19             9480 	.byte	25
00004049 4d454d4d4150   9481 	.strz	"MEMMAP_SW_MINOR_VERSION (11u)"
0000404f 5f53575f4d49 
00004055 4e4f525f5645 
0000405b 5253494f4e20 
00004061 283131752900 
00004067 01             9482 	.byte	1
00004068 1a             9483 	.byte	26
00004069 4d454d4d4150   9484 	.strz	"MEMMAP_SW_PATCH_VERSION (0u)"
0000406f 5f53575f5041 
00004075 5443485f5645 
0000407b 5253494f4e20 
00004081 2830752900 
00004086 01             9485 	.byte	1
00004087 20             9486 	.byte	32
00004088 4d454d5f5357   9487 	.strz	"MEM_SW_MAJOR_VERSION MEMMAP_SW_MAJOR_VERSION"
0000408e 5f4d414a4f52 
00004094 5f5645525349 
0000409a 4f4e204d454d 
000040a0 4d41505f5357 
000040a6 5f4d414a4f52 
000040ac 5f5645525349 
000040b2 4f4e00 
000040b5 01             9488 	.byte	1
000040b6 21             9489 	.byte	33
000040b7 4d454d5f5357   9490 	.strz	"MEM_SW_MINOR_VERSION MEMMAP_SW_MINOR_VERSION"
000040bd 5f4d494e4f52 
000040c3 5f5645525349 
000040c9 4f4e204d454d 
000040cf 4d41505f5357 
000040d5 5f4d494e4f52 
000040db 5f5645525349 
000040e1 4f4e00 
000040e4 01             9491 	.byte	1
000040e5 22             9492 	.byte	34
000040e6 4d454d5f5357   9493 	.strz	"MEM_SW_PATCH_VERSION MEMMAP_SW_PATCH_VERSION"
000040ec 5f5041544348 
000040f2 5f5645525349 
000040f8 4f4e204d454d 
000040fe 4d41505f5357 
00004104 5f5041544348 
0000410a 5f5645525349 
00004110 4f4e00 
00004113 01             9494 	.byte	1
00004114 24             9495 	.byte	36
00004115 4d454d4d4150   9496 	.strz	"MEMMAP_ERROR "
0000411b 5f4552524f52 
00004121 2000 
00004123 01             9497 	.byte	1
00004124 ea02           9498 	.byte	234,2
00004126 53544f505f53   9499 	.strz	"STOP_SEC_CODE "
0000412c 45435f434f44 
00004132 452000 
00004135 03             9500 	.byte	3
00004136 f403           9501 	.byte	244,3
00004138 12             9502 	.byte	18
00004139 04             9503 	.byte	4
0000413a 04             9504 	.byte	4
0000413b 04             9505 	.byte	4

                                                                      Page 208
                                                              C:\Users\nhuliyap\AppData\Local\Temp\gh_0000d941.s
0000413c 01             9506 	.byte	1
0000413d d402           9507 	.byte	212,2
0000413f 525f46444c5f   9508 	.strz	"R_FDL_START_SEC_PUBLIC_CODE "
00004145 53544152545f 
0000414b 5345435f5055 
00004151 424c49435f43 
00004157 4f44452000 
0000415c 03             9509 	.byte	3
0000415d d502           9510 	.byte	213,2
0000415f 1b             9511 	.byte	27
00004160 01             9512 	.byte	1
00004161 0c             9513 	.byte	12
00004162 46444c5f5354   9514 	.strz	"FDL_START_SEC_PUBLIC_CODE "
00004168 4152545f5345 
0000416e 435f5055424c 
00004174 49435f434f44 
0000417a 452000 
0000417d 03             9515 	.byte	3
0000417e 20             9516 	.byte	32
0000417f 11             9517 	.byte	17
00004180 01             9518 	.byte	1
00004181 02             9519 	.byte	2
00004182 4d454d4d4150   9520 	.strz	"MEMMAP_VENDOR_ID (30u)"
00004188 5f56454e444f 
0000418e 525f49442028 
00004194 3330752900 
00004199 01             9521 	.byte	1
0000419a 08             9522 	.byte	8
0000419b 4d454d4d4150   9523 	.strz	"MEMMAP_AR_RELEASE_MAJOR_VERSION (4u)"
000041a1 5f41525f5245 
000041a7 4c454153455f 
000041ad 4d414a4f525f 
000041b3 56455253494f 
000041b9 4e2028347529 
000041bf 00 
000041c0 01             9524 	.byte	1
000041c1 09             9525 	.byte	9
000041c2 4d454d4d4150   9526 	.strz	"MEMMAP_AR_RELEASE_MINOR_VERSION (0u)"
000041c8 5f41525f5245 
000041ce 4c454153455f 
000041d4 4d494e4f525f 
000041da 56455253494f 
000041e0 4e2028307529 
000041e6 00 
000041e7 01             9527 	.byte	1
000041e8 0a             9528 	.byte	10
000041e9 4d454d4d4150   9529 	.strz	"MEMMAP_AR_RELEASE_REVISION_VERSION (3u)"
000041ef 5f41525f5245 
000041f5 4c454153455f 
000041fb 524556495349 
00004201 4f4e5f564552 
00004207 53494f4e2028 
0000420d 33752900 
00004211 01             9530 	.byte	1
00004212 10             9531 	.byte	16
00004213 4d454d5f4152   9532 	.strz	"MEM_AR_RELEASE_MAJOR_VERSION MEMMAP_AR_RELEASE_MAJOR_VERSION"
00004219 5f52454c4541 
0000421f 53455f4d414a 
00004225 4f525f564552 
0000422b 53494f4e204d 
00004231 454d4d41505f 

                                                                      Page 209
                                                              C:\Users\nhuliyap\AppData\Local\Temp\gh_0000d941.s
00004237 41525f52454c 
0000423d 454153455f4d 
00004243 414a4f525f56 
00004249 455253494f4e 
0000424f 00 
00004250 01             9533 	.byte	1
00004251 11             9534 	.byte	17
00004252 4d454d5f4152   9535 	.strz	"MEM_AR_RELEASE_MINOR_VERSION MEMMAP_AR_RELEASE_MINOR_VERSION"
00004258 5f52454c4541 
0000425e 53455f4d494e 
00004264 4f525f564552 
0000426a 53494f4e204d 
00004270 454d4d41505f 
00004276 41525f52454c 
0000427c 454153455f4d 
00004282 494e4f525f56 
00004288 455253494f4e 
0000428e 00 
0000428f 01             9536 	.byte	1
00004290 12             9537 	.byte	18
00004291 4d454d5f4152   9538 	.strz	"MEM_AR_RELEASE_PATCH_VERSION MEMMAP_AR_RELEASE_REVISION_VERSION"
00004297 5f52454c4541 
0000429d 53455f504154 
000042a3 43485f564552 
000042a9 53494f4e204d 
000042af 454d4d41505f 
000042b5 41525f52454c 
000042bb 454153455f52 
000042c1 45564953494f 
000042c7 4e5f56455253 
000042cd 494f4e00 
000042d1 01             9539 	.byte	1
000042d2 18             9540 	.byte	24
000042d3 4d454d4d4150   9541 	.strz	"MEMMAP_SW_MAJOR_VERSION (1u)"
000042d9 5f53575f4d41 
000042df 4a4f525f5645 
000042e5 5253494f4e20 
000042eb 2831752900 
000042f0 01             9542 	.byte	1
000042f1 19             9543 	.byte	25
000042f2 4d454d4d4150   9544 	.strz	"MEMMAP_SW_MINOR_VERSION (11u)"
000042f8 5f53575f4d49 
000042fe 4e4f525f5645 
00004304 5253494f4e20 
0000430a 283131752900 
00004310 01             9545 	.byte	1
00004311 1a             9546 	.byte	26
00004312 4d454d4d4150   9547 	.strz	"MEMMAP_SW_PATCH_VERSION (0u)"
00004318 5f53575f5041 
0000431e 5443485f5645 
00004324 5253494f4e20 
0000432a 2830752900 
0000432f 01             9548 	.byte	1
00004330 20             9549 	.byte	32
00004331 4d454d5f5357   9550 	.strz	"MEM_SW_MAJOR_VERSION MEMMAP_SW_MAJOR_VERSION"
00004337 5f4d414a4f52 
0000433d 5f5645525349 
00004343 4f4e204d454d 
00004349 4d41505f5357 
0000434f 5f4d414a4f52 
00004355 5f5645525349 

                                                                      Page 210
                                                              C:\Users\nhuliyap\AppData\Local\Temp\gh_0000d941.s
0000435b 4f4e00 
0000435e 01             9551 	.byte	1
0000435f 21             9552 	.byte	33
00004360 4d454d5f5357   9553 	.strz	"MEM_SW_MINOR_VERSION MEMMAP_SW_MINOR_VERSION"
00004366 5f4d494e4f52 
0000436c 5f5645525349 
00004372 4f4e204d454d 
00004378 4d41505f5357 
0000437e 5f4d494e4f52 
00004384 5f5645525349 
0000438a 4f4e00 
0000438d 01             9554 	.byte	1
0000438e 22             9555 	.byte	34
0000438f 4d454d5f5357   9556 	.strz	"MEM_SW_PATCH_VERSION MEMMAP_SW_PATCH_VERSION"
00004395 5f5041544348 
0000439b 5f5645525349 
000043a1 4f4e204d454d 
000043a7 4d41505f5357 
000043ad 5f5041544348 
000043b3 5f5645525349 
000043b9 4f4e00 
000043bc 01             9557 	.byte	1
000043bd 24             9558 	.byte	36
000043be 4d454d4d4150   9559 	.strz	"MEMMAP_ERROR "
000043c4 5f4552524f52 
000043ca 2000 
000043cc 01             9560 	.byte	1
000043cd e602           9561 	.byte	230,2
000043cf 53544152545f   9562 	.strz	"START_SEC_CODE "
000043d5 5345435f434f 
000043db 44452000 
000043df 03             9563 	.byte	3
000043e0 f403           9564 	.byte	244,3
000043e2 12             9565 	.byte	18
000043e3 01             9566 	.byte	1
000043e4 f407           9567 	.byte	244,7
000043e6 434f44455f53   9568 	.strz	"CODE_SEC_OPEN "
000043ec 45435f4f5045 
000043f2 4e2000 
000043f5 04             9569 	.byte	4
000043f6 04             9570 	.byte	4
000043f7 04             9571 	.byte	4
000043f8 01             9572 	.byte	1
000043f9 f402           9573 	.byte	244,2
000043fb 525f46444c5f   9574 	.strz	"R_FDL_STOP_SEC_PUBLIC_CODE "
00004401 53544f505f53 
00004407 45435f505542 
0000440d 4c49435f434f 
00004413 44452000 
00004417 03             9575 	.byte	3
00004418 f502           9576 	.byte	245,2
0000441a 1b             9577 	.byte	27
0000441b 01             9578 	.byte	1
0000441c 0f             9579 	.byte	15
0000441d 46444c5f5354   9580 	.strz	"FDL_STOP_SEC_PUBLIC_CODE "
00004423 4f505f534543 
00004429 5f5055424c49 
0000442f 435f434f4445 
00004435 2000 
00004437 03             9581 	.byte	3
00004438 20             9582 	.byte	32

                                                                      Page 211
                                                              C:\Users\nhuliyap\AppData\Local\Temp\gh_0000d941.s
00004439 11             9583 	.byte	17
0000443a 01             9584 	.byte	1
0000443b 02             9585 	.byte	2
0000443c 4d454d4d4150   9586 	.strz	"MEMMAP_VENDOR_ID (30u)"
00004442 5f56454e444f 
00004448 525f49442028 
0000444e 3330752900 
00004453 01             9587 	.byte	1
00004454 08             9588 	.byte	8
00004455 4d454d4d4150   9589 	.strz	"MEMMAP_AR_RELEASE_MAJOR_VERSION (4u)"
0000445b 5f41525f5245 
00004461 4c454153455f 
00004467 4d414a4f525f 
0000446d 56455253494f 
00004473 4e2028347529 
00004479 00 
0000447a 01             9590 	.byte	1
0000447b 09             9591 	.byte	9
0000447c 4d454d4d4150   9592 	.strz	"MEMMAP_AR_RELEASE_MINOR_VERSION (0u)"
00004482 5f41525f5245 
00004488 4c454153455f 
0000448e 4d494e4f525f 
00004494 56455253494f 
0000449a 4e2028307529 
000044a0 00 
000044a1 01             9593 	.byte	1
000044a2 0a             9594 	.byte	10
000044a3 4d454d4d4150   9595 	.strz	"MEMMAP_AR_RELEASE_REVISION_VERSION (3u)"
000044a9 5f41525f5245 
000044af 4c454153455f 
000044b5 524556495349 
000044bb 4f4e5f564552 
000044c1 53494f4e2028 
000044c7 33752900 
000044cb 01             9596 	.byte	1
000044cc 10             9597 	.byte	16
000044cd 4d454d5f4152   9598 	.strz	"MEM_AR_RELEASE_MAJOR_VERSION MEMMAP_AR_RELEASE_MAJOR_VERSION"
000044d3 5f52454c4541 
000044d9 53455f4d414a 
000044df 4f525f564552 
000044e5 53494f4e204d 
000044eb 454d4d41505f 
000044f1 41525f52454c 
000044f7 454153455f4d 
000044fd 414a4f525f56 
00004503 455253494f4e 
00004509 00 
0000450a 01             9599 	.byte	1
0000450b 11             9600 	.byte	17
0000450c 4d454d5f4152   9601 	.strz	"MEM_AR_RELEASE_MINOR_VERSION MEMMAP_AR_RELEASE_MINOR_VERSION"
00004512 5f52454c4541 
00004518 53455f4d494e 
0000451e 4f525f564552 
00004524 53494f4e204d 
0000452a 454d4d41505f 
00004530 41525f52454c 
00004536 454153455f4d 
0000453c 494e4f525f56 
00004542 455253494f4e 
00004548 00 
00004549 01             9602 	.byte	1

                                                                      Page 212
                                                              C:\Users\nhuliyap\AppData\Local\Temp\gh_0000d941.s
0000454a 12             9603 	.byte	18
0000454b 4d454d5f4152   9604 	.strz	"MEM_AR_RELEASE_PATCH_VERSION MEMMAP_AR_RELEASE_REVISION_VERSION"
00004551 5f52454c4541 
00004557 53455f504154 
0000455d 43485f564552 
00004563 53494f4e204d 
00004569 454d4d41505f 
0000456f 41525f52454c 
00004575 454153455f52 
0000457b 45564953494f 
00004581 4e5f56455253 
00004587 494f4e00 
0000458b 01             9605 	.byte	1
0000458c 18             9606 	.byte	24
0000458d 4d454d4d4150   9607 	.strz	"MEMMAP_SW_MAJOR_VERSION (1u)"
00004593 5f53575f4d41 
00004599 4a4f525f5645 
0000459f 5253494f4e20 
000045a5 2831752900 
000045aa 01             9608 	.byte	1
000045ab 19             9609 	.byte	25
000045ac 4d454d4d4150   9610 	.strz	"MEMMAP_SW_MINOR_VERSION (11u)"
000045b2 5f53575f4d49 
000045b8 4e4f525f5645 
000045be 5253494f4e20 
000045c4 283131752900 
000045ca 01             9611 	.byte	1
000045cb 1a             9612 	.byte	26
000045cc 4d454d4d4150   9613 	.strz	"MEMMAP_SW_PATCH_VERSION (0u)"
000045d2 5f53575f5041 
000045d8 5443485f5645 
000045de 5253494f4e20 
000045e4 2830752900 
000045e9 01             9614 	.byte	1
000045ea 20             9615 	.byte	32
000045eb 4d454d5f5357   9616 	.strz	"MEM_SW_MAJOR_VERSION MEMMAP_SW_MAJOR_VERSION"
000045f1 5f4d414a4f52 
000045f7 5f5645525349 
000045fd 4f4e204d454d 
00004603 4d41505f5357 
00004609 5f4d414a4f52 
0000460f 5f5645525349 
00004615 4f4e00 
00004618 01             9617 	.byte	1
00004619 21             9618 	.byte	33
0000461a 4d454d5f5357   9619 	.strz	"MEM_SW_MINOR_VERSION MEMMAP_SW_MINOR_VERSION"
00004620 5f4d494e4f52 
00004626 5f5645525349 
0000462c 4f4e204d454d 
00004632 4d41505f5357 
00004638 5f4d494e4f52 
0000463e 5f5645525349 
00004644 4f4e00 
00004647 01             9620 	.byte	1
00004648 22             9621 	.byte	34
00004649 4d454d5f5357   9622 	.strz	"MEM_SW_PATCH_VERSION MEMMAP_SW_PATCH_VERSION"
0000464f 5f5041544348 
00004655 5f5645525349 
0000465b 4f4e204d454d 
00004661 4d41505f5357 
00004667 5f5041544348 

                                                                      Page 213
                                                              C:\Users\nhuliyap\AppData\Local\Temp\gh_0000d941.s
0000466d 5f5645525349 
00004673 4f4e00 
00004676 01             9623 	.byte	1
00004677 24             9624 	.byte	36
00004678 4d454d4d4150   9625 	.strz	"MEMMAP_ERROR "
0000467e 5f4552524f52 
00004684 2000 
00004686 01             9626 	.byte	1
00004687 ea02           9627 	.byte	234,2
00004689 53544f505f53   9628 	.strz	"STOP_SEC_CODE "
0000468f 45435f434f44 
00004695 452000 
00004698 03             9629 	.byte	3
00004699 f403           9630 	.byte	244,3
0000469b 12             9631 	.byte	18
0000469c 04             9632 	.byte	4
0000469d 04             9633 	.byte	4
0000469e 04             9634 	.byte	4
0000469f 01             9635 	.byte	1
000046a0 f702           9636 	.byte	247,2
000046a2 525f46444c5f   9637 	.strz	"R_FDL_START_SEC_PUBLIC_CODE "
000046a8 53544152545f 
000046ae 5345435f5055 
000046b4 424c49435f43 
000046ba 4f44452000 
000046bf 03             9638 	.byte	3
000046c0 f802           9639 	.byte	248,2
000046c2 1b             9640 	.byte	27
000046c3 01             9641 	.byte	1
000046c4 0c             9642 	.byte	12
000046c5 46444c5f5354   9643 	.strz	"FDL_START_SEC_PUBLIC_CODE "
000046cb 4152545f5345 
000046d1 435f5055424c 
000046d7 49435f434f44 
000046dd 452000 
000046e0 03             9644 	.byte	3
000046e1 20             9645 	.byte	32
000046e2 11             9646 	.byte	17
000046e3 01             9647 	.byte	1
000046e4 02             9648 	.byte	2
000046e5 4d454d4d4150   9649 	.strz	"MEMMAP_VENDOR_ID (30u)"
000046eb 5f56454e444f 
000046f1 525f49442028 
000046f7 3330752900 
000046fc 01             9650 	.byte	1
000046fd 08             9651 	.byte	8
000046fe 4d454d4d4150   9652 	.strz	"MEMMAP_AR_RELEASE_MAJOR_VERSION (4u)"
00004704 5f41525f5245 
0000470a 4c454153455f 
00004710 4d414a4f525f 
00004716 56455253494f 
0000471c 4e2028347529 
00004722 00 
00004723 01             9653 	.byte	1
00004724 09             9654 	.byte	9
00004725 4d454d4d4150   9655 	.strz	"MEMMAP_AR_RELEASE_MINOR_VERSION (0u)"
0000472b 5f41525f5245 
00004731 4c454153455f 
00004737 4d494e4f525f 
0000473d 56455253494f 
00004743 4e2028307529 

                                                                      Page 214
                                                              C:\Users\nhuliyap\AppData\Local\Temp\gh_0000d941.s
00004749 00 
0000474a 01             9656 	.byte	1
0000474b 0a             9657 	.byte	10
0000474c 4d454d4d4150   9658 	.strz	"MEMMAP_AR_RELEASE_REVISION_VERSION (3u)"
00004752 5f41525f5245 
00004758 4c454153455f 
0000475e 524556495349 
00004764 4f4e5f564552 
0000476a 53494f4e2028 
00004770 33752900 
00004774 01             9659 	.byte	1
00004775 10             9660 	.byte	16
00004776 4d454d5f4152   9661 	.strz	"MEM_AR_RELEASE_MAJOR_VERSION MEMMAP_AR_RELEASE_MAJOR_VERSION"
0000477c 5f52454c4541 
00004782 53455f4d414a 
00004788 4f525f564552 
0000478e 53494f4e204d 
00004794 454d4d41505f 
0000479a 41525f52454c 
000047a0 454153455f4d 
000047a6 414a4f525f56 
000047ac 455253494f4e 
000047b2 00 
000047b3 01             9662 	.byte	1
000047b4 11             9663 	.byte	17
000047b5 4d454d5f4152   9664 	.strz	"MEM_AR_RELEASE_MINOR_VERSION MEMMAP_AR_RELEASE_MINOR_VERSION"
000047bb 5f52454c4541 
000047c1 53455f4d494e 
000047c7 4f525f564552 
000047cd 53494f4e204d 
000047d3 454d4d41505f 
000047d9 41525f52454c 
000047df 454153455f4d 
000047e5 494e4f525f56 
000047eb 455253494f4e 
000047f1 00 
000047f2 01             9665 	.byte	1
000047f3 12             9666 	.byte	18
000047f4 4d454d5f4152   9667 	.strz	"MEM_AR_RELEASE_PATCH_VERSION MEMMAP_AR_RELEASE_REVISION_VERSION"
000047fa 5f52454c4541 
00004800 53455f504154 
00004806 43485f564552 
0000480c 53494f4e204d 
00004812 454d4d41505f 
00004818 41525f52454c 
0000481e 454153455f52 
00004824 45564953494f 
0000482a 4e5f56455253 
00004830 494f4e00 
00004834 01             9668 	.byte	1
00004835 18             9669 	.byte	24
00004836 4d454d4d4150   9670 	.strz	"MEMMAP_SW_MAJOR_VERSION (1u)"
0000483c 5f53575f4d41 
00004842 4a4f525f5645 
00004848 5253494f4e20 
0000484e 2831752900 
00004853 01             9671 	.byte	1
00004854 19             9672 	.byte	25
00004855 4d454d4d4150   9673 	.strz	"MEMMAP_SW_MINOR_VERSION (11u)"
0000485b 5f53575f4d49 
00004861 4e4f525f5645 

                                                                      Page 215
                                                              C:\Users\nhuliyap\AppData\Local\Temp\gh_0000d941.s
00004867 5253494f4e20 
0000486d 283131752900 
00004873 01             9674 	.byte	1
00004874 1a             9675 	.byte	26
00004875 4d454d4d4150   9676 	.strz	"MEMMAP_SW_PATCH_VERSION (0u)"
0000487b 5f53575f5041 
00004881 5443485f5645 
00004887 5253494f4e20 
0000488d 2830752900 
00004892 01             9677 	.byte	1
00004893 20             9678 	.byte	32
00004894 4d454d5f5357   9679 	.strz	"MEM_SW_MAJOR_VERSION MEMMAP_SW_MAJOR_VERSION"
0000489a 5f4d414a4f52 
000048a0 5f5645525349 
000048a6 4f4e204d454d 
000048ac 4d41505f5357 
000048b2 5f4d414a4f52 
000048b8 5f5645525349 
000048be 4f4e00 
000048c1 01             9680 	.byte	1
000048c2 21             9681 	.byte	33
000048c3 4d454d5f5357   9682 	.strz	"MEM_SW_MINOR_VERSION MEMMAP_SW_MINOR_VERSION"
000048c9 5f4d494e4f52 
000048cf 5f5645525349 
000048d5 4f4e204d454d 
000048db 4d41505f5357 
000048e1 5f4d494e4f52 
000048e7 5f5645525349 
000048ed 4f4e00 
000048f0 01             9683 	.byte	1
000048f1 22             9684 	.byte	34
000048f2 4d454d5f5357   9685 	.strz	"MEM_SW_PATCH_VERSION MEMMAP_SW_PATCH_VERSION"
000048f8 5f5041544348 
000048fe 5f5645525349 
00004904 4f4e204d454d 
0000490a 4d41505f5357 
00004910 5f5041544348 
00004916 5f5645525349 
0000491c 4f4e00 
0000491f 01             9686 	.byte	1
00004920 24             9687 	.byte	36
00004921 4d454d4d4150   9688 	.strz	"MEMMAP_ERROR "
00004927 5f4552524f52 
0000492d 2000 
0000492f 01             9689 	.byte	1
00004930 e602           9690 	.byte	230,2
00004932 53544152545f   9691 	.strz	"START_SEC_CODE "
00004938 5345435f434f 
0000493e 44452000 
00004942 03             9692 	.byte	3
00004943 f403           9693 	.byte	244,3
00004945 12             9694 	.byte	18
00004946 01             9695 	.byte	1
00004947 f407           9696 	.byte	244,7
00004949 434f44455f53   9697 	.strz	"CODE_SEC_OPEN "
0000494f 45435f4f5045 
00004955 4e2000 
00004958 04             9698 	.byte	4
00004959 04             9699 	.byte	4
0000495a 04             9700 	.byte	4
0000495b 01             9701 	.byte	1

                                                                      Page 216
                                                              C:\Users\nhuliyap\AppData\Local\Temp\gh_0000d941.s
0000495c a703           9702 	.byte	167,3
0000495e 525f46444c5f   9703 	.strz	"R_FDL_STOP_SEC_PUBLIC_CODE "
00004964 53544f505f53 
0000496a 45435f505542 
00004970 4c49435f434f 
00004976 44452000 
0000497a 03             9704 	.byte	3
0000497b a803           9705 	.byte	168,3
0000497d 1b             9706 	.byte	27
0000497e 01             9707 	.byte	1
0000497f 0f             9708 	.byte	15
00004980 46444c5f5354   9709 	.strz	"FDL_STOP_SEC_PUBLIC_CODE "
00004986 4f505f534543 
0000498c 5f5055424c49 
00004992 435f434f4445 
00004998 2000 
0000499a 03             9710 	.byte	3
0000499b 20             9711 	.byte	32
0000499c 11             9712 	.byte	17
0000499d 01             9713 	.byte	1
0000499e 02             9714 	.byte	2
0000499f 4d454d4d4150   9715 	.strz	"MEMMAP_VENDOR_ID (30u)"
000049a5 5f56454e444f 
000049ab 525f49442028 
000049b1 3330752900 
000049b6 01             9716 	.byte	1
000049b7 08             9717 	.byte	8
000049b8 4d454d4d4150   9718 	.strz	"MEMMAP_AR_RELEASE_MAJOR_VERSION (4u)"
000049be 5f41525f5245 
000049c4 4c454153455f 
000049ca 4d414a4f525f 
000049d0 56455253494f 
000049d6 4e2028347529 
000049dc 00 
000049dd 01             9719 	.byte	1
000049de 09             9720 	.byte	9
000049df 4d454d4d4150   9721 	.strz	"MEMMAP_AR_RELEASE_MINOR_VERSION (0u)"
000049e5 5f41525f5245 
000049eb 4c454153455f 
000049f1 4d494e4f525f 
000049f7 56455253494f 
000049fd 4e2028307529 
00004a03 00 
00004a04 01             9722 	.byte	1
00004a05 0a             9723 	.byte	10
00004a06 4d454d4d4150   9724 	.strz	"MEMMAP_AR_RELEASE_REVISION_VERSION (3u)"
00004a0c 5f41525f5245 
00004a12 4c454153455f 
00004a18 524556495349 
00004a1e 4f4e5f564552 
00004a24 53494f4e2028 
00004a2a 33752900 
00004a2e 01             9725 	.byte	1
00004a2f 10             9726 	.byte	16
00004a30 4d454d5f4152   9727 	.strz	"MEM_AR_RELEASE_MAJOR_VERSION MEMMAP_AR_RELEASE_MAJOR_VERSION"
00004a36 5f52454c4541 
00004a3c 53455f4d414a 
00004a42 4f525f564552 
00004a48 53494f4e204d 
00004a4e 454d4d41505f 
00004a54 41525f52454c 

                                                                      Page 217
                                                              C:\Users\nhuliyap\AppData\Local\Temp\gh_0000d941.s
00004a5a 454153455f4d 
00004a60 414a4f525f56 
00004a66 455253494f4e 
00004a6c 00 
00004a6d 01             9728 	.byte	1
00004a6e 11             9729 	.byte	17
00004a6f 4d454d5f4152   9730 	.strz	"MEM_AR_RELEASE_MINOR_VERSION MEMMAP_AR_RELEASE_MINOR_VERSION"
00004a75 5f52454c4541 
00004a7b 53455f4d494e 
00004a81 4f525f564552 
00004a87 53494f4e204d 
00004a8d 454d4d41505f 
00004a93 41525f52454c 
00004a99 454153455f4d 
00004a9f 494e4f525f56 
00004aa5 455253494f4e 
00004aab 00 
00004aac 01             9731 	.byte	1
00004aad 12             9732 	.byte	18
00004aae 4d454d5f4152   9733 	.strz	"MEM_AR_RELEASE_PATCH_VERSION MEMMAP_AR_RELEASE_REVISION_VERSION"
00004ab4 5f52454c4541 
00004aba 53455f504154 
00004ac0 43485f564552 
00004ac6 53494f4e204d 
00004acc 454d4d41505f 
00004ad2 41525f52454c 
00004ad8 454153455f52 
00004ade 45564953494f 
00004ae4 4e5f56455253 
00004aea 494f4e00 
00004aee 01             9734 	.byte	1
00004aef 18             9735 	.byte	24
00004af0 4d454d4d4150   9736 	.strz	"MEMMAP_SW_MAJOR_VERSION (1u)"
00004af6 5f53575f4d41 
00004afc 4a4f525f5645 
00004b02 5253494f4e20 
00004b08 2831752900 
00004b0d 01             9737 	.byte	1
00004b0e 19             9738 	.byte	25
00004b0f 4d454d4d4150   9739 	.strz	"MEMMAP_SW_MINOR_VERSION (11u)"
00004b15 5f53575f4d49 
00004b1b 4e4f525f5645 
00004b21 5253494f4e20 
00004b27 283131752900 
00004b2d 01             9740 	.byte	1
00004b2e 1a             9741 	.byte	26
00004b2f 4d454d4d4150   9742 	.strz	"MEMMAP_SW_PATCH_VERSION (0u)"
00004b35 5f53575f5041 
00004b3b 5443485f5645 
00004b41 5253494f4e20 
00004b47 2830752900 
00004b4c 01             9743 	.byte	1
00004b4d 20             9744 	.byte	32
00004b4e 4d454d5f5357   9745 	.strz	"MEM_SW_MAJOR_VERSION MEMMAP_SW_MAJOR_VERSION"
00004b54 5f4d414a4f52 
00004b5a 5f5645525349 
00004b60 4f4e204d454d 
00004b66 4d41505f5357 
00004b6c 5f4d414a4f52 
00004b72 5f5645525349 
00004b78 4f4e00 

                                                                      Page 218
                                                              C:\Users\nhuliyap\AppData\Local\Temp\gh_0000d941.s
00004b7b 01             9746 	.byte	1
00004b7c 21             9747 	.byte	33
00004b7d 4d454d5f5357   9748 	.strz	"MEM_SW_MINOR_VERSION MEMMAP_SW_MINOR_VERSION"
00004b83 5f4d494e4f52 
00004b89 5f5645525349 
00004b8f 4f4e204d454d 
00004b95 4d41505f5357 
00004b9b 5f4d494e4f52 
00004ba1 5f5645525349 
00004ba7 4f4e00 
00004baa 01             9749 	.byte	1
00004bab 22             9750 	.byte	34
00004bac 4d454d5f5357   9751 	.strz	"MEM_SW_PATCH_VERSION MEMMAP_SW_PATCH_VERSION"
00004bb2 5f5041544348 
00004bb8 5f5645525349 
00004bbe 4f4e204d454d 
00004bc4 4d41505f5357 
00004bca 5f5041544348 
00004bd0 5f5645525349 
00004bd6 4f4e00 
00004bd9 01             9752 	.byte	1
00004bda 24             9753 	.byte	36
00004bdb 4d454d4d4150   9754 	.strz	"MEMMAP_ERROR "
00004be1 5f4552524f52 
00004be7 2000 
00004be9 01             9755 	.byte	1
00004bea ea02           9756 	.byte	234,2
00004bec 53544f505f53   9757 	.strz	"STOP_SEC_CODE "
00004bf2 45435f434f44 
00004bf8 452000 
00004bfb 03             9758 	.byte	3
00004bfc f403           9759 	.byte	244,3
00004bfe 12             9760 	.byte	18
00004bff 04             9761 	.byte	4
00004c00 04             9762 	.byte	4
00004c01 04             9763 	.byte	4
00004c02 01             9764 	.byte	1
00004c03 aa03           9765 	.byte	170,3
00004c05 525f46444c5f   9766 	.strz	"R_FDL_START_SEC_PUBLIC_CODE "
00004c0b 53544152545f 
00004c11 5345435f5055 
00004c17 424c49435f43 
00004c1d 4f44452000 
00004c22 03             9767 	.byte	3
00004c23 ab03           9768 	.byte	171,3
00004c25 1b             9769 	.byte	27
00004c26 01             9770 	.byte	1
00004c27 0c             9771 	.byte	12
00004c28 46444c5f5354   9772 	.strz	"FDL_START_SEC_PUBLIC_CODE "
00004c2e 4152545f5345 
00004c34 435f5055424c 
00004c3a 49435f434f44 
00004c40 452000 
00004c43 03             9773 	.byte	3
00004c44 20             9774 	.byte	32
00004c45 11             9775 	.byte	17
00004c46 01             9776 	.byte	1
00004c47 02             9777 	.byte	2
00004c48 4d454d4d4150   9778 	.strz	"MEMMAP_VENDOR_ID (30u)"
00004c4e 5f56454e444f 
00004c54 525f49442028 

                                                                      Page 219
                                                              C:\Users\nhuliyap\AppData\Local\Temp\gh_0000d941.s
00004c5a 3330752900 
00004c5f 01             9779 	.byte	1
00004c60 08             9780 	.byte	8
00004c61 4d454d4d4150   9781 	.strz	"MEMMAP_AR_RELEASE_MAJOR_VERSION (4u)"
00004c67 5f41525f5245 
00004c6d 4c454153455f 
00004c73 4d414a4f525f 
00004c79 56455253494f 
00004c7f 4e2028347529 
00004c85 00 
00004c86 01             9782 	.byte	1
00004c87 09             9783 	.byte	9
00004c88 4d454d4d4150   9784 	.strz	"MEMMAP_AR_RELEASE_MINOR_VERSION (0u)"
00004c8e 5f41525f5245 
00004c94 4c454153455f 
00004c9a 4d494e4f525f 
00004ca0 56455253494f 
00004ca6 4e2028307529 
00004cac 00 
00004cad 01             9785 	.byte	1
00004cae 0a             9786 	.byte	10
00004caf 4d454d4d4150   9787 	.strz	"MEMMAP_AR_RELEASE_REVISION_VERSION (3u)"
00004cb5 5f41525f5245 
00004cbb 4c454153455f 
00004cc1 524556495349 
00004cc7 4f4e5f564552 
00004ccd 53494f4e2028 
00004cd3 33752900 
00004cd7 01             9788 	.byte	1
00004cd8 10             9789 	.byte	16
00004cd9 4d454d5f4152   9790 	.strz	"MEM_AR_RELEASE_MAJOR_VERSION MEMMAP_AR_RELEASE_MAJOR_VERSION"
00004cdf 5f52454c4541 
00004ce5 53455f4d414a 
00004ceb 4f525f564552 
00004cf1 53494f4e204d 
00004cf7 454d4d41505f 
00004cfd 41525f52454c 
00004d03 454153455f4d 
00004d09 414a4f525f56 
00004d0f 455253494f4e 
00004d15 00 
00004d16 01             9791 	.byte	1
00004d17 11             9792 	.byte	17
00004d18 4d454d5f4152   9793 	.strz	"MEM_AR_RELEASE_MINOR_VERSION MEMMAP_AR_RELEASE_MINOR_VERSION"
00004d1e 5f52454c4541 
00004d24 53455f4d494e 
00004d2a 4f525f564552 
00004d30 53494f4e204d 
00004d36 454d4d41505f 
00004d3c 41525f52454c 
00004d42 454153455f4d 
00004d48 494e4f525f56 
00004d4e 455253494f4e 
00004d54 00 
00004d55 01             9794 	.byte	1
00004d56 12             9795 	.byte	18
00004d57 4d454d5f4152   9796 	.strz	"MEM_AR_RELEASE_PATCH_VERSION MEMMAP_AR_RELEASE_REVISION_VERSION"
00004d5d 5f52454c4541 
00004d63 53455f504154 
00004d69 43485f564552 
00004d6f 53494f4e204d 

                                                                      Page 220
                                                              C:\Users\nhuliyap\AppData\Local\Temp\gh_0000d941.s
00004d75 454d4d41505f 
00004d7b 41525f52454c 
00004d81 454153455f52 
00004d87 45564953494f 
00004d8d 4e5f56455253 
00004d93 494f4e00 
00004d97 01             9797 	.byte	1
00004d98 18             9798 	.byte	24
00004d99 4d454d4d4150   9799 	.strz	"MEMMAP_SW_MAJOR_VERSION (1u)"
00004d9f 5f53575f4d41 
00004da5 4a4f525f5645 
00004dab 5253494f4e20 
00004db1 2831752900 
00004db6 01             9800 	.byte	1
00004db7 19             9801 	.byte	25
00004db8 4d454d4d4150   9802 	.strz	"MEMMAP_SW_MINOR_VERSION (11u)"
00004dbe 5f53575f4d49 
00004dc4 4e4f525f5645 
00004dca 5253494f4e20 
00004dd0 283131752900 
00004dd6 01             9803 	.byte	1
00004dd7 1a             9804 	.byte	26
00004dd8 4d454d4d4150   9805 	.strz	"MEMMAP_SW_PATCH_VERSION (0u)"
00004dde 5f53575f5041 
00004de4 5443485f5645 
00004dea 5253494f4e20 
00004df0 2830752900 
00004df5 01             9806 	.byte	1
00004df6 20             9807 	.byte	32
00004df7 4d454d5f5357   9808 	.strz	"MEM_SW_MAJOR_VERSION MEMMAP_SW_MAJOR_VERSION"
00004dfd 5f4d414a4f52 
00004e03 5f5645525349 
00004e09 4f4e204d454d 
00004e0f 4d41505f5357 
00004e15 5f4d414a4f52 
00004e1b 5f5645525349 
00004e21 4f4e00 
00004e24 01             9809 	.byte	1
00004e25 21             9810 	.byte	33
00004e26 4d454d5f5357   9811 	.strz	"MEM_SW_MINOR_VERSION MEMMAP_SW_MINOR_VERSION"
00004e2c 5f4d494e4f52 
00004e32 5f5645525349 
00004e38 4f4e204d454d 
00004e3e 4d41505f5357 
00004e44 5f4d494e4f52 
00004e4a 5f5645525349 
00004e50 4f4e00 
00004e53 01             9812 	.byte	1
00004e54 22             9813 	.byte	34
00004e55 4d454d5f5357   9814 	.strz	"MEM_SW_PATCH_VERSION MEMMAP_SW_PATCH_VERSION"
00004e5b 5f5041544348 
00004e61 5f5645525349 
00004e67 4f4e204d454d 
00004e6d 4d41505f5357 
00004e73 5f5041544348 
00004e79 5f5645525349 
00004e7f 4f4e00 
00004e82 01             9815 	.byte	1
00004e83 24             9816 	.byte	36
00004e84 4d454d4d4150   9817 	.strz	"MEMMAP_ERROR "
00004e8a 5f4552524f52 

                                                                      Page 221
                                                              C:\Users\nhuliyap\AppData\Local\Temp\gh_0000d941.s
00004e90 2000 
00004e92 01             9818 	.byte	1
00004e93 e602           9819 	.byte	230,2
00004e95 53544152545f   9820 	.strz	"START_SEC_CODE "
00004e9b 5345435f434f 
00004ea1 44452000 
00004ea5 03             9821 	.byte	3
00004ea6 f403           9822 	.byte	244,3
00004ea8 12             9823 	.byte	18
00004ea9 01             9824 	.byte	1
00004eaa f407           9825 	.byte	244,7
00004eac 434f44455f53   9826 	.strz	"CODE_SEC_OPEN "
00004eb2 45435f4f5045 
00004eb8 4e2000 
00004ebb 04             9827 	.byte	4
00004ebc 04             9828 	.byte	4
00004ebd 04             9829 	.byte	4
00004ebe 01             9830 	.byte	1
00004ebf f903           9831 	.byte	249,3
00004ec1 525f46444c5f   9832 	.strz	"R_FDL_STOP_SEC_PUBLIC_CODE "
00004ec7 53544f505f53 
00004ecd 45435f505542 
00004ed3 4c49435f434f 
00004ed9 44452000 
00004edd 03             9833 	.byte	3
00004ede fa03           9834 	.byte	250,3
00004ee0 1b             9835 	.byte	27
00004ee1 01             9836 	.byte	1
00004ee2 0f             9837 	.byte	15
00004ee3 46444c5f5354   9838 	.strz	"FDL_STOP_SEC_PUBLIC_CODE "
00004ee9 4f505f534543 
00004eef 5f5055424c49 
00004ef5 435f434f4445 
00004efb 2000 
00004efd 03             9839 	.byte	3
00004efe 20             9840 	.byte	32
00004eff 11             9841 	.byte	17
00004f00 01             9842 	.byte	1
00004f01 02             9843 	.byte	2
00004f02 4d454d4d4150   9844 	.strz	"MEMMAP_VENDOR_ID (30u)"
00004f08 5f56454e444f 
00004f0e 525f49442028 
00004f14 3330752900 
00004f19 01             9845 	.byte	1
00004f1a 08             9846 	.byte	8
00004f1b 4d454d4d4150   9847 	.strz	"MEMMAP_AR_RELEASE_MAJOR_VERSION (4u)"
00004f21 5f41525f5245 
00004f27 4c454153455f 
00004f2d 4d414a4f525f 
00004f33 56455253494f 
00004f39 4e2028347529 
00004f3f 00 
00004f40 01             9848 	.byte	1
00004f41 09             9849 	.byte	9
00004f42 4d454d4d4150   9850 	.strz	"MEMMAP_AR_RELEASE_MINOR_VERSION (0u)"
00004f48 5f41525f5245 
00004f4e 4c454153455f 
00004f54 4d494e4f525f 
00004f5a 56455253494f 
00004f60 4e2028307529 
00004f66 00 

                                                                      Page 222
                                                              C:\Users\nhuliyap\AppData\Local\Temp\gh_0000d941.s
00004f67 01             9851 	.byte	1
00004f68 0a             9852 	.byte	10
00004f69 4d454d4d4150   9853 	.strz	"MEMMAP_AR_RELEASE_REVISION_VERSION (3u)"
00004f6f 5f41525f5245 
00004f75 4c454153455f 
00004f7b 524556495349 
00004f81 4f4e5f564552 
00004f87 53494f4e2028 
00004f8d 33752900 
00004f91 01             9854 	.byte	1
00004f92 10             9855 	.byte	16
00004f93 4d454d5f4152   9856 	.strz	"MEM_AR_RELEASE_MAJOR_VERSION MEMMAP_AR_RELEASE_MAJOR_VERSION"
00004f99 5f52454c4541 
00004f9f 53455f4d414a 
00004fa5 4f525f564552 
00004fab 53494f4e204d 
00004fb1 454d4d41505f 
00004fb7 41525f52454c 
00004fbd 454153455f4d 
00004fc3 414a4f525f56 
00004fc9 455253494f4e 
00004fcf 00 
00004fd0 01             9857 	.byte	1
00004fd1 11             9858 	.byte	17
00004fd2 4d454d5f4152   9859 	.strz	"MEM_AR_RELEASE_MINOR_VERSION MEMMAP_AR_RELEASE_MINOR_VERSION"
00004fd8 5f52454c4541 
00004fde 53455f4d494e 
00004fe4 4f525f564552 
00004fea 53494f4e204d 
00004ff0 454d4d41505f 
00004ff6 41525f52454c 
00004ffc 454153455f4d 
00005002 494e4f525f56 
00005008 455253494f4e 
0000500e 00 
0000500f 01             9860 	.byte	1
00005010 12             9861 	.byte	18
00005011 4d454d5f4152   9862 	.strz	"MEM_AR_RELEASE_PATCH_VERSION MEMMAP_AR_RELEASE_REVISION_VERSION"
00005017 5f52454c4541 
0000501d 53455f504154 
00005023 43485f564552 
00005029 53494f4e204d 
0000502f 454d4d41505f 
00005035 41525f52454c 
0000503b 454153455f52 
00005041 45564953494f 
00005047 4e5f56455253 
0000504d 494f4e00 
00005051 01             9863 	.byte	1
00005052 18             9864 	.byte	24
00005053 4d454d4d4150   9865 	.strz	"MEMMAP_SW_MAJOR_VERSION (1u)"
00005059 5f53575f4d41 
0000505f 4a4f525f5645 
00005065 5253494f4e20 
0000506b 2831752900 
00005070 01             9866 	.byte	1
00005071 19             9867 	.byte	25
00005072 4d454d4d4150   9868 	.strz	"MEMMAP_SW_MINOR_VERSION (11u)"
00005078 5f53575f4d49 
0000507e 4e4f525f5645 
00005084 5253494f4e20 

                                                                      Page 223
                                                              C:\Users\nhuliyap\AppData\Local\Temp\gh_0000d941.s
0000508a 283131752900 
00005090 01             9869 	.byte	1
00005091 1a             9870 	.byte	26
00005092 4d454d4d4150   9871 	.strz	"MEMMAP_SW_PATCH_VERSION (0u)"
00005098 5f53575f5041 
0000509e 5443485f5645 
000050a4 5253494f4e20 
000050aa 2830752900 
000050af 01             9872 	.byte	1
000050b0 20             9873 	.byte	32
000050b1 4d454d5f5357   9874 	.strz	"MEM_SW_MAJOR_VERSION MEMMAP_SW_MAJOR_VERSION"
000050b7 5f4d414a4f52 
000050bd 5f5645525349 
000050c3 4f4e204d454d 
000050c9 4d41505f5357 
000050cf 5f4d414a4f52 
000050d5 5f5645525349 
000050db 4f4e00 
000050de 01             9875 	.byte	1
000050df 21             9876 	.byte	33
000050e0 4d454d5f5357   9877 	.strz	"MEM_SW_MINOR_VERSION MEMMAP_SW_MINOR_VERSION"
000050e6 5f4d494e4f52 
000050ec 5f5645525349 
000050f2 4f4e204d454d 
000050f8 4d41505f5357 
000050fe 5f4d494e4f52 
00005104 5f5645525349 
0000510a 4f4e00 
0000510d 01             9878 	.byte	1
0000510e 22             9879 	.byte	34
0000510f 4d454d5f5357   9880 	.strz	"MEM_SW_PATCH_VERSION MEMMAP_SW_PATCH_VERSION"
00005115 5f5041544348 
0000511b 5f5645525349 
00005121 4f4e204d454d 
00005127 4d41505f5357 
0000512d 5f5041544348 
00005133 5f5645525349 
00005139 4f4e00 
0000513c 01             9881 	.byte	1
0000513d 24             9882 	.byte	36
0000513e 4d454d4d4150   9883 	.strz	"MEMMAP_ERROR "
00005144 5f4552524f52 
0000514a 2000 
0000514c 01             9884 	.byte	1
0000514d ea02           9885 	.byte	234,2
0000514f 53544f505f53   9886 	.strz	"STOP_SEC_CODE "
00005155 45435f434f44 
0000515b 452000 
0000515e 03             9887 	.byte	3
0000515f f403           9888 	.byte	244,3
00005161 12             9889 	.byte	18
00005162 04             9890 	.byte	4
00005163 04             9891 	.byte	4
00005164 04             9892 	.byte	4
00005165 01             9893 	.byte	1
00005166 fc03           9894 	.byte	252,3
00005168 525f46444c5f   9895 	.strz	"R_FDL_START_SEC_PUBLIC_CODE "
0000516e 53544152545f 
00005174 5345435f5055 
0000517a 424c49435f43 
00005180 4f44452000 

                                                                      Page 224
                                                              C:\Users\nhuliyap\AppData\Local\Temp\gh_0000d941.s
00005185 03             9896 	.byte	3
00005186 fd03           9897 	.byte	253,3
00005188 1b             9898 	.byte	27
00005189 01             9899 	.byte	1
0000518a 0c             9900 	.byte	12
0000518b 46444c5f5354   9901 	.strz	"FDL_START_SEC_PUBLIC_CODE "
00005191 4152545f5345 
00005197 435f5055424c 
0000519d 49435f434f44 
000051a3 452000 
000051a6 03             9902 	.byte	3
000051a7 20             9903 	.byte	32
000051a8 11             9904 	.byte	17
000051a9 01             9905 	.byte	1
000051aa 02             9906 	.byte	2
000051ab 4d454d4d4150   9907 	.strz	"MEMMAP_VENDOR_ID (30u)"
000051b1 5f56454e444f 
000051b7 525f49442028 
000051bd 3330752900 
000051c2 01             9908 	.byte	1
000051c3 08             9909 	.byte	8
000051c4 4d454d4d4150   9910 	.strz	"MEMMAP_AR_RELEASE_MAJOR_VERSION (4u)"
000051ca 5f41525f5245 
000051d0 4c454153455f 
000051d6 4d414a4f525f 
000051dc 56455253494f 
000051e2 4e2028347529 
000051e8 00 
000051e9 01             9911 	.byte	1
000051ea 09             9912 	.byte	9
000051eb 4d454d4d4150   9913 	.strz	"MEMMAP_AR_RELEASE_MINOR_VERSION (0u)"
000051f1 5f41525f5245 
000051f7 4c454153455f 
000051fd 4d494e4f525f 
00005203 56455253494f 
00005209 4e2028307529 
0000520f 00 
00005210 01             9914 	.byte	1
00005211 0a             9915 	.byte	10
00005212 4d454d4d4150   9916 	.strz	"MEMMAP_AR_RELEASE_REVISION_VERSION (3u)"
00005218 5f41525f5245 
0000521e 4c454153455f 
00005224 524556495349 
0000522a 4f4e5f564552 
00005230 53494f4e2028 
00005236 33752900 
0000523a 01             9917 	.byte	1
0000523b 10             9918 	.byte	16
0000523c 4d454d5f4152   9919 	.strz	"MEM_AR_RELEASE_MAJOR_VERSION MEMMAP_AR_RELEASE_MAJOR_VERSION"
00005242 5f52454c4541 
00005248 53455f4d414a 
0000524e 4f525f564552 
00005254 53494f4e204d 
0000525a 454d4d41505f 
00005260 41525f52454c 
00005266 454153455f4d 
0000526c 414a4f525f56 
00005272 455253494f4e 
00005278 00 
00005279 01             9920 	.byte	1
0000527a 11             9921 	.byte	17

                                                                      Page 225
                                                              C:\Users\nhuliyap\AppData\Local\Temp\gh_0000d941.s
0000527b 4d454d5f4152   9922 	.strz	"MEM_AR_RELEASE_MINOR_VERSION MEMMAP_AR_RELEASE_MINOR_VERSION"
00005281 5f52454c4541 
00005287 53455f4d494e 
0000528d 4f525f564552 
00005293 53494f4e204d 
00005299 454d4d41505f 
0000529f 41525f52454c 
000052a5 454153455f4d 
000052ab 494e4f525f56 
000052b1 455253494f4e 
000052b7 00 
000052b8 01             9923 	.byte	1
000052b9 12             9924 	.byte	18
000052ba 4d454d5f4152   9925 	.strz	"MEM_AR_RELEASE_PATCH_VERSION MEMMAP_AR_RELEASE_REVISION_VERSION"
000052c0 5f52454c4541 
000052c6 53455f504154 
000052cc 43485f564552 
000052d2 53494f4e204d 
000052d8 454d4d41505f 
000052de 41525f52454c 
000052e4 454153455f52 
000052ea 45564953494f 
000052f0 4e5f56455253 
000052f6 494f4e00 
000052fa 01             9926 	.byte	1
000052fb 18             9927 	.byte	24
000052fc 4d454d4d4150   9928 	.strz	"MEMMAP_SW_MAJOR_VERSION (1u)"
00005302 5f53575f4d41 
00005308 4a4f525f5645 
0000530e 5253494f4e20 
00005314 2831752900 
00005319 01             9929 	.byte	1
0000531a 19             9930 	.byte	25
0000531b 4d454d4d4150   9931 	.strz	"MEMMAP_SW_MINOR_VERSION (11u)"
00005321 5f53575f4d49 
00005327 4e4f525f5645 
0000532d 5253494f4e20 
00005333 283131752900 
00005339 01             9932 	.byte	1
0000533a 1a             9933 	.byte	26
0000533b 4d454d4d4150   9934 	.strz	"MEMMAP_SW_PATCH_VERSION (0u)"
00005341 5f53575f5041 
00005347 5443485f5645 
0000534d 5253494f4e20 
00005353 2830752900 
00005358 01             9935 	.byte	1
00005359 20             9936 	.byte	32
0000535a 4d454d5f5357   9937 	.strz	"MEM_SW_MAJOR_VERSION MEMMAP_SW_MAJOR_VERSION"
00005360 5f4d414a4f52 
00005366 5f5645525349 
0000536c 4f4e204d454d 
00005372 4d41505f5357 
00005378 5f4d414a4f52 
0000537e 5f5645525349 
00005384 4f4e00 
00005387 01             9938 	.byte	1
00005388 21             9939 	.byte	33
00005389 4d454d5f5357   9940 	.strz	"MEM_SW_MINOR_VERSION MEMMAP_SW_MINOR_VERSION"
0000538f 5f4d494e4f52 
00005395 5f5645525349 
0000539b 4f4e204d454d 

                                                                      Page 226
                                                              C:\Users\nhuliyap\AppData\Local\Temp\gh_0000d941.s
000053a1 4d41505f5357 
000053a7 5f4d494e4f52 
000053ad 5f5645525349 
000053b3 4f4e00 
000053b6 01             9941 	.byte	1
000053b7 22             9942 	.byte	34
000053b8 4d454d5f5357   9943 	.strz	"MEM_SW_PATCH_VERSION MEMMAP_SW_PATCH_VERSION"
000053be 5f5041544348 
000053c4 5f5645525349 
000053ca 4f4e204d454d 
000053d0 4d41505f5357 
000053d6 5f5041544348 
000053dc 5f5645525349 
000053e2 4f4e00 
000053e5 01             9944 	.byte	1
000053e6 24             9945 	.byte	36
000053e7 4d454d4d4150   9946 	.strz	"MEMMAP_ERROR "
000053ed 5f4552524f52 
000053f3 2000 
000053f5 01             9947 	.byte	1
000053f6 e602           9948 	.byte	230,2
000053f8 53544152545f   9949 	.strz	"START_SEC_CODE "
000053fe 5345435f434f 
00005404 44452000 
00005408 03             9950 	.byte	3
00005409 f403           9951 	.byte	244,3
0000540b 12             9952 	.byte	18
0000540c 01             9953 	.byte	1
0000540d f407           9954 	.byte	244,7
0000540f 434f44455f53   9955 	.strz	"CODE_SEC_OPEN "
00005415 45435f4f5045 
0000541b 4e2000 
0000541e 04             9956 	.byte	4
0000541f 04             9957 	.byte	4
00005420 04             9958 	.byte	4
00005421 01             9959 	.byte	1
00005422 8905           9960 	.byte	137,5
00005424 525f46444c5f   9961 	.strz	"R_FDL_STOP_SEC_PUBLIC_CODE "
0000542a 53544f505f53 
00005430 45435f505542 
00005436 4c49435f434f 
0000543c 44452000 
00005440 03             9962 	.byte	3
00005441 8a05           9963 	.byte	138,5
00005443 1b             9964 	.byte	27
00005444 01             9965 	.byte	1
00005445 0f             9966 	.byte	15
00005446 46444c5f5354   9967 	.strz	"FDL_STOP_SEC_PUBLIC_CODE "
0000544c 4f505f534543 
00005452 5f5055424c49 
00005458 435f434f4445 
0000545e 2000 
00005460 03             9968 	.byte	3
00005461 20             9969 	.byte	32
00005462 11             9970 	.byte	17
00005463 01             9971 	.byte	1
00005464 02             9972 	.byte	2
00005465 4d454d4d4150   9973 	.strz	"MEMMAP_VENDOR_ID (30u)"
0000546b 5f56454e444f 
00005471 525f49442028 
00005477 3330752900 

                                                                      Page 227
                                                              C:\Users\nhuliyap\AppData\Local\Temp\gh_0000d941.s
0000547c 01             9974 	.byte	1
0000547d 08             9975 	.byte	8
0000547e 4d454d4d4150   9976 	.strz	"MEMMAP_AR_RELEASE_MAJOR_VERSION (4u)"
00005484 5f41525f5245 
0000548a 4c454153455f 
00005490 4d414a4f525f 
00005496 56455253494f 
0000549c 4e2028347529 
000054a2 00 
000054a3 01             9977 	.byte	1
000054a4 09             9978 	.byte	9
000054a5 4d454d4d4150   9979 	.strz	"MEMMAP_AR_RELEASE_MINOR_VERSION (0u)"
000054ab 5f41525f5245 
000054b1 4c454153455f 
000054b7 4d494e4f525f 
000054bd 56455253494f 
000054c3 4e2028307529 
000054c9 00 
000054ca 01             9980 	.byte	1
000054cb 0a             9981 	.byte	10
000054cc 4d454d4d4150   9982 	.strz	"MEMMAP_AR_RELEASE_REVISION_VERSION (3u)"
000054d2 5f41525f5245 
000054d8 4c454153455f 
000054de 524556495349 
000054e4 4f4e5f564552 
000054ea 53494f4e2028 
000054f0 33752900 
000054f4 01             9983 	.byte	1
000054f5 10             9984 	.byte	16
000054f6 4d454d5f4152   9985 	.strz	"MEM_AR_RELEASE_MAJOR_VERSION MEMMAP_AR_RELEASE_MAJOR_VERSION"
000054fc 5f52454c4541 
00005502 53455f4d414a 
00005508 4f525f564552 
0000550e 53494f4e204d 
00005514 454d4d41505f 
0000551a 41525f52454c 
00005520 454153455f4d 
00005526 414a4f525f56 
0000552c 455253494f4e 
00005532 00 
00005533 01             9986 	.byte	1
00005534 11             9987 	.byte	17
00005535 4d454d5f4152   9988 	.strz	"MEM_AR_RELEASE_MINOR_VERSION MEMMAP_AR_RELEASE_MINOR_VERSION"
0000553b 5f52454c4541 
00005541 53455f4d494e 
00005547 4f525f564552 
0000554d 53494f4e204d 
00005553 454d4d41505f 
00005559 41525f52454c 
0000555f 454153455f4d 
00005565 494e4f525f56 
0000556b 455253494f4e 
00005571 00 
00005572 01             9989 	.byte	1
00005573 12             9990 	.byte	18
00005574 4d454d5f4152   9991 	.strz	"MEM_AR_RELEASE_PATCH_VERSION MEMMAP_AR_RELEASE_REVISION_VERSION"
0000557a 5f52454c4541 
00005580 53455f504154 
00005586 43485f564552 
0000558c 53494f4e204d 
00005592 454d4d41505f 

                                                                      Page 228
                                                              C:\Users\nhuliyap\AppData\Local\Temp\gh_0000d941.s
00005598 41525f52454c 
0000559e 454153455f52 
000055a4 45564953494f 
000055aa 4e5f56455253 
000055b0 494f4e00 
000055b4 01             9992 	.byte	1
000055b5 18             9993 	.byte	24
000055b6 4d454d4d4150   9994 	.strz	"MEMMAP_SW_MAJOR_VERSION (1u)"
000055bc 5f53575f4d41 
000055c2 4a4f525f5645 
000055c8 5253494f4e20 
000055ce 2831752900 
000055d3 01             9995 	.byte	1
000055d4 19             9996 	.byte	25
000055d5 4d454d4d4150   9997 	.strz	"MEMMAP_SW_MINOR_VERSION (11u)"
000055db 5f53575f4d49 
000055e1 4e4f525f5645 
000055e7 5253494f4e20 
000055ed 283131752900 
000055f3 01             9998 	.byte	1
000055f4 1a             9999 	.byte	26
000055f5 4d454d4d4150  10000 	.strz	"MEMMAP_SW_PATCH_VERSION (0u)"
000055fb 5f53575f5041 
00005601 5443485f5645 
00005607 5253494f4e20 
0000560d 2830752900 
00005612 01            10001 	.byte	1
00005613 20            10002 	.byte	32
00005614 4d454d5f5357  10003 	.strz	"MEM_SW_MAJOR_VERSION MEMMAP_SW_MAJOR_VERSION"
0000561a 5f4d414a4f52 
00005620 5f5645525349 
00005626 4f4e204d454d 
0000562c 4d41505f5357 
00005632 5f4d414a4f52 
00005638 5f5645525349 
0000563e 4f4e00 
00005641 01            10004 	.byte	1
00005642 21            10005 	.byte	33
00005643 4d454d5f5357  10006 	.strz	"MEM_SW_MINOR_VERSION MEMMAP_SW_MINOR_VERSION"
00005649 5f4d494e4f52 
0000564f 5f5645525349 
00005655 4f4e204d454d 
0000565b 4d41505f5357 
00005661 5f4d494e4f52 
00005667 5f5645525349 
0000566d 4f4e00 
00005670 01            10007 	.byte	1
00005671 22            10008 	.byte	34
00005672 4d454d5f5357  10009 	.strz	"MEM_SW_PATCH_VERSION MEMMAP_SW_PATCH_VERSION"
00005678 5f5041544348 
0000567e 5f5645525349 
00005684 4f4e204d454d 
0000568a 4d41505f5357 
00005690 5f5041544348 
00005696 5f5645525349 
0000569c 4f4e00 
0000569f 01            10010 	.byte	1
000056a0 24            10011 	.byte	36
000056a1 4d454d4d4150  10012 	.strz	"MEMMAP_ERROR "
000056a7 5f4552524f52 
000056ad 2000 

                                                                      Page 229
                                                              C:\Users\nhuliyap\AppData\Local\Temp\gh_0000d941.s
000056af 01            10013 	.byte	1
000056b0 ea02          10014 	.byte	234,2
000056b2 53544f505f53  10015 	.strz	"STOP_SEC_CODE "
000056b8 45435f434f44 
000056be 452000 
000056c1 03            10016 	.byte	3
000056c2 f403          10017 	.byte	244,3
000056c4 12            10018 	.byte	18
000056c5 04            10019 	.byte	4
000056c6 04            10020 	.byte	4
000056c7 04            10021 	.byte	4
000056c8 01            10022 	.byte	1
000056c9 8c05          10023 	.byte	140,5
000056cb 525f46444c5f  10024 	.strz	"R_FDL_START_SEC_PUBLIC_CODE "
000056d1 53544152545f 
000056d7 5345435f5055 
000056dd 424c49435f43 
000056e3 4f44452000 
000056e8 03            10025 	.byte	3
000056e9 8d05          10026 	.byte	141,5
000056eb 1b            10027 	.byte	27
000056ec 01            10028 	.byte	1
000056ed 0c            10029 	.byte	12
000056ee 46444c5f5354  10030 	.strz	"FDL_START_SEC_PUBLIC_CODE "
000056f4 4152545f5345 
000056fa 435f5055424c 
00005700 49435f434f44 
00005706 452000 
00005709 03            10031 	.byte	3
0000570a 20            10032 	.byte	32
0000570b 11            10033 	.byte	17
0000570c 01            10034 	.byte	1
0000570d 02            10035 	.byte	2
0000570e 4d454d4d4150  10036 	.strz	"MEMMAP_VENDOR_ID (30u)"
00005714 5f56454e444f 
0000571a 525f49442028 
00005720 3330752900 
00005725 01            10037 	.byte	1
00005726 08            10038 	.byte	8
00005727 4d454d4d4150  10039 	.strz	"MEMMAP_AR_RELEASE_MAJOR_VERSION (4u)"
0000572d 5f41525f5245 
00005733 4c454153455f 
00005739 4d414a4f525f 
0000573f 56455253494f 
00005745 4e2028347529 
0000574b 00 
0000574c 01            10040 	.byte	1
0000574d 09            10041 	.byte	9
0000574e 4d454d4d4150  10042 	.strz	"MEMMAP_AR_RELEASE_MINOR_VERSION (0u)"
00005754 5f41525f5245 
0000575a 4c454153455f 
00005760 4d494e4f525f 
00005766 56455253494f 
0000576c 4e2028307529 
00005772 00 
00005773 01            10043 	.byte	1
00005774 0a            10044 	.byte	10
00005775 4d454d4d4150  10045 	.strz	"MEMMAP_AR_RELEASE_REVISION_VERSION (3u)"
0000577b 5f41525f5245 
00005781 4c454153455f 
00005787 524556495349 

                                                                      Page 230
                                                              C:\Users\nhuliyap\AppData\Local\Temp\gh_0000d941.s
0000578d 4f4e5f564552 
00005793 53494f4e2028 
00005799 33752900 
0000579d 01            10046 	.byte	1
0000579e 10            10047 	.byte	16
0000579f 4d454d5f4152  10048 	.strz	"MEM_AR_RELEASE_MAJOR_VERSION MEMMAP_AR_RELEASE_MAJOR_VERSION"
000057a5 5f52454c4541 
000057ab 53455f4d414a 
000057b1 4f525f564552 
000057b7 53494f4e204d 
000057bd 454d4d41505f 
000057c3 41525f52454c 
000057c9 454153455f4d 
000057cf 414a4f525f56 
000057d5 455253494f4e 
000057db 00 
000057dc 01            10049 	.byte	1
000057dd 11            10050 	.byte	17
000057de 4d454d5f4152  10051 	.strz	"MEM_AR_RELEASE_MINOR_VERSION MEMMAP_AR_RELEASE_MINOR_VERSION"
000057e4 5f52454c4541 
000057ea 53455f4d494e 
000057f0 4f525f564552 
000057f6 53494f4e204d 
000057fc 454d4d41505f 
00005802 41525f52454c 
00005808 454153455f4d 
0000580e 494e4f525f56 
00005814 455253494f4e 
0000581a 00 
0000581b 01            10052 	.byte	1
0000581c 12            10053 	.byte	18
0000581d 4d454d5f4152  10054 	.strz	"MEM_AR_RELEASE_PATCH_VERSION MEMMAP_AR_RELEASE_REVISION_VERSION"
00005823 5f52454c4541 
00005829 53455f504154 
0000582f 43485f564552 
00005835 53494f4e204d 
0000583b 454d4d41505f 
00005841 41525f52454c 
00005847 454153455f52 
0000584d 45564953494f 
00005853 4e5f56455253 
00005859 494f4e00 
0000585d 01            10055 	.byte	1
0000585e 18            10056 	.byte	24
0000585f 4d454d4d4150  10057 	.strz	"MEMMAP_SW_MAJOR_VERSION (1u)"
00005865 5f53575f4d41 
0000586b 4a4f525f5645 
00005871 5253494f4e20 
00005877 2831752900 
0000587c 01            10058 	.byte	1
0000587d 19            10059 	.byte	25
0000587e 4d454d4d4150  10060 	.strz	"MEMMAP_SW_MINOR_VERSION (11u)"
00005884 5f53575f4d49 
0000588a 4e4f525f5645 
00005890 5253494f4e20 
00005896 283131752900 
0000589c 01            10061 	.byte	1
0000589d 1a            10062 	.byte	26
0000589e 4d454d4d4150  10063 	.strz	"MEMMAP_SW_PATCH_VERSION (0u)"
000058a4 5f53575f5041 
000058aa 5443485f5645 

                                                                      Page 231
                                                              C:\Users\nhuliyap\AppData\Local\Temp\gh_0000d941.s
000058b0 5253494f4e20 
000058b6 2830752900 
000058bb 01            10064 	.byte	1
000058bc 20            10065 	.byte	32
000058bd 4d454d5f5357  10066 	.strz	"MEM_SW_MAJOR_VERSION MEMMAP_SW_MAJOR_VERSION"
000058c3 5f4d414a4f52 
000058c9 5f5645525349 
000058cf 4f4e204d454d 
000058d5 4d41505f5357 
000058db 5f4d414a4f52 
000058e1 5f5645525349 
000058e7 4f4e00 
000058ea 01            10067 	.byte	1
000058eb 21            10068 	.byte	33
000058ec 4d454d5f5357  10069 	.strz	"MEM_SW_MINOR_VERSION MEMMAP_SW_MINOR_VERSION"
000058f2 5f4d494e4f52 
000058f8 5f5645525349 
000058fe 4f4e204d454d 
00005904 4d41505f5357 
0000590a 5f4d494e4f52 
00005910 5f5645525349 
00005916 4f4e00 
00005919 01            10070 	.byte	1
0000591a 22            10071 	.byte	34
0000591b 4d454d5f5357  10072 	.strz	"MEM_SW_PATCH_VERSION MEMMAP_SW_PATCH_VERSION"
00005921 5f5041544348 
00005927 5f5645525349 
0000592d 4f4e204d454d 
00005933 4d41505f5357 
00005939 5f5041544348 
0000593f 5f5645525349 
00005945 4f4e00 
00005948 01            10073 	.byte	1
00005949 24            10074 	.byte	36
0000594a 4d454d4d4150  10075 	.strz	"MEMMAP_ERROR "
00005950 5f4552524f52 
00005956 2000 
00005958 01            10076 	.byte	1
00005959 e602          10077 	.byte	230,2
0000595b 53544152545f  10078 	.strz	"START_SEC_CODE "
00005961 5345435f434f 
00005967 44452000 
0000596b 03            10079 	.byte	3
0000596c f403          10080 	.byte	244,3
0000596e 12            10081 	.byte	18
0000596f 01            10082 	.byte	1
00005970 f407          10083 	.byte	244,7
00005972 434f44455f53  10084 	.strz	"CODE_SEC_OPEN "
00005978 45435f4f5045 
0000597e 4e2000 
00005981 04            10085 	.byte	4
00005982 04            10086 	.byte	4
00005983 04            10087 	.byte	4
00005984 01            10088 	.byte	1
00005985 d805          10089 	.byte	216,5
00005987 525f46444c5f  10090 	.strz	"R_FDL_STOP_SEC_PUBLIC_CODE "
0000598d 53544f505f53 
00005993 45435f505542 
00005999 4c49435f434f 
0000599f 44452000 
000059a3 03            10091 	.byte	3

                                                                      Page 232
                                                              C:\Users\nhuliyap\AppData\Local\Temp\gh_0000d941.s
000059a4 d905          10092 	.byte	217,5
000059a6 1b            10093 	.byte	27
000059a7 01            10094 	.byte	1
000059a8 0f            10095 	.byte	15
000059a9 46444c5f5354  10096 	.strz	"FDL_STOP_SEC_PUBLIC_CODE "
000059af 4f505f534543 
000059b5 5f5055424c49 
000059bb 435f434f4445 
000059c1 2000 
000059c3 03            10097 	.byte	3
000059c4 20            10098 	.byte	32
000059c5 11            10099 	.byte	17
000059c6 01            10100 	.byte	1
000059c7 02            10101 	.byte	2
000059c8 4d454d4d4150  10102 	.strz	"MEMMAP_VENDOR_ID (30u)"
000059ce 5f56454e444f 
000059d4 525f49442028 
000059da 3330752900 
000059df 01            10103 	.byte	1
000059e0 08            10104 	.byte	8
000059e1 4d454d4d4150  10105 	.strz	"MEMMAP_AR_RELEASE_MAJOR_VERSION (4u)"
000059e7 5f41525f5245 
000059ed 4c454153455f 
000059f3 4d414a4f525f 
000059f9 56455253494f 
000059ff 4e2028347529 
00005a05 00 
00005a06 01            10106 	.byte	1
00005a07 09            10107 	.byte	9
00005a08 4d454d4d4150  10108 	.strz	"MEMMAP_AR_RELEASE_MINOR_VERSION (0u)"
00005a0e 5f41525f5245 
00005a14 4c454153455f 
00005a1a 4d494e4f525f 
00005a20 56455253494f 
00005a26 4e2028307529 
00005a2c 00 
00005a2d 01            10109 	.byte	1
00005a2e 0a            10110 	.byte	10
00005a2f 4d454d4d4150  10111 	.strz	"MEMMAP_AR_RELEASE_REVISION_VERSION (3u)"
00005a35 5f41525f5245 
00005a3b 4c454153455f 
00005a41 524556495349 
00005a47 4f4e5f564552 
00005a4d 53494f4e2028 
00005a53 33752900 
00005a57 01            10112 	.byte	1
00005a58 10            10113 	.byte	16
00005a59 4d454d5f4152  10114 	.strz	"MEM_AR_RELEASE_MAJOR_VERSION MEMMAP_AR_RELEASE_MAJOR_VERSION"
00005a5f 5f52454c4541 
00005a65 53455f4d414a 
00005a6b 4f525f564552 
00005a71 53494f4e204d 
00005a77 454d4d41505f 
00005a7d 41525f52454c 
00005a83 454153455f4d 
00005a89 414a4f525f56 
00005a8f 455253494f4e 
00005a95 00 
00005a96 01            10115 	.byte	1
00005a97 11            10116 	.byte	17
00005a98 4d454d5f4152  10117 	.strz	"MEM_AR_RELEASE_MINOR_VERSION MEMMAP_AR_RELEASE_MINOR_VERSION"

                                                                      Page 233
                                                              C:\Users\nhuliyap\AppData\Local\Temp\gh_0000d941.s
00005a9e 5f52454c4541 
00005aa4 53455f4d494e 
00005aaa 4f525f564552 
00005ab0 53494f4e204d 
00005ab6 454d4d41505f 
00005abc 41525f52454c 
00005ac2 454153455f4d 
00005ac8 494e4f525f56 
00005ace 455253494f4e 
00005ad4 00 
00005ad5 01            10118 	.byte	1
00005ad6 12            10119 	.byte	18
00005ad7 4d454d5f4152  10120 	.strz	"MEM_AR_RELEASE_PATCH_VERSION MEMMAP_AR_RELEASE_REVISION_VERSION"
00005add 5f52454c4541 
00005ae3 53455f504154 
00005ae9 43485f564552 
00005aef 53494f4e204d 
00005af5 454d4d41505f 
00005afb 41525f52454c 
00005b01 454153455f52 
00005b07 45564953494f 
00005b0d 4e5f56455253 
00005b13 494f4e00 
00005b17 01            10121 	.byte	1
00005b18 18            10122 	.byte	24
00005b19 4d454d4d4150  10123 	.strz	"MEMMAP_SW_MAJOR_VERSION (1u)"
00005b1f 5f53575f4d41 
00005b25 4a4f525f5645 
00005b2b 5253494f4e20 
00005b31 2831752900 
00005b36 01            10124 	.byte	1
00005b37 19            10125 	.byte	25
00005b38 4d454d4d4150  10126 	.strz	"MEMMAP_SW_MINOR_VERSION (11u)"
00005b3e 5f53575f4d49 
00005b44 4e4f525f5645 
00005b4a 5253494f4e20 
00005b50 283131752900 
00005b56 01            10127 	.byte	1
00005b57 1a            10128 	.byte	26
00005b58 4d454d4d4150  10129 	.strz	"MEMMAP_SW_PATCH_VERSION (0u)"
00005b5e 5f53575f5041 
00005b64 5443485f5645 
00005b6a 5253494f4e20 
00005b70 2830752900 
00005b75 01            10130 	.byte	1
00005b76 20            10131 	.byte	32
00005b77 4d454d5f5357  10132 	.strz	"MEM_SW_MAJOR_VERSION MEMMAP_SW_MAJOR_VERSION"
00005b7d 5f4d414a4f52 
00005b83 5f5645525349 
00005b89 4f4e204d454d 
00005b8f 4d41505f5357 
00005b95 5f4d414a4f52 
00005b9b 5f5645525349 
00005ba1 4f4e00 
00005ba4 01            10133 	.byte	1
00005ba5 21            10134 	.byte	33
00005ba6 4d454d5f5357  10135 	.strz	"MEM_SW_MINOR_VERSION MEMMAP_SW_MINOR_VERSION"
00005bac 5f4d494e4f52 
00005bb2 5f5645525349 
00005bb8 4f4e204d454d 
00005bbe 4d41505f5357 

                                                                      Page 234
                                                              C:\Users\nhuliyap\AppData\Local\Temp\gh_0000d941.s
00005bc4 5f4d494e4f52 
00005bca 5f5645525349 
00005bd0 4f4e00 
00005bd3 01            10136 	.byte	1
00005bd4 22            10137 	.byte	34
00005bd5 4d454d5f5357  10138 	.strz	"MEM_SW_PATCH_VERSION MEMMAP_SW_PATCH_VERSION"
00005bdb 5f5041544348 
00005be1 5f5645525349 
00005be7 4f4e204d454d 
00005bed 4d41505f5357 
00005bf3 5f5041544348 
00005bf9 5f5645525349 
00005bff 4f4e00 
00005c02 01            10139 	.byte	1
00005c03 24            10140 	.byte	36
00005c04 4d454d4d4150  10141 	.strz	"MEMMAP_ERROR "
00005c0a 5f4552524f52 
00005c10 2000 
00005c12 01            10142 	.byte	1
00005c13 ea02          10143 	.byte	234,2
00005c15 53544f505f53  10144 	.strz	"STOP_SEC_CODE "
00005c1b 45435f434f44 
00005c21 452000 
00005c24 03            10145 	.byte	3
00005c25 f403          10146 	.byte	244,3
00005c27 12            10147 	.byte	18
00005c28 04            10148 	.byte	4
00005c29 04            10149 	.byte	4
00005c2a 04            10150 	.byte	4
00005c2b 01            10151 	.byte	1
00005c2c dd05          10152 	.byte	221,5
00005c2e 525f46444c5f  10153 	.strz	"R_FDL_START_SEC_PUBLIC_CODE "
00005c34 53544152545f 
00005c3a 5345435f5055 
00005c40 424c49435f43 
00005c46 4f44452000 
00005c4b 03            10154 	.byte	3
00005c4c de05          10155 	.byte	222,5
00005c4e 1b            10156 	.byte	27
00005c4f 01            10157 	.byte	1
00005c50 0c            10158 	.byte	12
00005c51 46444c5f5354  10159 	.strz	"FDL_START_SEC_PUBLIC_CODE "
00005c57 4152545f5345 
00005c5d 435f5055424c 
00005c63 49435f434f44 
00005c69 452000 
00005c6c 03            10160 	.byte	3
00005c6d 20            10161 	.byte	32
00005c6e 11            10162 	.byte	17
00005c6f 01            10163 	.byte	1
00005c70 02            10164 	.byte	2
00005c71 4d454d4d4150  10165 	.strz	"MEMMAP_VENDOR_ID (30u)"
00005c77 5f56454e444f 
00005c7d 525f49442028 
00005c83 3330752900 
00005c88 01            10166 	.byte	1
00005c89 08            10167 	.byte	8
00005c8a 4d454d4d4150  10168 	.strz	"MEMMAP_AR_RELEASE_MAJOR_VERSION (4u)"
00005c90 5f41525f5245 
00005c96 4c454153455f 
00005c9c 4d414a4f525f 

                                                                      Page 235
                                                              C:\Users\nhuliyap\AppData\Local\Temp\gh_0000d941.s
00005ca2 56455253494f 
00005ca8 4e2028347529 
00005cae 00 
00005caf 01            10169 	.byte	1
00005cb0 09            10170 	.byte	9
00005cb1 4d454d4d4150  10171 	.strz	"MEMMAP_AR_RELEASE_MINOR_VERSION (0u)"
00005cb7 5f41525f5245 
00005cbd 4c454153455f 
00005cc3 4d494e4f525f 
00005cc9 56455253494f 
00005ccf 4e2028307529 
00005cd5 00 
00005cd6 01            10172 	.byte	1
00005cd7 0a            10173 	.byte	10
00005cd8 4d454d4d4150  10174 	.strz	"MEMMAP_AR_RELEASE_REVISION_VERSION (3u)"
00005cde 5f41525f5245 
00005ce4 4c454153455f 
00005cea 524556495349 
00005cf0 4f4e5f564552 
00005cf6 53494f4e2028 
00005cfc 33752900 
00005d00 01            10175 	.byte	1
00005d01 10            10176 	.byte	16
00005d02 4d454d5f4152  10177 	.strz	"MEM_AR_RELEASE_MAJOR_VERSION MEMMAP_AR_RELEASE_MAJOR_VERSION"
00005d08 5f52454c4541 
00005d0e 53455f4d414a 
00005d14 4f525f564552 
00005d1a 53494f4e204d 
00005d20 454d4d41505f 
00005d26 41525f52454c 
00005d2c 454153455f4d 
00005d32 414a4f525f56 
00005d38 455253494f4e 
00005d3e 00 
00005d3f 01            10178 	.byte	1
00005d40 11            10179 	.byte	17
00005d41 4d454d5f4152  10180 	.strz	"MEM_AR_RELEASE_MINOR_VERSION MEMMAP_AR_RELEASE_MINOR_VERSION"
00005d47 5f52454c4541 
00005d4d 53455f4d494e 
00005d53 4f525f564552 
00005d59 53494f4e204d 
00005d5f 454d4d41505f 
00005d65 41525f52454c 
00005d6b 454153455f4d 
00005d71 494e4f525f56 
00005d77 455253494f4e 
00005d7d 00 
00005d7e 01            10181 	.byte	1
00005d7f 12            10182 	.byte	18
00005d80 4d454d5f4152  10183 	.strz	"MEM_AR_RELEASE_PATCH_VERSION MEMMAP_AR_RELEASE_REVISION_VERSION"
00005d86 5f52454c4541 
00005d8c 53455f504154 
00005d92 43485f564552 
00005d98 53494f4e204d 
00005d9e 454d4d41505f 
00005da4 41525f52454c 
00005daa 454153455f52 
00005db0 45564953494f 
00005db6 4e5f56455253 
00005dbc 494f4e00 
00005dc0 01            10184 	.byte	1

                                                                      Page 236
                                                              C:\Users\nhuliyap\AppData\Local\Temp\gh_0000d941.s
00005dc1 18            10185 	.byte	24
00005dc2 4d454d4d4150  10186 	.strz	"MEMMAP_SW_MAJOR_VERSION (1u)"
00005dc8 5f53575f4d41 
00005dce 4a4f525f5645 
00005dd4 5253494f4e20 
00005dda 2831752900 
00005ddf 01            10187 	.byte	1
00005de0 19            10188 	.byte	25
00005de1 4d454d4d4150  10189 	.strz	"MEMMAP_SW_MINOR_VERSION (11u)"
00005de7 5f53575f4d49 
00005ded 4e4f525f5645 
00005df3 5253494f4e20 
00005df9 283131752900 
00005dff 01            10190 	.byte	1
00005e00 1a            10191 	.byte	26
00005e01 4d454d4d4150  10192 	.strz	"MEMMAP_SW_PATCH_VERSION (0u)"
00005e07 5f53575f5041 
00005e0d 5443485f5645 
00005e13 5253494f4e20 
00005e19 2830752900 
00005e1e 01            10193 	.byte	1
00005e1f 20            10194 	.byte	32
00005e20 4d454d5f5357  10195 	.strz	"MEM_SW_MAJOR_VERSION MEMMAP_SW_MAJOR_VERSION"
00005e26 5f4d414a4f52 
00005e2c 5f5645525349 
00005e32 4f4e204d454d 
00005e38 4d41505f5357 
00005e3e 5f4d414a4f52 
00005e44 5f5645525349 
00005e4a 4f4e00 
00005e4d 01            10196 	.byte	1
00005e4e 21            10197 	.byte	33
00005e4f 4d454d5f5357  10198 	.strz	"MEM_SW_MINOR_VERSION MEMMAP_SW_MINOR_VERSION"
00005e55 5f4d494e4f52 
00005e5b 5f5645525349 
00005e61 4f4e204d454d 
00005e67 4d41505f5357 
00005e6d 5f4d494e4f52 
00005e73 5f5645525349 
00005e79 4f4e00 
00005e7c 01            10199 	.byte	1
00005e7d 22            10200 	.byte	34
00005e7e 4d454d5f5357  10201 	.strz	"MEM_SW_PATCH_VERSION MEMMAP_SW_PATCH_VERSION"
00005e84 5f5041544348 
00005e8a 5f5645525349 
00005e90 4f4e204d454d 
00005e96 4d41505f5357 
00005e9c 5f5041544348 
00005ea2 5f5645525349 
00005ea8 4f4e00 
00005eab 01            10202 	.byte	1
00005eac 24            10203 	.byte	36
00005ead 4d454d4d4150  10204 	.strz	"MEMMAP_ERROR "
00005eb3 5f4552524f52 
00005eb9 2000 
00005ebb 01            10205 	.byte	1
00005ebc e602          10206 	.byte	230,2
00005ebe 53544152545f  10207 	.strz	"START_SEC_CODE "
00005ec4 5345435f434f 
00005eca 44452000 
00005ece 03            10208 	.byte	3

                                                                      Page 237
                                                              C:\Users\nhuliyap\AppData\Local\Temp\gh_0000d941.s
00005ecf f403          10209 	.byte	244,3
00005ed1 12            10210 	.byte	18
00005ed2 01            10211 	.byte	1
00005ed3 f407          10212 	.byte	244,7
00005ed5 434f44455f53  10213 	.strz	"CODE_SEC_OPEN "
00005edb 45435f4f5045 
00005ee1 4e2000 
00005ee4 04            10214 	.byte	4
00005ee5 04            10215 	.byte	4
00005ee6 04            10216 	.byte	4
00005ee7 01            10217 	.byte	1
00005ee8 e405          10218 	.byte	228,5
00005eea 525f46444c5f  10219 	.strz	"R_FDL_STOP_SEC_PUBLIC_CODE "
00005ef0 53544f505f53 
00005ef6 45435f505542 
00005efc 4c49435f434f 
00005f02 44452000 
00005f06 03            10220 	.byte	3
00005f07 e505          10221 	.byte	229,5
00005f09 1b            10222 	.byte	27
00005f0a 01            10223 	.byte	1
00005f0b 0f            10224 	.byte	15
00005f0c 46444c5f5354  10225 	.strz	"FDL_STOP_SEC_PUBLIC_CODE "
00005f12 4f505f534543 
00005f18 5f5055424c49 
00005f1e 435f434f4445 
00005f24 2000 
00005f26 03            10226 	.byte	3
00005f27 20            10227 	.byte	32
00005f28 11            10228 	.byte	17
00005f29 01            10229 	.byte	1
00005f2a 02            10230 	.byte	2
00005f2b 4d454d4d4150  10231 	.strz	"MEMMAP_VENDOR_ID (30u)"
00005f31 5f56454e444f 
00005f37 525f49442028 
00005f3d 3330752900 
00005f42 01            10232 	.byte	1
00005f43 08            10233 	.byte	8
00005f44 4d454d4d4150  10234 	.strz	"MEMMAP_AR_RELEASE_MAJOR_VERSION (4u)"
00005f4a 5f41525f5245 
00005f50 4c454153455f 
00005f56 4d414a4f525f 
00005f5c 56455253494f 
00005f62 4e2028347529 
00005f68 00 
00005f69 01            10235 	.byte	1
00005f6a 09            10236 	.byte	9
00005f6b 4d454d4d4150  10237 	.strz	"MEMMAP_AR_RELEASE_MINOR_VERSION (0u)"
00005f71 5f41525f5245 
00005f77 4c454153455f 
00005f7d 4d494e4f525f 
00005f83 56455253494f 
00005f89 4e2028307529 
00005f8f 00 
00005f90 01            10238 	.byte	1
00005f91 0a            10239 	.byte	10
00005f92 4d454d4d4150  10240 	.strz	"MEMMAP_AR_RELEASE_REVISION_VERSION (3u)"
00005f98 5f41525f5245 
00005f9e 4c454153455f 
00005fa4 524556495349 
00005faa 4f4e5f564552 

                                                                      Page 238
                                                              C:\Users\nhuliyap\AppData\Local\Temp\gh_0000d941.s
00005fb0 53494f4e2028 
00005fb6 33752900 
00005fba 01            10241 	.byte	1
00005fbb 10            10242 	.byte	16
00005fbc 4d454d5f4152  10243 	.strz	"MEM_AR_RELEASE_MAJOR_VERSION MEMMAP_AR_RELEASE_MAJOR_VERSION"
00005fc2 5f52454c4541 
00005fc8 53455f4d414a 
00005fce 4f525f564552 
00005fd4 53494f4e204d 
00005fda 454d4d41505f 
00005fe0 41525f52454c 
00005fe6 454153455f4d 
00005fec 414a4f525f56 
00005ff2 455253494f4e 
00005ff8 00 
00005ff9 01            10244 	.byte	1
00005ffa 11            10245 	.byte	17
00005ffb 4d454d5f4152  10246 	.strz	"MEM_AR_RELEASE_MINOR_VERSION MEMMAP_AR_RELEASE_MINOR_VERSION"
00006001 5f52454c4541 
00006007 53455f4d494e 
0000600d 4f525f564552 
00006013 53494f4e204d 
00006019 454d4d41505f 
0000601f 41525f52454c 
00006025 454153455f4d 
0000602b 494e4f525f56 
00006031 455253494f4e 
00006037 00 
00006038 01            10247 	.byte	1
00006039 12            10248 	.byte	18
0000603a 4d454d5f4152  10249 	.strz	"MEM_AR_RELEASE_PATCH_VERSION MEMMAP_AR_RELEASE_REVISION_VERSION"
00006040 5f52454c4541 
00006046 53455f504154 
0000604c 43485f564552 
00006052 53494f4e204d 
00006058 454d4d41505f 
0000605e 41525f52454c 
00006064 454153455f52 
0000606a 45564953494f 
00006070 4e5f56455253 
00006076 494f4e00 
0000607a 01            10250 	.byte	1
0000607b 18            10251 	.byte	24
0000607c 4d454d4d4150  10252 	.strz	"MEMMAP_SW_MAJOR_VERSION (1u)"
00006082 5f53575f4d41 
00006088 4a4f525f5645 
0000608e 5253494f4e20 
00006094 2831752900 
00006099 01            10253 	.byte	1
0000609a 19            10254 	.byte	25
0000609b 4d454d4d4150  10255 	.strz	"MEMMAP_SW_MINOR_VERSION (11u)"
000060a1 5f53575f4d49 
000060a7 4e4f525f5645 
000060ad 5253494f4e20 
000060b3 283131752900 
000060b9 01            10256 	.byte	1
000060ba 1a            10257 	.byte	26
000060bb 4d454d4d4150  10258 	.strz	"MEMMAP_SW_PATCH_VERSION (0u)"
000060c1 5f53575f5041 
000060c7 5443485f5645 
000060cd 5253494f4e20 

                                                                      Page 239
                                                              C:\Users\nhuliyap\AppData\Local\Temp\gh_0000d941.s
000060d3 2830752900 
000060d8 01            10259 	.byte	1
000060d9 20            10260 	.byte	32
000060da 4d454d5f5357  10261 	.strz	"MEM_SW_MAJOR_VERSION MEMMAP_SW_MAJOR_VERSION"
000060e0 5f4d414a4f52 
000060e6 5f5645525349 
000060ec 4f4e204d454d 
000060f2 4d41505f5357 
000060f8 5f4d414a4f52 
000060fe 5f5645525349 
00006104 4f4e00 
00006107 01            10262 	.byte	1
00006108 21            10263 	.byte	33
00006109 4d454d5f5357  10264 	.strz	"MEM_SW_MINOR_VERSION MEMMAP_SW_MINOR_VERSION"
0000610f 5f4d494e4f52 
00006115 5f5645525349 
0000611b 4f4e204d454d 
00006121 4d41505f5357 
00006127 5f4d494e4f52 
0000612d 5f5645525349 
00006133 4f4e00 
00006136 01            10265 	.byte	1
00006137 22            10266 	.byte	34
00006138 4d454d5f5357  10267 	.strz	"MEM_SW_PATCH_VERSION MEMMAP_SW_PATCH_VERSION"
0000613e 5f5041544348 
00006144 5f5645525349 
0000614a 4f4e204d454d 
00006150 4d41505f5357 
00006156 5f5041544348 
0000615c 5f5645525349 
00006162 4f4e00 
00006165 01            10268 	.byte	1
00006166 24            10269 	.byte	36
00006167 4d454d4d4150  10270 	.strz	"MEMMAP_ERROR "
0000616d 5f4552524f52 
00006173 2000 
00006175 01            10271 	.byte	1
00006176 ea02          10272 	.byte	234,2
00006178 53544f505f53  10273 	.strz	"STOP_SEC_CODE "
0000617e 45435f434f44 
00006184 452000 
00006187 03            10274 	.byte	3
00006188 f403          10275 	.byte	244,3
0000618a 12            10276 	.byte	18
0000618b 04            10277 	.byte	4
0000618c 04            10278 	.byte	4
0000618d 04            10279 	.byte	4
0000618e 01            10280 	.byte	1
0000618f e905          10281 	.byte	233,5
00006191 525f46444c5f  10282 	.strz	"R_FDL_START_SEC_PUBLIC_CODE "
00006197 53544152545f 
0000619d 5345435f5055 
000061a3 424c49435f43 
000061a9 4f44452000 
000061ae 03            10283 	.byte	3
000061af ea05          10284 	.byte	234,5
000061b1 1b            10285 	.byte	27
000061b2 01            10286 	.byte	1
000061b3 0c            10287 	.byte	12
000061b4 46444c5f5354  10288 	.strz	"FDL_START_SEC_PUBLIC_CODE "
000061ba 4152545f5345 

                                                                      Page 240
                                                              C:\Users\nhuliyap\AppData\Local\Temp\gh_0000d941.s
000061c0 435f5055424c 
000061c6 49435f434f44 
000061cc 452000 
000061cf 03            10289 	.byte	3
000061d0 20            10290 	.byte	32
000061d1 11            10291 	.byte	17
000061d2 01            10292 	.byte	1
000061d3 02            10293 	.byte	2
000061d4 4d454d4d4150  10294 	.strz	"MEMMAP_VENDOR_ID (30u)"
000061da 5f56454e444f 
000061e0 525f49442028 
000061e6 3330752900 
000061eb 01            10295 	.byte	1
000061ec 08            10296 	.byte	8
000061ed 4d454d4d4150  10297 	.strz	"MEMMAP_AR_RELEASE_MAJOR_VERSION (4u)"
000061f3 5f41525f5245 
000061f9 4c454153455f 
000061ff 4d414a4f525f 
00006205 56455253494f 
0000620b 4e2028347529 
00006211 00 
00006212 01            10298 	.byte	1
00006213 09            10299 	.byte	9
00006214 4d454d4d4150  10300 	.strz	"MEMMAP_AR_RELEASE_MINOR_VERSION (0u)"
0000621a 5f41525f5245 
00006220 4c454153455f 
00006226 4d494e4f525f 
0000622c 56455253494f 
00006232 4e2028307529 
00006238 00 
00006239 01            10301 	.byte	1
0000623a 0a            10302 	.byte	10
0000623b 4d454d4d4150  10303 	.strz	"MEMMAP_AR_RELEASE_REVISION_VERSION (3u)"
00006241 5f41525f5245 
00006247 4c454153455f 
0000624d 524556495349 
00006253 4f4e5f564552 
00006259 53494f4e2028 
0000625f 33752900 
00006263 01            10304 	.byte	1
00006264 10            10305 	.byte	16
00006265 4d454d5f4152  10306 	.strz	"MEM_AR_RELEASE_MAJOR_VERSION MEMMAP_AR_RELEASE_MAJOR_VERSION"
0000626b 5f52454c4541 
00006271 53455f4d414a 
00006277 4f525f564552 
0000627d 53494f4e204d 
00006283 454d4d41505f 
00006289 41525f52454c 
0000628f 454153455f4d 
00006295 414a4f525f56 
0000629b 455253494f4e 
000062a1 00 
000062a2 01            10307 	.byte	1
000062a3 11            10308 	.byte	17
000062a4 4d454d5f4152  10309 	.strz	"MEM_AR_RELEASE_MINOR_VERSION MEMMAP_AR_RELEASE_MINOR_VERSION"
000062aa 5f52454c4541 
000062b0 53455f4d494e 
000062b6 4f525f564552 
000062bc 53494f4e204d 
000062c2 454d4d41505f 
000062c8 41525f52454c 

                                                                      Page 241
                                                              C:\Users\nhuliyap\AppData\Local\Temp\gh_0000d941.s
000062ce 454153455f4d 
000062d4 494e4f525f56 
000062da 455253494f4e 
000062e0 00 
000062e1 01            10310 	.byte	1
000062e2 12            10311 	.byte	18
000062e3 4d454d5f4152  10312 	.strz	"MEM_AR_RELEASE_PATCH_VERSION MEMMAP_AR_RELEASE_REVISION_VERSION"
000062e9 5f52454c4541 
000062ef 53455f504154 
000062f5 43485f564552 
000062fb 53494f4e204d 
00006301 454d4d41505f 
00006307 41525f52454c 
0000630d 454153455f52 
00006313 45564953494f 
00006319 4e5f56455253 
0000631f 494f4e00 
00006323 01            10313 	.byte	1
00006324 18            10314 	.byte	24
00006325 4d454d4d4150  10315 	.strz	"MEMMAP_SW_MAJOR_VERSION (1u)"
0000632b 5f53575f4d41 
00006331 4a4f525f5645 
00006337 5253494f4e20 
0000633d 2831752900 
00006342 01            10316 	.byte	1
00006343 19            10317 	.byte	25
00006344 4d454d4d4150  10318 	.strz	"MEMMAP_SW_MINOR_VERSION (11u)"
0000634a 5f53575f4d49 
00006350 4e4f525f5645 
00006356 5253494f4e20 
0000635c 283131752900 
00006362 01            10319 	.byte	1
00006363 1a            10320 	.byte	26
00006364 4d454d4d4150  10321 	.strz	"MEMMAP_SW_PATCH_VERSION (0u)"
0000636a 5f53575f5041 
00006370 5443485f5645 
00006376 5253494f4e20 
0000637c 2830752900 
00006381 01            10322 	.byte	1
00006382 20            10323 	.byte	32
00006383 4d454d5f5357  10324 	.strz	"MEM_SW_MAJOR_VERSION MEMMAP_SW_MAJOR_VERSION"
00006389 5f4d414a4f52 
0000638f 5f5645525349 
00006395 4f4e204d454d 
0000639b 4d41505f5357 
000063a1 5f4d414a4f52 
000063a7 5f5645525349 
000063ad 4f4e00 
000063b0 01            10325 	.byte	1
000063b1 21            10326 	.byte	33
000063b2 4d454d5f5357  10327 	.strz	"MEM_SW_MINOR_VERSION MEMMAP_SW_MINOR_VERSION"
000063b8 5f4d494e4f52 
000063be 5f5645525349 
000063c4 4f4e204d454d 
000063ca 4d41505f5357 
000063d0 5f4d494e4f52 
000063d6 5f5645525349 
000063dc 4f4e00 
000063df 01            10328 	.byte	1
000063e0 22            10329 	.byte	34
000063e1 4d454d5f5357  10330 	.strz	"MEM_SW_PATCH_VERSION MEMMAP_SW_PATCH_VERSION"

                                                                      Page 242
                                                              C:\Users\nhuliyap\AppData\Local\Temp\gh_0000d941.s
000063e7 5f5041544348 
000063ed 5f5645525349 
000063f3 4f4e204d454d 
000063f9 4d41505f5357 
000063ff 5f5041544348 
00006405 5f5645525349 
0000640b 4f4e00 
0000640e 01            10331 	.byte	1
0000640f 24            10332 	.byte	36
00006410 4d454d4d4150  10333 	.strz	"MEMMAP_ERROR "
00006416 5f4552524f52 
0000641c 2000 
0000641e 01            10334 	.byte	1
0000641f e602          10335 	.byte	230,2
00006421 53544152545f  10336 	.strz	"START_SEC_CODE "
00006427 5345435f434f 
0000642d 44452000 
00006431 03            10337 	.byte	3
00006432 f403          10338 	.byte	244,3
00006434 12            10339 	.byte	18
00006435 01            10340 	.byte	1
00006436 f407          10341 	.byte	244,7
00006438 434f44455f53  10342 	.strz	"CODE_SEC_OPEN "
0000643e 45435f4f5045 
00006444 4e2000 
00006447 04            10343 	.byte	4
00006448 04            10344 	.byte	4
00006449 04            10345 	.byte	4
0000644a 01            10346 	.byte	1
0000644b ff05          10347 	.byte	255,5
0000644d 525f46444c5f  10348 	.strz	"R_FDL_STOP_SEC_PUBLIC_CODE "
00006453 53544f505f53 
00006459 45435f505542 
0000645f 4c49435f434f 
00006465 44452000 
00006469 03            10349 	.byte	3
0000646a 8006          10350 	.byte	128,6
0000646c 1b            10351 	.byte	27
0000646d 01            10352 	.byte	1
0000646e 0f            10353 	.byte	15
0000646f 46444c5f5354  10354 	.strz	"FDL_STOP_SEC_PUBLIC_CODE "
00006475 4f505f534543 
0000647b 5f5055424c49 
00006481 435f434f4445 
00006487 2000 
00006489 03            10355 	.byte	3
0000648a 20            10356 	.byte	32
0000648b 11            10357 	.byte	17
0000648c 01            10358 	.byte	1
0000648d 02            10359 	.byte	2
0000648e 4d454d4d4150  10360 	.strz	"MEMMAP_VENDOR_ID (30u)"
00006494 5f56454e444f 
0000649a 525f49442028 
000064a0 3330752900 
000064a5 01            10361 	.byte	1
000064a6 08            10362 	.byte	8
000064a7 4d454d4d4150  10363 	.strz	"MEMMAP_AR_RELEASE_MAJOR_VERSION (4u)"
000064ad 5f41525f5245 
000064b3 4c454153455f 
000064b9 4d414a4f525f 
000064bf 56455253494f 

                                                                      Page 243
                                                              C:\Users\nhuliyap\AppData\Local\Temp\gh_0000d941.s
000064c5 4e2028347529 
000064cb 00 
000064cc 01            10364 	.byte	1
000064cd 09            10365 	.byte	9
000064ce 4d454d4d4150  10366 	.strz	"MEMMAP_AR_RELEASE_MINOR_VERSION (0u)"
000064d4 5f41525f5245 
000064da 4c454153455f 
000064e0 4d494e4f525f 
000064e6 56455253494f 
000064ec 4e2028307529 
000064f2 00 
000064f3 01            10367 	.byte	1
000064f4 0a            10368 	.byte	10
000064f5 4d454d4d4150  10369 	.strz	"MEMMAP_AR_RELEASE_REVISION_VERSION (3u)"
000064fb 5f41525f5245 
00006501 4c454153455f 
00006507 524556495349 
0000650d 4f4e5f564552 
00006513 53494f4e2028 
00006519 33752900 
0000651d 01            10370 	.byte	1
0000651e 10            10371 	.byte	16
0000651f 4d454d5f4152  10372 	.strz	"MEM_AR_RELEASE_MAJOR_VERSION MEMMAP_AR_RELEASE_MAJOR_VERSION"
00006525 5f52454c4541 
0000652b 53455f4d414a 
00006531 4f525f564552 
00006537 53494f4e204d 
0000653d 454d4d41505f 
00006543 41525f52454c 
00006549 454153455f4d 
0000654f 414a4f525f56 
00006555 455253494f4e 
0000655b 00 
0000655c 01            10373 	.byte	1
0000655d 11            10374 	.byte	17
0000655e 4d454d5f4152  10375 	.strz	"MEM_AR_RELEASE_MINOR_VERSION MEMMAP_AR_RELEASE_MINOR_VERSION"
00006564 5f52454c4541 
0000656a 53455f4d494e 
00006570 4f525f564552 
00006576 53494f4e204d 
0000657c 454d4d41505f 
00006582 41525f52454c 
00006588 454153455f4d 
0000658e 494e4f525f56 
00006594 455253494f4e 
0000659a 00 
0000659b 01            10376 	.byte	1
0000659c 12            10377 	.byte	18
0000659d 4d454d5f4152  10378 	.strz	"MEM_AR_RELEASE_PATCH_VERSION MEMMAP_AR_RELEASE_REVISION_VERSION"
000065a3 5f52454c4541 
000065a9 53455f504154 
000065af 43485f564552 
000065b5 53494f4e204d 
000065bb 454d4d41505f 
000065c1 41525f52454c 
000065c7 454153455f52 
000065cd 45564953494f 
000065d3 4e5f56455253 
000065d9 494f4e00 
000065dd 01            10379 	.byte	1
000065de 18            10380 	.byte	24

                                                                      Page 244
                                                              C:\Users\nhuliyap\AppData\Local\Temp\gh_0000d941.s
000065df 4d454d4d4150  10381 	.strz	"MEMMAP_SW_MAJOR_VERSION (1u)"
000065e5 5f53575f4d41 
000065eb 4a4f525f5645 
000065f1 5253494f4e20 
000065f7 2831752900 
000065fc 01            10382 	.byte	1
000065fd 19            10383 	.byte	25
000065fe 4d454d4d4150  10384 	.strz	"MEMMAP_SW_MINOR_VERSION (11u)"
00006604 5f53575f4d49 
0000660a 4e4f525f5645 
00006610 5253494f4e20 
00006616 283131752900 
0000661c 01            10385 	.byte	1
0000661d 1a            10386 	.byte	26
0000661e 4d454d4d4150  10387 	.strz	"MEMMAP_SW_PATCH_VERSION (0u)"
00006624 5f53575f5041 
0000662a 5443485f5645 
00006630 5253494f4e20 
00006636 2830752900 
0000663b 01            10388 	.byte	1
0000663c 20            10389 	.byte	32
0000663d 4d454d5f5357  10390 	.strz	"MEM_SW_MAJOR_VERSION MEMMAP_SW_MAJOR_VERSION"
00006643 5f4d414a4f52 
00006649 5f5645525349 
0000664f 4f4e204d454d 
00006655 4d41505f5357 
0000665b 5f4d414a4f52 
00006661 5f5645525349 
00006667 4f4e00 
0000666a 01            10391 	.byte	1
0000666b 21            10392 	.byte	33
0000666c 4d454d5f5357  10393 	.strz	"MEM_SW_MINOR_VERSION MEMMAP_SW_MINOR_VERSION"
00006672 5f4d494e4f52 
00006678 5f5645525349 
0000667e 4f4e204d454d 
00006684 4d41505f5357 
0000668a 5f4d494e4f52 
00006690 5f5645525349 
00006696 4f4e00 
00006699 01            10394 	.byte	1
0000669a 22            10395 	.byte	34
0000669b 4d454d5f5357  10396 	.strz	"MEM_SW_PATCH_VERSION MEMMAP_SW_PATCH_VERSION"
000066a1 5f5041544348 
000066a7 5f5645525349 
000066ad 4f4e204d454d 
000066b3 4d41505f5357 
000066b9 5f5041544348 
000066bf 5f5645525349 
000066c5 4f4e00 
000066c8 01            10397 	.byte	1
000066c9 24            10398 	.byte	36
000066ca 4d454d4d4150  10399 	.strz	"MEMMAP_ERROR "
000066d0 5f4552524f52 
000066d6 2000 
000066d8 01            10400 	.byte	1
000066d9 ea02          10401 	.byte	234,2
000066db 53544f505f53  10402 	.strz	"STOP_SEC_CODE "
000066e1 45435f434f44 
000066e7 452000 
000066ea 03            10403 	.byte	3
000066eb f403          10404 	.byte	244,3

                                                                      Page 245
                                                              C:\Users\nhuliyap\AppData\Local\Temp\gh_0000d941.s
000066ed 12            10405 	.byte	18
000066ee 04            10406 	.byte	4
000066ef 04            10407 	.byte	4
000066f0 04            10408 	.byte	4
000066f1 01            10409 	.byte	1
000066f2 8206          10410 	.byte	130,6
000066f4 525f46444c5f  10411 	.strz	"R_FDL_START_SEC_PUBLIC_CODE "
000066fa 53544152545f 
00006700 5345435f5055 
00006706 424c49435f43 
0000670c 4f44452000 
00006711 03            10412 	.byte	3
00006712 8306          10413 	.byte	131,6
00006714 1b            10414 	.byte	27
00006715 01            10415 	.byte	1
00006716 0c            10416 	.byte	12
00006717 46444c5f5354  10417 	.strz	"FDL_START_SEC_PUBLIC_CODE "
0000671d 4152545f5345 
00006723 435f5055424c 
00006729 49435f434f44 
0000672f 452000 
00006732 03            10418 	.byte	3
00006733 20            10419 	.byte	32
00006734 11            10420 	.byte	17
00006735 01            10421 	.byte	1
00006736 02            10422 	.byte	2
00006737 4d454d4d4150  10423 	.strz	"MEMMAP_VENDOR_ID (30u)"
0000673d 5f56454e444f 
00006743 525f49442028 
00006749 3330752900 
0000674e 01            10424 	.byte	1
0000674f 08            10425 	.byte	8
00006750 4d454d4d4150  10426 	.strz	"MEMMAP_AR_RELEASE_MAJOR_VERSION (4u)"
00006756 5f41525f5245 
0000675c 4c454153455f 
00006762 4d414a4f525f 
00006768 56455253494f 
0000676e 4e2028347529 
00006774 00 
00006775 01            10427 	.byte	1
00006776 09            10428 	.byte	9
00006777 4d454d4d4150  10429 	.strz	"MEMMAP_AR_RELEASE_MINOR_VERSION (0u)"
0000677d 5f41525f5245 
00006783 4c454153455f 
00006789 4d494e4f525f 
0000678f 56455253494f 
00006795 4e2028307529 
0000679b 00 
0000679c 01            10430 	.byte	1
0000679d 0a            10431 	.byte	10
0000679e 4d454d4d4150  10432 	.strz	"MEMMAP_AR_RELEASE_REVISION_VERSION (3u)"
000067a4 5f41525f5245 
000067aa 4c454153455f 
000067b0 524556495349 
000067b6 4f4e5f564552 
000067bc 53494f4e2028 
000067c2 33752900 
000067c6 01            10433 	.byte	1
000067c7 10            10434 	.byte	16
000067c8 4d454d5f4152  10435 	.strz	"MEM_AR_RELEASE_MAJOR_VERSION MEMMAP_AR_RELEASE_MAJOR_VERSION"
000067ce 5f52454c4541 

                                                                      Page 246
                                                              C:\Users\nhuliyap\AppData\Local\Temp\gh_0000d941.s
000067d4 53455f4d414a 
000067da 4f525f564552 
000067e0 53494f4e204d 
000067e6 454d4d41505f 
000067ec 41525f52454c 
000067f2 454153455f4d 
000067f8 414a4f525f56 
000067fe 455253494f4e 
00006804 00 
00006805 01            10436 	.byte	1
00006806 11            10437 	.byte	17
00006807 4d454d5f4152  10438 	.strz	"MEM_AR_RELEASE_MINOR_VERSION MEMMAP_AR_RELEASE_MINOR_VERSION"
0000680d 5f52454c4541 
00006813 53455f4d494e 
00006819 4f525f564552 
0000681f 53494f4e204d 
00006825 454d4d41505f 
0000682b 41525f52454c 
00006831 454153455f4d 
00006837 494e4f525f56 
0000683d 455253494f4e 
00006843 00 
00006844 01            10439 	.byte	1
00006845 12            10440 	.byte	18
00006846 4d454d5f4152  10441 	.strz	"MEM_AR_RELEASE_PATCH_VERSION MEMMAP_AR_RELEASE_REVISION_VERSION"
0000684c 5f52454c4541 
00006852 53455f504154 
00006858 43485f564552 
0000685e 53494f4e204d 
00006864 454d4d41505f 
0000686a 41525f52454c 
00006870 454153455f52 
00006876 45564953494f 
0000687c 4e5f56455253 
00006882 494f4e00 
00006886 01            10442 	.byte	1
00006887 18            10443 	.byte	24
00006888 4d454d4d4150  10444 	.strz	"MEMMAP_SW_MAJOR_VERSION (1u)"
0000688e 5f53575f4d41 
00006894 4a4f525f5645 
0000689a 5253494f4e20 
000068a0 2831752900 
000068a5 01            10445 	.byte	1
000068a6 19            10446 	.byte	25
000068a7 4d454d4d4150  10447 	.strz	"MEMMAP_SW_MINOR_VERSION (11u)"
000068ad 5f53575f4d49 
000068b3 4e4f525f5645 
000068b9 5253494f4e20 
000068bf 283131752900 
000068c5 01            10448 	.byte	1
000068c6 1a            10449 	.byte	26
000068c7 4d454d4d4150  10450 	.strz	"MEMMAP_SW_PATCH_VERSION (0u)"
000068cd 5f53575f5041 
000068d3 5443485f5645 
000068d9 5253494f4e20 
000068df 2830752900 
000068e4 01            10451 	.byte	1
000068e5 20            10452 	.byte	32
000068e6 4d454d5f5357  10453 	.strz	"MEM_SW_MAJOR_VERSION MEMMAP_SW_MAJOR_VERSION"
000068ec 5f4d414a4f52 
000068f2 5f5645525349 

                                                                      Page 247
                                                              C:\Users\nhuliyap\AppData\Local\Temp\gh_0000d941.s
000068f8 4f4e204d454d 
000068fe 4d41505f5357 
00006904 5f4d414a4f52 
0000690a 5f5645525349 
00006910 4f4e00 
00006913 01            10454 	.byte	1
00006914 21            10455 	.byte	33
00006915 4d454d5f5357  10456 	.strz	"MEM_SW_MINOR_VERSION MEMMAP_SW_MINOR_VERSION"
0000691b 5f4d494e4f52 
00006921 5f5645525349 
00006927 4f4e204d454d 
0000692d 4d41505f5357 
00006933 5f4d494e4f52 
00006939 5f5645525349 
0000693f 4f4e00 
00006942 01            10457 	.byte	1
00006943 22            10458 	.byte	34
00006944 4d454d5f5357  10459 	.strz	"MEM_SW_PATCH_VERSION MEMMAP_SW_PATCH_VERSION"
0000694a 5f5041544348 
00006950 5f5645525349 
00006956 4f4e204d454d 
0000695c 4d41505f5357 
00006962 5f5041544348 
00006968 5f5645525349 
0000696e 4f4e00 
00006971 01            10460 	.byte	1
00006972 24            10461 	.byte	36
00006973 4d454d4d4150  10462 	.strz	"MEMMAP_ERROR "
00006979 5f4552524f52 
0000697f 2000 
00006981 01            10463 	.byte	1
00006982 e602          10464 	.byte	230,2
00006984 53544152545f  10465 	.strz	"START_SEC_CODE "
0000698a 5345435f434f 
00006990 44452000 
00006994 03            10466 	.byte	3
00006995 f403          10467 	.byte	244,3
00006997 12            10468 	.byte	18
00006998 01            10469 	.byte	1
00006999 f407          10470 	.byte	244,7
0000699b 434f44455f53  10471 	.strz	"CODE_SEC_OPEN "
000069a1 45435f4f5045 
000069a7 4e2000 
000069aa 04            10472 	.byte	4
000069ab 04            10473 	.byte	4
000069ac 04            10474 	.byte	4
000069ad 01            10475 	.byte	1
000069ae 9b06          10476 	.byte	155,6
000069b0 525f46444c5f  10477 	.strz	"R_FDL_STOP_SEC_PUBLIC_CODE "
000069b6 53544f505f53 
000069bc 45435f505542 
000069c2 4c49435f434f 
000069c8 44452000 
000069cc 03            10478 	.byte	3
000069cd 9c06          10479 	.byte	156,6
000069cf 1b            10480 	.byte	27
000069d0 01            10481 	.byte	1
000069d1 0f            10482 	.byte	15
000069d2 46444c5f5354  10483 	.strz	"FDL_STOP_SEC_PUBLIC_CODE "
000069d8 4f505f534543 
000069de 5f5055424c49 

                                                                      Page 248
                                                              C:\Users\nhuliyap\AppData\Local\Temp\gh_0000d941.s
000069e4 435f434f4445 
000069ea 2000 
000069ec 03            10484 	.byte	3
000069ed 20            10485 	.byte	32
000069ee 11            10486 	.byte	17
000069ef 01            10487 	.byte	1
000069f0 02            10488 	.byte	2
000069f1 4d454d4d4150  10489 	.strz	"MEMMAP_VENDOR_ID (30u)"
000069f7 5f56454e444f 
000069fd 525f49442028 
00006a03 3330752900 
00006a08 01            10490 	.byte	1
00006a09 08            10491 	.byte	8
00006a0a 4d454d4d4150  10492 	.strz	"MEMMAP_AR_RELEASE_MAJOR_VERSION (4u)"
00006a10 5f41525f5245 
00006a16 4c454153455f 
00006a1c 4d414a4f525f 
00006a22 56455253494f 
00006a28 4e2028347529 
00006a2e 00 
00006a2f 01            10493 	.byte	1
00006a30 09            10494 	.byte	9
00006a31 4d454d4d4150  10495 	.strz	"MEMMAP_AR_RELEASE_MINOR_VERSION (0u)"
00006a37 5f41525f5245 
00006a3d 4c454153455f 
00006a43 4d494e4f525f 
00006a49 56455253494f 
00006a4f 4e2028307529 
00006a55 00 
00006a56 01            10496 	.byte	1
00006a57 0a            10497 	.byte	10
00006a58 4d454d4d4150  10498 	.strz	"MEMMAP_AR_RELEASE_REVISION_VERSION (3u)"
00006a5e 5f41525f5245 
00006a64 4c454153455f 
00006a6a 524556495349 
00006a70 4f4e5f564552 
00006a76 53494f4e2028 
00006a7c 33752900 
00006a80 01            10499 	.byte	1
00006a81 10            10500 	.byte	16
00006a82 4d454d5f4152  10501 	.strz	"MEM_AR_RELEASE_MAJOR_VERSION MEMMAP_AR_RELEASE_MAJOR_VERSION"
00006a88 5f52454c4541 
00006a8e 53455f4d414a 
00006a94 4f525f564552 
00006a9a 53494f4e204d 
00006aa0 454d4d41505f 
00006aa6 41525f52454c 
00006aac 454153455f4d 
00006ab2 414a4f525f56 
00006ab8 455253494f4e 
00006abe 00 
00006abf 01            10502 	.byte	1
00006ac0 11            10503 	.byte	17
00006ac1 4d454d5f4152  10504 	.strz	"MEM_AR_RELEASE_MINOR_VERSION MEMMAP_AR_RELEASE_MINOR_VERSION"
00006ac7 5f52454c4541 
00006acd 53455f4d494e 
00006ad3 4f525f564552 
00006ad9 53494f4e204d 
00006adf 454d4d41505f 
00006ae5 41525f52454c 
00006aeb 454153455f4d 

                                                                      Page 249
                                                              C:\Users\nhuliyap\AppData\Local\Temp\gh_0000d941.s
00006af1 494e4f525f56 
00006af7 455253494f4e 
00006afd 00 
00006afe 01            10505 	.byte	1
00006aff 12            10506 	.byte	18
00006b00 4d454d5f4152  10507 	.strz	"MEM_AR_RELEASE_PATCH_VERSION MEMMAP_AR_RELEASE_REVISION_VERSION"
00006b06 5f52454c4541 
00006b0c 53455f504154 
00006b12 43485f564552 
00006b18 53494f4e204d 
00006b1e 454d4d41505f 
00006b24 41525f52454c 
00006b2a 454153455f52 
00006b30 45564953494f 
00006b36 4e5f56455253 
00006b3c 494f4e00 
00006b40 01            10508 	.byte	1
00006b41 18            10509 	.byte	24
00006b42 4d454d4d4150  10510 	.strz	"MEMMAP_SW_MAJOR_VERSION (1u)"
00006b48 5f53575f4d41 
00006b4e 4a4f525f5645 
00006b54 5253494f4e20 
00006b5a 2831752900 
00006b5f 01            10511 	.byte	1
00006b60 19            10512 	.byte	25
00006b61 4d454d4d4150  10513 	.strz	"MEMMAP_SW_MINOR_VERSION (11u)"
00006b67 5f53575f4d49 
00006b6d 4e4f525f5645 
00006b73 5253494f4e20 
00006b79 283131752900 
00006b7f 01            10514 	.byte	1
00006b80 1a            10515 	.byte	26
00006b81 4d454d4d4150  10516 	.strz	"MEMMAP_SW_PATCH_VERSION (0u)"
00006b87 5f53575f5041 
00006b8d 5443485f5645 
00006b93 5253494f4e20 
00006b99 2830752900 
00006b9e 01            10517 	.byte	1
00006b9f 20            10518 	.byte	32
00006ba0 4d454d5f5357  10519 	.strz	"MEM_SW_MAJOR_VERSION MEMMAP_SW_MAJOR_VERSION"
00006ba6 5f4d414a4f52 
00006bac 5f5645525349 
00006bb2 4f4e204d454d 
00006bb8 4d41505f5357 
00006bbe 5f4d414a4f52 
00006bc4 5f5645525349 
00006bca 4f4e00 
00006bcd 01            10520 	.byte	1
00006bce 21            10521 	.byte	33
00006bcf 4d454d5f5357  10522 	.strz	"MEM_SW_MINOR_VERSION MEMMAP_SW_MINOR_VERSION"
00006bd5 5f4d494e4f52 
00006bdb 5f5645525349 
00006be1 4f4e204d454d 
00006be7 4d41505f5357 
00006bed 5f4d494e4f52 
00006bf3 5f5645525349 
00006bf9 4f4e00 
00006bfc 01            10523 	.byte	1
00006bfd 22            10524 	.byte	34
00006bfe 4d454d5f5357  10525 	.strz	"MEM_SW_PATCH_VERSION MEMMAP_SW_PATCH_VERSION"
00006c04 5f5041544348 

                                                                      Page 250
                                                              C:\Users\nhuliyap\AppData\Local\Temp\gh_0000d941.s
00006c0a 5f5645525349 
00006c10 4f4e204d454d 
00006c16 4d41505f5357 
00006c1c 5f5041544348 
00006c22 5f5645525349 
00006c28 4f4e00 
00006c2b 01            10526 	.byte	1
00006c2c 24            10527 	.byte	36
00006c2d 4d454d4d4150  10528 	.strz	"MEMMAP_ERROR "
00006c33 5f4552524f52 
00006c39 2000 
00006c3b 01            10529 	.byte	1
00006c3c ea02          10530 	.byte	234,2
00006c3e 53544f505f53  10531 	.strz	"STOP_SEC_CODE "
00006c44 45435f434f44 
00006c4a 452000 
00006c4d 03            10532 	.byte	3
00006c4e f403          10533 	.byte	244,3
00006c50 12            10534 	.byte	18
00006c51 04            10535 	.byte	4
00006c52 04            10536 	.byte	4
00006c53 04            10537 	.byte	4
00006c54 01            10538 	.byte	1
00006c55 9e06          10539 	.byte	158,6
00006c57 525f46444c5f  10540 	.strz	"R_FDL_START_SEC_PUBLIC_CODE "
00006c5d 53544152545f 
00006c63 5345435f5055 
00006c69 424c49435f43 
00006c6f 4f44452000 
00006c74 03            10541 	.byte	3
00006c75 9f06          10542 	.byte	159,6
00006c77 1b            10543 	.byte	27
00006c78 01            10544 	.byte	1
00006c79 0c            10545 	.byte	12
00006c7a 46444c5f5354  10546 	.strz	"FDL_START_SEC_PUBLIC_CODE "
00006c80 4152545f5345 
00006c86 435f5055424c 
00006c8c 49435f434f44 
00006c92 452000 
00006c95 03            10547 	.byte	3
00006c96 20            10548 	.byte	32
00006c97 11            10549 	.byte	17
00006c98 01            10550 	.byte	1
00006c99 02            10551 	.byte	2
00006c9a 4d454d4d4150  10552 	.strz	"MEMMAP_VENDOR_ID (30u)"
00006ca0 5f56454e444f 
00006ca6 525f49442028 
00006cac 3330752900 
00006cb1 01            10553 	.byte	1
00006cb2 08            10554 	.byte	8
00006cb3 4d454d4d4150  10555 	.strz	"MEMMAP_AR_RELEASE_MAJOR_VERSION (4u)"
00006cb9 5f41525f5245 
00006cbf 4c454153455f 
00006cc5 4d414a4f525f 
00006ccb 56455253494f 
00006cd1 4e2028347529 
00006cd7 00 
00006cd8 01            10556 	.byte	1
00006cd9 09            10557 	.byte	9
00006cda 4d454d4d4150  10558 	.strz	"MEMMAP_AR_RELEASE_MINOR_VERSION (0u)"
00006ce0 5f41525f5245 

                                                                      Page 251
                                                              C:\Users\nhuliyap\AppData\Local\Temp\gh_0000d941.s
00006ce6 4c454153455f 
00006cec 4d494e4f525f 
00006cf2 56455253494f 
00006cf8 4e2028307529 
00006cfe 00 
00006cff 01            10559 	.byte	1
00006d00 0a            10560 	.byte	10
00006d01 4d454d4d4150  10561 	.strz	"MEMMAP_AR_RELEASE_REVISION_VERSION (3u)"
00006d07 5f41525f5245 
00006d0d 4c454153455f 
00006d13 524556495349 
00006d19 4f4e5f564552 
00006d1f 53494f4e2028 
00006d25 33752900 
00006d29 01            10562 	.byte	1
00006d2a 10            10563 	.byte	16
00006d2b 4d454d5f4152  10564 	.strz	"MEM_AR_RELEASE_MAJOR_VERSION MEMMAP_AR_RELEASE_MAJOR_VERSION"
00006d31 5f52454c4541 
00006d37 53455f4d414a 
00006d3d 4f525f564552 
00006d43 53494f4e204d 
00006d49 454d4d41505f 
00006d4f 41525f52454c 
00006d55 454153455f4d 
00006d5b 414a4f525f56 
00006d61 455253494f4e 
00006d67 00 
00006d68 01            10565 	.byte	1
00006d69 11            10566 	.byte	17
00006d6a 4d454d5f4152  10567 	.strz	"MEM_AR_RELEASE_MINOR_VERSION MEMMAP_AR_RELEASE_MINOR_VERSION"
00006d70 5f52454c4541 
00006d76 53455f4d494e 
00006d7c 4f525f564552 
00006d82 53494f4e204d 
00006d88 454d4d41505f 
00006d8e 41525f52454c 
00006d94 454153455f4d 
00006d9a 494e4f525f56 
00006da0 455253494f4e 
00006da6 00 
00006da7 01            10568 	.byte	1
00006da8 12            10569 	.byte	18
00006da9 4d454d5f4152  10570 	.strz	"MEM_AR_RELEASE_PATCH_VERSION MEMMAP_AR_RELEASE_REVISION_VERSION"
00006daf 5f52454c4541 
00006db5 53455f504154 
00006dbb 43485f564552 
00006dc1 53494f4e204d 
00006dc7 454d4d41505f 
00006dcd 41525f52454c 
00006dd3 454153455f52 
00006dd9 45564953494f 
00006ddf 4e5f56455253 
00006de5 494f4e00 
00006de9 01            10571 	.byte	1
00006dea 18            10572 	.byte	24
00006deb 4d454d4d4150  10573 	.strz	"MEMMAP_SW_MAJOR_VERSION (1u)"
00006df1 5f53575f4d41 
00006df7 4a4f525f5645 
00006dfd 5253494f4e20 
00006e03 2831752900 
00006e08 01            10574 	.byte	1

                                                                      Page 252
                                                              C:\Users\nhuliyap\AppData\Local\Temp\gh_0000d941.s
00006e09 19            10575 	.byte	25
00006e0a 4d454d4d4150  10576 	.strz	"MEMMAP_SW_MINOR_VERSION (11u)"
00006e10 5f53575f4d49 
00006e16 4e4f525f5645 
00006e1c 5253494f4e20 
00006e22 283131752900 
00006e28 01            10577 	.byte	1
00006e29 1a            10578 	.byte	26
00006e2a 4d454d4d4150  10579 	.strz	"MEMMAP_SW_PATCH_VERSION (0u)"
00006e30 5f53575f5041 
00006e36 5443485f5645 
00006e3c 5253494f4e20 
00006e42 2830752900 
00006e47 01            10580 	.byte	1
00006e48 20            10581 	.byte	32
00006e49 4d454d5f5357  10582 	.strz	"MEM_SW_MAJOR_VERSION MEMMAP_SW_MAJOR_VERSION"
00006e4f 5f4d414a4f52 
00006e55 5f5645525349 
00006e5b 4f4e204d454d 
00006e61 4d41505f5357 
00006e67 5f4d414a4f52 
00006e6d 5f5645525349 
00006e73 4f4e00 
00006e76 01            10583 	.byte	1
00006e77 21            10584 	.byte	33
00006e78 4d454d5f5357  10585 	.strz	"MEM_SW_MINOR_VERSION MEMMAP_SW_MINOR_VERSION"
00006e7e 5f4d494e4f52 
00006e84 5f5645525349 
00006e8a 4f4e204d454d 
00006e90 4d41505f5357 
00006e96 5f4d494e4f52 
00006e9c 5f5645525349 
00006ea2 4f4e00 
00006ea5 01            10586 	.byte	1
00006ea6 22            10587 	.byte	34
00006ea7 4d454d5f5357  10588 	.strz	"MEM_SW_PATCH_VERSION MEMMAP_SW_PATCH_VERSION"
00006ead 5f5041544348 
00006eb3 5f5645525349 
00006eb9 4f4e204d454d 
00006ebf 4d41505f5357 
00006ec5 5f5041544348 
00006ecb 5f5645525349 
00006ed1 4f4e00 
00006ed4 01            10589 	.byte	1
00006ed5 24            10590 	.byte	36
00006ed6 4d454d4d4150  10591 	.strz	"MEMMAP_ERROR "
00006edc 5f4552524f52 
00006ee2 2000 
00006ee4 01            10592 	.byte	1
00006ee5 e602          10593 	.byte	230,2
00006ee7 53544152545f  10594 	.strz	"START_SEC_CODE "
00006eed 5345435f434f 
00006ef3 44452000 
00006ef7 03            10595 	.byte	3
00006ef8 f403          10596 	.byte	244,3
00006efa 12            10597 	.byte	18
00006efb 01            10598 	.byte	1
00006efc f407          10599 	.byte	244,7
00006efe 434f44455f53  10600 	.strz	"CODE_SEC_OPEN "
00006f04 45435f4f5045 
00006f0a 4e2000 

                                                                      Page 253
                                                              C:\Users\nhuliyap\AppData\Local\Temp\gh_0000d941.s
00006f0d 04            10601 	.byte	4
00006f0e 04            10602 	.byte	4
00006f0f 04            10603 	.byte	4
00006f10 01            10604 	.byte	1
00006f11 c606          10605 	.byte	198,6
00006f13 525f46444c5f  10606 	.strz	"R_FDL_STOP_SEC_PUBLIC_CODE "
00006f19 53544f505f53 
00006f1f 45435f505542 
00006f25 4c49435f434f 
00006f2b 44452000 
00006f2f 03            10607 	.byte	3
00006f30 c706          10608 	.byte	199,6
00006f32 1b            10609 	.byte	27
00006f33 01            10610 	.byte	1
00006f34 0f            10611 	.byte	15
00006f35 46444c5f5354  10612 	.strz	"FDL_STOP_SEC_PUBLIC_CODE "
00006f3b 4f505f534543 
00006f41 5f5055424c49 
00006f47 435f434f4445 
00006f4d 2000 
00006f4f 03            10613 	.byte	3
00006f50 20            10614 	.byte	32
00006f51 11            10615 	.byte	17
00006f52 01            10616 	.byte	1
00006f53 02            10617 	.byte	2
00006f54 4d454d4d4150  10618 	.strz	"MEMMAP_VENDOR_ID (30u)"
00006f5a 5f56454e444f 
00006f60 525f49442028 
00006f66 3330752900 
00006f6b 01            10619 	.byte	1
00006f6c 08            10620 	.byte	8
00006f6d 4d454d4d4150  10621 	.strz	"MEMMAP_AR_RELEASE_MAJOR_VERSION (4u)"
00006f73 5f41525f5245 
00006f79 4c454153455f 
00006f7f 4d414a4f525f 
00006f85 56455253494f 
00006f8b 4e2028347529 
00006f91 00 
00006f92 01            10622 	.byte	1
00006f93 09            10623 	.byte	9
00006f94 4d454d4d4150  10624 	.strz	"MEMMAP_AR_RELEASE_MINOR_VERSION (0u)"
00006f9a 5f41525f5245 
00006fa0 4c454153455f 
00006fa6 4d494e4f525f 
00006fac 56455253494f 
00006fb2 4e2028307529 
00006fb8 00 
00006fb9 01            10625 	.byte	1
00006fba 0a            10626 	.byte	10
00006fbb 4d454d4d4150  10627 	.strz	"MEMMAP_AR_RELEASE_REVISION_VERSION (3u)"
00006fc1 5f41525f5245 
00006fc7 4c454153455f 
00006fcd 524556495349 
00006fd3 4f4e5f564552 
00006fd9 53494f4e2028 
00006fdf 33752900 
00006fe3 01            10628 	.byte	1
00006fe4 10            10629 	.byte	16
00006fe5 4d454d5f4152  10630 	.strz	"MEM_AR_RELEASE_MAJOR_VERSION MEMMAP_AR_RELEASE_MAJOR_VERSION"
00006feb 5f52454c4541 
00006ff1 53455f4d414a 

                                                                      Page 254
                                                              C:\Users\nhuliyap\AppData\Local\Temp\gh_0000d941.s
00006ff7 4f525f564552 
00006ffd 53494f4e204d 
00007003 454d4d41505f 
00007009 41525f52454c 
0000700f 454153455f4d 
00007015 414a4f525f56 
0000701b 455253494f4e 
00007021 00 
00007022 01            10631 	.byte	1
00007023 11            10632 	.byte	17
00007024 4d454d5f4152  10633 	.strz	"MEM_AR_RELEASE_MINOR_VERSION MEMMAP_AR_RELEASE_MINOR_VERSION"
0000702a 5f52454c4541 
00007030 53455f4d494e 
00007036 4f525f564552 
0000703c 53494f4e204d 
00007042 454d4d41505f 
00007048 41525f52454c 
0000704e 454153455f4d 
00007054 494e4f525f56 
0000705a 455253494f4e 
00007060 00 
00007061 01            10634 	.byte	1
00007062 12            10635 	.byte	18
00007063 4d454d5f4152  10636 	.strz	"MEM_AR_RELEASE_PATCH_VERSION MEMMAP_AR_RELEASE_REVISION_VERSION"
00007069 5f52454c4541 
0000706f 53455f504154 
00007075 43485f564552 
0000707b 53494f4e204d 
00007081 454d4d41505f 
00007087 41525f52454c 
0000708d 454153455f52 
00007093 45564953494f 
00007099 4e5f56455253 
0000709f 494f4e00 
000070a3 01            10637 	.byte	1
000070a4 18            10638 	.byte	24
000070a5 4d454d4d4150  10639 	.strz	"MEMMAP_SW_MAJOR_VERSION (1u)"
000070ab 5f53575f4d41 
000070b1 4a4f525f5645 
000070b7 5253494f4e20 
000070bd 2831752900 
000070c2 01            10640 	.byte	1
000070c3 19            10641 	.byte	25
000070c4 4d454d4d4150  10642 	.strz	"MEMMAP_SW_MINOR_VERSION (11u)"
000070ca 5f53575f4d49 
000070d0 4e4f525f5645 
000070d6 5253494f4e20 
000070dc 283131752900 
000070e2 01            10643 	.byte	1
000070e3 1a            10644 	.byte	26
000070e4 4d454d4d4150  10645 	.strz	"MEMMAP_SW_PATCH_VERSION (0u)"
000070ea 5f53575f5041 
000070f0 5443485f5645 
000070f6 5253494f4e20 
000070fc 2830752900 
00007101 01            10646 	.byte	1
00007102 20            10647 	.byte	32
00007103 4d454d5f5357  10648 	.strz	"MEM_SW_MAJOR_VERSION MEMMAP_SW_MAJOR_VERSION"
00007109 5f4d414a4f52 
0000710f 5f5645525349 
00007115 4f4e204d454d 

                                                                      Page 255
                                                              C:\Users\nhuliyap\AppData\Local\Temp\gh_0000d941.s
0000711b 4d41505f5357 
00007121 5f4d414a4f52 
00007127 5f5645525349 
0000712d 4f4e00 
00007130 01            10649 	.byte	1
00007131 21            10650 	.byte	33
00007132 4d454d5f5357  10651 	.strz	"MEM_SW_MINOR_VERSION MEMMAP_SW_MINOR_VERSION"
00007138 5f4d494e4f52 
0000713e 5f5645525349 
00007144 4f4e204d454d 
0000714a 4d41505f5357 
00007150 5f4d494e4f52 
00007156 5f5645525349 
0000715c 4f4e00 
0000715f 01            10652 	.byte	1
00007160 22            10653 	.byte	34
00007161 4d454d5f5357  10654 	.strz	"MEM_SW_PATCH_VERSION MEMMAP_SW_PATCH_VERSION"
00007167 5f5041544348 
0000716d 5f5645525349 
00007173 4f4e204d454d 
00007179 4d41505f5357 
0000717f 5f5041544348 
00007185 5f5645525349 
0000718b 4f4e00 
0000718e 01            10655 	.byte	1
0000718f 24            10656 	.byte	36
00007190 4d454d4d4150  10657 	.strz	"MEMMAP_ERROR "
00007196 5f4552524f52 
0000719c 2000 
0000719e 01            10658 	.byte	1
0000719f ea02          10659 	.byte	234,2
000071a1 53544f505f53  10660 	.strz	"STOP_SEC_CODE "
000071a7 45435f434f44 
000071ad 452000 
000071b0 03            10661 	.byte	3
000071b1 f403          10662 	.byte	244,3
000071b3 12            10663 	.byte	18
000071b4 04            10664 	.byte	4
000071b5 04            10665 	.byte	4
000071b6 04            10666 	.byte	4
000071b7 01            10667 	.byte	1
000071b8 c906          10668 	.byte	201,6
000071ba 525f46444c5f  10669 	.strz	"R_FDL_START_SEC_PUBLIC_CODE "
000071c0 53544152545f 
000071c6 5345435f5055 
000071cc 424c49435f43 
000071d2 4f44452000 
000071d7 03            10670 	.byte	3
000071d8 ca06          10671 	.byte	202,6
000071da 1b            10672 	.byte	27
000071db 01            10673 	.byte	1
000071dc 0c            10674 	.byte	12
000071dd 46444c5f5354  10675 	.strz	"FDL_START_SEC_PUBLIC_CODE "
000071e3 4152545f5345 
000071e9 435f5055424c 
000071ef 49435f434f44 
000071f5 452000 
000071f8 03            10676 	.byte	3
000071f9 20            10677 	.byte	32
000071fa 11            10678 	.byte	17
000071fb 01            10679 	.byte	1

                                                                      Page 256
                                                              C:\Users\nhuliyap\AppData\Local\Temp\gh_0000d941.s
000071fc 02            10680 	.byte	2
000071fd 4d454d4d4150  10681 	.strz	"MEMMAP_VENDOR_ID (30u)"
00007203 5f56454e444f 
00007209 525f49442028 
0000720f 3330752900 
00007214 01            10682 	.byte	1
00007215 08            10683 	.byte	8
00007216 4d454d4d4150  10684 	.strz	"MEMMAP_AR_RELEASE_MAJOR_VERSION (4u)"
0000721c 5f41525f5245 
00007222 4c454153455f 
00007228 4d414a4f525f 
0000722e 56455253494f 
00007234 4e2028347529 
0000723a 00 
0000723b 01            10685 	.byte	1
0000723c 09            10686 	.byte	9
0000723d 4d454d4d4150  10687 	.strz	"MEMMAP_AR_RELEASE_MINOR_VERSION (0u)"
00007243 5f41525f5245 
00007249 4c454153455f 
0000724f 4d494e4f525f 
00007255 56455253494f 
0000725b 4e2028307529 
00007261 00 
00007262 01            10688 	.byte	1
00007263 0a            10689 	.byte	10
00007264 4d454d4d4150  10690 	.strz	"MEMMAP_AR_RELEASE_REVISION_VERSION (3u)"
0000726a 5f41525f5245 
00007270 4c454153455f 
00007276 524556495349 
0000727c 4f4e5f564552 
00007282 53494f4e2028 
00007288 33752900 
0000728c 01            10691 	.byte	1
0000728d 10            10692 	.byte	16
0000728e 4d454d5f4152  10693 	.strz	"MEM_AR_RELEASE_MAJOR_VERSION MEMMAP_AR_RELEASE_MAJOR_VERSION"
00007294 5f52454c4541 
0000729a 53455f4d414a 
000072a0 4f525f564552 
000072a6 53494f4e204d 
000072ac 454d4d41505f 
000072b2 41525f52454c 
000072b8 454153455f4d 
000072be 414a4f525f56 
000072c4 455253494f4e 
000072ca 00 
000072cb 01            10694 	.byte	1
000072cc 11            10695 	.byte	17
000072cd 4d454d5f4152  10696 	.strz	"MEM_AR_RELEASE_MINOR_VERSION MEMMAP_AR_RELEASE_MINOR_VERSION"
000072d3 5f52454c4541 
000072d9 53455f4d494e 
000072df 4f525f564552 
000072e5 53494f4e204d 
000072eb 454d4d41505f 
000072f1 41525f52454c 
000072f7 454153455f4d 
000072fd 494e4f525f56 
00007303 455253494f4e 
00007309 00 
0000730a 01            10697 	.byte	1
0000730b 12            10698 	.byte	18
0000730c 4d454d5f4152  10699 	.strz	"MEM_AR_RELEASE_PATCH_VERSION MEMMAP_AR_RELEASE_REVISION_VERSION"

                                                                      Page 257
                                                              C:\Users\nhuliyap\AppData\Local\Temp\gh_0000d941.s
00007312 5f52454c4541 
00007318 53455f504154 
0000731e 43485f564552 
00007324 53494f4e204d 
0000732a 454d4d41505f 
00007330 41525f52454c 
00007336 454153455f52 
0000733c 45564953494f 
00007342 4e5f56455253 
00007348 494f4e00 
0000734c 01            10700 	.byte	1
0000734d 18            10701 	.byte	24
0000734e 4d454d4d4150  10702 	.strz	"MEMMAP_SW_MAJOR_VERSION (1u)"
00007354 5f53575f4d41 
0000735a 4a4f525f5645 
00007360 5253494f4e20 
00007366 2831752900 
0000736b 01            10703 	.byte	1
0000736c 19            10704 	.byte	25
0000736d 4d454d4d4150  10705 	.strz	"MEMMAP_SW_MINOR_VERSION (11u)"
00007373 5f53575f4d49 
00007379 4e4f525f5645 
0000737f 5253494f4e20 
00007385 283131752900 
0000738b 01            10706 	.byte	1
0000738c 1a            10707 	.byte	26
0000738d 4d454d4d4150  10708 	.strz	"MEMMAP_SW_PATCH_VERSION (0u)"
00007393 5f53575f5041 
00007399 5443485f5645 
0000739f 5253494f4e20 
000073a5 2830752900 
000073aa 01            10709 	.byte	1
000073ab 20            10710 	.byte	32
000073ac 4d454d5f5357  10711 	.strz	"MEM_SW_MAJOR_VERSION MEMMAP_SW_MAJOR_VERSION"
000073b2 5f4d414a4f52 
000073b8 5f5645525349 
000073be 4f4e204d454d 
000073c4 4d41505f5357 
000073ca 5f4d414a4f52 
000073d0 5f5645525349 
000073d6 4f4e00 
000073d9 01            10712 	.byte	1
000073da 21            10713 	.byte	33
000073db 4d454d5f5357  10714 	.strz	"MEM_SW_MINOR_VERSION MEMMAP_SW_MINOR_VERSION"
000073e1 5f4d494e4f52 
000073e7 5f5645525349 
000073ed 4f4e204d454d 
000073f3 4d41505f5357 
000073f9 5f4d494e4f52 
000073ff 5f5645525349 
00007405 4f4e00 
00007408 01            10715 	.byte	1
00007409 22            10716 	.byte	34
0000740a 4d454d5f5357  10717 	.strz	"MEM_SW_PATCH_VERSION MEMMAP_SW_PATCH_VERSION"
00007410 5f5041544348 
00007416 5f5645525349 
0000741c 4f4e204d454d 
00007422 4d41505f5357 
00007428 5f5041544348 
0000742e 5f5645525349 
00007434 4f4e00 

                                                                      Page 258
                                                              C:\Users\nhuliyap\AppData\Local\Temp\gh_0000d941.s
00007437 01            10718 	.byte	1
00007438 24            10719 	.byte	36
00007439 4d454d4d4150  10720 	.strz	"MEMMAP_ERROR "
0000743f 5f4552524f52 
00007445 2000 
00007447 01            10721 	.byte	1
00007448 e602          10722 	.byte	230,2
0000744a 53544152545f  10723 	.strz	"START_SEC_CODE "
00007450 5345435f434f 
00007456 44452000 
0000745a 03            10724 	.byte	3
0000745b f403          10725 	.byte	244,3
0000745d 12            10726 	.byte	18
0000745e 01            10727 	.byte	1
0000745f f407          10728 	.byte	244,7
00007461 434f44455f53  10729 	.strz	"CODE_SEC_OPEN "
00007467 45435f4f5045 
0000746d 4e2000 
00007470 04            10730 	.byte	4
00007471 04            10731 	.byte	4
00007472 04            10732 	.byte	4
00007473 01            10733 	.byte	1
00007474 df06          10734 	.byte	223,6
00007476 525f46444c5f  10735 	.strz	"R_FDL_STOP_SEC_PUBLIC_CODE "
0000747c 53544f505f53 
00007482 45435f505542 
00007488 4c49435f434f 
0000748e 44452000 
00007492 03            10736 	.byte	3
00007493 e006          10737 	.byte	224,6
00007495 1b            10738 	.byte	27
00007496 01            10739 	.byte	1
00007497 0f            10740 	.byte	15
00007498 46444c5f5354  10741 	.strz	"FDL_STOP_SEC_PUBLIC_CODE "
0000749e 4f505f534543 
000074a4 5f5055424c49 
000074aa 435f434f4445 
000074b0 2000 
000074b2 03            10742 	.byte	3
000074b3 20            10743 	.byte	32
000074b4 11            10744 	.byte	17
000074b5 01            10745 	.byte	1
000074b6 02            10746 	.byte	2
000074b7 4d454d4d4150  10747 	.strz	"MEMMAP_VENDOR_ID (30u)"
000074bd 5f56454e444f 
000074c3 525f49442028 
000074c9 3330752900 
000074ce 01            10748 	.byte	1
000074cf 08            10749 	.byte	8
000074d0 4d454d4d4150  10750 	.strz	"MEMMAP_AR_RELEASE_MAJOR_VERSION (4u)"
000074d6 5f41525f5245 
000074dc 4c454153455f 
000074e2 4d414a4f525f 
000074e8 56455253494f 
000074ee 4e2028347529 
000074f4 00 
000074f5 01            10751 	.byte	1
000074f6 09            10752 	.byte	9
000074f7 4d454d4d4150  10753 	.strz	"MEMMAP_AR_RELEASE_MINOR_VERSION (0u)"
000074fd 5f41525f5245 
00007503 4c454153455f 

                                                                      Page 259
                                                              C:\Users\nhuliyap\AppData\Local\Temp\gh_0000d941.s
00007509 4d494e4f525f 
0000750f 56455253494f 
00007515 4e2028307529 
0000751b 00 
0000751c 01            10754 	.byte	1
0000751d 0a            10755 	.byte	10
0000751e 4d454d4d4150  10756 	.strz	"MEMMAP_AR_RELEASE_REVISION_VERSION (3u)"
00007524 5f41525f5245 
0000752a 4c454153455f 
00007530 524556495349 
00007536 4f4e5f564552 
0000753c 53494f4e2028 
00007542 33752900 
00007546 01            10757 	.byte	1
00007547 10            10758 	.byte	16
00007548 4d454d5f4152  10759 	.strz	"MEM_AR_RELEASE_MAJOR_VERSION MEMMAP_AR_RELEASE_MAJOR_VERSION"
0000754e 5f52454c4541 
00007554 53455f4d414a 
0000755a 4f525f564552 
00007560 53494f4e204d 
00007566 454d4d41505f 
0000756c 41525f52454c 
00007572 454153455f4d 
00007578 414a4f525f56 
0000757e 455253494f4e 
00007584 00 
00007585 01            10760 	.byte	1
00007586 11            10761 	.byte	17
00007587 4d454d5f4152  10762 	.strz	"MEM_AR_RELEASE_MINOR_VERSION MEMMAP_AR_RELEASE_MINOR_VERSION"
0000758d 5f52454c4541 
00007593 53455f4d494e 
00007599 4f525f564552 
0000759f 53494f4e204d 
000075a5 454d4d41505f 
000075ab 41525f52454c 
000075b1 454153455f4d 
000075b7 494e4f525f56 
000075bd 455253494f4e 
000075c3 00 
000075c4 01            10763 	.byte	1
000075c5 12            10764 	.byte	18
000075c6 4d454d5f4152  10765 	.strz	"MEM_AR_RELEASE_PATCH_VERSION MEMMAP_AR_RELEASE_REVISION_VERSION"
000075cc 5f52454c4541 
000075d2 53455f504154 
000075d8 43485f564552 
000075de 53494f4e204d 
000075e4 454d4d41505f 
000075ea 41525f52454c 
000075f0 454153455f52 
000075f6 45564953494f 
000075fc 4e5f56455253 
00007602 494f4e00 
00007606 01            10766 	.byte	1
00007607 18            10767 	.byte	24
00007608 4d454d4d4150  10768 	.strz	"MEMMAP_SW_MAJOR_VERSION (1u)"
0000760e 5f53575f4d41 
00007614 4a4f525f5645 
0000761a 5253494f4e20 
00007620 2831752900 
00007625 01            10769 	.byte	1
00007626 19            10770 	.byte	25

                                                                      Page 260
                                                              C:\Users\nhuliyap\AppData\Local\Temp\gh_0000d941.s
00007627 4d454d4d4150  10771 	.strz	"MEMMAP_SW_MINOR_VERSION (11u)"
0000762d 5f53575f4d49 
00007633 4e4f525f5645 
00007639 5253494f4e20 
0000763f 283131752900 
00007645 01            10772 	.byte	1
00007646 1a            10773 	.byte	26
00007647 4d454d4d4150  10774 	.strz	"MEMMAP_SW_PATCH_VERSION (0u)"
0000764d 5f53575f5041 
00007653 5443485f5645 
00007659 5253494f4e20 
0000765f 2830752900 
00007664 01            10775 	.byte	1
00007665 20            10776 	.byte	32
00007666 4d454d5f5357  10777 	.strz	"MEM_SW_MAJOR_VERSION MEMMAP_SW_MAJOR_VERSION"
0000766c 5f4d414a4f52 
00007672 5f5645525349 
00007678 4f4e204d454d 
0000767e 4d41505f5357 
00007684 5f4d414a4f52 
0000768a 5f5645525349 
00007690 4f4e00 
00007693 01            10778 	.byte	1
00007694 21            10779 	.byte	33
00007695 4d454d5f5357  10780 	.strz	"MEM_SW_MINOR_VERSION MEMMAP_SW_MINOR_VERSION"
0000769b 5f4d494e4f52 
000076a1 5f5645525349 
000076a7 4f4e204d454d 
000076ad 4d41505f5357 
000076b3 5f4d494e4f52 
000076b9 5f5645525349 
000076bf 4f4e00 
000076c2 01            10781 	.byte	1
000076c3 22            10782 	.byte	34
000076c4 4d454d5f5357  10783 	.strz	"MEM_SW_PATCH_VERSION MEMMAP_SW_PATCH_VERSION"
000076ca 5f5041544348 
000076d0 5f5645525349 
000076d6 4f4e204d454d 
000076dc 4d41505f5357 
000076e2 5f5041544348 
000076e8 5f5645525349 
000076ee 4f4e00 
000076f1 01            10784 	.byte	1
000076f2 24            10785 	.byte	36
000076f3 4d454d4d4150  10786 	.strz	"MEMMAP_ERROR "
000076f9 5f4552524f52 
000076ff 2000 
00007701 01            10787 	.byte	1
00007702 ea02          10788 	.byte	234,2
00007704 53544f505f53  10789 	.strz	"STOP_SEC_CODE "
0000770a 45435f434f44 
00007710 452000 
00007713 03            10790 	.byte	3
00007714 f403          10791 	.byte	244,3
00007716 12            10792 	.byte	18
00007717 04            10793 	.byte	4
00007718 04            10794 	.byte	4
00007719 04            10795 	.byte	4
0000771a 01            10796 	.byte	1
0000771b e206          10797 	.byte	226,6
0000771d 525f46444c5f  10798 	.strz	"R_FDL_START_SEC_PUBLIC_CODE "

                                                                      Page 261
                                                              C:\Users\nhuliyap\AppData\Local\Temp\gh_0000d941.s
00007723 53544152545f 
00007729 5345435f5055 
0000772f 424c49435f43 
00007735 4f44452000 
0000773a 03            10799 	.byte	3
0000773b e306          10800 	.byte	227,6
0000773d 1b            10801 	.byte	27
0000773e 01            10802 	.byte	1
0000773f 0c            10803 	.byte	12
00007740 46444c5f5354  10804 	.strz	"FDL_START_SEC_PUBLIC_CODE "
00007746 4152545f5345 
0000774c 435f5055424c 
00007752 49435f434f44 
00007758 452000 
0000775b 03            10805 	.byte	3
0000775c 20            10806 	.byte	32
0000775d 11            10807 	.byte	17
0000775e 01            10808 	.byte	1
0000775f 02            10809 	.byte	2
00007760 4d454d4d4150  10810 	.strz	"MEMMAP_VENDOR_ID (30u)"
00007766 5f56454e444f 
0000776c 525f49442028 
00007772 3330752900 
00007777 01            10811 	.byte	1
00007778 08            10812 	.byte	8
00007779 4d454d4d4150  10813 	.strz	"MEMMAP_AR_RELEASE_MAJOR_VERSION (4u)"
0000777f 5f41525f5245 
00007785 4c454153455f 
0000778b 4d414a4f525f 
00007791 56455253494f 
00007797 4e2028347529 
0000779d 00 
0000779e 01            10814 	.byte	1
0000779f 09            10815 	.byte	9
000077a0 4d454d4d4150  10816 	.strz	"MEMMAP_AR_RELEASE_MINOR_VERSION (0u)"
000077a6 5f41525f5245 
000077ac 4c454153455f 
000077b2 4d494e4f525f 
000077b8 56455253494f 
000077be 4e2028307529 
000077c4 00 
000077c5 01            10817 	.byte	1
000077c6 0a            10818 	.byte	10
000077c7 4d454d4d4150  10819 	.strz	"MEMMAP_AR_RELEASE_REVISION_VERSION (3u)"
000077cd 5f41525f5245 
000077d3 4c454153455f 
000077d9 524556495349 
000077df 4f4e5f564552 
000077e5 53494f4e2028 
000077eb 33752900 
000077ef 01            10820 	.byte	1
000077f0 10            10821 	.byte	16
000077f1 4d454d5f4152  10822 	.strz	"MEM_AR_RELEASE_MAJOR_VERSION MEMMAP_AR_RELEASE_MAJOR_VERSION"
000077f7 5f52454c4541 
000077fd 53455f4d414a 
00007803 4f525f564552 
00007809 53494f4e204d 
0000780f 454d4d41505f 
00007815 41525f52454c 
0000781b 454153455f4d 
00007821 414a4f525f56 

                                                                      Page 262
                                                              C:\Users\nhuliyap\AppData\Local\Temp\gh_0000d941.s
00007827 455253494f4e 
0000782d 00 
0000782e 01            10823 	.byte	1
0000782f 11            10824 	.byte	17
00007830 4d454d5f4152  10825 	.strz	"MEM_AR_RELEASE_MINOR_VERSION MEMMAP_AR_RELEASE_MINOR_VERSION"
00007836 5f52454c4541 
0000783c 53455f4d494e 
00007842 4f525f564552 
00007848 53494f4e204d 
0000784e 454d4d41505f 
00007854 41525f52454c 
0000785a 454153455f4d 
00007860 494e4f525f56 
00007866 455253494f4e 
0000786c 00 
0000786d 01            10826 	.byte	1
0000786e 12            10827 	.byte	18
0000786f 4d454d5f4152  10828 	.strz	"MEM_AR_RELEASE_PATCH_VERSION MEMMAP_AR_RELEASE_REVISION_VERSION"
00007875 5f52454c4541 
0000787b 53455f504154 
00007881 43485f564552 
00007887 53494f4e204d 
0000788d 454d4d41505f 
00007893 41525f52454c 
00007899 454153455f52 
0000789f 45564953494f 
000078a5 4e5f56455253 
000078ab 494f4e00 
000078af 01            10829 	.byte	1
000078b0 18            10830 	.byte	24
000078b1 4d454d4d4150  10831 	.strz	"MEMMAP_SW_MAJOR_VERSION (1u)"
000078b7 5f53575f4d41 
000078bd 4a4f525f5645 
000078c3 5253494f4e20 
000078c9 2831752900 
000078ce 01            10832 	.byte	1
000078cf 19            10833 	.byte	25
000078d0 4d454d4d4150  10834 	.strz	"MEMMAP_SW_MINOR_VERSION (11u)"
000078d6 5f53575f4d49 
000078dc 4e4f525f5645 
000078e2 5253494f4e20 
000078e8 283131752900 
000078ee 01            10835 	.byte	1
000078ef 1a            10836 	.byte	26
000078f0 4d454d4d4150  10837 	.strz	"MEMMAP_SW_PATCH_VERSION (0u)"
000078f6 5f53575f5041 
000078fc 5443485f5645 
00007902 5253494f4e20 
00007908 2830752900 
0000790d 01            10838 	.byte	1
0000790e 20            10839 	.byte	32
0000790f 4d454d5f5357  10840 	.strz	"MEM_SW_MAJOR_VERSION MEMMAP_SW_MAJOR_VERSION"
00007915 5f4d414a4f52 
0000791b 5f5645525349 
00007921 4f4e204d454d 
00007927 4d41505f5357 
0000792d 5f4d414a4f52 
00007933 5f5645525349 
00007939 4f4e00 
0000793c 01            10841 	.byte	1
0000793d 21            10842 	.byte	33

                                                                      Page 263
                                                              C:\Users\nhuliyap\AppData\Local\Temp\gh_0000d941.s
0000793e 4d454d5f5357  10843 	.strz	"MEM_SW_MINOR_VERSION MEMMAP_SW_MINOR_VERSION"
00007944 5f4d494e4f52 
0000794a 5f5645525349 
00007950 4f4e204d454d 
00007956 4d41505f5357 
0000795c 5f4d494e4f52 
00007962 5f5645525349 
00007968 4f4e00 
0000796b 01            10844 	.byte	1
0000796c 22            10845 	.byte	34
0000796d 4d454d5f5357  10846 	.strz	"MEM_SW_PATCH_VERSION MEMMAP_SW_PATCH_VERSION"
00007973 5f5041544348 
00007979 5f5645525349 
0000797f 4f4e204d454d 
00007985 4d41505f5357 
0000798b 5f5041544348 
00007991 5f5645525349 
00007997 4f4e00 
0000799a 01            10847 	.byte	1
0000799b 24            10848 	.byte	36
0000799c 4d454d4d4150  10849 	.strz	"MEMMAP_ERROR "
000079a2 5f4552524f52 
000079a8 2000 
000079aa 01            10850 	.byte	1
000079ab e602          10851 	.byte	230,2
000079ad 53544152545f  10852 	.strz	"START_SEC_CODE "
000079b3 5345435f434f 
000079b9 44452000 
000079bd 03            10853 	.byte	3
000079be f403          10854 	.byte	244,3
000079c0 12            10855 	.byte	18
000079c1 01            10856 	.byte	1
000079c2 f407          10857 	.byte	244,7
000079c4 434f44455f53  10858 	.strz	"CODE_SEC_OPEN "
000079ca 45435f4f5045 
000079d0 4e2000 
000079d3 04            10859 	.byte	4
000079d4 04            10860 	.byte	4
000079d5 04            10861 	.byte	4
000079d6 01            10862 	.byte	1
000079d7 8707          10863 	.byte	135,7
000079d9 525f46444c5f  10864 	.strz	"R_FDL_STOP_SEC_PUBLIC_CODE "
000079df 53544f505f53 
000079e5 45435f505542 
000079eb 4c49435f434f 
000079f1 44452000 
000079f5 03            10865 	.byte	3
000079f6 8807          10866 	.byte	136,7
000079f8 1b            10867 	.byte	27
000079f9 01            10868 	.byte	1
000079fa 0f            10869 	.byte	15
000079fb 46444c5f5354  10870 	.strz	"FDL_STOP_SEC_PUBLIC_CODE "
00007a01 4f505f534543 
00007a07 5f5055424c49 
00007a0d 435f434f4445 
00007a13 2000 
00007a15 03            10871 	.byte	3
00007a16 20            10872 	.byte	32
00007a17 11            10873 	.byte	17
00007a18 01            10874 	.byte	1
00007a19 02            10875 	.byte	2

                                                                      Page 264
                                                              C:\Users\nhuliyap\AppData\Local\Temp\gh_0000d941.s
00007a1a 4d454d4d4150  10876 	.strz	"MEMMAP_VENDOR_ID (30u)"
00007a20 5f56454e444f 
00007a26 525f49442028 
00007a2c 3330752900 
00007a31 01            10877 	.byte	1
00007a32 08            10878 	.byte	8
00007a33 4d454d4d4150  10879 	.strz	"MEMMAP_AR_RELEASE_MAJOR_VERSION (4u)"
00007a39 5f41525f5245 
00007a3f 4c454153455f 
00007a45 4d414a4f525f 
00007a4b 56455253494f 
00007a51 4e2028347529 
00007a57 00 
00007a58 01            10880 	.byte	1
00007a59 09            10881 	.byte	9
00007a5a 4d454d4d4150  10882 	.strz	"MEMMAP_AR_RELEASE_MINOR_VERSION (0u)"
00007a60 5f41525f5245 
00007a66 4c454153455f 
00007a6c 4d494e4f525f 
00007a72 56455253494f 
00007a78 4e2028307529 
00007a7e 00 
00007a7f 01            10883 	.byte	1
00007a80 0a            10884 	.byte	10
00007a81 4d454d4d4150  10885 	.strz	"MEMMAP_AR_RELEASE_REVISION_VERSION (3u)"
00007a87 5f41525f5245 
00007a8d 4c454153455f 
00007a93 524556495349 
00007a99 4f4e5f564552 
00007a9f 53494f4e2028 
00007aa5 33752900 
00007aa9 01            10886 	.byte	1
00007aaa 10            10887 	.byte	16
00007aab 4d454d5f4152  10888 	.strz	"MEM_AR_RELEASE_MAJOR_VERSION MEMMAP_AR_RELEASE_MAJOR_VERSION"
00007ab1 5f52454c4541 
00007ab7 53455f4d414a 
00007abd 4f525f564552 
00007ac3 53494f4e204d 
00007ac9 454d4d41505f 
00007acf 41525f52454c 
00007ad5 454153455f4d 
00007adb 414a4f525f56 
00007ae1 455253494f4e 
00007ae7 00 
00007ae8 01            10889 	.byte	1
00007ae9 11            10890 	.byte	17
00007aea 4d454d5f4152  10891 	.strz	"MEM_AR_RELEASE_MINOR_VERSION MEMMAP_AR_RELEASE_MINOR_VERSION"
00007af0 5f52454c4541 
00007af6 53455f4d494e 
00007afc 4f525f564552 
00007b02 53494f4e204d 
00007b08 454d4d41505f 
00007b0e 41525f52454c 
00007b14 454153455f4d 
00007b1a 494e4f525f56 
00007b20 455253494f4e 
00007b26 00 
00007b27 01            10892 	.byte	1
00007b28 12            10893 	.byte	18
00007b29 4d454d5f4152  10894 	.strz	"MEM_AR_RELEASE_PATCH_VERSION MEMMAP_AR_RELEASE_REVISION_VERSION"
00007b2f 5f52454c4541 

                                                                      Page 265
                                                              C:\Users\nhuliyap\AppData\Local\Temp\gh_0000d941.s
00007b35 53455f504154 
00007b3b 43485f564552 
00007b41 53494f4e204d 
00007b47 454d4d41505f 
00007b4d 41525f52454c 
00007b53 454153455f52 
00007b59 45564953494f 
00007b5f 4e5f56455253 
00007b65 494f4e00 
00007b69 01            10895 	.byte	1
00007b6a 18            10896 	.byte	24
00007b6b 4d454d4d4150  10897 	.strz	"MEMMAP_SW_MAJOR_VERSION (1u)"
00007b71 5f53575f4d41 
00007b77 4a4f525f5645 
00007b7d 5253494f4e20 
00007b83 2831752900 
00007b88 01            10898 	.byte	1
00007b89 19            10899 	.byte	25
00007b8a 4d454d4d4150  10900 	.strz	"MEMMAP_SW_MINOR_VERSION (11u)"
00007b90 5f53575f4d49 
00007b96 4e4f525f5645 
00007b9c 5253494f4e20 
00007ba2 283131752900 
00007ba8 01            10901 	.byte	1
00007ba9 1a            10902 	.byte	26
00007baa 4d454d4d4150  10903 	.strz	"MEMMAP_SW_PATCH_VERSION (0u)"
00007bb0 5f53575f5041 
00007bb6 5443485f5645 
00007bbc 5253494f4e20 
00007bc2 2830752900 
00007bc7 01            10904 	.byte	1
00007bc8 20            10905 	.byte	32
00007bc9 4d454d5f5357  10906 	.strz	"MEM_SW_MAJOR_VERSION MEMMAP_SW_MAJOR_VERSION"
00007bcf 5f4d414a4f52 
00007bd5 5f5645525349 
00007bdb 4f4e204d454d 
00007be1 4d41505f5357 
00007be7 5f4d414a4f52 
00007bed 5f5645525349 
00007bf3 4f4e00 
00007bf6 01            10907 	.byte	1
00007bf7 21            10908 	.byte	33
00007bf8 4d454d5f5357  10909 	.strz	"MEM_SW_MINOR_VERSION MEMMAP_SW_MINOR_VERSION"
00007bfe 5f4d494e4f52 
00007c04 5f5645525349 
00007c0a 4f4e204d454d 
00007c10 4d41505f5357 
00007c16 5f4d494e4f52 
00007c1c 5f5645525349 
00007c22 4f4e00 
00007c25 01            10910 	.byte	1
00007c26 22            10911 	.byte	34
00007c27 4d454d5f5357  10912 	.strz	"MEM_SW_PATCH_VERSION MEMMAP_SW_PATCH_VERSION"
00007c2d 5f5041544348 
00007c33 5f5645525349 
00007c39 4f4e204d454d 
00007c3f 4d41505f5357 
00007c45 5f5041544348 
00007c4b 5f5645525349 
00007c51 4f4e00 
00007c54 01            10913 	.byte	1

                                                                      Page 266
                                                              C:\Users\nhuliyap\AppData\Local\Temp\gh_0000d941.s
00007c55 24            10914 	.byte	36
00007c56 4d454d4d4150  10915 	.strz	"MEMMAP_ERROR "
00007c5c 5f4552524f52 
00007c62 2000 
00007c64 01            10916 	.byte	1
00007c65 ea02          10917 	.byte	234,2
00007c67 53544f505f53  10918 	.strz	"STOP_SEC_CODE "
00007c6d 45435f434f44 
00007c73 452000 
00007c76 03            10919 	.byte	3
00007c77 f403          10920 	.byte	244,3
00007c79 12            10921 	.byte	18
00007c7a 04            10922 	.byte	4
00007c7b 04            10923 	.byte	4
00007c7c 04            10924 	.byte	4
00007c7d 01            10925 	.byte	1
00007c7e 8a07          10926 	.byte	138,7
00007c80 525f46444c5f  10927 	.strz	"R_FDL_START_SEC_PUBLIC_CODE "
00007c86 53544152545f 
00007c8c 5345435f5055 
00007c92 424c49435f43 
00007c98 4f44452000 
00007c9d 03            10928 	.byte	3
00007c9e 8b07          10929 	.byte	139,7
00007ca0 1b            10930 	.byte	27
00007ca1 01            10931 	.byte	1
00007ca2 0c            10932 	.byte	12
00007ca3 46444c5f5354  10933 	.strz	"FDL_START_SEC_PUBLIC_CODE "
00007ca9 4152545f5345 
00007caf 435f5055424c 
00007cb5 49435f434f44 
00007cbb 452000 
00007cbe 03            10934 	.byte	3
00007cbf 20            10935 	.byte	32
00007cc0 11            10936 	.byte	17
00007cc1 01            10937 	.byte	1
00007cc2 02            10938 	.byte	2
00007cc3 4d454d4d4150  10939 	.strz	"MEMMAP_VENDOR_ID (30u)"
00007cc9 5f56454e444f 
00007ccf 525f49442028 
00007cd5 3330752900 
00007cda 01            10940 	.byte	1
00007cdb 08            10941 	.byte	8
00007cdc 4d454d4d4150  10942 	.strz	"MEMMAP_AR_RELEASE_MAJOR_VERSION (4u)"
00007ce2 5f41525f5245 
00007ce8 4c454153455f 
00007cee 4d414a4f525f 
00007cf4 56455253494f 
00007cfa 4e2028347529 
00007d00 00 
00007d01 01            10943 	.byte	1
00007d02 09            10944 	.byte	9
00007d03 4d454d4d4150  10945 	.strz	"MEMMAP_AR_RELEASE_MINOR_VERSION (0u)"
00007d09 5f41525f5245 
00007d0f 4c454153455f 
00007d15 4d494e4f525f 
00007d1b 56455253494f 
00007d21 4e2028307529 
00007d27 00 
00007d28 01            10946 	.byte	1
00007d29 0a            10947 	.byte	10

                                                                      Page 267
                                                              C:\Users\nhuliyap\AppData\Local\Temp\gh_0000d941.s
00007d2a 4d454d4d4150  10948 	.strz	"MEMMAP_AR_RELEASE_REVISION_VERSION (3u)"
00007d30 5f41525f5245 
00007d36 4c454153455f 
00007d3c 524556495349 
00007d42 4f4e5f564552 
00007d48 53494f4e2028 
00007d4e 33752900 
00007d52 01            10949 	.byte	1
00007d53 10            10950 	.byte	16
00007d54 4d454d5f4152  10951 	.strz	"MEM_AR_RELEASE_MAJOR_VERSION MEMMAP_AR_RELEASE_MAJOR_VERSION"
00007d5a 5f52454c4541 
00007d60 53455f4d414a 
00007d66 4f525f564552 
00007d6c 53494f4e204d 
00007d72 454d4d41505f 
00007d78 41525f52454c 
00007d7e 454153455f4d 
00007d84 414a4f525f56 
00007d8a 455253494f4e 
00007d90 00 
00007d91 01            10952 	.byte	1
00007d92 11            10953 	.byte	17
00007d93 4d454d5f4152  10954 	.strz	"MEM_AR_RELEASE_MINOR_VERSION MEMMAP_AR_RELEASE_MINOR_VERSION"
00007d99 5f52454c4541 
00007d9f 53455f4d494e 
00007da5 4f525f564552 
00007dab 53494f4e204d 
00007db1 454d4d41505f 
00007db7 41525f52454c 
00007dbd 454153455f4d 
00007dc3 494e4f525f56 
00007dc9 455253494f4e 
00007dcf 00 
00007dd0 01            10955 	.byte	1
00007dd1 12            10956 	.byte	18
00007dd2 4d454d5f4152  10957 	.strz	"MEM_AR_RELEASE_PATCH_VERSION MEMMAP_AR_RELEASE_REVISION_VERSION"
00007dd8 5f52454c4541 
00007dde 53455f504154 
00007de4 43485f564552 
00007dea 53494f4e204d 
00007df0 454d4d41505f 
00007df6 41525f52454c 
00007dfc 454153455f52 
00007e02 45564953494f 
00007e08 4e5f56455253 
00007e0e 494f4e00 
00007e12 01            10958 	.byte	1
00007e13 18            10959 	.byte	24
00007e14 4d454d4d4150  10960 	.strz	"MEMMAP_SW_MAJOR_VERSION (1u)"
00007e1a 5f53575f4d41 
00007e20 4a4f525f5645 
00007e26 5253494f4e20 
00007e2c 2831752900 
00007e31 01            10961 	.byte	1
00007e32 19            10962 	.byte	25
00007e33 4d454d4d4150  10963 	.strz	"MEMMAP_SW_MINOR_VERSION (11u)"
00007e39 5f53575f4d49 
00007e3f 4e4f525f5645 
00007e45 5253494f4e20 
00007e4b 283131752900 
00007e51 01            10964 	.byte	1

                                                                      Page 268
                                                              C:\Users\nhuliyap\AppData\Local\Temp\gh_0000d941.s
00007e52 1a            10965 	.byte	26
00007e53 4d454d4d4150  10966 	.strz	"MEMMAP_SW_PATCH_VERSION (0u)"
00007e59 5f53575f5041 
00007e5f 5443485f5645 
00007e65 5253494f4e20 
00007e6b 2830752900 
00007e70 01            10967 	.byte	1
00007e71 20            10968 	.byte	32
00007e72 4d454d5f5357  10969 	.strz	"MEM_SW_MAJOR_VERSION MEMMAP_SW_MAJOR_VERSION"
00007e78 5f4d414a4f52 
00007e7e 5f5645525349 
00007e84 4f4e204d454d 
00007e8a 4d41505f5357 
00007e90 5f4d414a4f52 
00007e96 5f5645525349 
00007e9c 4f4e00 
00007e9f 01            10970 	.byte	1
00007ea0 21            10971 	.byte	33
00007ea1 4d454d5f5357  10972 	.strz	"MEM_SW_MINOR_VERSION MEMMAP_SW_MINOR_VERSION"
00007ea7 5f4d494e4f52 
00007ead 5f5645525349 
00007eb3 4f4e204d454d 
00007eb9 4d41505f5357 
00007ebf 5f4d494e4f52 
00007ec5 5f5645525349 
00007ecb 4f4e00 
00007ece 01            10973 	.byte	1
00007ecf 22            10974 	.byte	34
00007ed0 4d454d5f5357  10975 	.strz	"MEM_SW_PATCH_VERSION MEMMAP_SW_PATCH_VERSION"
00007ed6 5f5041544348 
00007edc 5f5645525349 
00007ee2 4f4e204d454d 
00007ee8 4d41505f5357 
00007eee 5f5041544348 
00007ef4 5f5645525349 
00007efa 4f4e00 
00007efd 01            10976 	.byte	1
00007efe 24            10977 	.byte	36
00007eff 4d454d4d4150  10978 	.strz	"MEMMAP_ERROR "
00007f05 5f4552524f52 
00007f0b 2000 
00007f0d 01            10979 	.byte	1
00007f0e e602          10980 	.byte	230,2
00007f10 53544152545f  10981 	.strz	"START_SEC_CODE "
00007f16 5345435f434f 
00007f1c 44452000 
00007f20 03            10982 	.byte	3
00007f21 f403          10983 	.byte	244,3
00007f23 12            10984 	.byte	18
00007f24 01            10985 	.byte	1
00007f25 f407          10986 	.byte	244,7
00007f27 434f44455f53  10987 	.strz	"CODE_SEC_OPEN "
00007f2d 45435f4f5045 
00007f33 4e2000 
00007f36 04            10988 	.byte	4
00007f37 04            10989 	.byte	4
00007f38 04            10990 	.byte	4
00007f39 01            10991 	.byte	1
00007f3a ae08          10992 	.byte	174,8
00007f3c 525f46444c5f  10993 	.strz	"R_FDL_STOP_SEC_PUBLIC_CODE "
00007f42 53544f505f53 

                                                                      Page 269
                                                              C:\Users\nhuliyap\AppData\Local\Temp\gh_0000d941.s
00007f48 45435f505542 
00007f4e 4c49435f434f 
00007f54 44452000 
00007f58 03            10994 	.byte	3
00007f59 af08          10995 	.byte	175,8
00007f5b 1b            10996 	.byte	27
00007f5c 01            10997 	.byte	1
00007f5d 0f            10998 	.byte	15
00007f5e 46444c5f5354  10999 	.strz	"FDL_STOP_SEC_PUBLIC_CODE "
00007f64 4f505f534543 
00007f6a 5f5055424c49 
00007f70 435f434f4445 
00007f76 2000 
00007f78 03            11000 	.byte	3
00007f79 20            11001 	.byte	32
00007f7a 11            11002 	.byte	17
00007f7b 01            11003 	.byte	1
00007f7c 02            11004 	.byte	2
00007f7d 4d454d4d4150  11005 	.strz	"MEMMAP_VENDOR_ID (30u)"
00007f83 5f56454e444f 
00007f89 525f49442028 
00007f8f 3330752900 
00007f94 01            11006 	.byte	1
00007f95 08            11007 	.byte	8
00007f96 4d454d4d4150  11008 	.strz	"MEMMAP_AR_RELEASE_MAJOR_VERSION (4u)"
00007f9c 5f41525f5245 
00007fa2 4c454153455f 
00007fa8 4d414a4f525f 
00007fae 56455253494f 
00007fb4 4e2028347529 
00007fba 00 
00007fbb 01            11009 	.byte	1
00007fbc 09            11010 	.byte	9
00007fbd 4d454d4d4150  11011 	.strz	"MEMMAP_AR_RELEASE_MINOR_VERSION (0u)"
00007fc3 5f41525f5245 
00007fc9 4c454153455f 
00007fcf 4d494e4f525f 
00007fd5 56455253494f 
00007fdb 4e2028307529 
00007fe1 00 
00007fe2 01            11012 	.byte	1
00007fe3 0a            11013 	.byte	10
00007fe4 4d454d4d4150  11014 	.strz	"MEMMAP_AR_RELEASE_REVISION_VERSION (3u)"
00007fea 5f41525f5245 
00007ff0 4c454153455f 
00007ff6 524556495349 
00007ffc 4f4e5f564552 
00008002 53494f4e2028 
00008008 33752900 
0000800c 01            11015 	.byte	1
0000800d 10            11016 	.byte	16
0000800e 4d454d5f4152  11017 	.strz	"MEM_AR_RELEASE_MAJOR_VERSION MEMMAP_AR_RELEASE_MAJOR_VERSION"
00008014 5f52454c4541 
0000801a 53455f4d414a 
00008020 4f525f564552 
00008026 53494f4e204d 
0000802c 454d4d41505f 
00008032 41525f52454c 
00008038 454153455f4d 
0000803e 414a4f525f56 
00008044 455253494f4e 

                                                                      Page 270
                                                              C:\Users\nhuliyap\AppData\Local\Temp\gh_0000d941.s
0000804a 00 
0000804b 01            11018 	.byte	1
0000804c 11            11019 	.byte	17
0000804d 4d454d5f4152  11020 	.strz	"MEM_AR_RELEASE_MINOR_VERSION MEMMAP_AR_RELEASE_MINOR_VERSION"
00008053 5f52454c4541 
00008059 53455f4d494e 
0000805f 4f525f564552 
00008065 53494f4e204d 
0000806b 454d4d41505f 
00008071 41525f52454c 
00008077 454153455f4d 
0000807d 494e4f525f56 
00008083 455253494f4e 
00008089 00 
0000808a 01            11021 	.byte	1
0000808b 12            11022 	.byte	18
0000808c 4d454d5f4152  11023 	.strz	"MEM_AR_RELEASE_PATCH_VERSION MEMMAP_AR_RELEASE_REVISION_VERSION"
00008092 5f52454c4541 
00008098 53455f504154 
0000809e 43485f564552 
000080a4 53494f4e204d 
000080aa 454d4d41505f 
000080b0 41525f52454c 
000080b6 454153455f52 
000080bc 45564953494f 
000080c2 4e5f56455253 
000080c8 494f4e00 
000080cc 01            11024 	.byte	1
000080cd 18            11025 	.byte	24
000080ce 4d454d4d4150  11026 	.strz	"MEMMAP_SW_MAJOR_VERSION (1u)"
000080d4 5f53575f4d41 
000080da 4a4f525f5645 
000080e0 5253494f4e20 
000080e6 2831752900 
000080eb 01            11027 	.byte	1
000080ec 19            11028 	.byte	25
000080ed 4d454d4d4150  11029 	.strz	"MEMMAP_SW_MINOR_VERSION (11u)"
000080f3 5f53575f4d49 
000080f9 4e4f525f5645 
000080ff 5253494f4e20 
00008105 283131752900 
0000810b 01            11030 	.byte	1
0000810c 1a            11031 	.byte	26
0000810d 4d454d4d4150  11032 	.strz	"MEMMAP_SW_PATCH_VERSION (0u)"
00008113 5f53575f5041 
00008119 5443485f5645 
0000811f 5253494f4e20 
00008125 2830752900 
0000812a 01            11033 	.byte	1
0000812b 20            11034 	.byte	32
0000812c 4d454d5f5357  11035 	.strz	"MEM_SW_MAJOR_VERSION MEMMAP_SW_MAJOR_VERSION"
00008132 5f4d414a4f52 
00008138 5f5645525349 
0000813e 4f4e204d454d 
00008144 4d41505f5357 
0000814a 5f4d414a4f52 
00008150 5f5645525349 
00008156 4f4e00 
00008159 01            11036 	.byte	1
0000815a 21            11037 	.byte	33
0000815b 4d454d5f5357  11038 	.strz	"MEM_SW_MINOR_VERSION MEMMAP_SW_MINOR_VERSION"

                                                                      Page 271
                                                              C:\Users\nhuliyap\AppData\Local\Temp\gh_0000d941.s
00008161 5f4d494e4f52 
00008167 5f5645525349 
0000816d 4f4e204d454d 
00008173 4d41505f5357 
00008179 5f4d494e4f52 
0000817f 5f5645525349 
00008185 4f4e00 
00008188 01            11039 	.byte	1
00008189 22            11040 	.byte	34
0000818a 4d454d5f5357  11041 	.strz	"MEM_SW_PATCH_VERSION MEMMAP_SW_PATCH_VERSION"
00008190 5f5041544348 
00008196 5f5645525349 
0000819c 4f4e204d454d 
000081a2 4d41505f5357 
000081a8 5f5041544348 
000081ae 5f5645525349 
000081b4 4f4e00 
000081b7 01            11042 	.byte	1
000081b8 24            11043 	.byte	36
000081b9 4d454d4d4150  11044 	.strz	"MEMMAP_ERROR "
000081bf 5f4552524f52 
000081c5 2000 
000081c7 01            11045 	.byte	1
000081c8 ea02          11046 	.byte	234,2
000081ca 53544f505f53  11047 	.strz	"STOP_SEC_CODE "
000081d0 45435f434f44 
000081d6 452000 
000081d9 03            11048 	.byte	3
000081da f403          11049 	.byte	244,3
000081dc 12            11050 	.byte	18
000081dd 04            11051 	.byte	4
000081de 04            11052 	.byte	4
000081df 04            11053 	.byte	4
000081e0 01            11054 	.byte	1
000081e1 b108          11055 	.byte	177,8
000081e3 525f46444c5f  11056 	.strz	"R_FDL_START_SEC_PUBLIC_CODE "
000081e9 53544152545f 
000081ef 5345435f5055 
000081f5 424c49435f43 
000081fb 4f44452000 
00008200 03            11057 	.byte	3
00008201 b208          11058 	.byte	178,8
00008203 1b            11059 	.byte	27
00008204 01            11060 	.byte	1
00008205 0c            11061 	.byte	12
00008206 46444c5f5354  11062 	.strz	"FDL_START_SEC_PUBLIC_CODE "
0000820c 4152545f5345 
00008212 435f5055424c 
00008218 49435f434f44 
0000821e 452000 
00008221 03            11063 	.byte	3
00008222 20            11064 	.byte	32
00008223 11            11065 	.byte	17
00008224 01            11066 	.byte	1
00008225 02            11067 	.byte	2
00008226 4d454d4d4150  11068 	.strz	"MEMMAP_VENDOR_ID (30u)"
0000822c 5f56454e444f 
00008232 525f49442028 
00008238 3330752900 
0000823d 01            11069 	.byte	1
0000823e 08            11070 	.byte	8

                                                                      Page 272
                                                              C:\Users\nhuliyap\AppData\Local\Temp\gh_0000d941.s
0000823f 4d454d4d4150  11071 	.strz	"MEMMAP_AR_RELEASE_MAJOR_VERSION (4u)"
00008245 5f41525f5245 
0000824b 4c454153455f 
00008251 4d414a4f525f 
00008257 56455253494f 
0000825d 4e2028347529 
00008263 00 
00008264 01            11072 	.byte	1
00008265 09            11073 	.byte	9
00008266 4d454d4d4150  11074 	.strz	"MEMMAP_AR_RELEASE_MINOR_VERSION (0u)"
0000826c 5f41525f5245 
00008272 4c454153455f 
00008278 4d494e4f525f 
0000827e 56455253494f 
00008284 4e2028307529 
0000828a 00 
0000828b 01            11075 	.byte	1
0000828c 0a            11076 	.byte	10
0000828d 4d454d4d4150  11077 	.strz	"MEMMAP_AR_RELEASE_REVISION_VERSION (3u)"
00008293 5f41525f5245 
00008299 4c454153455f 
0000829f 524556495349 
000082a5 4f4e5f564552 
000082ab 53494f4e2028 
000082b1 33752900 
000082b5 01            11078 	.byte	1
000082b6 10            11079 	.byte	16
000082b7 4d454d5f4152  11080 	.strz	"MEM_AR_RELEASE_MAJOR_VERSION MEMMAP_AR_RELEASE_MAJOR_VERSION"
000082bd 5f52454c4541 
000082c3 53455f4d414a 
000082c9 4f525f564552 
000082cf 53494f4e204d 
000082d5 454d4d41505f 
000082db 41525f52454c 
000082e1 454153455f4d 
000082e7 414a4f525f56 
000082ed 455253494f4e 
000082f3 00 
000082f4 01            11081 	.byte	1
000082f5 11            11082 	.byte	17
000082f6 4d454d5f4152  11083 	.strz	"MEM_AR_RELEASE_MINOR_VERSION MEMMAP_AR_RELEASE_MINOR_VERSION"
000082fc 5f52454c4541 
00008302 53455f4d494e 
00008308 4f525f564552 
0000830e 53494f4e204d 
00008314 454d4d41505f 
0000831a 41525f52454c 
00008320 454153455f4d 
00008326 494e4f525f56 
0000832c 455253494f4e 
00008332 00 
00008333 01            11084 	.byte	1
00008334 12            11085 	.byte	18
00008335 4d454d5f4152  11086 	.strz	"MEM_AR_RELEASE_PATCH_VERSION MEMMAP_AR_RELEASE_REVISION_VERSION"
0000833b 5f52454c4541 
00008341 53455f504154 
00008347 43485f564552 
0000834d 53494f4e204d 
00008353 454d4d41505f 
00008359 41525f52454c 
0000835f 454153455f52 

                                                                      Page 273
                                                              C:\Users\nhuliyap\AppData\Local\Temp\gh_0000d941.s
00008365 45564953494f 
0000836b 4e5f56455253 
00008371 494f4e00 
00008375 01            11087 	.byte	1
00008376 18            11088 	.byte	24
00008377 4d454d4d4150  11089 	.strz	"MEMMAP_SW_MAJOR_VERSION (1u)"
0000837d 5f53575f4d41 
00008383 4a4f525f5645 
00008389 5253494f4e20 
0000838f 2831752900 
00008394 01            11090 	.byte	1
00008395 19            11091 	.byte	25
00008396 4d454d4d4150  11092 	.strz	"MEMMAP_SW_MINOR_VERSION (11u)"
0000839c 5f53575f4d49 
000083a2 4e4f525f5645 
000083a8 5253494f4e20 
000083ae 283131752900 
000083b4 01            11093 	.byte	1
000083b5 1a            11094 	.byte	26
000083b6 4d454d4d4150  11095 	.strz	"MEMMAP_SW_PATCH_VERSION (0u)"
000083bc 5f53575f5041 
000083c2 5443485f5645 
000083c8 5253494f4e20 
000083ce 2830752900 
000083d3 01            11096 	.byte	1
000083d4 20            11097 	.byte	32
000083d5 4d454d5f5357  11098 	.strz	"MEM_SW_MAJOR_VERSION MEMMAP_SW_MAJOR_VERSION"
000083db 5f4d414a4f52 
000083e1 5f5645525349 
000083e7 4f4e204d454d 
000083ed 4d41505f5357 
000083f3 5f4d414a4f52 
000083f9 5f5645525349 
000083ff 4f4e00 
00008402 01            11099 	.byte	1
00008403 21            11100 	.byte	33
00008404 4d454d5f5357  11101 	.strz	"MEM_SW_MINOR_VERSION MEMMAP_SW_MINOR_VERSION"
0000840a 5f4d494e4f52 
00008410 5f5645525349 
00008416 4f4e204d454d 
0000841c 4d41505f5357 
00008422 5f4d494e4f52 
00008428 5f5645525349 
0000842e 4f4e00 
00008431 01            11102 	.byte	1
00008432 22            11103 	.byte	34
00008433 4d454d5f5357  11104 	.strz	"MEM_SW_PATCH_VERSION MEMMAP_SW_PATCH_VERSION"
00008439 5f5041544348 
0000843f 5f5645525349 
00008445 4f4e204d454d 
0000844b 4d41505f5357 
00008451 5f5041544348 
00008457 5f5645525349 
0000845d 4f4e00 
00008460 01            11105 	.byte	1
00008461 24            11106 	.byte	36
00008462 4d454d4d4150  11107 	.strz	"MEMMAP_ERROR "
00008468 5f4552524f52 
0000846e 2000 
00008470 01            11108 	.byte	1
00008471 e602          11109 	.byte	230,2

                                                                      Page 274
                                                              C:\Users\nhuliyap\AppData\Local\Temp\gh_0000d941.s
00008473 53544152545f  11110 	.strz	"START_SEC_CODE "
00008479 5345435f434f 
0000847f 44452000 
00008483 03            11111 	.byte	3
00008484 f403          11112 	.byte	244,3
00008486 12            11113 	.byte	18
00008487 01            11114 	.byte	1
00008488 f407          11115 	.byte	244,7
0000848a 434f44455f53  11116 	.strz	"CODE_SEC_OPEN "
00008490 45435f4f5045 
00008496 4e2000 
00008499 04            11117 	.byte	4
0000849a 04            11118 	.byte	4
0000849b 04            11119 	.byte	4
0000849c 01            11120 	.byte	1
0000849d be08          11121 	.byte	190,8
0000849f 525f46444c5f  11122 	.strz	"R_FDL_STOP_SEC_PUBLIC_CODE "
000084a5 53544f505f53 
000084ab 45435f505542 
000084b1 4c49435f434f 
000084b7 44452000 
000084bb 03            11123 	.byte	3
000084bc bf08          11124 	.byte	191,8
000084be 1b            11125 	.byte	27
000084bf 01            11126 	.byte	1
000084c0 0f            11127 	.byte	15
000084c1 46444c5f5354  11128 	.strz	"FDL_STOP_SEC_PUBLIC_CODE "
000084c7 4f505f534543 
000084cd 5f5055424c49 
000084d3 435f434f4445 
000084d9 2000 
000084db 03            11129 	.byte	3
000084dc 20            11130 	.byte	32
000084dd 11            11131 	.byte	17
000084de 01            11132 	.byte	1
000084df 02            11133 	.byte	2
000084e0 4d454d4d4150  11134 	.strz	"MEMMAP_VENDOR_ID (30u)"
000084e6 5f56454e444f 
000084ec 525f49442028 
000084f2 3330752900 
000084f7 01            11135 	.byte	1
000084f8 08            11136 	.byte	8
000084f9 4d454d4d4150  11137 	.strz	"MEMMAP_AR_RELEASE_MAJOR_VERSION (4u)"
000084ff 5f41525f5245 
00008505 4c454153455f 
0000850b 4d414a4f525f 
00008511 56455253494f 
00008517 4e2028347529 
0000851d 00 
0000851e 01            11138 	.byte	1
0000851f 09            11139 	.byte	9
00008520 4d454d4d4150  11140 	.strz	"MEMMAP_AR_RELEASE_MINOR_VERSION (0u)"
00008526 5f41525f5245 
0000852c 4c454153455f 
00008532 4d494e4f525f 
00008538 56455253494f 
0000853e 4e2028307529 
00008544 00 
00008545 01            11141 	.byte	1
00008546 0a            11142 	.byte	10
00008547 4d454d4d4150  11143 	.strz	"MEMMAP_AR_RELEASE_REVISION_VERSION (3u)"

                                                                      Page 275
                                                              C:\Users\nhuliyap\AppData\Local\Temp\gh_0000d941.s
0000854d 5f41525f5245 
00008553 4c454153455f 
00008559 524556495349 
0000855f 4f4e5f564552 
00008565 53494f4e2028 
0000856b 33752900 
0000856f 01            11144 	.byte	1
00008570 10            11145 	.byte	16
00008571 4d454d5f4152  11146 	.strz	"MEM_AR_RELEASE_MAJOR_VERSION MEMMAP_AR_RELEASE_MAJOR_VERSION"
00008577 5f52454c4541 
0000857d 53455f4d414a 
00008583 4f525f564552 
00008589 53494f4e204d 
0000858f 454d4d41505f 
00008595 41525f52454c 
0000859b 454153455f4d 
000085a1 414a4f525f56 
000085a7 455253494f4e 
000085ad 00 
000085ae 01            11147 	.byte	1
000085af 11            11148 	.byte	17
000085b0 4d454d5f4152  11149 	.strz	"MEM_AR_RELEASE_MINOR_VERSION MEMMAP_AR_RELEASE_MINOR_VERSION"
000085b6 5f52454c4541 
000085bc 53455f4d494e 
000085c2 4f525f564552 
000085c8 53494f4e204d 
000085ce 454d4d41505f 
000085d4 41525f52454c 
000085da 454153455f4d 
000085e0 494e4f525f56 
000085e6 455253494f4e 
000085ec 00 
000085ed 01            11150 	.byte	1
000085ee 12            11151 	.byte	18
000085ef 4d454d5f4152  11152 	.strz	"MEM_AR_RELEASE_PATCH_VERSION MEMMAP_AR_RELEASE_REVISION_VERSION"
000085f5 5f52454c4541 
000085fb 53455f504154 
00008601 43485f564552 
00008607 53494f4e204d 
0000860d 454d4d41505f 
00008613 41525f52454c 
00008619 454153455f52 
0000861f 45564953494f 
00008625 4e5f56455253 
0000862b 494f4e00 
0000862f 01            11153 	.byte	1
00008630 18            11154 	.byte	24
00008631 4d454d4d4150  11155 	.strz	"MEMMAP_SW_MAJOR_VERSION (1u)"
00008637 5f53575f4d41 
0000863d 4a4f525f5645 
00008643 5253494f4e20 
00008649 2831752900 
0000864e 01            11156 	.byte	1
0000864f 19            11157 	.byte	25
00008650 4d454d4d4150  11158 	.strz	"MEMMAP_SW_MINOR_VERSION (11u)"
00008656 5f53575f4d49 
0000865c 4e4f525f5645 
00008662 5253494f4e20 
00008668 283131752900 
0000866e 01            11159 	.byte	1
0000866f 1a            11160 	.byte	26

                                                                      Page 276
                                                              C:\Users\nhuliyap\AppData\Local\Temp\gh_0000d941.s
00008670 4d454d4d4150  11161 	.strz	"MEMMAP_SW_PATCH_VERSION (0u)"
00008676 5f53575f5041 
0000867c 5443485f5645 
00008682 5253494f4e20 
00008688 2830752900 
0000868d 01            11162 	.byte	1
0000868e 20            11163 	.byte	32
0000868f 4d454d5f5357  11164 	.strz	"MEM_SW_MAJOR_VERSION MEMMAP_SW_MAJOR_VERSION"
00008695 5f4d414a4f52 
0000869b 5f5645525349 
000086a1 4f4e204d454d 
000086a7 4d41505f5357 
000086ad 5f4d414a4f52 
000086b3 5f5645525349 
000086b9 4f4e00 
000086bc 01            11165 	.byte	1
000086bd 21            11166 	.byte	33
000086be 4d454d5f5357  11167 	.strz	"MEM_SW_MINOR_VERSION MEMMAP_SW_MINOR_VERSION"
000086c4 5f4d494e4f52 
000086ca 5f5645525349 
000086d0 4f4e204d454d 
000086d6 4d41505f5357 
000086dc 5f4d494e4f52 
000086e2 5f5645525349 
000086e8 4f4e00 
000086eb 01            11168 	.byte	1
000086ec 22            11169 	.byte	34
000086ed 4d454d5f5357  11170 	.strz	"MEM_SW_PATCH_VERSION MEMMAP_SW_PATCH_VERSION"
000086f3 5f5041544348 
000086f9 5f5645525349 
000086ff 4f4e204d454d 
00008705 4d41505f5357 
0000870b 5f5041544348 
00008711 5f5645525349 
00008717 4f4e00 
0000871a 01            11171 	.byte	1
0000871b 24            11172 	.byte	36
0000871c 4d454d4d4150  11173 	.strz	"MEMMAP_ERROR "
00008722 5f4552524f52 
00008728 2000 
0000872a 01            11174 	.byte	1
0000872b ea02          11175 	.byte	234,2
0000872d 53544f505f53  11176 	.strz	"STOP_SEC_CODE "
00008733 45435f434f44 
00008739 452000 
0000873c 03            11177 	.byte	3
0000873d f403          11178 	.byte	244,3
0000873f 12            11179 	.byte	18
00008740 04            11180 	.byte	4
00008741 04            11181 	.byte	4
00008742 04            11182 	.byte	4
00008743 01            11183 	.byte	1
00008744 c108          11184 	.byte	193,8
00008746 525f46444c5f  11185 	.strz	"R_FDL_START_SEC_PUBLIC_CODE "
0000874c 53544152545f 
00008752 5345435f5055 
00008758 424c49435f43 
0000875e 4f44452000 
00008763 03            11186 	.byte	3
00008764 c208          11187 	.byte	194,8
00008766 1b            11188 	.byte	27

                                                                      Page 277
                                                              C:\Users\nhuliyap\AppData\Local\Temp\gh_0000d941.s
00008767 01            11189 	.byte	1
00008768 0c            11190 	.byte	12
00008769 46444c5f5354  11191 	.strz	"FDL_START_SEC_PUBLIC_CODE "
0000876f 4152545f5345 
00008775 435f5055424c 
0000877b 49435f434f44 
00008781 452000 
00008784 03            11192 	.byte	3
00008785 20            11193 	.byte	32
00008786 11            11194 	.byte	17
00008787 01            11195 	.byte	1
00008788 02            11196 	.byte	2
00008789 4d454d4d4150  11197 	.strz	"MEMMAP_VENDOR_ID (30u)"
0000878f 5f56454e444f 
00008795 525f49442028 
0000879b 3330752900 
000087a0 01            11198 	.byte	1
000087a1 08            11199 	.byte	8
000087a2 4d454d4d4150  11200 	.strz	"MEMMAP_AR_RELEASE_MAJOR_VERSION (4u)"
000087a8 5f41525f5245 
000087ae 4c454153455f 
000087b4 4d414a4f525f 
000087ba 56455253494f 
000087c0 4e2028347529 
000087c6 00 
000087c7 01            11201 	.byte	1
000087c8 09            11202 	.byte	9
000087c9 4d454d4d4150  11203 	.strz	"MEMMAP_AR_RELEASE_MINOR_VERSION (0u)"
000087cf 5f41525f5245 
000087d5 4c454153455f 
000087db 4d494e4f525f 
000087e1 56455253494f 
000087e7 4e2028307529 
000087ed 00 
000087ee 01            11204 	.byte	1
000087ef 0a            11205 	.byte	10
000087f0 4d454d4d4150  11206 	.strz	"MEMMAP_AR_RELEASE_REVISION_VERSION (3u)"
000087f6 5f41525f5245 
000087fc 4c454153455f 
00008802 524556495349 
00008808 4f4e5f564552 
0000880e 53494f4e2028 
00008814 33752900 
00008818 01            11207 	.byte	1
00008819 10            11208 	.byte	16
0000881a 4d454d5f4152  11209 	.strz	"MEM_AR_RELEASE_MAJOR_VERSION MEMMAP_AR_RELEASE_MAJOR_VERSION"
00008820 5f52454c4541 
00008826 53455f4d414a 
0000882c 4f525f564552 
00008832 53494f4e204d 
00008838 454d4d41505f 
0000883e 41525f52454c 
00008844 454153455f4d 
0000884a 414a4f525f56 
00008850 455253494f4e 
00008856 00 
00008857 01            11210 	.byte	1
00008858 11            11211 	.byte	17
00008859 4d454d5f4152  11212 	.strz	"MEM_AR_RELEASE_MINOR_VERSION MEMMAP_AR_RELEASE_MINOR_VERSION"
0000885f 5f52454c4541 
00008865 53455f4d494e 

                                                                      Page 278
                                                              C:\Users\nhuliyap\AppData\Local\Temp\gh_0000d941.s
0000886b 4f525f564552 
00008871 53494f4e204d 
00008877 454d4d41505f 
0000887d 41525f52454c 
00008883 454153455f4d 
00008889 494e4f525f56 
0000888f 455253494f4e 
00008895 00 
00008896 01            11213 	.byte	1
00008897 12            11214 	.byte	18
00008898 4d454d5f4152  11215 	.strz	"MEM_AR_RELEASE_PATCH_VERSION MEMMAP_AR_RELEASE_REVISION_VERSION"
0000889e 5f52454c4541 
000088a4 53455f504154 
000088aa 43485f564552 
000088b0 53494f4e204d 
000088b6 454d4d41505f 
000088bc 41525f52454c 
000088c2 454153455f52 
000088c8 45564953494f 
000088ce 4e5f56455253 
000088d4 494f4e00 
000088d8 01            11216 	.byte	1
000088d9 18            11217 	.byte	24
000088da 4d454d4d4150  11218 	.strz	"MEMMAP_SW_MAJOR_VERSION (1u)"
000088e0 5f53575f4d41 
000088e6 4a4f525f5645 
000088ec 5253494f4e20 
000088f2 2831752900 
000088f7 01            11219 	.byte	1
000088f8 19            11220 	.byte	25
000088f9 4d454d4d4150  11221 	.strz	"MEMMAP_SW_MINOR_VERSION (11u)"
000088ff 5f53575f4d49 
00008905 4e4f525f5645 
0000890b 5253494f4e20 
00008911 283131752900 
00008917 01            11222 	.byte	1
00008918 1a            11223 	.byte	26
00008919 4d454d4d4150  11224 	.strz	"MEMMAP_SW_PATCH_VERSION (0u)"
0000891f 5f53575f5041 
00008925 5443485f5645 
0000892b 5253494f4e20 
00008931 2830752900 
00008936 01            11225 	.byte	1
00008937 20            11226 	.byte	32
00008938 4d454d5f5357  11227 	.strz	"MEM_SW_MAJOR_VERSION MEMMAP_SW_MAJOR_VERSION"
0000893e 5f4d414a4f52 
00008944 5f5645525349 
0000894a 4f4e204d454d 
00008950 4d41505f5357 
00008956 5f4d414a4f52 
0000895c 5f5645525349 
00008962 4f4e00 
00008965 01            11228 	.byte	1
00008966 21            11229 	.byte	33
00008967 4d454d5f5357  11230 	.strz	"MEM_SW_MINOR_VERSION MEMMAP_SW_MINOR_VERSION"
0000896d 5f4d494e4f52 
00008973 5f5645525349 
00008979 4f4e204d454d 
0000897f 4d41505f5357 
00008985 5f4d494e4f52 
0000898b 5f5645525349 

                                                                      Page 279
                                                              C:\Users\nhuliyap\AppData\Local\Temp\gh_0000d941.s
00008991 4f4e00 
00008994 01            11231 	.byte	1
00008995 22            11232 	.byte	34
00008996 4d454d5f5357  11233 	.strz	"MEM_SW_PATCH_VERSION MEMMAP_SW_PATCH_VERSION"
0000899c 5f5041544348 
000089a2 5f5645525349 
000089a8 4f4e204d454d 
000089ae 4d41505f5357 
000089b4 5f5041544348 
000089ba 5f5645525349 
000089c0 4f4e00 
000089c3 01            11234 	.byte	1
000089c4 24            11235 	.byte	36
000089c5 4d454d4d4150  11236 	.strz	"MEMMAP_ERROR "
000089cb 5f4552524f52 
000089d1 2000 
000089d3 01            11237 	.byte	1
000089d4 e602          11238 	.byte	230,2
000089d6 53544152545f  11239 	.strz	"START_SEC_CODE "
000089dc 5345435f434f 
000089e2 44452000 
000089e6 03            11240 	.byte	3
000089e7 f403          11241 	.byte	244,3
000089e9 12            11242 	.byte	18
000089ea 01            11243 	.byte	1
000089eb f407          11244 	.byte	244,7
000089ed 434f44455f53  11245 	.strz	"CODE_SEC_OPEN "
000089f3 45435f4f5045 
000089f9 4e2000 
000089fc 04            11246 	.byte	4
000089fd 04            11247 	.byte	4
000089fe 04            11248 	.byte	4
000089ff 01            11249 	.byte	1
00008a00 d408          11250 	.byte	212,8
00008a02 525f46444c5f  11251 	.strz	"R_FDL_STOP_SEC_PUBLIC_CODE "
00008a08 53544f505f53 
00008a0e 45435f505542 
00008a14 4c49435f434f 
00008a1a 44452000 
00008a1e 03            11252 	.byte	3
00008a1f d508          11253 	.byte	213,8
00008a21 1b            11254 	.byte	27
00008a22 01            11255 	.byte	1
00008a23 0f            11256 	.byte	15
00008a24 46444c5f5354  11257 	.strz	"FDL_STOP_SEC_PUBLIC_CODE "
00008a2a 4f505f534543 
00008a30 5f5055424c49 
00008a36 435f434f4445 
00008a3c 2000 
00008a3e 03            11258 	.byte	3
00008a3f 20            11259 	.byte	32
00008a40 11            11260 	.byte	17
00008a41 01            11261 	.byte	1
00008a42 24            11262 	.byte	36
00008a43 4d454d4d4150  11263 	.strz	"MEMMAP_ERROR "
00008a49 5f4552524f52 
00008a4f 2000 
00008a51 01            11264 	.byte	1
00008a52 ea02          11265 	.byte	234,2
00008a54 53544f505f53  11266 	.strz	"STOP_SEC_CODE "
00008a5a 45435f434f44 

                                                                      Page 280
                                                              C:\Users\nhuliyap\AppData\Local\Temp\gh_0000d941.s
00008a60 452000 
00008a63 03            11267 	.byte	3
00008a64 f403          11268 	.byte	244,3
00008a66 12            11269 	.byte	18
00008a67 04            11270 	.byte	4
00008a68 04            11271 	.byte	4
00008a69 04            11272 	.byte	4
00008a6a 04            11273 	.byte	4
00008a6b 00            11274 	.byte	0
                       11275 	.section	.debug_abbrev
00000191 00            11276 	.byte	0
                       11277 	.section	.debug_info
                       11278 .Ldw_end:
                       11279 .rh850_flags REGMODE32,DATA_ALIGN8,GP_FIX,EP_NONFIX,TP_FIX,REG2_RESERVE,G3K,GHS_MISALIGN,SDA_EXTRA_REGS_0
