                                                                      Page 1
                                                              C:\Users\nhuliyap\AppData\Local\Temp\gh_0000b0k1.s
Command Line: C:\ghs\comp_201517\ease850.exe -w -elf -b0 -I../source/common -I../source/ProjectCompiler -I../source/ProjectCfg -I../source/SwcApplTpms -I../source/SwcApplTpms/Intface -I../source/SwcApplEcuM -I../source/SwcServiceEcuM -I../source/SwcServiceNvM -I../source/SwcServiceOs -I../source/SwcServiceStartUp -I../source/McalAdc -I../source/McalDio -I../source/McalGpt -I../source/McalMcu -I../source/McalWdg -I../source/wrappers -I../source/wrappers/McalAta -I../source/McalLin -I../source/McalCan -I../source/wrappers/OS -I../source/McalFls -I../source/EcuabFee -I../source/EcuabMemIf -I../source/wrappers/VStdLib -I../source/wrappers/Crc -I../source/wrappers/FBL_APPL -I../source/wrappers/CAN_MANAGER -I../source/wrappers/NVM_MANAGER -I../source/wrappers/DEM_MANAGER -I../source/wrappers/RDC_MANAGER -I../source/wrappers/ENV_MANAGER -I../source/wrappers/SYS_MANAGER -I../source/wrappers/EcuabCanIf -I../source/wrappers/SwcServiceCanSM -I../source/wrappers/SwcServiceCanTp -I../source/wrappers/SwcServiceCanTp_PreCompile -I../source/wrappers/SwcServiceCom -I../source/wrappers/SwcServiceComM -I../source/wrappers/SwcServiceComStack -I../source/wrappers/SwcServiceDcm -I../source/wrappers/SwcServicePduR -I../source/wrappers/SwcServiceEcuM -I../source/wrappers/Bfx -I../source/wrappers/SwcServiceDem -I../source/SwcServiceDet -I../source/SwcServiceFiM -I../source/wrappers/LibAutosarDiag -I../source/wrappers/rba_BswSrv -I../source/SwcServiceSchM -I../source/wrappers/SwcServiceComM/Integration -I../source/wrappers/SwcServicePduR/Integration -I../source/wrappers/EcuabCanIf/Integration -I../source/wrappers/SwcServiceCom/Integration -I../source/wrappers/SwcServiceCanTp/Integration -I../source/wrappers/SwcServiceEcuM/Integration -I../source/SwcServiceDet/Integration -I../source/wrappers/SwcServiceDcm/Integration -I../source/wrappers/SwcServiceDem/Integration -I../source/SwcServiceFiM/Integration -I../source/wrappers/EcuabCanIf/api -I../source/wrappers/SwcServiceCom/api -I../source/wrappers/SwcServiceComM/api -I../source/wrappers/SwcServicePduR/api -I../source/wrappers/Bfx/api -I../source/SwcServiceDet/api -I../source/SwcServiceFiM/api -I../source/wrappers/LibAutosarDiag/api -I../source/wrappers/rba_BswSrv/api -IC:\ghs\comp_201517\lib\rh850 -cg_underscore -cpu=rh850g3k -no_v850_simd -rh850_fpsimd=none -nomacro -patch_dbo=C:\_ECU2\ECU_Rivian_A1\Target\repo_projects\pRealEcu\cL_R2023.09.01\make\output\objects\RdcStandstill.dbo -source=RdcStandstill.c -o output\objects\gh_0000b0k1.o -list=output\list\RdcStandstill.lst C:\Users\nhuliyap\AppData\Local\Temp\gh_0000b0k1.s 
Original File: C:\Users\nhuliyap\AppData\Local\Temp\gh_0000b0k1.s
Source File: RdcStandstill.c
Directory: C:\_ECU2\ECU_Rivian_A1\Target\repo_projects\pRealEcu\cL_R2023.09.01\make
Host OS: Windows
EASE: Copyright (C) 1983-2015 Green Hills Software.  All Rights Reserved.
Release: Compiler v2015.1.7
Build Directory: [Directory] BTOWORKER6:c:/build_2015_1_bto/2015-10-21.2100-2015_1_bto/win32-comp-ecom
Revision: [VCInfo] http://toolsvc/branches/release-branch-70-bto/src@544153 (built by build)
Revision Date: Thu Oct 22 07:50:13 2015

Release Date: Thu Oct 22 09:32:32 2015

                           1 --Driver Command: ccv850 ../source/wrappers/RDC_MANAGER/RdcStandstill.c
                           2 --		-cpu=rh850 -fhard -ignore_callt_state_in_interrupts -large_sda
                           3 --		-misalign_pack -nofarcalls -nofloatio -no_callt -Ogeneral
                           4 --		-Onounroll -prepare_dispose -registermode=32 -reserve_r2 -sda=0
                           5 --		-shorten_loads -Wshadow --brief_diagnostics --no_commons
                           6 --		--no_wrap_diagnostics --prototype_errors --short_enum -list -G
                           7 --		-dual_debug -dwarf -X5523 -lnk=-no_xda_modifications -D
                           8 --		NOT_READY_FOR_TESTING_OR_DEPLOYMENT -D IBTCM_SW_ANPASSUNGEN -D
                           9 --		BUILD_LORDSTOWN -c -inline_prologue -I../source/common
                          10 --		-I../source/ProjectCompiler -I../source/ProjectCfg
                          11 --		-I../source/SwcApplTpms -I../source/SwcApplTpms/Intface
                          12 --		-I../source/SwcApplEcuM -I../source/SwcServiceEcuM
                          13 --		-I../source/SwcServiceNvM -I../source/SwcServiceOs
                          14 --		-I../source/SwcServiceStartUp -I../source/McalAdc
                          15 --		-I../source/McalDio -I../source/McalGpt -I../source/McalMcu
                          16 --		-I../source/McalWdg -I../source/wrappers
                          17 --		-I../source/wrappers/McalAta -I../source/McalLin
                          18 --		-I../source/McalCan -I../source/wrappers/OS -I../source/McalFls
                          19 --		-I../source/EcuabFee -I../source/EcuabMemIf
                          20 --		-I../source/wrappers/VStdLib -I../source/wrappers
                          21 --		-I../source/wrappers/Crc -I../source/wrappers/FBL_APPL
                          22 --		-I../source/wrappers/CAN_MANAGER -I../source/wrappers/NVM_MANAGER
                          23 --		-I../source/wrappers/DEM_MANAGER -I../source/wrappers/RDC_MANAGER
                          24 --		-I../source/wrappers/ENV_MANAGER -I../source/wrappers/SYS_MANAGER
                          25 --		-I../source/wrappers/EcuabCanIf
                          26 --		-I../source/wrappers/SwcServiceCanSM
                          27 --		-I../source/wrappers/SwcServiceCanTp
                          28 --		-I../source/wrappers/SwcServiceCanTp_PreCompile
                          29 --		-I../source/wrappers/SwcServiceCom
                          30 --		-I../source/wrappers/SwcServiceComM
                          31 --		-I../source/wrappers/SwcServiceComStack
                          32 --		-I../source/wrappers/SwcServiceDcm
                          33 --		-I../source/wrappers/SwcServicePduR
                          34 --		-I../source/wrappers/SwcServiceEcuM -I../source/wrappers/Bfx
                          35 --		-I../source/wrappers/SwcServiceDem -I../source/SwcServiceDet
                          36 --		-I../source/SwcServiceFiM -I../source/wrappers/LibAutosarDiag
                          37 --		-I../source/wrappers/rba_BswSrv -I../source/SwcServiceSchM
                          38 --		-I../source/wrappers/SwcServiceComM/Integration
                          39 --		-I../source/wrappers/SwcServicePduR/Integration
                          40 --		-I../source/wrappers/EcuabCanIf/Integration
                          41 --		-I../source/wrappers/SwcServiceCom/Integration
                          42 --		-I../source/wrappers/SwcServiceCanTp/Integration
                          43 --		-I../source/wrappers/SwcServiceEcuM/Integration
                          44 --		-I../source/SwcServiceDet/Integration
                          45 --		-I../source/wrappers/SwcServiceDcm/Integration
                          46 --		-I../source/wrappers/SwcServiceDem/Integration
                          47 --		-I../source/SwcServiceFiM/Integration
                          48 --		-I../source/wrappers/EcuabCanIf/api
                          49 --		-I../source/wrappers/SwcServiceCom/api
                          50 --		-I../source/wrappers/SwcServiceComM/api

                                                                      Page 2
                                                              C:\Users\nhuliyap\AppData\Local\Temp\gh_0000b0k1.s
                          51 --		-I../source/wrappers/SwcServicePduR/api
                          52 --		-I../source/wrappers/Bfx/api -I../source/SwcServiceDet/api
                          53 --		-I../source/SwcServiceFiM/api
                          54 --		-I../source/wrappers/LibAutosarDiag/api
                          55 --		-I../source/wrappers/rba_BswSrv/api -object_dir=output/objects
                          56 --		-list_dir=output/list
                          57 --Source File:   ../source/wrappers/RDC_MANAGER/RdcStandstill.c
                          58 --Directory:     
                          59 --		C:\_ECU2\ECU_Rivian_A1\Target\repo_projects\pRealEcu\cL_R2023.09.01\make
                          60 --Compile Date:  Wed Sep 06 08:59:14 2023
                          61 --Host OS:       Win32
                          62 --Version:       C-RH850 2015.1.7 RELEASE VERSION
                          63 --Release:       Compiler v2015.1.7
                          64 --Revision Date: Thu Oct 22 08:06:12 2015
                          65 --Release Date:  Thu Oct 22 09:34:32 2015
                          66 -- ecom  -g -w -OM
                          67 	.text
                          68 ..bof.C.3A.5C_ECU2.5CECU_Rivian_A1.5CTarget.5Crepo_projects.5CpRealEcu.5CcL_R2023.2E09.2E01.5Cmake.5Coutput.5Cobjects.5CRdcStandstill...43.3A.5C_ECU2.5CECU_Rivian_A1.5CTarget.5Crepo_projects.5CpRealEcu.5CcL_R2023.2E09.2E01.5Cmake..64F82342..0::
                          69 	.align	2
                          70 ..gh.f.f.1.e.0:
                          71 	.type	..gh.f.f.1.e.0,@object
                          72 	.size	..gh.f.f.1.e.0,0
                          73 	.global	_RdcSt_Init
                          74 _RdcSt_Init:
                          75 --	    .bf
                          76 .LDW01:
                          77 --	    .ef
                          78 .LDW11:
00000000 7f00             79 	jmp	[lp]
                          80 	.global	___ghs_eofn_RdcSt_Init
                          81 ___ghs_eofn_RdcSt_Init:
                          82 	.type	_RdcSt_Init,@function
                          83 	.size	_RdcSt_Init,.-_RdcSt_Init
                          84 	.align	2
                          85 
                          86 	.section ".bss","awb"
                          87 .L32:
                          88 	.type	.L32,@object
                          89 	.size	.L32,0
                          90 	.data
                          91 	.text
                          92 	.align	2
                          93 	.align	2
                          94 ..gh.f.f.1.e.1:
                          95 	.type	..gh.f.f.1.e.1,@object
                          96 	.size	..gh.f.f.1.e.1,0
                          97 	.global	_RdcSt_InitBSWNvM
                          98 _RdcSt_InitBSWNvM:
00000002 82072100         99 	prepare	{r31},1
                         100 --	    .bf
                         101 .LDW21:
00000006 0192            102 	mov	1,r18
00000008 43970300        103 	st.b	r18,3[sp]
0000000c 0032            104 	mov	0,r6
0000000e 233e0300        105 	movea	3,sp,r7
                         106 	jarl	_NvmMGR_WriteBSWMember,lp
                         106 <EXPANSION BEGIN>
                         106 jarl22 _NvmMGR_WriteBSWMember , lp 
00000012 80ff0000*       106 <EXPANSION END>
                         107 --line69
                         108 ..lin.C.3A.5C_ECU2.5CECU_Rivian_A1.5CTarget.5Crepo_projects.5CpRealEcu.5CcL_R2023.2E09.2E01.5Cmake.5Coutput.5Cobjects.5CRdcStandstill.1::

                                                                      Page 3
                                                              C:\Users\nhuliyap\AppData\Local\Temp\gh_0000b0k1.s
                         109 .LDWlin1:
00000016 058a            110 	mov	5,r17
00000018 438f0300        111 	st.b	r17,3[sp]
0000001c 0132            112 	mov	1,r6
0000001e 233e0300        113 	movea	3,sp,r7
                         114 	jarl	_NvmMGR_WriteBSWMember,lp
                         114 <EXPANSION BEGIN>
                         114 jarl22 _NvmMGR_WriteBSWMember , lp 
00000022 80ff0000*       114 <EXPANSION END>
                         115 --line72
                         116 ..lin.C.3A.5C_ECU2.5CECU_Rivian_A1.5CTarget.5Crepo_projects.5CpRealEcu.5CcL_R2023.2E09.2E01.5Cmake.5Coutput.5Cobjects.5CRdcStandstill.2::
                         117 .LDWlin2:
00000026 20864600        118 	movea	70,zero,r16
0000002a 43870300        119 	st.b	r16,3[sp]
0000002e 0232            120 	mov	2,r6
00000030 233e0300        121 	movea	3,sp,r7
                         122 	jarl	_NvmMGR_WriteBSWMember,lp
                         122 <EXPANSION BEGIN>
                         122 jarl22 _NvmMGR_WriteBSWMember , lp 
00000034 80ff0000*       122 <EXPANSION END>
                         123 --line75
                         124 ..lin.C.3A.5C_ECU2.5CECU_Rivian_A1.5CTarget.5Crepo_projects.5CpRealEcu.5CcL_R2023.2E09.2E01.5Cmake.5Coutput.5Cobjects.5CRdcStandstill.3::
                         125 .LDWlin3:
00000038 207e2300        126 	movea	35,zero,r15
0000003c 437f0300        127 	st.b	r15,3[sp]
00000040 0332            128 	mov	3,r6
00000042 233e0300        129 	movea	3,sp,r7
                         130 	jarl	_NvmMGR_WriteBSWMember,lp
                         130 <EXPANSION BEGIN>
                         130 jarl22 _NvmMGR_WriteBSWMember , lp 
00000046 80ff0000*       130 <EXPANSION END>
                         131 --line78
                         132 ..lin.C.3A.5C_ECU2.5CECU_Rivian_A1.5CTarget.5Crepo_projects.5CpRealEcu.5CcL_R2023.2E09.2E01.5Cmake.5Coutput.5Cobjects.5CRdcStandstill.4::
                         133 .LDWlin4:
0000004a 43070300        134 	st.b	zero,3[sp]
0000004e 0432            135 	mov	4,r6
00000050 233e0300        136 	movea	3,sp,r7
                         137 	jarl	_NvmMGR_WriteBSWMember,lp
                         137 <EXPANSION BEGIN>
                         137 jarl22 _NvmMGR_WriteBSWMember , lp 
00000054 80ff0000*       137 <EXPANSION END>
                         138 --	    .ef
                         139 .LDW31:
                         140 --line80
                         141 ..lin.C.3A.5C_ECU2.5CECU_Rivian_A1.5CTarget.5Crepo_projects.5CpRealEcu.5CcL_R2023.2E09.2E01.5Cmake.5Coutput.5Cobjects.5CRdcStandstill.5::
                         142 .LDWlin5:
00000058 42063f00        143 	dispose	1,{r31},[lp]
                         144 	.global	___ghs_eofn_RdcSt_InitBSWNvM
                         145 ___ghs_eofn_RdcSt_InitBSWNvM:
                         146 	.type	_RdcSt_InitBSWNvM,@function
                         147 	.size	_RdcSt_InitBSWNvM,.-_RdcSt_InitBSWNvM
                         148 	.align	2
                         149 --_U8_Buffer	3[sp]	local
                         150 
                         151 	.section ".bss","awb"
                         152 .L65:
                         153 	.type	.L65,@object
                         154 	.size	.L65,0
                         155 	.data
                         156 	.text
                         157 	.align	2

                                                                      Page 4
                                                              C:\Users\nhuliyap\AppData\Local\Temp\gh_0000b0k1.s
                         158 	.align	2
                         159 	.align	2
                         160 ..gh.f.f.1.e.2:
                         161 	.type	..gh.f.f.1.e.2,@object
                         162 	.size	..gh.f.f.1.e.2,0
                         163 	.global	_RdcSt__UpdateConfig..C.3A.5C_ECU2.5CECU_Rivian_A1.5CTarget.5Crepo_projects.5CpRealEcu.5CcL_R2023.2E09.2E01.5Cmake.5Coutput.5Cobjects.5CRdcStandstill.
                         164 _RdcSt__UpdateConfig..C.3A.5C_ECU2.5CECU_Rivian_A1.5CTarget.5Crepo_projects.5CpRealEcu.5CcL_R2023.2E09.2E01.5Cmake.5Coutput.5Cobjects.5CRdcStandstill.:
                         165 _RdcSt__UpdateConfig:
0000005c 80076100        166 	prepare	{r29,r31},0
                         167 --	    .bf
                         168 .LDW41:
00000060 3d0600000000*   169 	mov	_RdcSt__UN_PressureOnKeyConfig,r29
00000066 1d38            170 	mov	r29,r7
00000068 0032            171 	mov	0,r6
                         172 	jarl	_NvmMGR_ReadBSWMember,lp
                         172 <EXPANSION BEGIN>
                         172 jarl22 _NvmMGR_ReadBSWMember , lp 
0000006a 80ff0000*       172 <EXPANSION END>
                         173 --line562
                         174 ..lin.C.3A.5C_ECU2.5CECU_Rivian_A1.5CTarget.5Crepo_projects.5CpRealEcu.5CcL_R2023.2E09.2E01.5Cmake.5Coutput.5Cobjects.5CRdcStandstill.6::
                         175 .LDWlin6:
0000006e 1d3e0100        176 	addi	1,r29,r7
00000072 0132            177 	mov	1,r6
                         178 	jarl	_NvmMGR_ReadBSWMember,lp
                         178 <EXPANSION BEGIN>
                         178 jarl22 _NvmMGR_ReadBSWMember , lp 
00000074 80ff0000*       178 <EXPANSION END>
                         179 --line563
                         180 ..lin.C.3A.5C_ECU2.5CECU_Rivian_A1.5CTarget.5Crepo_projects.5CpRealEcu.5CcL_R2023.2E09.2E01.5Cmake.5Coutput.5Cobjects.5CRdcStandstill.7::
                         181 .LDWlin7:
00000078 1d3e0200        182 	addi	2,r29,r7
0000007c 0232            183 	mov	2,r6
                         184 	jarl	_NvmMGR_ReadBSWMember,lp
                         184 <EXPANSION BEGIN>
                         184 jarl22 _NvmMGR_ReadBSWMember , lp 
0000007e 80ff0000*       184 <EXPANSION END>
                         185 --line564
                         186 ..lin.C.3A.5C_ECU2.5CECU_Rivian_A1.5CTarget.5Crepo_projects.5CpRealEcu.5CcL_R2023.2E09.2E01.5Cmake.5Coutput.5Cobjects.5CRdcStandstill.8::
                         187 .LDWlin8:
00000082 1d3e0300        188 	addi	3,r29,r7
00000086 0332            189 	mov	3,r6
                         190 	jarl	_NvmMGR_ReadBSWMember,lp
                         190 <EXPANSION BEGIN>
                         190 jarl22 _NvmMGR_ReadBSWMember , lp 
00000088 80ff0000*       190 <EXPANSION END>
                         191 --line565
                         192 ..lin.C.3A.5C_ECU2.5CECU_Rivian_A1.5CTarget.5Crepo_projects.5CpRealEcu.5CcL_R2023.2E09.2E01.5Cmake.5Coutput.5Cobjects.5CRdcStandstill.9::
                         193 .LDWlin9:
0000008c 1d3e0400        194 	addi	4,r29,r7
00000090 0432            195 	mov	4,r6
                         196 	jarl	_NvmMGR_ReadBSWMember,lp
                         196 <EXPANSION BEGIN>
                         196 jarl22 _NvmMGR_ReadBSWMember , lp 
00000092 80ff0000*       196 <EXPANSION END>
                         197 --	    .ef
                         198 .LDW51:
                         199 --line566
                         200 ..lin.C.3A.5C_ECU2.5CECU_Rivian_A1.5CTarget.5Crepo_projects.5CpRealEcu.5CcL_R2023.2E09.2E01.5Cmake.5Coutput.5Cobjects.5CRdcStandstill.10::
                         201 .LDWlin10:
00000096 40067f00        202 	dispose	0,{r29,r31},[lp]
                         203 ___ghs_eofn_RdcSt__UpdateConfig:

                                                                      Page 5
                                                              C:\Users\nhuliyap\AppData\Local\Temp\gh_0000b0k1.s
                         204 	.type	_RdcSt__UpdateConfig,@function
                         205 	.size	_RdcSt__UpdateConfig,.-_RdcSt__UpdateConfig
                         206 	.type	_RdcSt__UpdateConfig..C.3A.5C_ECU2.5CECU_Rivian_A1.5CTarget.5Crepo_projects.5CpRealEcu.5CcL_R2023.2E09.2E01.5Cmake.5Coutput.5Cobjects.5CRdcStandstill.,@function
                         207 	.size	_RdcSt__UpdateConfig..C.3A.5C_ECU2.5CECU_Rivian_A1.5CTarget.5Crepo_projects.5CpRealEcu.5CcL_R2023.2E09.2E01.5Cmake.5Coutput.5Cobjects.5CRdcStandstill.,.-_RdcSt__UpdateConfig..C.3A.5C_ECU2.5CECU_Rivian_A1.5CTarget.5Crepo_projects.5CpRealEcu.5CcL_R2023.2E09.2E01.5Cmake.5Coutput.5Cobjects.5CRdcStandstill.
                         208 	.align	2
                         209 
                         210 	.section ".bss","awb"
                         211 	.align	4
                         212 .L113:
                         213 	.type	.L113,@object
                         214 	.size	.L113,0
                         215 	.section ".rdata","awb"
                         216 	.align	8
                         217 	.global	_RdcSt__UN_PressureOnKeyConfig..C.3A.5C_ECU2.5CECU_Rivian_A1.5CTarget.5Crepo_projects.5CpRealEcu.5CcL_R2023.2E09.2E01.5Cmake.5Coutput.5Cobjects.5CRdcStandstill.
                         218 _RdcSt__UN_PressureOnKeyConfig..C.3A.5C_ECU2.5CECU_Rivian_A1.5CTarget.5Crepo_projects.5CpRealEcu.5CcL_R2023.2E09.2E01.5Cmake.5Coutput.5Cobjects.5CRdcStandstill.:
00000000 000000000000    219 _RdcSt__UN_PressureOnKeyConfig:	.space	8
00000006 0000 
                         220 	.type	_RdcSt__UN_PressureOnKeyConfig..C.3A.5C_ECU2.5CECU_Rivian_A1.5CTarget.5Crepo_projects.5CpRealEcu.5CcL_R2023.2E09.2E01.5Cmake.5Coutput.5Cobjects.5CRdcStandstill.,@object
                         221 	.size	_RdcSt__UN_PressureOnKeyConfig..C.3A.5C_ECU2.5CECU_Rivian_A1.5CTarget.5Crepo_projects.5CpRealEcu.5CcL_R2023.2E09.2E01.5Cmake.5Coutput.5Cobjects.5CRdcStandstill.,8
                         222 	.type	_RdcSt__UN_PressureOnKeyConfig,@object
                         223 	.size	_RdcSt__UN_PressureOnKeyConfig,8
                         224 	.global	_RdcSt__U64_CGMTimestampAtStart..C.3A.5C_ECU2.5CECU_Rivian_A1.5CTarget.5Crepo_projects.5CpRealEcu.5CcL_R2023.2E09.2E01.5Cmake.5Coutput.5Cobjects.5CRdcStandstill.
                         225 _RdcSt__U64_CGMTimestampAtStart..C.3A.5C_ECU2.5CECU_Rivian_A1.5CTarget.5Crepo_projects.5CpRealEcu.5CcL_R2023.2E09.2E01.5Cmake.5Coutput.5Cobjects.5CRdcStandstill.:
00000008 000000000000    226 _RdcSt__U64_CGMTimestampAtStart:	.space	8
0000000e 0000 
                         227 	.type	_RdcSt__U64_CGMTimestampAtStart..C.3A.5C_ECU2.5CECU_Rivian_A1.5CTarget.5Crepo_projects.5CpRealEcu.5CcL_R2023.2E09.2E01.5Cmake.5Coutput.5Cobjects.5CRdcStandstill.,@object
                         228 	.size	_RdcSt__U64_CGMTimestampAtStart..C.3A.5C_ECU2.5CECU_Rivian_A1.5CTarget.5Crepo_projects.5CpRealEcu.5CcL_R2023.2E09.2E01.5Cmake.5Coutput.5Cobjects.5CRdcStandstill.,8
                         229 	.type	_RdcSt__U64_CGMTimestampAtStart,@object
                         230 	.size	_RdcSt__U64_CGMTimestampAtStart,8
                         231 	.section ".bss","awb"
                         232 	.global	_RdcSt__U32_StartOfStandstillTimestamp..C.3A.5C_ECU2.5CECU_Rivian_A1.5CTarget.5Crepo_projects.5CpRealEcu.5CcL_R2023.2E09.2E01.5Cmake.5Coutput.5Cobjects.5CRdcStandstill.
                         233 _RdcSt__U32_StartOfStandstillTimestamp..C.3A.5C_ECU2.5CECU_Rivian_A1.5CTarget.5Crepo_projects.5CpRealEcu.5CcL_R2023.2E09.2E01.5Cmake.5Coutput.5Cobjects.5CRdcStandstill.:
00000000 00000000        234 _RdcSt__U32_StartOfStandstillTimestamp:	.space	4
                         235 	.type	_RdcSt__U32_StartOfStandstillTimestamp..C.3A.5C_ECU2.5CECU_Rivian_A1.5CTarget.5Crepo_projects.5CpRealEcu.5CcL_R2023.2E09.2E01.5Cmake.5Coutput.5Cobjects.5CRdcStandstill.,@object
                         236 	.size	_RdcSt__U32_StartOfStandstillTimestamp..C.3A.5C_ECU2.5CECU_Rivian_A1.5CTarget.5Crepo_projects.5CpRealEcu.5CcL_R2023.2E09.2E01.5Cmake.5Coutput.5Cobjects.5CRdcStandstill.,4
                         237 	.type	_RdcSt__U32_StartOfStandstillTimestamp,@object
                         238 	.size	_RdcSt__U32_StartOfStandstillTimestamp,4
                         239 	.section ".rdata","awb"
                         240 	.global	_RdcSt__U32_ElapsedTimeInMs..C.3A.5C_ECU2.5CECU_Rivian_A1.5CTarget.5Crepo_projects.5CpRealEcu.5CcL_R2023.2E09.2E01.5Cmake.5Coutput.5Cobjects.5CRdcStandstill.
                         241 _RdcSt__U32_ElapsedTimeInMs..C.3A.5C_ECU2.5CECU_Rivian_A1.5CTarget.5Crepo_projects.5CpRealEcu.5CcL_R2023.2E09.2E01.5Cmake.5Coutput.5Cobjects.5CRdcStandstill.:
00000010 00000000        242 _RdcSt__U32_ElapsedTimeInMs:	.space	4
                         243 	.type	_RdcSt__U32_ElapsedTimeInMs..C.3A.5C_ECU2.5CECU_Rivian_A1.5CTarget.5Crepo_projects.5CpRealEcu.5CcL_R2023.2E09.2E01.5Cmake.5Coutput.5Cobjects.5CRdcStandstill.,@object
                         244 	.size	_RdcSt__U32_ElapsedTimeInMs..C.3A.5C_ECU2.5CECU_Rivian_A1.5CTarget.5Crepo_projects.5CpRealEcu.5CcL_R2023.2E09.2E01.5Cmake.5Coutput.5Cobjects.5CRdcStandstill.,4
                         245 	.type	_RdcSt__U32_ElapsedTimeInMs,@object
                         246 	.size	_RdcSt__U32_ElapsedTimeInMs,4
                         247 	.global	_RdcSt__U32_WakeupInterval_xms..C.3A.5C_ECU2.5CECU_Rivian_A1.5CTarget.5Crepo_projects.5CpRealEcu.5CcL_R2023.2E09.2E01.5Cmake.5Coutput.5Cobjects.5CRdcStandstill.
                         248 _RdcSt__U32_WakeupInterval_xms..C.3A.5C_ECU2.5CECU_Rivian_A1.5CTarget.5Crepo_projects.5CpRealEcu.5CcL_R2023.2E09.2E01.5Cmake.5Coutput.5Cobjects.5CRdcStandstill.:
00000014 00000000        249 _RdcSt__U32_WakeupInterval_xms:	.space	4
                         250 	.type	_RdcSt__U32_WakeupInterval_xms..C.3A.5C_ECU2.5CECU_Rivian_A1.5CTarget.5Crepo_projects.5CpRealEcu.5CcL_R2023.2E09.2E01.5Cmake.5Coutput.5Cobjects.5CRdcStandstill.,@object
                         251 	.size	_RdcSt__U32_WakeupInterval_xms..C.3A.5C_ECU2.5CECU_Rivian_A1.5CTarget.5Crepo_projects.5CpRealEcu.5CcL_R2023.2E09.2E01.5Cmake.5Coutput.5Cobjects.5CRdcStandstill.,4
                         252 	.type	_RdcSt__U32_WakeupInterval_xms,@object
                         253 	.size	_RdcSt__U32_WakeupInterval_xms,4
                         254 	.global	_RdcSt__U32_WakeTime_xms..C.3A.5C_ECU2.5CECU_Rivian_A1.5CTarget.5Crepo_projects.5CpRealEcu.5CcL_R2023.2E09.2E01.5Cmake.5Coutput.5Cobjects.5CRdcStandstill.
                         255 _RdcSt__U32_WakeTime_xms..C.3A.5C_ECU2.5CECU_Rivian_A1.5CTarget.5Crepo_projects.5CpRealEcu.5CcL_R2023.2E09.2E01.5Cmake.5Coutput.5Cobjects.5CRdcStandstill.:
00000018 00000000        256 _RdcSt__U32_WakeTime_xms:	.space	4
                         257 	.type	_RdcSt__U32_WakeTime_xms..C.3A.5C_ECU2.5CECU_Rivian_A1.5CTarget.5Crepo_projects.5CpRealEcu.5CcL_R2023.2E09.2E01.5Cmake.5Coutput.5Cobjects.5CRdcStandstill.,@object
                         258 	.size	_RdcSt__U32_WakeTime_xms..C.3A.5C_ECU2.5CECU_Rivian_A1.5CTarget.5Crepo_projects.5CpRealEcu.5CcL_R2023.2E09.2E01.5Cmake.5Coutput.5Cobjects.5CRdcStandstill.,4
                         259 	.type	_RdcSt__U32_WakeTime_xms,@object
                         260 	.size	_RdcSt__U32_WakeTime_xms,4
                         261 	.global	_RdcSt__U32_WakeOffset_xms..C.3A.5C_ECU2.5CECU_Rivian_A1.5CTarget.5Crepo_projects.5CpRealEcu.5CcL_R2023.2E09.2E01.5Cmake.5Coutput.5Cobjects.5CRdcStandstill.
                         262 _RdcSt__U32_WakeOffset_xms..C.3A.5C_ECU2.5CECU_Rivian_A1.5CTarget.5Crepo_projects.5CpRealEcu.5CcL_R2023.2E09.2E01.5Cmake.5Coutput.5Cobjects.5CRdcStandstill.:

                                                                      Page 6
                                                              C:\Users\nhuliyap\AppData\Local\Temp\gh_0000b0k1.s
0000001c 00000000        263 _RdcSt__U32_WakeOffset_xms:	.space	4
                         264 	.type	_RdcSt__U32_WakeOffset_xms..C.3A.5C_ECU2.5CECU_Rivian_A1.5CTarget.5Crepo_projects.5CpRealEcu.5CcL_R2023.2E09.2E01.5Cmake.5Coutput.5Cobjects.5CRdcStandstill.,@object
                         265 	.size	_RdcSt__U32_WakeOffset_xms..C.3A.5C_ECU2.5CECU_Rivian_A1.5CTarget.5Crepo_projects.5CpRealEcu.5CcL_R2023.2E09.2E01.5Cmake.5Coutput.5Cobjects.5CRdcStandstill.,4
                         266 	.type	_RdcSt__U32_WakeOffset_xms,@object
                         267 	.size	_RdcSt__U32_WakeOffset_xms,4
                         268 	.global	_RdcSt__BO_IsStandstillMonitoringActive..C.3A.5C_ECU2.5CECU_Rivian_A1.5CTarget.5Crepo_projects.5CpRealEcu.5CcL_R2023.2E09.2E01.5Cmake.5Coutput.5Cobjects.5CRdcStandstill.
                         269 _RdcSt__BO_IsStandstillMonitoringActive..C.3A.5C_ECU2.5CECU_Rivian_A1.5CTarget.5Crepo_projects.5CpRealEcu.5CcL_R2023.2E09.2E01.5Cmake.5Coutput.5Cobjects.5CRdcStandstill.:
00000020 00              270 _RdcSt__BO_IsStandstillMonitoringActive:	.space	1
                         271 	.type	_RdcSt__BO_IsStandstillMonitoringActive..C.3A.5C_ECU2.5CECU_Rivian_A1.5CTarget.5Crepo_projects.5CpRealEcu.5CcL_R2023.2E09.2E01.5Cmake.5Coutput.5Cobjects.5CRdcStandstill.,@object
                         272 	.size	_RdcSt__BO_IsStandstillMonitoringActive..C.3A.5C_ECU2.5CECU_Rivian_A1.5CTarget.5Crepo_projects.5CpRealEcu.5CcL_R2023.2E09.2E01.5Cmake.5Coutput.5Cobjects.5CRdcStandstill.,1
                         273 	.type	_RdcSt__BO_IsStandstillMonitoringActive,@object
                         274 	.size	_RdcSt__BO_IsStandstillMonitoringActive,1
                         275 	.global	_RdcSt__BO_HasSyncPeriodExpired..C.3A.5C_ECU2.5CECU_Rivian_A1.5CTarget.5Crepo_projects.5CpRealEcu.5CcL_R2023.2E09.2E01.5Cmake.5Coutput.5Cobjects.5CRdcStandstill.
                         276 _RdcSt__BO_HasSyncPeriodExpired..C.3A.5C_ECU2.5CECU_Rivian_A1.5CTarget.5Crepo_projects.5CpRealEcu.5CcL_R2023.2E09.2E01.5Cmake.5Coutput.5Cobjects.5CRdcStandstill.:
00000021 00              277 _RdcSt__BO_HasSyncPeriodExpired:	.space	1
                         278 	.type	_RdcSt__BO_HasSyncPeriodExpired..C.3A.5C_ECU2.5CECU_Rivian_A1.5CTarget.5Crepo_projects.5CpRealEcu.5CcL_R2023.2E09.2E01.5Cmake.5Coutput.5Cobjects.5CRdcStandstill.,@object
                         279 	.size	_RdcSt__BO_HasSyncPeriodExpired..C.3A.5C_ECU2.5CECU_Rivian_A1.5CTarget.5Crepo_projects.5CpRealEcu.5CcL_R2023.2E09.2E01.5Cmake.5Coutput.5Cobjects.5CRdcStandstill.,1
                         280 	.type	_RdcSt__BO_HasSyncPeriodExpired,@object
                         281 	.size	_RdcSt__BO_HasSyncPeriodExpired,1
                         282 	.section ".bss","awb"
                         283 	.global	_RdcSt__U8_MonitoringStatus..C.3A.5C_ECU2.5CECU_Rivian_A1.5CTarget.5Crepo_projects.5CpRealEcu.5CcL_R2023.2E09.2E01.5Cmake.5Coutput.5Cobjects.5CRdcStandstill.
                         284 _RdcSt__U8_MonitoringStatus..C.3A.5C_ECU2.5CECU_Rivian_A1.5CTarget.5Crepo_projects.5CpRealEcu.5CcL_R2023.2E09.2E01.5Cmake.5Coutput.5Cobjects.5CRdcStandstill.:
00000004 00              285 _RdcSt__U8_MonitoringStatus:	.space	1
                         286 	.type	_RdcSt__U8_MonitoringStatus..C.3A.5C_ECU2.5CECU_Rivian_A1.5CTarget.5Crepo_projects.5CpRealEcu.5CcL_R2023.2E09.2E01.5Cmake.5Coutput.5Cobjects.5CRdcStandstill.,@object
                         287 	.size	_RdcSt__U8_MonitoringStatus..C.3A.5C_ECU2.5CECU_Rivian_A1.5CTarget.5Crepo_projects.5CpRealEcu.5CcL_R2023.2E09.2E01.5Cmake.5Coutput.5Cobjects.5CRdcStandstill.,1
                         288 	.type	_RdcSt__U8_MonitoringStatus,@object
                         289 	.size	_RdcSt__U8_MonitoringStatus,1
                         290 	.section ".rdata","awb"
                         291 	.global	_RdcSt__U8_ExtendedWakeup..C.3A.5C_ECU2.5CECU_Rivian_A1.5CTarget.5Crepo_projects.5CpRealEcu.5CcL_R2023.2E09.2E01.5Cmake.5Coutput.5Cobjects.5CRdcStandstill.
                         292 _RdcSt__U8_ExtendedWakeup..C.3A.5C_ECU2.5CECU_Rivian_A1.5CTarget.5Crepo_projects.5CpRealEcu.5CcL_R2023.2E09.2E01.5Cmake.5Coutput.5Cobjects.5CRdcStandstill.:
00000022 00              293 _RdcSt__U8_ExtendedWakeup:	.space	1
                         294 	.type	_RdcSt__U8_ExtendedWakeup..C.3A.5C_ECU2.5CECU_Rivian_A1.5CTarget.5Crepo_projects.5CpRealEcu.5CcL_R2023.2E09.2E01.5Cmake.5Coutput.5Cobjects.5CRdcStandstill.,@object
                         295 	.size	_RdcSt__U8_ExtendedWakeup..C.3A.5C_ECU2.5CECU_Rivian_A1.5CTarget.5Crepo_projects.5CpRealEcu.5CcL_R2023.2E09.2E01.5Cmake.5Coutput.5Cobjects.5CRdcStandstill.,1
                         296 	.type	_RdcSt__U8_ExtendedWakeup,@object
                         297 	.size	_RdcSt__U8_ExtendedWakeup,1
                         298 	.section ".bss","awb"
                         299 	.global	_RdcSt__BO_SleepRequested..C.3A.5C_ECU2.5CECU_Rivian_A1.5CTarget.5Crepo_projects.5CpRealEcu.5CcL_R2023.2E09.2E01.5Cmake.5Coutput.5Cobjects.5CRdcStandstill.
                         300 _RdcSt__BO_SleepRequested..C.3A.5C_ECU2.5CECU_Rivian_A1.5CTarget.5Crepo_projects.5CpRealEcu.5CcL_R2023.2E09.2E01.5Cmake.5Coutput.5Cobjects.5CRdcStandstill.:
00000005 00              301 _RdcSt__BO_SleepRequested:	.space	1
                         302 	.type	_RdcSt__BO_SleepRequested..C.3A.5C_ECU2.5CECU_Rivian_A1.5CTarget.5Crepo_projects.5CpRealEcu.5CcL_R2023.2E09.2E01.5Cmake.5Coutput.5Cobjects.5CRdcStandstill.,@object
                         303 	.size	_RdcSt__BO_SleepRequested..C.3A.5C_ECU2.5CECU_Rivian_A1.5CTarget.5Crepo_projects.5CpRealEcu.5CcL_R2023.2E09.2E01.5Cmake.5Coutput.5Cobjects.5CRdcStandstill.,1
                         304 	.type	_RdcSt__BO_SleepRequested,@object
                         305 	.size	_RdcSt__BO_SleepRequested,1
                         306 	.section ".rdata","awb"
                         307 	.global	_RdcSt__U8_MainTimer..C.3A.5C_ECU2.5CECU_Rivian_A1.5CTarget.5Crepo_projects.5CpRealEcu.5CcL_R2023.2E09.2E01.5Cmake.5Coutput.5Cobjects.5CRdcStandstill.
                         308 _RdcSt__U8_MainTimer..C.3A.5C_ECU2.5CECU_Rivian_A1.5CTarget.5Crepo_projects.5CpRealEcu.5CcL_R2023.2E09.2E01.5Cmake.5Coutput.5Cobjects.5CRdcStandstill.:
00000023 00              309 _RdcSt__U8_MainTimer:	.space	1
                         310 	.type	_RdcSt__U8_MainTimer..C.3A.5C_ECU2.5CECU_Rivian_A1.5CTarget.5Crepo_projects.5CpRealEcu.5CcL_R2023.2E09.2E01.5Cmake.5Coutput.5Cobjects.5CRdcStandstill.,@object
                         311 	.size	_RdcSt__U8_MainTimer..C.3A.5C_ECU2.5CECU_Rivian_A1.5CTarget.5Crepo_projects.5CpRealEcu.5CcL_R2023.2E09.2E01.5Cmake.5Coutput.5Cobjects.5CRdcStandstill.,1
                         312 	.type	_RdcSt__U8_MainTimer,@object
                         313 	.size	_RdcSt__U8_MainTimer,1
                         314 	.section ".bss","awb"
00000006 0000            315 	.space	2
                         316 	.global	_RdcSt__AU32_StartOfWakeupPeriod..C.3A.5C_ECU2.5CECU_Rivian_A1.5CTarget.5Crepo_projects.5CpRealEcu.5CcL_R2023.2E09.2E01.5Cmake.5Coutput.5Cobjects.5CRdcStandstill.
                         317 _RdcSt__AU32_StartOfWakeupPeriod..C.3A.5C_ECU2.5CECU_Rivian_A1.5CTarget.5Crepo_projects.5CpRealEcu.5CcL_R2023.2E09.2E01.5Cmake.5Coutput.5Cobjects.5CRdcStandstill.:
00000008 000000000000    318 _RdcSt__AU32_StartOfWakeupPeriod:	.space	16
0000000e 000000000000 
00000014 00000000 
                         319 	.type	_RdcSt__AU32_StartOfWakeupPeriod..C.3A.5C_ECU2.5CECU_Rivian_A1.5CTarget.5Crepo_projects.5CpRealEcu.5CcL_R2023.2E09.2E01.5Cmake.5Coutput.5Cobjects.5CRdcStandstill.,@object
                         320 	.size	_RdcSt__AU32_StartOfWakeupPeriod..C.3A.5C_ECU2.5CECU_Rivian_A1.5CTarget.5Crepo_projects.5CpRealEcu.5CcL_R2023.2E09.2E01.5Cmake.5Coutput.5Cobjects.5CRdcStandstill.,16
                         321 	.type	_RdcSt__AU32_StartOfWakeupPeriod,@object

                                                                      Page 7
                                                              C:\Users\nhuliyap\AppData\Local\Temp\gh_0000b0k1.s
                         322 	.size	_RdcSt__AU32_StartOfWakeupPeriod,16
                         323 	.section ".rdata","awb"
                         324 	.global	_RdcSt__AS_WSData..C.3A.5C_ECU2.5CECU_Rivian_A1.5CTarget.5Crepo_projects.5CpRealEcu.5CcL_R2023.2E09.2E01.5Cmake.5Coutput.5Cobjects.5CRdcStandstill.
                         325 _RdcSt__AS_WSData..C.3A.5C_ECU2.5CECU_Rivian_A1.5CTarget.5Crepo_projects.5CpRealEcu.5CcL_R2023.2E09.2E01.5Cmake.5Coutput.5Cobjects.5CRdcStandstill.:
00000024 000000000000    326 _RdcSt__AS_WSData:	.space	32
0000002a 000000000000 
00000030 000000000000 
00000036 000000000000 
0000003c 000000000000 
00000042 0000 
                         327 	.type	_RdcSt__AS_WSData..C.3A.5C_ECU2.5CECU_Rivian_A1.5CTarget.5Crepo_projects.5CpRealEcu.5CcL_R2023.2E09.2E01.5Cmake.5Coutput.5Cobjects.5CRdcStandstill.,@object
                         328 	.size	_RdcSt__AS_WSData..C.3A.5C_ECU2.5CECU_Rivian_A1.5CTarget.5Crepo_projects.5CpRealEcu.5CcL_R2023.2E09.2E01.5Cmake.5Coutput.5Cobjects.5CRdcStandstill.,32
                         329 	.type	_RdcSt__AS_WSData,@object
                         330 	.size	_RdcSt__AS_WSData,32
                         331 	.global	_AU32_MonitoringTimeForEachWs_xms..C.3A.5C_ECU2.5CECU_Rivian_A1.5CTarget.5Crepo_projects.5CpRealEcu.5CcL_R2023.2E09.2E01.5Cmake.5Coutput.5Cobjects.5CRdcStandstill.
                         332 _AU32_MonitoringTimeForEachWs_xms..C.3A.5C_ECU2.5CECU_Rivian_A1.5CTarget.5Crepo_projects.5CpRealEcu.5CcL_R2023.2E09.2E01.5Cmake.5Coutput.5Cobjects.5CRdcStandstill.:
00000044 000000000000    333 _AU32_MonitoringTimeForEachWs_xms:	.space	16
0000004a 000000000000 
00000050 00000000 
                         334 	.type	_AU32_MonitoringTimeForEachWs_xms..C.3A.5C_ECU2.5CECU_Rivian_A1.5CTarget.5Crepo_projects.5CpRealEcu.5CcL_R2023.2E09.2E01.5Cmake.5Coutput.5Cobjects.5CRdcStandstill.,@object
                         335 	.size	_AU32_MonitoringTimeForEachWs_xms..C.3A.5C_ECU2.5CECU_Rivian_A1.5CTarget.5Crepo_projects.5CpRealEcu.5CcL_R2023.2E09.2E01.5Cmake.5Coutput.5Cobjects.5CRdcStandstill.,16
                         336 	.type	_AU32_MonitoringTimeForEachWs_xms,@object
                         337 	.size	_AU32_MonitoringTimeForEachWs_xms,16
                         338 	.global	_AU32_LastReceptionTimestampForEachWs_xms..C.3A.5C_ECU2.5CECU_Rivian_A1.5CTarget.5Crepo_projects.5CpRealEcu.5CcL_R2023.2E09.2E01.5Cmake.5Coutput.5Cobjects.5CRdcStandstill.
                         339 _AU32_LastReceptionTimestampForEachWs_xms..C.3A.5C_ECU2.5CECU_Rivian_A1.5CTarget.5Crepo_projects.5CpRealEcu.5CcL_R2023.2E09.2E01.5Cmake.5Coutput.5Cobjects.5CRdcStandstill.:
00000054 000000000000    340 _AU32_LastReceptionTimestampForEachWs_xms:	.space	16
0000005a 000000000000 
00000060 00000000 
                         341 	.type	_AU32_LastReceptionTimestampForEachWs_xms..C.3A.5C_ECU2.5CECU_Rivian_A1.5CTarget.5Crepo_projects.5CpRealEcu.5CcL_R2023.2E09.2E01.5Cmake.5Coutput.5Cobjects.5CRdcStandstill.,@object
                         342 	.size	_AU32_LastReceptionTimestampForEachWs_xms..C.3A.5C_ECU2.5CECU_Rivian_A1.5CTarget.5Crepo_projects.5CpRealEcu.5CcL_R2023.2E09.2E01.5Cmake.5Coutput.5Cobjects.5CRdcStandstill.,16
                         343 	.type	_AU32_LastReceptionTimestampForEachWs_xms,@object
                         344 	.size	_AU32_LastReceptionTimestampForEachWs_xms,16
                         345 	.data
                         346 	.text
                         347 	.align	2
                         348 	.align	2
                         349 ..gh.f.f.1.e.3:
                         350 	.type	..gh.f.f.1.e.3,@object
                         351 	.size	..gh.f.f.1.e.3,0
                         352 	.global	_RdcSt__ReadAndSortIDs..C.3A.5C_ECU2.5CECU_Rivian_A1.5CTarget.5Crepo_projects.5CpRealEcu.5CcL_R2023.2E09.2E01.5Cmake.5Coutput.5Cobjects.5CRdcStandstill.
                         353 _RdcSt__ReadAndSortIDs..C.3A.5C_ECU2.5CECU_Rivian_A1.5CTarget.5Crepo_projects.5CpRealEcu.5CcL_R2023.2E09.2E01.5Cmake.5Coutput.5Cobjects.5CRdcStandstill.:
                         354 _RdcSt__ReadAndSortIDs:
0000009a 8a072100        355 	prepare	{r31},5
                         356 --	    .bf
                         357 .LDW61:
0000009e 20361a00        358 	movea	26,zero,r6
000000a2 043a            359 	mov	4,r7
000000a4 23460400        360 	movea	4,sp,r8
                         361 	jarl	_ClientIf_NvM_ReadBlock,lp
                         361 <EXPANSION BEGIN>
                         361 jarl22 _ClientIf_NvM_ReadBlock , lp 
000000a8 80ff0000*       361 <EXPANSION END>
                         362 --line725
                         363 ..lin.C.3A.5C_ECU2.5CECU_Rivian_A1.5CTarget.5Crepo_projects.5CpRealEcu.5CcL_R2023.2E09.2E01.5Cmake.5Coutput.5Cobjects.5CRdcStandstill.11::
                         364 .LDWlin11:
000000ac 0340            365 	mov	sp,r8
000000ae 20361e00        366 	movea	30,zero,r6
000000b2 013a            367 	mov	1,r7
                         368 	jarl	_ClientIf_NvM_ReadBlock,lp
                         368 <EXPANSION BEGIN>
                         368 jarl22 _ClientIf_NvM_ReadBlock , lp 

                                                                      Page 8
                                                              C:\Users\nhuliyap\AppData\Local\Temp\gh_0000b0k1.s
000000b4 80ff0000*       368 <EXPANSION END>
                         369 --line727
                         370 ..lin.C.3A.5C_ECU2.5CECU_Rivian_A1.5CTarget.5Crepo_projects.5CpRealEcu.5CcL_R2023.2E09.2E01.5Cmake.5Coutput.5Cobjects.5CRdcStandstill.12::
                         371 .LDWlin12:
000000b8 0092            372 	mov	0,r18
                         373 .L135:
000000ba 12f0            374 	mov	r18,ep
000000bc c3f1            375 	add	sp,ep
000000be 60f0            376 	sld.bu	0[ep],ep
000000c0 64f2            377 	cmp	4,ep
000000c2 c90d*           378 	bnl	.L136
                         379 --line731
                         380 ..lin.C.3A.5C_ECU2.5CECU_Rivian_A1.5CTarget.5Crepo_projects.5CpRealEcu.5CcL_R2023.2E09.2E01.5Cmake.5Coutput.5Cobjects.5CRdcStandstill.13::
                         381 .LDWlin13:
000000c4 1288            382 	mov	r18,r17
000000c6 c28a            383 	shl	2,r17
000000c8 c389            384 	add	sp,r17
000000ca 316f0500        385 	ld.w	4[r17],r13
000000ce c3f2            386 	shl	3,ep
000000d0 2f0600000000*   387 	mov	_RdcSt__AS_WSData,r15
000000d6 cff1            388 	add	r15,ep
000000d8 016d            389 	sst.w	r13,0[ep]
                         390 .L136:
                         391 --line727
                         392 ..lin.C.3A.5C_ECU2.5CECU_Rivian_A1.5CTarget.5Crepo_projects.5CpRealEcu.5CcL_R2023.2E09.2E01.5Cmake.5Coutput.5Cobjects.5CRdcStandstill.14::
                         393 .LDWlin14:
000000da 4192            394 	add	1,r18
000000dc 6492            395 	cmp	4,r18
000000de e1ed*           396 	bl	.L135
                         397 --	    .ef
                         398 .LDW71:
                         399 --line734
                         400 ..lin.C.3A.5C_ECU2.5CECU_Rivian_A1.5CTarget.5Crepo_projects.5CpRealEcu.5CcL_R2023.2E09.2E01.5Cmake.5Coutput.5Cobjects.5CRdcStandstill.15::
                         401 .LDWlin15:
000000e0 4a063f00        402 	dispose	5,{r31},[lp]
                         403 ___ghs_eofn_RdcSt__ReadAndSortIDs:
                         404 	.type	_RdcSt__ReadAndSortIDs,@function
                         405 	.size	_RdcSt__ReadAndSortIDs,.-_RdcSt__ReadAndSortIDs
                         406 	.type	_RdcSt__ReadAndSortIDs..C.3A.5C_ECU2.5CECU_Rivian_A1.5CTarget.5Crepo_projects.5CpRealEcu.5CcL_R2023.2E09.2E01.5Cmake.5Coutput.5Cobjects.5CRdcStandstill.,@function
                         407 	.size	_RdcSt__ReadAndSortIDs..C.3A.5C_ECU2.5CECU_Rivian_A1.5CTarget.5Crepo_projects.5CpRealEcu.5CcL_R2023.2E09.2E01.5Cmake.5Coutput.5Cobjects.5CRdcStandstill.,.-_RdcSt__ReadAndSortIDs..C.3A.5C_ECU2.5CECU_Rivian_A1.5CTarget.5Crepo_projects.5CpRealEcu.5CcL_R2023.2E09.2E01.5Cmake.5Coutput.5Cobjects.5CRdcStandstill.
                         408 	.align	2
                         409 --_U8_Counter	r18	local
                         410 --_U32_IDs	4[sp]	local
                         411 --_U8_Positions	0[sp]	local
                         412 
                         413 	.section ".bss","awb"
                         414 .L176:
                         415 	.type	.L176,@object
                         416 	.size	.L176,0
                         417 	.data
                         418 	.text
                         419 	.align	2
                         420 	.align	2
                         421 ..gh.f.f.1.e.4:
                         422 	.type	..gh.f.f.1.e.4,@object
                         423 	.size	..gh.f.f.1.e.4,0
                         424 	.global	_RdcSt_StartStandstillMonitoring
                         425 _RdcSt_StartStandstillMonitoring:
000000e4 8007e100        426 	prepare	{r28,r29,r31},0
                         427 --	    .bf
                         428 .LDW81:

                                                                      Page 9
                                                              C:\Users\nhuliyap\AppData\Local\Temp\gh_0000b0k1.s
                         429 	jarl	_RdcSt__UpdateConfig,lp
                         429 <EXPANSION BEGIN>
                         429 jarl22 _RdcSt__UpdateConfig , lp 
000000e8 bfff74ff*       429 <EXPANSION END>
                         430 --line85
                         431 ..lin.C.3A.5C_ECU2.5CECU_Rivian_A1.5CTarget.5Crepo_projects.5CpRealEcu.5CcL_R2023.2E09.2E01.5Cmake.5Coutput.5Cobjects.5CRdcStandstill.16::
                         432 .LDWlin16:
000000ec 3c0600000000*   433 	mov	_RdcSt__UN_PressureOnKeyConfig,r28
000000f2 9c7f0100        434 	ld.bu	0[r28],r15
000000f6 e079            435 	cmp	zero,r15
000000f8 b25d*           436 	be	.L229
000000fa 3d0600000000*   437 	mov	_RdcSt__U32_StartOfStandstillTimestamp,r29
                         438 --	    .bs
                         439 .LDW91:
                         440 --line89
                         441 ..lin.C.3A.5C_ECU2.5CECU_Rivian_A1.5CTarget.5Crepo_projects.5CpRealEcu.5CcL_R2023.2E09.2E01.5Cmake.5Coutput.5Cobjects.5CRdcStandstill.17::
                         442 .LDWlin17:
00000100 1d30            443 	mov	r29,r6
                         444 	jarl	_ClientIf_GetECUTimeStampValue,lp
                         444 <EXPANSION BEGIN>
                         444 jarl22 _ClientIf_GetECUTimeStampValue , lp 
00000102 80ff0000*       444 <EXPANSION END>
                         445 --line90
                         446 ..lin.C.3A.5C_ECU2.5CECU_Rivian_A1.5CTarget.5Crepo_projects.5CpRealEcu.5CcL_R2023.2E09.2E01.5Cmake.5Coutput.5Cobjects.5CRdcStandstill.18::
                         447 .LDWlin18:
                         448 	jarl	_Tau_Init,lp
                         448 <EXPANSION BEGIN>
                         448 jarl22 _Tau_Init , lp 
00000106 80ff0000*       448 <EXPANSION END>
                         449 --line92
                         450 ..lin.C.3A.5C_ECU2.5CECU_Rivian_A1.5CTarget.5Crepo_projects.5CpRealEcu.5CcL_R2023.2E09.2E01.5Cmake.5Coutput.5Cobjects.5CRdcStandstill.19::
                         451 .LDWlin19:
0000010a 260600000000*   452 	mov	_RdcSt__U64_CGMTimestampAtStart,r6
                         453 	jarl	_Rdc_StoreLatestCGMTimestamp,lp
                         453 <EXPANSION BEGIN>
                         453 jarl22 _Rdc_StoreLatestCGMTimestamp , lp 
00000110 80ff0000*       453 <EXPANSION END>
                         454 --line94
                         455 ..lin.C.3A.5C_ECU2.5CECU_Rivian_A1.5CTarget.5Crepo_projects.5CpRealEcu.5CcL_R2023.2E09.2E01.5Cmake.5Coutput.5Cobjects.5CRdcStandstill.20::
                         456 .LDWlin20:
                         457 	jarl	_RdcSt__ReadAndSortIDs,lp
                         457 <EXPANSION BEGIN>
                         457 jarl22 _RdcSt__ReadAndSortIDs , lp 
00000114 bfff86ff*       457 <EXPANSION END>
                         458 --line96
                         459 ..lin.C.3A.5C_ECU2.5CECU_Rivian_A1.5CTarget.5Crepo_projects.5CpRealEcu.5CcL_R2023.2E09.2E01.5Cmake.5Coutput.5Cobjects.5CRdcStandstill.21::
                         460 .LDWlin21:
00000118 008a            461 	mov	0,r17
                         462 .L233:
0000011a 11f0            463 	mov	r17,ep
0000011c c3f2            464 	shl	3,ep
0000011e 2e0600000000*   465 	mov	_RdcSt__AS_WSData,r14
00000124 cef1            466 	add	r14,ep
00000126 8403            467 	sst.b	zero,4[ep]
                         468 --line99
                         469 ..lin.C.3A.5C_ECU2.5CECU_Rivian_A1.5CTarget.5Crepo_projects.5CpRealEcu.5CcL_R2023.2E09.2E01.5Cmake.5Coutput.5Cobjects.5CRdcStandstill.22::
                         470 .LDWlin22:
00000128 8503            471 	sst.b	zero,5[ep]
0000012a 8304            472 	sst.h	zero,6[ep]
0000012c 1190            473 	mov	r17,r18
0000012e c292            474 	shl	2,r18

                                                                      Page 10
                                                              C:\Users\nhuliyap\AppData\Local\Temp\gh_0000b0k1.s
00000130 3e0600000000*   475 	mov	_AU32_MonitoringTimeForEachWs_xms,ep
00000136 d2f1            476 	add	r18,ep
                         477 --line103
                         478 ..lin.C.3A.5C_ECU2.5CECU_Rivian_A1.5CTarget.5Crepo_projects.5CpRealEcu.5CcL_R2023.2E09.2E01.5Cmake.5Coutput.5Cobjects.5CRdcStandstill.23::
                         479 .LDWlin23:
00000138 406e0000*       480 	movhi	hi(_AU32_LastReceptionTimestampForEachWs_xms),zero,r13
0000013c 0105            481 	sst.w	zero,0[ep]
0000013e cd91            482 	add	r13,r18
                         483 --line96
                         484 ..lin.C.3A.5C_ECU2.5CECU_Rivian_A1.5CTarget.5Crepo_projects.5CpRealEcu.5CcL_R2023.2E09.2E01.5Cmake.5Coutput.5Cobjects.5CRdcStandstill.24::
                         485 .LDWlin24:
00000140 418a            486 	add	1,r17
00000142 72070100*       487 	st.w	zero,lo(_AU32_LastReceptionTimestampForEachWs_xms)[r18]
00000146 648a            488 	cmp	4,r17
00000148 91ed*           489 	bl	.L233
                         490 --line113
                         491 ..lin.C.3A.5C_ECU2.5CECU_Rivian_A1.5CTarget.5Crepo_projects.5CpRealEcu.5CcL_R2023.2E09.2E01.5Cmake.5Coutput.5Cobjects.5CRdcStandstill.25::
                         492 .LDWlin25:
0000014a 1cf0            493 	mov	r28,ep
0000014c 6150            494 	sld.bu	1[ep],r10
0000014e 6240            495 	sld.bu	2[ep],r8
00000150 6330            496 	sld.bu	3[ep],r6
00000152 808660ea        497 	ori	60000,zero,r16
00000156 ea872202        498 	mulu	r10,r16,zero
0000015a e84e6400        499 	mulhi	100,r8,r9
0000015e e63e6400        500 	mulhi	100,r6,r7
00000162 0162            501 	mov	1,r12
00000164 405e0000*       502 	movhi	hi(_RdcSt__BO_IsStandstillMonitoringActive),zero,r11
00000168 4b670000*       503 	st.b	r12,lo(_RdcSt__BO_IsStandstillMonitoringActive)[r11]
                         504 --line107
                         505 ..lin.C.3A.5C_ECU2.5CECU_Rivian_A1.5CTarget.5Crepo_projects.5CpRealEcu.5CcL_R2023.2E09.2E01.5Cmake.5Coutput.5Cobjects.5CRdcStandstill.26::
                         506 .LDWlin26:
0000016c 40660000*       507 	movhi	hi(_RdcSt__BO_HasSyncPeriodExpired),zero,r12
                         508 --line109
                         509 ..lin.C.3A.5C_ECU2.5CECU_Rivian_A1.5CTarget.5Crepo_projects.5CpRealEcu.5CcL_R2023.2E09.2E01.5Cmake.5Coutput.5Cobjects.5CRdcStandstill.27::
                         510 .LDWlin27:
00000170 406e0000*       511 	movhi	hi(_RdcSt__U8_ExtendedWakeup),zero,r13
                         512 --line110
                         513 ..lin.C.3A.5C_ECU2.5CECU_Rivian_A1.5CTarget.5Crepo_projects.5CpRealEcu.5CcL_R2023.2E09.2E01.5Cmake.5Coutput.5Cobjects.5CRdcStandstill.28::
                         514 .LDWlin28:
00000174 045a            515 	mov	4,r11
00000176 40760000*       516 	movhi	hi(_RdcSt__U8_MainTimer),zero,r14
                         517 --line111
                         518 ..lin.C.3A.5C_ECU2.5CECU_Rivian_A1.5CTarget.5Crepo_projects.5CpRealEcu.5CcL_R2023.2E09.2E01.5Cmake.5Coutput.5Cobjects.5CRdcStandstill.29::
                         519 .LDWlin29:
0000017a 407e0000*       520 	movhi	hi(_RdcSt__U32_ElapsedTimeInMs),zero,r15
0000017e 408e0000*       521 	movhi	hi(_RdcSt__U32_WakeupInterval_xms),zero,r17
00000182 40960000*       522 	movhi	hi(_RdcSt__U32_WakeTime_xms),zero,r18
00000186 409e0000*       523 	movhi	hi(_RdcSt__U32_WakeOffset_xms),zero,r19
0000018a 4c070000*       524 	st.b	zero,lo(_RdcSt__BO_HasSyncPeriodExpired)[r12]
                         525 --line108
                         526 ..lin.C.3A.5C_ECU2.5CECU_Rivian_A1.5CTarget.5Crepo_projects.5CpRealEcu.5CcL_R2023.2E09.2E01.5Cmake.5Coutput.5Cobjects.5CRdcStandstill.30::
                         527 .LDWlin30:
0000018e 5d070400        528 	st.b	zero,4[r29]
00000192 4d070000*       529 	st.b	zero,lo(_RdcSt__U8_ExtendedWakeup)[r13]
00000196 4e5f0000*       530 	st.b	r11,lo(_RdcSt__U8_MainTimer)[r14]
0000019a 6f070100*       531 	st.w	zero,lo(_RdcSt__U32_ElapsedTimeInMs)[r15]
0000019e 71870100*       532 	st.w	r16,lo(_RdcSt__U32_WakeupInterval_xms)[r17]
000001a2 724f0100*       533 	st.w	r9,lo(_RdcSt__U32_WakeTime_xms)[r18]
000001a6 733f0100*       534 	st.w	r7,lo(_RdcSt__U32_WakeOffset_xms)[r19]
                         535 --	    .es

                                                                      Page 11
                                                              C:\Users\nhuliyap\AppData\Local\Temp\gh_0000b0k1.s
                         536 .LDW02:
000001aa 4006ff00        537 	dispose	0,{r28,r29,r31},[lp]
                         538 .L229:
                         539 --line119
                         540 ..lin.C.3A.5C_ECU2.5CECU_Rivian_A1.5CTarget.5Crepo_projects.5CpRealEcu.5CcL_R2023.2E09.2E01.5Cmake.5Coutput.5Cobjects.5CRdcStandstill.31::
                         541 .LDWlin31:
000001ae 0b32            542 	mov	11,r6
                         543 	jarl	_SYSMGR_SetEcuEvent,lp
                         543 <EXPANSION BEGIN>
                         543 jarl22 _SYSMGR_SetEcuEvent , lp 
000001b0 80ff0000*       543 <EXPANSION END>
                         544 --	    .ef
                         545 .LDW12:
                         546 --line121
                         547 ..lin.C.3A.5C_ECU2.5CECU_Rivian_A1.5CTarget.5Crepo_projects.5CpRealEcu.5CcL_R2023.2E09.2E01.5Cmake.5Coutput.5Cobjects.5CRdcStandstill.32::
                         548 .LDWlin32:
000001b4 4006ff00        549 	dispose	0,{r28,r29,r31},[lp]
                         550 	.global	___ghs_eofn_RdcSt_StartStandstillMonitoring
                         551 ___ghs_eofn_RdcSt_StartStandstillMonitoring:
                         552 	.type	_RdcSt_StartStandstillMonitoring,@function
                         553 	.size	_RdcSt_StartStandstillMonitoring,.-_RdcSt_StartStandstillMonitoring
                         554 	.align	2
                         555 --_U8_Counter	r17	local
                         556 
                         557 	.data
                         558 	.text
                         559 	.align	2
                         560 	.align	2
                         561 ..gh.f.f.1.e.5:
                         562 	.type	..gh.f.f.1.e.5,@object
                         563 	.size	..gh.f.f.1.e.5,0
                         564 	.global	_RdcSt_StopStandstillMonitoring
                         565 _RdcSt_StopStandstillMonitoring:
000001b8 80076100        566 	prepare	{r29,r31},0
                         567 --	    .bf
                         568 .LDW22:
000001bc 00ea            569 	mov	0,r29
                         570 .L340:
000001be 1d30            571 	mov	r29,r6
                         572 	jarl	_Tau_StopTimer,lp
                         572 <EXPANSION BEGIN>
                         572 jarl22 _Tau_StopTimer , lp 
000001c0 80ff0000*       572 <EXPANSION END>
                         573 --line126
                         574 ..lin.C.3A.5C_ECU2.5CECU_Rivian_A1.5CTarget.5Crepo_projects.5CpRealEcu.5CcL_R2023.2E09.2E01.5Cmake.5Coutput.5Cobjects.5CRdcStandstill.33::
                         575 .LDWlin33:
000001c4 41ea            576 	add	1,r29
000001c6 64ea            577 	cmp	4,r29
000001c8 b1fd*           578 	bl	.L340
                         579 --line131
                         580 ..lin.C.3A.5C_ECU2.5CECU_Rivian_A1.5CTarget.5Crepo_projects.5CpRealEcu.5CcL_R2023.2E09.2E01.5Cmake.5Coutput.5Cobjects.5CRdcStandstill.34::
                         581 .LDWlin34:
000001ca 405e0000*       582 	movhi	hi(_RdcSt__BO_IsStandstillMonitoringActive),zero,r11
000001ce 4b070000*       583 	st.b	zero,lo(_RdcSt__BO_IsStandstillMonitoringActive)[r11]
                         584 --	    .ef
                         585 .LDW32:
                         586 --line132
                         587 ..lin.C.3A.5C_ECU2.5CECU_Rivian_A1.5CTarget.5Crepo_projects.5CpRealEcu.5CcL_R2023.2E09.2E01.5Cmake.5Coutput.5Cobjects.5CRdcStandstill.35::
                         588 .LDWlin35:
000001d2 40067f00        589 	dispose	0,{r29,r31},[lp]
                         590 	.global	___ghs_eofn_RdcSt_StopStandstillMonitoring

                                                                      Page 12
                                                              C:\Users\nhuliyap\AppData\Local\Temp\gh_0000b0k1.s
                         591 ___ghs_eofn_RdcSt_StopStandstillMonitoring:
                         592 	.type	_RdcSt_StopStandstillMonitoring,@function
                         593 	.size	_RdcSt_StopStandstillMonitoring,.-_RdcSt_StopStandstillMonitoring
                         594 	.align	2
                         595 --_U8_Counter	r29	local
                         596 
                         597 	.section ".bss","awb"
                         598 .L379:
                         599 	.type	.L379,@object
                         600 	.size	.L379,0
                         601 	.data
                         602 	.text
                         603 	.align	2
                         604 	.align	2
                         605 ..gh.f.f.1.e.6:
                         606 	.type	..gh.f.f.1.e.6,@object
                         607 	.size	..gh.f.f.1.e.6,0
                         608 	.global	_RdcSt_IsStandstillMonitoringActive
                         609 _RdcSt_IsStandstillMonitoringActive:
                         610 --	    .bf
                         611 .LDW42:
000001d6 40560000*       612 	movhi	hi(_RdcSt__BO_IsStandstillMonitoringActive),zero,r10
000001da 8a570100*       613 	ld.bu	lo(_RdcSt__BO_IsStandstillMonitoringActive)[r10],r10
                         614 --	    .ef
                         615 .LDW52:
                         616 --line134
                         617 ..lin.C.3A.5C_ECU2.5CECU_Rivian_A1.5CTarget.5Crepo_projects.5CpRealEcu.5CcL_R2023.2E09.2E01.5Cmake.5Coutput.5Cobjects.5CRdcStandstill.36::
                         618 .LDWlin36:
000001de 7f00            619 	jmp	[lp]
                         620 	.global	___ghs_eofn_RdcSt_IsStandstillMonitoringActive
                         621 ___ghs_eofn_RdcSt_IsStandstillMonitoringActive:
                         622 	.type	_RdcSt_IsStandstillMonitoringActive,@function
                         623 	.size	_RdcSt_IsStandstillMonitoringActive,.-_RdcSt_IsStandstillMonitoringActive
                         624 	.align	2
                         625 
                         626 	.section ".bss","awb"
                         627 .L436:
                         628 	.type	.L436,@object
                         629 	.size	.L436,0
                         630 	.data
                         631 	.text
                         632 	.align	2
                         633 	.align	2
                         634 ..gh.f.f.1.e.7:
                         635 	.type	..gh.f.f.1.e.7,@object
                         636 	.size	..gh.f.f.1.e.7,0
                         637 	.global	_RdcSt_ProcessStandstillTelegram
                         638 _RdcSt_ProcessStandstillTelegram:
000001e0 8207e1f0        639 	prepare	{r24,r25,r26,r27,r28,r29,r31},1
000001e4 06d8            640 	mov	r6,r27
                         641 --	    .bf
                         642 .LDW62:
000001e6 86670100        643 	ld.bu	0[r6],r12
000001ea 0c0670ff        644 	addi	-144,r12,zero
000001ee ca75*           645 	bne	.L454
                         646 --	    .bs
                         647 .LDW72:
                         648 --line145
                         649 ..lin.C.3A.5C_ECU2.5CECU_Rivian_A1.5CTarget.5Crepo_projects.5CpRealEcu.5CcL_R2023.2E09.2E01.5Cmake.5Coutput.5Cobjects.5CRdcStandstill.37::
                         650 .LDWlin37:
000001f0 06f0            651 	mov	r6,ep

                                                                      Page 13
                                                              C:\Users\nhuliyap\AppData\Local\Temp\gh_0000b0k1.s
000001f2 6198            652 	sld.bu	1[ep],r19
000001f4 6280            653 	sld.bu	2[ep],r16
000001f6 6378            654 	sld.bu	3[ep],r15
000001f8 64d0            655 	sld.bu	4[ep],r26
000001fa d89a            656 	shl	24,r19
000001fc d082            657 	shl	16,r16
000001fe 1381            658 	or	r19,r16
00000200 c87a            659 	shl	8,r15
00000202 1079            660 	or	r16,r15
00000204 0fd1            661 	or	r15,r26
00000206 00e2            662 	mov	0,r28
00000208 390600000000*   663 	mov	_RdcSt__U32_WakeupInterval_xms,r25
0000020e 380600000000*   664 	mov	_RdcSt__U8_MainTimer,r24
                         665 .L460:
                         666 --line150
                         667 ..lin.C.3A.5C_ECU2.5CECU_Rivian_A1.5CTarget.5Crepo_projects.5CpRealEcu.5CcL_R2023.2E09.2E01.5Cmake.5Coutput.5Cobjects.5CRdcStandstill.38::
                         668 .LDWlin38:
00000214 1cf0            669 	mov	r28,ep
00000216 c3f2            670 	shl	3,ep
00000218 2b0600000000*   671 	mov	_RdcSt__AS_WSData,r11
0000021e cbf1            672 	add	r11,ep
00000220 0055            673 	sld.w	0[ep],r10
00000222 ead1            674 	cmp	r10,r26
00000224 ea55*           675 	bne	.L471
                         676 --	    .bs
                         677 .LDW82:
                         678 --line153
                         679 ..lin.C.3A.5C_ECU2.5CECU_Rivian_A1.5CTarget.5Crepo_projects.5CpRealEcu.5CcL_R2023.2E09.2E01.5Cmake.5Coutput.5Cobjects.5CRdcStandstill.39::
                         680 .LDWlin39:
00000226 404e0000*       681 	movhi	hi(_RdcSt__U32_WakeOffset_xms),zero,r9
0000022a 393f0100        682 	ld.w	0[r25],r7
0000022e 294f0100*       683 	ld.w	lo(_RdcSt__U32_WakeOffset_xms)[r9],r9
                         684 --line155
                         685 ..lin.C.3A.5C_ECU2.5CECU_Rivian_A1.5CTarget.5Crepo_projects.5CpRealEcu.5CcL_R2023.2E09.2E01.5Cmake.5Coutput.5Cobjects.5CRdcStandstill.40::
                         686 .LDWlin40:
00000232 98470100        687 	ld.bu	0[r24],r8
00000236 a939            688 	sub	r9,r7
00000238 6442            689 	cmp	4,r8
0000023a ba05*           690 	bne	.L465
                         691 --line157
                         692 ..lin.C.3A.5C_ECU2.5CECU_Rivian_A1.5CTarget.5Crepo_projects.5CpRealEcu.5CcL_R2023.2E09.2E01.5Cmake.5Coutput.5Cobjects.5CRdcStandstill.41::
                         693 .LDWlin41:
0000023c 58e70000        694 	st.b	r28,0[r24]
                         695 .L465:
00000240 bb370500        696 	ld.bu	5[r27],r6
00000244 8096ffff        697 	ori	65535,zero,r18
00000248 8433            698 	sst.b	r6,4[ep]
0000024a 9b9f0700        699 	ld.bu	6[r27],r19
0000024e 7330            700 	sld.hu	6[ep],r6
00000250 859b            701 	sst.b	r19,5[ep]
00000252 f231            702 	cmp	r18,r6
00000254 c905*           703 	bnl	.L466
                         704 --line168
                         705 ..lin.C.3A.5C_ECU2.5CECU_Rivian_A1.5CTarget.5Crepo_projects.5CpRealEcu.5CcL_R2023.2E09.2E01.5Cmake.5Coutput.5Cobjects.5CRdcStandstill.42::
                         706 .LDWlin42:
00000256 068e0100        707 	addi	1,r6,r17
0000025a 838c            708 	sst.h	r17,6[ep]
                         709 .L466:
0000025c 3d0600000000*   710 	mov	_RdcSt__U8_MonitoringStatus,r29
                         711 --line171
                         712 ..lin.C.3A.5C_ECU2.5CECU_Rivian_A1.5CTarget.5Crepo_projects.5CpRealEcu.5CcL_R2023.2E09.2E01.5Cmake.5Coutput.5Cobjects.5CRdcStandstill.43::

                                                                      Page 14
                                                              C:\Users\nhuliyap\AppData\Local\Temp\gh_0000b0k1.s
                         713 .LDWlin43:
00000262 1df0            714 	mov	r29,ep
00000264 6090            715 	sld.bu	0[ep],r18
00000266 017a            716 	mov	1,r15
00000268 fc7fc280        717 	shl	r28,r15,r16
0000026c 3068            718 	not	r16,r13
0000026e 4d91            719 	and	r13,r18
00000270 8093            720 	sst.b	r18,0[ep]
00000272 3e0600000000*   721 	mov	_RdcSt__U8_ExtendedWakeup,ep
00000278 6088            722 	sld.bu	0[ep],r17
                         723 --line178
                         724 ..lin.C.3A.5C_ECU2.5CECU_Rivian_A1.5CTarget.5Crepo_projects.5CpRealEcu.5CcL_R2023.2E09.2E01.5Cmake.5Coutput.5Cobjects.5CRdcStandstill.44::
                         725 .LDWlin44:
0000027a 1c30            726 	mov	r28,r6
0000027c 4d89            727 	and	r13,r17
0000027e 808b            728 	sst.b	r17,0[ep]
                         729 	jarl	_Tau_StartTimer,lp
                         729 <EXPANSION BEGIN>
                         729 jarl22 _Tau_StartTimer , lp 
00000280 80ff0000*       729 <EXPANSION END>
                         730 --line180
                         731 ..lin.C.3A.5C_ECU2.5CECU_Rivian_A1.5CTarget.5Crepo_projects.5CpRealEcu.5CcL_R2023.2E09.2E01.5Cmake.5Coutput.5Cobjects.5CRdcStandstill.45::
                         732 .LDWlin45:
00000284 989f0100        733 	ld.bu	0[r24],r19
00000288 fc99            734 	cmp	r28,r19
0000028a 9a0d*           735 	bne	.L470
                         736 --line182
                         737 ..lin.C.3A.5C_ECU2.5CECU_Rivian_A1.5CTarget.5Crepo_projects.5CpRealEcu.5CcL_R2023.2E09.2E01.5Cmake.5Coutput.5Cobjects.5CRdcStandstill.46::
                         738 .LDWlin46:
0000028c 3e0600000000*   739 	mov	_RdcSt__U32_ElapsedTimeInMs,ep
00000292 0085            740 	sld.w	0[ep],r16
00000294 39970100        741 	ld.w	0[r25],r18
00000298 d281            742 	add	r18,r16
0000029a 0185            743 	sst.w	r16,0[ep]
                         744 .L470:
                         745 --line188
                         746 ..lin.C.3A.5C_ECU2.5CECU_Rivian_A1.5CTarget.5Crepo_projects.5CpRealEcu.5CcL_R2023.2E09.2E01.5Cmake.5Coutput.5Cobjects.5CRdcStandstill.47::
                         747 .LDWlin47:
0000029c 0330            748 	mov	sp,r6
                         749 	jarl	_ClientIf_GetECUTimeStampValue,lp
                         749 <EXPANSION BEGIN>
                         749 jarl22 _ClientIf_GetECUTimeStampValue , lp 
0000029e 80ff0000*       749 <EXPANSION END>
                         750 --line189
                         751 ..lin.C.3A.5C_ECU2.5CECU_Rivian_A1.5CTarget.5Crepo_projects.5CpRealEcu.5CcL_R2023.2E09.2E01.5Cmake.5Coutput.5Cobjects.5CRdcStandstill.48::
                         752 .LDWlin48:
000002a2 1c90            753 	mov	r28,r18
000002a4 c292            754 	shl	2,r18
000002a6 3e0600000000*   755 	mov	_AU32_MonitoringTimeForEachWs_xms,ep
000002ac d2f1            756 	add	r18,ep
000002ae d2e9            757 	add	r18,r29
000002b0 397f0100        758 	ld.w	0[r25],r15
000002b4 0085            759 	sld.w	0[ep],r16
000002b6 236f0100        760 	ld.w	0[sp],r13
000002ba 3d8f0500        761 	ld.w	4[r29],r17
                         762 --line190
                         763 ..lin.C.3A.5C_ECU2.5CECU_Rivian_A1.5CTarget.5Crepo_projects.5CpRealEcu.5CcL_R2023.2E09.2E01.5Cmake.5Coutput.5Cobjects.5CRdcStandstill.49::
                         764 .LDWlin49:
000002be 40660000*       765 	movhi	hi(_AU32_LastReceptionTimestampForEachWs_xms),zero,r12
000002c2 d079            766 	add	r16,r15
000002c4 cc91            767 	add	r12,r18

                                                                      Page 15
                                                              C:\Users\nhuliyap\AppData\Local\Temp\gh_0000b0k1.s
000002c6 8d89            768 	subr	r13,r17
000002c8 cf89            769 	add	r15,r17
000002ca 018d            770 	sst.w	r17,0[ep]
000002cc 728f0100*       771 	st.w	r17,lo(_AU32_LastReceptionTimestampForEachWs_xms)[r18]
                         772 --	    .es
                         773 .LDW92:
                         774 .L471:
                         775 --line147
                         776 ..lin.C.3A.5C_ECU2.5CECU_Rivian_A1.5CTarget.5Crepo_projects.5CpRealEcu.5CcL_R2023.2E09.2E01.5Cmake.5Coutput.5Cobjects.5CRdcStandstill.50::
                         777 .LDWlin50:
000002d0 41e2            778 	add	1,r28
000002d2 64e2            779 	cmp	4,r28
000002d4 81a5*           780 	bl	.L460
                         781 .L454:
                         782 --	    .es
                         783 .LDW03:
                         784 --	    .ef
                         785 .LDW13:
                         786 --line200
                         787 ..lin.C.3A.5C_ECU2.5CECU_Rivian_A1.5CTarget.5Crepo_projects.5CpRealEcu.5CcL_R2023.2E09.2E01.5Cmake.5Coutput.5Cobjects.5CRdcStandstill.51::
                         788 .LDWlin51:
000002d6 4206fff0        789 	dispose	1,{r24,r25,r26,r27,r28,r29,r31},[lp]
                         790 	.global	___ghs_eofn_RdcSt_ProcessStandstillTelegram
                         791 ___ghs_eofn_RdcSt_ProcessStandstillTelegram:
                         792 	.type	_RdcSt_ProcessStandstillTelegram,@function
                         793 	.size	_RdcSt_ProcessStandstillTelegram,.-_RdcSt_ProcessStandstillTelegram
                         794 	.align	2
                         795 --_U8_Counter	r28	local
                         796 --_U32_WsId	r26	local
                         797 --_U32_CurrentTimestamp	0[sp]	local
                         798 --_U32_TimerValue	r7	local
                         799 
                         800 --_PU8_TelegramData	r27	param
                         801 
                         802 	.data
                         803 	.text
                         804 	.align	2
                         805 	.align	2
                         806 ..gh.f.f.1.e.8:
                         807 	.type	..gh.f.f.1.e.8,@object
                         808 	.size	..gh.f.f.1.e.8,0
                         809 	.global	_RdcSt__UpdateMonitoringStatus..C.3A.5C_ECU2.5CECU_Rivian_A1.5CTarget.5Crepo_projects.5CpRealEcu.5CcL_R2023.2E09.2E01.5Cmake.5Coutput.5Cobjects.5CRdcStandstill.
                         810 _RdcSt__UpdateMonitoringStatus..C.3A.5C_ECU2.5CECU_Rivian_A1.5CTarget.5Crepo_projects.5CpRealEcu.5CcL_R2023.2E09.2E01.5Cmake.5Coutput.5Cobjects.5CRdcStandstill.:
                         811 _RdcSt__UpdateMonitoringStatus:
000002da 8207e1f3        812 	prepare	{r22,r23,r24,r25,r26,r27,r28,r29,r31},1
000002de 3d0600000000*   813 	mov	_RdcSt__U8_MonitoringStatus,r29
                         814 --	    .bf
                         815 .LDW23:
                         816 --line403
                         817 ..lin.C.3A.5C_ECU2.5CECU_Rivian_A1.5CTarget.5Crepo_projects.5CpRealEcu.5CcL_R2023.2E09.2E01.5Cmake.5Coutput.5Cobjects.5CRdcStandstill.52::
                         818 .LDWlin52:
000002e4 0330            819 	mov	sp,r6
                         820 	jarl	_ClientIf_GetECUTimeStampValue,lp
                         820 <EXPANSION BEGIN>
                         820 jarl22 _ClientIf_GetECUTimeStampValue , lp 
000002e6 80ff0000*       820 <EXPANSION END>
                         821 --line405
                         822 ..lin.C.3A.5C_ECU2.5CECU_Rivian_A1.5CTarget.5Crepo_projects.5CpRealEcu.5CcL_R2023.2E09.2E01.5Cmake.5Coutput.5Cobjects.5CRdcStandstill.53::
                         823 .LDWlin53:
000002ea 00e2            824 	mov	0,r28
000002ec 380600000000*   825 	mov	_RdcSt__U8_ExtendedWakeup,r24

                                                                      Page 16
                                                              C:\Users\nhuliyap\AppData\Local\Temp\gh_0000b0k1.s
000002f2 370600000000*   826 	mov	_RdcSt__U32_WakeupInterval_xms,r23
000002f8 3b0600000000*   827 	mov	_RdcSt__U32_ElapsedTimeInMs,r27
000002fe 360600000000*   828 	mov	_RdcSt__U8_MainTimer,r22
                         829 .L1375:
                         830 --	    .bs
                         831 .LDW33:
                         832 --line408
                         833 ..lin.C.3A.5C_ECU2.5CECU_Rivian_A1.5CTarget.5Crepo_projects.5CpRealEcu.5CcL_R2023.2E09.2E01.5Cmake.5Coutput.5Cobjects.5CRdcStandstill.54::
                         834 .LDWlin54:
00000304 016a            835 	mov	1,r13
00000306 9d670100        836 	ld.bu	0[r29],r12
0000030a fc6fc290        837 	shl	r28,r13,r18
0000030e 9200            838 	zxb	r18
00000310 1258            839 	mov	r18,r11
00000312 4c59            840 	and	r12,r11
00000314 f259            841 	cmp	r18,r11
00000316 ea55*           842 	bne	.L1396
                         843 --line411
                         844 ..lin.C.3A.5C_ECU2.5CECU_Rivian_A1.5CTarget.5Crepo_projects.5CpRealEcu.5CcL_R2023.2E09.2E01.5Cmake.5Coutput.5Cobjects.5CRdcStandstill.55::
                         845 .LDWlin55:
00000318 1cd0            846 	mov	r28,r26
0000031a c2d2            847 	shl	2,r26
0000031c 1ac8            848 	mov	r26,r25
0000031e ddc9            849 	add	r29,r25
00000320 39870500        850 	ld.w	4[r25],r16
00000324 238f0100        851 	ld.w	0[sp],r17
00000328 44ca            852 	add	4,r25
0000032a f089            853 	cmp	r16,r17
0000032c b34d*           854 	bnh	.L1396
                         855 --line414
                         856 ..lin.C.3A.5C_ECU2.5CECU_Rivian_A1.5CTarget.5Crepo_projects.5CpRealEcu.5CcL_R2023.2E09.2E01.5Cmake.5Coutput.5Cobjects.5CRdcStandstill.56::
                         857 .LDWlin56:
0000032e 986f0100        858 	ld.bu	0[r24],r13
00000332 1250            859 	mov	r18,r10
00000334 b089            860 	sub	r16,r17
00000336 4d51            861 	and	r13,r10
00000338 f251            862 	cmp	r18,r10
0000033a 8a1d*           863 	bne	.L1380
                         864 --line417
                         865 ..lin.C.3A.5C_ECU2.5CECU_Rivian_A1.5CTarget.5Crepo_projects.5CpRealEcu.5CcL_R2023.2E09.2E01.5Cmake.5Coutput.5Cobjects.5CRdcStandstill.57::
                         866 .LDWlin57:
0000033c 2a06407e0500    867 	mov	360000,r10
00000342 ea89            868 	cmp	r10,r17
00000344 f33d*           869 	bnh	.L1396
                         870 --line420
                         871 ..lin.C.3A.5C_ECU2.5CECU_Rivian_A1.5CTarget.5Crepo_projects.5CpRealEcu.5CcL_R2023.2E09.2E01.5Cmake.5Coutput.5Cobjects.5CRdcStandstill.58::
                         872 .LDWlin58:
00000346 3270            873 	not	r18,r14
00000348 0e48            874 	mov	r14,r9
0000034a 4c49            875 	and	r12,r9
0000034c 5d4f0000        876 	st.b	r9,0[r29]
00000350 964f0100        877 	ld.bu	0[r22],r9
00000354 4d71            878 	and	r13,r14
00000356 58770000        879 	st.b	r14,0[r24]
0000035a fc49            880 	cmp	r28,r9
0000035c da05*           881 	bne	.L1386
                         882 --line429
                         883 ..lin.C.3A.5C_ECU2.5CECU_Rivian_A1.5CTarget.5Crepo_projects.5CpRealEcu.5CcL_R2023.2E09.2E01.5Cmake.5Coutput.5Cobjects.5CRdcStandstill.59::
                         884 .LDWlin59:
0000035e 1bf0            885 	mov	r27,ep
00000360 0045            886 	sld.w	0[ep],r8

                                                                      Page 17
                                                              C:\Users\nhuliyap\AppData\Local\Temp\gh_0000b0k1.s
00000362 ca41            887 	add	r10,r8
00000364 0145            888 	sst.w	r8,0[ep]
                         889 .L1386:
00000366 0a78            890 	mov	r10,r15
00000368 8525*           891 	br	.L1442
                         892 .L1380:
                         893 --line443
                         894 ..lin.C.3A.5C_ECU2.5CECU_Rivian_A1.5CTarget.5Crepo_projects.5CpRealEcu.5CcL_R2023.2E09.2E01.5Cmake.5Coutput.5Cobjects.5CRdcStandstill.60::
                         895 .LDWlin60:
0000036a 407e0000*       896 	movhi	hi(_RdcSt__U32_WakeTime_xms),zero,r15
0000036e 2f7f0100*       897 	ld.w	lo(_RdcSt__U32_WakeTime_xms)[r15],r15
00000372 ef89            898 	cmp	r15,r17
00000374 f325*           899 	bnh	.L1396
                         900 --	    .bs
                         901 .LDW43:
                         902 --line447
                         903 ..lin.C.3A.5C_ECU2.5CECU_Rivian_A1.5CTarget.5Crepo_projects.5CpRealEcu.5CcL_R2023.2E09.2E01.5Cmake.5Coutput.5Cobjects.5CRdcStandstill.61::
                         904 .LDWlin61:
00000376 3238            905 	not	r18,r7
00000378 4c39            906 	and	r12,r7
0000037a 5d3f0000        907 	st.b	r7,0[r29]
0000037e 373f0100        908 	ld.w	0[r23],r7
00000382 0d91            909 	or	r13,r18
00000384 58970000        910 	st.b	r18,0[r24]
00000388 1c30            911 	mov	r28,r6
0000038a af39            912 	sub	r15,r7
                         913 	jarl	_Tau_StartTimer,lp
                         913 <EXPANSION BEGIN>
                         913 jarl22 _Tau_StartTimer , lp 
0000038c 80ff0000*       913 <EXPANSION END>
                         914 --line455
                         915 ..lin.C.3A.5C_ECU2.5CECU_Rivian_A1.5CTarget.5Crepo_projects.5CpRealEcu.5CcL_R2023.2E09.2E01.5Cmake.5Coutput.5Cobjects.5CRdcStandstill.62::
                         916 .LDWlin62:
00000390 969f0100        917 	ld.bu	0[r22],r19
00000394 fc99            918 	cmp	r28,r19
00000396 fa05*           919 	bne	.L1393
                         920 --line457
                         921 ..lin.C.3A.5C_ECU2.5CECU_Rivian_A1.5CTarget.5Crepo_projects.5CpRealEcu.5CcL_R2023.2E09.2E01.5Cmake.5Coutput.5Cobjects.5CRdcStandstill.63::
                         922 .LDWlin63:
00000398 1bf0            923 	mov	r27,ep
0000039a 008d            924 	sld.w	0[ep],r17
0000039c 37970100        925 	ld.w	0[r23],r18
000003a0 d289            926 	add	r18,r17
000003a2 018d            927 	sst.w	r17,0[ep]
                         928 .L1393:
000003a4 377f0100        929 	ld.w	0[r23],r15
                         930 --	    .es
                         931 .LDW53:
                         932 .L1442:
000003a8 3e0600000000*   933 	mov	_AU32_MonitoringTimeForEachWs_xms,ep
000003ae daf1            934 	add	r26,ep
000003b0 0085            935 	sld.w	0[ep],r16
000003b2 23770100        936 	ld.w	0[sp],r14
000003b6 d079            937 	add	r16,r15
000003b8 39870100        938 	ld.w	0[r25],r16
000003bc 8e81            939 	subr	r14,r16
000003be cf81            940 	add	r15,r16
000003c0 0185            941 	sst.w	r16,0[ep]
                         942 .L1396:
                         943 --	    .es
                         944 .LDW63:

                                                                      Page 18
                                                              C:\Users\nhuliyap\AppData\Local\Temp\gh_0000b0k1.s
                         945 --line405
                         946 ..lin.C.3A.5C_ECU2.5CECU_Rivian_A1.5CTarget.5Crepo_projects.5CpRealEcu.5CcL_R2023.2E09.2E01.5Cmake.5Coutput.5Cobjects.5CRdcStandstill.64::
                         947 .LDWlin64:
000003c2 41e2            948 	add	1,r28
000003c4 64e2            949 	cmp	4,r28
000003c6 f19d*           950 	bl	.L1375
                         951 --	    .ef
                         952 .LDW73:
                         953 --line478
                         954 ..lin.C.3A.5C_ECU2.5CECU_Rivian_A1.5CTarget.5Crepo_projects.5CpRealEcu.5CcL_R2023.2E09.2E01.5Cmake.5Coutput.5Cobjects.5CRdcStandstill.65::
                         955 .LDWlin65:
000003c8 4206fff3        956 	dispose	1,{r22,r23,r24,r25,r26,r27,r28,r29,r31},[lp]
                         957 ___ghs_eofn_RdcSt__UpdateMonitoringStatus:
                         958 	.type	_RdcSt__UpdateMonitoringStatus,@function
                         959 	.size	_RdcSt__UpdateMonitoringStatus,.-_RdcSt__UpdateMonitoringStatus
                         960 	.type	_RdcSt__UpdateMonitoringStatus..C.3A.5C_ECU2.5CECU_Rivian_A1.5CTarget.5Crepo_projects.5CpRealEcu.5CcL_R2023.2E09.2E01.5Cmake.5Coutput.5Cobjects.5CRdcStandstill.,@function
                         961 	.size	_RdcSt__UpdateMonitoringStatus..C.3A.5C_ECU2.5CECU_Rivian_A1.5CTarget.5Crepo_projects.5CpRealEcu.5CcL_R2023.2E09.2E01.5Cmake.5Coutput.5Cobjects.5CRdcStandstill.,.-_RdcSt__UpdateMonitoringStatus..C.3A.5C_ECU2.5CECU_Rivian_A1.5CTarget.5Crepo_projects.5CpRealEcu.5CcL_R2023.2E09.2E01.5Cmake.5Coutput.5Cobjects.5CRdcStandstill.
                         962 	.align	2
                         963 --_U32_CurrentTimestamp	0[sp]	local
                         964 --_U8_Counter	r28	local
                         965 --_U8_MaskForSpecificWS	r18	local
                         966 
                         967 	.data
                         968 	.text
                         969 	.align	2
                         970 	.align	2
                         971 ..gh.f.f.1.e.9:
                         972 	.type	..gh.f.f.1.e.9,@object
                         973 	.size	..gh.f.f.1.e.9,0
                         974 	.global	_Rdc__ConvertLatestReceptionToEpochTime..C.3A.5C_ECU2.5CECU_Rivian_A1.5CTarget.5Crepo_projects.5CpRealEcu.5CcL_R2023.2E09.2E01.5Cmake.5Coutput.5Cobjects.5CRdcStandstill.
                         975 _Rdc__ConvertLatestReceptionToEpochTime..C.3A.5C_ECU2.5CECU_Rivian_A1.5CTarget.5Crepo_projects.5CpRealEcu.5CcL_R2023.2E09.2E01.5Cmake.5Coutput.5Cobjects.5CRdcStandstill.:
                         976 _Rdc__ConvertLatestReceptionToEpochTime:
000003cc 8207e1f7        977 	prepare	{r21,r22,r23,r24,r25,r26,r27,r28,r29,r31},1
000003d0 06d8            978 	mov	r6,r27
                         979 --	    .bf
                         980 .LDW83:
000003d2 005a            981 	mov	0,r11
000003d4 0b60            982 	mov	r11,r12
                         983 .L1675:
000003d6 0cf0            984 	mov	r12,ep
000003d8 c2f2            985 	shl	2,ep
000003da 330600000000*   986 	mov	_AU32_LastReceptionTimestampForEachWs_xms,r19
000003e0 d3f1            987 	add	r19,ep
000003e2 003d            988 	sld.w	0[ep],r7
000003e4 eb39            989 	cmp	r11,r7
000003e6 eb3f265b        990 	cmovnh	r11,r7,r11
                         991 --line598
                         992 ..lin.C.3A.5C_ECU2.5CECU_Rivian_A1.5CTarget.5Crepo_projects.5CpRealEcu.5CcL_R2023.2E09.2E01.5Cmake.5Coutput.5Cobjects.5CRdcStandstill.66::
                         993 .LDWlin66:
000003ea 4162            994 	add	1,r12
000003ec 6462            995 	cmp	4,r12
000003ee c1f5*           996 	bl	.L1675
                         997 --line612
                         998 ..lin.C.3A.5C_ECU2.5CECU_Rivian_A1.5CTarget.5Crepo_projects.5CpRealEcu.5CcL_R2023.2E09.2E01.5Cmake.5Coutput.5Cobjects.5CRdcStandstill.67::
                         999 .LDWlin67:
000003f0 2e0600000000*  1000 	mov	_RdcSt__U64_CGMTimestampAtStart,r14
000003f6 ae0709600000   1001 	ld.dw	0[r14],r12
000003fc 0b30           1002 	mov	r11,r6
000003fe 2046e803       1003 	movea	1000,zero,r8
00000402 004a           1004 	mov	0,r9
00000404 cc31           1005 	add	r12,r6

                                                                      Page 19
                                                              C:\Users\nhuliyap\AppData\Local\Temp\gh_0000b0k1.s
00000406 e06fa23b       1006 	adfl	zero,r13,r7
                        1007 	jarl	___gh_udiv64,lp
                        1007 <EXPANSION BEGIN>
                        1007 jarl22 ___gh_udiv64 , lp 
0000040a 80ff0000*      1007 <EXPANSION END>
0000040e 3c06009110b6   1008 	mov	-1240428288,r28
00000414 cae1           1009 	add	r10,r28
00000416 024a           1010 	mov	2,r9
00000418 e95fa2eb       1011 	adfl	r9,r11,r29
                        1012 --line615
                        1013 ..lin.C.3A.5C_ECU2.5CECU_Rivian_A1.5CTarget.5Crepo_projects.5CpRealEcu.5CcL_R2023.2E09.2E01.5Cmake.5Coutput.5Cobjects.5CRdcStandstill.68::
                        1014 .LDWlin68:
0000041c 1c30           1015 	mov	r28,r6
0000041e 1d38           1016 	mov	r29,r7
00000420 2806805960f0   1017 	mov	-262121088,r8
                        1018 	jarl	___gh_udiv64,lp
                        1018 <EXPANSION BEGIN>
                        1018 jarl22 ___gh_udiv64 , lp 
00000426 80ff0000*      1018 <EXPANSION END>
0000042a 0ab8           1019 	mov	r10,r23
                        1020 --line616
                        1021 ..lin.C.3A.5C_ECU2.5CECU_Rivian_A1.5CTarget.5Crepo_projects.5CpRealEcu.5CcL_R2023.2E09.2E01.5Cmake.5Coutput.5Cobjects.5CRdcStandstill.69::
                        1022 .LDWlin69:
0000042c 2806805960f0   1023 	mov	-262121088,r8
00000432 024a           1024 	mov	2,r9
00000434 1c30           1025 	mov	r28,r6
00000436 1d38           1026 	mov	r29,r7
                        1027 	jarl	___gh_urem64,lp
                        1027 <EXPANSION BEGIN>
                        1027 jarl22 ___gh_urem64 , lp 
00000438 80ff0000*      1027 <EXPANSION END>
0000043c 0ae0           1028 	mov	r10,r28
0000043e 0be8           1029 	mov	r11,r29
                        1030 --line620
                        1031 ..lin.C.3A.5C_ECU2.5CECU_Rivian_A1.5CTarget.5Crepo_projects.5CpRealEcu.5CcL_R2023.2E09.2E01.5Cmake.5Coutput.5Cobjects.5CRdcStandstill.70::
                        1032 .LDWlin70:
00000440 280600c217bc   1033 	mov	-1139293696,r8
00000446 004a           1034 	mov	0,r9
00000448 0a30           1035 	mov	r10,r6
0000044a 0b38           1036 	mov	r11,r7
                        1037 	jarl	___gh_udiv64,lp
                        1037 <EXPANSION BEGIN>
                        1037 jarl22 ___gh_udiv64 , lp 
0000044c 80ff0000*      1037 <EXPANSION END>
00000450 ca00           1038 	zxh	r10
                        1039 --line621
                        1040 ..lin.C.3A.5C_ECU2.5CECU_Rivian_A1.5CTarget.5Crepo_projects.5CpRealEcu.5CcL_R2023.2E09.2E01.5Cmake.5Coutput.5Cobjects.5CRdcStandstill.71::
                        1041 .LDWlin71:
00000452 6352           1042 	cmp	3,r10
00000454 e35712d3       1043 	cmovnl	3,r10,r26
00000458 2c0600c217bc   1044 	mov	3155673600,r12
0000045e 1a40           1045 	mov	r26,r8
00000460 ec47224a       1046 	mulu	r12,r8,r9
00000464 a8e1           1047 	sub	r8,r28
00000466 e9ef82eb       1048 	sbfl	r9,r29,r29
                        1049 --line629
                        1050 ..lin.C.3A.5C_ECU2.5CECU_Rivian_A1.5CTarget.5Crepo_projects.5CpRealEcu.5CcL_R2023.2E09.2E01.5Cmake.5Coutput.5Cobjects.5CRdcStandstill.72::
                        1051 .LDWlin72:
0000046a 1c30           1052 	mov	r28,r6
0000046c 1d38           1053 	mov	r29,r7
0000046e 2806801f8607   1054 	mov	126230400,r8

                                                                      Page 20
                                                              C:\Users\nhuliyap\AppData\Local\Temp\gh_0000b0k1.s
00000474 004a           1055 	mov	0,r9
                        1056 	jarl	___gh_udiv64,lp
                        1056 <EXPANSION BEGIN>
                        1056 jarl22 ___gh_udiv64 , lp 
00000476 80ff0000*      1056 <EXPANSION END>
0000047a ca00           1057 	zxh	r10
                        1058 --line630
                        1059 ..lin.C.3A.5C_ECU2.5CECU_Rivian_A1.5CTarget.5Crepo_projects.5CpRealEcu.5CcL_R2023.2E09.2E01.5Cmake.5Coutput.5Cobjects.5CRdcStandstill.73::
                        1060 .LDWlin73:
0000047c 204e1800       1061 	movea	24,zero,r9
00000480 0a06e8ff       1062 	addi	-24,r10,zero
00000484 e95722cb       1063 	cmovl	r9,r10,r25
00000488 2c06801f8607   1064 	mov	126230400,r12
0000048e 1930           1065 	mov	r25,r6
00000490 ec37223a       1066 	mulu	r12,r6,r7
                        1067 --line638
                        1068 ..lin.C.3A.5C_ECU2.5CECU_Rivian_A1.5CTarget.5Crepo_projects.5CpRealEcu.5CcL_R2023.2E09.2E01.5Cmake.5Coutput.5Cobjects.5CRdcStandstill.74::
                        1069 .LDWlin74:
00000494 28068033e101   1070 	mov	31536000,r8
0000049a 004a           1071 	mov	0,r9
0000049c a6e1           1072 	sub	r6,r28
0000049e e7ef82eb       1073 	sbfl	r7,r29,r29
000004a2 1c30           1074 	mov	r28,r6
000004a4 1d38           1075 	mov	r29,r7
                        1076 	jarl	___gh_udiv64,lp
                        1076 <EXPANSION BEGIN>
                        1076 jarl22 ___gh_udiv64 , lp 
000004a6 80ff0000*      1076 <EXPANSION END>
000004aa ca00           1077 	zxh	r10
                        1078 --line639
                        1079 ..lin.C.3A.5C_ECU2.5CECU_Rivian_A1.5CTarget.5Crepo_projects.5CpRealEcu.5CcL_R2023.2E09.2E01.5Cmake.5Coutput.5Cobjects.5CRdcStandstill.75::
                        1080 .LDWlin75:
000004ac 6352           1081 	cmp	3,r10
000004ae e3571253       1082 	cmovnl	3,r10,r10
000004b2 1a70           1083 	mov	r26,r14
000004b4 2b068033e101   1084 	mov	31536000,r11
000004ba 0a90           1085 	mov	r10,r18
000004bc e4774c02       1086 	mul	100,r14,zero
000004c0 eb97229a       1087 	mulu	r11,r18,r19
000004c4 204e9001       1088 	movea	400,zero,r9
000004c8 e9bfce73       1089 	mac	r9,r23,r14,r14
000004cc b2e1           1090 	sub	r18,r28
000004ce f3ef82eb       1091 	sbfl	r19,r29,r29
000004d2 c2ca           1092 	shl	2,r25
000004d4 cec9           1093 	add	r14,r25
000004d6 d951           1094 	add	r25,r10
000004d8 0ad64106       1095 	addi	1601,r10,r26
000004dc da00           1096 	zxh	r26
                        1097 --line647
                        1098 ..lin.C.3A.5C_ECU2.5CECU_Rivian_A1.5CTarget.5Crepo_projects.5CpRealEcu.5CcL_R2023.2E09.2E01.5Cmake.5Coutput.5Cobjects.5CRdcStandstill.76::
                        1099 .LDWlin76:
000004de 004a           1100 	mov	0,r9
000004e0 da060300       1101 	andi	3,r26,zero
000004e4 aa15*          1102 	bne	.L1685
000004e6 1a40           1103 	mov	r26,r8
000004e8 20366400       1104 	movea	100,zero,r6
000004ec e647fc3a       1105 	divq	r6,r8,r7
000004f0 e039           1106 	cmp	zero,r7
000004f2 ea4f0000       1107 	setfne	r9
000004f6 9a0d*          1108 	bne	.L1685
000004f8 1a38           1109 	mov	r26,r7

                                                                      Page 21
                                                              C:\Users\nhuliyap\AppData\Local\Temp\gh_0000b0k1.s
000004fa 20969001       1110 	movea	400,zero,r18
000004fe f23ffc9a       1111 	divq	r18,r7,r19
00000502 e099           1112 	cmp	zero,r19
00000504 e14f044b       1113 	cmove	1,r9,r9
                        1114 .L1685:
00000508 09b0           1115 	mov	r9,r22
                        1116 --line650
                        1117 ..lin.C.3A.5C_ECU2.5CECU_Rivian_A1.5CTarget.5Crepo_projects.5CpRealEcu.5CcL_R2023.2E09.2E01.5Cmake.5Coutput.5Cobjects.5CRdcStandstill.77::
                        1118 .LDWlin77:
0000050a 1c30           1119 	mov	r28,r6
0000050c 1d38           1120 	mov	r29,r7
0000050e 280680510100   1121 	mov	86400,r8
00000514 004a           1122 	mov	0,r9
                        1123 	jarl	___gh_udiv64,lp
                        1123 <EXPANSION BEGIN>
                        1123 jarl22 ___gh_udiv64 , lp 
00000516 80ff0000*      1123 <EXPANSION END>
0000051a 0ac8           1124 	mov	r10,r25
0000051c d900           1125 	zxh	r25
                        1126 --line651
                        1127 ..lin.C.3A.5C_ECU2.5CECU_Rivian_A1.5CTarget.5Crepo_projects.5CpRealEcu.5CcL_R2023.2E09.2E01.5Cmake.5Coutput.5Cobjects.5CRdcStandstill.78::
                        1128 .LDWlin78:
0000051e 1c30           1129 	mov	r28,r6
00000520 1d38           1130 	mov	r29,r7
00000522 280680510100   1131 	mov	86400,r8
00000528 004a           1132 	mov	0,r9
                        1133 	jarl	___gh_urem64,lp
                        1133 <EXPANSION BEGIN>
                        1133 jarl22 ___gh_urem64 , lp 
0000052a 80ff0000*      1133 <EXPANSION END>
0000052e 0ae0           1134 	mov	r10,r28
00000530 0be8           1135 	mov	r11,r29
                        1136 --line652
                        1137 ..lin.C.3A.5C_ECU2.5CECU_Rivian_A1.5CTarget.5Crepo_projects.5CpRealEcu.5CcL_R2023.2E09.2E01.5Cmake.5Coutput.5Cobjects.5CRdcStandstill.79::
                        1138 .LDWlin79:
00000532 0a30           1139 	mov	r10,r6
00000534 0b38           1140 	mov	r11,r7
00000536 2046100e       1141 	movea	3600,zero,r8
0000053a 004a           1142 	mov	0,r9
                        1143 	jarl	___gh_udiv64,lp
                        1143 <EXPANSION BEGIN>
                        1143 jarl22 ___gh_udiv64 , lp 
0000053c 80ff0000*      1143 <EXPANSION END>
00000540 63570000       1144 	st.h	r10,0[sp]
                        1145 --line653
                        1146 ..lin.C.3A.5C_ECU2.5CECU_Rivian_A1.5CTarget.5Crepo_projects.5CpRealEcu.5CcL_R2023.2E09.2E01.5Cmake.5Coutput.5Cobjects.5CRdcStandstill.80::
                        1147 .LDWlin80:
00000544 1c30           1148 	mov	r28,r6
00000546 1d38           1149 	mov	r29,r7
00000548 2046100e       1150 	movea	3600,zero,r8
0000054c 004a           1151 	mov	0,r9
                        1152 	jarl	___gh_urem64,lp
                        1152 <EXPANSION BEGIN>
                        1152 jarl22 ___gh_urem64 , lp 
0000054e 80ff0000*      1152 <EXPANSION END>
00000552 0ae0           1153 	mov	r10,r28
00000554 0be8           1154 	mov	r11,r29
                        1155 --line654
                        1156 ..lin.C.3A.5C_ECU2.5CECU_Rivian_A1.5CTarget.5Crepo_projects.5CpRealEcu.5CcL_R2023.2E09.2E01.5Cmake.5Coutput.5Cobjects.5CRdcStandstill.81::
                        1157 .LDWlin81:
00000556 0a30           1158 	mov	r10,r6

                                                                      Page 22
                                                              C:\Users\nhuliyap\AppData\Local\Temp\gh_0000b0k1.s
00000558 0b38           1159 	mov	r11,r7
0000055a 20463c00       1160 	movea	60,zero,r8
0000055e 004a           1161 	mov	0,r9
                        1162 	jarl	___gh_udiv64,lp
                        1162 <EXPANSION BEGIN>
                        1162 jarl22 ___gh_udiv64 , lp 
00000560 80ff0000*      1162 <EXPANSION END>
00000564 63570200       1163 	st.h	r10,2[sp]
                        1164 --line655
                        1165 ..lin.C.3A.5C_ECU2.5CECU_Rivian_A1.5CTarget.5Crepo_projects.5CpRealEcu.5CcL_R2023.2E09.2E01.5Cmake.5Coutput.5Cobjects.5CRdcStandstill.82::
                        1166 .LDWlin82:
00000568 1c30           1167 	mov	r28,r6
0000056a 1d38           1168 	mov	r29,r7
0000056c 20463c00       1169 	movea	60,zero,r8
00000570 004a           1170 	mov	0,r9
                        1171 	jarl	___gh_urem64,lp
                        1171 <EXPANSION BEGIN>
                        1171 jarl22 ___gh_urem64 , lp 
00000572 80ff0000*      1171 <EXPANSION END>
                        1172 --line658
                        1173 ..lin.C.3A.5C_ECU2.5CECU_Rivian_A1.5CTarget.5Crepo_projects.5CpRealEcu.5CcL_R2023.2E09.2E01.5Cmake.5Coutput.5Cobjects.5CRdcStandstill.83::
                        1174 .LDWlin83:
00000576 01c2           1175 	mov	1,r24
00000578 0ae0           1176 	mov	r10,r28
0000057a 0be8           1177 	mov	r11,r29
0000057c 18b8           1178 	mov	r24,r23
                        1179 .L1690:
0000057e f6f60d00       1180 	mulhi	13,r22,ep
00000582 260600000000*  1181 	mov	.L1868,r6
00000588 d8f1           1182 	add	r24,ep
0000058a c1f2           1183 	shl	1,ep
0000058c c6f1           1184 	add	r6,ep
0000058e 7080           1185 	sld.hu	0[ep],r16
00000590 f0c9           1186 	cmp	r16,r25
00000592 890d*          1187 	bnl	.L1691
                        1188 --line662
                        1189 ..lin.C.3A.5C_ECU2.5CECU_Rivian_A1.5CTarget.5Crepo_projects.5CpRealEcu.5CcL_R2023.2E09.2E01.5Cmake.5Coutput.5Cobjects.5CRdcStandstill.84::
                        1190 .LDWlin84:
00000594 fe4fffff       1191 	ld.hu	-2[ep],r9
00000598 9949           1192 	subr	r25,r9
0000059a 09be0100       1193 	addi	1,r9,r23
0000059e d700           1194 	zxh	r23
000005a0 c505*          1195 	br	.L1693
                        1196 .L1691:
                        1197 --line658
                        1198 ..lin.C.3A.5C_ECU2.5CECU_Rivian_A1.5CTarget.5Crepo_projects.5CpRealEcu.5CcL_R2023.2E09.2E01.5Cmake.5Coutput.5Cobjects.5CRdcStandstill.85::
                        1199 .LDWlin85:
000005a2 41c2           1200 	add	1,r24
000005a4 6dc2           1201 	cmp	13,r24
000005a6 c1ed*          1202 	bl	.L1690
                        1203 .L1693:
                        1204 --line667
                        1205 ..lin.C.3A.5C_ECU2.5CECU_Rivian_A1.5CTarget.5Crepo_projects.5CpRealEcu.5CcL_R2023.2E09.2E01.5Cmake.5Coutput.5Cobjects.5CRdcStandstill.86::
                        1206 .LDWlin86:
000005a8 2806d34d6210   1207 	mov	274877907,r8
000005ae fa47224a       1208 	mulu	r26,r8,r9
000005b2 864a           1209 	shr	6,r9
000005b4 0930           1210 	mov	r9,r6
000005b6 8600           1211 	zxb	r6
                        1212 	jarl	_VERSION_ucDigitToAscii,lp
                        1212 <EXPANSION BEGIN>

                                                                      Page 23
                                                              C:\Users\nhuliyap\AppData\Local\Temp\gh_0000b0k1.s
                        1212 jarl22 _VERSION_ucDigitToAscii , lp 
000005b8 80ff0000*      1212 <EXPANSION END>
                        1213 --line668
                        1214 ..lin.C.3A.5C_ECU2.5CECU_Rivian_A1.5CTarget.5Crepo_projects.5CpRealEcu.5CcL_R2023.2E09.2E01.5Cmake.5Coutput.5Cobjects.5CRdcStandstill.87::
                        1215 .LDWlin87:
000005bc 28061f85eb51   1216 	mov	1374389535,r8
000005c2 fa47224a       1217 	mulu	r26,r8,r9
000005c6 0aca           1218 	mov	10,r25
000005c8 5b570000       1219 	st.b	r10,0[r27]
000005cc 854a           1220 	shr	5,r9
000005ce f94ffe32       1221 	divqu	r25,r9,r6
000005d2 8600           1222 	zxb	r6
                        1223 	jarl	_VERSION_ucDigitToAscii,lp
                        1223 <EXPANSION BEGIN>
                        1223 jarl22 _VERSION_ucDigitToAscii , lp 
000005d4 80ff0000*      1223 <EXPANSION END>
                        1224 --line669
                        1225 ..lin.C.3A.5C_ECU2.5CECU_Rivian_A1.5CTarget.5Crepo_projects.5CpRealEcu.5CcL_R2023.2E09.2E01.5Cmake.5Coutput.5Cobjects.5CRdcStandstill.88::
                        1226 .LDWlin88:
000005d8 f9d7feaa       1227 	divqu	r25,r26,r21
000005dc 5b570100       1228 	st.b	r10,1[r27]
000005e0 f9d7fed2       1229 	divqu	r25,r26,r26
000005e4 1a30           1230 	mov	r26,r6
000005e6 8600           1231 	zxb	r6
                        1232 	jarl	_VERSION_ucDigitToAscii,lp
                        1232 <EXPANSION BEGIN>
                        1232 jarl22 _VERSION_ucDigitToAscii , lp 
000005e8 80ff0000*      1232 <EXPANSION END>
000005ec 5b570200       1233 	st.b	r10,2[r27]
                        1234 --line670
                        1235 ..lin.C.3A.5C_ECU2.5CECU_Rivian_A1.5CTarget.5Crepo_projects.5CpRealEcu.5CcL_R2023.2E09.2E01.5Cmake.5Coutput.5Cobjects.5CRdcStandstill.89::
                        1236 .LDWlin89:
000005f0 1530           1237 	mov	r21,r6
                        1238 	jarl	_VERSION_ucDigitToAscii,lp
                        1238 <EXPANSION BEGIN>
                        1238 jarl22 _VERSION_ucDigitToAscii , lp 
000005f2 80ff0000*      1238 <EXPANSION END>
                        1239 --line672
                        1240 ..lin.C.3A.5C_ECU2.5CECU_Rivian_A1.5CTarget.5Crepo_projects.5CpRealEcu.5CcL_R2023.2E09.2E01.5Cmake.5Coutput.5Cobjects.5CRdcStandstill.90::
                        1241 .LDWlin90:
000005f6 f9c7feaa       1242 	divqu	r25,r24,r21
000005fa 1bf0           1243 	mov	r27,ep
000005fc 20d62e00       1244 	movea	46,zero,r26
00000600 8353           1245 	sst.b	r10,3[ep]
00000602 84d3           1246 	sst.b	r26,4[ep]
00000604 d836ff00       1247 	andi	255,r24,r6
                        1248 	jarl	_VERSION_ucDigitToAscii,lp
                        1248 <EXPANSION BEGIN>
                        1248 jarl22 _VERSION_ucDigitToAscii , lp 
00000608 80ff0000*      1248 <EXPANSION END>
0000060c 5b570500       1249 	st.b	r10,5[r27]
                        1250 --line673
                        1251 ..lin.C.3A.5C_ECU2.5CECU_Rivian_A1.5CTarget.5Crepo_projects.5CpRealEcu.5CcL_R2023.2E09.2E01.5Cmake.5Coutput.5Cobjects.5CRdcStandstill.91::
                        1252 .LDWlin91:
00000610 1530           1253 	mov	r21,r6
                        1254 	jarl	_VERSION_ucDigitToAscii,lp
                        1254 <EXPANSION BEGIN>
                        1254 jarl22 _VERSION_ucDigitToAscii , lp 
00000612 80ff0000*      1254 <EXPANSION END>
                        1255 --line675
                        1256 ..lin.C.3A.5C_ECU2.5CECU_Rivian_A1.5CTarget.5Crepo_projects.5CpRealEcu.5CcL_R2023.2E09.2E01.5Cmake.5Coutput.5Cobjects.5CRdcStandstill.92::

                                                                      Page 24
                                                              C:\Users\nhuliyap\AppData\Local\Temp\gh_0000b0k1.s
                        1257 .LDWlin92:
00000616 17b0           1258 	mov	r23,r22
00000618 f9b7feba       1259 	divqu	r25,r22,r23
0000061c 1bf0           1260 	mov	r27,ep
0000061e 8653           1261 	sst.b	r10,6[ep]
00000620 87d3           1262 	sst.b	r26,7[ep]
00000622 d636ff00       1263 	andi	255,r22,r6
                        1264 	jarl	_VERSION_ucDigitToAscii,lp
                        1264 <EXPANSION BEGIN>
                        1264 jarl22 _VERSION_ucDigitToAscii , lp 
00000626 80ff0000*      1264 <EXPANSION END>
0000062a 5b570800       1265 	st.b	r10,8[r27]
                        1266 --line676
                        1267 ..lin.C.3A.5C_ECU2.5CECU_Rivian_A1.5CTarget.5Crepo_projects.5CpRealEcu.5CcL_R2023.2E09.2E01.5Cmake.5Coutput.5Cobjects.5CRdcStandstill.93::
                        1268 .LDWlin93:
0000062e 1730           1269 	mov	r23,r6
                        1270 	jarl	_VERSION_ucDigitToAscii,lp
                        1270 <EXPANSION BEGIN>
                        1270 jarl22 _VERSION_ucDigitToAscii , lp 
00000630 80ff0000*      1270 <EXPANSION END>
                        1271 --line678
                        1272 ..lin.C.3A.5C_ECU2.5CECU_Rivian_A1.5CTarget.5Crepo_projects.5CpRealEcu.5CcL_R2023.2E09.2E01.5Cmake.5Coutput.5Cobjects.5CRdcStandstill.94::
                        1273 .LDWlin94:
00000634 e3670100       1274 	ld.hu	0[sp],r12
00000638 1bf0           1275 	mov	r27,ep
0000063a 209e2000       1276 	movea	32,zero,r19
0000063e 8953           1277 	sst.b	r10,9[ep]
00000640 f967feba       1278 	divqu	r25,r12,r23
00000644 8a9b           1279 	sst.b	r19,10[ep]
00000646 cc36ff00       1280 	andi	255,r12,r6
                        1281 	jarl	_VERSION_ucDigitToAscii,lp
                        1281 <EXPANSION BEGIN>
                        1281 jarl22 _VERSION_ucDigitToAscii , lp 
0000064a 80ff0000*      1281 <EXPANSION END>
0000064e 5b570b00       1282 	st.b	r10,11[r27]
                        1283 --line679
                        1284 ..lin.C.3A.5C_ECU2.5CECU_Rivian_A1.5CTarget.5Crepo_projects.5CpRealEcu.5CcL_R2023.2E09.2E01.5Cmake.5Coutput.5Cobjects.5CRdcStandstill.95::
                        1285 .LDWlin95:
00000652 1730           1286 	mov	r23,r6
                        1287 	jarl	_VERSION_ucDigitToAscii,lp
                        1287 <EXPANSION BEGIN>
                        1287 jarl22 _VERSION_ucDigitToAscii , lp 
00000654 80ff0000*      1287 <EXPANSION END>
                        1288 --line681
                        1289 ..lin.C.3A.5C_ECU2.5CECU_Rivian_A1.5CTarget.5Crepo_projects.5CpRealEcu.5CcL_R2023.2E09.2E01.5Cmake.5Coutput.5Cobjects.5CRdcStandstill.96::
                        1290 .LDWlin96:
00000658 e36f0300       1291 	ld.hu	2[sp],r13
0000065c 1bf0           1292 	mov	r27,ep
0000065e 4cd2           1293 	add	12,r26
00000660 8c53           1294 	sst.b	r10,12[ep]
00000662 f96ffeca       1295 	divqu	r25,r13,r25
00000666 8dd3           1296 	sst.b	r26,13[ep]
00000668 cd36ff00       1297 	andi	255,r13,r6
                        1298 	jarl	_VERSION_ucDigitToAscii,lp
                        1298 <EXPANSION BEGIN>
                        1298 jarl22 _VERSION_ucDigitToAscii , lp 
0000066c 80ff0000*      1298 <EXPANSION END>
00000670 5b570e00       1299 	st.b	r10,14[r27]
                        1300 --line682
                        1301 ..lin.C.3A.5C_ECU2.5CECU_Rivian_A1.5CTarget.5Crepo_projects.5CpRealEcu.5CcL_R2023.2E09.2E01.5Cmake.5Coutput.5Cobjects.5CRdcStandstill.97::
                        1302 .LDWlin97:

                                                                      Page 25
                                                              C:\Users\nhuliyap\AppData\Local\Temp\gh_0000b0k1.s
00000674 1930           1303 	mov	r25,r6
                        1304 	jarl	_VERSION_ucDigitToAscii,lp
                        1304 <EXPANSION BEGIN>
                        1304 jarl22 _VERSION_ucDigitToAscii , lp 
00000676 80ff0000*      1304 <EXPANSION END>
0000067a 1bf0           1305 	mov	r27,ep
0000067c 8f53           1306 	sst.b	r10,15[ep]
                        1307 --line683
                        1308 ..lin.C.3A.5C_ECU2.5CECU_Rivian_A1.5CTarget.5Crepo_projects.5CpRealEcu.5CcL_R2023.2E09.2E01.5Cmake.5Coutput.5Cobjects.5CRdcStandstill.98::
                        1309 .LDWlin98:
0000067e 90d3           1310 	sst.b	r26,16[ep]
00000680 1c30           1311 	mov	r28,r6
00000682 1d38           1312 	mov	r29,r7
00000684 0a42           1313 	mov	10,r8
00000686 004a           1314 	mov	0,r9
                        1315 	jarl	___gh_udiv64,lp
                        1315 <EXPANSION BEGIN>
                        1315 jarl22 ___gh_udiv64 , lp 
00000688 80ff0000*      1315 <EXPANSION END>
0000068c ca36ff00       1316 	andi	255,r10,r6
                        1317 	jarl	_VERSION_ucDigitToAscii,lp
                        1317 <EXPANSION BEGIN>
                        1317 jarl22 _VERSION_ucDigitToAscii , lp 
00000690 80ff0000*      1317 <EXPANSION END>
00000694 5b571100       1318 	st.b	r10,17[r27]
                        1319 --line685
                        1320 ..lin.C.3A.5C_ECU2.5CECU_Rivian_A1.5CTarget.5Crepo_projects.5CpRealEcu.5CcL_R2023.2E09.2E01.5Cmake.5Coutput.5Cobjects.5CRdcStandstill.99::
                        1321 .LDWlin99:
00000698 1c30           1322 	mov	r28,r6
0000069a 1d38           1323 	mov	r29,r7
0000069c 0a42           1324 	mov	10,r8
0000069e 004a           1325 	mov	0,r9
                        1326 	jarl	___gh_urem64,lp
                        1326 <EXPANSION BEGIN>
                        1326 jarl22 ___gh_urem64 , lp 
000006a0 80ff0000*      1326 <EXPANSION END>
000006a4 ca36ff00       1327 	andi	255,r10,r6
                        1328 	jarl	_VERSION_ucDigitToAscii,lp
                        1328 <EXPANSION BEGIN>
                        1328 jarl22 _VERSION_ucDigitToAscii , lp 
000006a8 80ff0000*      1328 <EXPANSION END>
000006ac 1bf0           1329 	mov	r27,ep
000006ae 9253           1330 	sst.b	r10,18[ep]
                        1331 --line686
                        1332 ..lin.C.3A.5C_ECU2.5CECU_Rivian_A1.5CTarget.5Crepo_projects.5CpRealEcu.5CcL_R2023.2E09.2E01.5Cmake.5Coutput.5Cobjects.5CRdcStandstill.100::
                        1333 .LDWlin100:
000006b0 9303           1334 	sst.b	zero,19[ep]
                        1335 --	    .ef
                        1336 .LDW93:
000006b2 4206fff7       1337 	dispose	1,{r21,r22,r23,r24,r25,r26,r27,r28,r29,r31},[lp]
                        1338 ___ghs_eofn_Rdc__ConvertLatestReceptionToEpochTime:
                        1339 	.type	_Rdc__ConvertLatestReceptionToEpochTime,@function
                        1340 	.size	_Rdc__ConvertLatestReceptionToEpochTime,.-_Rdc__ConvertLatestReceptionToEpochTime
                        1341 	.type	_Rdc__ConvertLatestReceptionToEpochTime..C.3A.5C_ECU2.5CECU_Rivian_A1.5CTarget.5Crepo_projects.5CpRealEcu.5CcL_R2023.2E09.2E01.5Cmake.5Coutput.5Cobjects.5CRdcStandstill.,@function
                        1342 	.size	_Rdc__ConvertLatestReceptionToEpochTime..C.3A.5C_ECU2.5CECU_Rivian_A1.5CTarget.5Crepo_projects.5CpRealEcu.5CcL_R2023.2E09.2E01.5Cmake.5Coutput.5Cobjects.5CRdcStandstill.,.-_Rdc__ConvertLatestReceptionToEpochTime..C.3A.5C_ECU2.5CECU_Rivian_A1.5CTarget.5Crepo_projects.5CpRealEcu.5CcL_R2023.2E09.2E01.5Cmake.5Coutput.5Cobjects.5CRdcStandstill.
                        1343 	.align	2
                        1344 --_daysSinceJan1st	.L1868	static
                        1345 --_U8_Counter	r12	local
                        1346 --_U32_LatestReceptionTimestamp_xms	r11	local
                        1347 --_sec	r28	local
                        1348 --_quadricentennials	r23	local

                                                                      Page 26
                                                              C:\Users\nhuliyap\AppData\Local\Temp\gh_0000b0k1.s
                        1349 --_centennials	r26	local
                        1350 --_quadrennials	r25	local
                        1351 --_annuals	r10	local
                        1352 --_year	r26	local
                        1353 --_leap	r22	local
                        1354 --_yday	r25	local
                        1355 --_hour	4[sp]	local
                        1356 --_min	6[sp]	local
                        1357 --_month	r24	local
                        1358 --_mday	r23	local
                        1359 
                        1360 --_PU8_TimeAndDateString	r27	param
                        1361 
                        1362 	.section ".bss","awb"
                        1363 .L1814:
                        1364 	.type	.L1814,@object
                        1365 	.size	.L1814,0
                        1366 	.section ".rodata","a"
                        1367 	.align	4
                        1368 .L1868:
                        1369 	.global	_daysSinceJan1st.Rdc__ConvertLatestReceptionToEpochTime.C.3A.5C_ECU2.5CECU_Rivian_A1.5CTarget.5Crepo_projects.5CpRealEcu.5CcL_R2023.2E09.2E01.5Cmake.5Coutput.5Cobjects.5CRdcStandstill..17
                        1370 _daysSinceJan1st.Rdc__ConvertLatestReceptionToEpochTime.C.3A.5C_ECU2.5CECU_Rivian_A1.5CTarget.5Crepo_projects.5CpRealEcu.5CcL_R2023.2E09.2E01.5Cmake.5Coutput.5Cobjects.5CRdcStandstill..17:
00000000 0000           1371 	.space	2
00000002 1f003b00       1372 	.byte	31,0,59,0
00000006 5a007800       1373 	.byte	90,0,120,0
0000000a 9700b500       1374 	.byte	151,0,181,0
0000000e d400f300       1375 	.byte	212,0,243,0
00000012 11013001       1376 	.byte	17,1,48,1
00000016 4e016d01       1377 	.byte	78,1,109,1
0000001a 0000           1378 	.space	2
0000001c 1f003c00       1379 	.byte	31,0,60,0
00000020 5b007900       1380 	.byte	91,0,121,0
00000024 9800b600       1381 	.byte	152,0,182,0
00000028 d500f400       1382 	.byte	213,0,244,0
0000002c 12013101       1383 	.byte	18,1,49,1
00000030 4f016e01       1384 	.byte	79,1,110,1
                        1385 	.type	_daysSinceJan1st.Rdc__ConvertLatestReceptionToEpochTime.C.3A.5C_ECU2.5CECU_Rivian_A1.5CTarget.5Crepo_projects.5CpRealEcu.5CcL_R2023.2E09.2E01.5Cmake.5Coutput.5Cobjects.5CRdcStandstill..17,@object
                        1386 	.size	_daysSinceJan1st.Rdc__ConvertLatestReceptionToEpochTime.C.3A.5C_ECU2.5CECU_Rivian_A1.5CTarget.5Crepo_projects.5CpRealEcu.5CcL_R2023.2E09.2E01.5Cmake.5Coutput.5Cobjects.5CRdcStandstill..17,52
                        1387 	.type	.L1868,@object
                        1388 	.size	.L1868,52
                        1389 	.data
                        1390 	.text
                        1391 	.align	2
                        1392 	.align	2
                        1393 ..gh.f.f.1.e.10:
                        1394 	.type	..gh.f.f.1.e.10,@object
                        1395 	.size	..gh.f.f.1.e.10,0
                        1396 	.global	_RdcSt__SaveStatusInNvm..C.3A.5C_ECU2.5CECU_Rivian_A1.5CTarget.5Crepo_projects.5CpRealEcu.5CcL_R2023.2E09.2E01.5Cmake.5Coutput.5Cobjects.5CRdcStandstill.
                        1397 _RdcSt__SaveStatusInNvm..C.3A.5C_ECU2.5CECU_Rivian_A1.5CTarget.5Crepo_projects.5CpRealEcu.5CcL_R2023.2E09.2E01.5Cmake.5Coutput.5Cobjects.5CRdcStandstill.:
                        1398 _RdcSt__SaveStatusInNvm:
000006b6 8c076300       1399 	prepare	{r29,r31},6,sp
                        1400 --	    .bf
                        1401 .LDW04:
000006ba 3d0600000000*  1402 	mov	_RdcSt__AS_WSData,r29
000006c0 fd3f0700       1403 	ld.hu	6[r29],r7
                        1404 --line695
                        1405 ..lin.C.3A.5C_ECU2.5CECU_Rivian_A1.5CTarget.5Crepo_projects.5CpRealEcu.5CcL_R2023.2E09.2E01.5Cmake.5Coutput.5Cobjects.5CRdcStandstill.101::
                        1406 .LDWlin101:
000006c4 0e32           1407 	mov	14,r6
000006c6 0788           1408 	mov	r7,r17
000006c8 888a           1409 	shr	8,r17

                                                                      Page 27
                                                              C:\Users\nhuliyap\AppData\Local\Temp\gh_0000b0k1.s
000006ca 813b           1410 	sst.b	r7,1[ep]
000006cc 808b           1411 	sst.b	r17,0[ep]
000006ce 0338           1412 	mov	sp,r7
                        1413 	jarl	_NvmMGR_WriteBSWMember,lp
                        1413 <EXPANSION BEGIN>
                        1413 jarl22 _NvmMGR_WriteBSWMember , lp 
000006d0 80ff0000*      1413 <EXPANSION END>
                        1414 --line697
                        1415 ..lin.C.3A.5C_ECU2.5CECU_Rivian_A1.5CTarget.5Crepo_projects.5CpRealEcu.5CcL_R2023.2E09.2E01.5Cmake.5Coutput.5Cobjects.5CRdcStandstill.102::
                        1416 .LDWlin102:
000006d4 fd470f00       1417 	ld.hu	14[r29],r8
000006d8 03f0           1418 	mov	sp,ep
000006da 0f32           1419 	mov	15,r6
000006dc 0338           1420 	mov	sp,r7
000006de 0880           1421 	mov	r8,r16
000006e0 8882           1422 	shr	8,r16
000006e2 8083           1423 	sst.b	r16,0[ep]
000006e4 8143           1424 	sst.b	r8,1[ep]
                        1425 	jarl	_NvmMGR_WriteBSWMember,lp
                        1425 <EXPANSION BEGIN>
                        1425 jarl22 _NvmMGR_WriteBSWMember , lp 
000006e6 80ff0000*      1425 <EXPANSION END>
                        1426 --line701
                        1427 ..lin.C.3A.5C_ECU2.5CECU_Rivian_A1.5CTarget.5Crepo_projects.5CpRealEcu.5CcL_R2023.2E09.2E01.5Cmake.5Coutput.5Cobjects.5CRdcStandstill.103::
                        1428 .LDWlin103:
000006ea fd4f1700       1429 	ld.hu	22[r29],r9
000006ee 03f0           1430 	mov	sp,ep
000006f0 20361000       1431 	movea	16,zero,r6
000006f4 0338           1432 	mov	sp,r7
000006f6 0978           1433 	mov	r9,r15
000006f8 887a           1434 	shr	8,r15
000006fa 807b           1435 	sst.b	r15,0[ep]
000006fc 814b           1436 	sst.b	r9,1[ep]
                        1437 	jarl	_NvmMGR_WriteBSWMember,lp
                        1437 <EXPANSION BEGIN>
                        1437 jarl22 _NvmMGR_WriteBSWMember , lp 
000006fe 80ff0000*      1437 <EXPANSION END>
                        1438 --line705
                        1439 ..lin.C.3A.5C_ECU2.5CECU_Rivian_A1.5CTarget.5Crepo_projects.5CpRealEcu.5CcL_R2023.2E09.2E01.5Cmake.5Coutput.5Cobjects.5CRdcStandstill.104::
                        1440 .LDWlin104:
00000702 fd571f00       1441 	ld.hu	30[r29],r10
00000706 03f0           1442 	mov	sp,ep
00000708 20361100       1443 	movea	17,zero,r6
0000070c 0338           1444 	mov	sp,r7
0000070e 0a70           1445 	mov	r10,r14
00000710 8872           1446 	shr	8,r14
00000712 8073           1447 	sst.b	r14,0[ep]
00000714 8153           1448 	sst.b	r10,1[ep]
                        1449 	jarl	_NvmMGR_WriteBSWMember,lp
                        1449 <EXPANSION BEGIN>
                        1449 jarl22 _NvmMGR_WriteBSWMember , lp 
00000716 80ff0000*      1449 <EXPANSION END>
                        1450 --line709
                        1451 ..lin.C.3A.5C_ECU2.5CECU_Rivian_A1.5CTarget.5Crepo_projects.5CpRealEcu.5CcL_R2023.2E09.2E01.5Cmake.5Coutput.5Cobjects.5CRdcStandstill.105::
                        1452 .LDWlin105:
0000071a 23360400       1453 	movea	4,sp,r6
                        1454 	jarl	_Rdc__ConvertLatestReceptionToEpochTime,lp
                        1454 <EXPANSION BEGIN>
                        1454 jarl22 _Rdc__ConvertLatestReceptionToEpochTime , lp 
0000071e bfffaefc*      1454 <EXPANSION END>
                        1455 --line710

                                                                      Page 28
                                                              C:\Users\nhuliyap\AppData\Local\Temp\gh_0000b0k1.s
                        1456 ..lin.C.3A.5C_ECU2.5CECU_Rivian_A1.5CTarget.5Crepo_projects.5CpRealEcu.5CcL_R2023.2E09.2E01.5Cmake.5Coutput.5Cobjects.5CRdcStandstill.106::
                        1457 .LDWlin106:
00000722 20361200       1458 	movea	18,zero,r6
00000726 233e0400       1459 	movea	4,sp,r7
                        1460 	jarl	_NvmMGR_WriteBSWMember,lp
                        1460 <EXPANSION BEGIN>
                        1460 jarl22 _NvmMGR_WriteBSWMember , lp 
0000072a 80ff0000*      1460 <EXPANSION END>
                        1461 --line712
                        1462 ..lin.C.3A.5C_ECU2.5CECU_Rivian_A1.5CTarget.5Crepo_projects.5CpRealEcu.5CcL_R2023.2E09.2E01.5Cmake.5Coutput.5Cobjects.5CRdcStandstill.107::
                        1463 .LDWlin107:
0000072e 40960000*      1464 	movhi	hi(_RdcSt__U32_ElapsedTimeInMs),zero,r18
00000732 32970100*      1465 	ld.w	lo(_RdcSt__U32_ElapsedTimeInMs)[r18],r18
00000736 03f0           1466 	mov	sp,ep
                        1467 --line716
                        1468 ..lin.C.3A.5C_ECU2.5CECU_Rivian_A1.5CTarget.5Crepo_projects.5CpRealEcu.5CcL_R2023.2E09.2E01.5Cmake.5Coutput.5Cobjects.5CRdcStandstill.108::
                        1469 .LDWlin108:
00000738 20361300       1470 	movea	19,zero,r6
0000073c 0338           1471 	mov	sp,r7
0000073e 1268           1472 	mov	r18,r13
00000740 1260           1473 	mov	r18,r12
00000742 1258           1474 	mov	r18,r11
00000744 986a           1475 	shr	24,r13
00000746 9062           1476 	shr	16,r12
00000748 885a           1477 	shr	8,r11
0000074a 806b           1478 	sst.b	r13,0[ep]
0000074c 8163           1479 	sst.b	r12,1[ep]
0000074e 825b           1480 	sst.b	r11,2[ep]
00000750 8393           1481 	sst.b	r18,3[ep]
                        1482 	jarl	_NvmMGR_WriteBSWMember,lp
                        1482 <EXPANSION BEGIN>
                        1482 jarl22 _NvmMGR_WriteBSWMember , lp 
00000752 80ff0000*      1482 <EXPANSION END>
                        1483 --	    .ef
                        1484 .LDW14:
                        1485 --line717
                        1486 ..lin.C.3A.5C_ECU2.5CECU_Rivian_A1.5CTarget.5Crepo_projects.5CpRealEcu.5CcL_R2023.2E09.2E01.5Cmake.5Coutput.5Cobjects.5CRdcStandstill.109::
                        1487 .LDWlin109:
00000756 4c067f00       1488 	dispose	6,{r29,r31},[lp]
                        1489 ___ghs_eofn_RdcSt__SaveStatusInNvm:
                        1490 	.type	_RdcSt__SaveStatusInNvm,@function
                        1491 	.size	_RdcSt__SaveStatusInNvm,.-_RdcSt__SaveStatusInNvm
                        1492 	.type	_RdcSt__SaveStatusInNvm..C.3A.5C_ECU2.5CECU_Rivian_A1.5CTarget.5Crepo_projects.5CpRealEcu.5CcL_R2023.2E09.2E01.5Cmake.5Coutput.5Cobjects.5CRdcStandstill.,@function
                        1493 	.size	_RdcSt__SaveStatusInNvm..C.3A.5C_ECU2.5CECU_Rivian_A1.5CTarget.5Crepo_projects.5CpRealEcu.5CcL_R2023.2E09.2E01.5Cmake.5Coutput.5Cobjects.5CRdcStandstill.,.-_RdcSt__SaveStatusInNvm..C.3A.5C_ECU2.5CECU_Rivian_A1.5CTarget.5Crepo_projects.5CpRealEcu.5CcL_R2023.2E09.2E01.5Cmake.5Coutput.5Cobjects.5CRdcStandstill.
                        1494 	.align	2
                        1495 --_AU8_TimeAndDateString	4[sp]	local
                        1496 --_AU8_TemporaryBuffer	0[sp]	local
                        1497 
                        1498 	.section ".bss","awb"
                        1499 .L1956:
                        1500 	.type	.L1956,@object
                        1501 	.size	.L1956,0
                        1502 	.data
                        1503 	.text
                        1504 	.align	2
                        1505 	.align	2
                        1506 ..gh.f.f.1.e.11:
                        1507 	.type	..gh.f.f.1.e.11,@object
                        1508 	.size	..gh.f.f.1.e.11,0
                        1509 	.global	_RdcSt__SaveDataInNvm..C.3A.5C_ECU2.5CECU_Rivian_A1.5CTarget.5Crepo_projects.5CpRealEcu.5CcL_R2023.2E09.2E01.5Cmake.5Coutput.5Cobjects.5CRdcStandstill.
                        1510 _RdcSt__SaveDataInNvm..C.3A.5C_ECU2.5CECU_Rivian_A1.5CTarget.5Crepo_projects.5CpRealEcu.5CcL_R2023.2E09.2E01.5Cmake.5Coutput.5Cobjects.5CRdcStandstill.:

                                                                      Page 29
                                                              C:\Users\nhuliyap\AppData\Local\Temp\gh_0000b0k1.s
                        1511 _RdcSt__SaveDataInNvm:
0000075a 82076100       1512 	prepare	{r29,r31},1
                        1513 --	    .bf
                        1514 .LDW24:
0000075e 2096aaff       1515 	movea	-86,zero,r18
00000762 3d0600000000*  1516 	mov	_RdcSt__AS_WSData,r29
00000768 43970300       1517 	st.b	r18,3[sp]
0000076c 1d3e0400       1518 	addi	4,r29,r7
00000770 0632           1519 	mov	6,r6
                        1520 	jarl	_NvmMGR_WriteBSWMember,lp
                        1520 <EXPANSION BEGIN>
                        1520 jarl22 _NvmMGR_WriteBSWMember , lp 
00000772 80ff0000*      1520 <EXPANSION END>
                        1521 --line528
                        1522 ..lin.C.3A.5C_ECU2.5CECU_Rivian_A1.5CTarget.5Crepo_projects.5CpRealEcu.5CcL_R2023.2E09.2E01.5Cmake.5Coutput.5Cobjects.5CRdcStandstill.110::
                        1523 .LDWlin110:
00000776 1d3e0500       1524 	addi	5,r29,r7
0000077a 0732           1525 	mov	7,r6
                        1526 	jarl	_NvmMGR_WriteBSWMember,lp
                        1526 <EXPANSION BEGIN>
                        1526 jarl22 _NvmMGR_WriteBSWMember , lp 
0000077c 80ff0000*      1526 <EXPANSION END>
                        1527 --line530
                        1528 ..lin.C.3A.5C_ECU2.5CECU_Rivian_A1.5CTarget.5Crepo_projects.5CpRealEcu.5CcL_R2023.2E09.2E01.5Cmake.5Coutput.5Cobjects.5CRdcStandstill.111::
                        1529 .LDWlin111:
00000780 1d3e0c00       1530 	addi	12,r29,r7
00000784 0832           1531 	mov	8,r6
                        1532 	jarl	_NvmMGR_WriteBSWMember,lp
                        1532 <EXPANSION BEGIN>
                        1532 jarl22 _NvmMGR_WriteBSWMember , lp 
00000786 80ff0000*      1532 <EXPANSION END>
                        1533 --line531
                        1534 ..lin.C.3A.5C_ECU2.5CECU_Rivian_A1.5CTarget.5Crepo_projects.5CpRealEcu.5CcL_R2023.2E09.2E01.5Cmake.5Coutput.5Cobjects.5CRdcStandstill.112::
                        1535 .LDWlin112:
0000078a 1d3e0d00       1536 	addi	13,r29,r7
0000078e 0932           1537 	mov	9,r6
                        1538 	jarl	_NvmMGR_WriteBSWMember,lp
                        1538 <EXPANSION BEGIN>
                        1538 jarl22 _NvmMGR_WriteBSWMember , lp 
00000790 80ff0000*      1538 <EXPANSION END>
                        1539 --line533
                        1540 ..lin.C.3A.5C_ECU2.5CECU_Rivian_A1.5CTarget.5Crepo_projects.5CpRealEcu.5CcL_R2023.2E09.2E01.5Cmake.5Coutput.5Cobjects.5CRdcStandstill.113::
                        1541 .LDWlin113:
00000794 1d3e1400       1542 	addi	20,r29,r7
00000798 0a32           1543 	mov	10,r6
                        1544 	jarl	_NvmMGR_WriteBSWMember,lp
                        1544 <EXPANSION BEGIN>
                        1544 jarl22 _NvmMGR_WriteBSWMember , lp 
0000079a 80ff0000*      1544 <EXPANSION END>
                        1545 --line534
                        1546 ..lin.C.3A.5C_ECU2.5CECU_Rivian_A1.5CTarget.5Crepo_projects.5CpRealEcu.5CcL_R2023.2E09.2E01.5Cmake.5Coutput.5Cobjects.5CRdcStandstill.114::
                        1547 .LDWlin114:
0000079e 1d3e1500       1548 	addi	21,r29,r7
000007a2 0b32           1549 	mov	11,r6
                        1550 	jarl	_NvmMGR_WriteBSWMember,lp
                        1550 <EXPANSION BEGIN>
                        1550 jarl22 _NvmMGR_WriteBSWMember , lp 
000007a4 80ff0000*      1550 <EXPANSION END>
                        1551 --line536
                        1552 ..lin.C.3A.5C_ECU2.5CECU_Rivian_A1.5CTarget.5Crepo_projects.5CpRealEcu.5CcL_R2023.2E09.2E01.5Cmake.5Coutput.5Cobjects.5CRdcStandstill.115::
                        1553 .LDWlin115:

                                                                      Page 30
                                                              C:\Users\nhuliyap\AppData\Local\Temp\gh_0000b0k1.s
000007a8 1d3e1c00       1554 	addi	28,r29,r7
000007ac 0c32           1555 	mov	12,r6
                        1556 	jarl	_NvmMGR_WriteBSWMember,lp
                        1556 <EXPANSION BEGIN>
                        1556 jarl22 _NvmMGR_WriteBSWMember , lp 
000007ae 80ff0000*      1556 <EXPANSION END>
                        1557 --line537
                        1558 ..lin.C.3A.5C_ECU2.5CECU_Rivian_A1.5CTarget.5Crepo_projects.5CpRealEcu.5CcL_R2023.2E09.2E01.5Cmake.5Coutput.5Cobjects.5CRdcStandstill.116::
                        1559 .LDWlin116:
000007b2 1d3e1d00       1560 	addi	29,r29,r7
000007b6 0d32           1561 	mov	13,r6
                        1562 	jarl	_NvmMGR_WriteBSWMember,lp
                        1562 <EXPANSION BEGIN>
                        1562 jarl22 _NvmMGR_WriteBSWMember , lp 
000007b8 80ff0000*      1562 <EXPANSION END>
                        1563 --line539
                        1564 ..lin.C.3A.5C_ECU2.5CECU_Rivian_A1.5CTarget.5Crepo_projects.5CpRealEcu.5CcL_R2023.2E09.2E01.5Cmake.5Coutput.5Cobjects.5CRdcStandstill.117::
                        1565 .LDWlin117:
000007bc 0532           1566 	mov	5,r6
000007be 233e0300       1567 	movea	3,sp,r7
                        1568 	jarl	_NvmMGR_WriteBSWMember,lp
                        1568 <EXPANSION BEGIN>
                        1568 jarl22 _NvmMGR_WriteBSWMember , lp 
000007c2 80ff0000*      1568 <EXPANSION END>
                        1569 --	    .ef
                        1570 .LDW34:
                        1571 --line540
                        1572 ..lin.C.3A.5C_ECU2.5CECU_Rivian_A1.5CTarget.5Crepo_projects.5CpRealEcu.5CcL_R2023.2E09.2E01.5Cmake.5Coutput.5Cobjects.5CRdcStandstill.118::
                        1573 .LDWlin118:
000007c6 42067f00       1574 	dispose	1,{r29,r31},[lp]
                        1575 ___ghs_eofn_RdcSt__SaveDataInNvm:
                        1576 	.type	_RdcSt__SaveDataInNvm,@function
                        1577 	.size	_RdcSt__SaveDataInNvm,.-_RdcSt__SaveDataInNvm
                        1578 	.type	_RdcSt__SaveDataInNvm..C.3A.5C_ECU2.5CECU_Rivian_A1.5CTarget.5Crepo_projects.5CpRealEcu.5CcL_R2023.2E09.2E01.5Cmake.5Coutput.5Cobjects.5CRdcStandstill.,@function
                        1579 	.size	_RdcSt__SaveDataInNvm..C.3A.5C_ECU2.5CECU_Rivian_A1.5CTarget.5Crepo_projects.5CpRealEcu.5CcL_R2023.2E09.2E01.5Cmake.5Coutput.5Cobjects.5CRdcStandstill.,.-_RdcSt__SaveDataInNvm..C.3A.5C_ECU2.5CECU_Rivian_A1.5CTarget.5Crepo_projects.5CpRealEcu.5CcL_R2023.2E09.2E01.5Cmake.5Coutput.5Cobjects.5CRdcStandstill.
                        1580 	.align	2
                        1581 --_U8_DataExistence	3[sp]	local
                        1582 
                        1583 	.section ".bss","awb"
                        1584 .L2001:
                        1585 	.type	.L2001,@object
                        1586 	.size	.L2001,0
                        1587 	.data
                        1588 	.text
                        1589 	.align	2
                        1590 	.align	2
                        1591 ..gh.f.f.1.e.12:
                        1592 	.type	..gh.f.f.1.e.12,@object
                        1593 	.size	..gh.f.f.1.e.12,0
                        1594 	.global	_RdcSt__AreTimersExpiringSoon..C.3A.5C_ECU2.5CECU_Rivian_A1.5CTarget.5Crepo_projects.5CpRealEcu.5CcL_R2023.2E09.2E01.5Cmake.5Coutput.5Cobjects.5CRdcStandstill.
                        1595 _RdcSt__AreTimersExpiringSoon..C.3A.5C_ECU2.5CECU_Rivian_A1.5CTarget.5Crepo_projects.5CpRealEcu.5CcL_R2023.2E09.2E01.5Cmake.5Coutput.5Cobjects.5CRdcStandstill.:
                        1596 _RdcSt__AreTimersExpiringSoon:
000007ca 8207e100       1597 	prepare	{r28,r29,r31},1
                        1598 --	    .bf
                        1599 .LDW44:
000007ce 00e2           1600 	mov	0,r28
000007d0 1ce8           1601 	mov	r28,r29
                        1602 .L2023:
                        1603 --	    .bs
                        1604 .LDW54:
000007d2 1d30           1605 	mov	r29,r6

                                                                      Page 31
                                                              C:\Users\nhuliyap\AppData\Local\Temp\gh_0000b0k1.s
000007d4 0338           1606 	mov	sp,r7
                        1607 	jarl	_Tau_GetTimer,lp
                        1607 <EXPANSION BEGIN>
                        1607 jarl22 _Tau_GetTimer , lp 
000007d6 80ff0000*      1607 <EXPANSION END>
                        1608 --line515
                        1609 ..lin.C.3A.5C_ECU2.5CECU_Rivian_A1.5CTarget.5Crepo_projects.5CpRealEcu.5CcL_R2023.2E09.2E01.5Cmake.5Coutput.5Cobjects.5CRdcStandstill.119::
                        1610 .LDWlin119:
000007da 23970100       1611 	ld.w	0[sp],r18
000007de 120618fc       1612 	addi	-1000,r18,zero
000007e2 e1e712e3       1613 	cmovnl	1,r28,r28
                        1614 --	    .es
                        1615 .LDW64:
000007e6 41ea           1616 	add	1,r29
000007e8 64ea           1617 	cmp	4,r29
000007ea c1f5*          1618 	bl	.L2023
                        1619 --line521
                        1620 ..lin.C.3A.5C_ECU2.5CECU_Rivian_A1.5CTarget.5Crepo_projects.5CpRealEcu.5CcL_R2023.2E09.2E01.5Cmake.5Coutput.5Cobjects.5CRdcStandstill.120::
                        1621 .LDWlin120:
000007ec 1c50           1622 	mov	r28,r10
                        1623 --	    .ef
                        1624 .LDW74:
000007ee 4206ff00       1625 	dispose	1,{r28,r29,r31},[lp]
                        1626 ___ghs_eofn_RdcSt__AreTimersExpiringSoon:
                        1627 	.type	_RdcSt__AreTimersExpiringSoon,@function
                        1628 	.size	_RdcSt__AreTimersExpiringSoon,.-_RdcSt__AreTimersExpiringSoon
                        1629 	.type	_RdcSt__AreTimersExpiringSoon..C.3A.5C_ECU2.5CECU_Rivian_A1.5CTarget.5Crepo_projects.5CpRealEcu.5CcL_R2023.2E09.2E01.5Cmake.5Coutput.5Cobjects.5CRdcStandstill.,@function
                        1630 	.size	_RdcSt__AreTimersExpiringSoon..C.3A.5C_ECU2.5CECU_Rivian_A1.5CTarget.5Crepo_projects.5CpRealEcu.5CcL_R2023.2E09.2E01.5Cmake.5Coutput.5Cobjects.5CRdcStandstill.,.-_RdcSt__AreTimersExpiringSoon..C.3A.5C_ECU2.5CECU_Rivian_A1.5CTarget.5Crepo_projects.5CpRealEcu.5CcL_R2023.2E09.2E01.5Cmake.5Coutput.5Cobjects.5CRdcStandstill.
                        1631 	.align	2
                        1632 --_U8_Counter	r29	local
                        1633 --_BO_AreTimersExpiringSoon	r28	local
                        1634 --_U32_TimerValue	0[sp]	local
                        1635 
                        1636 	.section ".bss","awb"
                        1637 .L2079:
                        1638 	.type	.L2079,@object
                        1639 	.size	.L2079,0
                        1640 	.data
                        1641 	.text
                        1642 	.align	2
                        1643 	.align	2
                        1644 ..gh.f.f.1.e.13:
                        1645 	.type	..gh.f.f.1.e.13,@object
                        1646 	.size	..gh.f.f.1.e.13,0
                        1647 	.global	_RdcSt__UpdateWakeupTimer..C.3A.5C_ECU2.5CECU_Rivian_A1.5CTarget.5Crepo_projects.5CpRealEcu.5CcL_R2023.2E09.2E01.5Cmake.5Coutput.5Cobjects.5CRdcStandstill.
                        1648 _RdcSt__UpdateWakeupTimer..C.3A.5C_ECU2.5CECU_Rivian_A1.5CTarget.5Crepo_projects.5CpRealEcu.5CcL_R2023.2E09.2E01.5Cmake.5Coutput.5Cobjects.5CRdcStandstill.:
                        1649 _RdcSt__UpdateWakeupTimer:
000007f2 80073b000000*  1650 	prepare	{r31},0,_RdcSt__U32_WakeupInterval_xms
000007f8 0000*
                        1651 --	    .bf
                        1652 .LDW84:
000007fa 40960000*      1653 	movhi	hi(_RdcSt__U32_ElapsedTimeInMs),zero,r18
000007fe 32970100*      1654 	ld.w	lo(_RdcSt__U32_ElapsedTimeInMs)[r18],r18
00000802 2d06005c2605   1655 	mov	86400000,r13
00000808 310600000000*  1656 	mov	_RdcSt__UN_PressureOnKeyConfig,r17
0000080e ed91           1657 	cmp	r13,r18
00000810 a90d*          1658 	bnl	.L2123
                        1659 --line484
                        1660 ..lin.C.3A.5C_ECU2.5CECU_Rivian_A1.5CTarget.5Crepo_projects.5CpRealEcu.5CcL_R2023.2E09.2E01.5Cmake.5Coutput.5Cobjects.5CRdcStandstill.121::
                        1661 .LDWlin121:
00000812 b1670100       1662 	ld.bu	1[r17],r12

                                                                      Page 32
                                                              C:\Users\nhuliyap\AppData\Local\Temp\gh_0000b0k1.s
00000816 808660ea       1663 	ori	60000,zero,r16
0000081a ec872202       1664 	mulu	r12,r16,zero
0000081e 0185           1665 	sst.w	r16,0[ep]
00000820 40063f00       1666 	dispose	0,{r31},[lp]
                        1667 .L2123:
                        1668 --line486
                        1669 ..lin.C.3A.5C_ECU2.5CECU_Rivian_A1.5CTarget.5Crepo_projects.5CpRealEcu.5CcL_R2023.2E09.2E01.5Cmake.5Coutput.5Cobjects.5CRdcStandstill.122::
                        1670 .LDWlin122:
00000824 2b060028e61e   1671 	mov	518400000,r11
0000082a eb91           1672 	cmp	r11,r18
0000082c b90d*          1673 	bnl	.L2126
                        1674 --line489
                        1675 ..lin.C.3A.5C_ECU2.5CECU_Rivian_A1.5CTarget.5Crepo_projects.5CpRealEcu.5CcL_R2023.2E09.2E01.5Cmake.5Coutput.5Cobjects.5CRdcStandstill.123::
                        1676 .LDWlin123:
0000082e b1570100       1677 	ld.bu	1[r17],r10
00000832 2f0620bf0200   1678 	mov	180000,r15
00000838 ea7f2202       1679 	mulu	r10,r15,zero
0000083c 017d           1680 	sst.w	r15,0[ep]
0000083e 40063f00       1681 	dispose	0,{r31},[lp]
                        1682 .L2126:
                        1683 --line491
                        1684 ..lin.C.3A.5C_ECU2.5CECU_Rivian_A1.5CTarget.5Crepo_projects.5CpRealEcu.5CcL_R2023.2E09.2E01.5Cmake.5Coutput.5Cobjects.5CRdcStandstill.124::
                        1685 .LDWlin124:
00000842 290600e84b71   1686 	mov	1900800000,r9
00000848 e991           1687 	cmp	r9,r18
0000084a b90d*          1688 	bnl	.L2129
                        1689 --line494
                        1690 ..lin.C.3A.5C_ECU2.5CECU_Rivian_A1.5CTarget.5Crepo_projects.5CpRealEcu.5CcL_R2023.2E09.2E01.5Cmake.5Coutput.5Cobjects.5CRdcStandstill.125::
                        1691 .LDWlin125:
0000084c b1470100       1692 	ld.bu	1[r17],r8
00000850 2e06c0270900   1693 	mov	600000,r14
00000856 e8772202       1694 	mulu	r8,r14,zero
0000085a 0175           1695 	sst.w	r14,0[ep]
0000085c 40063f00       1696 	dispose	0,{r31},[lp]
                        1697 .L2129:
                        1698 --line498
                        1699 ..lin.C.3A.5C_ECU2.5CECU_Rivian_A1.5CTarget.5Crepo_projects.5CpRealEcu.5CcL_R2023.2E09.2E01.5Cmake.5Coutput.5Cobjects.5CRdcStandstill.126::
                        1700 .LDWlin126:
                        1701 	jarl	_RdcSt_StopStandstillMonitoring,lp
                        1701 <EXPANSION BEGIN>
                        1701 jarl22 _RdcSt_StopStandstillMonitoring , lp 
00000860 bfff58f9*      1701 <EXPANSION END>
                        1702 --line499
                        1703 ..lin.C.3A.5C_ECU2.5CECU_Rivian_A1.5CTarget.5Crepo_projects.5CpRealEcu.5CcL_R2023.2E09.2E01.5Cmake.5Coutput.5Cobjects.5CRdcStandstill.127::
                        1704 .LDWlin127:
                        1705 	jarl	_RdcSt__SaveStatusInNvm,lp
                        1705 <EXPANSION BEGIN>
                        1705 jarl22 _RdcSt__SaveStatusInNvm , lp 
00000864 bfff52fe*      1705 <EXPANSION END>
                        1706 --line500
                        1707 ..lin.C.3A.5C_ECU2.5CECU_Rivian_A1.5CTarget.5Crepo_projects.5CpRealEcu.5CcL_R2023.2E09.2E01.5Cmake.5Coutput.5Cobjects.5CRdcStandstill.128::
                        1708 .LDWlin128:
                        1709 	jarl	_RdcSt__SaveDataInNvm,lp
                        1709 <EXPANSION BEGIN>
                        1709 jarl22 _RdcSt__SaveDataInNvm , lp 
00000868 bffff2fe*      1709 <EXPANSION END>
                        1710 --line501
                        1711 ..lin.C.3A.5C_ECU2.5CECU_Rivian_A1.5CTarget.5Crepo_projects.5CpRealEcu.5CcL_R2023.2E09.2E01.5Cmake.5Coutput.5Cobjects.5CRdcStandstill.129::
                        1712 .LDWlin129:
0000086c 0b32           1713 	mov	11,r6
                        1714 	jarl	_SYSMGR_SetEcuEvent,lp

                                                                      Page 33
                                                              C:\Users\nhuliyap\AppData\Local\Temp\gh_0000b0k1.s
                        1714 <EXPANSION BEGIN>
                        1714 jarl22 _SYSMGR_SetEcuEvent , lp 
0000086e 80ff0000*      1714 <EXPANSION END>
                        1715 --	    .ef
                        1716 .LDW94:
                        1717 --line503
                        1718 ..lin.C.3A.5C_ECU2.5CECU_Rivian_A1.5CTarget.5Crepo_projects.5CpRealEcu.5CcL_R2023.2E09.2E01.5Cmake.5Coutput.5Cobjects.5CRdcStandstill.130::
                        1719 .LDWlin130:
00000872 40063f00       1720 	dispose	0,{r31},[lp]
                        1721 ___ghs_eofn_RdcSt__UpdateWakeupTimer:
                        1722 	.type	_RdcSt__UpdateWakeupTimer,@function
                        1723 	.size	_RdcSt__UpdateWakeupTimer,.-_RdcSt__UpdateWakeupTimer
                        1724 	.type	_RdcSt__UpdateWakeupTimer..C.3A.5C_ECU2.5CECU_Rivian_A1.5CTarget.5Crepo_projects.5CpRealEcu.5CcL_R2023.2E09.2E01.5Cmake.5Coutput.5Cobjects.5CRdcStandstill.,@function
                        1725 	.size	_RdcSt__UpdateWakeupTimer..C.3A.5C_ECU2.5CECU_Rivian_A1.5CTarget.5Crepo_projects.5CpRealEcu.5CcL_R2023.2E09.2E01.5Cmake.5Coutput.5Cobjects.5CRdcStandstill.,.-_RdcSt__UpdateWakeupTimer..C.3A.5C_ECU2.5CECU_Rivian_A1.5CTarget.5Crepo_projects.5CpRealEcu.5CcL_R2023.2E09.2E01.5Cmake.5Coutput.5Cobjects.5CRdcStandstill.
                        1726 	.align	2
                        1727 
                        1728 	.section ".bss","awb"
                        1729 .L2191:
                        1730 	.type	.L2191,@object
                        1731 	.size	.L2191,0
                        1732 	.data
                        1733 	.text
                        1734 	.align	2
                        1735 	.align	2
                        1736 ..gh.f.f.1.e.14:
                        1737 	.type	..gh.f.f.1.e.14,@object
                        1738 	.size	..gh.f.f.1.e.14,0
                        1739 	.global	_RdcSt__UpdateSyncPeriod..C.3A.5C_ECU2.5CECU_Rivian_A1.5CTarget.5Crepo_projects.5CpRealEcu.5CcL_R2023.2E09.2E01.5Cmake.5Coutput.5Cobjects.5CRdcStandstill.
                        1740 _RdcSt__UpdateSyncPeriod..C.3A.5C_ECU2.5CECU_Rivian_A1.5CTarget.5Crepo_projects.5CpRealEcu.5CcL_R2023.2E09.2E01.5Cmake.5Coutput.5Cobjects.5CRdcStandstill.:
                        1741 _RdcSt__UpdateSyncPeriod:
00000876 82072100       1742 	prepare	{r31},1
                        1743 --	    .bf
                        1744 .LDW05:
0000087a 0330           1745 	mov	sp,r6
                        1746 	jarl	_ClientIf_GetECUTimeStampValue,lp
                        1746 <EXPANSION BEGIN>
                        1746 jarl22 _ClientIf_GetECUTimeStampValue , lp 
0000087c 80ff0000*      1746 <EXPANSION END>
                        1747 --line389
                        1748 ..lin.C.3A.5C_ECU2.5CECU_Rivian_A1.5CTarget.5Crepo_projects.5CpRealEcu.5CcL_R2023.2E09.2E01.5Cmake.5Coutput.5Cobjects.5CRdcStandstill.131::
                        1749 .LDWlin131:
00000880 408e0000*      1750 	movhi	hi(_RdcSt__U32_StartOfStandstillTimestamp),zero,r17
00000884 23970100       1751 	ld.w	0[sp],r18
00000888 318f0100*      1752 	ld.w	lo(_RdcSt__U32_StartOfStandstillTimestamp)[r17],r17
0000088c 808660ea       1753 	ori	60000,zero,r16
00000890 b191           1754 	sub	r17,r18
00000892 f091           1755 	cmp	r16,r18
00000894 e105*          1756 	bl	.L2269
                        1757 --line392
                        1758 ..lin.C.3A.5C_ECU2.5CECU_Rivian_A1.5CTarget.5Crepo_projects.5CpRealEcu.5CcL_R2023.2E09.2E01.5Cmake.5Coutput.5Cobjects.5CRdcStandstill.132::
                        1759 .LDWlin132:
00000896 017a           1760 	mov	1,r15
00000898 405e0000*      1761 	movhi	hi(_RdcSt__BO_HasSyncPeriodExpired),zero,r11
0000089c 4b7f0000*      1762 	st.b	r15,lo(_RdcSt__BO_HasSyncPeriodExpired)[r11]
                        1763 .L2269:
                        1764 --	    .ef
                        1765 .LDW15:
                        1766 --line397
                        1767 ..lin.C.3A.5C_ECU2.5CECU_Rivian_A1.5CTarget.5Crepo_projects.5CpRealEcu.5CcL_R2023.2E09.2E01.5Cmake.5Coutput.5Cobjects.5CRdcStandstill.133::
                        1768 .LDWlin133:
000008a0 42063f00       1769 	dispose	1,{r31},[lp]

                                                                      Page 34
                                                              C:\Users\nhuliyap\AppData\Local\Temp\gh_0000b0k1.s
                        1770 ___ghs_eofn_RdcSt__UpdateSyncPeriod:
                        1771 	.type	_RdcSt__UpdateSyncPeriod,@function
                        1772 	.size	_RdcSt__UpdateSyncPeriod,.-_RdcSt__UpdateSyncPeriod
                        1773 	.type	_RdcSt__UpdateSyncPeriod..C.3A.5C_ECU2.5CECU_Rivian_A1.5CTarget.5Crepo_projects.5CpRealEcu.5CcL_R2023.2E09.2E01.5Cmake.5Coutput.5Cobjects.5CRdcStandstill.,@function
                        1774 	.size	_RdcSt__UpdateSyncPeriod..C.3A.5C_ECU2.5CECU_Rivian_A1.5CTarget.5Crepo_projects.5CpRealEcu.5CcL_R2023.2E09.2E01.5Cmake.5Coutput.5Cobjects.5CRdcStandstill.,.-_RdcSt__UpdateSyncPeriod..C.3A.5C_ECU2.5CECU_Rivian_A1.5CTarget.5Crepo_projects.5CpRealEcu.5CcL_R2023.2E09.2E01.5Cmake.5Coutput.5Cobjects.5CRdcStandstill.
                        1775 	.align	2
                        1776 --_U32_CurrentTimestamp	0[sp]	local
                        1777 
                        1778 	.data
                        1779 	.text
                        1780 	.align	2
                        1781 	.align	2
                        1782 ..gh.f.f.1.e.15:
                        1783 	.type	..gh.f.f.1.e.15,@object
                        1784 	.size	..gh.f.f.1.e.15,0
                        1785 	.global	_RdcSt_MainFunction
                        1786 _RdcSt_MainFunction:
000008a4 80076100       1787 	prepare	{r29,r31},0
000008a8 3d0600000000*  1788 	mov	_RdcSt__U8_MonitoringStatus,r29
                        1789 --	    .bf
                        1790 .LDW25:
                        1791 --line204
                        1792 ..lin.C.3A.5C_ECU2.5CECU_Rivian_A1.5CTarget.5Crepo_projects.5CpRealEcu.5CcL_R2023.2E09.2E01.5Cmake.5Coutput.5Cobjects.5CRdcStandstill.134::
                        1793 .LDWlin134:
                        1794 	jarl	_RdcSt_IsStandstillMonitoringActive,lp
                        1794 <EXPANSION BEGIN>
                        1794 jarl22 _RdcSt_IsStandstillMonitoringActive , lp 
000008ae bfff28f9*      1794 <EXPANSION END>
000008b2 e051           1795 	cmp	zero,r10
000008b4 a235*          1796 	be	.L2342
                        1797 --line206
                        1798 ..lin.C.3A.5C_ECU2.5CECU_Rivian_A1.5CTarget.5Crepo_projects.5CpRealEcu.5CcL_R2023.2E09.2E01.5Cmake.5Coutput.5Cobjects.5CRdcStandstill.135::
                        1799 .LDWlin135:
                        1800 	jarl	_RdcSt__UpdateMonitoringStatus,lp
                        1800 <EXPANSION BEGIN>
                        1800 jarl22 _RdcSt__UpdateMonitoringStatus , lp 
000008b6 bfff24fa*      1800 <EXPANSION END>
                        1801 --line208
                        1802 ..lin.C.3A.5C_ECU2.5CECU_Rivian_A1.5CTarget.5Crepo_projects.5CpRealEcu.5CcL_R2023.2E09.2E01.5Cmake.5Coutput.5Cobjects.5CRdcStandstill.136::
                        1803 .LDWlin136:
000008ba 404e0000*      1804 	movhi	hi(_RdcSt__BO_HasSyncPeriodExpired),zero,r9
000008be 894f0100*      1805 	ld.bu	lo(_RdcSt__BO_HasSyncPeriodExpired)[r9],r9
000008c2 e049           1806 	cmp	zero,r9
000008c4 822d*          1807 	be	.L2346
                        1808 --line210
                        1809 ..lin.C.3A.5C_ECU2.5CECU_Rivian_A1.5CTarget.5Crepo_projects.5CpRealEcu.5CcL_R2023.2E09.2E01.5Cmake.5Coutput.5Cobjects.5CRdcStandstill.137::
                        1810 .LDWlin137:
000008c6 40460000*      1811 	movhi	hi(_RdcSt__U8_MainTimer),zero,r8
000008ca 88470100*      1812 	ld.bu	lo(_RdcSt__U8_MainTimer)[r8],r8
000008ce 6442           1813 	cmp	4,r8
000008d0 ca0d*          1814 	bne	.L2348
                        1815 --line213
                        1816 ..lin.C.3A.5C_ECU2.5CECU_Rivian_A1.5CTarget.5Crepo_projects.5CpRealEcu.5CcL_R2023.2E09.2E01.5Cmake.5Coutput.5Cobjects.5CRdcStandstill.138::
                        1817 .LDWlin138:
                        1818 	jarl	_RdcSt_StopStandstillMonitoring,lp
                        1818 <EXPANSION BEGIN>
                        1818 jarl22 _RdcSt_StopStandstillMonitoring , lp 
000008d2 bfffe6f8*      1818 <EXPANSION END>
                        1819 --line214
                        1820 ..lin.C.3A.5C_ECU2.5CECU_Rivian_A1.5CTarget.5Crepo_projects.5CpRealEcu.5CcL_R2023.2E09.2E01.5Cmake.5Coutput.5Cobjects.5CRdcStandstill.139::
                        1821 .LDWlin139:

                                                                      Page 35
                                                              C:\Users\nhuliyap\AppData\Local\Temp\gh_0000b0k1.s
                        1822 	jarl	_RdcSt__SaveStatusInNvm,lp
                        1822 <EXPANSION BEGIN>
                        1822 jarl22 _RdcSt__SaveStatusInNvm , lp 
000008d6 bfffe0fd*      1822 <EXPANSION END>
                        1823 --line215
                        1824 ..lin.C.3A.5C_ECU2.5CECU_Rivian_A1.5CTarget.5Crepo_projects.5CpRealEcu.5CcL_R2023.2E09.2E01.5Cmake.5Coutput.5Cobjects.5CRdcStandstill.140::
                        1825 .LDWlin140:
                        1826 	jarl	_RdcSt__SaveDataInNvm,lp
                        1826 <EXPANSION BEGIN>
                        1826 jarl22 _RdcSt__SaveDataInNvm , lp 
000008da bfff80fe*      1826 <EXPANSION END>
                        1827 --line216
                        1828 ..lin.C.3A.5C_ECU2.5CECU_Rivian_A1.5CTarget.5Crepo_projects.5CpRealEcu.5CcL_R2023.2E09.2E01.5Cmake.5Coutput.5Cobjects.5CRdcStandstill.141::
                        1829 .LDWlin141:
000008de 0b32           1830 	mov	11,r6
                        1831 	jarl	_SYSMGR_SetEcuEvent,lp
                        1831 <EXPANSION BEGIN>
                        1831 jarl22 _SYSMGR_SetEcuEvent , lp 
000008e0 80ff0000*      1831 <EXPANSION END>
000008e4 40067f00       1832 	dispose	0,{r29,r31},[lp]
                        1833 .L2348:
                        1834 --line218
                        1835 ..lin.C.3A.5C_ECU2.5CECU_Rivian_A1.5CTarget.5Crepo_projects.5CpRealEcu.5CcL_R2023.2E09.2E01.5Cmake.5Coutput.5Cobjects.5CRdcStandstill.142::
                        1836 .LDWlin142:
000008e8 9d3f0100       1837 	ld.bu	0[r29],r7
000008ec e039           1838 	cmp	zero,r7
000008ee da15*          1839 	bne	.L2342
000008f0 bd370100       1840 	ld.bu	1[r29],r6
000008f4 e031           1841 	cmp	zero,r6
000008f6 9a15*          1842 	bne	.L2342
                        1843 	jarl	_RdcSt__AreTimersExpiringSoon,lp
                        1843 <EXPANSION BEGIN>
                        1843 jarl22 _RdcSt__AreTimersExpiringSoon , lp 
000008f8 bfffd2fe*      1843 <EXPANSION END>
000008fc e051           1844 	cmp	zero,r10
000008fe da0d*          1845 	bne	.L2342
                        1846 --line220
                        1847 ..lin.C.3A.5C_ECU2.5CECU_Rivian_A1.5CTarget.5Crepo_projects.5CpRealEcu.5CcL_R2023.2E09.2E01.5Cmake.5Coutput.5Cobjects.5CRdcStandstill.143::
                        1848 .LDWlin143:
                        1849 	jarl	_RdcSt__UpdateWakeupTimer,lp
                        1849 <EXPANSION BEGIN>
                        1849 jarl22 _RdcSt__UpdateWakeupTimer , lp 
00000900 bffff2fe*      1849 <EXPANSION END>
                        1850 --line221
                        1851 ..lin.C.3A.5C_ECU2.5CECU_Rivian_A1.5CTarget.5Crepo_projects.5CpRealEcu.5CcL_R2023.2E09.2E01.5Cmake.5Coutput.5Cobjects.5CRdcStandstill.144::
                        1852 .LDWlin144:
00000904 0a32           1853 	mov	10,r6
                        1854 	jarl	_SYSMGR_SetEcuEvent,lp
                        1854 <EXPANSION BEGIN>
                        1854 jarl22 _SYSMGR_SetEcuEvent , lp 
00000906 80ff0000*      1854 <EXPANSION END>
                        1855 --line222
                        1856 ..lin.C.3A.5C_ECU2.5CECU_Rivian_A1.5CTarget.5Crepo_projects.5CpRealEcu.5CcL_R2023.2E09.2E01.5Cmake.5Coutput.5Cobjects.5CRdcStandstill.145::
                        1857 .LDWlin145:
0000090a 014a           1858 	mov	1,r9
0000090c 5d4f0100       1859 	st.b	r9,1[r29]
00000910 40067f00       1860 	dispose	0,{r29,r31},[lp]
                        1861 .L2346:
                        1862 --line230
                        1863 ..lin.C.3A.5C_ECU2.5CECU_Rivian_A1.5CTarget.5Crepo_projects.5CpRealEcu.5CcL_R2023.2E09.2E01.5Cmake.5Coutput.5Cobjects.5CRdcStandstill.146::
                        1864 .LDWlin146:

                                                                      Page 36
                                                              C:\Users\nhuliyap\AppData\Local\Temp\gh_0000b0k1.s
                        1865 	jarl	_RdcSt__UpdateSyncPeriod,lp
                        1865 <EXPANSION BEGIN>
                        1865 jarl22 _RdcSt__UpdateSyncPeriod , lp 
00000914 bfff62ff*      1865 <EXPANSION END>
                        1866 .L2342:
                        1867 --	    .ef
                        1868 .LDW35:
                        1869 --line236
                        1870 ..lin.C.3A.5C_ECU2.5CECU_Rivian_A1.5CTarget.5Crepo_projects.5CpRealEcu.5CcL_R2023.2E09.2E01.5Cmake.5Coutput.5Cobjects.5CRdcStandstill.147::
                        1871 .LDWlin147:
00000918 40067f00       1872 	dispose	0,{r29,r31},[lp]
                        1873 	.global	___ghs_eofn_RdcSt_MainFunction
                        1874 ___ghs_eofn_RdcSt_MainFunction:
                        1875 	.type	_RdcSt_MainFunction,@function
                        1876 	.size	_RdcSt_MainFunction,.-_RdcSt_MainFunction
                        1877 	.align	2
                        1878 
                        1879 	.data
                        1880 	.text
                        1881 	.align	2
                        1882 	.align	2
                        1883 ..gh.f.f.1.e.16:
                        1884 	.type	..gh.f.f.1.e.16,@object
                        1885 	.size	..gh.f.f.1.e.16,0
                        1886 	.global	_RdcSt__DataExistsInNvm..C.3A.5C_ECU2.5CECU_Rivian_A1.5CTarget.5Crepo_projects.5CpRealEcu.5CcL_R2023.2E09.2E01.5Cmake.5Coutput.5Cobjects.5CRdcStandstill.
                        1887 _RdcSt__DataExistsInNvm..C.3A.5C_ECU2.5CECU_Rivian_A1.5CTarget.5Crepo_projects.5CpRealEcu.5CcL_R2023.2E09.2E01.5Cmake.5Coutput.5Cobjects.5CRdcStandstill.:
                        1888 _RdcSt__DataExistsInNvm:
0000091c 82072100       1889 	prepare	{r31},1
                        1890 --	    .bf
                        1891 .LDW45:
00000920 0532           1892 	mov	5,r6
00000922 233e0300       1893 	movea	3,sp,r7
                        1894 	jarl	_NvmMGR_ReadBSWMember,lp
                        1894 <EXPANSION BEGIN>
                        1894 jarl22 _NvmMGR_ReadBSWMember , lp 
00000926 80ff0000*      1894 <EXPANSION END>
                        1895 --line574
                        1896 ..lin.C.3A.5C_ECU2.5CECU_Rivian_A1.5CTarget.5Crepo_projects.5CpRealEcu.5CcL_R2023.2E09.2E01.5Cmake.5Coutput.5Cobjects.5CRdcStandstill.148::
                        1897 .LDWlin148:
0000092a a3970300       1898 	ld.bu	3[sp],r18
0000092e 120656ff       1899 	addi	-170,r18,zero
00000932 e2570000       1900 	setfe	r10
                        1901 --	    .ef
                        1902 .LDW55:
00000936 42063f00       1903 	dispose	1,{r31},[lp]
                        1904 ___ghs_eofn_RdcSt__DataExistsInNvm:
                        1905 	.type	_RdcSt__DataExistsInNvm,@function
                        1906 	.size	_RdcSt__DataExistsInNvm,.-_RdcSt__DataExistsInNvm
                        1907 	.type	_RdcSt__DataExistsInNvm..C.3A.5C_ECU2.5CECU_Rivian_A1.5CTarget.5Crepo_projects.5CpRealEcu.5CcL_R2023.2E09.2E01.5Cmake.5Coutput.5Cobjects.5CRdcStandstill.,@function
                        1908 	.size	_RdcSt__DataExistsInNvm..C.3A.5C_ECU2.5CECU_Rivian_A1.5CTarget.5Crepo_projects.5CpRealEcu.5CcL_R2023.2E09.2E01.5Cmake.5Coutput.5Cobjects.5CRdcStandstill.,.-_RdcSt__DataExistsInNvm..C.3A.5C_ECU2.5CECU_Rivian_A1.5CTarget.5Crepo_projects.5CpRealEcu.5CcL_R2023.2E09.2E01.5Cmake.5Coutput.5Cobjects.5CRdcStandstill.
                        1909 	.align	2
                        1910 --_BO_DataExists	r10	local
                        1911 --_U8_DataExistence	3[sp]	local
                        1912 
                        1913 	.section ".bss","awb"
                        1914 .L2557:
                        1915 	.type	.L2557,@object
                        1916 	.size	.L2557,0
                        1917 	.data
                        1918 	.text
                        1919 	.align	2

                                                                      Page 37
                                                              C:\Users\nhuliyap\AppData\Local\Temp\gh_0000b0k1.s
                        1920 	.align	2
                        1921 ..gh.f.f.1.e.17:
                        1922 	.type	..gh.f.f.1.e.17,@object
                        1923 	.size	..gh.f.f.1.e.17,0
                        1924 	.global	_RdcSt__LoadDataFromNvm..C.3A.5C_ECU2.5CECU_Rivian_A1.5CTarget.5Crepo_projects.5CpRealEcu.5CcL_R2023.2E09.2E01.5Cmake.5Coutput.5Cobjects.5CRdcStandstill.
                        1925 _RdcSt__LoadDataFromNvm..C.3A.5C_ECU2.5CECU_Rivian_A1.5CTarget.5Crepo_projects.5CpRealEcu.5CcL_R2023.2E09.2E01.5Cmake.5Coutput.5Cobjects.5CRdcStandstill.:
                        1926 _RdcSt__LoadDataFromNvm:
0000093a 82076100       1927 	prepare	{r29,r31},1
                        1928 --	    .bf
                        1929 .LDW65:
0000093e 20965500       1930 	movea	85,zero,r18
00000942 3d0600000000*  1931 	mov	_RdcSt__AS_WSData,r29
00000948 43970300       1932 	st.b	r18,3[sp]
0000094c 1d3e0400       1933 	addi	4,r29,r7
00000950 0632           1934 	mov	6,r6
                        1935 	jarl	_NvmMGR_ReadBSWMember,lp
                        1935 <EXPANSION BEGIN>
                        1935 jarl22 _NvmMGR_ReadBSWMember , lp 
00000952 80ff0000*      1935 <EXPANSION END>
                        1936 --line546
                        1937 ..lin.C.3A.5C_ECU2.5CECU_Rivian_A1.5CTarget.5Crepo_projects.5CpRealEcu.5CcL_R2023.2E09.2E01.5Cmake.5Coutput.5Cobjects.5CRdcStandstill.149::
                        1938 .LDWlin149:
00000956 1d3e0500       1939 	addi	5,r29,r7
0000095a 0732           1940 	mov	7,r6
                        1941 	jarl	_NvmMGR_ReadBSWMember,lp
                        1941 <EXPANSION BEGIN>
                        1941 jarl22 _NvmMGR_ReadBSWMember , lp 
0000095c 80ff0000*      1941 <EXPANSION END>
                        1942 --line548
                        1943 ..lin.C.3A.5C_ECU2.5CECU_Rivian_A1.5CTarget.5Crepo_projects.5CpRealEcu.5CcL_R2023.2E09.2E01.5Cmake.5Coutput.5Cobjects.5CRdcStandstill.150::
                        1944 .LDWlin150:
00000960 1d3e0c00       1945 	addi	12,r29,r7
00000964 0832           1946 	mov	8,r6
                        1947 	jarl	_NvmMGR_ReadBSWMember,lp
                        1947 <EXPANSION BEGIN>
                        1947 jarl22 _NvmMGR_ReadBSWMember , lp 
00000966 80ff0000*      1947 <EXPANSION END>
                        1948 --line549
                        1949 ..lin.C.3A.5C_ECU2.5CECU_Rivian_A1.5CTarget.5Crepo_projects.5CpRealEcu.5CcL_R2023.2E09.2E01.5Cmake.5Coutput.5Cobjects.5CRdcStandstill.151::
                        1950 .LDWlin151:
0000096a 1d3e0d00       1951 	addi	13,r29,r7
0000096e 0932           1952 	mov	9,r6
                        1953 	jarl	_NvmMGR_ReadBSWMember,lp
                        1953 <EXPANSION BEGIN>
                        1953 jarl22 _NvmMGR_ReadBSWMember , lp 
00000970 80ff0000*      1953 <EXPANSION END>
                        1954 --line551
                        1955 ..lin.C.3A.5C_ECU2.5CECU_Rivian_A1.5CTarget.5Crepo_projects.5CpRealEcu.5CcL_R2023.2E09.2E01.5Cmake.5Coutput.5Cobjects.5CRdcStandstill.152::
                        1956 .LDWlin152:
00000974 1d3e1400       1957 	addi	20,r29,r7
00000978 0a32           1958 	mov	10,r6
                        1959 	jarl	_NvmMGR_ReadBSWMember,lp
                        1959 <EXPANSION BEGIN>
                        1959 jarl22 _NvmMGR_ReadBSWMember , lp 
0000097a 80ff0000*      1959 <EXPANSION END>
                        1960 --line552
                        1961 ..lin.C.3A.5C_ECU2.5CECU_Rivian_A1.5CTarget.5Crepo_projects.5CpRealEcu.5CcL_R2023.2E09.2E01.5Cmake.5Coutput.5Cobjects.5CRdcStandstill.153::
                        1962 .LDWlin153:
0000097e 1d3e1500       1963 	addi	21,r29,r7
00000982 0b32           1964 	mov	11,r6
                        1965 	jarl	_NvmMGR_ReadBSWMember,lp

                                                                      Page 38
                                                              C:\Users\nhuliyap\AppData\Local\Temp\gh_0000b0k1.s
                        1965 <EXPANSION BEGIN>
                        1965 jarl22 _NvmMGR_ReadBSWMember , lp 
00000984 80ff0000*      1965 <EXPANSION END>
                        1966 --line554
                        1967 ..lin.C.3A.5C_ECU2.5CECU_Rivian_A1.5CTarget.5Crepo_projects.5CpRealEcu.5CcL_R2023.2E09.2E01.5Cmake.5Coutput.5Cobjects.5CRdcStandstill.154::
                        1968 .LDWlin154:
00000988 1d3e1c00       1969 	addi	28,r29,r7
0000098c 0c32           1970 	mov	12,r6
                        1971 	jarl	_NvmMGR_ReadBSWMember,lp
                        1971 <EXPANSION BEGIN>
                        1971 jarl22 _NvmMGR_ReadBSWMember , lp 
0000098e 80ff0000*      1971 <EXPANSION END>
                        1972 --line555
                        1973 ..lin.C.3A.5C_ECU2.5CECU_Rivian_A1.5CTarget.5Crepo_projects.5CpRealEcu.5CcL_R2023.2E09.2E01.5Cmake.5Coutput.5Cobjects.5CRdcStandstill.155::
                        1974 .LDWlin155:
00000992 1d3e1d00       1975 	addi	29,r29,r7
00000996 0d32           1976 	mov	13,r6
                        1977 	jarl	_NvmMGR_ReadBSWMember,lp
                        1977 <EXPANSION BEGIN>
                        1977 jarl22 _NvmMGR_ReadBSWMember , lp 
00000998 80ff0000*      1977 <EXPANSION END>
                        1978 --line557
                        1979 ..lin.C.3A.5C_ECU2.5CECU_Rivian_A1.5CTarget.5Crepo_projects.5CpRealEcu.5CcL_R2023.2E09.2E01.5Cmake.5Coutput.5Cobjects.5CRdcStandstill.156::
                        1980 .LDWlin156:
0000099c 0532           1981 	mov	5,r6
0000099e 233e0300       1982 	movea	3,sp,r7
                        1983 	jarl	_NvmMGR_WriteBSWMember,lp
                        1983 <EXPANSION BEGIN>
                        1983 jarl22 _NvmMGR_WriteBSWMember , lp 
000009a2 80ff0000*      1983 <EXPANSION END>
                        1984 --	    .ef
                        1985 .LDW75:
                        1986 --line558
                        1987 ..lin.C.3A.5C_ECU2.5CECU_Rivian_A1.5CTarget.5Crepo_projects.5CpRealEcu.5CcL_R2023.2E09.2E01.5Cmake.5Coutput.5Cobjects.5CRdcStandstill.157::
                        1988 .LDWlin157:
000009a6 42067f00       1989 	dispose	1,{r29,r31},[lp]
                        1990 ___ghs_eofn_RdcSt__LoadDataFromNvm:
                        1991 	.type	_RdcSt__LoadDataFromNvm,@function
                        1992 	.size	_RdcSt__LoadDataFromNvm,.-_RdcSt__LoadDataFromNvm
                        1993 	.type	_RdcSt__LoadDataFromNvm..C.3A.5C_ECU2.5CECU_Rivian_A1.5CTarget.5Crepo_projects.5CpRealEcu.5CcL_R2023.2E09.2E01.5Cmake.5Coutput.5Cobjects.5CRdcStandstill.,@function
                        1994 	.size	_RdcSt__LoadDataFromNvm..C.3A.5C_ECU2.5CECU_Rivian_A1.5CTarget.5Crepo_projects.5CpRealEcu.5CcL_R2023.2E09.2E01.5Cmake.5Coutput.5Cobjects.5CRdcStandstill.,.-_RdcSt__LoadDataFromNvm..C.3A.5C_ECU2.5CECU_Rivian_A1.5CTarget.5Crepo_projects.5CpRealEcu.5CcL_R2023.2E09.2E01.5Cmake.5Coutput.5Cobjects.5CRdcStandstill.
                        1995 	.align	2
                        1996 --_U8_DataExistence	3[sp]	local
                        1997 
                        1998 	.section ".bss","awb"
                        1999 .L2609:
                        2000 	.type	.L2609,@object
                        2001 	.size	.L2609,0
                        2002 	.data
                        2003 	.text
                        2004 	.align	2
                        2005 	.align	2
                        2006 ..gh.f.f.1.e.18:
                        2007 	.type	..gh.f.f.1.e.18,@object
                        2008 	.size	..gh.f.f.1.e.18,0
                        2009 	.global	_RdcSt_ForwardStandstillDataToTms
                        2010 _RdcSt_ForwardStandstillDataToTms:
000009aa 8c07e100       2011 	prepare	{r28,r29,r31},6
                        2012 --	    .bf
                        2013 .LDW85:
                        2014 	jarl	_Env_GetEnvironmentData,lp

                                                                      Page 39
                                                              C:\Users\nhuliyap\AppData\Local\Temp\gh_0000b0k1.s
                        2014 <EXPANSION BEGIN>
                        2014 jarl22 _Env_GetEnvironmentData , lp 
000009ae 80ff0000*      2014 <EXPANSION END>
000009b2 0ae0           2015 	mov	r10,r28
                        2016 --line243
                        2017 ..lin.C.3A.5C_ECU2.5CECU_Rivian_A1.5CTarget.5Crepo_projects.5CpRealEcu.5CcL_R2023.2E09.2E01.5Cmake.5Coutput.5Cobjects.5CRdcStandstill.158::
                        2018 .LDWlin158:
000009b4 0330           2019 	mov	sp,r6
                        2020 	jarl	_ClientIf_GetECUTimeStampValue,lp
                        2020 <EXPANSION BEGIN>
                        2020 jarl22 _ClientIf_GetECUTimeStampValue , lp 
000009b6 80ff0000*      2020 <EXPANSION END>
                        2021 --line245
                        2022 ..lin.C.3A.5C_ECU2.5CECU_Rivian_A1.5CTarget.5Crepo_projects.5CpRealEcu.5CcL_R2023.2E09.2E01.5Cmake.5Coutput.5Cobjects.5CRdcStandstill.159::
                        2023 .LDWlin159:
000009ba 206e7800       2024 	movea	120,zero,r13
000009be 636f0400       2025 	st.h	r13,4[sp]
                        2026 	jarl	_RdcSt__DataExistsInNvm,lp
                        2026 <EXPANSION BEGIN>
                        2026 jarl22 _RdcSt__DataExistsInNvm , lp 
000009c2 bfff5aff*      2026 <EXPANSION END>
000009c6 e051           2027 	cmp	zero,r10
000009c8 e205*          2028 	be	.L2629
                        2029 --line249
                        2030 ..lin.C.3A.5C_ECU2.5CECU_Rivian_A1.5CTarget.5Crepo_projects.5CpRealEcu.5CcL_R2023.2E09.2E01.5Cmake.5Coutput.5Cobjects.5CRdcStandstill.160::
                        2031 .LDWlin160:
                        2032 	jarl	_RdcSt__ReadAndSortIDs,lp
                        2032 <EXPANSION BEGIN>
                        2032 jarl22 _RdcSt__ReadAndSortIDs , lp 
000009ca bfffd0f6*      2032 <EXPANSION END>
                        2033 --line250
                        2034 ..lin.C.3A.5C_ECU2.5CECU_Rivian_A1.5CTarget.5Crepo_projects.5CpRealEcu.5CcL_R2023.2E09.2E01.5Cmake.5Coutput.5Cobjects.5CRdcStandstill.161::
                        2035 .LDWlin161:
                        2036 	jarl	_RdcSt__LoadDataFromNvm,lp
                        2036 <EXPANSION BEGIN>
                        2036 jarl22 _RdcSt__LoadDataFromNvm , lp 
000009ce bfff6cff*      2036 <EXPANSION END>
000009d2 b505*          2037 	br	.L2631
                        2038 .L2629:
                        2039 --line253
                        2040 ..lin.C.3A.5C_ECU2.5CECU_Rivian_A1.5CTarget.5Crepo_projects.5CpRealEcu.5CcL_R2023.2E09.2E01.5Cmake.5Coutput.5Cobjects.5CRdcStandstill.162::
                        2041 .LDWlin162:
                        2042 	jarl	_RdcSt__SaveStatusInNvm,lp
                        2042 <EXPANSION BEGIN>
                        2042 jarl22 _RdcSt__SaveStatusInNvm , lp 
000009d4 bfffe2fc*      2042 <EXPANSION END>
                        2043 .L2631:
                        2044 --line256
                        2045 ..lin.C.3A.5C_ECU2.5CECU_Rivian_A1.5CTarget.5Crepo_projects.5CpRealEcu.5CcL_R2023.2E09.2E01.5Cmake.5Coutput.5Cobjects.5CRdcStandstill.163::
                        2046 .LDWlin163:
000009d8 00ea           2047 	mov	0,r29
                        2048 .L2634:
000009da 1df0           2049 	mov	r29,ep
000009dc c3f2           2050 	shl	3,ep
000009de 290600000000*  2051 	mov	_RdcSt__AS_WSData,r9
000009e4 c9f1           2052 	add	r9,ep
000009e6 6470           2053 	sld.bu	4[ep],r14
000009e8 e071           2054 	cmp	zero,r14
000009ea a225*          2055 	be	.L2635
                        2056 --line263
                        2057 ..lin.C.3A.5C_ECU2.5CECU_Rivian_A1.5CTarget.5Crepo_projects.5CpRealEcu.5CcL_R2023.2E09.2E01.5Cmake.5Coutput.5Cobjects.5CRdcStandstill.164::

                                                                      Page 40
                                                              C:\Users\nhuliyap\AppData\Local\Temp\gh_0000b0k1.s
                        2058 .LDWlin164:
000009ec 0095           2059 	sld.w	0[ep],r18
000009ee 203690ff       2060 	movea	-112,zero,r6
000009f2 43370800       2061 	st.b	r6,8[sp]
000009f6 1e30           2062 	mov	ep,r6
000009f8 1288           2063 	mov	r18,r17
000009fa 1280           2064 	mov	r18,r16
000009fc 1278           2065 	mov	r18,r15
000009fe 988a           2066 	shr	24,r17
00000a00 03f0           2067 	mov	sp,ep
00000a02 9082           2068 	shr	16,r16
00000a04 887a           2069 	shr	8,r15
00000a06 1f42           2070 	mov	-1,r8
00000a08 123a           2071 	mov	-14,r7
00000a0a 898b           2072 	sst.b	r17,9[ep]
00000a0c 8a83           2073 	sst.b	r16,10[ep]
00000a0e 8b7b           2074 	sst.b	r15,11[ep]
00000a10 8c93           2075 	sst.b	r18,12[ep]
00000a12 8d73           2076 	sst.b	r14,13[ep]
00000a14 43470600       2077 	st.b	r8,6[sp]
00000a18 433f0700       2078 	st.b	r7,7[sp]
00000a1c 06f0           2079 	mov	r6,ep
00000a1e 6588           2080 	sld.bu	5[ep],r17
00000a20 03f0           2081 	mov	sp,ep
00000a22 8f03           2082 	sst.b	zero,15[ep]
00000a24 1c38           2083 	mov	r28,r7
00000a26 8e8b           2084 	sst.b	r17,14[ep]
00000a28 0330           2085 	mov	sp,r6
                        2086 	jarl	_HufIf_RCtSaReTelDec,lp
                        2086 <EXPANSION BEGIN>
                        2086 jarl22 _HufIf_RCtSaReTelDec , lp 
00000a2a 80ff0000*      2086 <EXPANSION END>
                        2087 .L2635:
                        2088 --line256
                        2089 ..lin.C.3A.5C_ECU2.5CECU_Rivian_A1.5CTarget.5Crepo_projects.5CpRealEcu.5CcL_R2023.2E09.2E01.5Cmake.5Coutput.5Cobjects.5CRdcStandstill.165::
                        2090 .LDWlin165:
00000a2e 41ea           2091 	add	1,r29
00000a30 64ea           2092 	cmp	4,r29
00000a32 c1d5*          2093 	bl	.L2634
                        2094 --	    .ef
                        2095 .LDW95:
                        2096 --line274
                        2097 ..lin.C.3A.5C_ECU2.5CECU_Rivian_A1.5CTarget.5Crepo_projects.5CpRealEcu.5CcL_R2023.2E09.2E01.5Cmake.5Coutput.5Cobjects.5CRdcStandstill.166::
                        2098 .LDWlin166:
00000a34 4c06ff00       2099 	dispose	6,{r28,r29,r31},[lp]
                        2100 	.global	___ghs_eofn_RdcSt_ForwardStandstillDataToTms
                        2101 ___ghs_eofn_RdcSt_ForwardStandstillDataToTms:
                        2102 	.type	_RdcSt_ForwardStandstillDataToTms,@function
                        2103 	.size	_RdcSt_ForwardStandstillDataToTms,.-_RdcSt_ForwardStandstillDataToTms
                        2104 	.align	2
                        2105 --_U8_Counter	r29	local
                        2106 --_S_RxData	0[sp]	local
                        2107 --_PS_EnvData	r28	local
                        2108 
                        2109 	.section ".bss","awb"
                        2110 .L2687:
                        2111 	.type	.L2687,@object
                        2112 	.size	.L2687,0
                        2113 	.data
                        2114 	.text
                        2115 	.align	2

                                                                      Page 41
                                                              C:\Users\nhuliyap\AppData\Local\Temp\gh_0000b0k1.s
                        2116 	.align	2
                        2117 ..gh.f.f.1.e.19:
                        2118 	.type	..gh.f.f.1.e.19,@object
                        2119 	.size	..gh.f.f.1.e.19,0
                        2120 	.global	_RdcSt_StartMonitoringSpecificWS
                        2121 _RdcSt_StartMonitoringSpecificWS:
00000a38 8007fb000000*  2122 	prepare	{r28,r29,r31},0,_RdcSt__U8_MonitoringStatus
00000a3e 0000*
00000a40 8600           2123 	zxb	r6
                        2124 --	    .bf
                        2125 .LDW06:
00000a42 6088           2126 	sld.bu	0[ep],r17
00000a44 017a           2127 	mov	1,r15
00000a46 e67fc2e8       2128 	shl	r6,r15,r29
00000a4a 9d00           2129 	zxb	r29
00000a4c 06e0           2130 	mov	r6,r28
00000a4e 1d89           2131 	or	r29,r17
00000a50 c232           2132 	shl	2,r6
00000a52 3e760400       2133 	movea	4,ep,r14
00000a56 808b           2134 	sst.b	r17,0[ep]
00000a58 ce31           2135 	add	r14,r6
                        2136 	jarl	_ClientIf_GetECUTimeStampValue,lp
                        2136 <EXPANSION BEGIN>
                        2136 jarl22 _ClientIf_GetECUTimeStampValue , lp 
00000a5a 80ff0000*      2136 <EXPANSION END>
                        2137 --line284
                        2138 ..lin.C.3A.5C_ECU2.5CECU_Rivian_A1.5CTarget.5Crepo_projects.5CpRealEcu.5CcL_R2023.2E09.2E01.5Cmake.5Coutput.5Cobjects.5CRdcStandstill.167::
                        2139 .LDWlin167:
00000a5e 40860000*      2140 	movhi	hi(_RdcSt__U8_ExtendedWakeup),zero,r16
00000a62 90870100*      2141 	ld.bu	lo(_RdcSt__U8_ExtendedWakeup)[r16],r16
00000a66 5d81           2142 	and	r29,r16
00000a68 fd81           2143 	cmp	r29,r16
00000a6a da05*          2144 	bne	.L2765
                        2145 --line286
                        2146 ..lin.C.3A.5C_ECU2.5CECU_Rivian_A1.5CTarget.5Crepo_projects.5CpRealEcu.5CcL_R2023.2E09.2E01.5Cmake.5Coutput.5Cobjects.5CRdcStandstill.168::
                        2147 .LDWlin168:
00000a6c 1c30           2148 	mov	r28,r6
00000a6e a600           2149 	sxb	r6
                        2150 	jarl	_Tau_StopTimer,lp
                        2150 <EXPANSION BEGIN>
                        2150 jarl22 _Tau_StopTimer , lp 
00000a70 80ff0000*      2150 <EXPANSION END>
                        2151 .L2765:
                        2152 --	    .ef
                        2153 .LDW16:
                        2154 --line292
                        2155 ..lin.C.3A.5C_ECU2.5CECU_Rivian_A1.5CTarget.5Crepo_projects.5CpRealEcu.5CcL_R2023.2E09.2E01.5Cmake.5Coutput.5Cobjects.5CRdcStandstill.169::
                        2156 .LDWlin169:
00000a74 4006ff00       2157 	dispose	0,{r28,r29,r31},[lp]
                        2158 	.global	___ghs_eofn_RdcSt_StartMonitoringSpecificWS
                        2159 ___ghs_eofn_RdcSt_StartMonitoringSpecificWS:
                        2160 	.type	_RdcSt_StartMonitoringSpecificWS,@function
                        2161 	.size	_RdcSt_StartMonitoringSpecificWS,.-_RdcSt_StartMonitoringSpecificWS
                        2162 	.align	2
                        2163 --_U8_MaskForSpecificWS	r29	local
                        2164 
                        2165 --_U8_WsNumber	r28	param
                        2166 
                        2167 	.data
                        2168 	.text
                        2169 	.align	2

                                                                      Page 42
                                                              C:\Users\nhuliyap\AppData\Local\Temp\gh_0000b0k1.s
                        2170 	.align	2
                        2171 ..gh.f.f.1.e.20:
                        2172 	.type	..gh.f.f.1.e.20,@object
                        2173 	.size	..gh.f.f.1.e.20,0
                        2174 	.global	_RdcSt_ReadPressureOnKeyConfig
                        2175 _RdcSt_ReadPressureOnKeyConfig:
00000a78 80076100       2176 	prepare	{r29,r31},0
00000a7c 06e8           2177 	mov	r6,r29
                        2178 --	    .bf
                        2179 .LDW26:
00000a7e 0638           2180 	mov	r6,r7
00000a80 0032           2181 	mov	0,r6
                        2182 	jarl	_NvmMGR_ReadBSWMember,lp
                        2182 <EXPANSION BEGIN>
                        2182 jarl22 _NvmMGR_ReadBSWMember , lp 
00000a82 80ff0000*      2182 <EXPANSION END>
                        2183 --line297
                        2184 ..lin.C.3A.5C_ECU2.5CECU_Rivian_A1.5CTarget.5Crepo_projects.5CpRealEcu.5CcL_R2023.2E09.2E01.5Cmake.5Coutput.5Cobjects.5CRdcStandstill.170::
                        2185 .LDWlin170:
00000a86 1d3e0100       2186 	addi	1,r29,r7
00000a8a 0132           2187 	mov	1,r6
                        2188 	jarl	_NvmMGR_ReadBSWMember,lp
                        2188 <EXPANSION BEGIN>
                        2188 jarl22 _NvmMGR_ReadBSWMember , lp 
00000a8c 80ff0000*      2188 <EXPANSION END>
                        2189 --line298
                        2190 ..lin.C.3A.5C_ECU2.5CECU_Rivian_A1.5CTarget.5Crepo_projects.5CpRealEcu.5CcL_R2023.2E09.2E01.5Cmake.5Coutput.5Cobjects.5CRdcStandstill.171::
                        2191 .LDWlin171:
00000a90 1d3e0200       2192 	addi	2,r29,r7
00000a94 0232           2193 	mov	2,r6
                        2194 	jarl	_NvmMGR_ReadBSWMember,lp
                        2194 <EXPANSION BEGIN>
                        2194 jarl22 _NvmMGR_ReadBSWMember , lp 
00000a96 80ff0000*      2194 <EXPANSION END>
                        2195 --line299
                        2196 ..lin.C.3A.5C_ECU2.5CECU_Rivian_A1.5CTarget.5Crepo_projects.5CpRealEcu.5CcL_R2023.2E09.2E01.5Cmake.5Coutput.5Cobjects.5CRdcStandstill.172::
                        2197 .LDWlin172:
00000a9a 1d3e0300       2198 	addi	3,r29,r7
00000a9e 0332           2199 	mov	3,r6
                        2200 	jarl	_NvmMGR_ReadBSWMember,lp
                        2200 <EXPANSION BEGIN>
                        2200 jarl22 _NvmMGR_ReadBSWMember , lp 
00000aa0 80ff0000*      2200 <EXPANSION END>
                        2201 --line300
                        2202 ..lin.C.3A.5C_ECU2.5CECU_Rivian_A1.5CTarget.5Crepo_projects.5CpRealEcu.5CcL_R2023.2E09.2E01.5Cmake.5Coutput.5Cobjects.5CRdcStandstill.173::
                        2203 .LDWlin173:
00000aa4 1d3e0400       2204 	addi	4,r29,r7
00000aa8 0432           2205 	mov	4,r6
                        2206 	jarl	_NvmMGR_ReadBSWMember,lp
                        2206 <EXPANSION BEGIN>
                        2206 jarl22 _NvmMGR_ReadBSWMember , lp 
00000aaa 80ff0000*      2206 <EXPANSION END>
                        2207 --	    .ef
                        2208 .LDW36:
                        2209 --line301
                        2210 ..lin.C.3A.5C_ECU2.5CECU_Rivian_A1.5CTarget.5Crepo_projects.5CpRealEcu.5CcL_R2023.2E09.2E01.5Cmake.5Coutput.5Cobjects.5CRdcStandstill.174::
                        2211 .LDWlin174:
00000aae 40067f00       2212 	dispose	0,{r29,r31},[lp]
                        2213 	.global	___ghs_eofn_RdcSt_ReadPressureOnKeyConfig
                        2214 ___ghs_eofn_RdcSt_ReadPressureOnKeyConfig:
                        2215 	.type	_RdcSt_ReadPressureOnKeyConfig,@function

                                                                      Page 43
                                                              C:\Users\nhuliyap\AppData\Local\Temp\gh_0000b0k1.s
                        2216 	.size	_RdcSt_ReadPressureOnKeyConfig,.-_RdcSt_ReadPressureOnKeyConfig
                        2217 	.align	2
                        2218 
                        2219 --_PU8_Data	r29	param
                        2220 
                        2221 	.section ".bss","awb"
                        2222 .L2849:
                        2223 	.type	.L2849,@object
                        2224 	.size	.L2849,0
                        2225 	.data
                        2226 	.text
                        2227 	.align	2
                        2228 	.align	2
                        2229 ..gh.f.f.1.e.21:
                        2230 	.type	..gh.f.f.1.e.21,@object
                        2231 	.size	..gh.f.f.1.e.21,0
                        2232 	.global	_RdcSt_WritePressureOnKeyConfig
                        2233 _RdcSt_WritePressureOnKeyConfig:
00000ab2 80076100       2234 	prepare	{r29,r31},0
00000ab6 06e8           2235 	mov	r6,r29
                        2236 --	    .bf
                        2237 .LDW46:
00000ab8 0638           2238 	mov	r6,r7
00000aba 0032           2239 	mov	0,r6
                        2240 	jarl	_NvmMGR_WriteBSWMember,lp
                        2240 <EXPANSION BEGIN>
                        2240 jarl22 _NvmMGR_WriteBSWMember , lp 
00000abc 80ff0000*      2240 <EXPANSION END>
                        2241 --line306
                        2242 ..lin.C.3A.5C_ECU2.5CECU_Rivian_A1.5CTarget.5Crepo_projects.5CpRealEcu.5CcL_R2023.2E09.2E01.5Cmake.5Coutput.5Cobjects.5CRdcStandstill.175::
                        2243 .LDWlin175:
00000ac0 1d3e0100       2244 	addi	1,r29,r7
00000ac4 0132           2245 	mov	1,r6
                        2246 	jarl	_NvmMGR_WriteBSWMember,lp
                        2246 <EXPANSION BEGIN>
                        2246 jarl22 _NvmMGR_WriteBSWMember , lp 
00000ac6 80ff0000*      2246 <EXPANSION END>
                        2247 --line307
                        2248 ..lin.C.3A.5C_ECU2.5CECU_Rivian_A1.5CTarget.5Crepo_projects.5CpRealEcu.5CcL_R2023.2E09.2E01.5Cmake.5Coutput.5Cobjects.5CRdcStandstill.176::
                        2249 .LDWlin176:
00000aca 1d3e0200       2250 	addi	2,r29,r7
00000ace 0232           2251 	mov	2,r6
                        2252 	jarl	_NvmMGR_WriteBSWMember,lp
                        2252 <EXPANSION BEGIN>
                        2252 jarl22 _NvmMGR_WriteBSWMember , lp 
00000ad0 80ff0000*      2252 <EXPANSION END>
                        2253 --line308
                        2254 ..lin.C.3A.5C_ECU2.5CECU_Rivian_A1.5CTarget.5Crepo_projects.5CpRealEcu.5CcL_R2023.2E09.2E01.5Cmake.5Coutput.5Cobjects.5CRdcStandstill.177::
                        2255 .LDWlin177:
00000ad4 1d3e0300       2256 	addi	3,r29,r7
00000ad8 0332           2257 	mov	3,r6
                        2258 	jarl	_NvmMGR_WriteBSWMember,lp
                        2258 <EXPANSION BEGIN>
                        2258 jarl22 _NvmMGR_WriteBSWMember , lp 
00000ada 80ff0000*      2258 <EXPANSION END>
                        2259 --line309
                        2260 ..lin.C.3A.5C_ECU2.5CECU_Rivian_A1.5CTarget.5Crepo_projects.5CpRealEcu.5CcL_R2023.2E09.2E01.5Cmake.5Coutput.5Cobjects.5CRdcStandstill.178::
                        2261 .LDWlin178:
00000ade 1d3e0400       2262 	addi	4,r29,r7
00000ae2 0432           2263 	mov	4,r6
                        2264 	jarl	_NvmMGR_WriteBSWMember,lp

                                                                      Page 44
                                                              C:\Users\nhuliyap\AppData\Local\Temp\gh_0000b0k1.s
                        2264 <EXPANSION BEGIN>
                        2264 jarl22 _NvmMGR_WriteBSWMember , lp 
00000ae4 80ff0000*      2264 <EXPANSION END>
                        2265 --line311
                        2266 ..lin.C.3A.5C_ECU2.5CECU_Rivian_A1.5CTarget.5Crepo_projects.5CpRealEcu.5CcL_R2023.2E09.2E01.5Cmake.5Coutput.5Cobjects.5CRdcStandstill.179::
                        2267 .LDWlin179:
                        2268 	jarl	_RdcSt__UpdateConfig,lp
                        2268 <EXPANSION BEGIN>
                        2268 jarl22 _RdcSt__UpdateConfig , lp 
00000ae8 bfff74f5*      2268 <EXPANSION END>
                        2269 --line313
                        2270 ..lin.C.3A.5C_ECU2.5CECU_Rivian_A1.5CTarget.5Crepo_projects.5CpRealEcu.5CcL_R2023.2E09.2E01.5Cmake.5Coutput.5Cobjects.5CRdcStandstill.180::
                        2271 .LDWlin180:
00000aec 3e0600000000*  2272 	mov	_RdcSt__UN_PressureOnKeyConfig,ep
                        2273 --line315
                        2274 ..lin.C.3A.5C_ECU2.5CECU_Rivian_A1.5CTarget.5Crepo_projects.5CpRealEcu.5CcL_R2023.2E09.2E01.5Cmake.5Coutput.5Cobjects.5CRdcStandstill.181::
                        2275 .LDWlin181:
00000af2 6368           2276 	sld.bu	3[ep],r13
00000af4 6188           2277 	sld.bu	1[ep],r17
00000af6 6278           2278 	sld.bu	2[ep],r15
00000af8 809660ea       2279 	ori	60000,zero,r18
00000afc ed766400       2280 	mulhi	100,r13,r14
00000b00 f1972202       2281 	mulu	r17,r18,zero
00000b04 ef866400       2282 	mulhi	100,r15,r16
00000b08 405e0000*      2283 	movhi	hi(_RdcSt__U32_WakeupInterval_xms),zero,r11
00000b0c 40660000*      2284 	movhi	hi(_RdcSt__U32_WakeTime_xms),zero,r12
00000b10 406e0000*      2285 	movhi	hi(_RdcSt__U32_WakeOffset_xms),zero,r13
00000b14 6b970100*      2286 	st.w	r18,lo(_RdcSt__U32_WakeupInterval_xms)[r11]
00000b18 6c870100*      2287 	st.w	r16,lo(_RdcSt__U32_WakeTime_xms)[r12]
00000b1c 6d770100*      2288 	st.w	r14,lo(_RdcSt__U32_WakeOffset_xms)[r13]
                        2289 --	    .ef
                        2290 .LDW56:
                        2291 --line316
                        2292 ..lin.C.3A.5C_ECU2.5CECU_Rivian_A1.5CTarget.5Crepo_projects.5CpRealEcu.5CcL_R2023.2E09.2E01.5Cmake.5Coutput.5Cobjects.5CRdcStandstill.182::
                        2293 .LDWlin182:
00000b20 40067f00       2294 	dispose	0,{r29,r31},[lp]
                        2295 	.global	___ghs_eofn_RdcSt_WritePressureOnKeyConfig
                        2296 ___ghs_eofn_RdcSt_WritePressureOnKeyConfig:
                        2297 	.type	_RdcSt_WritePressureOnKeyConfig,@function
                        2298 	.size	_RdcSt_WritePressureOnKeyConfig,.-_RdcSt_WritePressureOnKeyConfig
                        2299 	.align	2
                        2300 
                        2301 --_PU8_Data	r29	param
                        2302 
                        2303 	.section ".bss","awb"
                        2304 .L2897:
                        2305 	.type	.L2897,@object
                        2306 	.size	.L2897,0
                        2307 	.data
                        2308 	.text
                        2309 	.align	2
                        2310 	.align	2
                        2311 ..gh.f.f.1.e.22:
                        2312 	.type	..gh.f.f.1.e.22,@object
                        2313 	.size	..gh.f.f.1.e.22,0
                        2314 	.global	_RdcSt_ReadPressureOnKeyStatus
                        2315 _RdcSt_ReadPressureOnKeyStatus:
00000b24 80076100       2316 	prepare	{r29,r31},0
00000b28 06e8           2317 	mov	r6,r29
                        2318 --	    .bf
                        2319 .LDW66:

                                                                      Page 45
                                                              C:\Users\nhuliyap\AppData\Local\Temp\gh_0000b0k1.s
00000b2a 0638           2320 	mov	r6,r7
00000b2c 0e32           2321 	mov	14,r6
                        2322 	jarl	_NvmMGR_ReadBSWMember,lp
                        2322 <EXPANSION BEGIN>
                        2322 jarl22 _NvmMGR_ReadBSWMember , lp 
00000b2e 80ff0000*      2322 <EXPANSION END>
                        2323 --line321
                        2324 ..lin.C.3A.5C_ECU2.5CECU_Rivian_A1.5CTarget.5Crepo_projects.5CpRealEcu.5CcL_R2023.2E09.2E01.5Cmake.5Coutput.5Cobjects.5CRdcStandstill.183::
                        2325 .LDWlin183:
00000b32 1d3e0200       2326 	addi	2,r29,r7
00000b36 0f32           2327 	mov	15,r6
                        2328 	jarl	_NvmMGR_ReadBSWMember,lp
                        2328 <EXPANSION BEGIN>
                        2328 jarl22 _NvmMGR_ReadBSWMember , lp 
00000b38 80ff0000*      2328 <EXPANSION END>
                        2329 --line322
                        2330 ..lin.C.3A.5C_ECU2.5CECU_Rivian_A1.5CTarget.5Crepo_projects.5CpRealEcu.5CcL_R2023.2E09.2E01.5Cmake.5Coutput.5Cobjects.5CRdcStandstill.184::
                        2331 .LDWlin184:
00000b3c 1d3e0400       2332 	addi	4,r29,r7
00000b40 20361100       2333 	movea	17,zero,r6
                        2334 	jarl	_NvmMGR_ReadBSWMember,lp
                        2334 <EXPANSION BEGIN>
                        2334 jarl22 _NvmMGR_ReadBSWMember , lp 
00000b44 80ff0000*      2334 <EXPANSION END>
                        2335 --line323
                        2336 ..lin.C.3A.5C_ECU2.5CECU_Rivian_A1.5CTarget.5Crepo_projects.5CpRealEcu.5CcL_R2023.2E09.2E01.5Cmake.5Coutput.5Cobjects.5CRdcStandstill.185::
                        2337 .LDWlin185:
00000b48 1d3e0600       2338 	addi	6,r29,r7
00000b4c 20361000       2339 	movea	16,zero,r6
                        2340 	jarl	_NvmMGR_ReadBSWMember,lp
                        2340 <EXPANSION BEGIN>
                        2340 jarl22 _NvmMGR_ReadBSWMember , lp 
00000b50 80ff0000*      2340 <EXPANSION END>
                        2341 --line324
                        2342 ..lin.C.3A.5C_ECU2.5CECU_Rivian_A1.5CTarget.5Crepo_projects.5CpRealEcu.5CcL_R2023.2E09.2E01.5Cmake.5Coutput.5Cobjects.5CRdcStandstill.186::
                        2343 .LDWlin186:
00000b54 1d3e0800       2344 	addi	8,r29,r7
00000b58 20361200       2345 	movea	18,zero,r6
                        2346 	jarl	_NvmMGR_ReadBSWMember,lp
                        2346 <EXPANSION BEGIN>
                        2346 jarl22 _NvmMGR_ReadBSWMember , lp 
00000b5c 80ff0000*      2346 <EXPANSION END>
                        2347 --line325
                        2348 ..lin.C.3A.5C_ECU2.5CECU_Rivian_A1.5CTarget.5Crepo_projects.5CpRealEcu.5CcL_R2023.2E09.2E01.5Cmake.5Coutput.5Cobjects.5CRdcStandstill.187::
                        2349 .LDWlin187:
00000b60 1d3e1c00       2350 	addi	28,r29,r7
00000b64 20361300       2351 	movea	19,zero,r6
                        2352 	jarl	_NvmMGR_ReadBSWMember,lp
                        2352 <EXPANSION BEGIN>
                        2352 jarl22 _NvmMGR_ReadBSWMember , lp 
00000b68 80ff0000*      2352 <EXPANSION END>
                        2353 --	    .ef
                        2354 .LDW76:
                        2355 --line326
                        2356 ..lin.C.3A.5C_ECU2.5CECU_Rivian_A1.5CTarget.5Crepo_projects.5CpRealEcu.5CcL_R2023.2E09.2E01.5Cmake.5Coutput.5Cobjects.5CRdcStandstill.188::
                        2357 .LDWlin188:
00000b6c 40067f00       2358 	dispose	0,{r29,r31},[lp]
                        2359 	.global	___ghs_eofn_RdcSt_ReadPressureOnKeyStatus
                        2360 ___ghs_eofn_RdcSt_ReadPressureOnKeyStatus:
                        2361 	.type	_RdcSt_ReadPressureOnKeyStatus,@function
                        2362 	.size	_RdcSt_ReadPressureOnKeyStatus,.-_RdcSt_ReadPressureOnKeyStatus

                                                                      Page 46
                                                              C:\Users\nhuliyap\AppData\Local\Temp\gh_0000b0k1.s
                        2363 	.align	2
                        2364 
                        2365 --_PU8_Data	r29	param
                        2366 
                        2367 	.section ".bss","awb"
                        2368 .L2945:
                        2369 	.type	.L2945,@object
                        2370 	.size	.L2945,0
                        2371 	.data
                        2372 	.text
                        2373 	.align	2
                        2374 --_RdcSt__BO_IsStandstillMonitoringActive	_RdcSt__BO_IsStandstillMonitoringActive	static
                        2375 --_RdcSt__BO_HasSyncPeriodExpired	_RdcSt__BO_HasSyncPeriodExpired	static
                        2376 --_RdcSt__U32_StartOfStandstillTimestamp	_RdcSt__U32_StartOfStandstillTimestamp	static
                        2377 --_RdcSt__AU32_StartOfWakeupPeriod	_RdcSt__AU32_StartOfWakeupPeriod	static
                        2378 --_RdcSt__U8_MonitoringStatus	_RdcSt__U8_MonitoringStatus	static
                        2379 --_RdcSt__U8_ExtendedWakeup	_RdcSt__U8_ExtendedWakeup	static
                        2380 --_RdcSt__BO_SleepRequested	_RdcSt__BO_SleepRequested	static
                        2381 --_RdcSt__AS_WSData	_RdcSt__AS_WSData	static
                        2382 --_RdcSt__U8_MainTimer	_RdcSt__U8_MainTimer	static
                        2383 --_RdcSt__U32_ElapsedTimeInMs	_RdcSt__U32_ElapsedTimeInMs	static
                        2384 --_RdcSt__UN_PressureOnKeyConfig	_RdcSt__UN_PressureOnKeyConfig	static
                        2385 --_RdcSt__U32_WakeupInterval_xms	_RdcSt__U32_WakeupInterval_xms	static
                        2386 --_RdcSt__U32_WakeTime_xms	_RdcSt__U32_WakeTime_xms	static
                        2387 --_RdcSt__U32_WakeOffset_xms	_RdcSt__U32_WakeOffset_xms	static
                        2388 --_RdcSt__U64_CGMTimestampAtStart	_RdcSt__U64_CGMTimestampAtStart	static
                        2389 --_AU32_MonitoringTimeForEachWs_xms	_AU32_MonitoringTimeForEachWs_xms	static
                        2390 --_AU32_LastReceptionTimestampForEachWs_xms	_AU32_LastReceptionTimestampForEachWs_xms	static
                        2391 
                        2392 	.data
                        2393 	.ghsnote version,17
                        2394 	.ghsnote tools,3
                        2395 	.ghsnote options,144
                        2396 	.text
                        2397 	.align	2
                        2398 ..eof.C.3A.5C_ECU2.5CECU_Rivian_A1.5CTarget.5Crepo_projects.5CpRealEcu.5CcL_R2023.2E09.2E01.5Cmake.5Coutput.5Cobjects.5CRdcStandstill...43.3A.5C_ECU2.5CECU_Rivian_A1.5CTarget.5Crepo_projects.5CpRealEcu.5CcL_R2023.2E09.2E01.5Cmake..64F82342..0::
                        2399 	.section	.debug_info
                        2400 .Ldw_begin:
00000000 641a0000       2401 	.word	.Ldw_end-.Ldw_begin-4
00000004 0200           2402 	.byte	2,0
00000006 00000000*      2403 	.word	.Ldw_abbr_begin
0000000a 04             2404 	.byte	4
                        2405 	.section	.debug_abbrev
                        2406 .Ldw_abbr_begin:
                        2407 	.section	.debug_info
0000000b 01             2408 	.byte	1
0000000c 00000000*      2409 	.word	..bof.C.3A.5C_ECU2.5CECU_Rivian_A1.5CTarget.5Crepo_projects.5CpRealEcu.5CcL_R2023.2E09.2E01.5Cmake.5Coutput.5Cobjects.5CRdcStandstill...43.3A.5C_ECU2.5CECU_Rivian_A1.5CTarget.5Crepo_projects.5CpRealEcu.5CcL_R2023.2E09.2E01.5Cmake..64F82342..0
00000010 00000000*      2410 	.word	..eof.C.3A.5C_ECU2.5CECU_Rivian_A1.5CTarget.5Crepo_projects.5CpRealEcu.5CcL_R2023.2E09.2E01.5Cmake.5Coutput.5Cobjects.5CRdcStandstill...43.3A.5C_ECU2.5CECU_Rivian_A1.5CTarget.5Crepo_projects.5CpRealEcu.5CcL_R2023.2E09.2E01.5Cmake..64F82342..0
00000014 2e2e2f736f75   2411 	.strz	"../source/wrappers/RDC_MANAGER/RdcStandstill.c"
0000001a 7263652f7772 
00000020 617070657273 
00000026 2f5244435f4d 
0000002c 414e41474552 
00000032 2f5264635374 
00000038 616e64737469 
0000003e 6c6c2e6300 
00000043 433a5c5f4543   2412 	.strz	"C:\\_ECU2\\ECU_Rivian_A1\\Target\\repo_projects\\pRealEcu\\cL_R2023.09.01\\make"
00000049 55325c454355 
0000004f 5f5269766961 
00000055 6e5f41315c54 
0000005b 61726765745c 

                                                                      Page 47
                                                              C:\Users\nhuliyap\AppData\Local\Temp\gh_0000b0k1.s
00000061 7265706f5f70 
00000067 726f6a656374 
0000006d 735c70526561 
00000073 6c4563755c63 
00000079 4c5f52323032 
0000007f 332e30392e30 
00000085 315c6d616b65 
0000008b 00 
0000008c 474853204320   2413 	.strz	"GHS C 2015.1.7 [dual]"
00000092 323031352e31 
00000098 2e37205b6475 
0000009e 616c5d00 
000000a2 0100           2414 	.byte	1,0
000000a4 00000000*      2415 	.word	.Ldw_line_begin
000000a8 00000000*      2416 	.word	.Ldw_macinfo_begin
000000ac 00             2417 	.byte	0
                        2418 
                        2419 	.section	.debug_abbrev
00000000 01             2420 	.byte	1
00000001 11             2421 	.byte	17
00000002 01             2422 	.byte	1
00000003 1101           2423 	.byte	17,1
00000005 1201           2424 	.byte	18,1
00000007 0308           2425 	.byte	3,8
00000009 1b08           2426 	.byte	27,8
0000000b 2508           2427 	.byte	37,8
0000000d 1305           2428 	.byte	19,5
0000000f 1006           2429 	.byte	16,6
00000011 4306           2430 	.byte	67,6
00000013 420b           2431 	.byte	66,11
00000015 0000           2432 	.byte	0,0
                        2433 
                        2434 	.section	.debug_line
                        2435 .Ldw_line_begin:
00000000 6b140000       2436 	.word	.Ldw_line_end-.Ldw_line_begin-4
00000004 0200           2437 	.byte	2,0
00000006 00000000*      2438 	.word	.Ldw_lpro_end-.Ldw_lpro_begin
                        2439 .Ldw_lpro_begin:
0000000a 01             2440 	.byte	1
0000000b 00             2441 	.byte	0
0000000c 00             2442 	.byte	0
0000000d 04             2443 	.byte	4
0000000e 0a             2444 	.byte	10
0000000f 000101         2445 	.byte	0,1,1
00000012 010100         2446 	.byte	1,1,0
00000015 000001         2447 	.byte	0,0,1
00000018 00             2448 	.byte	0
00000019 2e2e2f736f75   2449 	.strz	"../source/wrappers/RDC_MANAGER/RdcStandstill.c"
0000001f 7263652f7772 
00000025 617070657273 
0000002b 2f5244435f4d 
00000031 414e41474552 
00000037 2f5264635374 
0000003d 616e64737469 
00000043 6c6c2e6300 
00000048 000000         2450 	.byte	0,0,0
0000004b 2e2e2f736f75   2451 	.strz	"../source/wrappers/RDC_MANAGER/RdcStandstill.hpp"
00000051 7263652f7772 
00000057 617070657273 
0000005d 2f5244435f4d 
00000063 414e41474552 

                                                                      Page 48
                                                              C:\Users\nhuliyap\AppData\Local\Temp\gh_0000b0k1.s
00000069 2f5264635374 
0000006f 616e64737469 
00000075 6c6c2e687070 
0000007b 00 
0000007c 000000         2452 	.byte	0,0,0
0000007f 2e2e2f736f75   2453 	.strz	"../source/wrappers/RDC_MANAGER/RdcStandstillX.hpp"
00000085 7263652f7772 
0000008b 617070657273 
00000091 2f5244435f4d 
00000097 414e41474552 
0000009d 2f5264635374 
000000a3 616e64737469 
000000a9 6c6c582e6870 
000000af 7000 
000000b1 000000         2454 	.byte	0,0,0
000000b4 2e2e2f736f75   2455 	.strz	"../source/common/Std_Types.hpp"
000000ba 7263652f636f 
000000c0 6d6d6f6e2f53 
000000c6 74645f547970 
000000cc 65732e687070 
000000d2 00 
000000d3 000000         2456 	.byte	0,0,0
000000d6 2e2e2f736f75   2457 	.strz	"../source/common/Platform_Types.hpp"
000000dc 7263652f636f 
000000e2 6d6d6f6e2f50 
000000e8 6c6174666f72 
000000ee 6d5f54797065 
000000f4 732e68707000 
000000fa 000000         2458 	.byte	0,0,0
000000fd 2e2e2f736f75   2459 	.strz	"../source/common/Compiler.hpp"
00000103 7263652f636f 
00000109 6d6d6f6e2f43 
0000010f 6f6d70696c65 
00000115 722e68707000 
0000011b 000000         2460 	.byte	0,0,0
0000011e 2e2e2f736f75   2461 	.strz	"../source/ProjectCompiler/Compiler_Cfg.hpp"
00000124 7263652f5072 
0000012a 6f6a65637443 
00000130 6f6d70696c65 
00000136 722f436f6d70 
0000013c 696c65725f43 
00000142 66672e687070 
00000148 00 
00000149 000000         2462 	.byte	0,0,0
0000014c 2e2e2f736f75   2463 	.strz	"../source/ProjectCompiler/CompilerCfg_SwcServiceOs.hpp"
00000152 7263652f5072 
00000158 6f6a65637443 
0000015e 6f6d70696c65 
00000164 722f436f6d70 
0000016a 696c65724366 
00000170 675f53776353 
00000176 657276696365 
0000017c 4f732e687070 
00000182 00 
00000183 000000         2464 	.byte	0,0,0
00000186 2e2e2f736f75   2465 	.strz	"../source/wrappers/version.hpp"
0000018c 7263652f7772 
00000192 617070657273 
00000198 2f7665727369 
0000019e 6f6e2e687070 
000001a4 00 

                                                                      Page 49
                                                              C:\Users\nhuliyap\AppData\Local\Temp\gh_0000b0k1.s
000001a5 000000         2466 	.byte	0,0,0
000001a8 2e2e2f736f75   2467 	.strz	"../source/McalMcu/types.hpp"
000001ae 7263652f4d63 
000001b4 616c4d63752f 
000001ba 74797065732e 
000001c0 68707000 
000001c4 000000         2468 	.byte	0,0,0
000001c7 2e2e2f736f75   2469 	.strz	"../source/wrappers/can.hpp"
000001cd 7263652f7772 
000001d3 617070657273 
000001d9 2f63616e2e68 
000001df 707000 
000001e2 000000         2470 	.byte	0,0,0
000001e5 2e2e2f736f75   2471 	.strz	"../source/McalCan/rscanX.hpp"
000001eb 7263652f4d63 
000001f1 616c43616e2f 
000001f7 727363616e58 
000001fd 2e68707000 
00000202 000000         2472 	.byte	0,0,0
00000205 2e2e2f736f75   2473 	.strz	"../source/ProjectCfg/Com_Cfg_SymbolicNames.hpp"
0000020b 7263652f5072 
00000211 6f6a65637443 
00000217 66672f436f6d 
0000021d 5f4366675f53 
00000223 796d626f6c69 
00000229 634e616d6573 
0000022f 2e68707000 
00000234 000000         2474 	.byte	0,0,0
00000237 2e2e2f736f75   2475 	.strz	"../source/wrappers/EcuabCanIf/Integration/Can_GeneralTypes.hpp"
0000023d 7263652f7772 
00000243 617070657273 
00000249 2f4563756162 
0000024f 43616e49662f 
00000255 496e74656772 
0000025b 6174696f6e2f 
00000261 43616e5f4765 
00000267 6e6572616c54 
0000026d 797065732e68 
00000273 707000 
00000276 000000         2476 	.byte	0,0,0
00000279 2e2e2f736f75   2477 	.strz	"../source/wrappers/SwcServiceComStack/ComStack_Types.hpp"
0000027f 7263652f7772 
00000285 617070657273 
0000028b 2f5377635365 
00000291 727669636543 
00000297 6f6d53746163 
0000029d 6b2f436f6d53 
000002a3 7461636b5f54 
000002a9 797065732e68 
000002af 707000 
000002b2 000000         2478 	.byte	0,0,0
000002b5 2e2e2f736f75   2479 	.strz	"../source/ProjectCfg/ComStack_Cfg.hpp"
000002bb 7263652f5072 
000002c1 6f6a65637443 
000002c7 66672f436f6d 
000002cd 537461636b5f 
000002d3 4366672e6870 
000002d9 7000 
000002db 000000         2480 	.byte	0,0,0
000002de 2e2e2f736f75   2481 	.strz	"../source/wrappers/RDC_MANAGER/RdcRingbuffer.hpp"
000002e4 7263652f7772 

                                                                      Page 50
                                                              C:\Users\nhuliyap\AppData\Local\Temp\gh_0000b0k1.s
000002ea 617070657273 
000002f0 2f5244435f4d 
000002f6 414e41474552 
000002fc 2f5264635269 
00000302 6e6762756666 
00000308 65722e687070 
0000030e 00 
0000030f 000000         2482 	.byte	0,0,0
00000312 2e2e2f736f75   2483 	.strz	"../source/wrappers/RDC_MANAGER/RdcRingbufferX.hpp"
00000318 7263652f7772 
0000031e 617070657273 
00000324 2f5244435f4d 
0000032a 414e41474552 
00000330 2f5264635269 
00000336 6e6762756666 
0000033c 6572582e6870 
00000342 7000 
00000344 000000         2484 	.byte	0,0,0
00000347 2e2e2f736f75   2485 	.strz	"../source/wrappers/McalAta/ata_dev_5785.hpp"
0000034d 7263652f7772 
00000353 617070657273 
00000359 2f4d63616c41 
0000035f 74612f617461 
00000365 5f6465765f35 
0000036b 3738352e6870 
00000371 7000 
00000373 000000         2486 	.byte	0,0,0
00000376 2e2e2f736f75   2487 	.strz	"../source/wrappers/McalAta/ata_dev_5785_X.hpp"
0000037c 7263652f7772 
00000382 617070657273 
00000388 2f4d63616c41 
0000038e 74612f617461 
00000394 5f6465765f35 
0000039a 3738355f582e 
000003a0 68707000 
000003a4 000000         2488 	.byte	0,0,0
000003a7 2e2e2f736f75   2489 	.strz	"../source/SwcApplTpms/iTpms_Interface.hpp"
000003ad 7263652f5377 
000003b3 634170706c54 
000003b9 706d732f6954 
000003bf 706d735f496e 
000003c5 746572666163 
000003cb 652e68707000 
000003d1 000000         2490 	.byte	0,0,0
000003d4 2e2e2f736f75   2491 	.strz	"../source/SwcApplTpms/Tpms_Rte_Data_Type.hpp"
000003da 7263652f5377 
000003e0 634170706c54 
000003e6 706d732f5470 
000003ec 6d735f527465 
000003f2 5f446174615f 
000003f8 547970652e68 
000003fe 707000 
00000401 000000         2492 	.byte	0,0,0
00000404 2e2e2f736f75   2493 	.strz	"../source/wrappers/RDC_MANAGER/RdcManager.hpp"
0000040a 7263652f7772 
00000410 617070657273 
00000416 2f5244435f4d 
0000041c 414e41474552 
00000422 2f5264634d61 
00000428 6e616765722e 
0000042e 68707000 

                                                                      Page 51
                                                              C:\Users\nhuliyap\AppData\Local\Temp\gh_0000b0k1.s
00000432 000000         2494 	.byte	0,0,0
00000435 2e2e2f736f75   2495 	.strz	"../source/wrappers/RDC_MANAGER/RdcManagerX.hpp"
0000043b 7263652f7772 
00000441 617070657273 
00000447 2f5244435f4d 
0000044d 414e41474552 
00000453 2f5264634d61 
00000459 6e6167657258 
0000045f 2e68707000 
00000464 000000         2496 	.byte	0,0,0
00000467 2e2e2f736f75   2497 	.strz	"../source/McalGpt/TauX.hpp"
0000046d 7263652f4d63 
00000473 616c4770742f 
00000479 546175582e68 
0000047f 707000 
00000482 000000         2498 	.byte	0,0,0
00000485 2e2e2f736f75   2499 	.strz	"../source/wrappers/SYS_MANAGER/SysManagerX.hpp"
0000048b 7263652f7772 
00000491 617070657273 
00000497 2f5359535f4d 
0000049d 414e41474552 
000004a3 2f5379734d61 
000004a9 6e6167657258 
000004af 2e68707000 
000004b4 000000         2500 	.byte	0,0,0
000004b7 2e2e2f736f75   2501 	.strz	"../source/wrappers/ENV_MANAGER/EnvManagerX.hpp"
000004bd 7263652f7772 
000004c3 617070657273 
000004c9 2f454e565f4d 
000004cf 414e41474552 
000004d5 2f456e764d61 
000004db 6e6167657258 
000004e1 2e68707000 
000004e6 000000         2502 	.byte	0,0,0
000004e9 2e2e2f736f75   2503 	.strz	"../source/wrappers/SwcServiceDem/Dem.hpp"
000004ef 7263652f7772 
000004f5 617070657273 
000004fb 2f5377635365 
00000501 727669636544 
00000507 656d2f44656d 
0000050d 2e68707000 
00000512 000000         2504 	.byte	0,0,0
00000515 2e2e2f736f75   2505 	.strz	"../source/wrappers/SwcServiceDem/Dem_Types.hpp"
0000051b 7263652f7772 
00000521 617070657273 
00000527 2f5377635365 
0000052d 727669636544 
00000533 656d2f44656d 
00000539 5f5479706573 
0000053f 2e68707000 
00000544 000000         2506 	.byte	0,0,0
00000547 2e2e2f736f75   2507 	.strz	"../source/ProjectCfg/Dem_Cfg.hpp"
0000054d 7263652f5072 
00000553 6f6a65637443 
00000559 66672f44656d 
0000055f 5f4366672e68 
00000565 707000 
00000568 000000         2508 	.byte	0,0,0
0000056b 2e2e2f736f75   2509 	.strz	"../source/ProjectCfg/Dem_Cfg_Client.hpp"
00000571 7263652f5072 
00000577 6f6a65637443 

                                                                      Page 52
                                                              C:\Users\nhuliyap\AppData\Local\Temp\gh_0000b0k1.s
0000057d 66672f44656d 
00000583 5f4366675f43 
00000589 6c69656e742e 
0000058f 68707000 
00000593 000000         2510 	.byte	0,0,0
00000596 2e2e2f736f75   2511 	.strz	"../source/wrappers/SwcServiceDem/Dem_ClientHandlingTypes.hpp"
0000059c 7263652f7772 
000005a2 617070657273 
000005a8 2f5377635365 
000005ae 727669636544 
000005b4 656d2f44656d 
000005ba 5f436c69656e 
000005c0 7448616e646c 
000005c6 696e67547970 
000005cc 65732e687070 
000005d2 00 
000005d3 000000         2512 	.byte	0,0,0
000005d6 2e2e2f736f75   2513 	.strz	"../source/ProjectCfg/Dem_Cfg_NodeId.hpp"
000005dc 7263652f5072 
000005e2 6f6a65637443 
000005e8 66672f44656d 
000005ee 5f4366675f4e 
000005f4 6f646549642e 
000005fa 68707000 
000005fe 000000         2514 	.byte	0,0,0
00000601 2e2e2f736f75   2515 	.strz	"../source/ProjectCfg/Dem_Cfg_Version.hpp"
00000607 7263652f5072 
0000060d 6f6a65637443 
00000613 66672f44656d 
00000619 5f4366675f56 
0000061f 657273696f6e 
00000625 2e68707000 
0000062a 000000         2516 	.byte	0,0,0
0000062d 2e2e2f736f75   2517 	.strz	"../source/wrappers/Rte_Dem_Type.hpp"
00000633 7263652f7772 
00000639 617070657273 
0000063f 2f5274655f44 
00000645 656d5f547970 
0000064b 652e68707000 
00000651 000000         2518 	.byte	0,0,0
00000654 2e2e2f736f75   2519 	.strz	"../source/ProjectCfg/Dem_Cfg_EventId.hpp"
0000065a 7263652f5072 
00000660 6f6a65637443 
00000666 66672f44656d 
0000066c 5f4366675f45 
00000672 76656e744964 
00000678 2e68707000 
0000067d 000000         2520 	.byte	0,0,0
00000680 2e2e2f736f75   2521 	.strz	"../source/ProjectCfg/Dem_Cfg_DtcId.hpp"
00000686 7263652f5072 
0000068c 6f6a65637443 
00000692 66672f44656d 
00000698 5f4366675f44 
0000069e 746349642e68 
000006a4 707000 
000006a7 000000         2522 	.byte	0,0,0
000006aa 2e2e2f736f75   2523 	.strz	"../source/ProjectCfg/Dem_Cfg_Main.hpp"
000006b0 7263652f5072 
000006b6 6f6a65637443 
000006bc 66672f44656d 
000006c2 5f4366675f4d 

                                                                      Page 53
                                                              C:\Users\nhuliyap\AppData\Local\Temp\gh_0000b0k1.s
000006c8 61696e2e6870 
000006ce 7000 
000006d0 000000         2524 	.byte	0,0,0
000006d3 2e2e2f736f75   2525 	.strz	"../source/ProjectCfg/Dem_Cfg_Deb.hpp"
000006d9 7263652f5072 
000006df 6f6a65637443 
000006e5 66672f44656d 
000006eb 5f4366675f44 
000006f1 65622e687070 
000006f7 00 
000006f8 000000         2526 	.byte	0,0,0
000006fb 2e2e2f736f75   2527 	.strz	"../source/ProjectCfg/Dem_Cfg_EnableCondition.hpp"
00000701 7263652f5072 
00000707 6f6a65637443 
0000070d 66672f44656d 
00000713 5f4366675f45 
00000719 6e61626c6543 
0000071f 6f6e64697469 
00000725 6f6e2e687070 
0000072b 00 
0000072c 000000         2528 	.byte	0,0,0
0000072f 2e2e2f736f75   2529 	.strz	"../source/ProjectCfg/Dem_Cfg_EventCategory.hpp"
00000735 7263652f5072 
0000073b 6f6a65637443 
00000741 66672f44656d 
00000747 5f4366675f45 
0000074d 76656e744361 
00000753 7465676f7279 
00000759 2e68707000 
0000075e 000000         2530 	.byte	0,0,0
00000761 2e2e2f736f75   2531 	.strz	"../source/ProjectCfg/Dem_Cfg_EventIndicators.hpp"
00000767 7263652f5072 
0000076d 6f6a65637443 
00000773 66672f44656d 
00000779 5f4366675f45 
0000077f 76656e74496e 
00000785 64696361746f 
0000078b 72732e687070 
00000791 00 
00000792 000000         2532 	.byte	0,0,0
00000795 2e2e2f736f75   2533 	.strz	"../source/ProjectCfg/Dem_Cfg_OperationCycle.hpp"
0000079b 7263652f5072 
000007a1 6f6a65637443 
000007a7 66672f44656d 
000007ad 5f4366675f4f 
000007b3 706572617469 
000007b9 6f6e4379636c 
000007bf 652e68707000 
000007c5 000000         2534 	.byte	0,0,0
000007c8 2e2e2f736f75   2535 	.strz	"../source/wrappers/LibAutosarDiag/rba_DiagLib_Bits8.hpp"
000007ce 7263652f7772 
000007d4 617070657273 
000007da 2f4c69624175 
000007e0 746f73617244 
000007e6 6961672f7262 
000007ec 615f44696167 
000007f2 4c69625f4269 
000007f8 7473382e6870 
000007fe 7000 
00000800 000000         2536 	.byte	0,0,0
00000803 2e2e2f736f75   2537 	.strz	"../source/wrappers/LibAutosarDiag/rba_DiagLib_Bits16.hpp"

                                                                      Page 54
                                                              C:\Users\nhuliyap\AppData\Local\Temp\gh_0000b0k1.s
00000809 7263652f7772 
0000080f 617070657273 
00000815 2f4c69624175 
0000081b 746f73617244 
00000821 6961672f7262 
00000827 615f44696167 
0000082d 4c69625f4269 
00000833 747331362e68 
00000839 707000 
0000083c 000000         2538 	.byte	0,0,0
0000083f 2e2e2f736f75   2539 	.strz	"../source/wrappers/LibAutosarDiag/rba_DiagLib_Bits32.hpp"
00000845 7263652f7772 
0000084b 617070657273 
00000851 2f4c69624175 
00000857 746f73617244 
0000085d 6961672f7262 
00000863 615f44696167 
00000869 4c69625f4269 
0000086f 747333322e68 
00000875 707000 
00000878 000000         2540 	.byte	0,0,0
0000087b 2e2e2f736f75   2541 	.strz	"../source/ProjectCfg/Dem_Cfg_StorageCondition.hpp"
00000881 7263652f5072 
00000887 6f6a65637443 
0000088d 66672f44656d 
00000893 5f4366675f53 
00000899 746f72616765 
0000089f 436f6e646974 
000008a5 696f6e2e6870 
000008ab 7000 
000008ad 000000         2542 	.byte	0,0,0
000008b0 2e2e2f736f75   2543 	.strz	"../source/wrappers/SwcServiceDem/Dem_Dlt.hpp"
000008b6 7263652f7772 
000008bc 617070657273 
000008c2 2f5377635365 
000008c8 727669636544 
000008ce 656d2f44656d 
000008d4 5f446c742e68 
000008da 707000 
000008dd 000000         2544 	.byte	0,0,0
000008e0 2e2e2f736f75   2545 	.strz	"../source/ProjectCompiler/Dem_MemMap.hpp"
000008e6 7263652f5072 
000008ec 6f6a65637443 
000008f2 6f6d70696c65 
000008f8 722f44656d5f 
000008fe 4d656d4d6170 
00000904 2e68707000 
00000909 000000         2546 	.byte	0,0,0
0000090c 2e2e2f736f75   2547 	.strz	"../source/ProjectCompiler/Dem_Cfg_MemMap.hpp"
00000912 7263652f5072 
00000918 6f6a65637443 
0000091e 6f6d70696c65 
00000924 722f44656d5f 
0000092a 4366675f4d65 
00000930 6d4d61702e68 
00000936 707000 
00000939 000000         2548 	.byte	0,0,0
0000093c 2e2e2f736f75   2549 	.strz	"../source/ProjectCompiler/Bsw_MemMap.hpp"
00000942 7263652f5072 
00000948 6f6a65637443 
0000094e 6f6d70696c65 

                                                                      Page 55
                                                              C:\Users\nhuliyap\AppData\Local\Temp\gh_0000b0k1.s
00000954 722f4273775f 
0000095a 4d656d4d6170 
00000960 2e68707000 
00000965 000000         2550 	.byte	0,0,0
00000968 2e2e2f736f75   2551 	.strz	"../source/ProjectCompiler/MemMap_Common.hpp"
0000096e 7263652f5072 
00000974 6f6a65637443 
0000097a 6f6d70696c65 
00000980 722f4d656d4d 
00000986 61705f436f6d 
0000098c 6d6f6e2e6870 
00000992 7000 
00000994 000000         2552 	.byte	0,0,0
00000997 2e2e2f736f75   2553 	.strz	"../source/wrappers/SwcServiceDem/Dem_Dcm_Internal.hpp"
0000099d 7263652f7772 
000009a3 617070657273 
000009a9 2f5377635365 
000009af 727669636544 
000009b5 656d2f44656d 
000009bb 5f44636d5f49 
000009c1 6e7465726e61 
000009c7 6c2e68707000 
000009cd 000000         2554 	.byte	0,0,0
000009d0 2e2e2f736f75   2555 	.strz	"../source/wrappers/SwcServiceDem/Dem_Dcm.hpp"
000009d6 7263652f7772 
000009dc 617070657273 
000009e2 2f5377635365 
000009e8 727669636544 
000009ee 656d2f44656d 
000009f4 5f44636d2e68 
000009fa 707000 
000009fd 000000         2556 	.byte	0,0,0
00000a00 2e2e2f736f75   2557 	.strz	"../source/wrappers/SwcServiceDcm/Dcm_Types.hpp"
00000a06 7263652f7772 
00000a0c 617070657273 
00000a12 2f5377635365 
00000a18 727669636544 
00000a1e 636d2f44636d 
00000a24 5f5479706573 
00000a2a 2e68707000 
00000a2f 000000         2558 	.byte	0,0,0
00000a32 2e2e2f736f75   2559 	.strz	"../source/wrappers/Rte_Dcm_Type.hpp"
00000a38 7263652f7772 
00000a3e 617070657273 
00000a44 2f5274655f44 
00000a4a 636d5f547970 
00000a50 652e68707000 
00000a56 000000         2560 	.byte	0,0,0
00000a59 2e2e2f736f75   2561 	.strz	"../source/wrappers/SwcServiceDem/Dem_J1939Dcm.hpp"
00000a5f 7263652f7772 
00000a65 617070657273 
00000a6b 2f5377635365 
00000a71 727669636544 
00000a77 656d2f44656d 
00000a7d 5f4a31393339 
00000a83 44636d2e6870 
00000a89 7000 
00000a8b 000000         2562 	.byte	0,0,0
00000a8e 2e2e2f736f75   2563 	.strz	"../source/wrappers/NVM_MANAGER/NvmManagerX.hpp"
00000a94 7263652f7772 
00000a9a 617070657273 

                                                                      Page 56
                                                              C:\Users\nhuliyap\AppData\Local\Temp\gh_0000b0k1.s
00000aa0 2f4e564d5f4d 
00000aa6 414e41474552 
00000aac 2f4e766d4d61 
00000ab2 6e6167657258 
00000ab8 2e68707000 
00000abd 000000         2564 	.byte	0,0,0
00000ac0 00             2565 	.byte	0
                        2566 .Ldw_lpro_end:
                        2567 	.section	.debug_macinfo
                        2568 .Ldw_macinfo_begin:
                        2569 	.section	.debug_frame
                        2570 .LDW_4d87930:
00000000 00000000*      2571 	.word	.LDW_unq_2-.LDW_unq_1
                        2572 .LDW_unq_1:
00000004 ffffffff       2573 	.byte	255,255,255,255
00000008 01             2574 	.byte	1
00000009 00             2575 	.byte	0
0000000a 01             2576 	.byte	1
0000000b 01             2577 	.byte	1
0000000c 1f             2578 	.byte	31
0000000d 0c             2579 	.byte	12
0000000e 03             2580 	.byte	3
0000000f 00             2581 	.byte	0
00000010 07             2582 	.byte	7
00000011 00             2583 	.byte	0
00000012 07             2584 	.byte	7
00000013 01             2585 	.byte	1
00000014 07             2586 	.byte	7
00000015 02             2587 	.byte	2
00000016 07             2588 	.byte	7
00000017 03             2589 	.byte	3
00000018 07             2590 	.byte	7
00000019 04             2591 	.byte	4
0000001a 07             2592 	.byte	7
0000001b 05             2593 	.byte	5
0000001c 07             2594 	.byte	7
0000001d 06             2595 	.byte	6
0000001e 07             2596 	.byte	7
0000001f 07             2597 	.byte	7
00000020 07             2598 	.byte	7
00000021 08             2599 	.byte	8
00000022 07             2600 	.byte	7
00000023 09             2601 	.byte	9
00000024 07             2602 	.byte	7
00000025 0a             2603 	.byte	10
00000026 07             2604 	.byte	7
00000027 0b             2605 	.byte	11
00000028 07             2606 	.byte	7
00000029 0c             2607 	.byte	12
0000002a 07             2608 	.byte	7
0000002b 0d             2609 	.byte	13
0000002c 07             2610 	.byte	7
0000002d 0e             2611 	.byte	14
0000002e 07             2612 	.byte	7
0000002f 0f             2613 	.byte	15
00000030 07             2614 	.byte	7
00000031 10             2615 	.byte	16
00000032 07             2616 	.byte	7
00000033 11             2617 	.byte	17
00000034 07             2618 	.byte	7
00000035 12             2619 	.byte	18

                                                                      Page 57
                                                              C:\Users\nhuliyap\AppData\Local\Temp\gh_0000b0k1.s
00000036 07             2620 	.byte	7
00000037 13             2621 	.byte	19
00000038 08             2622 	.byte	8
00000039 14             2623 	.byte	20
0000003a 08             2624 	.byte	8
0000003b 15             2625 	.byte	21
0000003c 08             2626 	.byte	8
0000003d 16             2627 	.byte	22
0000003e 08             2628 	.byte	8
0000003f 17             2629 	.byte	23
00000040 08             2630 	.byte	8
00000041 18             2631 	.byte	24
00000042 08             2632 	.byte	8
00000043 19             2633 	.byte	25
00000044 08             2634 	.byte	8
00000045 1a             2635 	.byte	26
00000046 08             2636 	.byte	8
00000047 1b             2637 	.byte	27
00000048 08             2638 	.byte	8
00000049 1c             2639 	.byte	28
0000004a 08             2640 	.byte	8
0000004b 1d             2641 	.byte	29
0000004c 07             2642 	.byte	7
0000004d 1e             2643 	.byte	30
0000004e 08             2644 	.byte	8
0000004f 1f             2645 	.byte	31
00000050 07             2646 	.byte	7
00000051 20             2647 	.byte	32
00000052 07             2648 	.byte	7
00000053 21             2649 	.byte	33
00000054 07             2650 	.byte	7
00000055 22             2651 	.byte	34
00000056 07             2652 	.byte	7
00000057 23             2653 	.byte	35
00000058 07             2654 	.byte	7
00000059 24             2655 	.byte	36
0000005a 07             2656 	.byte	7
0000005b 25             2657 	.byte	37
0000005c 07             2658 	.byte	7
0000005d 26             2659 	.byte	38
0000005e 07             2660 	.byte	7
0000005f 27             2661 	.byte	39
00000060 07             2662 	.byte	7
00000061 28             2663 	.byte	40
00000062 07             2664 	.byte	7
00000063 29             2665 	.byte	41
00000064 07             2666 	.byte	7
00000065 2a             2667 	.byte	42
00000066 07             2668 	.byte	7
00000067 2b             2669 	.byte	43
00000068 07             2670 	.byte	7
00000069 2c             2671 	.byte	44
0000006a 07             2672 	.byte	7
0000006b 2d             2673 	.byte	45
0000006c 07             2674 	.byte	7
0000006d 2e             2675 	.byte	46
0000006e 07             2676 	.byte	7
0000006f 2f             2677 	.byte	47
00000070 07             2678 	.byte	7
00000071 30             2679 	.byte	48
00000072 07             2680 	.byte	7

                                                                      Page 58
                                                              C:\Users\nhuliyap\AppData\Local\Temp\gh_0000b0k1.s
00000073 31             2681 	.byte	49
00000074 07             2682 	.byte	7
00000075 32             2683 	.byte	50
00000076 07             2684 	.byte	7
00000077 33             2685 	.byte	51
00000078 07             2686 	.byte	7
00000079 34             2687 	.byte	52
0000007a 07             2688 	.byte	7
0000007b 35             2689 	.byte	53
0000007c 07             2690 	.byte	7
0000007d 36             2691 	.byte	54
0000007e 07             2692 	.byte	7
0000007f 37             2693 	.byte	55
00000080 07             2694 	.byte	7
00000081 38             2695 	.byte	56
00000082 07             2696 	.byte	7
00000083 39             2697 	.byte	57
00000084 07             2698 	.byte	7
00000085 3a             2699 	.byte	58
00000086 07             2700 	.byte	7
00000087 3b             2701 	.byte	59
00000088 07             2702 	.byte	7
00000089 3c             2703 	.byte	60
0000008a 07             2704 	.byte	7
0000008b 3d             2705 	.byte	61
0000008c 07             2706 	.byte	7
0000008d 3e             2707 	.byte	62
0000008e 07             2708 	.byte	7
0000008f 3f             2709 	.byte	63
                        2710 .LDW_unq_2:
                        2711 	.section	.debug_info
                        2712 .LDW_4836ec0:
000000ad 25             2713 	.byte	37
000000ae 756e7369676e   2714 	.strz	"unsigned char"
000000b4 656420636861 
000000ba 7200 
000000bc 08             2715 	.byte	8
000000bd 01             2716 	.byte	1
                        2717 
                        2718 	.section	.debug_abbrev
00000017 25             2719 	.byte	37
00000018 24             2720 	.byte	36
00000019 00             2721 	.byte	0
0000001a 0308           2722 	.byte	3,8
0000001c 3e0b           2723 	.byte	62,11
0000001e 0b0b           2724 	.byte	11,11
00000020 0000           2725 	.byte	0,0
                        2726 
                        2727 	.section	.debug_info
                        2728 .LDW_48374a8:
000000be 2f             2729 	.byte	47
000000bf 00000000*      2730 	.word	.LDW_484bd60
                        2731 
                        2732 	.section	.debug_abbrev
00000022 2f             2733 	.byte	47
00000023 0f             2734 	.byte	15
00000024 00             2735 	.byte	0
00000025 4910           2736 	.byte	73,16
00000027 0000           2737 	.byte	0,0
                        2738 
                        2739 	.section	.debug_info

                                                                      Page 59
                                                              C:\Users\nhuliyap\AppData\Local\Temp\gh_0000b0k1.s
                        2740 .LDW_4d0c498:
000000c3 25             2741 	.byte	37
000000c4 756e7369676e   2742 	.strz	"unsigned short"
000000ca 65642073686f 
000000d0 727400 
000000d3 07             2743 	.byte	7
000000d4 02             2744 	.byte	2
                        2745 
                        2746 .LDW_4d0c5b0:
000000d5 25             2747 	.byte	37
000000d6 756e7369676e   2748 	.strz	"unsigned long"
000000dc 6564206c6f6e 
000000e2 6700 
000000e4 07             2749 	.byte	7
000000e5 04             2750 	.byte	4
                        2751 
                        2752 .LDW_4d0c8c0:
000000e6 2f             2753 	.byte	47
000000e7 00000000*      2754 	.word	.LDW_4d3a4c8
                        2755 
                        2756 .LDW_4d59cf0:
000000eb 45             2757 	.byte	69
000000ec 01             2758 	.byte	1
                        2759 
                        2760 	.section	.debug_abbrev
00000029 45             2761 	.byte	69
0000002a 15             2762 	.byte	21
0000002b 01             2763 	.byte	1
0000002c 270c           2764 	.byte	39,12
0000002e 0000           2765 	.byte	0,0
                        2766 
                        2767 	.section	.debug_info
000000ed 00             2768 	.byte	0
                        2769 
                        2770 .LDW_4d59938:
000000ee 45             2771 	.byte	69
000000ef 01             2772 	.byte	1
                        2773 
000000f0 00             2774 	.byte	0
                        2775 
                        2776 .LDW_4d599a8:
000000f1 45             2777 	.byte	69
000000f2 01             2778 	.byte	1
                        2779 
000000f3 00             2780 	.byte	0
                        2781 
                        2782 .LDW_4d599e0:
000000f4 45             2783 	.byte	69
000000f5 01             2784 	.byte	1
                        2785 
000000f6 00             2786 	.byte	0
                        2787 
                        2788 .LDW_4d59c80:
000000f7 44             2789 	.byte	68
000000f8 00000000*      2790 	.word	.LDW_4d1ff90
000000fc 01             2791 	.byte	1
                        2792 
                        2793 	.section	.debug_abbrev
00000030 44             2794 	.byte	68
00000031 15             2795 	.byte	21
00000032 01             2796 	.byte	1

                                                                      Page 60
                                                              C:\Users\nhuliyap\AppData\Local\Temp\gh_0000b0k1.s
00000033 4910           2797 	.byte	73,16
00000035 270c           2798 	.byte	39,12
00000037 0000           2799 	.byte	0,0
                        2800 
                        2801 	.section	.debug_info
000000fd 00             2802 	.byte	0
                        2803 
                        2804 .LDW_4d59ba0:
000000fe 45             2805 	.byte	69
000000ff 01             2806 	.byte	1
                        2807 
                        2808 .LDW_4d5a428:
00000100 12             2809 	.byte	18
00000101 00000000*      2810 	.word	.LDW_48374a8
00000105 00             2811 	.byte	0
                        2812 
                        2813 	.section	.debug_abbrev
00000039 12             2814 	.byte	18
0000003a 05             2815 	.byte	5
0000003b 00             2816 	.byte	0
0000003c 4910           2817 	.byte	73,16
0000003e 4b0c           2818 	.byte	75,12
00000040 0000           2819 	.byte	0,0
                        2820 
                        2821 	.section	.debug_info
00000106 00             2822 	.byte	0
                        2823 
                        2824 .LDW_4d59c10:
00000107 45             2825 	.byte	69
00000108 01             2826 	.byte	1
                        2827 
00000109 00             2828 	.byte	0
                        2829 
                        2830 .LDW_4d59a18:
0000010a 45             2831 	.byte	69
0000010b 01             2832 	.byte	1
                        2833 
0000010c 00             2834 	.byte	0
                        2835 
                        2836 .LDW_4d59c48:
0000010d 2f             2837 	.byte	47
0000010e 00000000*      2838 	.word	.LDW_4d59600
                        2839 
                        2840 .LDW_4d59d60:
00000112 45             2841 	.byte	69
00000113 01             2842 	.byte	1
                        2843 
                        2844 .LDW_4d5a878:
00000114 12             2845 	.byte	18
00000115 00000000*      2846 	.word	.LDW_484bd60
00000119 00             2847 	.byte	0
                        2848 
0000011a 00             2849 	.byte	0
                        2850 
                        2851 .LDW_4d59a50:
0000011b 45             2852 	.byte	69
0000011c 01             2853 	.byte	1
                        2854 
                        2855 .LDW_4d5a638:
0000011d 12             2856 	.byte	18
0000011e 00000000*      2857 	.word	.LDW_48374a8

                                                                      Page 61
                                                              C:\Users\nhuliyap\AppData\Local\Temp\gh_0000b0k1.s
00000122 00             2858 	.byte	0
                        2859 
00000123 00             2860 	.byte	0
                        2861 
                        2862 .LDW_4cc3bc8:
00000124 29             2863 	.byte	41
00000125 00000000*      2864 	.word	.LDW_484bd60
                        2865 
                        2866 	.section	.debug_abbrev
00000042 29             2867 	.byte	41
00000043 26             2868 	.byte	38
00000044 00             2869 	.byte	0
00000045 4910           2870 	.byte	73,16
00000047 0000           2871 	.byte	0,0
                        2872 
                        2873 	.section	.debug_info
                        2874 .LDW_4d59a88:
00000129 2f             2875 	.byte	47
0000012a 00000000*      2876 	.word	.LDW_4cc3bc8
                        2877 
                        2878 .LDW_4d59ac0:
0000012e 45             2879 	.byte	69
0000012f 01             2880 	.byte	1
                        2881 
                        2882 .LDW_4d5a668:
00000130 12             2883 	.byte	18
00000131 00000000*      2884 	.word	.LDW_4d59a88
00000135 00             2885 	.byte	0
                        2886 
00000136 00             2887 	.byte	0
                        2888 
                        2889 .LDW_4d59af8:
00000137 45             2890 	.byte	69
00000138 01             2891 	.byte	1
                        2892 
                        2893 .LDW_4d5aa88:
00000139 12             2894 	.byte	18
0000013a 00000000*      2895 	.word	.LDW_48374a8
0000013e 00             2896 	.byte	0
                        2897 
0000013f 00             2898 	.byte	0
                        2899 
                        2900 .LDW_4d59b68:
00000140 45             2901 	.byte	69
00000141 01             2902 	.byte	1
                        2903 
00000142 00             2904 	.byte	0
                        2905 
                        2906 .LDW_4d59dd0:
00000143 45             2907 	.byte	69
00000144 01             2908 	.byte	1
                        2909 
00000145 00             2910 	.byte	0
                        2911 
                        2912 .LDW_4d59778:
00000146 45             2913 	.byte	69
00000147 01             2914 	.byte	1
                        2915 
00000148 00             2916 	.byte	0
                        2917 
                        2918 .LDW_4d597b0:

                                                                      Page 62
                                                              C:\Users\nhuliyap\AppData\Local\Temp\gh_0000b0k1.s
00000149 44             2919 	.byte	68
0000014a 00000000*      2920 	.word	.LDW_4d1ff90
0000014e 01             2921 	.byte	1
                        2922 
0000014f 00             2923 	.byte	0
                        2924 
                        2925 .LDW_4d59e40:
00000150 45             2926 	.byte	69
00000151 01             2927 	.byte	1
                        2928 
00000152 00             2929 	.byte	0
                        2930 
                        2931 .LDW_4d59e78:
00000153 45             2932 	.byte	69
00000154 01             2933 	.byte	1
                        2934 
00000155 00             2935 	.byte	0
                        2936 
                        2937 .LDW_4d59eb0:
00000156 45             2938 	.byte	69
00000157 01             2939 	.byte	1
                        2940 
00000158 00             2941 	.byte	0
                        2942 
                        2943 .LDW_4ccee60:
00000159 44             2944 	.byte	68
0000015a 00000000*      2945 	.word	.LDW_4d1ff90
0000015e 01             2946 	.byte	1
                        2947 
0000015f 00             2948 	.byte	0
                        2949 
                        2950 .LDW_4ccee98:
00000160 45             2951 	.byte	69
00000161 01             2952 	.byte	1
                        2953 
                        2954 .LDW_4d5a728:
00000162 12             2955 	.byte	18
00000163 00000000*      2956 	.word	.LDW_48374a8
00000167 00             2957 	.byte	0
                        2958 
00000168 00             2959 	.byte	0
                        2960 
                        2961 .LDW_4ccec68:
00000169 25             2962 	.byte	37
0000016a 756e7369676e   2963 	.strz	"unsigned long long"
00000170 6564206c6f6e 
00000176 67206c6f6e67 
0000017c 00 
0000017d 07             2964 	.byte	7
0000017e 08             2965 	.byte	8
                        2966 
                        2967 .LDW_4cce8b0:
0000017f 25             2968 	.byte	37
00000180 696e7400       2969 	.strz	"int"
00000184 05             2970 	.byte	5
00000185 04             2971 	.byte	4
                        2972 
                        2973 .LDW_4cc33e0:
00000186 29             2974 	.byte	41
00000187 00000000*      2975 	.word	.LDW_4d39ce0
                        2976 

                                                                      Page 63
                                                              C:\Users\nhuliyap\AppData\Local\Temp\gh_0000b0k1.s
                        2977 .LDW_481de78:
0000018b 3a             2978 	.byte	58
0000018c 00             2979 	.byte	0
0000018d 1a             2980 	.byte	26
0000018e 00000000*      2981 	.word	.LDW_4cc33e0
                        2982 
                        2983 	.section	.debug_abbrev
00000049 3a             2984 	.byte	58
0000004a 01             2985 	.byte	1
0000004b 01             2986 	.byte	1
0000004c 090b           2987 	.byte	9,11
0000004e 0b0f           2988 	.byte	11,15
00000050 4910           2989 	.byte	73,16
00000052 0000           2990 	.byte	0,0
                        2991 
                        2992 	.section	.debug_info
00000192 32             2993 	.byte	50
00000193 00000000*      2994 	.word	.LDW_4cce8b0
00000197 04             2995 	.byte	4
00000198 00             2996 	.byte	0
00000199 0c             2997 	.byte	12
                        2998 
                        2999 	.section	.debug_abbrev
00000054 32             3000 	.byte	50
00000055 21             3001 	.byte	33
00000056 00             3002 	.byte	0
00000057 4910           3003 	.byte	73,16
00000059 0b0f           3004 	.byte	11,15
0000005b 220d           3005 	.byte	34,13
0000005d 2f0d           3006 	.byte	47,13
0000005f 0000           3007 	.byte	0,0
                        3008 
                        3009 	.section	.debug_info
0000019a 00             3010 	.byte	0
                        3011 
                        3012 .LDW_481df00:
0000019b 3a             3013 	.byte	58
0000019c 00             3014 	.byte	0
0000019d 34             3015 	.byte	52
0000019e 00000000*      3016 	.word	.LDW_4cc33e0
                        3017 
000001a2 32             3018 	.byte	50
000001a3 00000000*      3019 	.word	.LDW_4cce8b0
000001a7 04             3020 	.byte	4
000001a8 00             3021 	.byte	0
000001a9 01             3022 	.byte	1
                        3023 
000001aa 32             3024 	.byte	50
000001ab 00000000*      3025 	.word	.LDW_4cce8b0
000001af 04             3026 	.byte	4
000001b0 00             3027 	.byte	0
000001b1 0c             3028 	.byte	12
                        3029 
000001b2 00             3030 	.byte	0
                        3031 
                        3032 .LDW_4cceed0:
000001b3 45             3033 	.byte	69
000001b4 01             3034 	.byte	1
                        3035 
000001b5 00             3036 	.byte	0
                        3037 

                                                                      Page 64
                                                              C:\Users\nhuliyap\AppData\Local\Temp\gh_0000b0k1.s
                        3038 .LDW_481df88:
000001b6 3a             3039 	.byte	58
000001b7 00             3040 	.byte	0
000001b8 14             3041 	.byte	20
000001b9 00000000*      3042 	.word	.LDW_484bd60
                        3043 
000001bd 32             3044 	.byte	50
000001be 00000000*      3045 	.word	.LDW_4cce8b0
000001c2 04             3046 	.byte	4
000001c3 00             3047 	.byte	0
000001c4 13             3048 	.byte	19
                        3049 
000001c5 00             3050 	.byte	0
                        3051 
                        3052 .LDW_481e010:
000001c6 3a             3053 	.byte	58
000001c7 00             3054 	.byte	0
000001c8 04             3055 	.byte	4
000001c9 00000000*      3056 	.word	.LDW_484bd60
                        3057 
000001cd 32             3058 	.byte	50
000001ce 00000000*      3059 	.word	.LDW_4cce8b0
000001d2 04             3060 	.byte	4
000001d3 00             3061 	.byte	0
000001d4 03             3062 	.byte	3
                        3063 
000001d5 00             3064 	.byte	0
                        3065 
                        3066 .LDW_4ccedb8:
000001d6 45             3067 	.byte	69
000001d7 01             3068 	.byte	1
                        3069 
000001d8 00             3070 	.byte	0
                        3071 
                        3072 .LDW_481e098:
000001d9 3a             3073 	.byte	58
000001da 00             3074 	.byte	0
000001db 10             3075 	.byte	16
000001dc 00000000*      3076 	.word	.LDW_4d3a4c8
                        3077 
000001e0 32             3078 	.byte	50
000001e1 00000000*      3079 	.word	.LDW_4cce8b0
000001e5 04             3080 	.byte	4
000001e6 00             3081 	.byte	0
000001e7 03             3082 	.byte	3
                        3083 
000001e8 00             3084 	.byte	0
                        3085 
                        3086 .LDW_4ccf018:
000001e9 3a             3087 	.byte	58
000001ea 00             3088 	.byte	0
000001eb 04             3089 	.byte	4
000001ec 00000000*      3090 	.word	.LDW_484bd60
                        3091 
000001f0 32             3092 	.byte	50
000001f1 00000000*      3093 	.word	.LDW_4cce8b0
000001f5 04             3094 	.byte	4
000001f6 00             3095 	.byte	0
000001f7 03             3096 	.byte	3
                        3097 
000001f8 00             3098 	.byte	0

                                                                      Page 65
                                                              C:\Users\nhuliyap\AppData\Local\Temp\gh_0000b0k1.s
                        3099 
                        3100 .LDW_4cced10:
000001f9 25             3101 	.byte	37
000001fa 756e7369676e   3102 	.strz	"unsigned int"
00000200 656420696e74 
00000206 00 
00000207 07             3103 	.byte	7
00000208 04             3104 	.byte	4
                        3105 
                        3106 .LDW_4e112a8:
00000209 3a             3107 	.byte	58
0000020a 00             3108 	.byte	0
0000020b 10             3109 	.byte	16
0000020c 00000000*      3110 	.word	.LDW_484bd60
                        3111 
00000210 32             3112 	.byte	50
00000211 00000000*      3113 	.word	.LDW_4cce8b0
00000215 04             3114 	.byte	4
00000216 00             3115 	.byte	0
00000217 0f             3116 	.byte	15
                        3117 
00000218 00             3118 	.byte	0
                        3119 
                        3120 .LDW_4e113b8:
00000219 3a             3121 	.byte	58
0000021a 00             3122 	.byte	0
0000021b 10             3123 	.byte	16
0000021c 00000000*      3124 	.word	.LDW_4d3a4c8
                        3125 
00000220 32             3126 	.byte	50
00000221 00000000*      3127 	.word	.LDW_4cce8b0
00000225 04             3128 	.byte	4
00000226 00             3129 	.byte	0
00000227 03             3130 	.byte	3
                        3131 
00000228 00             3132 	.byte	0
                        3133 
                        3134 .LDW_4e11550:
00000229 3a             3135 	.byte	58
0000022a 00             3136 	.byte	0
0000022b 20             3137 	.byte	32
0000022c 00000000*      3138 	.word	.LDW_4d5b8f0
                        3139 
00000230 32             3140 	.byte	50
00000231 00000000*      3141 	.word	.LDW_4cce8b0
00000235 04             3142 	.byte	4
00000236 00             3143 	.byte	0
00000237 03             3144 	.byte	3
                        3145 
00000238 00             3146 	.byte	0
                        3147 
                        3148 .LDW_4e114c8:
00000239 3a             3149 	.byte	58
0000023a 00             3150 	.byte	0
0000023b 10             3151 	.byte	16
0000023c 00000000*      3152 	.word	.LDW_4d3a4c8
                        3153 
00000240 32             3154 	.byte	50
00000241 00000000*      3155 	.word	.LDW_4cce8b0
00000245 04             3156 	.byte	4
00000246 00             3157 	.byte	0

                                                                      Page 66
                                                              C:\Users\nhuliyap\AppData\Local\Temp\gh_0000b0k1.s
00000247 03             3158 	.byte	3
                        3159 
00000248 00             3160 	.byte	0
                        3161 
                        3162 .LDW_4e11aa0:
00000249 3a             3163 	.byte	58
0000024a 00             3164 	.byte	0
0000024b 10             3165 	.byte	16
0000024c 00000000*      3166 	.word	.LDW_4d3a4c8
                        3167 
00000250 32             3168 	.byte	50
00000251 00000000*      3169 	.word	.LDW_4cce8b0
00000255 04             3170 	.byte	4
00000256 00             3171 	.byte	0
00000257 03             3172 	.byte	3
                        3173 
00000258 00             3174 	.byte	0
                        3175 
                        3176 .LDW_4dea090:
00000259 44             3177 	.byte	68
0000025a 00000000*      3178 	.word	.LDW_484bd60
0000025e 01             3179 	.byte	1
                        3180 
                        3181 .LDW_4deb798:
0000025f 12             3182 	.byte	18
00000260 00000000*      3183 	.word	.LDW_484bd60
00000264 00             3184 	.byte	0
                        3185 
00000265 00             3186 	.byte	0
                        3187 
                        3188 .LDW_4de9608:
00000266 29             3189 	.byte	41
00000267 00000000*      3190 	.word	.LDW_4d59600
                        3191 
                        3192 .LDW_4dedbf0:
0000026b 2f             3193 	.byte	47
0000026c 00000000*      3194 	.word	.LDW_4de9608
                        3195 
                        3196 .LDW_4dedf38:
00000270 2f             3197 	.byte	47
00000271 00000000*      3198 	.word	.LDW_4d59238
                        3199 
                        3200 .LDW_4dedc98:
00000275 45             3201 	.byte	69
00000276 01             3202 	.byte	1
                        3203 
                        3204 .LDW_4deb3d8:
00000277 12             3205 	.byte	18
00000278 00000000*      3206 	.word	.LDW_4dedf38
0000027c 00             3207 	.byte	0
                        3208 
                        3209 .LDW_4deaec8:
0000027d 12             3210 	.byte	18
0000027e 00000000*      3211 	.word	.LDW_4dedbf0
00000282 00             3212 	.byte	0
                        3213 
00000283 00             3214 	.byte	0
                        3215 
                        3216 .LDW_4dedcd0:
00000284 44             3217 	.byte	68
00000285 00000000*      3218 	.word	.LDW_484bd60

                                                                      Page 67
                                                              C:\Users\nhuliyap\AppData\Local\Temp\gh_0000b0k1.s
00000289 01             3219 	.byte	1
                        3220 
                        3221 .LDW_4deb468:
0000028a 12             3222 	.byte	18
0000028b 00000000*      3223 	.word	.LDW_4d39ce0
0000028f 00             3224 	.byte	0
                        3225 
                        3226 .LDW_4deb018:
00000290 12             3227 	.byte	18
00000291 00000000*      3228 	.word	.LDW_4d39ce0
00000295 00             3229 	.byte	0
                        3230 
                        3231 .LDW_4deb138:
00000296 12             3232 	.byte	18
00000297 00000000*      3233 	.word	.LDW_4d0c8c0
0000029b 00             3234 	.byte	0
                        3235 
0000029c 00             3236 	.byte	0
                        3237 
                        3238 .LDW_4dee018:
0000029d 45             3239 	.byte	69
0000029e 01             3240 	.byte	1
                        3241 
                        3242 .LDW_4deb378:
0000029f 12             3243 	.byte	18
000002a0 00000000*      3244 	.word	.LDW_4d0c8c0
000002a4 00             3245 	.byte	0
                        3246 
000002a5 00             3247 	.byte	0
                        3248 
                        3249 .LDW_4dee3f8:
000002a6 2f             3250 	.byte	47
000002a7 00000000*      3251 	.word	.LDW_4cc39b8
                        3252 
                        3253 .LDW_4dee580:
000002ab 45             3254 	.byte	69
000002ac 01             3255 	.byte	1
                        3256 
                        3257 .LDW_4e13960:
000002ad 12             3258 	.byte	18
000002ae 00000000*      3259 	.word	.LDW_4dee3f8
000002b2 00             3260 	.byte	0
                        3261 
000002b3 00             3262 	.byte	0
                        3263 
                        3264 .LDW_4dee200:
000002b4 45             3265 	.byte	69
000002b5 01             3266 	.byte	1
                        3267 
000002b6 00             3268 	.byte	0
                        3269 
                        3270 .LDW_4dee0e8:
000002b7 45             3271 	.byte	69
000002b8 01             3272 	.byte	1
                        3273 
                        3274 .LDW_4e13b10:
000002b9 12             3275 	.byte	18
000002ba 00000000*      3276 	.word	.LDW_4d5bd68
000002be 00             3277 	.byte	0
                        3278 
                        3279 .LDW_4e139f0:

                                                                      Page 68
                                                              C:\Users\nhuliyap\AppData\Local\Temp\gh_0000b0k1.s
000002bf 12             3280 	.byte	18
000002c0 00000000*      3281 	.word	.LDW_4d3a4c8
000002c4 00             3282 	.byte	0
                        3283 
000002c5 00             3284 	.byte	0
                        3285 
                        3286 .LDW_4dee660:
000002c6 45             3287 	.byte	69
000002c7 01             3288 	.byte	1
                        3289 
                        3290 .LDW_4e13ab0:
000002c8 12             3291 	.byte	18
000002c9 00000000*      3292 	.word	.LDW_4d5bd68
000002cd 00             3293 	.byte	0
                        3294 
000002ce 00             3295 	.byte	0
                        3296 
                        3297 .LDW_4dee120:
000002cf 45             3298 	.byte	69
000002d0 01             3299 	.byte	1
                        3300 
                        3301 .LDW_4e13ba0:
000002d1 12             3302 	.byte	18
000002d2 00000000*      3303 	.word	.LDW_4d5bd68
000002d6 00             3304 	.byte	0
                        3305 
                        3306 .LDW_4e12d30:
000002d7 12             3307 	.byte	18
000002d8 00000000*      3308 	.word	.LDW_4d0c8c0
000002dc 00             3309 	.byte	0
                        3310 
000002dd 00             3311 	.byte	0
                        3312 
                        3313 .LDW_4dee4d8:
000002de 45             3314 	.byte	69
000002df 01             3315 	.byte	1
                        3316 
                        3317 .LDW_4e12f70:
000002e0 12             3318 	.byte	18
000002e1 00000000*      3319 	.word	.LDW_4d5bc60
000002e5 00             3320 	.byte	0
                        3321 
000002e6 00             3322 	.byte	0
                        3323 
                        3324 .LDW_4e1b6a0:
000002e7 44             3325 	.byte	68
000002e8 00000000*      3326 	.word	.LDW_4d59c48
000002ec 01             3327 	.byte	1
                        3328 
000002ed 00             3329 	.byte	0
                        3330 
                        3331 .LDW_4e1bbe0:
000002ee 45             3332 	.byte	69
000002ef 01             3333 	.byte	1
                        3334 
                        3335 .LDW_4e1e8e8:
000002f0 12             3336 	.byte	18
000002f1 00000000*      3337 	.word	.LDW_4de94a8
000002f5 00             3338 	.byte	0
                        3339 
                        3340 .LDW_4e1ec78:

                                                                      Page 69
                                                              C:\Users\nhuliyap\AppData\Local\Temp\gh_0000b0k1.s
000002f6 12             3341 	.byte	18
000002f7 00000000*      3342 	.word	.LDW_4d59a88
000002fb 00             3343 	.byte	0
                        3344 
000002fc 00             3345 	.byte	0
                        3346 
                        3347 .LDW_4e1bac8:
000002fd 45             3348 	.byte	69
000002fe 01             3349 	.byte	1
                        3350 
                        3351 .LDW_4e1e918:
000002ff 12             3352 	.byte	18
00000300 00000000*      3353 	.word	.LDW_4de94a8
00000304 00             3354 	.byte	0
                        3355 
                        3356 .LDW_4e1ec18:
00000305 12             3357 	.byte	18
00000306 00000000*      3358 	.word	.LDW_48374a8
0000030a 00             3359 	.byte	0
                        3360 
0000030b 00             3361 	.byte	0
                        3362 
                        3363 .LDW_4d1ff90:
0000030c 28             3364 	.byte	40
0000030d 626f6f6c6561   3365 	.strz	"boolean"
00000313 6e00 
00000315 4e             3366 	.byte	78
00000316 49             3367 	.byte	73
00000317 05             3368 	.byte	5
00000318 00000000*      3369 	.word	.LDW_4836ec0
                        3370 
                        3371 	.section	.debug_abbrev
00000061 28             3372 	.byte	40
00000062 16             3373 	.byte	22
00000063 00             3374 	.byte	0
00000064 0308           3375 	.byte	3,8
00000066 3b0f           3376 	.byte	59,15
00000068 390f           3377 	.byte	57,15
0000006a 3a0f           3378 	.byte	58,15
0000006c 4910           3379 	.byte	73,16
0000006e 0000           3380 	.byte	0,0
                        3381 
                        3382 	.section	.debug_info
                        3383 .LDW_484bd60:
0000031c 28             3384 	.byte	40
0000031d 75696e743800   3385 	.strz	"uint8"
00000323 50             3386 	.byte	80
00000324 4b             3387 	.byte	75
00000325 05             3388 	.byte	5
00000326 00000000*      3389 	.word	.LDW_4836ec0
                        3390 
                        3391 .LDW_4d39ce0:
0000032a 28             3392 	.byte	40
0000032b 75696e743136   3393 	.strz	"uint16"
00000331 00 
00000332 52             3394 	.byte	82
00000333 4a             3395 	.byte	74
00000334 05             3396 	.byte	5
00000335 00000000*      3397 	.word	.LDW_4d0c498
                        3398 
                        3399 .LDW_4d3a4c8:

                                                                      Page 70
                                                              C:\Users\nhuliyap\AppData\Local\Temp\gh_0000b0k1.s
00000339 28             3400 	.byte	40
0000033a 75696e743332   3401 	.strz	"uint32"
00000340 00 
00000341 54             3402 	.byte	84
00000342 4a             3403 	.byte	74
00000343 05             3404 	.byte	5
00000344 00000000*      3405 	.word	.LDW_4d0c5b0
                        3406 
                        3407 .LDW_4cc39b8:
00000348 28             3408 	.byte	40
00000349 75696e743634   3409 	.strz	"uint64"
0000034f 00 
00000350 60             3410 	.byte	96
00000351 4a             3411 	.byte	74
00000352 05             3412 	.byte	5
00000353 00000000*      3413 	.word	.LDW_4ccec68
                        3414 
                        3415 .LDW_4d5b9f8:
00000357 41             3416 	.byte	65
00000358 3d             3417 	.byte	61
00000359 03             3418 	.byte	3
0000035a 02             3419 	.byte	2
0000035b 05             3420 	.byte	5
0000035c 01             3421 	.byte	1
                        3422 
                        3423 	.section	.debug_abbrev
00000070 41             3424 	.byte	65
00000071 13             3425 	.byte	19
00000072 01             3426 	.byte	1
00000073 3b0f           3427 	.byte	59,15
00000075 390f           3428 	.byte	57,15
00000077 3a0f           3429 	.byte	58,15
00000079 0b0f           3430 	.byte	11,15
0000007b 320b           3431 	.byte	50,11
0000007d 0000           3432 	.byte	0,0
                        3433 
                        3434 	.section	.debug_info
                        3435 .LDW_4d5c300:
0000035d 23             3436 	.byte	35
0000035e 55385f507265   3437 	.strz	"U8_PressureOnKeyEnabled"
00000364 73737572654f 
0000036a 6e4b6579456e 
00000370 61626c656400 
00000376 3e             3438 	.byte	62
00000377 0a             3439 	.byte	10
00000378 02             3440 	.byte	2
00000379 00000000*      3441 	.word	.LDW_484bd60
0000037d 0223           3442 	.byte	2,35
0000037f 00             3443 	.byte	0
00000380 01             3444 	.byte	1
                        3445 
                        3446 	.section	.debug_abbrev
0000007f 23             3447 	.byte	35
00000080 0d             3448 	.byte	13
00000081 00             3449 	.byte	0
00000082 0308           3450 	.byte	3,8
00000084 3b0f           3451 	.byte	59,15
00000086 390f           3452 	.byte	57,15
00000088 3a0f           3453 	.byte	58,15
0000008a 4910           3454 	.byte	73,16
0000008c 380a           3455 	.byte	56,10

                                                                      Page 71
                                                              C:\Users\nhuliyap\AppData\Local\Temp\gh_0000b0k1.s
0000008e 320b           3456 	.byte	50,11
00000090 0000           3457 	.byte	0,0
                        3458 
                        3459 	.section	.debug_info
                        3460 .LDW_4d5c0c0:
00000381 23             3461 	.byte	35
00000382 55385f57616b   3462 	.strz	"U8_WakeupInterval_xmin"
00000388 657570496e74 
0000038e 657276616c5f 
00000394 786d696e00 
00000399 3f             3463 	.byte	63
0000039a 0a             3464 	.byte	10
0000039b 02             3465 	.byte	2
0000039c 00000000*      3466 	.word	.LDW_484bd60
000003a0 0223           3467 	.byte	2,35
000003a2 01             3468 	.byte	1
000003a3 01             3469 	.byte	1
                        3470 
                        3471 .LDW_4d5c3d8:
000003a4 23             3472 	.byte	35
000003a5 55385f57616b   3473 	.strz	"U8_WakeTime_x100ms"
000003ab 6554696d655f 
000003b1 783130306d73 
000003b7 00 
000003b8 40             3474 	.byte	64
000003b9 0a             3475 	.byte	10
000003ba 02             3476 	.byte	2
000003bb 00000000*      3477 	.word	.LDW_484bd60
000003bf 0223           3478 	.byte	2,35
000003c1 02             3479 	.byte	2
000003c2 01             3480 	.byte	1
                        3481 
                        3482 .LDW_4d5c420:
000003c3 23             3483 	.byte	35
000003c4 55385f57616b   3484 	.strz	"U8_WakeOffset_x100ms"
000003ca 654f66667365 
000003d0 745f78313030 
000003d6 6d7300 
000003d9 41             3485 	.byte	65
000003da 0a             3486 	.byte	10
000003db 02             3487 	.byte	2
000003dc 00000000*      3488 	.word	.LDW_484bd60
000003e0 0223           3489 	.byte	2,35
000003e2 03             3490 	.byte	3
000003e3 01             3491 	.byte	1
                        3492 
                        3493 .LDW_4d5c468:
000003e4 23             3494 	.byte	35
000003e5 55385f504f4b   3495 	.strz	"U8_POKDb"
000003eb 446200 
000003ee 42             3496 	.byte	66
000003ef 0a             3497 	.byte	10
000003f0 02             3498 	.byte	2
000003f1 00000000*      3499 	.word	.LDW_484bd60
000003f5 0223           3500 	.byte	2,35
000003f7 04             3501 	.byte	4
000003f8 01             3502 	.byte	1
                        3503 
000003f9 00             3504 	.byte	0
                        3505 
                        3506 .LDW_4d5b420:

                                                                      Page 72
                                                              C:\Users\nhuliyap\AppData\Local\Temp\gh_0000b0k1.s
000003fa 43             3507 	.byte	67
000003fb 3a             3508 	.byte	58
000003fc 01             3509 	.byte	1
000003fd 02             3510 	.byte	2
000003fe 08             3511 	.byte	8
000003ff 01             3512 	.byte	1
                        3513 
                        3514 	.section	.debug_abbrev
00000092 43             3515 	.byte	67
00000093 17             3516 	.byte	23
00000094 01             3517 	.byte	1
00000095 3b0f           3518 	.byte	59,15
00000097 390f           3519 	.byte	57,15
00000099 3a0f           3520 	.byte	58,15
0000009b 0b0f           3521 	.byte	11,15
0000009d 320b           3522 	.byte	50,11
0000009f 0000           3523 	.byte	0,0
                        3524 
                        3525 	.section	.debug_info
                        3526 .LDW_4d5c4b0:
00000400 23             3527 	.byte	35
00000401 5533325f436f   3528 	.strz	"U32_Config"
00000407 6e66696700 
0000040c 3b             3529 	.byte	59
0000040d 0a             3530 	.byte	10
0000040e 02             3531 	.byte	2
0000040f 00000000*      3532 	.word	.LDW_4d3a4c8
00000413 0223           3533 	.byte	2,35
00000415 00             3534 	.byte	0
00000416 01             3535 	.byte	1
                        3536 
                        3537 .LDW_4de4600:
00000417 23             3538 	.byte	35
00000418 537472756374   3539 	.strz	"Struct_PressureOnKeyConfig"
0000041e 5f5072657373 
00000424 7572654f6e4b 
0000042a 6579436f6e66 
00000430 696700 
00000433 43             3540 	.byte	67
00000434 04             3541 	.byte	4
00000435 02             3542 	.byte	2
00000436 00000000*      3543 	.word	.LDW_4d5b9f8
0000043a 0223           3544 	.byte	2,35
0000043c 00             3545 	.byte	0
0000043d 01             3546 	.byte	1
                        3547 
0000043e 00             3548 	.byte	0
                        3549 
                        3550 .LDW_4d5b790:
0000043f 28             3551 	.byte	40
00000440 52646353745f   3552 	.strz	"RdcSt__Union_PressureOnKeyConfig"
00000446 5f556e696f6e 
0000044c 5f5072657373 
00000452 7572654f6e4b 
00000458 6579436f6e66 
0000045e 696700 
00000461 44             3553 	.byte	68
00000462 02             3554 	.byte	2
00000463 02             3555 	.byte	2
00000464 00000000*      3556 	.word	.LDW_4d5b420
                        3557 

                                                                      Page 73
                                                              C:\Users\nhuliyap\AppData\Local\Temp\gh_0000b0k1.s
                        3558 .LDW_4d5b2c0:
00000468 41             3559 	.byte	65
00000469 46             3560 	.byte	70
0000046a 0f             3561 	.byte	15
0000046b 02             3562 	.byte	2
0000046c 08             3563 	.byte	8
0000046d 01             3564 	.byte	1
                        3565 
                        3566 .LDW_4de4888:
0000046e 23             3567 	.byte	35
0000046f 5533325f5773   3568 	.strz	"U32_WsId"
00000475 496400 
00000478 47             3569 	.byte	71
00000479 0a             3570 	.byte	10
0000047a 02             3571 	.byte	2
0000047b 00000000*      3572 	.word	.LDW_4d3a4c8
0000047f 0223           3573 	.byte	2,35
00000481 00             3574 	.byte	0
00000482 01             3575 	.byte	1
                        3576 
                        3577 .LDW_4de47b0:
00000483 23             3578 	.byte	35
00000484 55385f507265   3579 	.strz	"U8_Pressure"
0000048a 737375726500 
00000490 48             3580 	.byte	72
00000491 09             3581 	.byte	9
00000492 02             3582 	.byte	2
00000493 00000000*      3583 	.word	.LDW_484bd60
00000497 0223           3584 	.byte	2,35
00000499 04             3585 	.byte	4
0000049a 01             3586 	.byte	1
                        3587 
                        3588 .LDW_4de40a8:
0000049b 23             3589 	.byte	35
0000049c 55385f54656d   3590 	.strz	"U8_Temperature"
000004a2 706572617475 
000004a8 726500 
000004ab 49             3591 	.byte	73
000004ac 09             3592 	.byte	9
000004ad 02             3593 	.byte	2
000004ae 00000000*      3594 	.word	.LDW_484bd60
000004b2 0223           3595 	.byte	2,35
000004b4 05             3596 	.byte	5
000004b5 01             3597 	.byte	1
                        3598 
                        3599 .LDW_4de45b8:
000004b6 23             3600 	.byte	35
000004b7 5531365f5265   3601 	.strz	"U16_ReceivedCounter"
000004bd 636569766564 
000004c3 436f756e7465 
000004c9 7200 
000004cb 4a             3602 	.byte	74
000004cc 0a             3603 	.byte	10
000004cd 02             3604 	.byte	2
000004ce 00000000*      3605 	.word	.LDW_4d39ce0
000004d2 0223           3606 	.byte	2,35
000004d4 06             3607 	.byte	6
000004d5 01             3608 	.byte	1
                        3609 
000004d6 00             3610 	.byte	0
                        3611 

                                                                      Page 74
                                                              C:\Users\nhuliyap\AppData\Local\Temp\gh_0000b0k1.s
                        3612 .LDW_4d5b8f0:
000004d7 28             3613 	.byte	40
000004d8 52646353745f   3614 	.strz	"RdcSt__Struct_WSData"
000004de 5f5374727563 
000004e4 745f57534461 
000004ea 746100 
000004ed 4b             3615 	.byte	75
000004ee 02             3616 	.byte	2
000004ef 02             3617 	.byte	2
000004f0 00000000*      3618 	.word	.LDW_4d5b2c0
                        3619 
                        3620 .LDW_4d594f8:
000004f4 41             3621 	.byte	65
000004f5 65             3622 	.byte	101
000004f6 0f             3623 	.byte	15
000004f7 15             3624 	.byte	21
000004f8 18             3625 	.byte	24
000004f9 01             3626 	.byte	1
                        3627 
                        3628 .LDW_4de4720:
000004fa 23             3629 	.byte	35
000004fb 756c52785469   3630 	.strz	"ulRxTimeStamp"
00000501 6d655374616d 
00000507 7000 
00000509 66             3631 	.byte	102
0000050a 0a             3632 	.byte	10
0000050b 15             3633 	.byte	21
0000050c 00000000*      3634 	.word	.LDW_4d3a4c8
00000510 0223           3635 	.byte	2,35
00000512 00             3636 	.byte	0
00000513 01             3637 	.byte	1
                        3638 
                        3639 .LDW_4de48d0:
00000514 23             3640 	.byte	35
00000515 756952785253   3641 	.strz	"uiRxRSSI"
0000051b 534900 
0000051e 67             3642 	.byte	103
0000051f 0a             3643 	.byte	10
00000520 15             3644 	.byte	21
00000521 00000000*      3645 	.word	.LDW_4d39ce0
00000525 0223           3646 	.byte	2,35
00000527 04             3647 	.byte	4
00000528 01             3648 	.byte	1
                        3649 
                        3650 .LDW_4de4768:
00000529 23             3651 	.byte	35
0000052a 75636154656c   3652 	.strz	"ucaTelegram"
00000530 656772616d00 
00000536 68             3653 	.byte	104
00000537 0a             3654 	.byte	10
00000538 15             3655 	.byte	21
00000539 00000000*      3656 	.word	.LDW_4e112a8
0000053d 0223           3657 	.byte	2,35
0000053f 06             3658 	.byte	6
00000540 01             3659 	.byte	1
                        3660 
00000541 00             3661 	.byte	0
                        3662 
                        3663 .LDW_4d59238:
00000542 28             3664 	.byte	40
00000543 747357535f52   3665 	.strz	"tsWS_RxDataIn"

                                                                      Page 75
                                                              C:\Users\nhuliyap\AppData\Local\Temp\gh_0000b0k1.s
00000549 784461746149 
0000054f 6e00 
00000551 69             3666 	.byte	105
00000552 02             3667 	.byte	2
00000553 15             3668 	.byte	21
00000554 00000000*      3669 	.word	.LDW_4d594f8
                        3670 
                        3671 .LDW_4d595a8:
00000558 41             3672 	.byte	65
00000559 6b             3673 	.byte	107
0000055a 0f             3674 	.byte	15
0000055b 15             3675 	.byte	21
0000055c 0e             3676 	.byte	14
0000055d 01             3677 	.byte	1
                        3678 
                        3679 .LDW_4de4840:
0000055e 23             3680 	.byte	35
0000055f 756956656853   3681 	.strz	"uiVehSpeed"
00000565 7065656400 
0000056a 6c             3682 	.byte	108
0000056b 0a             3683 	.byte	10
0000056c 15             3684 	.byte	21
0000056d 00000000*      3685 	.word	.LDW_4d39ce0
00000571 0223           3686 	.byte	2,35
00000573 00             3687 	.byte	0
00000574 01             3688 	.byte	1
                        3689 
                        3690 .LDW_4de4138:
00000575 23             3691 	.byte	35
00000576 756349676e69   3692 	.strz	"ucIgnition"
0000057c 74696f6e00 
00000581 6d             3693 	.byte	109
00000582 09             3694 	.byte	9
00000583 15             3695 	.byte	21
00000584 00000000*      3696 	.word	.LDW_484bd60
00000588 0223           3697 	.byte	2,35
0000058a 02             3698 	.byte	2
0000058b 01             3699 	.byte	1
                        3700 
                        3701 .LDW_4de4180:
0000058c 23             3702 	.byte	35
0000058d 7563416d6254   3703 	.strz	"ucAmbTemperature"
00000593 656d70657261 
00000599 7475726500 
0000059e 6f             3704 	.byte	111
0000059f 09             3705 	.byte	9
000005a0 15             3706 	.byte	21
000005a1 00000000*      3707 	.word	.LDW_484bd60
000005a5 0223           3708 	.byte	2,35
000005a7 03             3709 	.byte	3
000005a8 01             3710 	.byte	1
                        3711 
                        3712 .LDW_4de4258:
000005a9 23             3713 	.byte	35
000005aa 75634174686d   3714 	.strz	"ucAthmosPressure"
000005b0 6f7350726573 
000005b6 7375726500 
000005bb 70             3715 	.byte	112
000005bc 09             3716 	.byte	9
000005bd 15             3717 	.byte	21
000005be 00000000*      3718 	.word	.LDW_484bd60

                                                                      Page 76
                                                              C:\Users\nhuliyap\AppData\Local\Temp\gh_0000b0k1.s
000005c2 0223           3719 	.byte	2,35
000005c4 04             3720 	.byte	4
000005c5 01             3721 	.byte	1
                        3722 
                        3723 .LDW_4de42a0:
000005c6 23             3724 	.byte	35
000005c7 756356656844   3725 	.strz	"ucVehDirection"
000005cd 697265637469 
000005d3 6f6e00 
000005d6 72             3726 	.byte	114
000005d7 09             3727 	.byte	9
000005d8 15             3728 	.byte	21
000005d9 00000000*      3729 	.word	.LDW_484bd60
000005dd 0223           3730 	.byte	2,35
000005df 05             3731 	.byte	5
000005e0 01             3732 	.byte	1
                        3733 
                        3734 .LDW_4de4528:
000005e1 23             3735 	.byte	35
000005e2 624543555f46   3736 	.strz	"bECU_Fault"
000005e8 61756c7400 
000005ed 74             3737 	.byte	116
000005ee 0b             3738 	.byte	11
000005ef 15             3739 	.byte	21
000005f0 00000000*      3740 	.word	.LDW_4d1ff90
000005f4 0223           3741 	.byte	2,35
000005f6 06             3742 	.byte	6
000005f7 01             3743 	.byte	1
                        3744 
                        3745 .LDW_4de4570:
000005f8 23             3746 	.byte	35
000005f9 75694e766d42   3747 	.strz	"uiNvmBlockConsistence"
000005ff 6c6f636b436f 
00000605 6e7369737465 
0000060b 6e636500 
0000060f 75             3748 	.byte	117
00000610 0a             3749 	.byte	10
00000611 15             3750 	.byte	21
00000612 00000000*      3751 	.word	.LDW_4d39ce0
00000616 0223           3752 	.byte	2,35
00000618 08             3753 	.byte	8
00000619 01             3754 	.byte	1
                        3755 
                        3756 .LDW_4de4330:
0000061a 23             3757 	.byte	35
0000061b 75694e6f6973   3758 	.strz	"uiNoiseRSSI"
00000621 655253534900 
00000627 76             3759 	.byte	118
00000628 0a             3760 	.byte	10
00000629 15             3761 	.byte	21
0000062a 00000000*      3762 	.word	.LDW_4d39ce0
0000062e 0223           3763 	.byte	2,35
00000630 0a             3764 	.byte	10
00000631 01             3765 	.byte	1
                        3766 
                        3767 .LDW_4de43c0:
00000632 23             3768 	.byte	35
00000633 62526f61644d   3769 	.strz	"bRoadMode"
00000639 6f646500 
0000063d 78             3770 	.byte	120
0000063e 0b             3771 	.byte	11

                                                                      Page 77
                                                              C:\Users\nhuliyap\AppData\Local\Temp\gh_0000b0k1.s
0000063f 15             3772 	.byte	21
00000640 00000000*      3773 	.word	.LDW_4d1ff90
00000644 0223           3774 	.byte	2,35
00000646 0c             3775 	.byte	12
00000647 01             3776 	.byte	1
                        3777 
00000648 00             3778 	.byte	0
                        3779 
                        3780 .LDW_4d59600:
00000649 28             3781 	.byte	40
0000064a 7473456e765f   3782 	.strz	"tsEnv_Data"
00000650 4461746100 
00000655 79             3783 	.byte	121
00000656 02             3784 	.byte	2
00000657 15             3785 	.byte	21
00000658 00000000*      3786 	.word	.LDW_4d595a8
                        3787 
                        3788 .LDW_4ccf6b8:
0000065c 2e             3789 	.byte	46
0000065d 00             3790 	.byte	0
0000065e 08             3791 	.byte	8
0000065f 0d             3792 	.byte	13
00000660 19             3793 	.byte	25
00000661 01             3794 	.byte	1
00000662 01             3795 	.byte	1
                        3796 
                        3797 	.section	.debug_abbrev
000000a1 2e             3798 	.byte	46
000000a2 04             3799 	.byte	4
000000a3 01             3800 	.byte	1
000000a4 0308           3801 	.byte	3,8
000000a6 3b0f           3802 	.byte	59,15
000000a8 390f           3803 	.byte	57,15
000000aa 3a0f           3804 	.byte	58,15
000000ac 0b0f           3805 	.byte	11,15
000000ae 320b           3806 	.byte	50,11
000000b0 0000           3807 	.byte	0,0
                        3808 
                        3809 	.section	.debug_info
                        3810 .LDW_4de5c28:
00000663 2d             3811 	.byte	45
00000664 5441555f455f   3812 	.strz	"TAU_E_CHANNEL_0"
0000066a 4348414e4e45 
00000670 4c5f3000 
00000674 09             3813 	.byte	9
00000675 03             3814 	.byte	3
00000676 19             3815 	.byte	25
00000677 00             3816 	.byte	0
                        3817 
                        3818 	.section	.debug_abbrev
000000b2 2d             3819 	.byte	45
000000b3 28             3820 	.byte	40
000000b4 00             3821 	.byte	0
000000b5 0308           3822 	.byte	3,8
000000b7 3b0f           3823 	.byte	59,15
000000b9 390f           3824 	.byte	57,15
000000bb 3a0f           3825 	.byte	58,15
000000bd 1c0d           3826 	.byte	28,13
000000bf 0000           3827 	.byte	0,0
                        3828 
                        3829 	.section	.debug_info

                                                                      Page 78
                                                              C:\Users\nhuliyap\AppData\Local\Temp\gh_0000b0k1.s
                        3830 .LDW_4de5be8:
00000678 2d             3831 	.byte	45
00000679 5441555f455f   3832 	.strz	"TAU_E_CHANNEL_1"
0000067f 4348414e4e45 
00000685 4c5f3100 
00000689 0a             3833 	.byte	10
0000068a 07             3834 	.byte	7
0000068b 19             3835 	.byte	25
0000068c 01             3836 	.byte	1
                        3837 
                        3838 .LDW_4de58a8:
0000068d 2d             3839 	.byte	45
0000068e 5441555f455f   3840 	.strz	"TAU_E_CHANNEL_2"
00000694 4348414e4e45 
0000069a 4c5f3200 
0000069e 0b             3841 	.byte	11
0000069f 07             3842 	.byte	7
000006a0 19             3843 	.byte	25
000006a1 02             3844 	.byte	2
                        3845 
                        3846 .LDW_4de5a28:
000006a2 2d             3847 	.byte	45
000006a3 5441555f455f   3848 	.strz	"TAU_E_CHANNEL_3"
000006a9 4348414e4e45 
000006af 4c5f3300 
000006b3 0c             3849 	.byte	12
000006b4 07             3850 	.byte	7
000006b5 19             3851 	.byte	25
000006b6 03             3852 	.byte	3
                        3853 
000006b7 00             3854 	.byte	0
                        3855 
                        3856 .LDW_4d5bd68:
000006b8 28             3857 	.byte	40
000006b9 5461755f456e   3858 	.strz	"Tau_Enum_Channels"
000006bf 756d5f436861 
000006c5 6e6e656c7300 
000006cb 0d             3859 	.byte	13
000006cc 02             3860 	.byte	2
000006cd 19             3861 	.byte	25
000006ce 00000000*      3862 	.word	.LDW_4ccf6b8
                        3863 
                        3864 .LDW_4ccf758:
000006d2 2e             3865 	.byte	46
000006d3 00             3866 	.byte	0
000006d4 0e             3867 	.byte	14
000006d5 0d             3868 	.byte	13
000006d6 1a             3869 	.byte	26
000006d7 01             3870 	.byte	1
000006d8 01             3871 	.byte	1
                        3872 
                        3873 .LDW_4de5868:
000006d9 2d             3874 	.byte	45
000006da 634543555f4e   3875 	.strz	"cECU_NO_EVENT"
000006e0 4f5f4556454e 
000006e6 5400 
000006e8 0f             3876 	.byte	15
000006e9 03             3877 	.byte	3
000006ea 1a             3878 	.byte	26
000006eb 00             3879 	.byte	0
                        3880 

                                                                      Page 79
                                                              C:\Users\nhuliyap\AppData\Local\Temp\gh_0000b0k1.s
                        3881 .LDW_4de5d28:
000006ec 2d             3882 	.byte	45
000006ed 634543554556   3883 	.strz	"cECUEVENT_IGN_OFF"
000006f3 454e545f4947 
000006f9 4e5f4f464600 
000006ff 10             3884 	.byte	16
00000700 07             3885 	.byte	7
00000701 1a             3886 	.byte	26
00000702 01             3887 	.byte	1
                        3888 
                        3889 .LDW_4de5c68:
00000703 2d             3890 	.byte	45
00000704 634543554556   3891 	.strz	"cECUEVENT_IGN_ON"
0000070a 454e545f4947 
00000710 4e5f4f4e00 
00000715 11             3892 	.byte	17
00000716 07             3893 	.byte	7
00000717 1a             3894 	.byte	26
00000718 02             3895 	.byte	2
                        3896 
                        3897 .LDW_4de5de8:
00000719 2d             3898 	.byte	45
0000071a 634543554556   3899 	.strz	"cECUEVENT_PON"
00000720 454e545f504f 
00000726 4e00 
00000728 12             3900 	.byte	18
00000729 07             3901 	.byte	7
0000072a 1a             3902 	.byte	26
0000072b 03             3903 	.byte	3
                        3904 
                        3905 .LDW_4de58e8:
0000072c 2d             3906 	.byte	45
0000072d 634543554556   3907 	.strz	"cECUEVENT_CAN_WAKE"
00000733 454e545f4341 
00000739 4e5f57414b45 
0000073f 00 
00000740 13             3908 	.byte	19
00000741 07             3909 	.byte	7
00000742 1a             3910 	.byte	26
00000743 04             3911 	.byte	4
                        3912 
                        3913 .LDW_4de5928:
00000744 2d             3914 	.byte	45
00000745 634543554556   3915 	.strz	"cECUEVENT_TIMER_WAKE"
0000074b 454e545f5449 
00000751 4d45525f5741 
00000757 4b4500 
0000075a 14             3916 	.byte	20
0000075b 07             3917 	.byte	7
0000075c 1a             3918 	.byte	26
0000075d 05             3919 	.byte	5
                        3920 
                        3921 .LDW_4de5da8:
0000075e 2d             3922 	.byte	45
0000075f 634543554556   3923 	.strz	"cECUEVENT_COMM_TIMEOUT"
00000765 454e545f434f 
0000076b 4d4d5f54494d 
00000771 454f555400 
00000776 15             3924 	.byte	21
00000777 07             3925 	.byte	7
00000778 1a             3926 	.byte	26

                                                                      Page 80
                                                              C:\Users\nhuliyap\AppData\Local\Temp\gh_0000b0k1.s
00000779 06             3927 	.byte	6
                        3928 
                        3929 .LDW_4de5ae8:
0000077a 2d             3930 	.byte	45
0000077b 634543554556   3931 	.strz	"cECUEVENT_VEH_STOP"
00000781 454e545f5645 
00000787 485f53544f50 
0000078d 00 
0000078e 16             3932 	.byte	22
0000078f 07             3933 	.byte	7
00000790 1a             3934 	.byte	26
00000791 07             3935 	.byte	7
                        3936 
                        3937 .LDW_4de5968:
00000792 2d             3938 	.byte	45
00000793 634543554556   3939 	.strz	"cECUEVENT_VEH_DRIVE"
00000799 454e545f5645 
0000079f 485f44524956 
000007a5 4500 
000007a7 17             3940 	.byte	23
000007a8 07             3941 	.byte	7
000007a9 1a             3942 	.byte	26
000007aa 08             3943 	.byte	8
                        3944 
                        3945 .LDW_4de5b28:
000007ab 2d             3946 	.byte	45
000007ac 634543554556   3947 	.strz	"cECUEVENT_COAST_TIMEOUT"
000007b2 454e545f434f 
000007b8 4153545f5449 
000007be 4d454f555400 
000007c4 18             3948 	.byte	24
000007c5 07             3949 	.byte	7
000007c6 1a             3950 	.byte	26
000007c7 09             3951 	.byte	9
                        3952 
                        3953 .LDW_4de5f68:
000007c8 2d             3954 	.byte	45
000007c9 634543554556   3955 	.strz	"cECUEVENT_DEEPSTOP"
000007cf 454e545f4445 
000007d5 455053544f50 
000007db 00 
000007dc 19             3956 	.byte	25
000007dd 07             3957 	.byte	7
000007de 1a             3958 	.byte	26
000007df 0a             3959 	.byte	10
                        3960 
                        3961 .LDW_4de5ba8:
000007e0 2d             3962 	.byte	45
000007e1 634543554556   3963 	.strz	"cECUEVENT_SHUTDOWN"
000007e7 454e545f5348 
000007ed 5554444f574e 
000007f3 00 
000007f4 1a             3964 	.byte	26
000007f5 07             3965 	.byte	7
000007f6 1a             3966 	.byte	26
000007f7 0b             3967 	.byte	11
                        3968 
000007f8 00             3969 	.byte	0
                        3970 
                        3971 .LDW_4d5bc60:
000007f9 28             3972 	.byte	40

                                                                      Page 81
                                                              C:\Users\nhuliyap\AppData\Local\Temp\gh_0000b0k1.s
000007fa 654563754576   3973 	.strz	"eEcuEventsType"
00000800 656e74735479 
00000806 706500 
00000809 1b             3974 	.byte	27
0000080a 02             3975 	.byte	2
0000080b 1a             3976 	.byte	26
0000080c 00000000*      3977 	.word	.LDW_4ccf758
                        3978 
                        3979 .LDW_4e12270:
00000810 2e             3980 	.byte	46
00000811 00             3981 	.byte	0
00000812 06             3982 	.byte	6
00000813 0d             3983 	.byte	13
00000814 3a             3984 	.byte	58
00000815 01             3985 	.byte	1
00000816 01             3986 	.byte	1
                        3987 
                        3988 .LDW_4de86c0:
00000817 2d             3989 	.byte	45
00000818 4e564d5f455f   3990 	.strz	"NVM_E_PRESSURE_ON_KEY_ENABLED"
0000081e 505245535355 
00000824 52455f4f4e5f 
0000082a 4b45595f454e 
00000830 41424c454400 
00000836 08             3991 	.byte	8
00000837 03             3992 	.byte	3
00000838 3a             3993 	.byte	58
00000839 00             3994 	.byte	0
                        3995 
                        3996 .LDW_4de87c0:
0000083a 2d             3997 	.byte	45
0000083b 4e564d5f455f   3998 	.strz	"NVM_E_WAKEUP_INTERVAL"
00000841 57414b455550 
00000847 5f494e544552 
0000084d 56414c00 
00000851 09             3999 	.byte	9
00000852 07             4000 	.byte	7
00000853 3a             4001 	.byte	58
00000854 01             4002 	.byte	1
                        4003 
                        4004 .LDW_4de8800:
00000855 2d             4005 	.byte	45
00000856 4e564d5f455f   4006 	.strz	"NVM_E_WAKE_TIME"
0000085c 57414b455f54 
00000862 494d4500 
00000866 0a             4007 	.byte	10
00000867 07             4008 	.byte	7
00000868 3a             4009 	.byte	58
00000869 02             4010 	.byte	2
                        4011 
                        4012 .LDW_4de8840:
0000086a 2d             4013 	.byte	45
0000086b 4e564d5f455f   4014 	.strz	"NVM_E_WAKE_OFFSET"
00000871 57414b455f4f 
00000877 464653455400 
0000087d 0b             4015 	.byte	11
0000087e 07             4016 	.byte	7
0000087f 3a             4017 	.byte	58
00000880 03             4018 	.byte	3
                        4019 
                        4020 .LDW_4de8f00:

                                                                      Page 82
                                                              C:\Users\nhuliyap\AppData\Local\Temp\gh_0000b0k1.s
00000881 2d             4021 	.byte	45
00000882 4e564d5f455f   4022 	.strz	"NVM_E_POKDB"
00000888 504f4b444200 
0000088e 0c             4023 	.byte	12
0000088f 07             4024 	.byte	7
00000890 3a             4025 	.byte	58
00000891 04             4026 	.byte	4
                        4027 
                        4028 .LDW_4de8a80:
00000892 2d             4029 	.byte	45
00000893 4e564d5f455f   4030 	.strz	"NVM_E_DATA_EXISTENCE"
00000899 444154415f45 
0000089f 58495354454e 
000008a5 434500 
000008a8 0e             4031 	.byte	14
000008a9 03             4032 	.byte	3
000008aa 3a             4033 	.byte	58
000008ab 05             4034 	.byte	5
                        4035 
                        4036 .LDW_4de8880:
000008ac 2d             4037 	.byte	45
000008ad 4e564d5f455f   4038 	.strz	"NVM_E_FL_PRESSURE"
000008b3 464c5f505245 
000008b9 535355524500 
000008bf 0f             4039 	.byte	15
000008c0 07             4040 	.byte	7
000008c1 3a             4041 	.byte	58
000008c2 06             4042 	.byte	6
                        4043 
                        4044 .LDW_4de8a40:
000008c3 2d             4045 	.byte	45
000008c4 4e564d5f455f   4046 	.strz	"NVM_E_FL_TEMPERATURE"
000008ca 464c5f54454d 
000008d0 504552415455 
000008d6 524500 
000008d9 10             4047 	.byte	16
000008da 07             4048 	.byte	7
000008db 3a             4049 	.byte	58
000008dc 07             4050 	.byte	7
                        4051 
                        4052 .LDW_4de9000:
000008dd 2d             4053 	.byte	45
000008de 4e564d5f455f   4054 	.strz	"NVM_E_FR_PRESSURE"
000008e4 46525f505245 
000008ea 535355524500 
000008f0 11             4055 	.byte	17
000008f1 07             4056 	.byte	7
000008f2 3a             4057 	.byte	58
000008f3 08             4058 	.byte	8
                        4059 
                        4060 .LDW_4de89c0:
000008f4 2d             4061 	.byte	45
000008f5 4e564d5f455f   4062 	.strz	"NVM_E_FR_TEMPERATURE"
000008fb 46525f54454d 
00000901 504552415455 
00000907 524500 
0000090a 12             4063 	.byte	18
0000090b 07             4064 	.byte	7
0000090c 3a             4065 	.byte	58
0000090d 09             4066 	.byte	9
                        4067 

                                                                      Page 83
                                                              C:\Users\nhuliyap\AppData\Local\Temp\gh_0000b0k1.s
                        4068 .LDW_4de8dc0:
0000090e 2d             4069 	.byte	45
0000090f 4e564d5f455f   4070 	.strz	"NVM_E_RL_PRESSURE"
00000915 524c5f505245 
0000091b 535355524500 
00000921 13             4071 	.byte	19
00000922 07             4072 	.byte	7
00000923 3a             4073 	.byte	58
00000924 0a             4074 	.byte	10
                        4075 
                        4076 .LDW_4de8ec0:
00000925 2d             4077 	.byte	45
00000926 4e564d5f455f   4078 	.strz	"NVM_E_RL_TEMPERATURE"
0000092c 524c5f54454d 
00000932 504552415455 
00000938 524500 
0000093b 14             4079 	.byte	20
0000093c 07             4080 	.byte	7
0000093d 3a             4081 	.byte	58
0000093e 0b             4082 	.byte	11
                        4083 
                        4084 .LDW_4de8fc0:
0000093f 2d             4085 	.byte	45
00000940 4e564d5f455f   4086 	.strz	"NVM_E_RR_PRESSURE"
00000946 52525f505245 
0000094c 535355524500 
00000952 15             4087 	.byte	21
00000953 07             4088 	.byte	7
00000954 3a             4089 	.byte	58
00000955 0c             4090 	.byte	12
                        4091 
                        4092 .LDW_4de8c80:
00000956 2d             4093 	.byte	45
00000957 4e564d5f455f   4094 	.strz	"NVM_E_RR_TEMPERATURE"
0000095d 52525f54454d 
00000963 504552415455 
00000969 524500 
0000096c 16             4095 	.byte	22
0000096d 07             4096 	.byte	7
0000096e 3a             4097 	.byte	58
0000096f 0d             4098 	.byte	13
                        4099 
                        4100 .LDW_4de8a00:
00000970 2d             4101 	.byte	45
00000971 4e564d5f455f   4102 	.strz	"NVM_E_FL_RECEIVED_TG"
00000977 464c5f524543 
0000097d 45495645445f 
00000983 544700 
00000986 18             4103 	.byte	24
00000987 03             4104 	.byte	3
00000988 3a             4105 	.byte	58
00000989 0e             4106 	.byte	14
                        4107 
                        4108 .LDW_4de8ac0:
0000098a 2d             4109 	.byte	45
0000098b 4e564d5f455f   4110 	.strz	"NVM_E_FR_RECEIVED_TG"
00000991 46525f524543 
00000997 45495645445f 
0000099d 544700 
000009a0 19             4111 	.byte	25
000009a1 07             4112 	.byte	7

                                                                      Page 84
                                                              C:\Users\nhuliyap\AppData\Local\Temp\gh_0000b0k1.s
000009a2 3a             4113 	.byte	58
000009a3 0f             4114 	.byte	15
                        4115 
                        4116 .LDW_4de8cc0:
000009a4 2d             4117 	.byte	45
000009a5 4e564d5f455f   4118 	.strz	"NVM_E_RL_RECEIVED_TG"
000009ab 524c5f524543 
000009b1 45495645445f 
000009b7 544700 
000009ba 1a             4119 	.byte	26
000009bb 07             4120 	.byte	7
000009bc 3a             4121 	.byte	58
000009bd 10             4122 	.byte	16
                        4123 
                        4124 .LDW_4de8b00:
000009be 2d             4125 	.byte	45
000009bf 4e564d5f455f   4126 	.strz	"NVM_E_RR_RECEIVED_TG"
000009c5 52525f524543 
000009cb 45495645445f 
000009d1 544700 
000009d4 1b             4127 	.byte	27
000009d5 07             4128 	.byte	7
000009d6 3a             4129 	.byte	58
000009d7 11             4130 	.byte	17
                        4131 
                        4132 .LDW_4de8900:
000009d8 2d             4133 	.byte	45
000009d9 4e564d5f455f   4134 	.strz	"NVM_E_LAST_RECEPTION_TIME"
000009df 4c4153545f52 
000009e5 454345505449 
000009eb 4f4e5f54494d 
000009f1 4500 
000009f3 1c             4135 	.byte	28
000009f4 07             4136 	.byte	7
000009f5 3a             4137 	.byte	58
000009f6 12             4138 	.byte	18
                        4139 
                        4140 .LDW_4de88c0:
000009f7 2d             4141 	.byte	45
000009f8 4e564d5f455f   4142 	.strz	"NVM_E_MONITORING_TIME"
000009fe 4d4f4e49544f 
00000a04 52494e475f54 
00000a0a 494d4500 
00000a0e 1d             4143 	.byte	29
00000a0f 07             4144 	.byte	7
00000a10 3a             4145 	.byte	58
00000a11 13             4146 	.byte	19
                        4147 
00000a12 00             4148 	.byte	0
                        4149 
                        4150 .LDW_4de94a8:
00000a13 28             4151 	.byte	40
00000a14 4e766d4d4752   4152 	.strz	"NvmMGR__Enum_BSW_NvM_Members"
00000a1a 5f5f456e756d 
00000a20 5f4253575f4e 
00000a26 764d5f4d656d 
00000a2c 6265727300 
00000a31 1e             4153 	.byte	30
00000a32 02             4154 	.byte	2
00000a33 3a             4155 	.byte	58
00000a34 00000000*      4156 	.word	.LDW_4e12270

                                                                      Page 85
                                                              C:\Users\nhuliyap\AppData\Local\Temp\gh_0000b0k1.s
                        4157 
                        4158 .LDW_4de9a28:
00000a38 04             4159 	.byte	4
00000a39 52646353745f   4160 	.strz	"RdcSt__BO_IsStandstillMonitoringActive"
00000a3f 5f424f5f4973 
00000a45 5374616e6473 
00000a4b 74696c6c4d6f 
00000a51 6e69746f7269 
00000a57 6e6741637469 
00000a5d 766500 
00000a60 0d             4161 	.byte	13
00000a61 16             4162 	.byte	22
00000a62 01             4163 	.byte	1
00000a63 00000000*      4164 	.word	.LDW_4d1ff90
00000a67 00             4165 	.byte	0
00000a68 00             4166 	.byte	0
00000a69 0503           4167 	.byte	5,3
00000a6b 00000000*      4168 	.word	_RdcSt__BO_IsStandstillMonitoringActive..C.3A.5C_ECU2.5CECU_Rivian_A1.5CTarget.5Crepo_projects.5CpRealEcu.5CcL_R2023.2E09.2E01.5Cmake.5Coutput.5Cobjects.5CRdcStandstill.
                        4169 
                        4170 	.section	.debug_abbrev
000000c1 04             4171 	.byte	4
000000c2 34             4172 	.byte	52
000000c3 00             4173 	.byte	0
000000c4 0308           4174 	.byte	3,8
000000c6 3b0f           4175 	.byte	59,15
000000c8 390f           4176 	.byte	57,15
000000ca 3a0f           4177 	.byte	58,15
000000cc 4910           4178 	.byte	73,16
000000ce 3f0c           4179 	.byte	63,12
000000d0 3c0c           4180 	.byte	60,12
000000d2 020a           4181 	.byte	2,10
000000d4 0000           4182 	.byte	0,0
                        4183 
                        4184 	.section	.debug_info
                        4185 .LDW_4de9500:
00000a6f 04             4186 	.byte	4
00000a70 52646353745f   4187 	.strz	"RdcSt__BO_HasSyncPeriodExpired"
00000a76 5f424f5f4861 
00000a7c 7353796e6350 
00000a82 6572696f6445 
00000a88 787069726564 
00000a8e 00 
00000a8f 0e             4188 	.byte	14
00000a90 15             4189 	.byte	21
00000a91 01             4190 	.byte	1
00000a92 00000000*      4191 	.word	.LDW_4d1ff90
00000a96 00             4192 	.byte	0
00000a97 00             4193 	.byte	0
00000a98 0503           4194 	.byte	5,3
00000a9a 00000000*      4195 	.word	_RdcSt__BO_HasSyncPeriodExpired..C.3A.5C_ECU2.5CECU_Rivian_A1.5CTarget.5Crepo_projects.5CpRealEcu.5CcL_R2023.2E09.2E01.5Cmake.5Coutput.5Cobjects.5CRdcStandstill.
                        4196 
                        4197 .LDW_4de9088:
00000a9e 04             4198 	.byte	4
00000a9f 52646353745f   4199 	.strz	"RdcSt__U32_StartOfStandstillTimestamp"
00000aa5 5f5533325f53 
00000aab 746172744f66 
00000ab1 5374616e6473 
00000ab7 74696c6c5469 
00000abd 6d657374616d 
00000ac3 7000 
00000ac5 10             4200 	.byte	16

                                                                      Page 86
                                                              C:\Users\nhuliyap\AppData\Local\Temp\gh_0000b0k1.s
00000ac6 0f             4201 	.byte	15
00000ac7 01             4202 	.byte	1
00000ac8 00000000*      4203 	.word	.LDW_4d3a4c8
00000acc 00             4204 	.byte	0
00000acd 00             4205 	.byte	0
00000ace 0503           4206 	.byte	5,3
00000ad0 00000000*      4207 	.word	_RdcSt__U32_StartOfStandstillTimestamp..C.3A.5C_ECU2.5CECU_Rivian_A1.5CTarget.5Crepo_projects.5CpRealEcu.5CcL_R2023.2E09.2E01.5Cmake.5Coutput.5Cobjects.5CRdcStandstill.
                        4208 
                        4209 .LDW_4de93f8:
00000ad4 04             4210 	.byte	4
00000ad5 52646353745f   4211 	.strz	"RdcSt__AU32_StartOfWakeupPeriod"
00000adb 5f415533325f 
00000ae1 53746172744f 
00000ae7 6657616b6575 
00000aed 70506572696f 
00000af3 6400 
00000af5 11             4212 	.byte	17
00000af6 0f             4213 	.byte	15
00000af7 01             4214 	.byte	1
00000af8 00000000*      4215 	.word	.LDW_4e113b8
00000afc 00             4216 	.byte	0
00000afd 00             4217 	.byte	0
00000afe 0503           4218 	.byte	5,3
00000b00 00000000*      4219 	.word	_RdcSt__AU32_StartOfWakeupPeriod..C.3A.5C_ECU2.5CECU_Rivian_A1.5CTarget.5Crepo_projects.5CpRealEcu.5CcL_R2023.2E09.2E01.5Cmake.5Coutput.5Cobjects.5CRdcStandstill.
                        4220 
                        4221 .LDW_4de9818:
00000b04 04             4222 	.byte	4
00000b05 52646353745f   4223 	.strz	"RdcSt__U8_MonitoringStatus"
00000b0b 5f55385f4d6f 
00000b11 6e69746f7269 
00000b17 6e6753746174 
00000b1d 757300 
00000b20 13             4224 	.byte	19
00000b21 0e             4225 	.byte	14
00000b22 01             4226 	.byte	1
00000b23 00000000*      4227 	.word	.LDW_484bd60
00000b27 00             4228 	.byte	0
00000b28 00             4229 	.byte	0
00000b29 0503           4230 	.byte	5,3
00000b2b 00000000*      4231 	.word	_RdcSt__U8_MonitoringStatus..C.3A.5C_ECU2.5CECU_Rivian_A1.5CTarget.5Crepo_projects.5CpRealEcu.5CcL_R2023.2E09.2E01.5Cmake.5Coutput.5Cobjects.5CRdcStandstill.
                        4232 
                        4233 .LDW_4de93a0:
00000b2f 04             4234 	.byte	4
00000b30 52646353745f   4235 	.strz	"RdcSt__U8_ExtendedWakeup"
00000b36 5f55385f4578 
00000b3c 74656e646564 
00000b42 57616b657570 
00000b48 00 
00000b49 14             4236 	.byte	20
00000b4a 13             4237 	.byte	19
00000b4b 01             4238 	.byte	1
00000b4c 00000000*      4239 	.word	.LDW_484bd60
00000b50 00             4240 	.byte	0
00000b51 00             4241 	.byte	0
00000b52 0503           4242 	.byte	5,3
00000b54 00000000*      4243 	.word	_RdcSt__U8_ExtendedWakeup..C.3A.5C_ECU2.5CECU_Rivian_A1.5CTarget.5Crepo_projects.5CpRealEcu.5CcL_R2023.2E09.2E01.5Cmake.5Coutput.5Cobjects.5CRdcStandstill.
                        4244 
                        4245 .LDW_4de9450:
00000b58 04             4246 	.byte	4
00000b59 52646353745f   4247 	.strz	"RdcSt__BO_SleepRequested"
00000b5f 5f424f5f536c 

                                                                      Page 87
                                                              C:\Users\nhuliyap\AppData\Local\Temp\gh_0000b0k1.s
00000b65 656570526571 
00000b6b 756573746564 
00000b71 00 
00000b72 16             4248 	.byte	22
00000b73 10             4249 	.byte	16
00000b74 01             4250 	.byte	1
00000b75 00000000*      4251 	.word	.LDW_4d1ff90
00000b79 00             4252 	.byte	0
00000b7a 00             4253 	.byte	0
00000b7b 0503           4254 	.byte	5,3
00000b7d 00000000*      4255 	.word	_RdcSt__BO_SleepRequested..C.3A.5C_ECU2.5CECU_Rivian_A1.5CTarget.5Crepo_projects.5CpRealEcu.5CcL_R2023.2E09.2E01.5Cmake.5Coutput.5Cobjects.5CRdcStandstill.
                        4256 
                        4257 .LDW_4de9768:
00000b81 04             4258 	.byte	4
00000b82 52646353745f   4259 	.strz	"RdcSt__AS_WSData"
00000b88 5f41535f5753 
00000b8e 4461746100 
00000b93 18             4260 	.byte	24
00000b94 22             4261 	.byte	34
00000b95 01             4262 	.byte	1
00000b96 00000000*      4263 	.word	.LDW_4e11550
00000b9a 00             4264 	.byte	0
00000b9b 00             4265 	.byte	0
00000b9c 0503           4266 	.byte	5,3
00000b9e 00000000*      4267 	.word	_RdcSt__AS_WSData..C.3A.5C_ECU2.5CECU_Rivian_A1.5CTarget.5Crepo_projects.5CpRealEcu.5CcL_R2023.2E09.2E01.5Cmake.5Coutput.5Cobjects.5CRdcStandstill.
                        4268 
                        4269 .LDW_4de9298:
00000ba2 04             4270 	.byte	4
00000ba3 52646353745f   4271 	.strz	"RdcSt__U8_MainTimer"
00000ba9 5f55385f4d61 
00000baf 696e54696d65 
00000bb5 7200 
00000bb7 1a             4272 	.byte	26
00000bb8 13             4273 	.byte	19
00000bb9 01             4274 	.byte	1
00000bba 00000000*      4275 	.word	.LDW_484bd60
00000bbe 00             4276 	.byte	0
00000bbf 00             4277 	.byte	0
00000bc0 0503           4278 	.byte	5,3
00000bc2 00000000*      4279 	.word	_RdcSt__U8_MainTimer..C.3A.5C_ECU2.5CECU_Rivian_A1.5CTarget.5Crepo_projects.5CpRealEcu.5CcL_R2023.2E09.2E01.5Cmake.5Coutput.5Cobjects.5CRdcStandstill.
                        4280 
                        4281 .LDW_4de9348:
00000bc6 04             4282 	.byte	4
00000bc7 52646353745f   4283 	.strz	"RdcSt__U32_ElapsedTimeInMs"
00000bcd 5f5533325f45 
00000bd3 6c6170736564 
00000bd9 54696d65496e 
00000bdf 4d7300 
00000be2 1b             4284 	.byte	27
00000be3 14             4285 	.byte	20
00000be4 01             4286 	.byte	1
00000be5 00000000*      4287 	.word	.LDW_4d3a4c8
00000be9 00             4288 	.byte	0
00000bea 00             4289 	.byte	0
00000beb 0503           4290 	.byte	5,3
00000bed 00000000*      4291 	.word	_RdcSt__U32_ElapsedTimeInMs..C.3A.5C_ECU2.5CECU_Rivian_A1.5CTarget.5Crepo_projects.5CpRealEcu.5CcL_R2023.2E09.2E01.5Cmake.5Coutput.5Cobjects.5CRdcStandstill.
                        4292 
                        4293 .LDW_4de90e0:
00000bf1 04             4294 	.byte	4
00000bf2 52646353745f   4295 	.strz	"RdcSt__UN_PressureOnKeyConfig"
00000bf8 5f554e5f5072 

                                                                      Page 88
                                                              C:\Users\nhuliyap\AppData\Local\Temp\gh_0000b0k1.s
00000bfe 657373757265 
00000c04 4f6e4b657943 
00000c0a 6f6e66696700 
00000c10 1d             4296 	.byte	29
00000c11 2e             4297 	.byte	46
00000c12 01             4298 	.byte	1
00000c13 00000000*      4299 	.word	.LDW_4d5b790
00000c17 00             4300 	.byte	0
00000c18 00             4301 	.byte	0
00000c19 0503           4302 	.byte	5,3
00000c1b 00000000*      4303 	.word	_RdcSt__UN_PressureOnKeyConfig..C.3A.5C_ECU2.5CECU_Rivian_A1.5CTarget.5Crepo_projects.5CpRealEcu.5CcL_R2023.2E09.2E01.5Cmake.5Coutput.5Cobjects.5CRdcStandstill.
                        4304 
                        4305 .LDW_4de99d0:
00000c1f 04             4306 	.byte	4
00000c20 52646353745f   4307 	.strz	"RdcSt__U32_WakeupInterval_xms"
00000c26 5f5533325f57 
00000c2c 616b65757049 
00000c32 6e7465727661 
00000c38 6c5f786d7300 
00000c3e 1e             4308 	.byte	30
00000c3f 14             4309 	.byte	20
00000c40 01             4310 	.byte	1
00000c41 00000000*      4311 	.word	.LDW_4d3a4c8
00000c45 00             4312 	.byte	0
00000c46 00             4313 	.byte	0
00000c47 0503           4314 	.byte	5,3
00000c49 00000000*      4315 	.word	_RdcSt__U32_WakeupInterval_xms..C.3A.5C_ECU2.5CECU_Rivian_A1.5CTarget.5Crepo_projects.5CpRealEcu.5CcL_R2023.2E09.2E01.5Cmake.5Coutput.5Cobjects.5CRdcStandstill.
                        4316 
                        4317 .LDW_4de9558:
00000c4d 04             4318 	.byte	4
00000c4e 52646353745f   4319 	.strz	"RdcSt__U32_WakeTime_xms"
00000c54 5f5533325f57 
00000c5a 616b6554696d 
00000c60 655f786d7300 
00000c66 1f             4320 	.byte	31
00000c67 14             4321 	.byte	20
00000c68 01             4322 	.byte	1
00000c69 00000000*      4323 	.word	.LDW_4d3a4c8
00000c6d 00             4324 	.byte	0
00000c6e 00             4325 	.byte	0
00000c6f 0503           4326 	.byte	5,3
00000c71 00000000*      4327 	.word	_RdcSt__U32_WakeTime_xms..C.3A.5C_ECU2.5CECU_Rivian_A1.5CTarget.5Crepo_projects.5CpRealEcu.5CcL_R2023.2E09.2E01.5Cmake.5Coutput.5Cobjects.5CRdcStandstill.
                        4328 
                        4329 .LDW_4de97c0:
00000c75 04             4330 	.byte	4
00000c76 52646353745f   4331 	.strz	"RdcSt__U32_WakeOffset_xms"
00000c7c 5f5533325f57 
00000c82 616b654f6666 
00000c88 7365745f786d 
00000c8e 7300 
00000c90 20             4332 	.byte	32
00000c91 14             4333 	.byte	20
00000c92 01             4334 	.byte	1
00000c93 00000000*      4335 	.word	.LDW_4d3a4c8
00000c97 00             4336 	.byte	0
00000c98 00             4337 	.byte	0
00000c99 0503           4338 	.byte	5,3
00000c9b 00000000*      4339 	.word	_RdcSt__U32_WakeOffset_xms..C.3A.5C_ECU2.5CECU_Rivian_A1.5CTarget.5Crepo_projects.5CpRealEcu.5CcL_R2023.2E09.2E01.5Cmake.5Coutput.5Cobjects.5CRdcStandstill.
                        4340 
                        4341 .LDW_4de9870:
00000c9f 04             4342 	.byte	4

                                                                      Page 89
                                                              C:\Users\nhuliyap\AppData\Local\Temp\gh_0000b0k1.s
00000ca0 52646353745f   4343 	.strz	"RdcSt__U64_CGMTimestampAtStart"
00000ca6 5f5536345f43 
00000cac 474d54696d65 
00000cb2 7374616d7041 
00000cb8 745374617274 
00000cbe 00 
00000cbf 22             4344 	.byte	34
00000cc0 14             4345 	.byte	20
00000cc1 01             4346 	.byte	1
00000cc2 00000000*      4347 	.word	.LDW_4cc39b8
00000cc6 00             4348 	.byte	0
00000cc7 00             4349 	.byte	0
00000cc8 0503           4350 	.byte	5,3
00000cca 00000000*      4351 	.word	_RdcSt__U64_CGMTimestampAtStart..C.3A.5C_ECU2.5CECU_Rivian_A1.5CTarget.5Crepo_projects.5CpRealEcu.5CcL_R2023.2E09.2E01.5Cmake.5Coutput.5Cobjects.5CRdcStandstill.
                        4352 
                        4353 .LDW_4de9978:
00000cce 04             4354 	.byte	4
00000ccf 415533325f4d   4355 	.strz	"AU32_MonitoringTimeForEachWs_xms"
00000cd5 6f6e69746f72 
00000cdb 696e6754696d 
00000ce1 65466f724561 
00000ce7 636857735f78 
00000ced 6d7300 
00000cf0 23             4356 	.byte	35
00000cf1 14             4357 	.byte	20
00000cf2 01             4358 	.byte	1
00000cf3 00000000*      4359 	.word	.LDW_4e114c8
00000cf7 00             4360 	.byte	0
00000cf8 00             4361 	.byte	0
00000cf9 0503           4362 	.byte	5,3
00000cfb 00000000*      4363 	.word	_AU32_MonitoringTimeForEachWs_xms..C.3A.5C_ECU2.5CECU_Rivian_A1.5CTarget.5Crepo_projects.5CpRealEcu.5CcL_R2023.2E09.2E01.5Cmake.5Coutput.5Cobjects.5CRdcStandstill.
                        4364 
                        4365 .LDW_4de9138:
00000cff 04             4366 	.byte	4
00000d00 415533325f4c   4367 	.strz	"AU32_LastReceptionTimestampForEachWs_xms"
00000d06 617374526563 
00000d0c 657074696f6e 
00000d12 54696d657374 
00000d18 616d70466f72 
00000d1e 456163685773 
00000d24 5f786d7300 
00000d29 24             4368 	.byte	36
00000d2a 14             4369 	.byte	20
00000d2b 01             4370 	.byte	1
00000d2c 00000000*      4371 	.word	.LDW_4e11aa0
00000d30 00             4372 	.byte	0
00000d31 00             4373 	.byte	0
00000d32 0503           4374 	.byte	5,3
00000d34 00000000*      4375 	.word	_AU32_LastReceptionTimestampForEachWs_xms..C.3A.5C_ECU2.5CECU_Rivian_A1.5CTarget.5Crepo_projects.5CpRealEcu.5CcL_R2023.2E09.2E01.5Cmake.5Coutput.5Cobjects.5CRdcStandstill.
                        4376 
                        4377 .LDW_4dda6d8:
00000d38 16             4378 	.byte	22
00000d39 56455253494f   4379 	.strz	"VERSION_ucDigitToAscii"
00000d3f 4e5f75634469 
00000d45 676974546f41 
00000d4b 7363696900 
00000d50 8901           4380 	.byte	137,1
00000d52 0e             4381 	.byte	14
00000d53 09             4382 	.byte	9
00000d54 00000000*      4383 	.word	.LDW_484bd60
00000d58 01             4384 	.byte	1

                                                                      Page 90
                                                              C:\Users\nhuliyap\AppData\Local\Temp\gh_0000b0k1.s
00000d59 00             4385 	.byte	0
00000d5a 01             4386 	.byte	1
00000d5b 01             4387 	.byte	1
00000d5c 00             4388 	.byte	0
00000d5d 01             4389 	.byte	1
                        4390 
                        4391 	.section	.debug_abbrev
000000d6 16             4392 	.byte	22
000000d7 2e             4393 	.byte	46
000000d8 01             4394 	.byte	1
000000d9 0308           4395 	.byte	3,8
000000db 3b0f           4396 	.byte	59,15
000000dd 390f           4397 	.byte	57,15
000000df 3a0f           4398 	.byte	58,15
000000e1 4910           4399 	.byte	73,16
000000e3 3c0c           4400 	.byte	60,12
000000e5 200b           4401 	.byte	32,11
000000e7 3f0c           4402 	.byte	63,12
000000e9 320b           4403 	.byte	50,11
000000eb 4c0b           4404 	.byte	76,11
000000ed 270c           4405 	.byte	39,12
000000ef 0000           4406 	.byte	0,0
                        4407 
                        4408 	.section	.debug_info
00000d5e 00             4409 	.byte	0
                        4410 
                        4411 .LDW_4dec6e0:
00000d5f 15             4412 	.byte	21
00000d60 48756649665f   4413 	.strz	"HufIf_RCtSaReTelDec"
00000d66 524374536152 
00000d6c 6554656c4465 
00000d72 6300 
00000d74 dd01           4414 	.byte	221,1
00000d76 10             4415 	.byte	16
00000d77 15             4416 	.byte	21
00000d78 01             4417 	.byte	1
00000d79 00             4418 	.byte	0
00000d7a 01             4419 	.byte	1
00000d7b 01             4420 	.byte	1
00000d7c 00             4421 	.byte	0
00000d7d 01             4422 	.byte	1
                        4423 
                        4424 	.section	.debug_abbrev
000000f1 15             4425 	.byte	21
000000f2 2e             4426 	.byte	46
000000f3 01             4427 	.byte	1
000000f4 0308           4428 	.byte	3,8
000000f6 3b0f           4429 	.byte	59,15
000000f8 390f           4430 	.byte	57,15
000000fa 3a0f           4431 	.byte	58,15
000000fc 3c0c           4432 	.byte	60,12
000000fe 200b           4433 	.byte	32,11
00000100 3f0c           4434 	.byte	63,12
00000102 320b           4435 	.byte	50,11
00000104 4c0b           4436 	.byte	76,11
00000106 270c           4437 	.byte	39,12
00000108 0000           4438 	.byte	0,0
                        4439 
                        4440 	.section	.debug_info
00000d7e 00             4441 	.byte	0
                        4442 

                                                                      Page 91
                                                              C:\Users\nhuliyap\AppData\Local\Temp\gh_0000b0k1.s
                        4443 .LDW_4deba68:
00000d7f 16             4444 	.byte	22
00000d80 436c69656e74   4445 	.strz	"ClientIf_NvM_ReadBlock"
00000d86 49665f4e764d 
00000d8c 5f5265616442 
00000d92 6c6f636b00 
00000d97 e701           4446 	.byte	231,1
00000d99 0e             4447 	.byte	14
00000d9a 15             4448 	.byte	21
00000d9b 00000000*      4449 	.word	.LDW_484bd60
00000d9f 01             4450 	.byte	1
00000da0 00             4451 	.byte	0
00000da1 01             4452 	.byte	1
00000da2 01             4453 	.byte	1
00000da3 00             4454 	.byte	0
00000da4 01             4455 	.byte	1
                        4456 
00000da5 00             4457 	.byte	0
                        4458 
                        4459 .LDW_4dec0f0:
00000da6 15             4460 	.byte	21
00000da7 436c69656e74   4461 	.strz	"ClientIf_GetECUTimeStampValue"
00000dad 49665f476574 
00000db3 45435554696d 
00000db9 655374616d70 
00000dbf 56616c756500 
00000dc5 ec01           4462 	.byte	236,1
00000dc7 0d             4463 	.byte	13
00000dc8 15             4464 	.byte	21
00000dc9 01             4465 	.byte	1
00000dca 00             4466 	.byte	0
00000dcb 01             4467 	.byte	1
00000dcc 01             4468 	.byte	1
00000dcd 00             4469 	.byte	0
00000dce 01             4470 	.byte	1
                        4471 
00000dcf 00             4472 	.byte	0
                        4473 
                        4474 .LDW_4e15170:
00000dd0 15             4475 	.byte	21
00000dd1 5264635f5374   4476 	.strz	"Rdc_StoreLatestCGMTimestamp"
00000dd7 6f72654c6174 
00000ddd 65737443474d 
00000de3 54696d657374 
00000de9 616d7000 
00000ded 17             4477 	.byte	23
00000dee 0d             4478 	.byte	13
00000def 18             4479 	.byte	24
00000df0 01             4480 	.byte	1
00000df1 00             4481 	.byte	0
00000df2 01             4482 	.byte	1
00000df3 01             4483 	.byte	1
00000df4 00             4484 	.byte	0
00000df5 01             4485 	.byte	1
                        4486 
00000df6 00             4487 	.byte	0
                        4488 
                        4489 .LDW_4e156c8:
00000df7 15             4490 	.byte	21
00000df8 5461755f496e   4491 	.strz	"Tau_Init"
00000dfe 697400 

                                                                      Page 92
                                                              C:\Users\nhuliyap\AppData\Local\Temp\gh_0000b0k1.s
00000e01 0f             4492 	.byte	15
00000e02 0d             4493 	.byte	13
00000e03 19             4494 	.byte	25
00000e04 01             4495 	.byte	1
00000e05 00             4496 	.byte	0
00000e06 01             4497 	.byte	1
00000e07 01             4498 	.byte	1
00000e08 00             4499 	.byte	0
00000e09 01             4500 	.byte	1
                        4501 
00000e0a 00             4502 	.byte	0
                        4503 
                        4504 .LDW_4e157f8:
00000e0b 15             4505 	.byte	21
00000e0c 5461755f5374   4506 	.strz	"Tau_StartTimer"
00000e12 61727454696d 
00000e18 657200 
00000e1b 11             4507 	.byte	17
00000e1c 0d             4508 	.byte	13
00000e1d 19             4509 	.byte	25
00000e1e 01             4510 	.byte	1
00000e1f 00             4511 	.byte	0
00000e20 01             4512 	.byte	1
00000e21 01             4513 	.byte	1
00000e22 00             4514 	.byte	0
00000e23 01             4515 	.byte	1
                        4516 
00000e24 00             4517 	.byte	0
                        4518 
                        4519 .LDW_4e15890:
00000e25 15             4520 	.byte	21
00000e26 5461755f5374   4521 	.strz	"Tau_StopTimer"
00000e2c 6f7054696d65 
00000e32 7200 
00000e34 13             4522 	.byte	19
00000e35 0d             4523 	.byte	13
00000e36 19             4524 	.byte	25
00000e37 01             4525 	.byte	1
00000e38 00             4526 	.byte	0
00000e39 01             4527 	.byte	1
00000e3a 01             4528 	.byte	1
00000e3b 00             4529 	.byte	0
00000e3c 01             4530 	.byte	1
                        4531 
00000e3d 00             4532 	.byte	0
                        4533 
                        4534 .LDW_4e15928:
00000e3e 15             4535 	.byte	21
00000e3f 5461755f4765   4536 	.strz	"Tau_GetTimer"
00000e45 7454696d6572 
00000e4b 00 
00000e4c 15             4537 	.byte	21
00000e4d 0d             4538 	.byte	13
00000e4e 19             4539 	.byte	25
00000e4f 01             4540 	.byte	1
00000e50 00             4541 	.byte	0
00000e51 01             4542 	.byte	1
00000e52 01             4543 	.byte	1
00000e53 00             4544 	.byte	0
00000e54 01             4545 	.byte	1
                        4546 

                                                                      Page 93
                                                              C:\Users\nhuliyap\AppData\Local\Temp\gh_0000b0k1.s
00000e55 00             4547 	.byte	0
                        4548 
                        4549 .LDW_4e15a58:
00000e56 15             4550 	.byte	21
00000e57 5359534d4752   4551 	.strz	"SYSMGR_SetEcuEvent"
00000e5d 5f5365744563 
00000e63 754576656e74 
00000e69 00 
00000e6a 28             4552 	.byte	40
00000e6b 0d             4553 	.byte	13
00000e6c 1a             4554 	.byte	26
00000e6d 01             4555 	.byte	1
00000e6e 00             4556 	.byte	0
00000e6f 01             4557 	.byte	1
00000e70 01             4558 	.byte	1
00000e71 00             4559 	.byte	0
00000e72 01             4560 	.byte	1
                        4561 
00000e73 00             4562 	.byte	0
                        4563 
                        4564 .LDW_4e1cc40:
00000e74 16             4565 	.byte	22
00000e75 456e765f4765   4566 	.strz	"Env_GetEnvironmentData"
00000e7b 74456e766972 
00000e81 6f6e6d656e74 
00000e87 4461746100 
00000e8c 1f             4567 	.byte	31
00000e8d 14             4568 	.byte	20
00000e8e 1b             4569 	.byte	27
00000e8f 00000000*      4570 	.word	.LDW_4d59c48
00000e93 01             4571 	.byte	1
00000e94 00             4572 	.byte	0
00000e95 01             4573 	.byte	1
00000e96 01             4574 	.byte	1
00000e97 00             4575 	.byte	0
00000e98 01             4576 	.byte	1
                        4577 
00000e99 00             4578 	.byte	0
                        4579 
                        4580 .LDW_4e1dbb0:
00000e9a 15             4581 	.byte	21
00000e9b 4e766d4d4752   4582 	.strz	"NvmMGR_WriteBSWMember"
00000ea1 5f5772697465 
00000ea7 4253574d656d 
00000ead 62657200 
00000eb1 21             4583 	.byte	33
00000eb2 0d             4584 	.byte	13
00000eb3 3a             4585 	.byte	58
00000eb4 01             4586 	.byte	1
00000eb5 00             4587 	.byte	0
00000eb6 01             4588 	.byte	1
00000eb7 01             4589 	.byte	1
00000eb8 00             4590 	.byte	0
00000eb9 01             4591 	.byte	1
                        4592 
00000eba 00             4593 	.byte	0
                        4594 
                        4595 .LDW_4e1d2c8:
00000ebb 15             4596 	.byte	21
00000ebc 4e766d4d4752   4597 	.strz	"NvmMGR_ReadBSWMember"
00000ec2 5f5265616442 

                                                                      Page 94
                                                              C:\Users\nhuliyap\AppData\Local\Temp\gh_0000b0k1.s
00000ec8 53574d656d62 
00000ece 657200 
00000ed1 22             4598 	.byte	34
00000ed2 0d             4599 	.byte	13
00000ed3 3a             4600 	.byte	58
00000ed4 01             4601 	.byte	1
00000ed5 00             4602 	.byte	0
00000ed6 01             4603 	.byte	1
00000ed7 01             4604 	.byte	1
00000ed8 00             4605 	.byte	0
00000ed9 01             4606 	.byte	1
                        4607 
00000eda 00             4608 	.byte	0
                        4609 
                        4610 .LDW_4d3eff8:
00000edb 13             4611 	.byte	19
00000edc 52646353745f   4612 	.strz	"RdcSt_Init"
00000ee2 496e697400 
00000ee7 3c             4613 	.byte	60
00000ee8 0d             4614 	.byte	13
00000ee9 01             4615 	.byte	1
00000eea 00000000*      4616 	.word	_RdcSt_Init
00000eee 00000000*      4617 	.word	___ghs_eofn_RdcSt_Init
00000ef2 0153           4618 	.byte	1,83
00000ef4 02             4619 	.byte	2
00000ef5 00             4620 	.byte	0
00000ef6 02             4621 	.byte	2
00000ef7 00             4622 	.byte	0
00000ef8 00             4623 	.byte	0
00000ef9 00             4624 	.byte	0
00000efa 00             4625 	.byte	0
00000efb 01             4626 	.byte	1
00000efc 01             4627 	.byte	1
00000efd 00             4628 	.byte	0
00000efe 01             4629 	.byte	1
                        4630 
                        4631 	.section	.debug_abbrev
0000010a 13             4632 	.byte	19
0000010b 2e             4633 	.byte	46
0000010c 01             4634 	.byte	1
0000010d 0308           4635 	.byte	3,8
0000010f 3b0f           4636 	.byte	59,15
00000111 390f           4637 	.byte	57,15
00000113 3a0f           4638 	.byte	58,15
00000115 1101           4639 	.byte	17,1
00000117 1201           4640 	.byte	18,1
00000119 400a           4641 	.byte	64,10
0000011b 8341           4642 	.byte	131,65
0000011d 0f             4643 	.byte	15
0000011e 8741           4644 	.byte	135,65
00000120 0d             4645 	.byte	13
00000121 8541           4646 	.byte	133,65
00000123 0f             4647 	.byte	15
00000124 8641           4648 	.byte	134,65
00000126 0d             4649 	.byte	13
00000127 9241           4650 	.byte	146,65
00000129 0f             4651 	.byte	15
0000012a 3c0c           4652 	.byte	60,12
0000012c 200b           4653 	.byte	32,11
0000012e 3f0c           4654 	.byte	63,12
00000130 320b           4655 	.byte	50,11

                                                                      Page 95
                                                              C:\Users\nhuliyap\AppData\Local\Temp\gh_0000b0k1.s
00000132 4c0b           4656 	.byte	76,11
00000134 270c           4657 	.byte	39,12
00000136 0000           4658 	.byte	0,0
                        4659 
                        4660 	.section	.debug_frame
                        4661 .LDW_4de8bc0:
00000090 00000000*      4662 	.word	.LDW_unq_4-.LDW_unq_3
                        4663 .LDW_unq_3:
00000094 00000000*      4664 	.word	.LDW_4d87930
00000098 00000000*      4665 	.word	_RdcSt_Init
0000009c 00000000*      4666 	.word	___ghs_eofn_RdcSt_Init-_RdcSt_Init
000000a0 01             4667 	.byte	1
000000a1 00000000*      4668 	.word	.LDW11
000000a5 00             4669 	.byte	0
000000a6 00             4670 	.byte	0
000000a7 00             4671 	.byte	0
                        4672 .LDW_unq_4:
                        4673 	.section	.debug_line
00000ac1 000502         4674 	.byte	0,5,2
00000ac4 00000000*      4675 	.word	_RdcSt_Init
00000ac8 06             4676 	.byte	6
00000ac9 03             4677 	.byte	3
00000aca 3c             4678 	.byte	60
00000acb 02             4679 	.byte	2
00000acc 00             4680 	.byte	0
00000acd 01             4681 	.byte	1
00000ace 02             4682 	.byte	2
00000acf 02             4683 	.byte	2
00000ad0 000101         4684 	.byte	0,1,1
                        4685 	.section	.debug_info
                        4686 .LDW_4d5a4b8:
00000eff 1d             4687 	.byte	29
00000f00 00000000*      4688 	.word	.LDW01
00000f04 00000000*      4689 	.word	.LDW11
                        4690 
                        4691 	.section	.debug_abbrev
00000138 1d             4692 	.byte	29
00000139 0b             4693 	.byte	11
0000013a 01             4694 	.byte	1
0000013b 1101           4695 	.byte	17,1
0000013d 1201           4696 	.byte	18,1
0000013f 0000           4697 	.byte	0,0
                        4698 
                        4699 	.section	.debug_info
00000f08 00             4700 	.byte	0
                        4701 
00000f09 00             4702 	.byte	0
                        4703 
                        4704 .LDW_4d3f090:
00000f0a 13             4705 	.byte	19
00000f0b 52646353745f   4706 	.strz	"RdcSt_InitBSWNvM"
00000f11 496e69744253 
00000f17 574e764d00 
00000f1c 3f             4707 	.byte	63
00000f1d 0d             4708 	.byte	13
00000f1e 01             4709 	.byte	1
00000f1f 00000000*      4710 	.word	_RdcSt_InitBSWNvM
00000f23 00000000*      4711 	.word	___ghs_eofn_RdcSt_InitBSWNvM
00000f27 0153           4712 	.byte	1,83
00000f29 8280808008     4713 	.byte	130,128,128,128,8
00000f2e 04             4714 	.byte	4

                                                                      Page 96
                                                              C:\Users\nhuliyap\AppData\Local\Temp\gh_0000b0k1.s
00000f2f 03             4715 	.byte	3
00000f30 08             4716 	.byte	8
00000f31 00             4717 	.byte	0
00000f32 00             4718 	.byte	0
00000f33 00             4719 	.byte	0
00000f34 01             4720 	.byte	1
00000f35 01             4721 	.byte	1
00000f36 00             4722 	.byte	0
00000f37 01             4723 	.byte	1
                        4724 
                        4725 	.section	.debug_frame
                        4726 .LDW_4de8e00:
000000a8 00000000*      4727 	.word	.LDW_unq_6-.LDW_unq_5
                        4728 .LDW_unq_5:
000000ac 00000000*      4729 	.word	.LDW_4d87930
000000b0 00000000*      4730 	.word	_RdcSt_InitBSWNvM
000000b4 00000000*      4731 	.word	___ghs_eofn_RdcSt_InitBSWNvM-_RdcSt_InitBSWNvM
000000b8 44             4732 	.byte	68
000000b9 9f             4733 	.byte	159
000000ba 03             4734 	.byte	3
000000bb 01             4735 	.byte	1
000000bc 00000000*      4736 	.word	.LDW31
000000c0 44             4737 	.byte	68
000000c1 df             4738 	.byte	223
000000c2 00             4739 	.byte	0
000000c3 00             4740 	.byte	0
                        4741 .LDW_unq_6:
                        4742 	.section	.debug_line
00000ad3 000502         4743 	.byte	0,5,2
00000ad6 00000000*      4744 	.word	_RdcSt_InitBSWNvM
00000ada 03             4745 	.byte	3
00000adb 3e             4746 	.byte	62
00000adc 02             4747 	.byte	2
00000add 00             4748 	.byte	0
00000ade 01             4749 	.byte	1
00000adf 06             4750 	.byte	6
00000ae0 1d             4751 	.byte	29
00000ae1 23             4752 	.byte	35
00000ae2 000502         4753 	.byte	0,5,2
00000ae5 00000000*      4754 	.word	.LDWlin1
00000ae9 0c             4755 	.byte	12
00000aea 23             4756 	.byte	35
00000aeb 000502         4757 	.byte	0,5,2
00000aee 00000000*      4758 	.word	.LDWlin2
00000af2 0c             4759 	.byte	12
00000af3 2b             4760 	.byte	43
00000af4 000502         4761 	.byte	0,5,2
00000af7 00000000*      4762 	.word	.LDWlin3
00000afb 0c             4763 	.byte	12
00000afc 2b             4764 	.byte	43
00000afd 000502         4765 	.byte	0,5,2
00000b00 00000000*      4766 	.word	.LDWlin4
00000b04 0c             4767 	.byte	12
00000b05 1b             4768 	.byte	27
00000b06 000502         4769 	.byte	0,5,2
00000b09 00000000*      4770 	.word	.LDWlin5
00000b0d 0b             4771 	.byte	11
00000b0e 02             4772 	.byte	2
00000b0f 04             4773 	.byte	4
00000b10 000101         4774 	.byte	0,1,1
                        4775 	.section	.debug_info

                                                                      Page 97
                                                              C:\Users\nhuliyap\AppData\Local\Temp\gh_0000b0k1.s
                        4776 .LDW_4d5a248:
00000f38 1d             4777 	.byte	29
00000f39 00000000*      4778 	.word	.LDW21
00000f3d 00000000*      4779 	.word	.LDW31
                        4780 
                        4781 .LDW_4d58cb8:
00000f41 04             4782 	.byte	4
00000f42 55385f427566   4783 	.strz	"U8_Buffer"
00000f48 66657200 
00000f4c 40             4784 	.byte	64
00000f4d 09             4785 	.byte	9
00000f4e 01             4786 	.byte	1
00000f4f 00000000*      4787 	.word	.LDW_484bd60
00000f53 00             4788 	.byte	0
00000f54 00             4789 	.byte	0
00000f55 0273           4790 	.byte	2,115
00000f57 03             4791 	.byte	3
                        4792 
00000f58 00             4793 	.byte	0
                        4794 
00000f59 00             4795 	.byte	0
                        4796 
                        4797 .LDW_4d3f128:
00000f5a 13             4798 	.byte	19
00000f5b 52646353745f   4799 	.strz	"RdcSt_StartStandstillMonitoring"
00000f61 537461727453 
00000f67 74616e647374 
00000f6d 696c6c4d6f6e 
00000f73 69746f72696e 
00000f79 6700 
00000f7b 52             4800 	.byte	82
00000f7c 0d             4801 	.byte	13
00000f7d 01             4802 	.byte	1
00000f7e 00000000*      4803 	.word	_RdcSt_StartStandstillMonitoring
00000f82 00000000*      4804 	.word	___ghs_eofn_RdcSt_StartStandstillMonitoring
00000f86 0153           4805 	.byte	1,83
00000f88 828080800b     4806 	.byte	130,128,128,128,11
00000f8d 0c             4807 	.byte	12
00000f8e 03             4808 	.byte	3
00000f8f 0c             4809 	.byte	12
00000f90 00             4810 	.byte	0
00000f91 00             4811 	.byte	0
00000f92 00             4812 	.byte	0
00000f93 01             4813 	.byte	1
00000f94 01             4814 	.byte	1
00000f95 00             4815 	.byte	0
00000f96 01             4816 	.byte	1
                        4817 
                        4818 	.section	.debug_frame
                        4819 .LDW_4edb0d8:
000000c4 00000000*      4820 	.word	.LDW_unq_8-.LDW_unq_7
                        4821 .LDW_unq_7:
000000c8 00000000*      4822 	.word	.LDW_4d87930
000000cc 00000000*      4823 	.word	_RdcSt_StartStandstillMonitoring
000000d0 00000000*      4824 	.word	___ghs_eofn_RdcSt_StartStandstillMonitoring-_RdcSt_StartStandstillMonitoring
000000d4 44             4825 	.byte	68
000000d5 9f             4826 	.byte	159
000000d6 00             4827 	.byte	0
000000d7 40             4828 	.byte	64
000000d8 9d             4829 	.byte	157
000000d9 04             4830 	.byte	4

                                                                      Page 98
                                                              C:\Users\nhuliyap\AppData\Local\Temp\gh_0000b0k1.s
000000da 40             4831 	.byte	64
000000db 9c             4832 	.byte	156
000000dc 08             4833 	.byte	8
000000dd 01             4834 	.byte	1
000000de 00000000*      4835 	.word	.LDW12
000000e2 00             4836 	.byte	0
000000e3 00             4837 	.byte	0
                        4838 .LDW_unq_8:
                        4839 	.section	.debug_line
00000b13 000502         4840 	.byte	0,5,2
00000b16 00000000*      4841 	.word	_RdcSt_StartStandstillMonitoring
00000b1a 03             4842 	.byte	3
00000b1b d100           4843 	.byte	209,0
00000b1d 02             4844 	.byte	2
00000b1e 00             4845 	.byte	0
00000b1f 01             4846 	.byte	1
00000b20 06             4847 	.byte	6
00000b21 1b             4848 	.byte	27
00000b22 000502         4849 	.byte	0,5,2
00000b25 00000000*      4850 	.word	.LDWlin16
00000b29 0c             4851 	.byte	12
00000b2a 000502         4852 	.byte	0,5,2
00000b2d 00000000*      4853 	.word	.LDWlin17
00000b31 0b             4854 	.byte	11
00000b32 0d             4855 	.byte	13
00000b33 000502         4856 	.byte	0,5,2
00000b36 00000000*      4857 	.word	.LDWlin18
00000b3a 0b             4858 	.byte	11
00000b3b 000502         4859 	.byte	0,5,2
00000b3e 00000000*      4860 	.word	.LDWlin19
00000b42 0c             4861 	.byte	12
00000b43 000502         4862 	.byte	0,5,2
00000b46 00000000*      4863 	.word	.LDWlin20
00000b4a 0c             4864 	.byte	12
00000b4b 000502         4865 	.byte	0,5,2
00000b4e 00000000*      4866 	.word	.LDWlin21
00000b52 0c             4867 	.byte	12
00000b53 02             4868 	.byte	2
00000b54 02             4869 	.byte	2
00000b55 0c             4870 	.byte	12
00000b56 000502         4871 	.byte	0,5,2
00000b59 00000000*      4872 	.word	.LDWlin22
00000b5d 0b             4873 	.byte	11
00000b5e 13             4874 	.byte	19
00000b5f 14             4875 	.byte	20
00000b60 000502         4876 	.byte	0,5,2
00000b63 00000000*      4877 	.word	.LDWlin23
00000b67 0b             4878 	.byte	11
00000b68 000502         4879 	.byte	0,5,2
00000b6b 00000000*      4880 	.word	.LDWlin24
00000b6f 03             4881 	.byte	3
00000b70 79             4882 	.byte	121
00000b71 02             4883 	.byte	2
00000b72 00             4884 	.byte	0
00000b73 01             4885 	.byte	1
00000b74 000502         4886 	.byte	0,5,2
00000b77 00000000*      4887 	.word	.LDWlin25
00000b7b 03             4888 	.byte	3
00000b7c 11             4889 	.byte	17
00000b7d 02             4890 	.byte	2
00000b7e 00             4891 	.byte	0

                                                                      Page 99
                                                              C:\Users\nhuliyap\AppData\Local\Temp\gh_0000b0k1.s
00000b7f 01             4892 	.byte	1
00000b80 1b             4893 	.byte	27
00000b81 13             4894 	.byte	19
00000b82 03             4895 	.byte	3
00000b83 75             4896 	.byte	117
00000b84 02             4897 	.byte	2
00000b85 12             4898 	.byte	18
00000b86 01             4899 	.byte	1
00000b87 0c             4900 	.byte	12
00000b88 000502         4901 	.byte	0,5,2
00000b8b 00000000*      4902 	.word	.LDWlin26
00000b8f 0b             4903 	.byte	11
00000b90 000502         4904 	.byte	0,5,2
00000b93 00000000*      4905 	.word	.LDWlin27
00000b97 0c             4906 	.byte	12
00000b98 000502         4907 	.byte	0,5,2
00000b9b 00000000*      4908 	.word	.LDWlin28
00000b9f 0b             4909 	.byte	11
00000ba0 000502         4910 	.byte	0,5,2
00000ba3 00000000*      4911 	.word	.LDWlin29
00000ba7 0b             4912 	.byte	11
00000ba8 000502         4913 	.byte	0,5,2
00000bab 00000000*      4914 	.word	.LDWlin30
00000baf 03             4915 	.byte	3
00000bb0 7d             4916 	.byte	125
00000bb1 02             4917 	.byte	2
00000bb2 00             4918 	.byte	0
00000bb3 01             4919 	.byte	1
00000bb4 06             4920 	.byte	6
00000bb5 02             4921 	.byte	2
00000bb6 1c             4922 	.byte	28
00000bb7 06             4923 	.byte	6
00000bb8 000502         4924 	.byte	0,5,2
00000bbb 00000000*      4925 	.word	.LDWlin31
00000bbf 03             4926 	.byte	3
00000bc0 08             4927 	.byte	8
00000bc1 02             4928 	.byte	2
00000bc2 00             4929 	.byte	0
00000bc3 01             4930 	.byte	1
00000bc4 0c             4931 	.byte	12
00000bc5 0b             4932 	.byte	11
00000bc6 000502         4933 	.byte	0,5,2
00000bc9 00000000*      4934 	.word	.LDWlin32
00000bcd 0b             4935 	.byte	11
00000bce 02             4936 	.byte	2
00000bcf 00             4937 	.byte	0
00000bd0 0b             4938 	.byte	11
00000bd1 02             4939 	.byte	2
00000bd2 04             4940 	.byte	4
00000bd3 000101         4941 	.byte	0,1,1
                        4942 	.section	.debug_info
                        4943 .LDW_4d5a218:
00000f97 1d             4944 	.byte	29
00000f98 00000000*      4945 	.word	.LDW81
00000f9c 00000000*      4946 	.word	.LDW12
                        4947 
                        4948 .LDW_4d5a368:
00000fa0 1d             4949 	.byte	29
00000fa1 00000000*      4950 	.word	.LDW91
00000fa5 00000000*      4951 	.word	.LDW02
                        4952 

                                                                      Page 100
                                                              C:\Users\nhuliyap\AppData\Local\Temp\gh_0000b0k1.s
                        4953 .LDW_4d590d8:
00000fa9 04             4954 	.byte	4
00000faa 55385f436f75   4955 	.strz	"U8_Counter"
00000fb0 6e74657200 
00000fb5 57             4956 	.byte	87
00000fb6 0a             4957 	.byte	10
00000fb7 01             4958 	.byte	1
00000fb8 00000000*      4959 	.word	.LDW_484bd60
00000fbc 00             4960 	.byte	0
00000fbd 00             4961 	.byte	0
00000fbe 0161           4962 	.byte	1,97
                        4963 
00000fc0 00             4964 	.byte	0
                        4965 
00000fc1 00             4966 	.byte	0
                        4967 
00000fc2 00             4968 	.byte	0
                        4969 
                        4970 .LDW_4d3f1c0:
00000fc3 13             4971 	.byte	19
00000fc4 52646353745f   4972 	.strz	"RdcSt_StopStandstillMonitoring"
00000fca 53746f705374 
00000fd0 616e64737469 
00000fd6 6c6c4d6f6e69 
00000fdc 746f72696e67 
00000fe2 00 
00000fe3 7b             4973 	.byte	123
00000fe4 0d             4974 	.byte	13
00000fe5 01             4975 	.byte	1
00000fe6 00000000*      4976 	.word	_RdcSt_StopStandstillMonitoring
00000fea 00000000*      4977 	.word	___ghs_eofn_RdcSt_StopStandstillMonitoring
00000fee 0153           4978 	.byte	1,83
00000ff0 828080800a     4979 	.byte	130,128,128,128,10
00000ff5 08             4980 	.byte	8
00000ff6 03             4981 	.byte	3
00000ff7 08             4982 	.byte	8
00000ff8 00             4983 	.byte	0
00000ff9 00             4984 	.byte	0
00000ffa 00             4985 	.byte	0
00000ffb 01             4986 	.byte	1
00000ffc 01             4987 	.byte	1
00000ffd 00             4988 	.byte	0
00000ffe 01             4989 	.byte	1
                        4990 
                        4991 	.section	.debug_frame
                        4992 .LDW_4edad18:
000000e4 00000000*      4993 	.word	.LDW_unq_a-.LDW_unq_9
                        4994 .LDW_unq_9:
000000e8 00000000*      4995 	.word	.LDW_4d87930
000000ec 00000000*      4996 	.word	_RdcSt_StopStandstillMonitoring
000000f0 00000000*      4997 	.word	___ghs_eofn_RdcSt_StopStandstillMonitoring-_RdcSt_StopStandstillMonitoring
000000f4 44             4998 	.byte	68
000000f5 9f             4999 	.byte	159
000000f6 00             5000 	.byte	0
000000f7 40             5001 	.byte	64
000000f8 9d             5002 	.byte	157
000000f9 04             5003 	.byte	4
000000fa 01             5004 	.byte	1
000000fb 00000000*      5005 	.word	.LDW32
000000ff 00             5006 	.byte	0
                        5007 .LDW_unq_a:

                                                                      Page 101
                                                              C:\Users\nhuliyap\AppData\Local\Temp\gh_0000b0k1.s
                        5008 	.section	.debug_line
00000bd6 000502         5009 	.byte	0,5,2
00000bd9 00000000*      5010 	.word	_RdcSt_StopStandstillMonitoring
00000bdd 03             5011 	.byte	3
00000bde fa00           5012 	.byte	250,0
00000be0 02             5013 	.byte	2
00000be1 00             5014 	.byte	0
00000be2 01             5015 	.byte	1
00000be3 06             5016 	.byte	6
00000be4 1d             5017 	.byte	29
00000be5 02             5018 	.byte	2
00000be6 02             5019 	.byte	2
00000be7 0c             5020 	.byte	12
00000be8 000502         5021 	.byte	0,5,2
00000beb 00000000*      5022 	.word	.LDWlin33
00000bef 03             5023 	.byte	3
00000bf0 7e             5024 	.byte	126
00000bf1 02             5025 	.byte	2
00000bf2 00             5026 	.byte	0
00000bf3 01             5027 	.byte	1
00000bf4 000502         5028 	.byte	0,5,2
00000bf7 00000000*      5029 	.word	.LDWlin34
00000bfb 0d             5030 	.byte	13
00000bfc 0c             5031 	.byte	12
00000bfd 000502         5032 	.byte	0,5,2
00000c00 00000000*      5033 	.word	.LDWlin35
00000c04 0b             5034 	.byte	11
00000c05 02             5035 	.byte	2
00000c06 04             5036 	.byte	4
00000c07 000101         5037 	.byte	0,1,1
                        5038 	.section	.debug_info
                        5039 .LDW_4d5a3c8:
00000fff 1d             5040 	.byte	29
00001000 00000000*      5041 	.word	.LDW22
00001004 00000000*      5042 	.word	.LDW32
                        5043 
                        5044 .LDW_4d59188:
00001008 04             5045 	.byte	4
00001009 55385f436f75   5046 	.strz	"U8_Counter"
0000100f 6e74657200 
00001014 7c             5047 	.byte	124
00001015 09             5048 	.byte	9
00001016 01             5049 	.byte	1
00001017 00000000*      5050 	.word	.LDW_484bd60
0000101b 00             5051 	.byte	0
0000101c 00             5052 	.byte	0
0000101d 016d           5053 	.byte	1,109
                        5054 
0000101f 00             5055 	.byte	0
                        5056 
00001020 00             5057 	.byte	0
                        5058 
                        5059 .LDW_4ddb9d8:
00001021 14             5060 	.byte	20
00001022 52646353745f   5061 	.strz	"RdcSt_IsStandstillMonitoringActive"
00001028 49735374616e 
0000102e 647374696c6c 
00001034 4d6f6e69746f 
0000103a 72696e674163 
00001040 7469766500 
00001045 8601           5062 	.byte	134,1

                                                                      Page 102
                                                              C:\Users\nhuliyap\AppData\Local\Temp\gh_0000b0k1.s
00001047 10             5063 	.byte	16
00001048 01             5064 	.byte	1
00001049 00000000*      5065 	.word	.LDW_4d1ff90
0000104d 00000000*      5066 	.word	_RdcSt_IsStandstillMonitoringActive
00001051 00000000*      5067 	.word	___ghs_eofn_RdcSt_IsStandstillMonitoringActive
00001055 0153           5068 	.byte	1,83
00001057 02             5069 	.byte	2
00001058 00             5070 	.byte	0
00001059 02             5071 	.byte	2
0000105a 00             5072 	.byte	0
0000105b 00             5073 	.byte	0
0000105c 00             5074 	.byte	0
0000105d 00             5075 	.byte	0
0000105e 01             5076 	.byte	1
0000105f 01             5077 	.byte	1
00001060 00             5078 	.byte	0
00001061 01             5079 	.byte	1
                        5080 
                        5081 	.section	.debug_abbrev
00000141 14             5082 	.byte	20
00000142 2e             5083 	.byte	46
00000143 01             5084 	.byte	1
00000144 0308           5085 	.byte	3,8
00000146 3b0f           5086 	.byte	59,15
00000148 390f           5087 	.byte	57,15
0000014a 3a0f           5088 	.byte	58,15
0000014c 4910           5089 	.byte	73,16
0000014e 1101           5090 	.byte	17,1
00000150 1201           5091 	.byte	18,1
00000152 400a           5092 	.byte	64,10
00000154 8341           5093 	.byte	131,65
00000156 0f             5094 	.byte	15
00000157 8741           5095 	.byte	135,65
00000159 0d             5096 	.byte	13
0000015a 8541           5097 	.byte	133,65
0000015c 0f             5098 	.byte	15
0000015d 8641           5099 	.byte	134,65
0000015f 0d             5100 	.byte	13
00000160 9241           5101 	.byte	146,65
00000162 0f             5102 	.byte	15
00000163 3c0c           5103 	.byte	60,12
00000165 200b           5104 	.byte	32,11
00000167 3f0c           5105 	.byte	63,12
00000169 320b           5106 	.byte	50,11
0000016b 4c0b           5107 	.byte	76,11
0000016d 270c           5108 	.byte	39,12
0000016f 0000           5109 	.byte	0,0
                        5110 
                        5111 	.section	.debug_frame
                        5112 .LDW_4edafd8:
00000100 00000000*      5113 	.word	.LDW_unq_c-.LDW_unq_b
                        5114 .LDW_unq_b:
00000104 00000000*      5115 	.word	.LDW_4d87930
00000108 00000000*      5116 	.word	_RdcSt_IsStandstillMonitoringActive
0000010c 00000000*      5117 	.word	___ghs_eofn_RdcSt_IsStandstillMonitoringActive-_RdcSt_IsStandstillMonitoringActive
00000110 01             5118 	.byte	1
00000111 00000000*      5119 	.word	.LDW52
00000115 00             5120 	.byte	0
00000116 00             5121 	.byte	0
00000117 00             5122 	.byte	0
                        5123 .LDW_unq_c:

                                                                      Page 103
                                                              C:\Users\nhuliyap\AppData\Local\Temp\gh_0000b0k1.s
                        5124 	.section	.debug_line
00000c0a 000502         5125 	.byte	0,5,2
00000c0d 00000000*      5126 	.word	_RdcSt_IsStandstillMonitoringActive
00000c11 06             5127 	.byte	6
00000c12 03             5128 	.byte	3
00000c13 8601           5129 	.byte	134,1
00000c15 02             5130 	.byte	2
00000c16 00             5131 	.byte	0
00000c17 01             5132 	.byte	1
00000c18 06             5133 	.byte	6
00000c19 000502         5134 	.byte	0,5,2
00000c1c 00000000*      5135 	.word	.LDWlin36
00000c20 02             5136 	.byte	2
00000c21 00             5137 	.byte	0
00000c22 02             5138 	.byte	2
00000c23 02             5139 	.byte	2
00000c24 000101         5140 	.byte	0,1,1
                        5141 	.section	.debug_info
                        5142 .LDW_4d5a3f8:
00001062 1d             5143 	.byte	29
00001063 00000000*      5144 	.word	.LDW42
00001067 00000000*      5145 	.word	.LDW52
                        5146 
0000106b 00             5147 	.byte	0
                        5148 
0000106c 00             5149 	.byte	0
                        5150 
                        5151 .LDW_4ddb3e8:
0000106d 13             5152 	.byte	19
0000106e 52646353745f   5153 	.strz	"RdcSt_ProcessStandstillTelegram"
00001074 50726f636573 
0000107a 735374616e64 
00001080 7374696c6c54 
00001086 656c65677261 
0000108c 6d00 
0000108e 8a01           5154 	.byte	138,1
00001090 0d             5155 	.byte	13
00001091 01             5156 	.byte	1
00001092 00000000*      5157 	.word	_RdcSt_ProcessStandstillTelegram
00001096 00000000*      5158 	.word	___ghs_eofn_RdcSt_ProcessStandstillTelegram
0000109a 0153           5159 	.byte	1,83
0000109c 828080f80b     5160 	.byte	130,128,128,248,11
000010a1 1c             5161 	.byte	28
000010a2 03             5162 	.byte	3
000010a3 20             5163 	.byte	32
000010a4 00             5164 	.byte	0
000010a5 00             5165 	.byte	0
000010a6 00             5166 	.byte	0
000010a7 01             5167 	.byte	1
000010a8 01             5168 	.byte	1
000010a9 00             5169 	.byte	0
000010aa 01             5170 	.byte	1
                        5171 
                        5172 	.section	.debug_frame
                        5173 .LDW_4edb1d8:
00000118 00000000*      5174 	.word	.LDW_unq_e-.LDW_unq_d
                        5175 .LDW_unq_d:
0000011c 00000000*      5176 	.word	.LDW_4d87930
00000120 00000000*      5177 	.word	_RdcSt_ProcessStandstillTelegram
00000124 00000000*      5178 	.word	___ghs_eofn_RdcSt_ProcessStandstillTelegram-_RdcSt_ProcessStandstillTelegram
00000128 44             5179 	.byte	68

                                                                      Page 104
                                                              C:\Users\nhuliyap\AppData\Local\Temp\gh_0000b0k1.s
00000129 9f             5180 	.byte	159
0000012a 03             5181 	.byte	3
0000012b 40             5182 	.byte	64
0000012c 9d             5183 	.byte	157
0000012d 07             5184 	.byte	7
0000012e 40             5185 	.byte	64
0000012f 9c             5186 	.byte	156
00000130 0b             5187 	.byte	11
00000131 40             5188 	.byte	64
00000132 9b             5189 	.byte	155
00000133 0f             5190 	.byte	15
00000134 40             5191 	.byte	64
00000135 9a             5192 	.byte	154
00000136 13             5193 	.byte	19
00000137 40             5194 	.byte	64
00000138 99             5195 	.byte	153
00000139 17             5196 	.byte	23
0000013a 40             5197 	.byte	64
0000013b 98             5198 	.byte	152
0000013c 1b             5199 	.byte	27
0000013d 01             5200 	.byte	1
0000013e 00000000*      5201 	.word	.LDW13
00000142 00             5202 	.byte	0
00000143 00             5203 	.byte	0
                        5204 .LDW_unq_e:
                        5205 	.section	.debug_line
00000c27 000502         5206 	.byte	0,5,2
00000c2a 00000000*      5207 	.word	_RdcSt_ProcessStandstillTelegram
00000c2e 03             5208 	.byte	3
00000c2f 8a01           5209 	.byte	138,1
00000c31 02             5210 	.byte	2
00000c32 00             5211 	.byte	0
00000c33 01             5212 	.byte	1
00000c34 06             5213 	.byte	6
00000c35 25             5214 	.byte	37
00000c36 000502         5215 	.byte	0,5,2
00000c39 00000000*      5216 	.word	.LDWlin37
00000c3d 0b             5217 	.byte	11
00000c3e 0c             5218 	.byte	12
00000c3f 64             5219 	.byte	100
00000c40 02             5220 	.byte	2
00000c41 02             5221 	.byte	2
00000c42 000502         5222 	.byte	0,5,2
00000c45 00000000*      5223 	.word	.LDWlin38
00000c49 0d             5224 	.byte	13
00000c4a 000502         5225 	.byte	0,5,2
00000c4d 00000000*      5226 	.word	.LDWlin39
00000c51 0b             5227 	.byte	11
00000c52 0c             5228 	.byte	12
00000c53 000502         5229 	.byte	0,5,2
00000c56 00000000*      5230 	.word	.LDWlin40
00000c5a 0c             5231 	.byte	12
00000c5b 000502         5232 	.byte	0,5,2
00000c5e 00000000*      5233 	.word	.LDWlin41
00000c62 0b             5234 	.byte	11
00000c63 0b             5235 	.byte	11
00000c64 1b             5236 	.byte	27
00000c65 0b             5237 	.byte	11
00000c66 0c             5238 	.byte	12
00000c67 02             5239 	.byte	2
00000c68 00             5240 	.byte	0

                                                                      Page 105
                                                              C:\Users\nhuliyap\AppData\Local\Temp\gh_0000b0k1.s
00000c69 0c             5241 	.byte	12
00000c6a 1d             5242 	.byte	29
00000c6b 03             5243 	.byte	3
00000c6c 7e             5244 	.byte	126
00000c6d 02             5245 	.byte	2
00000c6e 06             5246 	.byte	6
00000c6f 01             5247 	.byte	1
00000c70 000502         5248 	.byte	0,5,2
00000c73 00000000*      5249 	.word	.LDWlin42
00000c77 0d             5250 	.byte	13
00000c78 0b             5251 	.byte	11
00000c79 000502         5252 	.byte	0,5,2
00000c7c 00000000*      5253 	.word	.LDWlin43
00000c80 0b             5254 	.byte	11
00000c81 02             5255 	.byte	2
00000c82 00             5256 	.byte	0
00000c83 0c             5257 	.byte	12
00000c84 4b             5258 	.byte	75
00000c85 000502         5259 	.byte	0,5,2
00000c88 00000000*      5260 	.word	.LDWlin44
00000c8c 03             5261 	.byte	3
00000c8d 06             5262 	.byte	6
00000c8e 02             5263 	.byte	2
00000c8f 00             5264 	.byte	0
00000c90 01             5265 	.byte	1
00000c91 000502         5266 	.byte	0,5,2
00000c94 00000000*      5267 	.word	.LDWlin45
00000c98 0c             5268 	.byte	12
00000c99 000502         5269 	.byte	0,5,2
00000c9c 00000000*      5270 	.word	.LDWlin46
00000ca0 0b             5271 	.byte	11
00000ca1 0b             5272 	.byte	11
00000ca2 000502         5273 	.byte	0,5,2
00000ca5 00000000*      5274 	.word	.LDWlin47
00000ca9 0b             5275 	.byte	11
00000caa 0b             5276 	.byte	11
00000cab 0c             5277 	.byte	12
00000cac 02             5278 	.byte	2
00000cad 00             5279 	.byte	0
00000cae 0c             5280 	.byte	12
00000caf 000502         5281 	.byte	0,5,2
00000cb2 00000000*      5282 	.word	.LDWlin48
00000cb6 0b             5283 	.byte	11
00000cb7 000502         5284 	.byte	0,5,2
00000cba 00000000*      5285 	.word	.LDWlin49
00000cbe 0b             5286 	.byte	11
00000cbf 000502         5287 	.byte	0,5,2
00000cc2 00000000*      5288 	.word	.LDWlin50
00000cc6 0b             5289 	.byte	11
00000cc7 0b             5290 	.byte	11
00000cc8 0c             5291 	.byte	12
00000cc9 02             5292 	.byte	2
00000cca 00             5293 	.byte	0
00000ccb 03             5294 	.byte	3
00000ccc 51             5295 	.byte	81
00000ccd 02             5296 	.byte	2
00000cce 00             5297 	.byte	0
00000ccf 01             5298 	.byte	1
00000cd0 000502         5299 	.byte	0,5,2
00000cd3 00000000*      5300 	.word	.LDWlin51
00000cd7 03             5301 	.byte	3

                                                                      Page 106
                                                              C:\Users\nhuliyap\AppData\Local\Temp\gh_0000b0k1.s
00000cd8 30             5302 	.byte	48
00000cd9 02             5303 	.byte	2
00000cda 00             5304 	.byte	0
00000cdb 01             5305 	.byte	1
00000cdc 0b             5306 	.byte	11
00000cdd 0b             5307 	.byte	11
00000cde 0c             5308 	.byte	12
00000cdf 02             5309 	.byte	2
00000ce0 00             5310 	.byte	0
00000ce1 0b             5311 	.byte	11
00000ce2 02             5312 	.byte	2
00000ce3 04             5313 	.byte	4
00000ce4 000101         5314 	.byte	0,1,1
                        5315 	.section	.debug_info
                        5316 .LDW_4d594a0:
000010ab 0f             5317 	.byte	15
000010ac 5055385f5465   5318 	.strz	"PU8_TelegramData"
000010b2 6c656772616d 
000010b8 4461746100 
000010bd 8a01           5319 	.byte	138,1
000010bf 34             5320 	.byte	52
000010c0 01             5321 	.byte	1
000010c1 00000000*      5322 	.word	.LDW_48374a8
000010c5 00             5323 	.byte	0
000010c6 016b           5324 	.byte	1,107
                        5325 
                        5326 	.section	.debug_abbrev
00000171 0f             5327 	.byte	15
00000172 05             5328 	.byte	5
00000173 00             5329 	.byte	0
00000174 0308           5330 	.byte	3,8
00000176 3b0f           5331 	.byte	59,15
00000178 390f           5332 	.byte	57,15
0000017a 3a0f           5333 	.byte	58,15
0000017c 4910           5334 	.byte	73,16
0000017e 4b0c           5335 	.byte	75,12
00000180 020a           5336 	.byte	2,10
00000182 0000           5337 	.byte	0,0
                        5338 
                        5339 	.section	.debug_info
                        5340 .LDW_4d5a458:
000010c8 1d             5341 	.byte	29
000010c9 00000000*      5342 	.word	.LDW62
000010cd 00000000*      5343 	.word	.LDW13
                        5344 
                        5345 .LDW_4d59658:
000010d1 05             5346 	.byte	5
000010d2 55385f506163   5347 	.strz	"U8_PackageId"
000010d8 6b6167654964 
000010de 00 
000010df 8c01           5348 	.byte	140,1
000010e1 09             5349 	.byte	9
000010e2 01             5350 	.byte	1
000010e3 00000000*      5351 	.word	.LDW_484bd60
000010e7 00             5352 	.byte	0
000010e8 00             5353 	.byte	0
                        5354 
                        5355 	.section	.debug_abbrev
00000184 05             5356 	.byte	5
00000185 34             5357 	.byte	52
00000186 00             5358 	.byte	0

                                                                      Page 107
                                                              C:\Users\nhuliyap\AppData\Local\Temp\gh_0000b0k1.s
00000187 0308           5359 	.byte	3,8
00000189 3b0f           5360 	.byte	59,15
0000018b 390f           5361 	.byte	57,15
0000018d 3a0f           5362 	.byte	58,15
0000018f 4910           5363 	.byte	73,16
00000191 3f0c           5364 	.byte	63,12
00000193 3c0c           5365 	.byte	60,12
00000195 0000           5366 	.byte	0,0
                        5367 
                        5368 	.section	.debug_info
                        5369 .LDW_4d5a488:
000010e9 1d             5370 	.byte	29
000010ea 00000000*      5371 	.word	.LDW72
000010ee 00000000*      5372 	.word	.LDW03
                        5373 
                        5374 .LDW_4d59340:
000010f2 04             5375 	.byte	4
000010f3 55385f436f75   5376 	.strz	"U8_Counter"
000010f9 6e74657200 
000010fe 9001           5377 	.byte	144,1
00001100 0a             5378 	.byte	10
00001101 01             5379 	.byte	1
00001102 00000000*      5380 	.word	.LDW_484bd60
00001106 00             5381 	.byte	0
00001107 00             5382 	.byte	0
00001108 016c           5383 	.byte	1,108
                        5384 
                        5385 .LDW_4d59398:
0000110a 04             5386 	.byte	4
0000110b 5533325f5773   5387 	.strz	"U32_WsId"
00001111 496400 
00001114 9101           5388 	.byte	145,1
00001116 0b             5389 	.byte	11
00001117 01             5390 	.byte	1
00001118 00000000*      5391 	.word	.LDW_4d3a4c8
0000111c 00             5392 	.byte	0
0000111d 00             5393 	.byte	0
0000111e 016a           5394 	.byte	1,106
                        5395 
                        5396 .LDW_4d5a4e8:
00001120 1d             5397 	.byte	29
00001121 00000000*      5398 	.word	.LDW82
00001125 00000000*      5399 	.word	.LDW92
                        5400 
                        5401 .LDW_4d596b0:
00001129 04             5402 	.byte	4
0000112a 5533325f4375   5403 	.strz	"U32_CurrentTimestamp"
00001130 7272656e7454 
00001136 696d65737461 
0000113c 6d7000 
0000113f 9801           5404 	.byte	152,1
00001141 10             5405 	.byte	16
00001142 01             5406 	.byte	1
00001143 00000000*      5407 	.word	.LDW_4d3a4c8
00001147 00             5408 	.byte	0
00001148 00             5409 	.byte	0
00001149 0273           5410 	.byte	2,115
0000114b 00             5411 	.byte	0
                        5412 
                        5413 .LDW_4d59448:
0000114c 04             5414 	.byte	4

                                                                      Page 108
                                                              C:\Users\nhuliyap\AppData\Local\Temp\gh_0000b0k1.s
0000114d 5533325f5469   5415 	.strz	"U32_TimerValue"
00001153 6d657256616c 
00001159 756500 
0000115c 9901           5416 	.byte	153,1
0000115e 10             5417 	.byte	16
0000115f 01             5418 	.byte	1
00001160 00000000*      5419 	.word	.LDW_4d3a4c8
00001164 00             5420 	.byte	0
00001165 00             5421 	.byte	0
00001166 0157           5422 	.byte	1,87
                        5423 
00001168 00             5424 	.byte	0
                        5425 
00001169 00             5426 	.byte	0
                        5427 
0000116a 00             5428 	.byte	0
                        5429 
0000116b 00             5430 	.byte	0
                        5431 
                        5432 .LDW_4ddb810:
0000116c 13             5433 	.byte	19
0000116d 52646353745f   5434 	.strz	"RdcSt_MainFunction"
00001173 4d61696e4675 
00001179 6e6374696f6e 
0000117f 00 
00001180 ca01           5435 	.byte	202,1
00001182 0d             5436 	.byte	13
00001183 01             5437 	.byte	1
00001184 00000000*      5438 	.word	_RdcSt_MainFunction
00001188 00000000*      5439 	.word	___ghs_eofn_RdcSt_MainFunction
0000118c 0153           5440 	.byte	1,83
0000118e 828080800a     5441 	.byte	130,128,128,128,10
00001193 08             5442 	.byte	8
00001194 03             5443 	.byte	3
00001195 08             5444 	.byte	8
00001196 00             5445 	.byte	0
00001197 00             5446 	.byte	0
00001198 00             5447 	.byte	0
00001199 01             5448 	.byte	1
0000119a 01             5449 	.byte	1
0000119b 00             5450 	.byte	0
0000119c 01             5451 	.byte	1
                        5452 
                        5453 	.section	.debug_frame
                        5454 .LDW_4edbb18:
00000144 00000000*      5455 	.word	.LDW_unq_10-.LDW_unq_f
                        5456 .LDW_unq_f:
00000148 00000000*      5457 	.word	.LDW_4d87930
0000014c 00000000*      5458 	.word	_RdcSt_MainFunction
00000150 00000000*      5459 	.word	___ghs_eofn_RdcSt_MainFunction-_RdcSt_MainFunction
00000154 44             5460 	.byte	68
00000155 9f             5461 	.byte	159
00000156 00             5462 	.byte	0
00000157 40             5463 	.byte	64
00000158 9d             5464 	.byte	157
00000159 04             5465 	.byte	4
0000015a 01             5466 	.byte	1
0000015b 00000000*      5467 	.word	.LDW35
0000015f 00             5468 	.byte	0
                        5469 .LDW_unq_10:
                        5470 	.section	.debug_line

                                                                      Page 109
                                                              C:\Users\nhuliyap\AppData\Local\Temp\gh_0000b0k1.s
00000ce7 000502         5471 	.byte	0,5,2
00000cea 00000000*      5472 	.word	_RdcSt_MainFunction
00000cee 03             5473 	.byte	3
00000cef c901           5474 	.byte	201,1
00000cf1 02             5475 	.byte	2
00000cf2 00             5476 	.byte	0
00000cf3 01             5477 	.byte	1
00000cf4 06             5478 	.byte	6
00000cf5 000502         5479 	.byte	0,5,2
00000cf8 00000000*      5480 	.word	.LDWlin134
00000cfc 0c             5481 	.byte	12
00000cfd 000502         5482 	.byte	0,5,2
00000d00 00000000*      5483 	.word	.LDWlin135
00000d04 0b             5484 	.byte	11
00000d05 0b             5485 	.byte	11
00000d06 000502         5486 	.byte	0,5,2
00000d09 00000000*      5487 	.word	.LDWlin136
00000d0d 0c             5488 	.byte	12
00000d0e 000502         5489 	.byte	0,5,2
00000d11 00000000*      5490 	.word	.LDWlin137
00000d15 0b             5491 	.byte	11
00000d16 0b             5492 	.byte	11
00000d17 000502         5493 	.byte	0,5,2
00000d1a 00000000*      5494 	.word	.LDWlin138
00000d1e 0b             5495 	.byte	11
00000d1f 0c             5496 	.byte	12
00000d20 000502         5497 	.byte	0,5,2
00000d23 00000000*      5498 	.word	.LDWlin139
00000d27 0b             5499 	.byte	11
00000d28 000502         5500 	.byte	0,5,2
00000d2b 00000000*      5501 	.word	.LDWlin140
00000d2f 0b             5502 	.byte	11
00000d30 000502         5503 	.byte	0,5,2
00000d33 00000000*      5504 	.word	.LDWlin141
00000d37 0b             5505 	.byte	11
00000d38 000502         5506 	.byte	0,5,2
00000d3b 00000000*      5507 	.word	.LDWlin142
00000d3f 0b             5508 	.byte	11
00000d40 0b             5509 	.byte	11
00000d41 02             5510 	.byte	2
00000d42 00             5511 	.byte	0
00000d43 000502         5512 	.byte	0,5,2
00000d46 00000000*      5513 	.word	.LDWlin143
00000d4a 0b             5514 	.byte	11
00000d4b 0b             5515 	.byte	11
00000d4c 000502         5516 	.byte	0,5,2
00000d4f 00000000*      5517 	.word	.LDWlin144
00000d53 0b             5518 	.byte	11
00000d54 000502         5519 	.byte	0,5,2
00000d57 00000000*      5520 	.word	.LDWlin145
00000d5b 0b             5521 	.byte	11
00000d5c 000502         5522 	.byte	0,5,2
00000d5f 00000000*      5523 	.word	.LDWlin146
00000d63 0b             5524 	.byte	11
00000d64 0b             5525 	.byte	11
00000d65 0c             5526 	.byte	12
00000d66 02             5527 	.byte	2
00000d67 00             5528 	.byte	0
00000d68 02             5529 	.byte	2
00000d69 00             5530 	.byte	0
00000d6a 02             5531 	.byte	2

                                                                      Page 110
                                                              C:\Users\nhuliyap\AppData\Local\Temp\gh_0000b0k1.s
00000d6b 00             5532 	.byte	0
00000d6c 0b             5533 	.byte	11
00000d6d 0b             5534 	.byte	11
00000d6e 0c             5535 	.byte	12
00000d6f 000502         5536 	.byte	0,5,2
00000d72 00000000*      5537 	.word	.LDWlin147
00000d76 0b             5538 	.byte	11
00000d77 02             5539 	.byte	2
00000d78 00             5540 	.byte	0
00000d79 0b             5541 	.byte	11
00000d7a 0b             5542 	.byte	11
00000d7b 0c             5543 	.byte	12
00000d7c 02             5544 	.byte	2
00000d7d 00             5545 	.byte	0
00000d7e 0b             5546 	.byte	11
00000d7f 02             5547 	.byte	2
00000d80 04             5548 	.byte	4
00000d81 000101         5549 	.byte	0,1,1
                        5550 	.section	.debug_info
                        5551 .LDW_4d5aae8:
0000119d 1d             5552 	.byte	29
0000119e 00000000*      5553 	.word	.LDW25
000011a2 00000000*      5554 	.word	.LDW35
                        5555 
000011a6 00             5556 	.byte	0
                        5557 
000011a7 00             5558 	.byte	0
                        5559 
                        5560 .LDW_4ddba70:
000011a8 13             5561 	.byte	19
000011a9 52646353745f   5562 	.strz	"RdcSt_ForwardStandstillDataToTms"
000011af 466f72776172 
000011b5 645374616e64 
000011bb 7374696c6c44 
000011c1 617461546f54 
000011c7 6d7300 
000011ca ee01           5563 	.byte	238,1
000011cc 0d             5564 	.byte	13
000011cd 01             5565 	.byte	1
000011ce 00000000*      5566 	.word	_RdcSt_ForwardStandstillDataToTms
000011d2 00000000*      5567 	.word	___ghs_eofn_RdcSt_ForwardStandstillDataToTms
000011d6 0153           5568 	.byte	1,83
000011d8 828080800b     5569 	.byte	130,128,128,128,11
000011dd 0c             5570 	.byte	12
000011de 03             5571 	.byte	3
000011df 24             5572 	.byte	36
000011e0 00             5573 	.byte	0
000011e1 00             5574 	.byte	0
000011e2 00             5575 	.byte	0
000011e3 01             5576 	.byte	1
000011e4 01             5577 	.byte	1
000011e5 00             5578 	.byte	0
000011e6 01             5579 	.byte	1
                        5580 
                        5581 	.section	.debug_frame
                        5582 .LDW_4edb7d8:
00000160 00000000*      5583 	.word	.LDW_unq_12-.LDW_unq_11
                        5584 .LDW_unq_11:
00000164 00000000*      5585 	.word	.LDW_4d87930
00000168 00000000*      5586 	.word	_RdcSt_ForwardStandstillDataToTms
0000016c 00000000*      5587 	.word	___ghs_eofn_RdcSt_ForwardStandstillDataToTms-_RdcSt_ForwardStandstillDataToTms

                                                                      Page 111
                                                              C:\Users\nhuliyap\AppData\Local\Temp\gh_0000b0k1.s
00000170 44             5588 	.byte	68
00000171 9f             5589 	.byte	159
00000172 12             5590 	.byte	18
00000173 40             5591 	.byte	64
00000174 9d             5592 	.byte	157
00000175 16             5593 	.byte	22
00000176 40             5594 	.byte	64
00000177 9c             5595 	.byte	156
00000178 1a             5596 	.byte	26
00000179 01             5597 	.byte	1
0000017a 00000000*      5598 	.word	.LDW95
0000017e 00             5599 	.byte	0
0000017f 00             5600 	.byte	0
                        5601 .LDW_unq_12:
                        5602 	.section	.debug_line
00000d84 000502         5603 	.byte	0,5,2
00000d87 00000000*      5604 	.word	_RdcSt_ForwardStandstillDataToTms
00000d8b 03             5605 	.byte	3
00000d8c ed01           5606 	.byte	237,1
00000d8e 02             5607 	.byte	2
00000d8f 00             5608 	.byte	0
00000d90 01             5609 	.byte	1
00000d91 06             5610 	.byte	6
00000d92 1d             5611 	.byte	29
00000d93 000502         5612 	.byte	0,5,2
00000d96 00000000*      5613 	.word	.LDWlin158
00000d9a 0c             5614 	.byte	12
00000d9b 000502         5615 	.byte	0,5,2
00000d9e 00000000*      5616 	.word	.LDWlin159
00000da2 0c             5617 	.byte	12
00000da3 2c             5618 	.byte	44
00000da4 000502         5619 	.byte	0,5,2
00000da7 00000000*      5620 	.word	.LDWlin160
00000dab 0b             5621 	.byte	11
00000dac 0b             5622 	.byte	11
00000dad 000502         5623 	.byte	0,5,2
00000db0 00000000*      5624 	.word	.LDWlin161
00000db4 0b             5625 	.byte	11
00000db5 000502         5626 	.byte	0,5,2
00000db8 00000000*      5627 	.word	.LDWlin162
00000dbc 0b             5628 	.byte	11
00000dbd 0b             5629 	.byte	11
00000dbe 0b             5630 	.byte	11
00000dbf 000502         5631 	.byte	0,5,2
00000dc2 00000000*      5632 	.word	.LDWlin163
00000dc6 0b             5633 	.byte	11
00000dc7 02             5634 	.byte	2
00000dc8 00             5635 	.byte	0
00000dc9 0c             5636 	.byte	12
00000dca 02             5637 	.byte	2
00000dcb 02             5638 	.byte	2
00000dcc 0c             5639 	.byte	12
00000dcd 000502         5640 	.byte	0,5,2
00000dd0 00000000*      5641 	.word	.LDWlin164
00000dd4 03             5642 	.byte	3
00000dd5 05             5643 	.byte	5
00000dd6 02             5644 	.byte	2
00000dd7 00             5645 	.byte	0
00000dd8 01             5646 	.byte	1
00000dd9 03             5647 	.byte	3
00000dda 7f             5648 	.byte	127

                                                                      Page 112
                                                              C:\Users\nhuliyap\AppData\Local\Temp\gh_0000b0k1.s
00000ddb 02             5649 	.byte	2
00000ddc 02             5650 	.byte	2
00000ddd 01             5651 	.byte	1
00000dde 3c             5652 	.byte	60
00000ddf 13             5653 	.byte	19
00000de0 03             5654 	.byte	3
00000de1 7a             5655 	.byte	122
00000de2 02             5656 	.byte	2
00000de3 0a             5657 	.byte	10
00000de4 01             5658 	.byte	1
00000de5 0b             5659 	.byte	11
00000de6 13             5660 	.byte	19
00000de7 03             5661 	.byte	3
00000de8 05             5662 	.byte	5
00000de9 02             5663 	.byte	2
00000dea 08             5664 	.byte	8
00000deb 01             5665 	.byte	1
00000dec 13             5666 	.byte	19
00000ded 3b             5667 	.byte	59
00000dee 1b             5668 	.byte	27
00000def 14             5669 	.byte	20
00000df0 000502         5670 	.byte	0,5,2
00000df3 00000000*      5671 	.word	.LDWlin165
00000df7 0b             5672 	.byte	11
00000df8 02             5673 	.byte	2
00000df9 00             5674 	.byte	0
00000dfa 03             5675 	.byte	3
00000dfb 70             5676 	.byte	112
00000dfc 02             5677 	.byte	2
00000dfd 00             5678 	.byte	0
00000dfe 01             5679 	.byte	1
00000dff 000502         5680 	.byte	0,5,2
00000e02 00000000*      5681 	.word	.LDWlin166
00000e06 03             5682 	.byte	3
00000e07 11             5683 	.byte	17
00000e08 02             5684 	.byte	2
00000e09 00             5685 	.byte	0
00000e0a 01             5686 	.byte	1
00000e0b 0b             5687 	.byte	11
00000e0c 02             5688 	.byte	2
00000e0d 04             5689 	.byte	4
00000e0e 000101         5690 	.byte	0,1,1
                        5691 	.section	.debug_info
                        5692 .LDW_4d5a608:
000011e7 1d             5693 	.byte	29
000011e8 00000000*      5694 	.word	.LDW85
000011ec 00000000*      5695 	.word	.LDW95
                        5696 
                        5697 .LDW_4d593f0:
000011f0 04             5698 	.byte	4
000011f1 55385f436f75   5699 	.strz	"U8_Counter"
000011f7 6e74657200 
000011fc ef01           5700 	.byte	239,1
000011fe 09             5701 	.byte	9
000011ff 01             5702 	.byte	1
00001200 00000000*      5703 	.word	.LDW_484bd60
00001204 00             5704 	.byte	0
00001205 00             5705 	.byte	0
00001206 016d           5706 	.byte	1,109
                        5707 
                        5708 .LDW_4d59550:

                                                                      Page 113
                                                              C:\Users\nhuliyap\AppData\Local\Temp\gh_0000b0k1.s
00001208 04             5709 	.byte	4
00001209 535f52784461   5710 	.strz	"S_RxData"
0000120f 746100 
00001212 f001           5711 	.byte	240,1
00001214 11             5712 	.byte	17
00001215 01             5713 	.byte	1
00001216 00000000*      5714 	.word	.LDW_4d59238
0000121a 00             5715 	.byte	0
0000121b 00             5716 	.byte	0
0000121c 0273           5717 	.byte	2,115
0000121e 00             5718 	.byte	0
                        5719 
                        5720 .LDW_4d59290:
0000121f 04             5721 	.byte	4
00001220 50535f456e76   5722 	.strz	"PS_EnvData"
00001226 4461746100 
0000122b f101           5723 	.byte	241,1
0000122d 0f             5724 	.byte	15
0000122e 01             5725 	.byte	1
0000122f 00000000*      5726 	.word	.LDW_4d59c48
00001233 00             5727 	.byte	0
00001234 00             5728 	.byte	0
00001235 016c           5729 	.byte	1,108
                        5730 
00001237 00             5731 	.byte	0
                        5732 
00001238 00             5733 	.byte	0
                        5734 
                        5735 .LDW_4ddbb08:
00001239 13             5736 	.byte	19
0000123a 52646353745f   5737 	.strz	"RdcSt_StartMonitoringSpecificWS"
00001240 53746172744d 
00001246 6f6e69746f72 
0000124c 696e67537065 
00001252 636966696357 
00001258 5300 
0000125a 9402           5738 	.byte	148,2
0000125c 0d             5739 	.byte	13
0000125d 01             5740 	.byte	1
0000125e 00000000*      5741 	.word	_RdcSt_StartMonitoringSpecificWS
00001262 00000000*      5742 	.word	___ghs_eofn_RdcSt_StartMonitoringSpecificWS
00001266 0153           5743 	.byte	1,83
00001268 828080800b     5744 	.byte	130,128,128,128,11
0000126d 0c             5745 	.byte	12
0000126e 03             5746 	.byte	3
0000126f 0c             5747 	.byte	12
00001270 00             5748 	.byte	0
00001271 00             5749 	.byte	0
00001272 00             5750 	.byte	0
00001273 01             5751 	.byte	1
00001274 01             5752 	.byte	1
00001275 00             5753 	.byte	0
00001276 01             5754 	.byte	1
                        5755 
                        5756 	.section	.debug_frame
                        5757 .LDW_4edb4d8:
00000180 00000000*      5758 	.word	.LDW_unq_14-.LDW_unq_13
                        5759 .LDW_unq_13:
00000184 00000000*      5760 	.word	.LDW_4d87930
00000188 00000000*      5761 	.word	_RdcSt_StartMonitoringSpecificWS
0000018c 00000000*      5762 	.word	___ghs_eofn_RdcSt_StartMonitoringSpecificWS-_RdcSt_StartMonitoringSpecificWS

                                                                      Page 114
                                                              C:\Users\nhuliyap\AppData\Local\Temp\gh_0000b0k1.s
00000190 48             5763 	.byte	72
00000191 9f             5764 	.byte	159
00000192 00             5765 	.byte	0
00000193 40             5766 	.byte	64
00000194 9d             5767 	.byte	157
00000195 04             5768 	.byte	4
00000196 40             5769 	.byte	64
00000197 9c             5770 	.byte	156
00000198 08             5771 	.byte	8
00000199 01             5772 	.byte	1
0000019a 00000000*      5773 	.word	.LDW16
0000019e 00             5774 	.byte	0
0000019f 00             5775 	.byte	0
                        5776 .LDW_unq_14:
                        5777 	.section	.debug_line
00000e11 000502         5778 	.byte	0,5,2
00000e14 00000000*      5779 	.word	_RdcSt_StartMonitoringSpecificWS
00000e18 03             5780 	.byte	3
00000e19 9402           5781 	.byte	148,2
00000e1b 02             5782 	.byte	2
00000e1c 00             5783 	.byte	0
00000e1d 01             5784 	.byte	1
00000e1e 06             5785 	.byte	6
00000e1f 35             5786 	.byte	53
00000e20 03             5787 	.byte	3
00000e21 7e             5788 	.byte	126
00000e22 02             5789 	.byte	2
00000e23 02             5790 	.byte	2
00000e24 01             5791 	.byte	1
00000e25 03             5792 	.byte	3
00000e26 04             5793 	.byte	4
00000e27 02             5794 	.byte	2
00000e28 08             5795 	.byte	8
00000e29 01             5796 	.byte	1
00000e2a 000502         5797 	.byte	0,5,2
00000e2d 00000000*      5798 	.word	.LDWlin167
00000e31 0c             5799 	.byte	12
00000e32 000502         5800 	.byte	0,5,2
00000e35 00000000*      5801 	.word	.LDWlin168
00000e39 0b             5802 	.byte	11
00000e3a 0b             5803 	.byte	11
00000e3b 000502         5804 	.byte	0,5,2
00000e3e 00000000*      5805 	.word	.LDWlin169
00000e42 0b             5806 	.byte	11
00000e43 02             5807 	.byte	2
00000e44 00             5808 	.byte	0
00000e45 03             5809 	.byte	3
00000e46 05             5810 	.byte	5
00000e47 02             5811 	.byte	2
00000e48 00             5812 	.byte	0
00000e49 01             5813 	.byte	1
00000e4a 02             5814 	.byte	2
00000e4b 04             5815 	.byte	4
00000e4c 000101         5816 	.byte	0,1,1
                        5817 	.section	.debug_info
                        5818 .LDW_4d592e8:
00001277 0f             5819 	.byte	15
00001278 55385f57734e   5820 	.strz	"U8_WsNumber"
0000127e 756d62657200 
00001284 9402           5821 	.byte	148,2
00001286 33             5822 	.byte	51

                                                                      Page 115
                                                              C:\Users\nhuliyap\AppData\Local\Temp\gh_0000b0k1.s
00001287 01             5823 	.byte	1
00001288 00000000*      5824 	.word	.LDW_484bd60
0000128c 00             5825 	.byte	0
0000128d 016c           5826 	.byte	1,108
                        5827 
                        5828 .LDW_4d5aab8:
0000128f 1d             5829 	.byte	29
00001290 00000000*      5830 	.word	.LDW06
00001294 00000000*      5831 	.word	.LDW16
                        5832 
                        5833 .LDW_4cc3f90:
00001298 04             5834 	.byte	4
00001299 55385f4d6173   5835 	.strz	"U8_MaskForSpecificWS"
0000129f 6b466f725370 
000012a5 656369666963 
000012ab 575300 
000012ae 9602           5836 	.byte	150,2
000012b0 09             5837 	.byte	9
000012b1 01             5838 	.byte	1
000012b2 00000000*      5839 	.word	.LDW_484bd60
000012b6 00             5840 	.byte	0
000012b7 00             5841 	.byte	0
000012b8 016d           5842 	.byte	1,109
                        5843 
000012ba 00             5844 	.byte	0
                        5845 
000012bb 00             5846 	.byte	0
                        5847 
                        5848 .LDW_4ddb940:
000012bc 13             5849 	.byte	19
000012bd 52646353745f   5850 	.strz	"RdcSt_ReadPressureOnKeyConfig"
000012c3 526561645072 
000012c9 657373757265 
000012cf 4f6e4b657943 
000012d5 6f6e66696700 
000012db a602           5851 	.byte	166,2
000012dd 0d             5852 	.byte	13
000012de 01             5853 	.byte	1
000012df 00000000*      5854 	.word	_RdcSt_ReadPressureOnKeyConfig
000012e3 00000000*      5855 	.word	___ghs_eofn_RdcSt_ReadPressureOnKeyConfig
000012e7 0153           5856 	.byte	1,83
000012e9 828080800a     5857 	.byte	130,128,128,128,10
000012ee 08             5858 	.byte	8
000012ef 03             5859 	.byte	3
000012f0 08             5860 	.byte	8
000012f1 00             5861 	.byte	0
000012f2 00             5862 	.byte	0
000012f3 00             5863 	.byte	0
000012f4 01             5864 	.byte	1
000012f5 01             5865 	.byte	1
000012f6 00             5866 	.byte	0
000012f7 01             5867 	.byte	1
                        5868 
                        5869 	.section	.debug_frame
                        5870 .LDW_4edb5d8:
000001a0 00000000*      5871 	.word	.LDW_unq_16-.LDW_unq_15
                        5872 .LDW_unq_15:
000001a4 00000000*      5873 	.word	.LDW_4d87930
000001a8 00000000*      5874 	.word	_RdcSt_ReadPressureOnKeyConfig
000001ac 00000000*      5875 	.word	___ghs_eofn_RdcSt_ReadPressureOnKeyConfig-_RdcSt_ReadPressureOnKeyConfig
000001b0 44             5876 	.byte	68

                                                                      Page 116
                                                              C:\Users\nhuliyap\AppData\Local\Temp\gh_0000b0k1.s
000001b1 9f             5877 	.byte	159
000001b2 00             5878 	.byte	0
000001b3 40             5879 	.byte	64
000001b4 9d             5880 	.byte	157
000001b5 04             5881 	.byte	4
000001b6 01             5882 	.byte	1
000001b7 00000000*      5883 	.word	.LDW36
000001bb 44             5884 	.byte	68
000001bc df             5885 	.byte	223
000001bd 40             5886 	.byte	64
000001be dd             5887 	.byte	221
000001bf 00             5888 	.byte	0
                        5889 .LDW_unq_16:
                        5890 	.section	.debug_line
00000e4f 000502         5891 	.byte	0,5,2
00000e52 00000000*      5892 	.word	_RdcSt_ReadPressureOnKeyConfig
00000e56 03             5893 	.byte	3
00000e57 a602           5894 	.byte	166,2
00000e59 02             5895 	.byte	2
00000e5a 00             5896 	.byte	0
00000e5b 01             5897 	.byte	1
00000e5c 06             5898 	.byte	6
00000e5d 23             5899 	.byte	35
00000e5e 000502         5900 	.byte	0,5,2
00000e61 00000000*      5901 	.word	.LDWlin170
00000e65 0b             5902 	.byte	11
00000e66 000502         5903 	.byte	0,5,2
00000e69 00000000*      5904 	.word	.LDWlin171
00000e6d 0b             5905 	.byte	11
00000e6e 000502         5906 	.byte	0,5,2
00000e71 00000000*      5907 	.word	.LDWlin172
00000e75 0b             5908 	.byte	11
00000e76 000502         5909 	.byte	0,5,2
00000e79 00000000*      5910 	.word	.LDWlin173
00000e7d 0b             5911 	.byte	11
00000e7e 000502         5912 	.byte	0,5,2
00000e81 00000000*      5913 	.word	.LDWlin174
00000e85 0b             5914 	.byte	11
00000e86 02             5915 	.byte	2
00000e87 04             5916 	.byte	4
00000e88 000101         5917 	.byte	0,1,1
                        5918 	.section	.debug_info
                        5919 .LDW_4cc3e30:
000012f8 0f             5920 	.byte	15
000012f9 5055385f4461   5921 	.strz	"PU8_Data"
000012ff 746100 
00001302 a602           5922 	.byte	166,2
00001304 32             5923 	.byte	50
00001305 01             5924 	.byte	1
00001306 00000000*      5925 	.word	.LDW_48374a8
0000130a 00             5926 	.byte	0
0000130b 016d           5927 	.byte	1,109
                        5928 
                        5929 .LDW_4d5a8d8:
0000130d 1d             5930 	.byte	29
0000130e 00000000*      5931 	.word	.LDW26
00001312 00000000*      5932 	.word	.LDW36
                        5933 
00001316 00             5934 	.byte	0
                        5935 
00001317 00             5936 	.byte	0

                                                                      Page 117
                                                              C:\Users\nhuliyap\AppData\Local\Temp\gh_0000b0k1.s
                        5937 
                        5938 .LDW_4ddbba0:
00001318 13             5939 	.byte	19
00001319 52646353745f   5940 	.strz	"RdcSt_WritePressureOnKeyConfig"
0000131f 577269746550 
00001325 726573737572 
0000132b 654f6e4b6579 
00001331 436f6e666967 
00001337 00 
00001338 af02           5941 	.byte	175,2
0000133a 0d             5942 	.byte	13
0000133b 01             5943 	.byte	1
0000133c 00000000*      5944 	.word	_RdcSt_WritePressureOnKeyConfig
00001340 00000000*      5945 	.word	___ghs_eofn_RdcSt_WritePressureOnKeyConfig
00001344 0153           5946 	.byte	1,83
00001346 828080800a     5947 	.byte	130,128,128,128,10
0000134b 08             5948 	.byte	8
0000134c 03             5949 	.byte	3
0000134d 08             5950 	.byte	8
0000134e 00             5951 	.byte	0
0000134f 00             5952 	.byte	0
00001350 00             5953 	.byte	0
00001351 01             5954 	.byte	1
00001352 01             5955 	.byte	1
00001353 00             5956 	.byte	0
00001354 01             5957 	.byte	1
                        5958 
                        5959 	.section	.debug_frame
                        5960 .LDW_4edb9d8:
000001c0 00000000*      5961 	.word	.LDW_unq_18-.LDW_unq_17
                        5962 .LDW_unq_17:
000001c4 00000000*      5963 	.word	.LDW_4d87930
000001c8 00000000*      5964 	.word	_RdcSt_WritePressureOnKeyConfig
000001cc 00000000*      5965 	.word	___ghs_eofn_RdcSt_WritePressureOnKeyConfig-_RdcSt_WritePressureOnKeyConfig
000001d0 44             5966 	.byte	68
000001d1 9f             5967 	.byte	159
000001d2 00             5968 	.byte	0
000001d3 40             5969 	.byte	64
000001d4 9d             5970 	.byte	157
000001d5 04             5971 	.byte	4
000001d6 01             5972 	.byte	1
000001d7 00000000*      5973 	.word	.LDW56
000001db 44             5974 	.byte	68
000001dc df             5975 	.byte	223
000001dd 40             5976 	.byte	64
000001de dd             5977 	.byte	221
000001df 00             5978 	.byte	0
                        5979 .LDW_unq_18:
                        5980 	.section	.debug_line
00000e8b 000502         5981 	.byte	0,5,2
00000e8e 00000000*      5982 	.word	_RdcSt_WritePressureOnKeyConfig
00000e92 03             5983 	.byte	3
00000e93 af02           5984 	.byte	175,2
00000e95 02             5985 	.byte	2
00000e96 00             5986 	.byte	0
00000e97 01             5987 	.byte	1
00000e98 06             5988 	.byte	6
00000e99 23             5989 	.byte	35
00000e9a 000502         5990 	.byte	0,5,2
00000e9d 00000000*      5991 	.word	.LDWlin175
00000ea1 0b             5992 	.byte	11

                                                                      Page 118
                                                              C:\Users\nhuliyap\AppData\Local\Temp\gh_0000b0k1.s
00000ea2 000502         5993 	.byte	0,5,2
00000ea5 00000000*      5994 	.word	.LDWlin176
00000ea9 0b             5995 	.byte	11
00000eaa 000502         5996 	.byte	0,5,2
00000ead 00000000*      5997 	.word	.LDWlin177
00000eb1 0b             5998 	.byte	11
00000eb2 000502         5999 	.byte	0,5,2
00000eb5 00000000*      6000 	.word	.LDWlin178
00000eb9 0b             6001 	.byte	11
00000eba 000502         6002 	.byte	0,5,2
00000ebd 00000000*      6003 	.word	.LDWlin179
00000ec1 0c             6004 	.byte	12
00000ec2 000502         6005 	.byte	0,5,2
00000ec5 00000000*      6006 	.word	.LDWlin180
00000ec9 0c             6007 	.byte	12
00000eca 000502         6008 	.byte	0,5,2
00000ecd 00000000*      6009 	.word	.LDWlin181
00000ed1 0c             6010 	.byte	12
00000ed2 03             6011 	.byte	3
00000ed3 7f             6012 	.byte	127
00000ed4 02             6013 	.byte	2
00000ed5 04             6014 	.byte	4
00000ed6 01             6015 	.byte	1
00000ed7 000502         6016 	.byte	0,5,2
00000eda 00000000*      6017 	.word	.LDWlin182
00000ede 0c             6018 	.byte	12
00000edf 02             6019 	.byte	2
00000ee0 04             6020 	.byte	4
00000ee1 000101         6021 	.byte	0,1,1
                        6022 	.section	.debug_info
                        6023 .LDW_4cc3d80:
00001355 0f             6024 	.byte	15
00001356 5055385f4461   6025 	.strz	"PU8_Data"
0000135c 746100 
0000135f af02           6026 	.byte	175,2
00001361 39             6027 	.byte	57
00001362 01             6028 	.byte	1
00001363 00000000*      6029 	.word	.LDW_4d59a88
00001367 00             6030 	.byte	0
00001368 016d           6031 	.byte	1,109
                        6032 
                        6033 .LDW_4d5a7b8:
0000136a 1d             6034 	.byte	29
0000136b 00000000*      6035 	.word	.LDW46
0000136f 00000000*      6036 	.word	.LDW56
                        6037 
00001373 00             6038 	.byte	0
                        6039 
00001374 00             6040 	.byte	0
                        6041 
                        6042 .LDW_4ddb8a8:
00001375 13             6043 	.byte	19
00001376 52646353745f   6044 	.strz	"RdcSt_ReadPressureOnKeyStatus"
0000137c 526561645072 
00001382 657373757265 
00001388 4f6e4b657953 
0000138e 746174757300 
00001394 be02           6045 	.byte	190,2
00001396 0d             6046 	.byte	13
00001397 01             6047 	.byte	1
00001398 00000000*      6048 	.word	_RdcSt_ReadPressureOnKeyStatus

                                                                      Page 119
                                                              C:\Users\nhuliyap\AppData\Local\Temp\gh_0000b0k1.s
0000139c 00000000*      6049 	.word	___ghs_eofn_RdcSt_ReadPressureOnKeyStatus
000013a0 0153           6050 	.byte	1,83
000013a2 828080800a     6051 	.byte	130,128,128,128,10
000013a7 08             6052 	.byte	8
000013a8 03             6053 	.byte	3
000013a9 08             6054 	.byte	8
000013aa 00             6055 	.byte	0
000013ab 00             6056 	.byte	0
000013ac 00             6057 	.byte	0
000013ad 01             6058 	.byte	1
000013ae 01             6059 	.byte	1
000013af 00             6060 	.byte	0
000013b0 01             6061 	.byte	1
                        6062 
                        6063 	.section	.debug_frame
                        6064 .LDW_4f37b80:
000001e0 00000000*      6065 	.word	.LDW_unq_1a-.LDW_unq_19
                        6066 .LDW_unq_19:
000001e4 00000000*      6067 	.word	.LDW_4d87930
000001e8 00000000*      6068 	.word	_RdcSt_ReadPressureOnKeyStatus
000001ec 00000000*      6069 	.word	___ghs_eofn_RdcSt_ReadPressureOnKeyStatus-_RdcSt_ReadPressureOnKeyStatus
000001f0 44             6070 	.byte	68
000001f1 9f             6071 	.byte	159
000001f2 00             6072 	.byte	0
000001f3 40             6073 	.byte	64
000001f4 9d             6074 	.byte	157
000001f5 04             6075 	.byte	4
000001f6 01             6076 	.byte	1
000001f7 00000000*      6077 	.word	.LDW76
000001fb 44             6078 	.byte	68
000001fc df             6079 	.byte	223
000001fd 40             6080 	.byte	64
000001fe dd             6081 	.byte	221
000001ff 00             6082 	.byte	0
                        6083 .LDW_unq_1a:
                        6084 	.section	.debug_line
00000ee4 000502         6085 	.byte	0,5,2
00000ee7 00000000*      6086 	.word	_RdcSt_ReadPressureOnKeyStatus
00000eeb 03             6087 	.byte	3
00000eec be02           6088 	.byte	190,2
00000eee 02             6089 	.byte	2
00000eef 00             6090 	.byte	0
00000ef0 01             6091 	.byte	1
00000ef1 06             6092 	.byte	6
00000ef2 23             6093 	.byte	35
00000ef3 000502         6094 	.byte	0,5,2
00000ef6 00000000*      6095 	.word	.LDWlin183
00000efa 0b             6096 	.byte	11
00000efb 000502         6097 	.byte	0,5,2
00000efe 00000000*      6098 	.word	.LDWlin184
00000f02 0b             6099 	.byte	11
00000f03 000502         6100 	.byte	0,5,2
00000f06 00000000*      6101 	.word	.LDWlin185
00000f0a 0b             6102 	.byte	11
00000f0b 000502         6103 	.byte	0,5,2
00000f0e 00000000*      6104 	.word	.LDWlin186
00000f12 0b             6105 	.byte	11
00000f13 000502         6106 	.byte	0,5,2
00000f16 00000000*      6107 	.word	.LDWlin187
00000f1a 0b             6108 	.byte	11
00000f1b 000502         6109 	.byte	0,5,2

                                                                      Page 120
                                                              C:\Users\nhuliyap\AppData\Local\Temp\gh_0000b0k1.s
00000f1e 00000000*      6110 	.word	.LDWlin188
00000f22 0b             6111 	.byte	11
00000f23 02             6112 	.byte	2
00000f24 04             6113 	.byte	4
00000f25 000101         6114 	.byte	0,1,1
                        6115 	.section	.debug_info
                        6116 .LDW_4cc3b18:
000013b1 0f             6117 	.byte	15
000013b2 5055385f4461   6118 	.strz	"PU8_Data"
000013b8 746100 
000013bb be02           6119 	.byte	190,2
000013bd 32             6120 	.byte	50
000013be 01             6121 	.byte	1
000013bf 00000000*      6122 	.word	.LDW_48374a8
000013c3 00             6123 	.byte	0
000013c4 016d           6124 	.byte	1,109
                        6125 
                        6126 .LDW_4d5a698:
000013c6 1d             6127 	.byte	29
000013c7 00000000*      6128 	.word	.LDW66
000013cb 00000000*      6129 	.word	.LDW76
                        6130 
000013cf 00             6131 	.byte	0
                        6132 
000013d0 00             6133 	.byte	0
                        6134 
                        6135 .LDW_4ddbf30:
000013d1 13             6136 	.byte	19
000013d2 52646353745f   6137 	.strz	"RdcSt__UpdateSyncPeriod"
000013d8 5f5570646174 
000013de 6553796e6350 
000013e4 6572696f6400 
000013ea 8003           6138 	.byte	128,3
000013ec 0d             6139 	.byte	13
000013ed 01             6140 	.byte	1
000013ee 00000000*      6141 	.word	_RdcSt__UpdateSyncPeriod..C.3A.5C_ECU2.5CECU_Rivian_A1.5CTarget.5Crepo_projects.5CpRealEcu.5CcL_R2023.2E09.2E01.5Cmake.5Coutput.5Cobjects.5CRdcStandstill.
000013f2 00000000*      6142 	.word	___ghs_eofn_RdcSt__UpdateSyncPeriod
000013f6 0153           6143 	.byte	1,83
000013f8 8280808008     6144 	.byte	130,128,128,128,8
000013fd 04             6145 	.byte	4
000013fe 03             6146 	.byte	3
000013ff 08             6147 	.byte	8
00001400 00             6148 	.byte	0
00001401 00             6149 	.byte	0
00001402 00             6150 	.byte	0
00001403 00             6151 	.byte	0
00001404 01             6152 	.byte	1
00001405 00             6153 	.byte	0
00001406 01             6154 	.byte	1
                        6155 
                        6156 	.section	.debug_frame
                        6157 .LDW_4edba58:
00000200 00000000*      6158 	.word	.LDW_unq_1c-.LDW_unq_1b
                        6159 .LDW_unq_1b:
00000204 00000000*      6160 	.word	.LDW_4d87930
00000208 00000000*      6161 	.word	_RdcSt__UpdateSyncPeriod..C.3A.5C_ECU2.5CECU_Rivian_A1.5CTarget.5Crepo_projects.5CpRealEcu.5CcL_R2023.2E09.2E01.5Cmake.5Coutput.5Cobjects.5CRdcStandstill.
0000020c 00000000*      6162 	.word	___ghs_eofn_RdcSt__UpdateSyncPeriod-_RdcSt__UpdateSyncPeriod..C.3A.5C_ECU2.5CECU_Rivian_A1.5CTarget.5Crepo_projects.5CpRealEcu.5CcL_R2023.2E09.2E01.5Cmake.5Coutput.5Cobjects.5CRdcStandstill.
00000210 44             6163 	.byte	68
00000211 9f             6164 	.byte	159
00000212 03             6165 	.byte	3
00000213 01             6166 	.byte	1

                                                                      Page 121
                                                              C:\Users\nhuliyap\AppData\Local\Temp\gh_0000b0k1.s
00000214 00000000*      6167 	.word	.LDW15
                        6168 .LDW_unq_1c:
                        6169 	.section	.debug_line
00000f28 000502         6170 	.byte	0,5,2
00000f2b 00000000*      6171 	.word	_RdcSt__UpdateSyncPeriod..C.3A.5C_ECU2.5CECU_Rivian_A1.5CTarget.5Crepo_projects.5CpRealEcu.5CcL_R2023.2E09.2E01.5Cmake.5Coutput.5Cobjects.5CRdcStandstill.
00000f2f 03             6172 	.byte	3
00000f30 ff02           6173 	.byte	255,2
00000f32 02             6174 	.byte	2
00000f33 00             6175 	.byte	0
00000f34 01             6176 	.byte	1
00000f35 06             6177 	.byte	6
00000f36 1d             6178 	.byte	29
00000f37 000502         6179 	.byte	0,5,2
00000f3a 00000000*      6180 	.word	.LDWlin131
00000f3e 0c             6181 	.byte	12
00000f3f 000502         6182 	.byte	0,5,2
00000f42 00000000*      6183 	.word	.LDWlin132
00000f46 0b             6184 	.byte	11
00000f47 0c             6185 	.byte	12
00000f48 000502         6186 	.byte	0,5,2
00000f4b 00000000*      6187 	.word	.LDWlin133
00000f4f 0b             6188 	.byte	11
00000f50 0b             6189 	.byte	11
00000f51 0c             6190 	.byte	12
00000f52 02             6191 	.byte	2
00000f53 00             6192 	.byte	0
00000f54 0b             6193 	.byte	11
00000f55 02             6194 	.byte	2
00000f56 04             6195 	.byte	4
00000f57 000101         6196 	.byte	0,1,1
                        6197 	.section	.debug_info
                        6198 .LDW_4d5a758:
00001407 1d             6199 	.byte	29
00001408 00000000*      6200 	.word	.LDW05
0000140c 00000000*      6201 	.word	.LDW15
                        6202 
                        6203 .LDW_4cc3dd8:
00001410 04             6204 	.byte	4
00001411 5533325f4375   6205 	.strz	"U32_CurrentTimestamp"
00001417 7272656e7454 
0000141d 696d65737461 
00001423 6d7000 
00001426 8103           6206 	.byte	129,3
00001428 0a             6207 	.byte	10
00001429 01             6208 	.byte	1
0000142a 00000000*      6209 	.word	.LDW_4d3a4c8
0000142e 00             6210 	.byte	0
0000142f 00             6211 	.byte	0
00001430 0273           6212 	.byte	2,115
00001432 00             6213 	.byte	0
                        6214 
00001433 00             6215 	.byte	0
                        6216 
00001434 00             6217 	.byte	0
                        6218 
                        6219 .LDW_4ddbcd0:
00001435 13             6220 	.byte	19
00001436 52646353745f   6221 	.strz	"RdcSt__UpdateMonitoringStatus"
0000143c 5f5570646174 
00001442 654d6f6e6974 
00001448 6f72696e6753 

                                                                      Page 122
                                                              C:\Users\nhuliyap\AppData\Local\Temp\gh_0000b0k1.s
0000144e 746174757300 
00001454 8f03           6222 	.byte	143,3
00001456 0d             6223 	.byte	13
00001457 01             6224 	.byte	1
00001458 00000000*      6225 	.word	_RdcSt__UpdateMonitoringStatus..C.3A.5C_ECU2.5CECU_Rivian_A1.5CTarget.5Crepo_projects.5CpRealEcu.5CcL_R2023.2E09.2E01.5Cmake.5Coutput.5Cobjects.5CRdcStandstill.
0000145c 00000000*      6226 	.word	___ghs_eofn_RdcSt__UpdateMonitoringStatus
00001460 0153           6227 	.byte	1,83
00001462 828080fe0b     6228 	.byte	130,128,128,254,11
00001467 24             6229 	.byte	36
00001468 03             6230 	.byte	3
00001469 28             6231 	.byte	40
0000146a 00             6232 	.byte	0
0000146b 00             6233 	.byte	0
0000146c 00             6234 	.byte	0
0000146d 00             6235 	.byte	0
0000146e 01             6236 	.byte	1
0000146f 00             6237 	.byte	0
00001470 01             6238 	.byte	1
                        6239 
                        6240 	.section	.debug_frame
                        6241 .LDW_4edaf18:
00000218 00000000*      6242 	.word	.LDW_unq_1e-.LDW_unq_1d
                        6243 .LDW_unq_1d:
0000021c 00000000*      6244 	.word	.LDW_4d87930
00000220 00000000*      6245 	.word	_RdcSt__UpdateMonitoringStatus..C.3A.5C_ECU2.5CECU_Rivian_A1.5CTarget.5Crepo_projects.5CpRealEcu.5CcL_R2023.2E09.2E01.5Cmake.5Coutput.5Cobjects.5CRdcStandstill.
00000224 00000000*      6246 	.word	___ghs_eofn_RdcSt__UpdateMonitoringStatus-_RdcSt__UpdateMonitoringStatus..C.3A.5C_ECU2.5CECU_Rivian_A1.5CTarget.5Crepo_projects.5CpRealEcu.5CcL_R2023.2E09.2E01.5Cmake.5Coutput.5Cobjects.5CRdcStandstill.
00000228 44             6247 	.byte	68
00000229 9f             6248 	.byte	159
0000022a 03             6249 	.byte	3
0000022b 40             6250 	.byte	64
0000022c 9d             6251 	.byte	157
0000022d 07             6252 	.byte	7
0000022e 40             6253 	.byte	64
0000022f 9c             6254 	.byte	156
00000230 0b             6255 	.byte	11
00000231 40             6256 	.byte	64
00000232 9b             6257 	.byte	155
00000233 0f             6258 	.byte	15
00000234 40             6259 	.byte	64
00000235 9a             6260 	.byte	154
00000236 13             6261 	.byte	19
00000237 40             6262 	.byte	64
00000238 99             6263 	.byte	153
00000239 17             6264 	.byte	23
0000023a 40             6265 	.byte	64
0000023b 98             6266 	.byte	152
0000023c 1b             6267 	.byte	27
0000023d 40             6268 	.byte	64
0000023e 97             6269 	.byte	151
0000023f 1f             6270 	.byte	31
00000240 40             6271 	.byte	64
00000241 96             6272 	.byte	150
00000242 23             6273 	.byte	35
00000243 01             6274 	.byte	1
00000244 00000000*      6275 	.word	.LDW73
                        6276 .LDW_unq_1e:
                        6277 	.section	.debug_line
00000f5a 000502         6278 	.byte	0,5,2
00000f5d 00000000*      6279 	.word	_RdcSt__UpdateMonitoringStatus..C.3A.5C_ECU2.5CECU_Rivian_A1.5CTarget.5Crepo_projects.5CpRealEcu.5CcL_R2023.2E09.2E01.5Cmake.5Coutput.5Cobjects.5CRdcStandstill.
00000f61 03             6280 	.byte	3
00000f62 8e03           6281 	.byte	142,3

                                                                      Page 123
                                                              C:\Users\nhuliyap\AppData\Local\Temp\gh_0000b0k1.s
00000f64 02             6282 	.byte	2
00000f65 00             6283 	.byte	0
00000f66 01             6284 	.byte	1
00000f67 06             6285 	.byte	6
00000f68 000502         6286 	.byte	0,5,2
00000f6b 00000000*      6287 	.word	.LDWlin52
00000f6f 03             6288 	.byte	3
00000f70 04             6289 	.byte	4
00000f71 02             6290 	.byte	2
00000f72 00             6291 	.byte	0
00000f73 01             6292 	.byte	1
00000f74 000502         6293 	.byte	0,5,2
00000f77 00000000*      6294 	.word	.LDWlin53
00000f7b 0c             6295 	.byte	12
00000f7c 02             6296 	.byte	2
00000f7d 02             6297 	.byte	2
00000f7e 000502         6298 	.byte	0,5,2
00000f81 00000000*      6299 	.word	.LDWlin54
00000f85 0d             6300 	.byte	13
00000f86 13             6301 	.byte	19
00000f87 000502         6302 	.byte	0,5,2
00000f8a 00000000*      6303 	.word	.LDWlin55
00000f8e 0b             6304 	.byte	11
00000f8f 0b             6305 	.byte	11
00000f90 000502         6306 	.byte	0,5,2
00000f93 00000000*      6307 	.word	.LDWlin56
00000f97 0b             6308 	.byte	11
00000f98 0c             6309 	.byte	12
00000f99 000502         6310 	.byte	0,5,2
00000f9c 00000000*      6311 	.word	.LDWlin57
00000fa0 0b             6312 	.byte	11
00000fa1 0c             6313 	.byte	12
00000fa2 000502         6314 	.byte	0,5,2
00000fa5 00000000*      6315 	.word	.LDWlin58
00000fa9 0b             6316 	.byte	11
00000faa 0c             6317 	.byte	12
00000fab 03             6318 	.byte	3
00000fac 07             6319 	.byte	7
00000fad 02             6320 	.byte	2
00000fae 0a             6321 	.byte	10
00000faf 01             6322 	.byte	1
00000fb0 03             6323 	.byte	3
00000fb1 7a             6324 	.byte	122
00000fb2 02             6325 	.byte	2
00000fb3 04             6326 	.byte	4
00000fb4 01             6327 	.byte	1
00000fb5 000502         6328 	.byte	0,5,2
00000fb8 00000000*      6329 	.word	.LDWlin59
00000fbc 03             6330 	.byte	3
00000fbd 07             6331 	.byte	7
00000fbe 02             6332 	.byte	2
00000fbf 00             6333 	.byte	0
00000fc0 01             6334 	.byte	1
00000fc1 0b             6335 	.byte	11
00000fc2 2b             6336 	.byte	43
00000fc3 0b             6337 	.byte	11
00000fc4 0c             6338 	.byte	12
00000fc5 02             6339 	.byte	2
00000fc6 00             6340 	.byte	0
00000fc7 0c             6341 	.byte	12
00000fc8 000502         6342 	.byte	0,5,2

                                                                      Page 124
                                                              C:\Users\nhuliyap\AppData\Local\Temp\gh_0000b0k1.s
00000fcb 00000000*      6343 	.word	.LDWlin60
00000fcf 0b             6344 	.byte	11
00000fd0 0b             6345 	.byte	11
00000fd1 0c             6346 	.byte	12
00000fd2 02             6347 	.byte	2
00000fd3 00             6348 	.byte	0
00000fd4 0b             6349 	.byte	11
00000fd5 0b             6350 	.byte	11
00000fd6 0c             6351 	.byte	12
00000fd7 000502         6352 	.byte	0,5,2
00000fda 00000000*      6353 	.word	.LDWlin61
00000fde 0b             6354 	.byte	11
00000fdf 0d             6355 	.byte	13
00000fe0 2c             6356 	.byte	44
00000fe1 03             6357 	.byte	3
00000fe2 7f             6358 	.byte	127
00000fe3 02             6359 	.byte	2
00000fe4 04             6360 	.byte	4
00000fe5 01             6361 	.byte	1
00000fe6 000502         6362 	.byte	0,5,2
00000fe9 00000000*      6363 	.word	.LDWlin62
00000fed 03             6364 	.byte	3
00000fee 07             6365 	.byte	7
00000fef 02             6366 	.byte	2
00000ff0 00             6367 	.byte	0
00000ff1 01             6368 	.byte	1
00000ff2 000502         6369 	.byte	0,5,2
00000ff5 00000000*      6370 	.word	.LDWlin63
00000ff9 0b             6371 	.byte	11
00000ffa 0b             6372 	.byte	11
00000ffb 3b             6373 	.byte	59
00000ffc 0b             6374 	.byte	11
00000ffd 0c             6375 	.byte	12
00000ffe 02             6376 	.byte	2
00000fff 00             6377 	.byte	0
00001000 0c             6378 	.byte	12
00001001 06             6379 	.byte	6
00001002 02             6380 	.byte	2
00001003 04             6381 	.byte	4
00001004 06             6382 	.byte	6
00001005 000502         6383 	.byte	0,5,2
00001008 00000000*      6384 	.word	.LDWlin64
0000100c 0b             6385 	.byte	11
0000100d 0b             6386 	.byte	11
0000100e 0c             6387 	.byte	12
0000100f 02             6388 	.byte	2
00001010 00             6389 	.byte	0
00001011 0b             6390 	.byte	11
00001012 02             6391 	.byte	2
00001013 00             6392 	.byte	0
00001014 0b             6393 	.byte	11
00001015 0b             6394 	.byte	11
00001016 0c             6395 	.byte	12
00001017 02             6396 	.byte	2
00001018 00             6397 	.byte	0
00001019 0b             6398 	.byte	11
0000101a 0b             6399 	.byte	11
0000101b 0c             6400 	.byte	12
0000101c 02             6401 	.byte	2
0000101d 00             6402 	.byte	0
0000101e 03             6403 	.byte	3

                                                                      Page 125
                                                              C:\Users\nhuliyap\AppData\Local\Temp\gh_0000b0k1.s
0000101f b97f           6404 	.byte	185,127
00001021 02             6405 	.byte	2
00001022 00             6406 	.byte	0
00001023 01             6407 	.byte	1
00001024 000502         6408 	.byte	0,5,2
00001027 00000000*      6409 	.word	.LDWlin65
0000102b 03             6410 	.byte	3
0000102c c800           6411 	.byte	200,0
0000102e 02             6412 	.byte	2
0000102f 00             6413 	.byte	0
00001030 01             6414 	.byte	1
00001031 0b             6415 	.byte	11
00001032 02             6416 	.byte	2
00001033 04             6417 	.byte	4
00001034 000101         6418 	.byte	0,1,1
                        6419 	.section	.debug_info
                        6420 .LDW_4d5a818:
00001471 1d             6421 	.byte	29
00001472 00000000*      6422 	.word	.LDW23
00001476 00000000*      6423 	.word	.LDW73
                        6424 
                        6425 .LDW_4cc3b70:
0000147a 04             6426 	.byte	4
0000147b 5533325f4375   6427 	.strz	"U32_CurrentTimestamp"
00001481 7272656e7454 
00001487 696d65737461 
0000148d 6d7000 
00001490 9003           6428 	.byte	144,3
00001492 0a             6429 	.byte	10
00001493 01             6430 	.byte	1
00001494 00000000*      6431 	.word	.LDW_4d3a4c8
00001498 00             6432 	.byte	0
00001499 00             6433 	.byte	0
0000149a 0273           6434 	.byte	2,115
0000149c 00             6435 	.byte	0
                        6436 
                        6437 .LDW_4cc3c78:
0000149d 04             6438 	.byte	4
0000149e 55385f436f75   6439 	.strz	"U8_Counter"
000014a4 6e74657200 
000014a9 9103           6440 	.byte	145,3
000014ab 09             6441 	.byte	9
000014ac 01             6442 	.byte	1
000014ad 00000000*      6443 	.word	.LDW_484bd60
000014b1 00             6444 	.byte	0
000014b2 00             6445 	.byte	0
000014b3 016c           6446 	.byte	1,108
                        6447 
                        6448 .LDW_4d5a548:
000014b5 1d             6449 	.byte	29
000014b6 00000000*      6450 	.word	.LDW33
000014ba 00000000*      6451 	.word	.LDW63
                        6452 
                        6453 .LDW_4cc3f38:
000014be 04             6454 	.byte	4
000014bf 55385f4d6173   6455 	.strz	"U8_MaskForSpecificWS"
000014c5 6b466f725370 
000014cb 656369666963 
000014d1 575300 
000014d4 9803           6456 	.byte	152,3
000014d6 0a             6457 	.byte	10

                                                                      Page 126
                                                              C:\Users\nhuliyap\AppData\Local\Temp\gh_0000b0k1.s
000014d7 01             6458 	.byte	1
000014d8 00000000*      6459 	.word	.LDW_484bd60
000014dc 00             6460 	.byte	0
000014dd 00             6461 	.byte	0
000014de 0162           6462 	.byte	1,98
                        6463 
                        6464 .LDW_4d5a6c8:
000014e0 1d             6465 	.byte	29
000014e1 00000000*      6466 	.word	.LDW43
000014e5 00000000*      6467 	.word	.LDW53
                        6468 
                        6469 .LDW_4cc3c20:
000014e9 05             6470 	.byte	5
000014ea 5533325f5469   6471 	.strz	"U32_TimerValue"
000014f0 6d657256616c 
000014f6 756500 
000014f9 bd03           6472 	.byte	189,3
000014fb 14             6473 	.byte	20
000014fc 01             6474 	.byte	1
000014fd 00000000*      6475 	.word	.LDW_4d3a4c8
00001501 00             6476 	.byte	0
00001502 00             6477 	.byte	0
                        6478 
00001503 00             6479 	.byte	0
                        6480 
00001504 00             6481 	.byte	0
                        6482 
00001505 00             6483 	.byte	0
                        6484 
00001506 00             6485 	.byte	0
                        6486 
                        6487 .LDW_4ddbc38:
00001507 13             6488 	.byte	19
00001508 52646353745f   6489 	.strz	"RdcSt__UpdateWakeupTimer"
0000150e 5f5570646174 
00001514 6557616b6575 
0000151a 7054696d6572 
00001520 00 
00001521 e003           6490 	.byte	224,3
00001523 0d             6491 	.byte	13
00001524 01             6492 	.byte	1
00001525 00000000*      6493 	.word	_RdcSt__UpdateWakeupTimer..C.3A.5C_ECU2.5CECU_Rivian_A1.5CTarget.5Crepo_projects.5CpRealEcu.5CcL_R2023.2E09.2E01.5Cmake.5Coutput.5Cobjects.5CRdcStandstill.
00001529 00000000*      6494 	.word	___ghs_eofn_RdcSt__UpdateWakeupTimer
0000152d 0153           6495 	.byte	1,83
0000152f 8280808008     6496 	.byte	130,128,128,128,8
00001534 04             6497 	.byte	4
00001535 03             6498 	.byte	3
00001536 04             6499 	.byte	4
00001537 00             6500 	.byte	0
00001538 00             6501 	.byte	0
00001539 00             6502 	.byte	0
0000153a 00             6503 	.byte	0
0000153b 01             6504 	.byte	1
0000153c 00             6505 	.byte	0
0000153d 01             6506 	.byte	1
                        6507 
                        6508 	.section	.debug_frame
                        6509 .LDW_4edbad8:
00000248 00000000*      6510 	.word	.LDW_unq_20-.LDW_unq_1f
                        6511 .LDW_unq_1f:
0000024c 00000000*      6512 	.word	.LDW_4d87930

                                                                      Page 127
                                                              C:\Users\nhuliyap\AppData\Local\Temp\gh_0000b0k1.s
00000250 00000000*      6513 	.word	_RdcSt__UpdateWakeupTimer..C.3A.5C_ECU2.5CECU_Rivian_A1.5CTarget.5Crepo_projects.5CpRealEcu.5CcL_R2023.2E09.2E01.5Cmake.5Coutput.5Cobjects.5CRdcStandstill.
00000254 00000000*      6514 	.word	___ghs_eofn_RdcSt__UpdateWakeupTimer-_RdcSt__UpdateWakeupTimer..C.3A.5C_ECU2.5CECU_Rivian_A1.5CTarget.5Crepo_projects.5CpRealEcu.5CcL_R2023.2E09.2E01.5Cmake.5Coutput.5Cobjects.5CRdcStandstill.
00000258 48             6515 	.byte	72
00000259 9f             6516 	.byte	159
0000025a 00             6517 	.byte	0
0000025b 01             6518 	.byte	1
0000025c 00000000*      6519 	.word	.LDW94
                        6520 .LDW_unq_20:
                        6521 	.section	.debug_line
00001037 000502         6522 	.byte	0,5,2
0000103a 00000000*      6523 	.word	_RdcSt__UpdateWakeupTimer..C.3A.5C_ECU2.5CECU_Rivian_A1.5CTarget.5Crepo_projects.5CpRealEcu.5CcL_R2023.2E09.2E01.5Cmake.5Coutput.5Cobjects.5CRdcStandstill.
0000103e 03             6524 	.byte	3
0000103f df03           6525 	.byte	223,3
00001041 02             6526 	.byte	2
00001042 00             6527 	.byte	0
00001043 01             6528 	.byte	1
00001044 06             6529 	.byte	6
00001045 2b             6530 	.byte	43
00001046 000502         6531 	.byte	0,5,2
00001049 00000000*      6532 	.word	.LDWlin121
0000104d 0b             6533 	.byte	11
0000104e 0c             6534 	.byte	12
0000104f 000502         6535 	.byte	0,5,2
00001052 00000000*      6536 	.word	.LDWlin122
00001056 0b             6537 	.byte	11
00001057 0b             6538 	.byte	11
00001058 02             6539 	.byte	2
00001059 00             6540 	.byte	0
0000105a 000502         6541 	.byte	0,5,2
0000105d 00000000*      6542 	.word	.LDWlin123
00001061 0b             6543 	.byte	11
00001062 0c             6544 	.byte	12
00001063 000502         6545 	.byte	0,5,2
00001066 00000000*      6546 	.word	.LDWlin124
0000106a 0b             6547 	.byte	11
0000106b 0b             6548 	.byte	11
0000106c 02             6549 	.byte	2
0000106d 00             6550 	.byte	0
0000106e 000502         6551 	.byte	0,5,2
00001071 00000000*      6552 	.word	.LDWlin125
00001075 0b             6553 	.byte	11
00001076 0c             6554 	.byte	12
00001077 000502         6555 	.byte	0,5,2
0000107a 00000000*      6556 	.word	.LDWlin126
0000107e 0b             6557 	.byte	11
0000107f 0b             6558 	.byte	11
00001080 0c             6559 	.byte	12
00001081 000502         6560 	.byte	0,5,2
00001084 00000000*      6561 	.word	.LDWlin127
00001088 0b             6562 	.byte	11
00001089 000502         6563 	.byte	0,5,2
0000108c 00000000*      6564 	.word	.LDWlin128
00001090 0b             6565 	.byte	11
00001091 000502         6566 	.byte	0,5,2
00001094 00000000*      6567 	.word	.LDWlin129
00001098 0b             6568 	.byte	11
00001099 000502         6569 	.byte	0,5,2
0000109c 00000000*      6570 	.word	.LDWlin130
000010a0 0b             6571 	.byte	11
000010a1 02             6572 	.byte	2
000010a2 00             6573 	.byte	0

                                                                      Page 128
                                                              C:\Users\nhuliyap\AppData\Local\Temp\gh_0000b0k1.s
000010a3 02             6574 	.byte	2
000010a4 00             6575 	.byte	0
000010a5 02             6576 	.byte	2
000010a6 00             6577 	.byte	0
000010a7 02             6578 	.byte	2
000010a8 00             6579 	.byte	0
000010a9 02             6580 	.byte	2
000010aa 00             6581 	.byte	0
000010ab 0b             6582 	.byte	11
000010ac 02             6583 	.byte	2
000010ad 04             6584 	.byte	4
000010ae 000101         6585 	.byte	0,1,1
                        6586 	.section	.debug_info
                        6587 .LDW_4d5a5d8:
0000153e 1d             6588 	.byte	29
0000153f 00000000*      6589 	.word	.LDW84
00001543 00000000*      6590 	.word	.LDW94
                        6591 
00001547 00             6592 	.byte	0
                        6593 
00001548 00             6594 	.byte	0
                        6595 
                        6596 .LDW_4ddb350:
00001549 14             6597 	.byte	20
0000154a 52646353745f   6598 	.strz	"RdcSt__AreTimersExpiringSoon"
00001550 5f4172655469 
00001556 6d6572734578 
0000155c 706972696e67 
00001562 536f6f6e00 
00001567 f903           6599 	.byte	249,3
00001569 10             6600 	.byte	16
0000156a 01             6601 	.byte	1
0000156b 00000000*      6602 	.word	.LDW_4d1ff90
0000156f 00000000*      6603 	.word	_RdcSt__AreTimersExpiringSoon..C.3A.5C_ECU2.5CECU_Rivian_A1.5CTarget.5Crepo_projects.5CpRealEcu.5CcL_R2023.2E09.2E01.5Cmake.5Coutput.5Cobjects.5CRdcStandstill.
00001573 00000000*      6604 	.word	___ghs_eofn_RdcSt__AreTimersExpiringSoon
00001577 0153           6605 	.byte	1,83
00001579 828080800b     6606 	.byte	130,128,128,128,11
0000157e 0c             6607 	.byte	12
0000157f 03             6608 	.byte	3
00001580 10             6609 	.byte	16
00001581 00             6610 	.byte	0
00001582 00             6611 	.byte	0
00001583 00             6612 	.byte	0
00001584 00             6613 	.byte	0
00001585 01             6614 	.byte	1
00001586 00             6615 	.byte	0
00001587 01             6616 	.byte	1
                        6617 
                        6618 	.section	.debug_frame
                        6619 .LDW_4edadd8:
00000260 00000000*      6620 	.word	.LDW_unq_22-.LDW_unq_21
                        6621 .LDW_unq_21:
00000264 00000000*      6622 	.word	.LDW_4d87930
00000268 00000000*      6623 	.word	_RdcSt__AreTimersExpiringSoon..C.3A.5C_ECU2.5CECU_Rivian_A1.5CTarget.5Crepo_projects.5CpRealEcu.5CcL_R2023.2E09.2E01.5Cmake.5Coutput.5Cobjects.5CRdcStandstill.
0000026c 00000000*      6624 	.word	___ghs_eofn_RdcSt__AreTimersExpiringSoon-_RdcSt__AreTimersExpiringSoon..C.3A.5C_ECU2.5CECU_Rivian_A1.5CTarget.5Crepo_projects.5CpRealEcu.5CcL_R2023.2E09.2E01.5Cmake.5Coutput.5Cobjects.5CRdcStandstill.
00000270 44             6625 	.byte	68
00000271 9f             6626 	.byte	159
00000272 03             6627 	.byte	3
00000273 40             6628 	.byte	64
00000274 9d             6629 	.byte	157
00000275 07             6630 	.byte	7

                                                                      Page 129
                                                              C:\Users\nhuliyap\AppData\Local\Temp\gh_0000b0k1.s
00000276 40             6631 	.byte	64
00000277 9c             6632 	.byte	156
00000278 0b             6633 	.byte	11
00000279 01             6634 	.byte	1
0000027a 00000000*      6635 	.word	.LDW74
0000027e 00             6636 	.byte	0
0000027f 00             6637 	.byte	0
                        6638 .LDW_unq_22:
                        6639 	.section	.debug_line
000010b1 000502         6640 	.byte	0,5,2
000010b4 00000000*      6641 	.word	_RdcSt__AreTimersExpiringSoon..C.3A.5C_ECU2.5CECU_Rivian_A1.5CTarget.5Crepo_projects.5CpRealEcu.5CcL_R2023.2E09.2E01.5Cmake.5Coutput.5Cobjects.5CRdcStandstill.
000010b8 03             6642 	.byte	3
000010b9 f803           6643 	.byte	248,3
000010bb 02             6644 	.byte	2
000010bc 00             6645 	.byte	0
000010bd 01             6646 	.byte	1
000010be 06             6647 	.byte	6
000010bf 1c             6648 	.byte	28
000010c0 14             6649 	.byte	20
000010c1 02             6650 	.byte	2
000010c2 02             6651 	.byte	2
000010c3 03             6652 	.byte	3
000010c4 04             6653 	.byte	4
000010c5 02             6654 	.byte	2
000010c6 00             6655 	.byte	0
000010c7 01             6656 	.byte	1
000010c8 000502         6657 	.byte	0,5,2
000010cb 00000000*      6658 	.word	.LDWlin119
000010cf 0c             6659 	.byte	12
000010d0 3b             6660 	.byte	59
000010d1 0c             6661 	.byte	12
000010d2 02             6662 	.byte	2
000010d3 00             6663 	.byte	0
000010d4 03             6664 	.byte	3
000010d5 77             6665 	.byte	119
000010d6 02             6666 	.byte	2
000010d7 00             6667 	.byte	0
000010d8 01             6668 	.byte	1
000010d9 000502         6669 	.byte	0,5,2
000010dc 00000000*      6670 	.word	.LDWlin120
000010e0 03             6671 	.byte	3
000010e1 0a             6672 	.byte	10
000010e2 02             6673 	.byte	2
000010e3 00             6674 	.byte	0
000010e4 01             6675 	.byte	1
000010e5 0c             6676 	.byte	12
000010e6 06             6677 	.byte	6
000010e7 02             6678 	.byte	2
000010e8 02             6679 	.byte	2
000010e9 02             6680 	.byte	2
000010ea 04             6681 	.byte	4
000010eb 000101         6682 	.byte	0,1,1
                        6683 	.section	.debug_info
                        6684 .LDW_4d5a5a8:
00001588 1d             6685 	.byte	29
00001589 00000000*      6686 	.word	.LDW44
0000158d 00000000*      6687 	.word	.LDW74
                        6688 
                        6689 .LDW_4cc3e88:
00001591 04             6690 	.byte	4
00001592 55385f436f75   6691 	.strz	"U8_Counter"

                                                                      Page 130
                                                              C:\Users\nhuliyap\AppData\Local\Temp\gh_0000b0k1.s
00001598 6e74657200 
0000159d fa03           6692 	.byte	250,3
0000159f 09             6693 	.byte	9
000015a0 01             6694 	.byte	1
000015a1 00000000*      6695 	.word	.LDW_484bd60
000015a5 00             6696 	.byte	0
000015a6 00             6697 	.byte	0
000015a7 016d           6698 	.byte	1,109
                        6699 
                        6700 .LDW_4cc3ee0:
000015a9 04             6701 	.byte	4
000015aa 424f5f417265   6702 	.strz	"BO_AreTimersExpiringSoon"
000015b0 54696d657273 
000015b6 457870697269 
000015bc 6e67536f6f6e 
000015c2 00 
000015c3 fb03           6703 	.byte	251,3
000015c5 0b             6704 	.byte	11
000015c6 01             6705 	.byte	1
000015c7 00000000*      6706 	.word	.LDW_4d1ff90
000015cb 00             6707 	.byte	0
000015cc 00             6708 	.byte	0
000015cd 016c           6709 	.byte	1,108
                        6710 
                        6711 .LDW_4d5a998:
000015cf 1d             6712 	.byte	29
000015d0 00000000*      6713 	.word	.LDW54
000015d4 00000000*      6714 	.word	.LDW64
                        6715 
                        6716 .LDW_4cc3cd0:
000015d8 04             6717 	.byte	4
000015d9 5533325f5469   6718 	.strz	"U32_TimerValue"
000015df 6d657256616c 
000015e5 756500 
000015e8 ff03           6719 	.byte	255,3
000015ea 0b             6720 	.byte	11
000015eb 01             6721 	.byte	1
000015ec 00000000*      6722 	.word	.LDW_4d3a4c8
000015f0 00             6723 	.byte	0
000015f1 00             6724 	.byte	0
000015f2 0273           6725 	.byte	2,115
000015f4 00             6726 	.byte	0
                        6727 
000015f5 00             6728 	.byte	0
                        6729 
000015f6 00             6730 	.byte	0
                        6731 
000015f7 00             6732 	.byte	0
                        6733 
                        6734 .LDW_4ddbd68:
000015f8 13             6735 	.byte	19
000015f9 52646353745f   6736 	.strz	"RdcSt__SaveDataInNvm"
000015ff 5f5361766544 
00001605 617461496e4e 
0000160b 766d00 
0000160e 8c04           6737 	.byte	140,4
00001610 0d             6738 	.byte	13
00001611 01             6739 	.byte	1
00001612 00000000*      6740 	.word	_RdcSt__SaveDataInNvm..C.3A.5C_ECU2.5CECU_Rivian_A1.5CTarget.5Crepo_projects.5CpRealEcu.5CcL_R2023.2E09.2E01.5Cmake.5Coutput.5Cobjects.5CRdcStandstill.
00001616 00000000*      6741 	.word	___ghs_eofn_RdcSt__SaveDataInNvm
0000161a 0153           6742 	.byte	1,83

                                                                      Page 131
                                                              C:\Users\nhuliyap\AppData\Local\Temp\gh_0000b0k1.s
0000161c 828080800a     6743 	.byte	130,128,128,128,10
00001621 08             6744 	.byte	8
00001622 03             6745 	.byte	3
00001623 0c             6746 	.byte	12
00001624 00             6747 	.byte	0
00001625 00             6748 	.byte	0
00001626 00             6749 	.byte	0
00001627 00             6750 	.byte	0
00001628 01             6751 	.byte	1
00001629 00             6752 	.byte	0
0000162a 01             6753 	.byte	1
                        6754 
                        6755 	.section	.debug_frame
                        6756 .LDW_4edb3d8:
00000280 00000000*      6757 	.word	.LDW_unq_24-.LDW_unq_23
                        6758 .LDW_unq_23:
00000284 00000000*      6759 	.word	.LDW_4d87930
00000288 00000000*      6760 	.word	_RdcSt__SaveDataInNvm..C.3A.5C_ECU2.5CECU_Rivian_A1.5CTarget.5Crepo_projects.5CpRealEcu.5CcL_R2023.2E09.2E01.5Cmake.5Coutput.5Cobjects.5CRdcStandstill.
0000028c 00000000*      6761 	.word	___ghs_eofn_RdcSt__SaveDataInNvm-_RdcSt__SaveDataInNvm..C.3A.5C_ECU2.5CECU_Rivian_A1.5CTarget.5Crepo_projects.5CpRealEcu.5CcL_R2023.2E09.2E01.5Cmake.5Coutput.5Cobjects.5CRdcStandstill.
00000290 44             6762 	.byte	68
00000291 9f             6763 	.byte	159
00000292 03             6764 	.byte	3
00000293 40             6765 	.byte	64
00000294 9d             6766 	.byte	157
00000295 07             6767 	.byte	7
00000296 01             6768 	.byte	1
00000297 00000000*      6769 	.word	.LDW34
0000029b 44             6770 	.byte	68
0000029c df             6771 	.byte	223
0000029d 40             6772 	.byte	64
0000029e dd             6773 	.byte	221
0000029f 00             6774 	.byte	0
                        6775 .LDW_unq_24:
                        6776 	.section	.debug_line
000010ee 000502         6777 	.byte	0,5,2
000010f1 00000000*      6778 	.word	_RdcSt__SaveDataInNvm..C.3A.5C_ECU2.5CECU_Rivian_A1.5CTarget.5Crepo_projects.5CpRealEcu.5CcL_R2023.2E09.2E01.5Cmake.5Coutput.5Cobjects.5CRdcStandstill.
000010f5 03             6779 	.byte	3
000010f6 8b04           6780 	.byte	139,4
000010f8 02             6781 	.byte	2
000010f9 00             6782 	.byte	0
000010fa 01             6783 	.byte	1
000010fb 06             6784 	.byte	6
000010fc 1b             6785 	.byte	27
000010fd 1c             6786 	.byte	28
000010fe 000502         6787 	.byte	0,5,2
00001101 00000000*      6788 	.word	.LDWlin110
00001105 0b             6789 	.byte	11
00001106 000502         6790 	.byte	0,5,2
00001109 00000000*      6791 	.word	.LDWlin111
0000110d 0c             6792 	.byte	12
0000110e 000502         6793 	.byte	0,5,2
00001111 00000000*      6794 	.word	.LDWlin112
00001115 0b             6795 	.byte	11
00001116 000502         6796 	.byte	0,5,2
00001119 00000000*      6797 	.word	.LDWlin113
0000111d 0c             6798 	.byte	12
0000111e 000502         6799 	.byte	0,5,2
00001121 00000000*      6800 	.word	.LDWlin114
00001125 0b             6801 	.byte	11
00001126 000502         6802 	.byte	0,5,2
00001129 00000000*      6803 	.word	.LDWlin115

                                                                      Page 132
                                                              C:\Users\nhuliyap\AppData\Local\Temp\gh_0000b0k1.s
0000112d 0c             6804 	.byte	12
0000112e 000502         6805 	.byte	0,5,2
00001131 00000000*      6806 	.word	.LDWlin116
00001135 0b             6807 	.byte	11
00001136 000502         6808 	.byte	0,5,2
00001139 00000000*      6809 	.word	.LDWlin117
0000113d 0c             6810 	.byte	12
0000113e 000502         6811 	.byte	0,5,2
00001141 00000000*      6812 	.word	.LDWlin118
00001145 0b             6813 	.byte	11
00001146 02             6814 	.byte	2
00001147 04             6815 	.byte	4
00001148 000101         6816 	.byte	0,1,1
                        6817 	.section	.debug_info
                        6818 .LDW_4d5a908:
0000162b 1d             6819 	.byte	29
0000162c 00000000*      6820 	.word	.LDW24
00001630 00000000*      6821 	.word	.LDW34
                        6822 
                        6823 .LDW_4cc3d28:
00001634 04             6824 	.byte	4
00001635 55385f446174   6825 	.strz	"U8_DataExistence"
0000163b 614578697374 
00001641 656e636500 
00001646 8d04           6826 	.byte	141,4
00001648 09             6827 	.byte	9
00001649 01             6828 	.byte	1
0000164a 00000000*      6829 	.word	.LDW_484bd60
0000164e 00             6830 	.byte	0
0000164f 00             6831 	.byte	0
00001650 0273           6832 	.byte	2,115
00001652 03             6833 	.byte	3
                        6834 
00001653 00             6835 	.byte	0
                        6836 
00001654 00             6837 	.byte	0
                        6838 
                        6839 .LDW_4ddb6e0:
00001655 13             6840 	.byte	19
00001656 52646353745f   6841 	.strz	"RdcSt__LoadDataFromNvm"
0000165c 5f4c6f616444 
00001662 61746146726f 
00001668 6d4e766d00 
0000166d 9e04           6842 	.byte	158,4
0000166f 0d             6843 	.byte	13
00001670 01             6844 	.byte	1
00001671 00000000*      6845 	.word	_RdcSt__LoadDataFromNvm..C.3A.5C_ECU2.5CECU_Rivian_A1.5CTarget.5Crepo_projects.5CpRealEcu.5CcL_R2023.2E09.2E01.5Cmake.5Coutput.5Cobjects.5CRdcStandstill.
00001675 00000000*      6846 	.word	___ghs_eofn_RdcSt__LoadDataFromNvm
00001679 0153           6847 	.byte	1,83
0000167b 828080800a     6848 	.byte	130,128,128,128,10
00001680 08             6849 	.byte	8
00001681 03             6850 	.byte	3
00001682 0c             6851 	.byte	12
00001683 00             6852 	.byte	0
00001684 00             6853 	.byte	0
00001685 00             6854 	.byte	0
00001686 00             6855 	.byte	0
00001687 01             6856 	.byte	1
00001688 00             6857 	.byte	0
00001689 01             6858 	.byte	1
                        6859 

                                                                      Page 133
                                                              C:\Users\nhuliyap\AppData\Local\Temp\gh_0000b0k1.s
                        6860 	.section	.debug_frame
                        6861 .LDW_4edb518:
000002a0 00000000*      6862 	.word	.LDW_unq_26-.LDW_unq_25
                        6863 .LDW_unq_25:
000002a4 00000000*      6864 	.word	.LDW_4d87930
000002a8 00000000*      6865 	.word	_RdcSt__LoadDataFromNvm..C.3A.5C_ECU2.5CECU_Rivian_A1.5CTarget.5Crepo_projects.5CpRealEcu.5CcL_R2023.2E09.2E01.5Cmake.5Coutput.5Cobjects.5CRdcStandstill.
000002ac 00000000*      6866 	.word	___ghs_eofn_RdcSt__LoadDataFromNvm-_RdcSt__LoadDataFromNvm..C.3A.5C_ECU2.5CECU_Rivian_A1.5CTarget.5Crepo_projects.5CpRealEcu.5CcL_R2023.2E09.2E01.5Cmake.5Coutput.5Cobjects.5CRdcStandstill.
000002b0 44             6867 	.byte	68
000002b1 9f             6868 	.byte	159
000002b2 03             6869 	.byte	3
000002b3 40             6870 	.byte	64
000002b4 9d             6871 	.byte	157
000002b5 07             6872 	.byte	7
000002b6 01             6873 	.byte	1
000002b7 00000000*      6874 	.word	.LDW75
000002bb 44             6875 	.byte	68
000002bc df             6876 	.byte	223
000002bd 40             6877 	.byte	64
000002be dd             6878 	.byte	221
000002bf 00             6879 	.byte	0
                        6880 .LDW_unq_26:
                        6881 	.section	.debug_line
0000114b 000502         6882 	.byte	0,5,2
0000114e 00000000*      6883 	.word	_RdcSt__LoadDataFromNvm..C.3A.5C_ECU2.5CECU_Rivian_A1.5CTarget.5Crepo_projects.5CpRealEcu.5CcL_R2023.2E09.2E01.5Cmake.5Coutput.5Cobjects.5CRdcStandstill.
00001152 03             6884 	.byte	3
00001153 9d04           6885 	.byte	157,4
00001155 02             6886 	.byte	2
00001156 00             6887 	.byte	0
00001157 01             6888 	.byte	1
00001158 06             6889 	.byte	6
00001159 1b             6890 	.byte	27
0000115a 1c             6891 	.byte	28
0000115b 000502         6892 	.byte	0,5,2
0000115e 00000000*      6893 	.word	.LDWlin149
00001162 0b             6894 	.byte	11
00001163 000502         6895 	.byte	0,5,2
00001166 00000000*      6896 	.word	.LDWlin150
0000116a 0c             6897 	.byte	12
0000116b 000502         6898 	.byte	0,5,2
0000116e 00000000*      6899 	.word	.LDWlin151
00001172 0b             6900 	.byte	11
00001173 000502         6901 	.byte	0,5,2
00001176 00000000*      6902 	.word	.LDWlin152
0000117a 0c             6903 	.byte	12
0000117b 000502         6904 	.byte	0,5,2
0000117e 00000000*      6905 	.word	.LDWlin153
00001182 0b             6906 	.byte	11
00001183 000502         6907 	.byte	0,5,2
00001186 00000000*      6908 	.word	.LDWlin154
0000118a 0c             6909 	.byte	12
0000118b 000502         6910 	.byte	0,5,2
0000118e 00000000*      6911 	.word	.LDWlin155
00001192 0b             6912 	.byte	11
00001193 000502         6913 	.byte	0,5,2
00001196 00000000*      6914 	.word	.LDWlin156
0000119a 0c             6915 	.byte	12
0000119b 000502         6916 	.byte	0,5,2
0000119e 00000000*      6917 	.word	.LDWlin157
000011a2 0b             6918 	.byte	11
000011a3 02             6919 	.byte	2
000011a4 04             6920 	.byte	4

                                                                      Page 134
                                                              C:\Users\nhuliyap\AppData\Local\Temp\gh_0000b0k1.s
000011a5 000101         6921 	.byte	0,1,1
                        6922 	.section	.debug_info
                        6923 .LDW_4d5a8a8:
0000168a 1d             6924 	.byte	29
0000168b 00000000*      6925 	.word	.LDW65
0000168f 00000000*      6926 	.word	.LDW75
                        6927 
                        6928 .LDW_4cc3a68:
00001693 04             6929 	.byte	4
00001694 55385f446174   6930 	.strz	"U8_DataExistence"
0000169a 614578697374 
000016a0 656e636500 
000016a5 9f04           6931 	.byte	159,4
000016a7 09             6932 	.byte	9
000016a8 01             6933 	.byte	1
000016a9 00000000*      6934 	.word	.LDW_484bd60
000016ad 00             6935 	.byte	0
000016ae 00             6936 	.byte	0
000016af 0273           6937 	.byte	2,115
000016b1 03             6938 	.byte	3
                        6939 
000016b2 00             6940 	.byte	0
                        6941 
000016b3 00             6942 	.byte	0
                        6943 
                        6944 .LDW_4ddbe00:
000016b4 13             6945 	.byte	19
000016b5 52646353745f   6946 	.strz	"RdcSt__UpdateConfig"
000016bb 5f5570646174 
000016c1 65436f6e6669 
000016c7 6700 
000016c9 b004           6947 	.byte	176,4
000016cb 0d             6948 	.byte	13
000016cc 01             6949 	.byte	1
000016cd 00000000*      6950 	.word	_RdcSt__UpdateConfig..C.3A.5C_ECU2.5CECU_Rivian_A1.5CTarget.5Crepo_projects.5CpRealEcu.5CcL_R2023.2E09.2E01.5Cmake.5Coutput.5Cobjects.5CRdcStandstill.
000016d1 00000000*      6951 	.word	___ghs_eofn_RdcSt__UpdateConfig
000016d5 0153           6952 	.byte	1,83
000016d7 828080800a     6953 	.byte	130,128,128,128,10
000016dc 08             6954 	.byte	8
000016dd 03             6955 	.byte	3
000016de 08             6956 	.byte	8
000016df 00             6957 	.byte	0
000016e0 00             6958 	.byte	0
000016e1 00             6959 	.byte	0
000016e2 00             6960 	.byte	0
000016e3 01             6961 	.byte	1
000016e4 00             6962 	.byte	0
000016e5 01             6963 	.byte	1
                        6964 
                        6965 	.section	.debug_frame
                        6966 .LDW_4de8b40:
000002c0 00000000*      6967 	.word	.LDW_unq_28-.LDW_unq_27
                        6968 .LDW_unq_27:
000002c4 00000000*      6969 	.word	.LDW_4d87930
000002c8 00000000*      6970 	.word	_RdcSt__UpdateConfig..C.3A.5C_ECU2.5CECU_Rivian_A1.5CTarget.5Crepo_projects.5CpRealEcu.5CcL_R2023.2E09.2E01.5Cmake.5Coutput.5Cobjects.5CRdcStandstill.
000002cc 00000000*      6971 	.word	___ghs_eofn_RdcSt__UpdateConfig-_RdcSt__UpdateConfig..C.3A.5C_ECU2.5CECU_Rivian_A1.5CTarget.5Crepo_projects.5CpRealEcu.5CcL_R2023.2E09.2E01.5Cmake.5Coutput.5Cobjects.5CRdcStandstill.
000002d0 44             6972 	.byte	68
000002d1 9f             6973 	.byte	159
000002d2 00             6974 	.byte	0
000002d3 40             6975 	.byte	64
000002d4 9d             6976 	.byte	157

                                                                      Page 135
                                                              C:\Users\nhuliyap\AppData\Local\Temp\gh_0000b0k1.s
000002d5 04             6977 	.byte	4
000002d6 01             6978 	.byte	1
000002d7 00000000*      6979 	.word	.LDW51
000002db 44             6980 	.byte	68
000002dc df             6981 	.byte	223
000002dd 40             6982 	.byte	64
000002de dd             6983 	.byte	221
000002df 00             6984 	.byte	0
                        6985 .LDW_unq_28:
                        6986 	.section	.debug_line
000011a8 000502         6987 	.byte	0,5,2
000011ab 00000000*      6988 	.word	_RdcSt__UpdateConfig..C.3A.5C_ECU2.5CECU_Rivian_A1.5CTarget.5Crepo_projects.5CpRealEcu.5CcL_R2023.2E09.2E01.5Cmake.5Coutput.5Cobjects.5CRdcStandstill.
000011af 03             6989 	.byte	3
000011b0 af04           6990 	.byte	175,4
000011b2 02             6991 	.byte	2
000011b3 00             6992 	.byte	0
000011b4 01             6993 	.byte	1
000011b5 06             6994 	.byte	6
000011b6 1b             6995 	.byte	27
000011b7 000502         6996 	.byte	0,5,2
000011ba 00000000*      6997 	.word	.LDWlin6
000011be 0b             6998 	.byte	11
000011bf 000502         6999 	.byte	0,5,2
000011c2 00000000*      7000 	.word	.LDWlin7
000011c6 0b             7001 	.byte	11
000011c7 000502         7002 	.byte	0,5,2
000011ca 00000000*      7003 	.word	.LDWlin8
000011ce 0b             7004 	.byte	11
000011cf 000502         7005 	.byte	0,5,2
000011d2 00000000*      7006 	.word	.LDWlin9
000011d6 0b             7007 	.byte	11
000011d7 000502         7008 	.byte	0,5,2
000011da 00000000*      7009 	.word	.LDWlin10
000011de 0b             7010 	.byte	11
000011df 02             7011 	.byte	2
000011e0 04             7012 	.byte	4
000011e1 000101         7013 	.byte	0,1,1
                        7014 	.section	.debug_info
                        7015 .LDW_4d5a6f8:
000016e6 1d             7016 	.byte	29
000016e7 00000000*      7017 	.word	.LDW41
000016eb 00000000*      7018 	.word	.LDW51
                        7019 
000016ef 00             7020 	.byte	0
                        7021 
000016f0 00             7022 	.byte	0
                        7023 
                        7024 .LDW_4ddb778:
000016f1 14             7025 	.byte	20
000016f2 52646353745f   7026 	.strz	"RdcSt__DataExistsInNvm"
000016f8 5f4461746145 
000016fe 786973747349 
00001704 6e4e766d00 
00001709 b804           7027 	.byte	184,4
0000170b 10             7028 	.byte	16
0000170c 01             7029 	.byte	1
0000170d 00000000*      7030 	.word	.LDW_4d1ff90
00001711 00000000*      7031 	.word	_RdcSt__DataExistsInNvm..C.3A.5C_ECU2.5CECU_Rivian_A1.5CTarget.5Crepo_projects.5CpRealEcu.5CcL_R2023.2E09.2E01.5Cmake.5Coutput.5Cobjects.5CRdcStandstill.
00001715 00000000*      7032 	.word	___ghs_eofn_RdcSt__DataExistsInNvm
00001719 0153           7033 	.byte	1,83
0000171b 8280808008     7034 	.byte	130,128,128,128,8

                                                                      Page 136
                                                              C:\Users\nhuliyap\AppData\Local\Temp\gh_0000b0k1.s
00001720 04             7035 	.byte	4
00001721 03             7036 	.byte	3
00001722 08             7037 	.byte	8
00001723 00             7038 	.byte	0
00001724 00             7039 	.byte	0
00001725 00             7040 	.byte	0
00001726 00             7041 	.byte	0
00001727 01             7042 	.byte	1
00001728 00             7043 	.byte	0
00001729 01             7044 	.byte	1
                        7045 
                        7046 	.section	.debug_frame
                        7047 .LDW_4edba18:
000002e0 00000000*      7048 	.word	.LDW_unq_2a-.LDW_unq_29
                        7049 .LDW_unq_29:
000002e4 00000000*      7050 	.word	.LDW_4d87930
000002e8 00000000*      7051 	.word	_RdcSt__DataExistsInNvm..C.3A.5C_ECU2.5CECU_Rivian_A1.5CTarget.5Crepo_projects.5CpRealEcu.5CcL_R2023.2E09.2E01.5Cmake.5Coutput.5Cobjects.5CRdcStandstill.
000002ec 00000000*      7052 	.word	___ghs_eofn_RdcSt__DataExistsInNvm-_RdcSt__DataExistsInNvm..C.3A.5C_ECU2.5CECU_Rivian_A1.5CTarget.5Crepo_projects.5CpRealEcu.5CcL_R2023.2E09.2E01.5Cmake.5Coutput.5Cobjects.5CRdcStandstill.
000002f0 44             7053 	.byte	68
000002f1 9f             7054 	.byte	159
000002f2 03             7055 	.byte	3
000002f3 01             7056 	.byte	1
000002f4 00000000*      7057 	.word	.LDW55
000002f8 44             7058 	.byte	68
000002f9 df             7059 	.byte	223
000002fa 00             7060 	.byte	0
000002fb 00             7061 	.byte	0
                        7062 .LDW_unq_2a:
                        7063 	.section	.debug_line
000011e4 000502         7064 	.byte	0,5,2
000011e7 00000000*      7065 	.word	_RdcSt__DataExistsInNvm..C.3A.5C_ECU2.5CECU_Rivian_A1.5CTarget.5Crepo_projects.5CpRealEcu.5CcL_R2023.2E09.2E01.5Cmake.5Coutput.5Cobjects.5CRdcStandstill.
000011eb 03             7066 	.byte	3
000011ec b704           7067 	.byte	183,4
000011ee 02             7068 	.byte	2
000011ef 00             7069 	.byte	0
000011f0 01             7070 	.byte	1
000011f1 06             7071 	.byte	6
000011f2 03             7072 	.byte	3
000011f3 04             7073 	.byte	4
000011f4 02             7074 	.byte	2
000011f5 04             7075 	.byte	4
000011f6 01             7076 	.byte	1
000011f7 000502         7077 	.byte	0,5,2
000011fa 00000000*      7078 	.word	.LDWlin148
000011fe 0c             7079 	.byte	12
000011ff 3b             7080 	.byte	59
00001200 0c             7081 	.byte	12
00001201 02             7082 	.byte	2
00001202 00             7083 	.byte	0
00001203 0c             7084 	.byte	12
00001204 02             7085 	.byte	2
00001205 04             7086 	.byte	4
00001206 000101         7087 	.byte	0,1,1
                        7088 	.section	.debug_info
                        7089 .LDW_4d5a9c8:
0000172a 1d             7090 	.byte	29
0000172b 00000000*      7091 	.word	.LDW45
0000172f 00000000*      7092 	.word	.LDW55
                        7093 
                        7094 .LDW_4cc3228:
00001733 04             7095 	.byte	4

                                                                      Page 137
                                                              C:\Users\nhuliyap\AppData\Local\Temp\gh_0000b0k1.s
00001734 424f5f446174   7096 	.strz	"BO_DataExists"
0000173a 614578697374 
00001740 7300 
00001742 b904           7097 	.byte	185,4
00001744 0b             7098 	.byte	11
00001745 01             7099 	.byte	1
00001746 00000000*      7100 	.word	.LDW_4d1ff90
0000174a 00             7101 	.byte	0
0000174b 00             7102 	.byte	0
0000174c 015a           7103 	.byte	1,90
                        7104 
                        7105 .LDW_4cc3a10:
0000174e 04             7106 	.byte	4
0000174f 55385f446174   7107 	.strz	"U8_DataExistence"
00001755 614578697374 
0000175b 656e636500 
00001760 ba04           7108 	.byte	186,4
00001762 09             7109 	.byte	9
00001763 01             7110 	.byte	1
00001764 00000000*      7111 	.word	.LDW_484bd60
00001768 00             7112 	.byte	0
00001769 00             7113 	.byte	0
0000176a 0273           7114 	.byte	2,115
0000176c 03             7115 	.byte	3
                        7116 
0000176d 00             7117 	.byte	0
                        7118 
0000176e 00             7119 	.byte	0
                        7120 
                        7121 .LDW_4ddbe98:
0000176f 13             7122 	.byte	19
00001770 5264635f5f43   7123 	.strz	"Rdc__ConvertLatestReceptionToEpochTime"
00001776 6f6e76657274 
0000177c 4c6174657374 
00001782 526563657074 
00001788 696f6e546f45 
0000178e 706f63685469 
00001794 6d6500 
00001797 c604           7124 	.byte	198,4
00001799 0d             7125 	.byte	13
0000179a 01             7126 	.byte	1
0000179b 00000000*      7127 	.word	_Rdc__ConvertLatestReceptionToEpochTime..C.3A.5C_ECU2.5CECU_Rivian_A1.5CTarget.5Crepo_projects.5CpRealEcu.5CcL_R2023.2E09.2E01.5Cmake.5Coutput.5Cobjects.5CRdcStandstill.
0000179f 00000000*      7128 	.word	___ghs_eofn_Rdc__ConvertLatestReceptionToEpochTime
000017a3 0153           7129 	.byte	1,83
000017a5 828080ff0b     7130 	.byte	130,128,128,255,11
000017aa 28             7131 	.byte	40
000017ab 03             7132 	.byte	3
000017ac 2c             7133 	.byte	44
000017ad 00             7134 	.byte	0
000017ae 00             7135 	.byte	0
000017af 00             7136 	.byte	0
000017b0 00             7137 	.byte	0
000017b1 01             7138 	.byte	1
000017b2 00             7139 	.byte	0
000017b3 01             7140 	.byte	1
                        7141 
                        7142 	.section	.debug_frame
                        7143 .LDW_4edb158:
000002fc 00000000*      7144 	.word	.LDW_unq_2c-.LDW_unq_2b
                        7145 .LDW_unq_2b:
00000300 00000000*      7146 	.word	.LDW_4d87930

                                                                      Page 138
                                                              C:\Users\nhuliyap\AppData\Local\Temp\gh_0000b0k1.s
00000304 00000000*      7147 	.word	_Rdc__ConvertLatestReceptionToEpochTime..C.3A.5C_ECU2.5CECU_Rivian_A1.5CTarget.5Crepo_projects.5CpRealEcu.5CcL_R2023.2E09.2E01.5Cmake.5Coutput.5Cobjects.5CRdcStandstill.
00000308 00000000*      7148 	.word	___ghs_eofn_Rdc__ConvertLatestReceptionToEpochTime-_Rdc__ConvertLatestReceptionToEpochTime..C.3A.5C_ECU2.5CECU_Rivian_A1.5CTarget.5Crepo_projects.5CpRealEcu.5CcL_R2023.2E09.2E01.5Cmake.5Coutput.5Cobjects.5CRdcStandstill.
0000030c 44             7149 	.byte	68
0000030d 9f             7150 	.byte	159
0000030e 03             7151 	.byte	3
0000030f 40             7152 	.byte	64
00000310 9d             7153 	.byte	157
00000311 07             7154 	.byte	7
00000312 40             7155 	.byte	64
00000313 9c             7156 	.byte	156
00000314 0b             7157 	.byte	11
00000315 40             7158 	.byte	64
00000316 9b             7159 	.byte	155
00000317 0f             7160 	.byte	15
00000318 40             7161 	.byte	64
00000319 9a             7162 	.byte	154
0000031a 13             7163 	.byte	19
0000031b 40             7164 	.byte	64
0000031c 99             7165 	.byte	153
0000031d 17             7166 	.byte	23
0000031e 40             7167 	.byte	64
0000031f 98             7168 	.byte	152
00000320 1b             7169 	.byte	27
00000321 40             7170 	.byte	64
00000322 97             7171 	.byte	151
00000323 1f             7172 	.byte	31
00000324 40             7173 	.byte	64
00000325 96             7174 	.byte	150
00000326 23             7175 	.byte	35
00000327 40             7176 	.byte	64
00000328 95             7177 	.byte	149
00000329 27             7178 	.byte	39
0000032a 01             7179 	.byte	1
0000032b 00000000*      7180 	.word	.LDW93
0000032f 00             7181 	.byte	0
                        7182 .LDW_unq_2c:
                        7183 	.section	.debug_line
00001209 000502         7184 	.byte	0,5,2
0000120c 00000000*      7185 	.word	_Rdc__ConvertLatestReceptionToEpochTime..C.3A.5C_ECU2.5CECU_Rivian_A1.5CTarget.5Crepo_projects.5CpRealEcu.5CcL_R2023.2E09.2E01.5Cmake.5Coutput.5Cobjects.5CRdcStandstill.
00001210 03             7186 	.byte	3
00001211 c604           7187 	.byte	198,4
00001213 02             7188 	.byte	2
00001214 00             7189 	.byte	0
00001215 01             7190 	.byte	1
00001216 06             7191 	.byte	6
00001217 24             7192 	.byte	36
00001218 03             7193 	.byte	3
00001219 0d             7194 	.byte	13
0000121a 02             7195 	.byte	2
0000121b 02             7196 	.byte	2
0000121c 01             7197 	.byte	1
0000121d 02             7198 	.byte	2
0000121e 02             7199 	.byte	2
0000121f 0c             7200 	.byte	12
00001220 000502         7201 	.byte	0,5,2
00001223 00000000*      7202 	.word	.LDWlin66
00001227 0b             7203 	.byte	11
00001228 0c             7204 	.byte	12
00001229 02             7205 	.byte	2
0000122a 00             7206 	.byte	0
0000122b 03             7207 	.byte	3

                                                                      Page 139
                                                              C:\Users\nhuliyap\AppData\Local\Temp\gh_0000b0k1.s
0000122c 7b             7208 	.byte	123
0000122d 02             7209 	.byte	2
0000122e 00             7210 	.byte	0
0000122f 01             7211 	.byte	1
00001230 000502         7212 	.byte	0,5,2
00001233 00000000*      7213 	.word	.LDWlin67
00001237 03             7214 	.byte	3
00001238 06             7215 	.byte	6
00001239 02             7216 	.byte	2
0000123a 00             7217 	.byte	0
0000123b 01             7218 	.byte	1
0000123c 03             7219 	.byte	3
0000123d 08             7220 	.byte	8
0000123e 02             7221 	.byte	2
0000123f 00             7222 	.byte	0
00001240 01             7223 	.byte	1
00001241 000502         7224 	.byte	0,5,2
00001244 00000000*      7225 	.word	.LDWlin68
00001248 0d             7226 	.byte	13
00001249 000502         7227 	.byte	0,5,2
0000124c 00000000*      7228 	.word	.LDWlin69
00001250 0b             7229 	.byte	11
00001251 000502         7230 	.byte	0,5,2
00001254 00000000*      7231 	.word	.LDWlin70
00001258 03             7232 	.byte	3
00001259 04             7233 	.byte	4
0000125a 02             7234 	.byte	2
0000125b 00             7235 	.byte	0
0000125c 01             7236 	.byte	1
0000125d 000502         7237 	.byte	0,5,2
00001260 00000000*      7238 	.word	.LDWlin71
00001264 0b             7239 	.byte	11
00001265 23             7240 	.byte	35
00001266 0c             7241 	.byte	12
00001267 02             7242 	.byte	2
00001268 00             7243 	.byte	0
00001269 0b             7244 	.byte	11
0000126a 000502         7245 	.byte	0,5,2
0000126d 00000000*      7246 	.word	.LDWlin72
00001271 03             7247 	.byte	3
00001272 04             7248 	.byte	4
00001273 02             7249 	.byte	2
00001274 00             7250 	.byte	0
00001275 01             7251 	.byte	1
00001276 000502         7252 	.byte	0,5,2
00001279 00000000*      7253 	.word	.LDWlin73
0000127d 0b             7254 	.byte	11
0000127e 3b             7255 	.byte	59
0000127f 0c             7256 	.byte	12
00001280 02             7257 	.byte	2
00001281 00             7258 	.byte	0
00001282 0b             7259 	.byte	11
00001283 000502         7260 	.byte	0,5,2
00001286 00000000*      7261 	.word	.LDWlin74
0000128a 03             7262 	.byte	3
0000128b 04             7263 	.byte	4
0000128c 02             7264 	.byte	2
0000128d 00             7265 	.byte	0
0000128e 01             7266 	.byte	1
0000128f 000502         7267 	.byte	0,5,2
00001292 00000000*      7268 	.word	.LDWlin75

                                                                      Page 140
                                                              C:\Users\nhuliyap\AppData\Local\Temp\gh_0000b0k1.s
00001296 0b             7269 	.byte	11
00001297 03             7270 	.byte	3
00001298 07             7271 	.byte	7
00001299 02             7272 	.byte	2
0000129a 06             7273 	.byte	6
0000129b 01             7274 	.byte	1
0000129c 03             7275 	.byte	3
0000129d 7a             7276 	.byte	122
0000129e 02             7277 	.byte	2
0000129f 02             7278 	.byte	2
000012a0 01             7279 	.byte	1
000012a1 0c             7280 	.byte	12
000012a2 02             7281 	.byte	2
000012a3 00             7282 	.byte	0
000012a4 0b             7283 	.byte	11
000012a5 000502         7284 	.byte	0,5,2
000012a8 00000000*      7285 	.word	.LDWlin76
000012ac 03             7286 	.byte	3
000012ad 04             7287 	.byte	4
000012ae 02             7288 	.byte	2
000012af 00             7289 	.byte	0
000012b0 01             7290 	.byte	1
000012b1 000502         7291 	.byte	0,5,2
000012b4 00000000*      7292 	.word	.LDWlin77
000012b8 0d             7293 	.byte	13
000012b9 000502         7294 	.byte	0,5,2
000012bc 00000000*      7295 	.word	.LDWlin78
000012c0 0b             7296 	.byte	11
000012c1 000502         7297 	.byte	0,5,2
000012c4 00000000*      7298 	.word	.LDWlin79
000012c8 0b             7299 	.byte	11
000012c9 000502         7300 	.byte	0,5,2
000012cc 00000000*      7301 	.word	.LDWlin80
000012d0 0b             7302 	.byte	11
000012d1 000502         7303 	.byte	0,5,2
000012d4 00000000*      7304 	.word	.LDWlin81
000012d8 0b             7305 	.byte	11
000012d9 000502         7306 	.byte	0,5,2
000012dc 00000000*      7307 	.word	.LDWlin82
000012e0 0b             7308 	.byte	11
000012e1 000502         7309 	.byte	0,5,2
000012e4 00000000*      7310 	.word	.LDWlin83
000012e8 0d             7311 	.byte	13
000012e9 02             7312 	.byte	2
000012ea 08             7313 	.byte	8
000012eb 0c             7314 	.byte	12
000012ec 000502         7315 	.byte	0,5,2
000012ef 00000000*      7316 	.word	.LDWlin84
000012f3 0b             7317 	.byte	11
000012f4 0b             7318 	.byte	11
000012f5 3b             7319 	.byte	59
000012f6 000502         7320 	.byte	0,5,2
000012f9 00000000*      7321 	.word	.LDWlin85
000012fd 0b             7322 	.byte	11
000012fe 02             7323 	.byte	2
000012ff 00             7324 	.byte	0
00001300 03             7325 	.byte	3
00001301 7a             7326 	.byte	122
00001302 02             7327 	.byte	2
00001303 00             7328 	.byte	0
00001304 01             7329 	.byte	1

                                                                      Page 141
                                                              C:\Users\nhuliyap\AppData\Local\Temp\gh_0000b0k1.s
00001305 000502         7330 	.byte	0,5,2
00001308 00000000*      7331 	.word	.LDWlin86
0000130c 03             7332 	.byte	3
0000130d 07             7333 	.byte	7
0000130e 02             7334 	.byte	2
0000130f 00             7335 	.byte	0
00001310 01             7336 	.byte	1
00001311 0c             7337 	.byte	12
00001312 000502         7338 	.byte	0,5,2
00001315 00000000*      7339 	.word	.LDWlin87
00001319 0b             7340 	.byte	11
0000131a 000502         7341 	.byte	0,5,2
0000131d 00000000*      7342 	.word	.LDWlin88
00001321 0b             7343 	.byte	11
00001322 000502         7344 	.byte	0,5,2
00001325 00000000*      7345 	.word	.LDWlin89
00001329 0b             7346 	.byte	11
0000132a 000502         7347 	.byte	0,5,2
0000132d 00000000*      7348 	.word	.LDWlin90
00001331 0c             7349 	.byte	12
00001332 03             7350 	.byte	3
00001333 7f             7351 	.byte	127
00001334 02             7352 	.byte	2
00001335 06             7353 	.byte	6
00001336 01             7354 	.byte	1
00001337 000502         7355 	.byte	0,5,2
0000133a 00000000*      7356 	.word	.LDWlin91
0000133e 0c             7357 	.byte	12
0000133f 000502         7358 	.byte	0,5,2
00001342 00000000*      7359 	.word	.LDWlin92
00001346 0c             7360 	.byte	12
00001347 03             7361 	.byte	3
00001348 7f             7362 	.byte	127
00001349 02             7363 	.byte	2
0000134a 0a             7364 	.byte	10
0000134b 01             7365 	.byte	1
0000134c 000502         7366 	.byte	0,5,2
0000134f 00000000*      7367 	.word	.LDWlin93
00001353 0c             7368 	.byte	12
00001354 000502         7369 	.byte	0,5,2
00001357 00000000*      7370 	.word	.LDWlin94
0000135b 0c             7371 	.byte	12
0000135c 03             7372 	.byte	3
0000135d 7f             7373 	.byte	127
0000135e 02             7374 	.byte	2
0000135f 06             7375 	.byte	6
00001360 01             7376 	.byte	1
00001361 000502         7377 	.byte	0,5,2
00001364 00000000*      7378 	.word	.LDWlin95
00001368 0c             7379 	.byte	12
00001369 000502         7380 	.byte	0,5,2
0000136c 00000000*      7381 	.word	.LDWlin96
00001370 0c             7382 	.byte	12
00001371 03             7383 	.byte	3
00001372 7f             7384 	.byte	127
00001373 02             7385 	.byte	2
00001374 06             7386 	.byte	6
00001375 01             7387 	.byte	1
00001376 000502         7388 	.byte	0,5,2
00001379 00000000*      7389 	.word	.LDWlin97
0000137d 0c             7390 	.byte	12

                                                                      Page 142
                                                              C:\Users\nhuliyap\AppData\Local\Temp\gh_0000b0k1.s
0000137e 000502         7391 	.byte	0,5,2
00001381 00000000*      7392 	.word	.LDWlin98
00001385 0b             7393 	.byte	11
00001386 13             7394 	.byte	19
00001387 000502         7395 	.byte	0,5,2
0000138a 00000000*      7396 	.word	.LDWlin99
0000138e 0b             7397 	.byte	11
0000138f 000502         7398 	.byte	0,5,2
00001392 00000000*      7399 	.word	.LDWlin100
00001396 0b             7400 	.byte	11
00001397 13             7401 	.byte	19
00001398 02             7402 	.byte	2
00001399 04             7403 	.byte	4
0000139a 000101         7404 	.byte	0,1,1
                        7405 	.section	.debug_info
                        7406 .LDW_4cc3280:
000017b4 0f             7407 	.byte	15
000017b5 5055385f5469   7408 	.strz	"PU8_TimeAndDateString"
000017bb 6d65416e6444 
000017c1 617465537472 
000017c7 696e6700 
000017cb c604           7409 	.byte	198,4
000017cd 3b             7410 	.byte	59
000017ce 01             7411 	.byte	1
000017cf 00000000*      7412 	.word	.LDW_48374a8
000017d3 00             7413 	.byte	0
000017d4 016b           7414 	.byte	1,107
                        7415 
                        7416 .LDW_4d5ab18:
000017d6 1d             7417 	.byte	29
000017d7 00000000*      7418 	.word	.LDW83
000017db 00000000*      7419 	.word	.LDW93
                        7420 
                        7421 .LDW_4cc3908:
000017df 04             7422 	.byte	4
000017e0 55385f436f75   7423 	.strz	"U8_Counter"
000017e6 6e74657200 
000017eb c804           7424 	.byte	200,4
000017ed 09             7425 	.byte	9
000017ee 01             7426 	.byte	1
000017ef 00000000*      7427 	.word	.LDW_484bd60
000017f3 00             7428 	.byte	0
000017f4 00             7429 	.byte	0
000017f5 015c           7430 	.byte	1,92
                        7431 
                        7432 .LDW_4cc3070:
000017f7 04             7433 	.byte	4
000017f8 5533325f4c61   7434 	.strz	"U32_LatestReceptionTimestamp_xms"
000017fe 746573745265 
00001804 63657074696f 
0000180a 6e54696d6573 
00001810 74616d705f78 
00001816 6d7300 
00001819 c904           7435 	.byte	201,4
0000181b 0a             7436 	.byte	10
0000181c 01             7437 	.byte	1
0000181d 00000000*      7438 	.word	.LDW_4d3a4c8
00001821 00             7439 	.byte	0
00001822 00             7440 	.byte	0
00001823 015b           7441 	.byte	1,91
                        7442 

                                                                      Page 143
                                                              C:\Users\nhuliyap\AppData\Local\Temp\gh_0000b0k1.s
                        7443 .LDW_4cc36f8:
00001825 05             7444 	.byte	5
00001826 5536345f4570   7445 	.strz	"U64_EpochTime"
0000182c 6f636854696d 
00001832 6500 
00001834 ca04           7446 	.byte	202,4
00001836 0a             7447 	.byte	10
00001837 01             7448 	.byte	1
00001838 00000000*      7449 	.word	.LDW_4cc39b8
0000183c 00             7450 	.byte	0
0000183d 00             7451 	.byte	0
                        7452 
                        7453 .LDW_4cc35f0:
0000183e 04             7454 	.byte	4
0000183f 73656300       7455 	.strz	"sec"
00001843 cb04           7456 	.byte	203,4
00001845 0a             7457 	.byte	10
00001846 01             7458 	.byte	1
00001847 00000000*      7459 	.word	.LDW_4cc39b8
0000184b 00             7460 	.byte	0
0000184c 00             7461 	.byte	0
0000184d 016c           7462 	.byte	1,108
                        7463 
                        7464 .LDW_4cc38b0:
0000184f 04             7465 	.byte	4
00001850 717561647269   7466 	.strz	"quadricentennials"
00001856 63656e74656e 
0000185c 6e69616c7300 
00001862 cc04           7467 	.byte	204,4
00001864 0a             7468 	.byte	10
00001865 01             7469 	.byte	1
00001866 00000000*      7470 	.word	.LDW_4d39ce0
0000186a 00             7471 	.byte	0
0000186b 00             7472 	.byte	0
0000186c 0167           7473 	.byte	1,103
                        7474 
                        7475 .LDW_4cc32d8:
0000186e 04             7476 	.byte	4
0000186f 63656e74656e   7477 	.strz	"centennials"
00001875 6e69616c7300 
0000187b cc04           7478 	.byte	204,4
0000187d 1d             7479 	.byte	29
0000187e 01             7480 	.byte	1
0000187f 00000000*      7481 	.word	.LDW_4d39ce0
00001883 00             7482 	.byte	0
00001884 00             7483 	.byte	0
00001885 016a           7484 	.byte	1,106
                        7485 
                        7486 .LDW_4cc3330:
00001887 04             7487 	.byte	4
00001888 717561647265   7488 	.strz	"quadrennials"
0000188e 6e6e69616c73 
00001894 00 
00001895 cc04           7489 	.byte	204,4
00001897 2a             7490 	.byte	42
00001898 01             7491 	.byte	1
00001899 00000000*      7492 	.word	.LDW_4d39ce0
0000189d 00             7493 	.byte	0
0000189e 00             7494 	.byte	0
0000189f 0169           7495 	.byte	1,105
                        7496 

                                                                      Page 144
                                                              C:\Users\nhuliyap\AppData\Local\Temp\gh_0000b0k1.s
                        7497 .LDW_4cc30c8:
000018a1 04             7498 	.byte	4
000018a2 616e6e75616c   7499 	.strz	"annuals"
000018a8 7300 
000018aa cc04           7500 	.byte	204,4
000018ac 38             7501 	.byte	56
000018ad 01             7502 	.byte	1
000018ae 00000000*      7503 	.word	.LDW_4d39ce0
000018b2 00             7504 	.byte	0
000018b3 00             7505 	.byte	0
000018b4 015a           7506 	.byte	1,90
                        7507 
                        7508 .LDW_4cc3960:
000018b6 04             7509 	.byte	4
000018b7 7965617200     7510 	.strz	"year"
000018bc cd04           7511 	.byte	205,4
000018be 0a             7512 	.byte	10
000018bf 01             7513 	.byte	1
000018c0 00000000*      7514 	.word	.LDW_4d39ce0
000018c4 00             7515 	.byte	0
000018c5 00             7516 	.byte	0
000018c6 016a           7517 	.byte	1,106
                        7518 
                        7519 .LDW_4cc3800:
000018c8 04             7520 	.byte	4
000018c9 6c65617000     7521 	.strz	"leap"
000018ce cd04           7522 	.byte	205,4
000018d0 10             7523 	.byte	16
000018d1 01             7524 	.byte	1
000018d2 00000000*      7525 	.word	.LDW_4d39ce0
000018d6 00             7526 	.byte	0
000018d7 00             7527 	.byte	0
000018d8 0166           7528 	.byte	1,102
                        7529 
                        7530 .LDW_4cc3750:
000018da 04             7531 	.byte	4
000018db 7964617900     7532 	.strz	"yday"
000018e0 ce04           7533 	.byte	206,4
000018e2 0a             7534 	.byte	10
000018e3 01             7535 	.byte	1
000018e4 00000000*      7536 	.word	.LDW_4d39ce0
000018e8 00             7537 	.byte	0
000018e9 00             7538 	.byte	0
000018ea 0169           7539 	.byte	1,105
                        7540 
                        7541 .LDW_4cc37a8:
000018ec 04             7542 	.byte	4
000018ed 686f757200     7543 	.strz	"hour"
000018f2 ce04           7544 	.byte	206,4
000018f4 10             7545 	.byte	16
000018f5 01             7546 	.byte	1
000018f6 00000000*      7547 	.word	.LDW_4d39ce0
000018fa 00             7548 	.byte	0
000018fb 00             7549 	.byte	0
000018fc 0273           7550 	.byte	2,115
000018fe 00             7551 	.byte	0
                        7552 
                        7553 .LDW_4cc3598:
000018ff 04             7554 	.byte	4
00001900 6d696e00       7555 	.strz	"min"
00001904 ce04           7556 	.byte	206,4

                                                                      Page 145
                                                              C:\Users\nhuliyap\AppData\Local\Temp\gh_0000b0k1.s
00001906 16             7557 	.byte	22
00001907 01             7558 	.byte	1
00001908 00000000*      7559 	.word	.LDW_4d39ce0
0000190c 00             7560 	.byte	0
0000190d 00             7561 	.byte	0
0000190e 0273           7562 	.byte	2,115
00001910 02             7563 	.byte	2
                        7564 
                        7565 .LDW_4cc3ac0:
00001911 04             7566 	.byte	4
00001912 6d6f6e746800   7567 	.strz	"month"
00001918 cf04           7568 	.byte	207,4
0000191a 0a             7569 	.byte	10
0000191b 01             7570 	.byte	1
0000191c 00000000*      7571 	.word	.LDW_4d39ce0
00001920 00             7572 	.byte	0
00001921 00             7573 	.byte	0
00001922 0168           7574 	.byte	1,104
                        7575 
                        7576 .LDW_4cc3858:
00001924 04             7577 	.byte	4
00001925 6d64617900     7578 	.strz	"mday"
0000192a cf04           7579 	.byte	207,4
0000192c 11             7580 	.byte	17
0000192d 01             7581 	.byte	1
0000192e 00000000*      7582 	.word	.LDW_4d39ce0
00001932 00             7583 	.byte	0
00001933 00             7584 	.byte	0
00001934 0167           7585 	.byte	1,103
                        7586 
                        7587 .LDW_4cc3018:
00001936 04             7588 	.byte	4
00001937 646179735369   7589 	.strz	"daysSinceJan1st"
0000193d 6e63654a616e 
00001943 31737400 
00001947 d004           7590 	.byte	208,4
00001949 17             7591 	.byte	23
0000194a 01             7592 	.byte	1
0000194b 00000000*      7593 	.word	.LDW_481df00
0000194f 00             7594 	.byte	0
00001950 00             7595 	.byte	0
00001951 0503           7596 	.byte	5,3
00001953 00000000*      7597 	.word	_daysSinceJan1st.Rdc__ConvertLatestReceptionToEpochTime.C.3A.5C_ECU2.5CECU_Rivian_A1.5CTarget.5Crepo_projects.5CpRealEcu.5CcL_R2023.2E09.2E01.5Cmake.5Coutput.5Cobjects.5CRdcStandstill..17
                        7598 
00001957 00             7599 	.byte	0
                        7600 
00001958 00             7601 	.byte	0
                        7602 
                        7603 .LDW_4ddb480:
00001959 13             7604 	.byte	19
0000195a 52646353745f   7605 	.strz	"RdcSt__SaveStatusInNvm"
00001960 5f5361766553 
00001966 746174757349 
0000196c 6e4e766d00 
00001971 b105           7606 	.byte	177,5
00001973 0d             7607 	.byte	13
00001974 01             7608 	.byte	1
00001975 00000000*      7609 	.word	_RdcSt__SaveStatusInNvm..C.3A.5C_ECU2.5CECU_Rivian_A1.5CTarget.5Crepo_projects.5CpRealEcu.5CcL_R2023.2E09.2E01.5Cmake.5Coutput.5Cobjects.5CRdcStandstill.
00001979 00000000*      7610 	.word	___ghs_eofn_RdcSt__SaveStatusInNvm
0000197d 0153           7611 	.byte	1,83
0000197f 828080800a     7612 	.byte	130,128,128,128,10

                                                                      Page 146
                                                              C:\Users\nhuliyap\AppData\Local\Temp\gh_0000b0k1.s
00001984 08             7613 	.byte	8
00001985 03             7614 	.byte	3
00001986 20             7615 	.byte	32
00001987 00             7616 	.byte	0
00001988 00             7617 	.byte	0
00001989 00             7618 	.byte	0
0000198a 00             7619 	.byte	0
0000198b 01             7620 	.byte	1
0000198c 00             7621 	.byte	0
0000198d 01             7622 	.byte	1
                        7623 
                        7624 	.section	.debug_frame
                        7625 .LDW_4edb298:
00000330 00000000*      7626 	.word	.LDW_unq_2e-.LDW_unq_2d
                        7627 .LDW_unq_2d:
00000334 00000000*      7628 	.word	.LDW_4d87930
00000338 00000000*      7629 	.word	_RdcSt__SaveStatusInNvm..C.3A.5C_ECU2.5CECU_Rivian_A1.5CTarget.5Crepo_projects.5CpRealEcu.5CcL_R2023.2E09.2E01.5Cmake.5Coutput.5Cobjects.5CRdcStandstill.
0000033c 00000000*      7630 	.word	___ghs_eofn_RdcSt__SaveStatusInNvm-_RdcSt__SaveStatusInNvm..C.3A.5C_ECU2.5CECU_Rivian_A1.5CTarget.5Crepo_projects.5CpRealEcu.5CcL_R2023.2E09.2E01.5Cmake.5Coutput.5Cobjects.5CRdcStandstill.
00000340 44             7631 	.byte	68
00000341 9f             7632 	.byte	159
00000342 12             7633 	.byte	18
00000343 40             7634 	.byte	64
00000344 9d             7635 	.byte	157
00000345 16             7636 	.byte	22
00000346 01             7637 	.byte	1
00000347 00000000*      7638 	.word	.LDW14
0000034b 44             7639 	.byte	68
0000034c df             7640 	.byte	223
0000034d 40             7641 	.byte	64
0000034e dd             7642 	.byte	221
0000034f 00             7643 	.byte	0
                        7644 .LDW_unq_2e:
                        7645 	.section	.debug_line
0000139d 000502         7646 	.byte	0,5,2
000013a0 00000000*      7647 	.word	_RdcSt__SaveStatusInNvm..C.3A.5C_ECU2.5CECU_Rivian_A1.5CTarget.5Crepo_projects.5CpRealEcu.5CcL_R2023.2E09.2E01.5Cmake.5Coutput.5Cobjects.5CRdcStandstill.
000013a4 03             7648 	.byte	3
000013a5 b005           7649 	.byte	176,5
000013a7 02             7650 	.byte	2
000013a8 00             7651 	.byte	0
000013a9 01             7652 	.byte	1
000013aa 06             7653 	.byte	6
000013ab 03             7654 	.byte	3
000013ac 04             7655 	.byte	4
000013ad 02             7656 	.byte	2
000013ae 04             7657 	.byte	4
000013af 01             7658 	.byte	1
000013b0 000502         7659 	.byte	0,5,2
000013b3 00000000*      7660 	.word	.LDWlin101
000013b7 0c             7661 	.byte	12
000013b8 03             7662 	.byte	3
000013b9 7f             7663 	.byte	127
000013ba 02             7664 	.byte	2
000013bb 06             7665 	.byte	6
000013bc 01             7666 	.byte	1
000013bd 000502         7667 	.byte	0,5,2
000013c0 00000000*      7668 	.word	.LDWlin102
000013c4 0d             7669 	.byte	13
000013c5 24             7670 	.byte	36
000013c6 03             7671 	.byte	3
000013c7 7f             7672 	.byte	127
000013c8 02             7673 	.byte	2

                                                                      Page 147
                                                              C:\Users\nhuliyap\AppData\Local\Temp\gh_0000b0k1.s
000013c9 0a             7674 	.byte	10
000013ca 01             7675 	.byte	1
000013cb 000502         7676 	.byte	0,5,2
000013ce 00000000*      7677 	.word	.LDWlin103
000013d2 0d             7678 	.byte	13
000013d3 24             7679 	.byte	36
000013d4 03             7680 	.byte	3
000013d5 7f             7681 	.byte	127
000013d6 02             7682 	.byte	2
000013d7 0c             7683 	.byte	12
000013d8 01             7684 	.byte	1
000013d9 000502         7685 	.byte	0,5,2
000013dc 00000000*      7686 	.word	.LDWlin104
000013e0 0d             7687 	.byte	13
000013e1 24             7688 	.byte	36
000013e2 03             7689 	.byte	3
000013e3 7f             7690 	.byte	127
000013e4 02             7691 	.byte	2
000013e5 0c             7692 	.byte	12
000013e6 01             7693 	.byte	1
000013e7 000502         7694 	.byte	0,5,2
000013ea 00000000*      7695 	.word	.LDWlin105
000013ee 0d             7696 	.byte	13
000013ef 000502         7697 	.byte	0,5,2
000013f2 00000000*      7698 	.word	.LDWlin106
000013f6 0b             7699 	.byte	11
000013f7 000502         7700 	.byte	0,5,2
000013fa 00000000*      7701 	.word	.LDWlin107
000013fe 0c             7702 	.byte	12
000013ff 000502         7703 	.byte	0,5,2
00001402 00000000*      7704 	.word	.LDWlin108
00001406 03             7705 	.byte	3
00001407 04             7706 	.byte	4
00001408 02             7707 	.byte	2
00001409 00             7708 	.byte	0
0000140a 01             7709 	.byte	1
0000140b 03             7710 	.byte	3
0000140c 7d             7711 	.byte	125
0000140d 02             7712 	.byte	2
0000140e 08             7713 	.byte	8
0000140f 01             7714 	.byte	1
00001410 13             7715 	.byte	19
00001411 43             7716 	.byte	67
00001412 000502         7717 	.byte	0,5,2
00001415 00000000*      7718 	.word	.LDWlin109
00001419 0c             7719 	.byte	12
0000141a 02             7720 	.byte	2
0000141b 04             7721 	.byte	4
0000141c 000101         7722 	.byte	0,1,1
                        7723 	.section	.debug_info
                        7724 .LDW_4d5a788:
0000198e 1d             7725 	.byte	29
0000198f 00000000*      7726 	.word	.LDW04
00001993 00000000*      7727 	.word	.LDW14
                        7728 
                        7729 .LDW_4cc3120:
00001997 04             7730 	.byte	4
00001998 4155385f5469   7731 	.strz	"AU8_TimeAndDateString"
0000199e 6d65416e6444 
000019a4 617465537472 
000019aa 696e6700 

                                                                      Page 148
                                                              C:\Users\nhuliyap\AppData\Local\Temp\gh_0000b0k1.s
000019ae b205           7732 	.byte	178,5
000019b0 09             7733 	.byte	9
000019b1 01             7734 	.byte	1
000019b2 00000000*      7735 	.word	.LDW_481df88
000019b6 00             7736 	.byte	0
000019b7 00             7737 	.byte	0
000019b8 0273           7738 	.byte	2,115
000019ba 04             7739 	.byte	4
                        7740 
                        7741 .LDW_4cc3178:
000019bb 04             7742 	.byte	4
000019bc 4155385f5465   7743 	.strz	"AU8_TemporaryBuffer"
000019c2 6d706f726172 
000019c8 794275666665 
000019ce 7200 
000019d0 b305           7744 	.byte	179,5
000019d2 09             7745 	.byte	9
000019d3 01             7746 	.byte	1
000019d4 00000000*      7747 	.word	.LDW_481e010
000019d8 00             7748 	.byte	0
000019d9 00             7749 	.byte	0
000019da 0273           7750 	.byte	2,115
000019dc 00             7751 	.byte	0
                        7752 
000019dd 00             7753 	.byte	0
                        7754 
000019de 00             7755 	.byte	0
                        7756 
                        7757 .LDW_4ddb518:
000019df 13             7758 	.byte	19
000019e0 52646353745f   7759 	.strz	"RdcSt__ReadAndSortIDs"
000019e6 5f5265616441 
000019ec 6e64536f7274 
000019f2 49447300 
000019f6 cf05           7760 	.byte	207,5
000019f8 0d             7761 	.byte	13
000019f9 01             7762 	.byte	1
000019fa 00000000*      7763 	.word	_RdcSt__ReadAndSortIDs..C.3A.5C_ECU2.5CECU_Rivian_A1.5CTarget.5Crepo_projects.5CpRealEcu.5CcL_R2023.2E09.2E01.5Cmake.5Coutput.5Cobjects.5CRdcStandstill.
000019fe 00000000*      7764 	.word	___ghs_eofn_RdcSt__ReadAndSortIDs
00001a02 0153           7765 	.byte	1,83
00001a04 8280808008     7766 	.byte	130,128,128,128,8
00001a09 04             7767 	.byte	4
00001a0a 03             7768 	.byte	3
00001a0b 18             7769 	.byte	24
00001a0c 00             7770 	.byte	0
00001a0d 00             7771 	.byte	0
00001a0e 00             7772 	.byte	0
00001a0f 00             7773 	.byte	0
00001a10 01             7774 	.byte	1
00001a11 00             7775 	.byte	0
00001a12 01             7776 	.byte	1
                        7777 
                        7778 	.section	.debug_frame
                        7779 .LDW_4edae58:
00000350 00000000*      7780 	.word	.LDW_unq_30-.LDW_unq_2f
                        7781 .LDW_unq_2f:
00000354 00000000*      7782 	.word	.LDW_4d87930
00000358 00000000*      7783 	.word	_RdcSt__ReadAndSortIDs..C.3A.5C_ECU2.5CECU_Rivian_A1.5CTarget.5Crepo_projects.5CpRealEcu.5CcL_R2023.2E09.2E01.5Cmake.5Coutput.5Cobjects.5CRdcStandstill.
0000035c 00000000*      7784 	.word	___ghs_eofn_RdcSt__ReadAndSortIDs-_RdcSt__ReadAndSortIDs..C.3A.5C_ECU2.5CECU_Rivian_A1.5CTarget.5Crepo_projects.5CpRealEcu.5CcL_R2023.2E09.2E01.5Cmake.5Coutput.5Cobjects.5CRdcStandstill.
00000360 44             7785 	.byte	68
00000361 9f             7786 	.byte	159

                                                                      Page 149
                                                              C:\Users\nhuliyap\AppData\Local\Temp\gh_0000b0k1.s
00000362 0f             7787 	.byte	15
00000363 01             7788 	.byte	1
00000364 00000000*      7789 	.word	.LDW71
                        7790 .LDW_unq_30:
                        7791 	.section	.debug_line
0000141f 000502         7792 	.byte	0,5,2
00001422 00000000*      7793 	.word	_RdcSt__ReadAndSortIDs..C.3A.5C_ECU2.5CECU_Rivian_A1.5CTarget.5Crepo_projects.5CpRealEcu.5CcL_R2023.2E09.2E01.5Cmake.5Coutput.5Cobjects.5CRdcStandstill.
00001426 03             7794 	.byte	3
00001427 ce05           7795 	.byte	206,5
00001429 02             7796 	.byte	2
0000142a 00             7797 	.byte	0
0000142b 01             7798 	.byte	1
0000142c 06             7799 	.byte	6
0000142d 03             7800 	.byte	3
0000142e 05             7801 	.byte	5
0000142f 02             7802 	.byte	2
00001430 04             7803 	.byte	4
00001431 01             7804 	.byte	1
00001432 000502         7805 	.byte	0,5,2
00001435 00000000*      7806 	.word	.LDWlin11
00001439 0b             7807 	.byte	11
0000143a 000502         7808 	.byte	0,5,2
0000143d 00000000*      7809 	.word	.LDWlin12
00001441 0c             7810 	.byte	12
00001442 02             7811 	.byte	2
00001443 02             7812 	.byte	2
00001444 0c             7813 	.byte	12
00001445 000502         7814 	.byte	0,5,2
00001448 00000000*      7815 	.word	.LDWlin13
0000144c 0b             7816 	.byte	11
0000144d 0b             7817 	.byte	11
0000144e 000502         7818 	.byte	0,5,2
00001451 00000000*      7819 	.word	.LDWlin14
00001455 0b             7820 	.byte	11
00001456 02             7821 	.byte	2
00001457 00             7822 	.byte	0
00001458 03             7823 	.byte	3
00001459 7b             7824 	.byte	123
0000145a 02             7825 	.byte	2
0000145b 00             7826 	.byte	0
0000145c 01             7827 	.byte	1
0000145d 000502         7828 	.byte	0,5,2
00001460 00000000*      7829 	.word	.LDWlin15
00001464 03             7830 	.byte	3
00001465 06             7831 	.byte	6
00001466 02             7832 	.byte	2
00001467 00             7833 	.byte	0
00001468 01             7834 	.byte	1
00001469 0b             7835 	.byte	11
0000146a 02             7836 	.byte	2
0000146b 04             7837 	.byte	4
0000146c 000101         7838 	.byte	0,1,1
                        7839 	.section	.debug_info
                        7840 .LDW_4d5a938:
00001a13 1d             7841 	.byte	29
00001a14 00000000*      7842 	.word	.LDW61
00001a18 00000000*      7843 	.word	.LDW71
                        7844 
                        7845 .LDW_4cc31d0:
00001a1c 04             7846 	.byte	4
00001a1d 55385f436f75   7847 	.strz	"U8_Counter"

                                                                      Page 150
                                                              C:\Users\nhuliyap\AppData\Local\Temp\gh_0000b0k1.s
00001a23 6e74657200 
00001a28 d005           7848 	.byte	208,5
00001a2a 09             7849 	.byte	9
00001a2b 01             7850 	.byte	1
00001a2c 00000000*      7851 	.word	.LDW_484bd60
00001a30 00             7852 	.byte	0
00001a31 00             7853 	.byte	0
00001a32 0162           7854 	.byte	1,98
                        7855 
                        7856 .LDW_4cc3388:
00001a34 04             7857 	.byte	4
00001a35 5533325f4944   7858 	.strz	"U32_IDs"
00001a3b 7300 
00001a3d d105           7859 	.byte	209,5
00001a3f 12             7860 	.byte	18
00001a40 01             7861 	.byte	1
00001a41 00000000*      7862 	.word	.LDW_481e098
00001a45 00             7863 	.byte	0
00001a46 00             7864 	.byte	0
00001a47 0273           7865 	.byte	2,115
00001a49 04             7866 	.byte	4
                        7867 
                        7868 .LDW_4cc3438:
00001a4a 04             7869 	.byte	4
00001a4b 55385f506f73   7870 	.strz	"U8_Positions"
00001a51 6974696f6e73 
00001a57 00 
00001a58 d205           7871 	.byte	210,5
00001a5a 09             7872 	.byte	9
00001a5b 01             7873 	.byte	1
00001a5c 00000000*      7874 	.word	.LDW_4ccf018
00001a60 00             7875 	.byte	0
00001a61 00             7876 	.byte	0
00001a62 0273           7877 	.byte	2,115
00001a64 00             7878 	.byte	0
                        7879 
00001a65 00             7880 	.byte	0
                        7881 
00001a66 00             7882 	.byte	0
                        7883 
00001a67 00             7884 	.byte	0
                        7885 
                        7886 	.section	.debug_line
                        7887 .Ldw_line_end:
                        7888 	.section	.debug_macinfo
00000000 01             7889 	.byte	1
00000001 00             7890 	.byte	0
00000002 5f5f6768735f   7891 	.strz	"__ghs__ 1"
00000008 5f203100 
0000000c 01             7892 	.byte	1
0000000d 00             7893 	.byte	0
0000000e 5f5f4c4c4f4e   7894 	.strz	"__LLONG_BIT 64"
00000014 475f42495420 
0000001a 363400 
0000001d 01             7895 	.byte	1
0000001e 00             7896 	.byte	0
0000001f 4e4f545f5245   7897 	.strz	"NOT_READY_FOR_TESTING_OR_DEPLOYMENT 1"
00000025 4144595f464f 
0000002b 525f54455354 
00000031 494e475f4f52 
00000037 5f4445504c4f 

                                                                      Page 151
                                                              C:\Users\nhuliyap\AppData\Local\Temp\gh_0000b0k1.s
0000003d 594d454e5420 
00000043 3100 
00000045 03             7898 	.byte	3
00000046 00             7899 	.byte	0
00000047 01             7900 	.byte	1
00000048 03             7901 	.byte	3
00000049 03             7902 	.byte	3
0000004a 02             7903 	.byte	2
0000004b 03             7904 	.byte	3
0000004c 06             7905 	.byte	6
0000004d 03             7906 	.byte	3
0000004e 03             7907 	.byte	3
0000004f 06             7908 	.byte	6
00000050 04             7909 	.byte	4
00000051 03             7910 	.byte	3
00000052 1c             7911 	.byte	28
00000053 05             7912 	.byte	5
00000054 01             7913 	.byte	1
00000055 3c             7914 	.byte	60
00000056 545255452031   7915 	.strz	"TRUE 1u"
0000005c 7500 
0000005e 01             7916 	.byte	1
0000005f 40             7917 	.byte	64
00000060 46414c534520   7918 	.strz	"FALSE 0u"
00000066 307500 
00000069 04             7919 	.byte	4
0000006a 03             7920 	.byte	3
0000006b 1d             7921 	.byte	29
0000006c 06             7922 	.byte	6
0000006d 03             7923 	.byte	3
0000006e 1b             7924 	.byte	27
0000006f 07             7925 	.byte	7
00000070 03             7926 	.byte	3
00000071 54             7927 	.byte	84
00000072 08             7928 	.byte	8
00000073 04             7929 	.byte	4
00000074 04             7930 	.byte	4
00000075 01             7931 	.byte	1
00000076 33             7932 	.byte	51
00000077 4c4f43414c5f   7933 	.strz	"LOCAL_INLINE static inline"
0000007d 494e4c494e45 
00000083 207374617469 
00000089 6320696e6c69 
0000008f 6e6500 
00000092 01             7934 	.byte	1
00000093 37             7935 	.byte	55
00000094 503256415228   7936 	.strz	"P2VAR(ptrtype,memclass,ptrclass) ptrtype*"
0000009a 707472747970 
000000a0 652c6d656d63 
000000a6 6c6173732c70 
000000ac 7472636c6173 
000000b2 732920707472 
000000b8 747970652a00 
000000be 04             7937 	.byte	4
000000bf 01             7938 	.byte	1
000000c0 3c             7939 	.byte	60
000000c1 5354445f4f4e   7940 	.strz	"STD_ON 1u"
000000c7 20317500 
000000cb 01             7941 	.byte	1
000000cc 3d             7942 	.byte	61
000000cd 5354445f4f46   7943 	.strz	"STD_OFF 0u"

                                                                      Page 152
                                                              C:\Users\nhuliyap\AppData\Local\Temp\gh_0000b0k1.s
000000d3 4620307500 
000000d8 04             7944 	.byte	4
000000d9 03             7945 	.byte	3
000000da 07             7946 	.byte	7
000000db 09             7947 	.byte	9
000000dc 03             7948 	.byte	3
000000dd 04             7949 	.byte	4
000000de 0a             7950 	.byte	10
000000df 04             7951 	.byte	4
000000e0 03             7952 	.byte	3
000000e1 05             7953 	.byte	5
000000e2 0b             7954 	.byte	11
000000e3 03             7955 	.byte	3
000000e4 04             7956 	.byte	4
000000e5 0c             7957 	.byte	12
000000e6 04             7958 	.byte	4
000000e7 03             7959 	.byte	3
000000e8 05             7960 	.byte	5
000000e9 0d             7961 	.byte	13
000000ea 04             7962 	.byte	4
000000eb 03             7963 	.byte	3
000000ec 06             7964 	.byte	6
000000ed 0e             7965 	.byte	14
000000ee 03             7966 	.byte	3
000000ef 08             7967 	.byte	8
000000f0 0f             7968 	.byte	15
000000f1 03             7969 	.byte	3
000000f2 05             7970 	.byte	5
000000f3 10             7971 	.byte	16
000000f4 04             7972 	.byte	4
000000f5 04             7973 	.byte	4
000000f6 04             7974 	.byte	4
000000f7 04             7975 	.byte	4
000000f8 01             7976 	.byte	1
000000f9 16             7977 	.byte	22
000000fa 50524f445543   7978 	.strz	"PRODUCTION_SW 0x0"
00000100 54494f4e5f53 
00000106 572030783000 
0000010c 01             7979 	.byte	1
0000010d 17             7980 	.byte	23
0000010e 444556454c4f   7981 	.strz	"DEVELOPMENT_SW 0x1"
00000114 504d454e545f 
0000011a 535720307831 
00000120 00 
00000121 01             7982 	.byte	1
00000122 19             7983 	.byte	25
00000123 53575f434154   7984 	.strz	"SW_CATEGORY PRODUCTION_SW"
00000129 45474f525920 
0000012f 50524f445543 
00000135 54494f4e5f53 
0000013b 5700 
0000013d 01             7985 	.byte	1
0000013e 53             7986 	.byte	83
0000013f 63535452494e   7987 	.strz	"cSTRING_SIZ_LMCSWV 8"
00000145 475f53495a5f 
0000014b 4c4d43535756 
00000151 203800 
00000154 04             7988 	.byte	4
00000155 01             7989 	.byte	1
00000156 0c             7990 	.byte	12
00000157 52444353545f   7991 	.strz	"RDCST_WS_FL ((uint8) 0U)"

                                                                      Page 153
                                                              C:\Users\nhuliyap\AppData\Local\Temp\gh_0000b0k1.s
0000015d 57535f464c20 
00000163 282875696e74 
00000169 382920305529 
0000016f 00 
00000170 01             7992 	.byte	1
00000171 0d             7993 	.byte	13
00000172 52444353545f   7994 	.strz	"RDCST_WS_FR ((uint8) 1U)"
00000178 57535f465220 
0000017e 282875696e74 
00000184 382920315529 
0000018a 00 
0000018b 01             7995 	.byte	1
0000018c 0e             7996 	.byte	14
0000018d 52444353545f   7997 	.strz	"RDCST_WS_RL ((uint8) 2U)"
00000193 57535f524c20 
00000199 282875696e74 
0000019f 382920325529 
000001a5 00 
000001a6 01             7998 	.byte	1
000001a7 0f             7999 	.byte	15
000001a8 52444353545f   8000 	.strz	"RDCST_WS_RR ((uint8) 3U)"
000001ae 57535f525220 
000001b4 282875696e74 
000001ba 382920335529 
000001c0 00 
000001c1 04             8001 	.byte	4
000001c2 01             8002 	.byte	1
000001c3 08             8003 	.byte	8
000001c4 52444353545f   8004 	.strz	"RDCST__PACKAGE_ID_STANDSTILL ((uint8) 0x90U)"
000001ca 5f5041434b41 
000001d0 47455f49445f 
000001d6 5354414e4453 
000001dc 54494c4c2028 
000001e2 2875696e7438 
000001e8 292030783930 
000001ee 552900 
000001f1 01             8005 	.byte	1
000001f2 0d             8006 	.byte	13
000001f3 52444353545f   8007 	.strz	"RDCST__SYNC_PERIOD_DURATION_MINS ((uint32) 1U)"
000001f9 5f53594e435f 
000001ff 504552494f44 
00000205 5f4455524154 
0000020b 494f4e5f4d49 
00000211 4e5320282875 
00000217 696e74333229 
0000021d 2031552900 
00000222 01             8008 	.byte	1
00000223 0f             8009 	.byte	15
00000224 52444353545f   8010 	.strz	"RDCST__SYNC_PERIOD_DURATION_MS ((uint32) (RDCST__SYNC_PERIOD_DURATION_MINS * 60U * 1000U))"
0000022a 5f53594e435f 
00000230 504552494f44 
00000236 5f4455524154 
0000023c 494f4e5f4d53 
00000242 20282875696e 
00000248 743332292028 
0000024e 52444353545f 
00000254 5f53594e435f 
0000025a 504552494f44 
00000260 5f4455524154 
00000266 494f4e5f4d49 
0000026c 4e53202a2036 

                                                                      Page 154
                                                              C:\Users\nhuliyap\AppData\Local\Temp\gh_0000b0k1.s
00000272 3055202a2031 
00000278 303030552929 
0000027e 00 
0000027f 01             8011 	.byte	1
00000280 11             8012 	.byte	17
00000281 52444353545f   8013 	.strz	"RDCST__PRESSURE_ON_KEY_ENABLED_INIT ((uint8) 1U)"
00000287 5f5052455353 
0000028d 5552455f4f4e 
00000293 5f4b45595f45 
00000299 4e41424c4544 
0000029f 5f494e495420 
000002a5 282875696e74 
000002ab 382920315529 
000002b1 00 
000002b2 01             8014 	.byte	1
000002b3 12             8015 	.byte	18
000002b4 52444353545f   8016 	.strz	"RDCST__WAKEUP_INTERVAL_INIT_XMIN ((uint8) 5U)"
000002ba 5f57414b4555 
000002c0 505f494e5445 
000002c6 5256414c5f49 
000002cc 4e49545f584d 
000002d2 494e20282875 
000002d8 696e74382920 
000002de 35552900 
000002e2 01             8017 	.byte	1
000002e3 13             8018 	.byte	19
000002e4 52444353545f   8019 	.strz	"RDCST__WAKE_TIME_INIT_X100MS ((uint8) 70U)"
000002ea 5f57414b455f 
000002f0 54494d455f49 
000002f6 4e49545f5831 
000002fc 30304d532028 
00000302 2875696e7438 
00000308 292037305529 
0000030e 00 
0000030f 01             8020 	.byte	1
00000310 14             8021 	.byte	20
00000311 52444353545f   8022 	.strz	"RDCST__WAKE_OFFSET_INIT_X100MS ((uint8) 35U)"
00000317 5f57414b455f 
0000031d 4f4646534554 
00000323 5f494e49545f 
00000329 583130304d53 
0000032f 20282875696e 
00000335 743829203335 
0000033b 552900 
0000033e 01             8023 	.byte	1
0000033f 15             8024 	.byte	21
00000340 52444353545f   8025 	.strz	"RDCST__POKDB_INIT ((uint8) 0U)"
00000346 5f504f4b4442 
0000034c 5f494e495420 
00000352 282875696e74 
00000358 382920305529 
0000035e 00 
0000035f 01             8026 	.byte	1
00000360 17             8027 	.byte	23
00000361 52444353545f   8028 	.strz	"RDCST__WAKEUP_TIMER_INITIAL_MULTIPLIER ((uint32) 1U)"
00000367 5f57414b4555 
0000036d 505f54494d45 
00000373 525f494e4954 
00000379 49414c5f4d55 
0000037f 4c5449504c49 
00000385 455220282875 

                                                                      Page 155
                                                              C:\Users\nhuliyap\AppData\Local\Temp\gh_0000b0k1.s
0000038b 696e74333229 
00000391 2031552900 
00000396 01             8029 	.byte	1
00000397 18             8030 	.byte	24
00000398 52444353545f   8031 	.strz	"RDCST__WAKEUP_TIMER_AFTER_1_DAY_MULTIPLIER ((uint32) 3U)"
0000039e 5f57414b4555 
000003a4 505f54494d45 
000003aa 525f41465445 
000003b0 525f315f4441 
000003b6 595f4d554c54 
000003bc 49504c494552 
000003c2 20282875696e 
000003c8 743332292033 
000003ce 552900 
000003d1 01             8032 	.byte	1
000003d2 19             8033 	.byte	25
000003d3 52444353545f   8034 	.strz	"RDCST__WAKEUP_TIMER_AFTER_5_DAYS_MULTIPLIER ((uint32) 10U)"
000003d9 5f57414b4555 
000003df 505f54494d45 
000003e5 525f41465445 
000003eb 525f355f4441 
000003f1 59535f4d554c 
000003f7 5449504c4945 
000003fd 522028287569 
00000403 6e7433322920 
00000409 3130552900 
0000040e 01             8035 	.byte	1
0000040f 1b             8036 	.byte	27
00000410 52444353545f   8037 	.strz	"RDCST__ELAPSED_TIME_1_DAY_MS ((uint32) (24U * 60U * 60U * 1000U))"
00000416 5f454c415053 
0000041c 45445f54494d 
00000422 455f315f4441 
00000428 595f4d532028 
0000042e 2875696e7433 
00000434 322920283234 
0000043a 55202a203630 
00000440 55202a203630 
00000446 55202a203130 
0000044c 303055292900 
00000452 01             8038 	.byte	1
00000453 1c             8039 	.byte	28
00000454 52444353545f   8040 	.strz	"RDCST__ELAPSED_TIME_6_DAYS_MS ((uint32) (6U * RDCST__ELAPSED_TIME_1_DAY_MS))"
0000045a 5f454c415053 
00000460 45445f54494d 
00000466 455f365f4441 
0000046c 59535f4d5320 
00000472 282875696e74 
00000478 333229202836 
0000047e 55202a205244 
00000484 4353545f5f45 
0000048a 4c4150534544 
00000490 5f54494d455f 
00000496 315f4441595f 
0000049c 4d53292900 
000004a1 01             8041 	.byte	1
000004a2 1d             8042 	.byte	29
000004a3 52444353545f   8043 	.strz	"RDCST__ELAPSED_TIME_22_DAYS_MS ((uint32) (22U * RDCST__ELAPSED_TIME_1_DAY_MS))"
000004a9 5f454c415053 
000004af 45445f54494d 
000004b5 455f32325f44 
000004bb 4159535f4d53 

                                                                      Page 156
                                                              C:\Users\nhuliyap\AppData\Local\Temp\gh_0000b0k1.s
000004c1 20282875696e 
000004c7 743332292028 
000004cd 323255202a20 
000004d3 52444353545f 
000004d9 5f454c415053 
000004df 45445f54494d 
000004e5 455f315f4441 
000004eb 595f4d532929 
000004f1 00 
000004f2 01             8044 	.byte	1
000004f3 1f             8045 	.byte	31
000004f4 52444353545f   8046 	.strz	"RDCST__WAKEUP_TIMER_MINS_TO_MS(mins) ((uint32) ((mins) * 60U * 1000U))"
000004fa 5f57414b4555 
00000500 505f54494d45 
00000506 525f4d494e53 
0000050c 5f544f5f4d53 
00000512 286d696e7329 
00000518 20282875696e 
0000051e 743332292028 
00000524 286d696e7329 
0000052a 202a20363055 
00000530 202a20313030 
00000536 3055292900 
0000053b 01             8047 	.byte	1
0000053c 20             8048 	.byte	32
0000053d 52444353545f   8049 	.strz	"RDCST__WAKEUP_TIMER_100MS_TO_MS(units) ((uint32) ((units) * 100U))"
00000543 5f57414b4555 
00000549 505f54494d45 
0000054f 525f3130304d 
00000555 535f544f5f4d 
0000055b 5328756e6974 
00000561 732920282875 
00000567 696e74333229 
0000056d 202828756e69 
00000573 747329202a20 
00000579 313030552929 
0000057f 00 
00000580 01             8050 	.byte	1
00000581 22             8051 	.byte	34
00000582 52444353545f   8052 	.strz	"RDCST__PRESSURE_INVALID_VALUE ((uint8) 0x00U)"
00000588 5f5052455353 
0000058e 5552455f494e 
00000594 56414c49445f 
0000059a 56414c554520 
000005a0 282875696e74 
000005a6 382920307830 
000005ac 30552900 
000005b0 01             8053 	.byte	1
000005b1 23             8054 	.byte	35
000005b2 52444353545f   8055 	.strz	"RDCST__TEMPERATURE_INVALID_VALUE ((uint8) 0x00U)"
000005b8 5f54454d5045 
000005be 524154555245 
000005c4 5f494e56414c 
000005ca 49445f56414c 
000005d0 554520282875 
000005d6 696e74382920 
000005dc 307830305529 
000005e2 00 
000005e3 01             8056 	.byte	1
000005e4 25             8057 	.byte	37
000005e5 52444353545f   8058 	.strz	"RDCST__MONITORING_STATUS_CLEAR ((uint8) 0x00U)"

                                                                      Page 157
                                                              C:\Users\nhuliyap\AppData\Local\Temp\gh_0000b0k1.s
000005eb 5f4d4f4e4954 
000005f1 4f52494e475f 
000005f7 535441545553 
000005fd 5f434c454152 
00000603 20282875696e 
00000609 743829203078 
0000060f 3030552900 
00000614 01             8059 	.byte	1
00000615 26             8060 	.byte	38
00000616 52444353545f   8061 	.strz	"RDCST__EXTENDED_WAKEUP_CLEAR ((uint8) 0x00U)"
0000061c 5f455854454e 
00000622 4445445f5741 
00000628 4b4555505f43 
0000062e 4c4541522028 
00000634 2875696e7438 
0000063a 292030783030 
00000640 552900 
00000643 01             8062 	.byte	1
00000644 28             8063 	.byte	40
00000645 52444353545f   8064 	.strz	"RDCST__TIMER_CLOSE_TO_EXPIRING_THRESHOLD_MS ((uint32) 1000U)"
0000064b 5f54494d4552 
00000651 5f434c4f5345 
00000657 5f544f5f4558 
0000065d 504952494e47 
00000663 5f5448524553 
00000669 484f4c445f4d 
0000066f 532028287569 
00000675 6e7433322920 
0000067b 313030305529 
00000681 00 
00000682 01             8065 	.byte	1
00000683 29             8066 	.byte	41
00000684 52444353545f   8067 	.strz	"RDCST__EXTENDED_WAKEUP_INTERVAL_MIN ((uint32) 6U)"
0000068a 5f455854454e 
00000690 4445445f5741 
00000696 4b4555505f49 
0000069c 4e5445525641 
000006a2 4c5f4d494e20 
000006a8 282875696e74 
000006ae 333229203655 
000006b4 2900 
000006b6 01             8068 	.byte	1
000006b7 2a             8069 	.byte	42
000006b8 52444353545f   8070 	.strz	"RDCST__EXTENDED_WAKEUP_INTERVAL_MS ((uint32) RDCST__WAKEUP_TIMER_MINS_TO_MS(RDCST__EXTENDED_WAKEUP_INTERVAL_MIN))"
000006be 5f455854454e 
000006c4 4445445f5741 
000006ca 4b4555505f49 
000006d0 4e5445525641 
000006d6 4c5f4d532028 
000006dc 2875696e7433 
000006e2 322920524443 
000006e8 53545f5f5741 
000006ee 4b4555505f54 
000006f4 494d45525f4d 
000006fa 494e535f544f 
00000700 5f4d53285244 
00000706 4353545f5f45 
0000070c 5854454e4445 
00000712 445f57414b45 
00000718 55505f494e54 
0000071e 455256414c5f 

                                                                      Page 158
                                                              C:\Users\nhuliyap\AppData\Local\Temp\gh_0000b0k1.s
00000724 4d494e292900 
0000072a 01             8071 	.byte	1
0000072b 2c             8072 	.byte	44
0000072c 52444353545f   8073 	.strz	"RDCST__DEFAULT_RSSI_FOR_STANDSTILL_TELEGRAMS ((uint16) 120U)"
00000732 5f4445464155 
00000738 4c545f525353 
0000073e 495f464f525f 
00000744 5354414e4453 
0000074a 54494c4c5f54 
00000750 454c45475241 
00000756 4d5320282875 
0000075c 696e74313629 
00000762 203132305529 
00000768 00 
00000769 01             8074 	.byte	1
0000076a 32             8075 	.byte	50
0000076b 5252414d205f   8076 	.strz	"RRAM __attribute__ ((section (\".rdata\")))"
00000771 5f6174747269 
00000777 627574655f5f 
0000077d 202828736563 
00000783 74696f6e2028 
00000789 222e72646174 
0000078f 612229292900 
00000795 01             8077 	.byte	1
00000796 35             8078 	.byte	53
00000797 52444353545f   8079 	.strz	"RDCST__DATA_EXISTENCE_TRUE ((uint8) 0xAAU)"
0000079d 5f444154415f 
000007a3 455849535445 
000007a9 4e43455f5452 
000007af 554520282875 
000007b5 696e74382920 
000007bb 307841415529 
000007c1 00 
000007c2 01             8080 	.byte	1
000007c3 36             8081 	.byte	54
000007c4 52444353545f   8082 	.strz	"RDCST__DATA_EXISTENCE_FALSE ((uint8) 0x55U)"
000007ca 5f444154415f 
000007d0 455849535445 
000007d6 4e43455f4641 
000007dc 4c5345202828 
000007e2 75696e743829 
000007e8 203078353555 
000007ee 2900 
000007f0 01             8083 	.byte	1
000007f1 37             8084 	.byte	55
000007f2 52444353545f   8085 	.strz	"RDCST__GLOBAL_INDEX_WS_POS ((uint8) 30U)"
000007f8 5f474c4f4241 
000007fe 4c5f494e4445 
00000804 585f57535f50 
0000080a 4f5320282875 
00000810 696e74382920 
00000816 3330552900 
0000081b 04             8086 	.byte	4
0000081c 03             8087 	.byte	3
0000081d 04             8088 	.byte	4
0000081e 11             8089 	.byte	17
0000081f 03             8090 	.byte	3
00000820 06             8091 	.byte	6
00000821 12             8092 	.byte	18
00000822 03             8093 	.byte	3
00000823 07             8094 	.byte	7

                                                                      Page 159
                                                              C:\Users\nhuliyap\AppData\Local\Temp\gh_0000b0k1.s
00000824 13             8095 	.byte	19
00000825 03             8096 	.byte	3
00000826 06             8097 	.byte	6
00000827 14             8098 	.byte	20
00000828 04             8099 	.byte	4
00000829 01             8100 	.byte	1
0000082a 10             8101 	.byte	16
0000082b 52465f444154   8102 	.strz	"RF_DAT_BUF_LEN 16"
00000831 5f4255465f4c 
00000837 454e20313600 
0000083d 01             8103 	.byte	1
0000083e 11             8104 	.byte	17
0000083f 52465f52535f   8105 	.strz	"RF_RS_BUF_LEN RF_DAT_BUF_LEN"
00000845 4255465f4c45 
0000084b 4e2052465f44 
00000851 41545f425546 
00000857 5f4c454e00 
0000085c 04             8106 	.byte	4
0000085d 03             8107 	.byte	3
0000085e 08             8108 	.byte	8
0000085f 15             8109 	.byte	21
00000860 03             8110 	.byte	3
00000861 06             8111 	.byte	6
00000862 16             8112 	.byte	22
00000863 01             8113 	.byte	1
00000864 0e             8114 	.byte	14
00000865 50524f445543   8115 	.strz	"PRODUCTION_SW 0x0"
0000086b 54494f4e5f53 
00000871 572030783000 
00000877 01             8116 	.byte	1
00000878 0f             8117 	.byte	15
00000879 444556454c4f   8118 	.strz	"DEVELOPMENT_SW 0x1"
0000087f 504d454e545f 
00000885 535720307831 
0000088b 00 
0000088c 01             8119 	.byte	1
0000088d 10             8120 	.byte	16
0000088e 53575f434154   8121 	.strz	"SW_CATEGORY PRODUCTION_SW"
00000894 45474f525920 
0000089a 50524f445543 
000008a0 54494f4e5f53 
000008a6 5700 
000008a8 04             8122 	.byte	4
000008a9 01             8123 	.byte	1
000008aa 08             8124 	.byte	8
000008ab 4d41585f5349   8125 	.strz	"MAX_SIZE_WS_TELEGRAM 16U"
000008b1 5a455f57535f 
000008b7 54454c454752 
000008bd 414d20313655 
000008c3 00 
000008c4 01             8126 	.byte	1
000008c5 11             8127 	.byte	17
000008c6 4e564d5f424c   8128 	.strz	"NVM_BLOCK_TYPE uint32"
000008cc 4f434b5f5459 
000008d2 50452075696e 
000008d8 74333200 
000008dc 04             8129 	.byte	4
000008dd 04             8130 	.byte	4
000008de 01             8131 	.byte	1
000008df 0a             8132 	.byte	10
000008e0 52444352425f   8133 	.strz	"RDCRB__NUMBER_OF_STORED_TELEGRAMS ((uint8) 10U)"

                                                                      Page 160
                                                              C:\Users\nhuliyap\AppData\Local\Temp\gh_0000b0k1.s
000008e6 5f4e554d4245 
000008ec 525f4f465f53 
000008f2 544f5245445f 
000008f8 54454c454752 
000008fe 414d53202828 
00000904 75696e743829 
0000090a 203130552900 
00000910 01             8134 	.byte	1
00000911 0d             8135 	.byte	13
00000912 52444352425f   8136 	.strz	"RDCRB_SYNC_BYTES_MSB ((uint8) 0xFFU)"
00000918 53594e435f42 
0000091e 595445535f4d 
00000924 534220282875 
0000092a 696e74382920 
00000930 307846465529 
00000936 00 
00000937 01             8137 	.byte	1
00000938 0e             8138 	.byte	14
00000939 52444352425f   8139 	.strz	"RDCRB_SYNC_BYTES_LSB ((uint8) 0xF2U)"
0000093f 53594e435f42 
00000945 595445535f4c 
0000094b 534220282875 
00000951 696e74382920 
00000957 307846325529 
0000095d 00 
0000095e 04             8140 	.byte	4
0000095f 03             8141 	.byte	3
00000960 05             8142 	.byte	5
00000961 17             8143 	.byte	23
00000962 03             8144 	.byte	3
00000963 06             8145 	.byte	6
00000964 18             8146 	.byte	24
00000965 04             8147 	.byte	4
00000966 01             8148 	.byte	1
00000967 0c             8149 	.byte	12
00000968 5244435f5f4e   8150 	.strz	"RDC__NUMBER_OF_WS ((uint8) 4U)"
0000096e 554d4245525f 
00000974 4f465f575320 
0000097a 282875696e74 
00000980 382920345529 
00000986 00 
00000987 01             8151 	.byte	1
00000988 10             8152 	.byte	16
00000989 5244435f5f47   8153 	.strz	"RDC__GLOBAL_NVM_INDEX ((uint8) 26U)"
0000098f 4c4f42414c5f 
00000995 4e564d5f494e 
0000099b 444558202828 
000009a1 75696e743829 
000009a7 203236552900 
000009ad 04             8154 	.byte	4
000009ae 03             8155 	.byte	3
000009af 07             8156 	.byte	7
000009b0 19             8157 	.byte	25
000009b1 04             8158 	.byte	4
000009b2 03             8159 	.byte	3
000009b3 08             8160 	.byte	8
000009b4 1a             8161 	.byte	26
000009b5 04             8162 	.byte	4
000009b6 03             8163 	.byte	3
000009b7 09             8164 	.byte	9
000009b8 1b             8165 	.byte	27

                                                                      Page 161
                                                              C:\Users\nhuliyap\AppData\Local\Temp\gh_0000b0k1.s
000009b9 03             8166 	.byte	3
000009ba 06             8167 	.byte	6
000009bb 1c             8168 	.byte	28
000009bc 03             8169 	.byte	3
000009bd 04             8170 	.byte	4
000009be 1d             8171 	.byte	29
000009bf 01             8172 	.byte	1
000009c0 04             8173 	.byte	4
000009c1 44454d5f5459   8174 	.strz	"DEM_TYPES_H "
000009c7 5045535f4820 
000009cd 00 
000009ce 03             8175 	.byte	3
000009cf 07             8176 	.byte	7
000009d0 1e             8177 	.byte	30
000009d1 01             8178 	.byte	1
000009d2 1f             8179 	.byte	31
000009d3 44454d5f4346   8180 	.strz	"DEM_CFG_OBD_OFF 0"
000009d9 475f4f42445f 
000009df 4f4646203000 
000009e5 01             8181 	.byte	1
000009e6 20             8182 	.byte	32
000009e7 44454d5f4346   8183 	.strz	"DEM_CFG_OBD_ON 1"
000009ed 475f4f42445f 
000009f3 4f4e203100 
000009f8 01             8184 	.byte	1
000009f9 21             8185 	.byte	33
000009fa 44454d5f4346   8186 	.strz	"DEM_CFG_OBD DEM_CFG_OBD_OFF"
00000a00 475f4f424420 
00000a06 44454d5f4346 
00000a0c 475f4f42445f 
00000a12 4f464600 
00000a16 01             8187 	.byte	1
00000a17 23             8188 	.byte	35
00000a18 44454d5f4346   8189 	.strz	"DEM_CFG_J1939DCM_OFF 0"
00000a1e 475f4a313933 
00000a24 3944434d5f4f 
00000a2a 4646203000 
00000a2f 01             8190 	.byte	1
00000a30 25             8191 	.byte	37
00000a31 44454d5f4346   8192 	.strz	"DEM_CFG_J1939DCM DEM_CFG_J1939DCM_OFF"
00000a37 475f4a313933 
00000a3d 3944434d2044 
00000a43 454d5f434647 
00000a49 5f4a31393339 
00000a4f 44434d5f4f46 
00000a55 4600 
00000a57 01             8193 	.byte	1
00000a58 31             8194 	.byte	49
00000a59 44454d5f4246   8195 	.strz	"DEM_BFM_ON TRUE"
00000a5f 4d5f4f4e2054 
00000a65 52554500 
00000a69 01             8196 	.byte	1
00000a6a 34             8197 	.byte	52
00000a6b 44454d5f4246   8198 	.strz	"DEM_BFM_OFF FALSE"
00000a71 4d5f4f464620 
00000a77 46414c534500 
00000a7d 01             8199 	.byte	1
00000a7e 3e             8200 	.byte	62
00000a7f 44454d5f4246   8201 	.strz	"DEM_BFM_ENABLED DEM_BFM_OFF"
00000a85 4d5f454e4142 
00000a8b 4c4544204445 

                                                                      Page 162
                                                              C:\Users\nhuliyap\AppData\Local\Temp\gh_0000b0k1.s
00000a91 4d5f42464d5f 
00000a97 4f464600 
00000a9b 01             8202 	.byte	1
00000a9c 44             8203 	.byte	68
00000a9d 44454d5f4346   8204 	.strz	"DEM_CFG_TRIGGER_TO_STORE_NVM_SUPPORTED FALSE"
00000aa3 475f54524947 
00000aa9 4745525f544f 
00000aaf 5f53544f5245 
00000ab5 5f4e564d5f53 
00000abb 5550504f5254 
00000ac1 45442046414c 
00000ac7 534500 
00000aca 01             8205 	.byte	1
00000acb 45             8206 	.byte	69
00000acc 44454d5f4346   8207 	.strz	"DEM_CFG_SUSPICIOUS_SUPPORT FALSE"
00000ad2 475f53555350 
00000ad8 4943494f5553 
00000ade 5f535550504f 
00000ae4 52542046414c 
00000aea 534500 
00000aed 01             8208 	.byte	1
00000aee 46             8209 	.byte	70
00000aef 44454d5f4346   8210 	.strz	"DEM_CFG_DEBTIMEBASED_CONFIGURED_CYCLICTASKTIME FALSE"
00000af5 475f44454254 
00000afb 494d45424153 
00000b01 45445f434f4e 
00000b07 464947555245 
00000b0d 445f4359434c 
00000b13 49435441534b 
00000b19 54494d452046 
00000b1f 414c534500 
00000b24 01             8211 	.byte	1
00000b25 47             8212 	.byte	71
00000b26 44454d5f4346   8213 	.strz	"DEM_CFG_EVMEMGENERIC_SUPPORTED TRUE"
00000b2c 475f45564d45 
00000b32 4d47454e4552 
00000b38 49435f535550 
00000b3e 504f52544544 
00000b44 205452554500 
00000b4a 01             8214 	.byte	1
00000b4b 49             8215 	.byte	73
00000b4c 44454d5f4346   8216 	.strz	"DEM_CFG_VERSION_INFO_API_OFF STD_OFF"
00000b52 475f56455253 
00000b58 494f4e5f494e 
00000b5e 464f5f415049 
00000b64 5f4f46462053 
00000b6a 54445f4f4646 
00000b70 00 
00000b71 01             8217 	.byte	1
00000b72 4a             8218 	.byte	74
00000b73 44454d5f4346   8219 	.strz	"DEM_CFG_VERSION_INFO_API_ON STD_ON"
00000b79 475f56455253 
00000b7f 494f4e5f494e 
00000b85 464f5f415049 
00000b8b 5f4f4e205354 
00000b91 445f4f4e00 
00000b96 01             8220 	.byte	1
00000b97 4b             8221 	.byte	75
00000b98 44454d5f4346   8222 	.strz	"DEM_CFG_VERSION_INFO_API DEM_CFG_VERSION_INFO_API_OFF"
00000b9e 475f56455253 
00000ba4 494f4e5f494e 

                                                                      Page 163
                                                              C:\Users\nhuliyap\AppData\Local\Temp\gh_0000b0k1.s
00000baa 464f5f415049 
00000bb0 2044454d5f43 
00000bb6 46475f564552 
00000bbc 53494f4e5f49 
00000bc2 4e464f5f4150 
00000bc8 495f4f464600 
00000bce 01             8223 	.byte	1
00000bcf 4d             8224 	.byte	77
00000bd0 44454d5f4346   8225 	.strz	"DEM_CFG_ALTERNATIVEDTC_OFF STD_OFF"
00000bd6 475f414c5445 
00000bdc 524e41544956 
00000be2 454454435f4f 
00000be8 464620535444 
00000bee 5f4f464600 
00000bf3 01             8226 	.byte	1
00000bf4 4e             8227 	.byte	78
00000bf5 44454d5f4346   8228 	.strz	"DEM_CFG_ALTERNATIVEDTC_ON STD_ON"
00000bfb 475f414c5445 
00000c01 524e41544956 
00000c07 454454435f4f 
00000c0d 4e205354445f 
00000c13 4f4e00 
00000c16 01             8229 	.byte	1
00000c17 4f             8230 	.byte	79
00000c18 44454d5f4346   8231 	.strz	"DEM_CFG_ALTERNATIVEDTC DEM_CFG_ALTERNATIVEDTC_OFF"
00000c1e 475f414c5445 
00000c24 524e41544956 
00000c2a 454454432044 
00000c30 454d5f434647 
00000c36 5f414c544552 
00000c3c 4e4154495645 
00000c42 4454435f4f46 
00000c48 4600 
00000c4a 01             8232 	.byte	1
00000c4b 51             8233 	.byte	81
00000c4c 44454d5f4346   8234 	.strz	"DEM_CFG_ERASE_ALL_OFF 0u"
00000c52 475f45524153 
00000c58 455f414c4c5f 
00000c5e 4f4646203075 
00000c64 00 
00000c65 01             8235 	.byte	1
00000c66 54             8236 	.byte	84
00000c67 44454d5f4346   8237 	.strz	"DEM_CFG_ERASE_ALL_DATA_SUPPORTED DEM_CFG_ERASE_ALL_OFF"
00000c6d 475f45524153 
00000c73 455f414c4c5f 
00000c79 444154415f53 
00000c7f 5550504f5254 
00000c85 45442044454d 
00000c8b 5f4346475f45 
00000c91 524153455f41 
00000c97 4c4c5f4f4646 
00000c9d 00 
00000c9e 01             8238 	.byte	1
00000c9f 56             8239 	.byte	86
00000ca0 44454d5f4346   8240 	.strz	"DEM_CFG_DEPENDENCY_OFF STD_OFF"
00000ca6 475f44455045 
00000cac 4e44454e4359 
00000cb2 5f4f46462053 
00000cb8 54445f4f4646 
00000cbe 00 
00000cbf 01             8241 	.byte	1

                                                                      Page 164
                                                              C:\Users\nhuliyap\AppData\Local\Temp\gh_0000b0k1.s
00000cc0 57             8242 	.byte	87
00000cc1 44454d5f4346   8243 	.strz	"DEM_CFG_DEPENDENCY_ON STD_ON"
00000cc7 475f44455045 
00000ccd 4e44454e4359 
00000cd3 5f4f4e205354 
00000cd9 445f4f4e00 
00000cde 01             8244 	.byte	1
00000cdf 58             8245 	.byte	88
00000ce0 44454d5f4346   8246 	.strz	"DEM_CFG_DEPENDENCY DEM_CFG_DEPENDENCY_OFF"
00000ce6 475f44455045 
00000cec 4e44454e4359 
00000cf2 2044454d5f43 
00000cf8 46475f444550 
00000cfe 454e44454e43 
00000d04 595f4f464600 
00000d0a 01             8247 	.byte	1
00000d0b 5a             8248 	.byte	90
00000d0c 44454d5f4346   8249 	.strz	"DEM_CFG_INDICATOR_ON STD_ON"
00000d12 475f494e4449 
00000d18 4341544f525f 
00000d1e 4f4e20535444 
00000d24 5f4f4e00 
00000d28 01             8250 	.byte	1
00000d29 5b             8251 	.byte	91
00000d2a 44454d5f4346   8252 	.strz	"DEM_CFG_INDICATOR_OFF STD_OFF"
00000d30 475f494e4449 
00000d36 4341544f525f 
00000d3c 4f4646205354 
00000d42 445f4f464600 
00000d48 01             8253 	.byte	1
00000d49 5c             8254 	.byte	92
00000d4a 44454d5f4346   8255 	.strz	"DEM_CFG_INDICATOR DEM_CFG_INDICATOR_OFF"
00000d50 475f494e4449 
00000d56 4341544f5220 
00000d5c 44454d5f4346 
00000d62 475f494e4449 
00000d68 4341544f525f 
00000d6e 4f464600 
00000d72 01             8256 	.byte	1
00000d73 5e             8257 	.byte	94
00000d74 44454d5f4346   8258 	.strz	"DEM_CFG_TESTMODE_SUPPORT_ON STD_ON"
00000d7a 475f54455354 
00000d80 4d4f44455f53 
00000d86 5550504f5254 
00000d8c 5f4f4e205354 
00000d92 445f4f4e00 
00000d97 01             8259 	.byte	1
00000d98 5f             8260 	.byte	95
00000d99 44454d5f4346   8261 	.strz	"DEM_CFG_TESTMODE_SUPPORT_OFF STD_OFF"
00000d9f 475f54455354 
00000da5 4d4f44455f53 
00000dab 5550504f5254 
00000db1 5f4f46462053 
00000db7 54445f4f4646 
00000dbd 00 
00000dbe 01             8262 	.byte	1
00000dbf 61             8263 	.byte	97
00000dc0 44454d5f4346   8264 	.strz	"DEM_CFG_TESTMODE_SUPPORT DEM_CFG_TESTMODE_SUPPORT_OFF"
00000dc6 475f54455354 
00000dcc 4d4f44455f53 
00000dd2 5550504f5254 

                                                                      Page 165
                                                              C:\Users\nhuliyap\AppData\Local\Temp\gh_0000b0k1.s
00000dd8 2044454d5f43 
00000dde 46475f544553 
00000de4 544d4f44455f 
00000dea 535550504f52 
00000df0 545f4f464600 
00000df6 01             8265 	.byte	1
00000df7 63             8266 	.byte	99
00000df8 44454d5f4346   8267 	.strz	"DEM_CFG_CHECKAPICONSISTENCY TRUE"
00000dfe 475f43484543 
00000e04 4b415049434f 
00000e0a 4e5349535445 
00000e10 4e4359205452 
00000e16 554500 
00000e19 01             8268 	.byte	1
00000e1a 65             8269 	.byte	101
00000e1b 44454d5f4346   8270 	.strz	"DEM_CFG_DEBUGDATA_OFF 0"
00000e21 475f44454255 
00000e27 47444154415f 
00000e2d 4f4646203000 
00000e33 01             8271 	.byte	1
00000e34 67             8272 	.byte	103
00000e35 44454d5f4346   8273 	.strz	"DEM_CFG_DEBUGDATA_32BIT (0+4)"
00000e3b 475f44454255 
00000e41 47444154415f 
00000e47 333242495420 
00000e4d 28302b342900 
00000e53 01             8274 	.byte	1
00000e54 68             8275 	.byte	104
00000e55 44454d5f4346   8276 	.strz	"DEM_CFG_DEBUGDATA DEM_CFG_DEBUGDATA_32BIT"
00000e5b 475f44454255 
00000e61 474441544120 
00000e67 44454d5f4346 
00000e6d 475f44454255 
00000e73 47444154415f 
00000e79 333242495400 
00000e7f 04             8277 	.byte	4
00000e80 03             8278 	.byte	3
00000e81 08             8279 	.byte	8
00000e82 1f             8280 	.byte	31
00000e83 03             8281 	.byte	3
00000e84 1c             8282 	.byte	28
00000e85 20             8283 	.byte	32
00000e86 03             8284 	.byte	3
00000e87 06             8285 	.byte	6
00000e88 1d             8286 	.byte	29
00000e89 04             8287 	.byte	4
00000e8a 04             8288 	.byte	4
00000e8b 01             8289 	.byte	1
00000e8c 27             8290 	.byte	39
00000e8d 44454d5f4346   8291 	.strz	"DEM_CFG_CLIENT_NUMBER_OF_CLIENTS_USING_RTE 0u"
00000e93 475f434c4945 
00000e99 4e545f4e554d 
00000e9f 4245525f4f46 
00000ea5 5f434c49454e 
00000eab 54535f555349 
00000eb1 4e475f525445 
00000eb7 20307500 
00000ebb 04             8292 	.byte	4
00000ebc 03             8293 	.byte	3
00000ebd 09             8294 	.byte	9
00000ebe 21             8295 	.byte	33

                                                                      Page 166
                                                              C:\Users\nhuliyap\AppData\Local\Temp\gh_0000b0k1.s
00000ebf 01             8296 	.byte	1
00000ec0 22             8297 	.byte	34
00000ec1 44454d5f4e4f   8298 	.strz	"DEM_NODEID_COUNT 0u"
00000ec7 444549445f43 
00000ecd 4f554e542030 
00000ed3 7500 
00000ed5 01             8299 	.byte	1
00000ed6 23             8300 	.byte	35
00000ed7 44454d5f4e4f   8301 	.strz	"DEM_NODEID_ARRAYLENGTH (DEM_NODEID_COUNT+1u)"
00000edd 444549445f41 
00000ee3 525241594c45 
00000ee9 4e4754482028 
00000eef 44454d5f4e4f 
00000ef5 444549445f43 
00000efb 4f554e542b31 
00000f01 752900 
00000f04 04             8302 	.byte	4
00000f05 03             8303 	.byte	3
00000f06 0f             8304 	.byte	15
00000f07 22             8305 	.byte	34
00000f08 04             8306 	.byte	4
00000f09 03             8307 	.byte	3
00000f0a 10             8308 	.byte	16
00000f0b 23             8309 	.byte	35
00000f0c 04             8310 	.byte	4
00000f0d 04             8311 	.byte	4
00000f0e 03             8312 	.byte	3
00000f0f 06             8313 	.byte	6
00000f10 24             8314 	.byte	36
00000f11 04             8315 	.byte	4
00000f12 03             8316 	.byte	3
00000f13 07             8317 	.byte	7
00000f14 25             8318 	.byte	37
00000f15 01             8319 	.byte	1
00000f16 20             8320 	.byte	32
00000f17 44454d5f4346   8321 	.strz	"DEM_CFG_EVCOMB_DISABLED 1u"
00000f1d 475f4556434f 
00000f23 4d425f444953 
00000f29 41424c454420 
00000f2f 317500 
00000f32 01             8322 	.byte	1
00000f33 23             8323 	.byte	35
00000f34 44454d5f4346   8324 	.strz	"DEM_CFG_EVCOMB DEM_CFG_EVCOMB_DISABLED"
00000f3a 475f4556434f 
00000f40 4d422044454d 
00000f46 5f4346475f45 
00000f4c 56434f4d425f 
00000f52 44495341424c 
00000f58 454400 
00000f5b 04             8325 	.byte	4
00000f5c 03             8326 	.byte	3
00000f5d 09             8327 	.byte	9
00000f5e 26             8328 	.byte	38
00000f5f 01             8329 	.byte	1
00000f60 32             8330 	.byte	50
00000f61 44454d5f4e4f   8331 	.strz	"DEM_NO_SUPPRESSION STD_OFF"
00000f67 5f5355505052 
00000f6d 455353494f4e 
00000f73 205354445f4f 
00000f79 464600 
00000f7c 01             8332 	.byte	1

                                                                      Page 167
                                                              C:\Users\nhuliyap\AppData\Local\Temp\gh_0000b0k1.s
00000f7d 33             8333 	.byte	51
00000f7e 44454d5f4556   8334 	.strz	"DEM_EVENT_SUPPRESSION STD_ON"
00000f84 454e545f5355 
00000f8a 505052455353 
00000f90 494f4e205354 
00000f96 445f4f4e00 
00000f9b 01             8335 	.byte	1
00000f9c 34             8336 	.byte	52
00000f9d 44454d5f4454   8337 	.strz	"DEM_DTC_SUPPRESSION (STD_ON+STD_OFF+1)"
00000fa3 435f53555050 
00000fa9 52455353494f 
00000faf 4e2028535444 
00000fb5 5f4f4e2b5354 
00000fbb 445f4f46462b 
00000fc1 312900 
00000fc4 01             8338 	.byte	1
00000fc5 35             8339 	.byte	53
00000fc6 44454d5f4556   8340 	.strz	"DEM_EVENT_AND_DTC_SUPPRESSION (DEM_DTC_SUPPRESSION+1)"
00000fcc 454e545f414e 
00000fd2 445f4454435f 
00000fd8 535550505245 
00000fde 5353494f4e20 
00000fe4 2844454d5f44 
00000fea 54435f535550 
00000ff0 505245535349 
00000ff6 4f4e2b312900 
00000ffc 01             8341 	.byte	1
00000ffd 36             8342 	.byte	54
00000ffe 44454d5f4346   8343 	.strz	"DEM_CFG_SUPPRESSION DEM_EVENT_SUPPRESSION"
00001004 475f53555050 
0000100a 52455353494f 
00001010 4e2044454d5f 
00001016 4556454e545f 
0000101c 535550505245 
00001022 5353494f4e00 
00001028 04             8344 	.byte	4
00001029 03             8345 	.byte	3
0000102a 0a             8346 	.byte	10
0000102b 27             8347 	.byte	39
0000102c 04             8348 	.byte	4
0000102d 03             8349 	.byte	3
0000102e 0b             8350 	.byte	11
0000102f 28             8351 	.byte	40
00001030 01             8352 	.byte	1
00001031 20             8353 	.byte	32
00001032 44454d5f4346   8354 	.strz	"DEM_CFG_ENABLECONDITION_ON STD_ON"
00001038 475f454e4142 
0000103e 4c45434f4e44 
00001044 4954494f4e5f 
0000104a 4f4e20535444 
00001050 5f4f4e00 
00001054 01             8355 	.byte	1
00001055 21             8356 	.byte	33
00001056 44454d5f4346   8357 	.strz	"DEM_CFG_ENABLECONDITION_OFF STD_OFF"
0000105c 475f454e4142 
00001062 4c45434f4e44 
00001068 4954494f4e5f 
0000106e 4f4646205354 
00001074 445f4f464600 
0000107a 01             8358 	.byte	1
0000107b 22             8359 	.byte	34

                                                                      Page 168
                                                              C:\Users\nhuliyap\AppData\Local\Temp\gh_0000b0k1.s
0000107c 44454d5f4346   8360 	.strz	"DEM_CFG_ENABLECONDITION DEM_CFG_ENABLECONDITION_OFF"
00001082 475f454e4142 
00001088 4c45434f4e44 
0000108e 4954494f4e20 
00001094 44454d5f4346 
0000109a 475f454e4142 
000010a0 4c45434f4e44 
000010a6 4954494f4e5f 
000010ac 4f464600 
000010b0 01             8361 	.byte	1
000010b1 24             8362 	.byte	36
000010b2 44454d5f454e   8363 	.strz	"DEM_ENABLECONDITION_COUNT 0u"
000010b8 41424c45434f 
000010be 4e444954494f 
000010c4 4e5f434f554e 
000010ca 5420307500 
000010cf 01             8364 	.byte	1
000010d0 25             8365 	.byte	37
000010d1 44454d5f454e   8366 	.strz	"DEM_ENABLECONDITION_ARRAYLENGTH (DEM_ENABLECONDITION_COUNT)"
000010d7 41424c45434f 
000010dd 4e444954494f 
000010e3 4e5f41525241 
000010e9 594c454e4754 
000010ef 48202844454d 
000010f5 5f454e41424c 
000010fb 45434f4e4449 
00001101 54494f4e5f43 
00001107 4f554e542900 
0000110d 04             8367 	.byte	4
0000110e 03             8368 	.byte	3
0000110f 0c             8369 	.byte	12
00001110 29             8370 	.byte	41
00001111 01             8371 	.byte	1
00001112 20             8372 	.byte	32
00001113 44454d5f4346   8373 	.strz	"DEM_CFG_EVTCATEGORY_OFF STD_OFF"
00001119 475f45565443 
0000111f 415445474f52 
00001125 595f4f464620 
0000112b 5354445f4f46 
00001131 4600 
00001133 01             8374 	.byte	1
00001134 21             8375 	.byte	33
00001135 44454d5f4346   8376 	.strz	"DEM_CFG_EVTCATEGORY_ON STD_ON"
0000113b 475f45565443 
00001141 415445474f52 
00001147 595f4f4e2053 
0000114d 54445f4f4e00 
00001153 01             8377 	.byte	1
00001154 23             8378 	.byte	35
00001155 44454d5f4346   8379 	.strz	"DEM_CFG_EVTCATEGORY DEM_CFG_EVTCATEGORY_OFF"
0000115b 475f45565443 
00001161 415445474f52 
00001167 592044454d5f 
0000116d 4346475f4556 
00001173 544341544547 
00001179 4f52595f4f46 
0000117f 4600 
00001181 04             8380 	.byte	4
00001182 03             8381 	.byte	3
00001183 0d             8382 	.byte	13
00001184 2a             8383 	.byte	42

                                                                      Page 169
                                                              C:\Users\nhuliyap\AppData\Local\Temp\gh_0000b0k1.s
00001185 04             8384 	.byte	4
00001186 03             8385 	.byte	3
00001187 0e             8386 	.byte	14
00001188 2b             8387 	.byte	43
00001189 03             8388 	.byte	3
0000118a 1b             8389 	.byte	27
0000118b 2c             8390 	.byte	44
0000118c 04             8391 	.byte	4
0000118d 03             8392 	.byte	3
0000118e 1c             8393 	.byte	28
0000118f 2d             8394 	.byte	45
00001190 04             8395 	.byte	4
00001191 03             8396 	.byte	3
00001192 1d             8397 	.byte	29
00001193 2e             8398 	.byte	46
00001194 04             8399 	.byte	4
00001195 01             8400 	.byte	1
00001196 26             8401 	.byte	38
00001197 44454d5f4f50   8402 	.strz	"DEM_OPERATIONCYCLE_COUNT 3"
0000119d 45524154494f 
000011a3 4e4359434c45 
000011a9 5f434f554e54 
000011af 203300 
000011b2 04             8403 	.byte	4
000011b3 03             8404 	.byte	3
000011b4 0f             8405 	.byte	15
000011b5 2f             8406 	.byte	47
000011b6 01             8407 	.byte	1
000011b7 20             8408 	.byte	32
000011b8 44454d5f4346   8409 	.strz	"DEM_CFG_STORAGECONDITION_ON STD_ON"
000011be 475f53544f52 
000011c4 414745434f4e 
000011ca 444954494f4e 
000011d0 5f4f4e205354 
000011d6 445f4f4e00 
000011db 01             8410 	.byte	1
000011dc 21             8411 	.byte	33
000011dd 44454d5f4346   8412 	.strz	"DEM_CFG_STORAGECONDITION_OFF STD_OFF"
000011e3 475f53544f52 
000011e9 414745434f4e 
000011ef 444954494f4e 
000011f5 5f4f46462053 
000011fb 54445f4f4646 
00001201 00 
00001202 01             8413 	.byte	1
00001203 22             8414 	.byte	34
00001204 44454d5f4346   8415 	.strz	"DEM_CFG_STORAGECONDITION DEM_CFG_STORAGECONDITION_OFF"
0000120a 475f53544f52 
00001210 414745434f4e 
00001216 444954494f4e 
0000121c 2044454d5f43 
00001222 46475f53544f 
00001228 52414745434f 
0000122e 4e444954494f 
00001234 4e5f4f464600 
0000123a 01             8416 	.byte	1
0000123b 24             8417 	.byte	36
0000123c 44454d5f5354   8418 	.strz	"DEM_STORAGECONDITION_COUNT 0u"
00001242 4f5241474543 
00001248 4f4e44495449 
0000124e 4f4e5f434f55 

                                                                      Page 170
                                                              C:\Users\nhuliyap\AppData\Local\Temp\gh_0000b0k1.s
00001254 4e5420307500 
0000125a 01             8419 	.byte	1
0000125b 25             8420 	.byte	37
0000125c 44454d5f5354   8421 	.strz	"DEM_STORAGECONDITION_ARRAYLENGTH (DEM_STORAGECONDITION_COUNT)"
00001262 4f5241474543 
00001268 4f4e44495449 
0000126e 4f4e5f415252 
00001274 41594c454e47 
0000127a 544820284445 
00001280 4d5f53544f52 
00001286 414745434f4e 
0000128c 444954494f4e 
00001292 5f434f554e54 
00001298 2900 
0000129a 04             8422 	.byte	4
0000129b 03             8423 	.byte	3
0000129c 10             8424 	.byte	16
0000129d 30             8425 	.byte	48
0000129e 01             8426 	.byte	1
0000129f 08             8427 	.byte	8
000012a0 44454d5f5354   8428 	.strz	"DEM_START_SEC_CODE "
000012a6 4152545f5345 
000012ac 435f434f4445 
000012b2 2000 
000012b4 03             8429 	.byte	3
000012b5 09             8430 	.byte	9
000012b6 31             8431 	.byte	49
000012b7 03             8432 	.byte	3
000012b8 08             8433 	.byte	8
000012b9 32             8434 	.byte	50
000012ba 01             8435 	.byte	1
000012bb 06             8436 	.byte	6
000012bc 44454d5f4d45   8437 	.strz	"DEM_MEMMAP_ERROR "
000012c2 4d4d41505f45 
000012c8 52524f522000 
000012ce 01             8438 	.byte	1
000012cf 51             8439 	.byte	81
000012d0 4253575f5354   8440 	.strz	"BSW_START_SEC_CODE "
000012d6 4152545f5345 
000012dc 435f434f4445 
000012e2 2000 
000012e4 03             8441 	.byte	3
000012e5 52             8442 	.byte	82
000012e6 33             8443 	.byte	51
000012e7 01             8444 	.byte	1
000012e8 e408           8445 	.byte	228,8
000012ea 53544152545f   8446 	.strz	"START_SEC_CODE "
000012f0 5345435f434f 
000012f6 44452000 
000012fa 03             8447 	.byte	3
000012fb c509           8448 	.byte	197,9
000012fd 34             8449 	.byte	52
000012fe 01             8450 	.byte	1
000012ff f407           8451 	.byte	244,7
00001301 434f44455f53   8452 	.strz	"CODE_SEC_OPEN "
00001307 45435f4f5045 
0000130d 4e2000 
00001310 04             8453 	.byte	4
00001311 04             8454 	.byte	4
00001312 01             8455 	.byte	1
00001313 56             8456 	.byte	86

                                                                      Page 171
                                                              C:\Users\nhuliyap\AppData\Local\Temp\gh_0000b0k1.s
00001314 44454d5f5741   8457 	.strz	"DEM_WAS_STARTED_SEC_CODE "
0000131a 535f53544152 
00001320 5445445f5345 
00001326 435f434f4445 
0000132c 2000 
0000132e 04             8458 	.byte	4
0000132f 04             8459 	.byte	4
00001330 01             8460 	.byte	1
00001331 0f             8461 	.byte	15
00001332 44454d5f5354   8462 	.strz	"DEM_STOP_SEC_CODE "
00001338 4f505f534543 
0000133e 5f434f444520 
00001344 00 
00001345 03             8463 	.byte	3
00001346 10             8464 	.byte	16
00001347 31             8465 	.byte	49
00001348 03             8466 	.byte	3
00001349 08             8467 	.byte	8
0000134a 32             8468 	.byte	50
0000134b 01             8469 	.byte	1
0000134c 06             8470 	.byte	6
0000134d 44454d5f4d45   8471 	.strz	"DEM_MEMMAP_ERROR "
00001353 4d4d41505f45 
00001359 52524f522000 
0000135f 01             8472 	.byte	1
00001360 5e             8473 	.byte	94
00001361 4253575f5354   8474 	.strz	"BSW_STOP_SEC_CODE "
00001367 4f505f534543 
0000136d 5f434f444520 
00001373 00 
00001374 03             8475 	.byte	3
00001375 5f             8476 	.byte	95
00001376 33             8477 	.byte	51
00001377 01             8478 	.byte	1
00001378 e808           8479 	.byte	232,8
0000137a 53544f505f53   8480 	.strz	"STOP_SEC_CODE "
00001380 45435f434f44 
00001386 452000 
00001389 03             8481 	.byte	3
0000138a c509           8482 	.byte	197,9
0000138c 34             8483 	.byte	52
0000138d 04             8484 	.byte	4
0000138e 04             8485 	.byte	4
0000138f 04             8486 	.byte	4
00001390 04             8487 	.byte	4
00001391 04             8488 	.byte	4
00001392 03             8489 	.byte	3
00001393 11             8490 	.byte	17
00001394 35             8491 	.byte	53
00001395 03             8492 	.byte	3
00001396 0d             8493 	.byte	13
00001397 36             8494 	.byte	54
00001398 03             8495 	.byte	3
00001399 07             8496 	.byte	7
0000139a 37             8497 	.byte	55
0000139b 03             8498 	.byte	3
0000139c 06             8499 	.byte	6
0000139d 38             8500 	.byte	56
0000139e 04             8501 	.byte	4
0000139f 04             8502 	.byte	4
000013a0 01             8503 	.byte	1

                                                                      Page 172
                                                              C:\Users\nhuliyap\AppData\Local\Temp\gh_0000b0k1.s
000013a1 0d             8504 	.byte	13
000013a2 44454d5f5354   8505 	.strz	"DEM_START_SEC_CODE "
000013a8 4152545f5345 
000013ae 435f434f4445 
000013b4 2000 
000013b6 03             8506 	.byte	3
000013b7 0e             8507 	.byte	14
000013b8 31             8508 	.byte	49
000013b9 03             8509 	.byte	3
000013ba 08             8510 	.byte	8
000013bb 32             8511 	.byte	50
000013bc 01             8512 	.byte	1
000013bd 06             8513 	.byte	6
000013be 44454d5f4d45   8514 	.strz	"DEM_MEMMAP_ERROR "
000013c4 4d4d41505f45 
000013ca 52524f522000 
000013d0 01             8515 	.byte	1
000013d1 51             8516 	.byte	81
000013d2 4253575f5354   8517 	.strz	"BSW_START_SEC_CODE "
000013d8 4152545f5345 
000013de 435f434f4445 
000013e4 2000 
000013e6 03             8518 	.byte	3
000013e7 52             8519 	.byte	82
000013e8 33             8520 	.byte	51
000013e9 01             8521 	.byte	1
000013ea e408           8522 	.byte	228,8
000013ec 53544152545f   8523 	.strz	"START_SEC_CODE "
000013f2 5345435f434f 
000013f8 44452000 
000013fc 03             8524 	.byte	3
000013fd c509           8525 	.byte	197,9
000013ff 34             8526 	.byte	52
00001400 01             8527 	.byte	1
00001401 f407           8528 	.byte	244,7
00001403 434f44455f53   8529 	.strz	"CODE_SEC_OPEN "
00001409 45435f4f5045 
0000140f 4e2000 
00001412 04             8530 	.byte	4
00001413 04             8531 	.byte	4
00001414 01             8532 	.byte	1
00001415 56             8533 	.byte	86
00001416 44454d5f5741   8534 	.strz	"DEM_WAS_STARTED_SEC_CODE "
0000141c 535f53544152 
00001422 5445445f5345 
00001428 435f434f4445 
0000142e 2000 
00001430 04             8535 	.byte	4
00001431 04             8536 	.byte	4
00001432 01             8537 	.byte	1
00001433 57             8538 	.byte	87
00001434 44454d5f5354   8539 	.strz	"DEM_STOP_SEC_CODE "
0000143a 4f505f534543 
00001440 5f434f444520 
00001446 00 
00001447 03             8540 	.byte	3
00001448 58             8541 	.byte	88
00001449 31             8542 	.byte	49
0000144a 03             8543 	.byte	3
0000144b 08             8544 	.byte	8
0000144c 32             8545 	.byte	50

                                                                      Page 173
                                                              C:\Users\nhuliyap\AppData\Local\Temp\gh_0000b0k1.s
0000144d 01             8546 	.byte	1
0000144e 06             8547 	.byte	6
0000144f 44454d5f4d45   8548 	.strz	"DEM_MEMMAP_ERROR "
00001455 4d4d41505f45 
0000145b 52524f522000 
00001461 01             8549 	.byte	1
00001462 5e             8550 	.byte	94
00001463 4253575f5354   8551 	.strz	"BSW_STOP_SEC_CODE "
00001469 4f505f534543 
0000146f 5f434f444520 
00001475 00 
00001476 03             8552 	.byte	3
00001477 5f             8553 	.byte	95
00001478 33             8554 	.byte	51
00001479 01             8555 	.byte	1
0000147a e808           8556 	.byte	232,8
0000147c 53544f505f53   8557 	.strz	"STOP_SEC_CODE "
00001482 45435f434f44 
00001488 452000 
0000148b 03             8558 	.byte	3
0000148c c509           8559 	.byte	197,9
0000148e 34             8560 	.byte	52
0000148f 04             8561 	.byte	4
00001490 04             8562 	.byte	4
00001491 04             8563 	.byte	4
00001492 04             8564 	.byte	4
00001493 04             8565 	.byte	4
00001494 04             8566 	.byte	4
00001495 03             8567 	.byte	3
00001496 12             8568 	.byte	18
00001497 39             8569 	.byte	57
00001498 04             8570 	.byte	4
00001499 01             8571 	.byte	1
0000149a 20             8572 	.byte	32
0000149b 44454d5f5354   8573 	.strz	"DEM_START_SEC_CODE "
000014a1 4152545f5345 
000014a7 435f434f4445 
000014ad 2000 
000014af 03             8574 	.byte	3
000014b0 21             8575 	.byte	33
000014b1 31             8576 	.byte	49
000014b2 03             8577 	.byte	3
000014b3 08             8578 	.byte	8
000014b4 32             8579 	.byte	50
000014b5 01             8580 	.byte	1
000014b6 06             8581 	.byte	6
000014b7 44454d5f4d45   8582 	.strz	"DEM_MEMMAP_ERROR "
000014bd 4d4d41505f45 
000014c3 52524f522000 
000014c9 01             8583 	.byte	1
000014ca 51             8584 	.byte	81
000014cb 4253575f5354   8585 	.strz	"BSW_START_SEC_CODE "
000014d1 4152545f5345 
000014d7 435f434f4445 
000014dd 2000 
000014df 03             8586 	.byte	3
000014e0 52             8587 	.byte	82
000014e1 33             8588 	.byte	51
000014e2 01             8589 	.byte	1
000014e3 e408           8590 	.byte	228,8
000014e5 53544152545f   8591 	.strz	"START_SEC_CODE "

                                                                      Page 174
                                                              C:\Users\nhuliyap\AppData\Local\Temp\gh_0000b0k1.s
000014eb 5345435f434f 
000014f1 44452000 
000014f5 03             8592 	.byte	3
000014f6 c509           8593 	.byte	197,9
000014f8 34             8594 	.byte	52
000014f9 01             8595 	.byte	1
000014fa f407           8596 	.byte	244,7
000014fc 434f44455f53   8597 	.strz	"CODE_SEC_OPEN "
00001502 45435f4f5045 
00001508 4e2000 
0000150b 04             8598 	.byte	4
0000150c 04             8599 	.byte	4
0000150d 01             8600 	.byte	1
0000150e 56             8601 	.byte	86
0000150f 44454d5f5741   8602 	.strz	"DEM_WAS_STARTED_SEC_CODE "
00001515 535f53544152 
0000151b 5445445f5345 
00001521 435f434f4445 
00001527 2000 
00001529 04             8603 	.byte	4
0000152a 04             8604 	.byte	4
0000152b 01             8605 	.byte	1
0000152c d501           8606 	.byte	213,1
0000152e 44454d5f5354   8607 	.strz	"DEM_STOP_SEC_CODE "
00001534 4f505f534543 
0000153a 5f434f444520 
00001540 00 
00001541 03             8608 	.byte	3
00001542 d601           8609 	.byte	214,1
00001544 31             8610 	.byte	49
00001545 03             8611 	.byte	3
00001546 08             8612 	.byte	8
00001547 32             8613 	.byte	50
00001548 01             8614 	.byte	1
00001549 06             8615 	.byte	6
0000154a 44454d5f4d45   8616 	.strz	"DEM_MEMMAP_ERROR "
00001550 4d4d41505f45 
00001556 52524f522000 
0000155c 01             8617 	.byte	1
0000155d 5e             8618 	.byte	94
0000155e 4253575f5354   8619 	.strz	"BSW_STOP_SEC_CODE "
00001564 4f505f534543 
0000156a 5f434f444520 
00001570 00 
00001571 03             8620 	.byte	3
00001572 5f             8621 	.byte	95
00001573 33             8622 	.byte	51
00001574 01             8623 	.byte	1
00001575 e808           8624 	.byte	232,8
00001577 53544f505f53   8625 	.strz	"STOP_SEC_CODE "
0000157d 45435f434f44 
00001583 452000 
00001586 03             8626 	.byte	3
00001587 c509           8627 	.byte	197,9
00001589 34             8628 	.byte	52
0000158a 04             8629 	.byte	4
0000158b 04             8630 	.byte	4
0000158c 04             8631 	.byte	4
0000158d 04             8632 	.byte	4
0000158e 01             8633 	.byte	1
0000158f d801           8634 	.byte	216,1

                                                                      Page 175
                                                              C:\Users\nhuliyap\AppData\Local\Temp\gh_0000b0k1.s
00001591 44454d5f5354   8635 	.strz	"DEM_START_SEC_CONST "
00001597 4152545f5345 
0000159d 435f434f4e53 
000015a3 542000 
000015a6 03             8636 	.byte	3
000015a7 d901           8637 	.byte	217,1
000015a9 31             8638 	.byte	49
000015aa 03             8639 	.byte	3
000015ab 08             8640 	.byte	8
000015ac 32             8641 	.byte	50
000015ad 01             8642 	.byte	1
000015ae 06             8643 	.byte	6
000015af 44454d5f4d45   8644 	.strz	"DEM_MEMMAP_ERROR "
000015b5 4d4d41505f45 
000015bb 52524f522000 
000015c1 01             8645 	.byte	1
000015c2 3a             8646 	.byte	58
000015c3 4253575f5354   8647 	.strz	"BSW_START_SEC_CONST_UNSPECIFIED "
000015c9 4152545f5345 
000015cf 435f434f4e53 
000015d5 545f554e5350 
000015db 454349464945 
000015e1 442000 
000015e4 03             8648 	.byte	3
000015e5 3b             8649 	.byte	59
000015e6 33             8650 	.byte	51
000015e7 01             8651 	.byte	1
000015e8 fa05           8652 	.byte	250,5
000015ea 53544152545f   8653 	.strz	"START_SEC_CONST_UNSPECIFIED "
000015f0 5345435f434f 
000015f6 4e53545f554e 
000015fc 535045434946 
00001602 4945442000 
00001607 03             8654 	.byte	3
00001608 c509           8655 	.byte	197,9
0000160a 34             8656 	.byte	52
0000160b 01             8657 	.byte	1
0000160c b508           8658 	.byte	181,8
0000160e 434f4e53545f   8659 	.strz	"CONST_SEC_OPEN "
00001614 5345435f4f50 
0000161a 454e2000 
0000161e 04             8660 	.byte	4
0000161f 04             8661 	.byte	4
00001620 01             8662 	.byte	1
00001621 3f             8663 	.byte	63
00001622 44454d5f5741   8664 	.strz	"DEM_WAS_STARTED_SEC_CONST "
00001628 535f53544152 
0000162e 5445445f5345 
00001634 435f434f4e53 
0000163a 542000 
0000163d 04             8665 	.byte	4
0000163e 04             8666 	.byte	4
0000163f 01             8667 	.byte	1
00001640 db01           8668 	.byte	219,1
00001642 44454d5f5354   8669 	.strz	"DEM_STOP_SEC_CONST "
00001648 4f505f534543 
0000164e 5f434f4e5354 
00001654 2000 
00001656 03             8670 	.byte	3
00001657 dc01           8671 	.byte	220,1
00001659 31             8672 	.byte	49

                                                                      Page 176
                                                              C:\Users\nhuliyap\AppData\Local\Temp\gh_0000b0k1.s
0000165a 03             8673 	.byte	3
0000165b 08             8674 	.byte	8
0000165c 32             8675 	.byte	50
0000165d 01             8676 	.byte	1
0000165e 06             8677 	.byte	6
0000165f 44454d5f4d45   8678 	.strz	"DEM_MEMMAP_ERROR "
00001665 4d4d41505f45 
0000166b 52524f522000 
00001671 01             8679 	.byte	1
00001672 47             8680 	.byte	71
00001673 4253575f5354   8681 	.strz	"BSW_STOP_SEC_CONST_UNSPECIFIED "
00001679 4f505f534543 
0000167f 5f434f4e5354 
00001685 5f554e535045 
0000168b 434946494544 
00001691 2000 
00001693 03             8682 	.byte	3
00001694 48             8683 	.byte	72
00001695 33             8684 	.byte	51
00001696 01             8685 	.byte	1
00001697 fe05           8686 	.byte	254,5
00001699 53544f505f53   8687 	.strz	"STOP_SEC_CONST "
0000169f 45435f434f4e 
000016a5 53542000 
000016a9 03             8688 	.byte	3
000016aa c509           8689 	.byte	197,9
000016ac 34             8690 	.byte	52
000016ad 04             8691 	.byte	4
000016ae 04             8692 	.byte	4
000016af 04             8693 	.byte	4
000016b0 04             8694 	.byte	4
000016b1 01             8695 	.byte	1
000016b2 de01           8696 	.byte	222,1
000016b4 44454d5f5354   8697 	.strz	"DEM_START_SEC_CODE "
000016ba 4152545f5345 
000016c0 435f434f4445 
000016c6 2000 
000016c8 03             8698 	.byte	3
000016c9 df01           8699 	.byte	223,1
000016cb 31             8700 	.byte	49
000016cc 03             8701 	.byte	3
000016cd 08             8702 	.byte	8
000016ce 32             8703 	.byte	50
000016cf 01             8704 	.byte	1
000016d0 06             8705 	.byte	6
000016d1 44454d5f4d45   8706 	.strz	"DEM_MEMMAP_ERROR "
000016d7 4d4d41505f45 
000016dd 52524f522000 
000016e3 01             8707 	.byte	1
000016e4 51             8708 	.byte	81
000016e5 4253575f5354   8709 	.strz	"BSW_START_SEC_CODE "
000016eb 4152545f5345 
000016f1 435f434f4445 
000016f7 2000 
000016f9 03             8710 	.byte	3
000016fa 52             8711 	.byte	82
000016fb 33             8712 	.byte	51
000016fc 01             8713 	.byte	1
000016fd e408           8714 	.byte	228,8
000016ff 53544152545f   8715 	.strz	"START_SEC_CODE "
00001705 5345435f434f 

                                                                      Page 177
                                                              C:\Users\nhuliyap\AppData\Local\Temp\gh_0000b0k1.s
0000170b 44452000 
0000170f 03             8716 	.byte	3
00001710 c509           8717 	.byte	197,9
00001712 34             8718 	.byte	52
00001713 01             8719 	.byte	1
00001714 f407           8720 	.byte	244,7
00001716 434f44455f53   8721 	.strz	"CODE_SEC_OPEN "
0000171c 45435f4f5045 
00001722 4e2000 
00001725 04             8722 	.byte	4
00001726 04             8723 	.byte	4
00001727 01             8724 	.byte	1
00001728 56             8725 	.byte	86
00001729 44454d5f5741   8726 	.strz	"DEM_WAS_STARTED_SEC_CODE "
0000172f 535f53544152 
00001735 5445445f5345 
0000173b 435f434f4445 
00001741 2000 
00001743 04             8727 	.byte	4
00001744 04             8728 	.byte	4
00001745 01             8729 	.byte	1
00001746 e301           8730 	.byte	227,1
00001748 44454d5f5354   8731 	.strz	"DEM_STOP_SEC_CODE "
0000174e 4f505f534543 
00001754 5f434f444520 
0000175a 00 
0000175b 03             8732 	.byte	3
0000175c e401           8733 	.byte	228,1
0000175e 31             8734 	.byte	49
0000175f 03             8735 	.byte	3
00001760 08             8736 	.byte	8
00001761 32             8737 	.byte	50
00001762 01             8738 	.byte	1
00001763 06             8739 	.byte	6
00001764 44454d5f4d45   8740 	.strz	"DEM_MEMMAP_ERROR "
0000176a 4d4d41505f45 
00001770 52524f522000 
00001776 01             8741 	.byte	1
00001777 5e             8742 	.byte	94
00001778 4253575f5354   8743 	.strz	"BSW_STOP_SEC_CODE "
0000177e 4f505f534543 
00001784 5f434f444520 
0000178a 00 
0000178b 03             8744 	.byte	3
0000178c 5f             8745 	.byte	95
0000178d 33             8746 	.byte	51
0000178e 01             8747 	.byte	1
0000178f e808           8748 	.byte	232,8
00001791 53544f505f53   8749 	.strz	"STOP_SEC_CODE "
00001797 45435f434f44 
0000179d 452000 
000017a0 03             8750 	.byte	3
000017a1 c509           8751 	.byte	197,9
000017a3 34             8752 	.byte	52
000017a4 04             8753 	.byte	4
000017a5 04             8754 	.byte	4
000017a6 04             8755 	.byte	4
000017a7 04             8756 	.byte	4
000017a8 04             8757 	.byte	4
000017a9 04             8758 	.byte	4
000017aa 03             8759 	.byte	3

                                                                      Page 178
                                                              C:\Users\nhuliyap\AppData\Local\Temp\gh_0000b0k1.s
000017ab 0a             8760 	.byte	10
000017ac 3a             8761 	.byte	58
000017ad 04             8762 	.byte	4
000017ae 04             8763 	.byte	4
000017af 00             8764 	.byte	0
                        8765 	.section	.debug_abbrev
00000197 00             8766 	.byte	0
                        8767 	.section	.debug_info
                        8768 .Ldw_end:
                        8769 .rh850_flags REGMODE32,DATA_ALIGN8,GP_FIX,EP_NONFIX,TP_FIX,REG2_RESERVE,G3K,GHS_MISALIGN,SDA_EXTRA_REGS_0
