                                                                      Page 1
                                                              C:\Users\nhuliyap\AppData\Local\Temp\gh_0000d3s1.s
Command Line: C:\ghs\comp_201517\ease850.exe -w -elf -b0 -I../source/common -I../source/ProjectCompiler -I../source/ProjectCfg -I../source/SwcApplTpms -I../source/SwcApplTpms/Intface -I../source/SwcApplEcuM -I../source/SwcServiceEcuM -I../source/SwcServiceNvM -I../source/SwcServiceOs -I../source/SwcServiceStartUp -I../source/McalAdc -I../source/McalDio -I../source/McalGpt -I../source/McalMcu -I../source/McalWdg -I../source/wrappers -I../source/wrappers/McalAta -I../source/McalLin -I../source/McalCan -I../source/wrappers/OS -I../source/McalFls -I../source/EcuabFee -I../source/EcuabMemIf -I../source/wrappers/VStdLib -I../source/wrappers/Crc -I../source/wrappers/FBL_APPL -I../source/wrappers/CAN_MANAGER -I../source/wrappers/NVM_MANAGER -I../source/wrappers/DEM_MANAGER -I../source/wrappers/RDC_MANAGER -I../source/wrappers/ENV_MANAGER -I../source/wrappers/SYS_MANAGER -I../source/wrappers/EcuabCanIf -I../source/wrappers/SwcServiceCanSM -I../source/wrappers/SwcServiceCanTp -I../source/wrappers/SwcServiceCanTp_PreCompile -I../source/wrappers/SwcServiceCom -I../source/wrappers/SwcServiceComM -I../source/wrappers/SwcServiceComStack -I../source/wrappers/SwcServiceDcm -I../source/wrappers/SwcServicePduR -I../source/wrappers/SwcServiceEcuM -I../source/wrappers/Bfx -I../source/wrappers/SwcServiceDem -I../source/SwcServiceDet -I../source/SwcServiceFiM -I../source/wrappers/LibAutosarDiag -I../source/wrappers/rba_BswSrv -I../source/SwcServiceSchM -I../source/wrappers/SwcServiceComM/Integration -I../source/wrappers/SwcServicePduR/Integration -I../source/wrappers/EcuabCanIf/Integration -I../source/wrappers/SwcServiceCom/Integration -I../source/wrappers/SwcServiceCanTp/Integration -I../source/wrappers/SwcServiceEcuM/Integration -I../source/SwcServiceDet/Integration -I../source/wrappers/SwcServiceDcm/Integration -I../source/wrappers/SwcServiceDem/Integration -I../source/SwcServiceFiM/Integration -I../source/wrappers/EcuabCanIf/api -I../source/wrappers/SwcServiceCom/api -I../source/wrappers/SwcServiceComM/api -I../source/wrappers/SwcServicePduR/api -I../source/wrappers/Bfx/api -I../source/SwcServiceDet/api -I../source/SwcServiceFiM/api -I../source/wrappers/LibAutosarDiag/api -I../source/wrappers/rba_BswSrv/api -IC:\ghs\comp_201517\lib\rh850 -cg_underscore -cpu=rh850g3k -no_v850_simd -rh850_fpsimd=none -nomacro -patch_dbo=C:\_ECU2\ECU_Rivian_A1\Target\repo_projects\pRealEcu\cL_LATEST\make\output\objects\NvM_Act.dbo -source=NvM_Act.c -o output\objects\gh_0000d3s1.o -list=output\list\NvM_Act.lst C:\Users\nhuliyap\AppData\Local\Temp\gh_0000d3s1.s 
Original File: C:\Users\nhuliyap\AppData\Local\Temp\gh_0000d3s1.s
Source File: NvM_Act.c
Directory: C:\_ECU2\ECU_Rivian_A1\Target\repo_projects\pRealEcu\cL_LATEST\make
Host OS: Windows
EASE: Copyright (C) 1983-2015 Green Hills Software.  All Rights Reserved.
Release: Compiler v2015.1.7
Build Directory: [Directory] BTOWORKER6:c:/build_2015_1_bto/2015-10-21.2100-2015_1_bto/win32-comp-ecom
Revision: [VCInfo] http://toolsvc/branches/release-branch-70-bto/src@544153 (built by build)
Revision Date: Thu Oct 22 07:50:13 2015

Release Date: Thu Oct 22 09:32:32 2015

                           1 --Driver Command: ccv850 ../source/SwcServiceNvM/NvM_Act.c -cpu=rh850 -fhard
                           2 --		-ignore_callt_state_in_interrupts -large_sda -misalign_pack
                           3 --		-nofarcalls -nofloatio -no_callt -Ogeneral -Onounroll
                           4 --		-prepare_dispose -registermode=32 -reserve_r2 -sda=0
                           5 --		-shorten_loads -Wshadow --brief_diagnostics --no_commons
                           6 --		--no_wrap_diagnostics --prototype_errors --short_enum -list -G
                           7 --		-dual_debug -dwarf -X5523 -lnk=-no_xda_modifications -D
                           8 --		NOT_READY_FOR_TESTING_OR_DEPLOYMENT -D IBTCM_SW_ANPASSUNGEN -D
                           9 --		BUILD_LORDSTOWN -c -inline_prologue -I../source/common
                          10 --		-I../source/ProjectCompiler -I../source/ProjectCfg
                          11 --		-I../source/SwcApplTpms -I../source/SwcApplTpms/Intface
                          12 --		-I../source/SwcApplEcuM -I../source/SwcServiceEcuM
                          13 --		-I../source/SwcServiceNvM -I../source/SwcServiceOs
                          14 --		-I../source/SwcServiceStartUp -I../source/McalAdc
                          15 --		-I../source/McalDio -I../source/McalGpt -I../source/McalMcu
                          16 --		-I../source/McalWdg -I../source/wrappers
                          17 --		-I../source/wrappers/McalAta -I../source/McalLin
                          18 --		-I../source/McalCan -I../source/wrappers/OS -I../source/McalFls
                          19 --		-I../source/EcuabFee -I../source/EcuabMemIf
                          20 --		-I../source/wrappers/VStdLib -I../source/wrappers
                          21 --		-I../source/wrappers/Crc -I../source/wrappers/FBL_APPL
                          22 --		-I../source/wrappers/CAN_MANAGER -I../source/wrappers/NVM_MANAGER
                          23 --		-I../source/wrappers/DEM_MANAGER -I../source/wrappers/RDC_MANAGER
                          24 --		-I../source/wrappers/ENV_MANAGER -I../source/wrappers/SYS_MANAGER
                          25 --		-I../source/wrappers/EcuabCanIf
                          26 --		-I../source/wrappers/SwcServiceCanSM
                          27 --		-I../source/wrappers/SwcServiceCanTp
                          28 --		-I../source/wrappers/SwcServiceCanTp_PreCompile
                          29 --		-I../source/wrappers/SwcServiceCom
                          30 --		-I../source/wrappers/SwcServiceComM
                          31 --		-I../source/wrappers/SwcServiceComStack
                          32 --		-I../source/wrappers/SwcServiceDcm
                          33 --		-I../source/wrappers/SwcServicePduR
                          34 --		-I../source/wrappers/SwcServiceEcuM -I../source/wrappers/Bfx
                          35 --		-I../source/wrappers/SwcServiceDem -I../source/SwcServiceDet
                          36 --		-I../source/SwcServiceFiM -I../source/wrappers/LibAutosarDiag
                          37 --		-I../source/wrappers/rba_BswSrv -I../source/SwcServiceSchM
                          38 --		-I../source/wrappers/SwcServiceComM/Integration
                          39 --		-I../source/wrappers/SwcServicePduR/Integration
                          40 --		-I../source/wrappers/EcuabCanIf/Integration
                          41 --		-I../source/wrappers/SwcServiceCom/Integration
                          42 --		-I../source/wrappers/SwcServiceCanTp/Integration
                          43 --		-I../source/wrappers/SwcServiceEcuM/Integration
                          44 --		-I../source/SwcServiceDet/Integration
                          45 --		-I../source/wrappers/SwcServiceDcm/Integration
                          46 --		-I../source/wrappers/SwcServiceDem/Integration
                          47 --		-I../source/SwcServiceFiM/Integration
                          48 --		-I../source/wrappers/EcuabCanIf/api
                          49 --		-I../source/wrappers/SwcServiceCom/api
                          50 --		-I../source/wrappers/SwcServiceComM/api

                                                                      Page 2
                                                              C:\Users\nhuliyap\AppData\Local\Temp\gh_0000d3s1.s
                          51 --		-I../source/wrappers/SwcServicePduR/api
                          52 --		-I../source/wrappers/Bfx/api -I../source/SwcServiceDet/api
                          53 --		-I../source/SwcServiceFiM/api
                          54 --		-I../source/wrappers/LibAutosarDiag/api
                          55 --		-I../source/wrappers/rba_BswSrv/api -object_dir=output/objects
                          56 --		-list_dir=output/list
                          57 --Source File:   ../source/SwcServiceNvM/NvM_Act.c
                          58 --Directory:     
                          59 --		C:\_ECU2\ECU_Rivian_A1\Target\repo_projects\pRealEcu\cL_LATEST\make
                          60 --Compile Date:  Wed Sep 06 09:44:00 2023
                          61 --Host OS:       Win32
                          62 --Version:       C-RH850 2015.1.7 RELEASE VERSION
                          63 --Release:       Compiler v2015.1.7
                          64 --Revision Date: Thu Oct 22 08:06:12 2015
                          65 --Release Date:  Thu Oct 22 09:34:32 2015
                          66 -- ecom  -g -w -OM
                          67 	.text
                          68 ..bof.C.3A.5C_ECU2.5CECU_Rivian_A1.5CTarget.5Crepo_projects.5CpRealEcu.5CcL_LATEST.5Cmake.5Coutput.5Cobjects.5CNvM_Act...43.3A.5C_ECU2.5CECU_Rivian_A1.5CTarget.5Crepo_projects.5CpRealEcu.5CcL_LATEST.5Cmake..64F82DC0..0::
                          69 	.align	2
                          70 ..gh.f.f.1.e.0:
                          71 	.type	..gh.f.f.1.e.0,@object
                          72 	.size	..gh.f.f.1.e.0,0
                          73 	.global	_NvM_ActEraseNvBlock..C.3A.5C_ECU2.5CECU_Rivian_A1.5CTarget.5Crepo_projects.5CpRealEcu.5CcL_LATEST.5Cmake.5Coutput.5Cobjects.5CNvM_Act.
                          74 _NvM_ActEraseNvBlock..C.3A.5C_ECU2.5CECU_Rivian_A1.5CTarget.5Crepo_projects.5CpRealEcu.5CcL_LATEST.5Cmake.5Coutput.5Cobjects.5CNvM_Act.:
                          75 _NvM_ActEraseNvBlock:
00000000 8007e100         76 	prepare	{r28,r29,r31},0
                          77 --	    .bf
                          78 .LDW01:
00000004 3d0600000000*    79 	mov	_NvM_CurrentBlockInfo_t,r29
0000000a 3d370100         80 	ld.w	0[r29],r6
0000000e fd3f2100         81 	ld.hu	32[r29],r7
00000012 02e2             82 	mov	2,r28
00000014 86372300         83 	ld.bu	34[r6],r6
00000018 c6360f00         84 	andi	15,r6,r6
                          85 	jarl	_MemIf_EraseImmediateBlock,lp
                          85 <EXPANSION BEGIN>
                          85 jarl22 _MemIf_EraseImmediateBlock , lp 
0000001c 80ff0000*        85 <EXPANSION END>
00000020 e051             86 	cmp	zero,r10
                          87 --line246
                          88 ..lin.C.3A.5C_ECU2.5CECU_Rivian_A1.5CTarget.5Crepo_projects.5CpRealEcu.5CcL_LATEST.5Cmake.5Coutput.5Cobjects.5CNvM_Act.1::
                          89 .LDWlin1:
00000022 e1e714e3         90 	cmovne	1,r28,r28
00000026 5de72400         91 	st.b	r28,36[r29]
                          92 --	    .ef
                          93 .LDW11:
0000002a 4006ff00         94 	dispose	0,{r28,r29,r31},[lp]
                          95 ___ghs_eofn_NvM_ActEraseNvBlock:
                          96 	.type	_NvM_ActEraseNvBlock,@function
                          97 	.size	_NvM_ActEraseNvBlock,.-_NvM_ActEraseNvBlock
                          98 	.type	_NvM_ActEraseNvBlock..C.3A.5C_ECU2.5CECU_Rivian_A1.5CTarget.5Crepo_projects.5CpRealEcu.5CcL_LATEST.5Cmake.5Coutput.5Cobjects.5CNvM_Act.,@function
                          99 	.size	_NvM_ActEraseNvBlock..C.3A.5C_ECU2.5CECU_Rivian_A1.5CTarget.5Crepo_projects.5CpRealEcu.5CcL_LATEST.5Cmake.5Coutput.5Cobjects.5CNvM_Act.,.-_NvM_ActEraseNvBlock..C.3A.5C_ECU2.5CECU_Rivian_A1.5CTarget.5Crepo_projects.5CpRealEcu.5CcL_LATEST.5Cmake.5Coutput.5Cobjects.5CNvM_Act.
                         100 	.align	2
                         101 
                         102 	.section ".bss","awb"
                         103 .L58:
                         104 	.type	.L58,@object
                         105 	.size	.L58,0
                         106 	.data
                         107 	.text
                         108 	.align	2

                                                                      Page 3
                                                              C:\Users\nhuliyap\AppData\Local\Temp\gh_0000d3s1.s
                         109 	.align	2
                         110 ..gh.f.f.1.e.1:
                         111 	.type	..gh.f.f.1.e.1,@object
                         112 	.size	..gh.f.f.1.e.1,0
                         113 	.global	_NvM_IsWriteAllAndKilled..C.3A.5C_ECU2.5CECU_Rivian_A1.5CTarget.5Crepo_projects.5CpRealEcu.5CcL_LATEST.5Cmake.5Coutput.5Cobjects.5CNvM_Act.
                         114 _NvM_IsWriteAllAndKilled..C.3A.5C_ECU2.5CECU_Rivian_A1.5CTarget.5Crepo_projects.5CpRealEcu.5CcL_LATEST.5Cmake.5Coutput.5Cobjects.5CNvM_Act.:
                         115 _NvM_IsWriteAllAndKilled:
0000002e 8600            116 	zxb	r6
                         117 --	    .bf
                         118 .LDW21:
00000030 0052            119 	mov	0,r10
00000032 6532            120 	cmp	5,r6
00000034 ca05*           121 	bne	.L90
00000036 883a            122 	shr	8,r7
00000038 e1570000        123 	setfl	r10
                         124 .L90:
                         125 --	    .ef
                         126 .LDW31:
                         127 --line1246
                         128 ..lin.C.3A.5C_ECU2.5CECU_Rivian_A1.5CTarget.5Crepo_projects.5CpRealEcu.5CcL_LATEST.5Cmake.5Coutput.5Cobjects.5CNvM_Act.2::
                         129 .LDWlin2:
0000003c 7f00            130 	jmp	[lp]
                         131 ___ghs_eofn_NvM_IsWriteAllAndKilled:
                         132 	.type	_NvM_IsWriteAllAndKilled,@function
                         133 	.size	_NvM_IsWriteAllAndKilled,.-_NvM_IsWriteAllAndKilled
                         134 	.type	_NvM_IsWriteAllAndKilled..C.3A.5C_ECU2.5CECU_Rivian_A1.5CTarget.5Crepo_projects.5CpRealEcu.5CcL_LATEST.5Cmake.5Coutput.5Cobjects.5CNvM_Act.,@function
                         135 	.size	_NvM_IsWriteAllAndKilled..C.3A.5C_ECU2.5CECU_Rivian_A1.5CTarget.5Crepo_projects.5CpRealEcu.5CcL_LATEST.5Cmake.5Coutput.5Cobjects.5CNvM_Act.,.-_NvM_IsWriteAllAndKilled..C.3A.5C_ECU2.5CECU_Rivian_A1.5CTarget.5Crepo_projects.5CpRealEcu.5CcL_LATEST.5Cmake.5Coutput.5Cobjects.5CNvM_Act.
                         136 	.align	2
                         137 
                         138 --_currServiceId	r6	param
                         139 --_currApiFlag	r7	param
                         140 
                         141 	.section ".bss","awb"
                         142 .L134:
                         143 	.type	.L134,@object
                         144 	.size	.L134,0
                         145 	.data
                         146 	.text
                         147 	.align	2
                         148 	.align	2
                         149 ..gh.f.f.1.e.2:
                         150 	.type	..gh.f.f.1.e.2,@object
                         151 	.size	..gh.f.f.1.e.2,0
                         152 	.global	_NvM_ActFinishBlock..C.3A.5C_ECU2.5CECU_Rivian_A1.5CTarget.5Crepo_projects.5CpRealEcu.5CcL_LATEST.5Cmake.5Coutput.5Cobjects.5CNvM_Act.
                         153 _NvM_ActFinishBlock..C.3A.5C_ECU2.5CECU_Rivian_A1.5CTarget.5Crepo_projects.5CpRealEcu.5CcL_LATEST.5Cmake.5Coutput.5Cobjects.5CNvM_Act.:
                         154 _NvM_ActFinishBlock:
0000003e 8007e100        155 	prepare	{r28,r29,r31},0
                         156 --	    .bf
                         157 .LDW41:
00000042 3c0600000000*   158 	mov	_NvM_CurrentJob_t,r28
00000048 9cef0300        159 	ld.bu	2[r28],r29
0000004c 403e0000*       160 	movhi	hi(_NvM_ApiFlags_u8),zero,r7
00000050 873f0100*       161 	ld.bu	lo(_NvM_ApiFlags_u8)[r7],r7
00000054 1d30            162 	mov	r29,r6
                         163 	jarl	_NvM_IsWriteAllAndKilled,lp
                         163 <EXPANSION BEGIN>
                         163 jarl22 _NvM_IsWriteAllAndKilled , lp 
00000056 bfffd8ff*       163 <EXPANSION END>
0000005a 320600000000*   164 	mov	_NvM_CurrentBlockInfo_t,r18
00000060 e051            165 	cmp	zero,r10
00000062 ea05*           166 	bne	.L177

                                                                      Page 4
                                                              C:\Users\nhuliyap\AppData\Local\Temp\gh_0000d3s1.s
                         167 --line259
                         168 ..lin.C.3A.5C_ECU2.5CECU_Rivian_A1.5CTarget.5Crepo_projects.5CpRealEcu.5CcL_LATEST.5Cmake.5Coutput.5Cobjects.5CNvM_Act.3::
                         169 .LDWlin3:
00000064 32f70500        170 	ld.w	4[r18],ep
00000068 928f2500        171 	ld.bu	36[r18],r17
0000006c 818b            172 	sst.b	r17,1[ep]
                         173 .L177:
0000006e 65ea            174 	cmp	5,r29
00000070 da05*           175 	bne	.L180
00000072 92872500        176 	ld.bu	36[r18],r16
00000076 6482            177 	cmp	4,r16
00000078 e20d*           178 	be	.L179
                         179 .L180:
                         180 --line268
                         181 ..lin.C.3A.5C_ECU2.5CECU_Rivian_A1.5CTarget.5Crepo_projects.5CpRealEcu.5CcL_LATEST.5Cmake.5Coutput.5Cobjects.5CNvM_Act.4::
                         182 .LDWlin4:
0000007a fdf60300        183 	mulhi	3,r29,ep
0000007e 2f0600000000*   184 	mov	_NvM_IntServiceDescrTable_at,r15
00000084 fc370100        185 	ld.hu	0[r28],r6
00000088 92472500        186 	ld.bu	36[r18],r8
0000008c cff1            187 	add	r15,ep
0000008e 6238            188 	sld.bu	2[ep],r7
                         189 	jarl	_NvM_BlockNotification,lp
                         189 <EXPANSION BEGIN>
                         189 jarl22 _NvM_BlockNotification , lp 
00000090 80ff0000*       189 <EXPANSION END>
                         190 .L179:
                         191 --line273
                         192 ..lin.C.3A.5C_ECU2.5CECU_Rivian_A1.5CTarget.5Crepo_projects.5CpRealEcu.5CcL_LATEST.5Cmake.5Coutput.5Cobjects.5CNvM_Act.5::
                         193 .LDWlin5:
00000094 7c070500        194 	st.w	zero,4[r28]
                         195 --	    .ef
                         196 .LDW51:
00000098 4006ff00        197 	dispose	0,{r28,r29,r31},[lp]
                         198 ___ghs_eofn_NvM_ActFinishBlock:
                         199 	.type	_NvM_ActFinishBlock,@function
                         200 	.size	_NvM_ActFinishBlock,.-_NvM_ActFinishBlock
                         201 	.type	_NvM_ActFinishBlock..C.3A.5C_ECU2.5CECU_Rivian_A1.5CTarget.5Crepo_projects.5CpRealEcu.5CcL_LATEST.5Cmake.5Coutput.5Cobjects.5CNvM_Act.,@function
                         202 	.size	_NvM_ActFinishBlock..C.3A.5C_ECU2.5CECU_Rivian_A1.5CTarget.5Crepo_projects.5CpRealEcu.5CcL_LATEST.5Cmake.5Coutput.5Cobjects.5CNvM_Act.,.-_NvM_ActFinishBlock..C.3A.5C_ECU2.5CECU_Rivian_A1.5CTarget.5Crepo_projects.5CpRealEcu.5CcL_LATEST.5Cmake.5Coutput.5Cobjects.5CNvM_Act.
                         203 	.align	2
                         204 
                         205 	.section ".bss","awb"
                         206 .L234:
                         207 	.type	.L234,@object
                         208 	.size	.L234,0
                         209 	.data
                         210 	.text
                         211 	.align	2
                         212 	.align	2
                         213 ..gh.f.f.1.e.3:
                         214 	.type	..gh.f.f.1.e.3,@object
                         215 	.size	..gh.f.f.1.e.3,0
                         216 	.global	_NvM_IntCreateNvState..C.3A.5C_ECU2.5CECU_Rivian_A1.5CTarget.5Crepo_projects.5CpRealEcu.5CcL_LATEST.5Cmake.5Coutput.5Cobjects.5CNvM_Act.
                         217 _NvM_IntCreateNvState..C.3A.5C_ECU2.5CECU_Rivian_A1.5CTarget.5Crepo_projects.5CpRealEcu.5CcL_LATEST.5Cmake.5Coutput.5Cobjects.5CNvM_Act.:
                         218 _NvM_IntCreateNvState:
0000009c 06f0            219 	mov	r6,ep
0000009e 8700            220 	zxb	r7
                         221 --	    .bf
                         222 .LDW61:
000000a0 deff0000        223 	tst1	7,0[ep]
000000a4 0332            224 	mov	3,r6

                                                                      Page 5
                                                              C:\Users\nhuliyap\AppData\Local\Temp\gh_0000d3s1.s
000000a6 6088            225 	sld.bu	0[ep],r17
000000a8 e5370483        226 	cmove	5,r6,r16
000000ac f037c298        227 	shl	r16,r6,r19
000000b0 b396ff00        228 	xori	255,r19,r18
000000b4 5191            229 	and	r17,r18
000000b6 f03fc288        230 	shl	r16,r7,r17
000000ba 1289            231 	or	r18,r17
000000bc 808b            232 	sst.b	r17,0[ep]
                         233 --	    .ef
                         234 .LDW71:
000000be 7f00            235 	jmp	[lp]
                         236 ___ghs_eofn_NvM_IntCreateNvState:
                         237 	.type	_NvM_IntCreateNvState,@function
                         238 	.size	_NvM_IntCreateNvState,.-_NvM_IntCreateNvState
                         239 	.type	_NvM_IntCreateNvState..C.3A.5C_ECU2.5CECU_Rivian_A1.5CTarget.5Crepo_projects.5CpRealEcu.5CcL_LATEST.5Cmake.5Coutput.5Cobjects.5CNvM_Act.,@function
                         240 	.size	_NvM_IntCreateNvState..C.3A.5C_ECU2.5CECU_Rivian_A1.5CTarget.5Crepo_projects.5CpRealEcu.5CcL_LATEST.5Cmake.5Coutput.5Cobjects.5CNvM_Act.,.-_NvM_IntCreateNvState..C.3A.5C_ECU2.5CECU_Rivian_A1.5CTarget.5Crepo_projects.5CpRealEcu.5CcL_LATEST.5Cmake.5Coutput.5Cobjects.5CNvM_Act.
                         241 	.align	2
                         242 --_shift	r16	local
                         243 
                         244 --_NvState	ep	param
                         245 --_NewState	r7	param
                         246 
                         247 	.section ".bss","awb"
                         248 .L330:
                         249 	.type	.L330,@object
                         250 	.size	.L330,0
                         251 	.data
                         252 	.text
                         253 	.align	2
                         254 	.align	2
                         255 ..gh.f.f.1.e.4:
                         256 	.type	..gh.f.f.1.e.4,@object
                         257 	.size	..gh.f.f.1.e.4,0
                         258 	.global	_NvM_ActInitBlock..C.3A.5C_ECU2.5CECU_Rivian_A1.5CTarget.5Crepo_projects.5CpRealEcu.5CcL_LATEST.5Cmake.5Coutput.5Cobjects.5CNvM_Act.
                         259 _NvM_ActInitBlock..C.3A.5C_ECU2.5CECU_Rivian_A1.5CTarget.5Crepo_projects.5CpRealEcu.5CcL_LATEST.5Cmake.5Coutput.5Cobjects.5CNvM_Act.:
                         260 _NvM_ActInitBlock:
                         261 --	    .bf
                         262 .LDW81:
000000c0 2b0600000000*   263 	mov	_NvM_CurrentJob_t,r11
000000c6 eb570100        264 	ld.hu	0[r11],r10
                         265 --line477
                         266 ..lin.C.3A.5C_ECU2.5CECU_Rivian_A1.5CTarget.5Crepo_projects.5CpRealEcu.5CcL_LATEST.5Cmake.5Coutput.5Cobjects.5CNvM_Act.6::
                         267 .LDWlin6:
000000ca 290600000000*   268 	mov	_NvM_BlockDescriptorTable_at,r9
                         269 --line479
                         270 ..lin.C.3A.5C_ECU2.5CECU_Rivian_A1.5CTarget.5Crepo_projects.5CpRealEcu.5CcL_LATEST.5Cmake.5Coutput.5Cobjects.5CNvM_Act.7::
                         271 .LDWlin7:
000000d0 310600000000*   272 	mov	_NvM_DcmBlockMngmt_t,r17
000000d6 ca7eff7f        273 	andi	32767,r10,r15
000000da 0f90            274 	mov	r15,r18
000000dc e8974402        275 	mul	40,r18,zero
000000e0 c991            276 	add	r9,r18
000000e2 ef51            277 	cmp	r15,r10
000000e4 8a0d*           278 	bne	.L355
000000e6 0f88            279 	mov	r15,r17
000000e8 e38f4002        280 	mul	3,r17,zero
000000ec 280600000000*   281 	mov	_NvM_BlockMngmtArea_at,r8
000000f2 c889            282 	add	r8,r17
                         283 .L355:
                         284 --line485
                         285 ..lin.C.3A.5C_ECU2.5CECU_Rivian_A1.5CTarget.5Crepo_projects.5CpRealEcu.5CcL_LATEST.5Cmake.5Coutput.5Cobjects.5CNvM_Act.8::

                                                                      Page 6
                                                              C:\Users\nhuliyap\AppData\Local\Temp\gh_0000d3s1.s
                         286 .LDWlin8:
000000f4 f27f1d00        287 	ld.hu	28[r18],r15
000000f8 3e0600000000*   288 	mov	_NvM_CurrentBlockInfo_t,ep
000000fe 038d            289 	sst.w	r17,4[ep]
                         290 --line482
                         291 ..lin.C.3A.5C_ECU2.5CECU_Rivian_A1.5CTarget.5Crepo_projects.5CpRealEcu.5CcL_LATEST.5Cmake.5Coutput.5Cobjects.5CNvM_Act.9::
                         292 .LDWlin9:
00000100 a403            293 	sst.b	zero,36[ep]
00000102 0195            294 	sst.w	r18,0[ep]
00000104 907c            295 	sst.h	r15,32[ep]
00000106 92872300        296 	ld.bu	34[r18],r16
0000010a da82            297 	shl	26,r16
0000010c 9e82            298 	shr	30,r16
0000010e d0060200        299 	andi	2,r16,zero
00000112 d205*           300 	be	.L356
                         301 --line489
                         302 ..lin.C.3A.5C_ECU2.5CECU_Rivian_A1.5CTarget.5Crepo_projects.5CpRealEcu.5CcL_LATEST.5Cmake.5Coutput.5Cobjects.5CNvM_Act.10::
                         303 .LDWlin10:
00000114 91770100        304 	ld.bu	0[r17],r14
00000118 0f71            305 	or	r15,r14
0000011a 9074            306 	sst.h	r14,32[ep]
                         307 .L356:
0000011c 260600000000*   308 	mov	_NvM_InternalBuffer_au8,r6
                         309 --line492
                         310 ..lin.C.3A.5C_ECU2.5CECU_Rivian_A1.5CTarget.5Crepo_projects.5CpRealEcu.5CcL_LATEST.5Cmake.5Coutput.5Cobjects.5CNvM_Act.11::
                         311 .LDWlin11:
00000122 9104            312 	sst.h	zero,34[ep]
00000124 0535            313 	sst.w	r6,8[ep]
00000126 926f2300        314 	ld.bu	34[r18],r13
0000012a cd06c000        315 	andi	192,r13,zero
0000012e ca0d*           316 	bne	.L358
                         317 --line500
                         318 ..lin.C.3A.5C_ECU2.5CECU_Rivian_A1.5CTarget.5Crepo_projects.5CpRealEcu.5CcL_LATEST.5Cmake.5Coutput.5Cobjects.5CNvM_Act.12::
                         319 .LDWlin12:
00000130 2b670500        320 	ld.w	4[r11],r12
00000134 e061            321 	cmp	zero,r12
00000136 fa05*           322 	bne	.L398
                         323 --line505
                         324 ..lin.C.3A.5C_ECU2.5CECU_Rivian_A1.5CTarget.5Crepo_projects.5CpRealEcu.5CcL_LATEST.5Cmake.5Coutput.5Cobjects.5CNvM_Act.13::
                         325 .LDWlin13:
00000138 329f1100        326 	ld.w	16[r18],r19
0000013c e099            327 	cmp	zero,r19
0000013e ca05*           328 	bne	.L358
                         329 --line507
                         330 ..lin.C.3A.5C_ECU2.5CECU_Rivian_A1.5CTarget.5Crepo_projects.5CpRealEcu.5CcL_LATEST.5Cmake.5Coutput.5Cobjects.5CNvM_Act.14::
                         331 .LDWlin14:
00000140 32670100        332 	ld.w	0[r18],r12
                         333 .L398:
00000144 0565            334 	sst.w	r12,8[ep]
                         335 .L358:
00000146 8182            336 	shr	1,r16
00000148 990d*           337 	bnl	.L351
                         338 --line521
                         339 ..lin.C.3A.5C_ECU2.5CECU_Rivian_A1.5CTarget.5Crepo_projects.5CpRealEcu.5CcL_LATEST.5Cmake.5Coutput.5Cobjects.5CNvM_Act.15::
                         340 .LDWlin15:
0000014a 208e7f00        341 	movea	127,zero,r17
0000014e a78b            342 	sst.b	r17,39[ep]
00000150 1e362700        343 	addi	39,ep,r6
00000154 033a            344 	mov	3,r7
00000156 bf0746ff*       345 	jr	_NvM_IntCreateNvState
                         346 .L351:

                                                                      Page 7
                                                              C:\Users\nhuliyap\AppData\Local\Temp\gh_0000d3s1.s
                         347 --	    .ef
                         348 .LDW91:
                         349 --line525
                         350 ..lin.C.3A.5C_ECU2.5CECU_Rivian_A1.5CTarget.5Crepo_projects.5CpRealEcu.5CcL_LATEST.5Cmake.5Coutput.5Cobjects.5CNvM_Act.16::
                         351 .LDWlin16:
0000015a 7f00            352 	jmp	[lp]
                         353 ___ghs_eofn_NvM_ActInitBlock:
                         354 	.type	_NvM_ActInitBlock,@function
                         355 	.size	_NvM_ActInitBlock,.-_NvM_ActInitBlock
                         356 	.type	_NvM_ActInitBlock..C.3A.5C_ECU2.5CECU_Rivian_A1.5CTarget.5Crepo_projects.5CpRealEcu.5CcL_LATEST.5Cmake.5Coutput.5Cobjects.5CNvM_Act.,@function
                         357 	.size	_NvM_ActInitBlock..C.3A.5C_ECU2.5CECU_Rivian_A1.5CTarget.5Crepo_projects.5CpRealEcu.5CcL_LATEST.5Cmake.5Coutput.5Cobjects.5CNvM_Act.,.-_NvM_ActInitBlock..C.3A.5C_ECU2.5CECU_Rivian_A1.5CTarget.5Crepo_projects.5CpRealEcu.5CcL_LATEST.5Cmake.5Coutput.5Cobjects.5CNvM_Act.
                         358 	.align	2
                         359 --_orgBlockId	r15	local
                         360 --_DescrPtr	r18	local
                         361 
                         362 	.section ".bss","awb"
                         363 .L473:
                         364 	.type	.L473,@object
                         365 	.size	.L473,0
                         366 	.data
                         367 	.text
                         368 	.align	2
                         369 	.align	2
                         370 ..gh.f.f.1.e.5:
                         371 	.type	..gh.f.f.1.e.5,@object
                         372 	.size	..gh.f.f.1.e.5,0
                         373 	.global	_NvM_ActInitNextBlockReadAll..C.3A.5C_ECU2.5CECU_Rivian_A1.5CTarget.5Crepo_projects.5CpRealEcu.5CcL_LATEST.5Cmake.5Coutput.5Cobjects.5CNvM_Act.
                         374 _NvM_ActInitNextBlockReadAll..C.3A.5C_ECU2.5CECU_Rivian_A1.5CTarget.5Crepo_projects.5CpRealEcu.5CcL_LATEST.5Cmake.5Coutput.5Cobjects.5CNvM_Act.:
                         375 _NvM_ActInitNextBlockReadAll:
0000015c 8007e100        376 	prepare	{r28,r29,r31},0
                         377 --	    .bf
                         378 .LDW02:
                         379 	jarl	_NvM_ActFinishBlock,lp
                         379 <EXPANSION BEGIN>
                         379 jarl22 _NvM_ActFinishBlock , lp 
00000160 bfffdefe*       379 <EXPANSION END>
                         380 --line279
                         381 ..lin.C.3A.5C_ECU2.5CECU_Rivian_A1.5CTarget.5Crepo_projects.5CpRealEcu.5CcL_LATEST.5Cmake.5Coutput.5Cobjects.5CNvM_Act.17::
                         382 .LDWlin17:
00000164 3c0600000000*   383 	mov	_NvM_CurrentJob_t,r28
0000016a 1cf0            384 	mov	r28,ep
0000016c 7090            385 	sld.hu	0[ep],r18
                         386 --line281
                         387 ..lin.C.3A.5C_ECU2.5CECU_Rivian_A1.5CTarget.5Crepo_projects.5CpRealEcu.5CcL_LATEST.5Cmake.5Coutput.5Cobjects.5CNvM_Act.18::
                         388 .LDWlin18:
0000016e 408e0000*       389 	movhi	hi(_NvM_NoOfBlockIds_t),zero,r17
00000172 f18f0100*       390 	ld.hu	lo(_NvM_NoOfBlockIds_t)[r17],r17
00000176 4192            391 	add	1,r18
00000178 8094            392 	sst.h	r18,0[ep]
0000017a d200            393 	zxh	r18
0000017c f191            394 	cmp	r17,r18
0000017e c915*           395 	bnl	.L605
                         396 --line283
                         397 ..lin.C.3A.5C_ECU2.5CECU_Rivian_A1.5CTarget.5Crepo_projects.5CpRealEcu.5CcL_LATEST.5Cmake.5Coutput.5Cobjects.5CNvM_Act.19::
                         398 .LDWlin19:
                         399 	jarl	_NvM_ActInitBlock,lp
                         399 <EXPANSION BEGIN>
                         399 jarl22 _NvM_ActInitBlock , lp 
00000180 bfff40ff*       399 <EXPANSION END>
                         400 --line285
                         401 ..lin.C.3A.5C_ECU2.5CECU_Rivian_A1.5CTarget.5Crepo_projects.5CpRealEcu.5CcL_LATEST.5Cmake.5Coutput.5Cobjects.5CNvM_Act.20::

                                                                      Page 8
                                                              C:\Users\nhuliyap\AppData\Local\Temp\gh_0000d3s1.s
                         402 .LDWlin20:
00000184 3d0600000000*   403 	mov	_NvM_CurrentBlockInfo_t,r29
0000018a 3df70100        404 	ld.w	0[r29],ep
0000018e fc3f0100        405 	ld.hu	0[r28],r7
00000192 1d360c00        406 	addi	12,r29,r6
00000196 0045            407 	sld.w	0[ep],r8
                         408 	jarl	_NvM_CrcJob_Create,lp
                         408 <EXPANSION BEGIN>
                         408 jarl22 _NvM_CrcJob_Create , lp 
00000198 80ff0000*       408 <EXPANSION END>
                         409 --line290
                         410 ..lin.C.3A.5C_ECU2.5CECU_Rivian_A1.5CTarget.5Crepo_projects.5CpRealEcu.5CcL_LATEST.5Cmake.5Coutput.5Cobjects.5CNvM_Act.21::
                         411 .LDWlin21:
0000019c 3df70100        412 	ld.w	0[r29],ep
000001a0 0c85            413 	sld.w	24[ep],r16
000001a2 7d871500        414 	st.w	r16,20[r29]
                         415 .L605:
                         416 --	    .ef
                         417 .LDW12:
000001a6 4006ff00        418 	dispose	0,{r28,r29,r31},[lp]
                         419 ___ghs_eofn_NvM_ActInitNextBlockReadAll:
                         420 	.type	_NvM_ActInitNextBlockReadAll,@function
                         421 	.size	_NvM_ActInitNextBlockReadAll,.-_NvM_ActInitNextBlockReadAll
                         422 	.type	_NvM_ActInitNextBlockReadAll..C.3A.5C_ECU2.5CECU_Rivian_A1.5CTarget.5Crepo_projects.5CpRealEcu.5CcL_LATEST.5Cmake.5Coutput.5Cobjects.5CNvM_Act.,@function
                         423 	.size	_NvM_ActInitNextBlockReadAll..C.3A.5C_ECU2.5CECU_Rivian_A1.5CTarget.5Crepo_projects.5CpRealEcu.5CcL_LATEST.5Cmake.5Coutput.5Cobjects.5CNvM_Act.,.-_NvM_ActInitNextBlockReadAll..C.3A.5C_ECU2.5CECU_Rivian_A1.5CTarget.5Crepo_projects.5CpRealEcu.5CcL_LATEST.5Cmake.5Coutput.5Cobjects.5CNvM_Act.
                         424 	.align	2
                         425 
                         426 	.section ".bss","awb"
                         427 .L634:
                         428 	.type	.L634,@object
                         429 	.size	.L634,0
                         430 	.data
                         431 	.text
                         432 	.align	2
                         433 	.align	2
                         434 ..gh.f.f.1.e.6:
                         435 	.type	..gh.f.f.1.e.6,@object
                         436 	.size	..gh.f.f.1.e.6,0
                         437 	.global	_NvM_ActInitNextBlockWriteAll..C.3A.5C_ECU2.5CECU_Rivian_A1.5CTarget.5Crepo_projects.5CpRealEcu.5CcL_LATEST.5Cmake.5Coutput.5Cobjects.5CNvM_Act.
                         438 _NvM_ActInitNextBlockWriteAll..C.3A.5C_ECU2.5CECU_Rivian_A1.5CTarget.5Crepo_projects.5CpRealEcu.5CcL_LATEST.5Cmake.5Coutput.5Cobjects.5CNvM_Act.:
                         439 _NvM_ActInitNextBlockWriteAll:
000001aa 80072100        440 	prepare	{r31},0
                         441 --	    .bf
                         442 .LDW22:
                         443 	jarl	_NvM_ActFinishBlock,lp
                         443 <EXPANSION BEGIN>
                         443 jarl22 _NvM_ActFinishBlock , lp 
000001ae bfff90fe*       443 <EXPANSION END>
                         444 --line299
                         445 ..lin.C.3A.5C_ECU2.5CECU_Rivian_A1.5CTarget.5Crepo_projects.5CpRealEcu.5CcL_LATEST.5Cmake.5Coutput.5Cobjects.5CNvM_Act.22::
                         446 .LDWlin22:
000001b2 3e0600000000*   447 	mov	_NvM_CurrentJob_t,ep
000001b8 7090            448 	sld.hu	0[ep],r18
000001ba 5f92            449 	add	-1,r18
000001bc 8094            450 	sst.h	r18,0[ep]
                         451 --line301
                         452 ..lin.C.3A.5C_ECU2.5CECU_Rivian_A1.5CTarget.5Crepo_projects.5CpRealEcu.5CcL_LATEST.5Cmake.5Coutput.5Cobjects.5CNvM_Act.23::
                         453 .LDWlin23:
                         454 	jarl	_NvM_ActInitBlock,lp
                         454 <EXPANSION BEGIN>
                         454 jarl22 _NvM_ActInitBlock , lp 

                                                                      Page 9
                                                              C:\Users\nhuliyap\AppData\Local\Temp\gh_0000d3s1.s
000001be bfff02ff*       454 <EXPANSION END>
                         455 --	    .ef
                         456 .LDW32:
                         457 --line302
                         458 ..lin.C.3A.5C_ECU2.5CECU_Rivian_A1.5CTarget.5Crepo_projects.5CpRealEcu.5CcL_LATEST.5Cmake.5Coutput.5Cobjects.5CNvM_Act.24::
                         459 .LDWlin24:
000001c2 40063f00        460 	dispose	0,{r31},[lp]
                         461 ___ghs_eofn_NvM_ActInitNextBlockWriteAll:
                         462 	.type	_NvM_ActInitNextBlockWriteAll,@function
                         463 	.size	_NvM_ActInitNextBlockWriteAll,.-_NvM_ActInitNextBlockWriteAll
                         464 	.type	_NvM_ActInitNextBlockWriteAll..C.3A.5C_ECU2.5CECU_Rivian_A1.5CTarget.5Crepo_projects.5CpRealEcu.5CcL_LATEST.5Cmake.5Coutput.5Cobjects.5CNvM_Act.,@function
                         465 	.size	_NvM_ActInitNextBlockWriteAll..C.3A.5C_ECU2.5CECU_Rivian_A1.5CTarget.5Crepo_projects.5CpRealEcu.5CcL_LATEST.5Cmake.5Coutput.5Cobjects.5CNvM_Act.,.-_NvM_ActInitNextBlockWriteAll..C.3A.5C_ECU2.5CECU_Rivian_A1.5CTarget.5Crepo_projects.5CpRealEcu.5CcL_LATEST.5Cmake.5Coutput.5Cobjects.5CNvM_Act.
                         466 	.align	2
                         467 
                         468 	.section ".bss","awb"
                         469 .L689:
                         470 	.type	.L689,@object
                         471 	.size	.L689,0
                         472 	.data
                         473 	.text
                         474 	.align	2
                         475 	.align	2
                         476 ..gh.f.f.1.e.7:
                         477 	.type	..gh.f.f.1.e.7,@object
                         478 	.size	..gh.f.f.1.e.7,0
                         479 	.global	_NvM_ActFinishMainJob..C.3A.5C_ECU2.5CECU_Rivian_A1.5CTarget.5Crepo_projects.5CpRealEcu.5CcL_LATEST.5Cmake.5Coutput.5Cobjects.5CNvM_Act.
                         480 _NvM_ActFinishMainJob..C.3A.5C_ECU2.5CECU_Rivian_A1.5CTarget.5Crepo_projects.5CpRealEcu.5CcL_LATEST.5Cmake.5Coutput.5Cobjects.5CNvM_Act.:
                         481 _NvM_ActFinishMainJob:
000001c6 8007e100        482 	prepare	{r28,r29,r31},0
                         483 --	    .bf
                         484 .LDW42:
000001ca 3c0600000000*   485 	mov	_NvM_CurrentJob_t,r28
000001d0 9c370300        486 	ld.bu	2[r28],r6
                         487 --line311
                         488 ..lin.C.3A.5C_ECU2.5CECU_Rivian_A1.5CTarget.5Crepo_projects.5CpRealEcu.5CcL_LATEST.5Cmake.5Coutput.5Cobjects.5CNvM_Act.25::
                         489 .LDWlin25:
000001d4 3d0600000000*   490 	mov	_NvM_ApiFlags_u8,r29
000001da 6532            491 	cmp	5,r6
000001dc e205*           492 	be	.L714
000001de 6632            493 	cmp	6,r6
000001e0 820d*           494 	be	.L712
                         495 --line342
                         496 ..lin.C.3A.5C_ECU2.5CECU_Rivian_A1.5CTarget.5Crepo_projects.5CpRealEcu.5CcL_LATEST.5Cmake.5Coutput.5Cobjects.5CNvM_Act.26::
                         497 .LDWlin26:
                         498 	jarl	_NvM_ActFinishBlock,lp
                         498 <EXPANSION BEGIN>
                         498 jarl22 _NvM_ActFinishBlock , lp 
000001e2 bfff5cfe*       498 <EXPANSION END>
000001e6 c525*           499 	br	.L719
                         500 .L714:
                         501 --	    .bs
                         502 .LDW52:
                         503 --line315
                         504 ..lin.C.3A.5C_ECU2.5CECU_Rivian_A1.5CTarget.5Crepo_projects.5CpRealEcu.5CcL_LATEST.5Cmake.5Coutput.5Cobjects.5CNvM_Act.27::
                         505 .LDWlin27:
000001e8 ddf70000        506 	tst1	6,0[r29]
000001ec 063a            507 	mov	6,r7
000001ee 8a0d*           508 	bne	.L715
                         509 .L712:
                         510 --line319
                         511 ..lin.C.3A.5C_ECU2.5CECU_Rivian_A1.5CTarget.5Crepo_projects.5CpRealEcu.5CcL_LATEST.5Cmake.5Coutput.5Cobjects.5CNvM_Act.28::

                                                                      Page 10
                                                              C:\Users\nhuliyap\AppData\Local\Temp\gh_0000d3s1.s
                         512 .LDWlin28:
000001f0 408e0000*       513 	movhi	hi(_NvM_CurrentBlockInfo_t+38),zero,r17
000001f4 918f0100*       514 	ld.bu	lo(_NvM_CurrentBlockInfo_t+38)[r17],r17
000001f8 d13e1000        515 	andi	16,r17,r7
000001fc 843a            516 	shr	4,r7
                         517 .L715:
                         518 --line329
                         519 ..lin.C.3A.5C_ECU2.5CECU_Rivian_A1.5CTarget.5Crepo_projects.5CpRealEcu.5CcL_LATEST.5Cmake.5Coutput.5Cobjects.5CNvM_Act.29::
                         520 .LDWlin29:
000001fe e6f60300        521 	mulhi	3,r6,ep
00000202 300600000000*   522 	mov	_NvM_IntServiceDescrTable_at,r16
                         523 --line327
                         524 ..lin.C.3A.5C_ECU2.5CECU_Rivian_A1.5CTarget.5Crepo_projects.5CpRealEcu.5CcL_LATEST.5Cmake.5Coutput.5Cobjects.5CNvM_Act.30::
                         525 .LDWlin30:
00000208 405e0000*       526 	movhi	hi(_NvM_BlockMngmtArea_at+1),zero,r11
0000020c 4b3f0000*       527 	st.b	r7,lo(_NvM_BlockMngmtArea_at+1)[r11]
00000210 d0f1            528 	add	r16,ep
00000212 6230            529 	sld.bu	2[ep],r6
                         530 	jarl	_NvM_MultiBlockCbk,lp
                         530 <EXPANSION BEGIN>
                         530 jarl22 _NvM_MultiBlockCbk , lp 
00000214 80ff0000*       530 <EXPANSION END>
                         531 --line331
                         532 ..lin.C.3A.5C_ECU2.5CECU_Rivian_A1.5CTarget.5Crepo_projects.5CpRealEcu.5CcL_LATEST.5Cmake.5Coutput.5Cobjects.5CNvM_Act.31::
                         533 .LDWlin31:
                         534 	jarl	_NvM_EnterCriticalSection,lp
                         534 <EXPANSION BEGIN>
                         534 jarl22 _NvM_EnterCriticalSection , lp 
00000218 80ff0000*       534 <EXPANSION END>
                         535 --line333
                         536 ..lin.C.3A.5C_ECU2.5CECU_Rivian_A1.5CTarget.5Crepo_projects.5CpRealEcu.5CcL_LATEST.5Cmake.5Coutput.5Cobjects.5CNvM_Act.32::
                         537 .LDWlin32:
0000021c dd970000        538 	clr1	2,0[r29]
00000220 dd8f0000        539 	clr1	1,0[r29]
                         540 	jarl	_NvM_ExitCriticalSection,lp
                         540 <EXPANSION BEGIN>
                         540 jarl22 _NvM_ExitCriticalSection , lp 
00000224 80ff0000*       540 <EXPANSION END>
                         541 --line338
                         542 ..lin.C.3A.5C_ECU2.5CECU_Rivian_A1.5CTarget.5Crepo_projects.5CpRealEcu.5CcL_LATEST.5Cmake.5Coutput.5Cobjects.5CNvM_Act.33::
                         543 .LDWlin33:
00000228 0032            544 	mov	0,r6
                         545 	jarl	_MemIf_SetMode,lp
                         545 <EXPANSION BEGIN>
                         545 jarl22 _MemIf_SetMode , lp 
0000022a 80ff0000*       545 <EXPANSION END>
                         546 --	    .es
                         547 .LDW62:
                         548 .L719:
                         549 --line346
                         550 ..lin.C.3A.5C_ECU2.5CECU_Rivian_A1.5CTarget.5Crepo_projects.5CpRealEcu.5CcL_LATEST.5Cmake.5Coutput.5Cobjects.5CNvM_Act.34::
                         551 .LDWlin34:
0000022e 087a            552 	mov	8,r15
00000230 5c7f0200        553 	st.b	r15,2[r28]
                         554 --	    .ef
                         555 .LDW72:
00000234 4006ff00        556 	dispose	0,{r28,r29,r31},[lp]
                         557 ___ghs_eofn_NvM_ActFinishMainJob:
                         558 	.type	_NvM_ActFinishMainJob,@function
                         559 	.size	_NvM_ActFinishMainJob,.-_NvM_ActFinishMainJob
                         560 	.type	_NvM_ActFinishMainJob..C.3A.5C_ECU2.5CECU_Rivian_A1.5CTarget.5Crepo_projects.5CpRealEcu.5CcL_LATEST.5Cmake.5Coutput.5Cobjects.5CNvM_Act.,@function

                                                                      Page 11
                                                              C:\Users\nhuliyap\AppData\Local\Temp\gh_0000d3s1.s
                         561 	.size	_NvM_ActFinishMainJob..C.3A.5C_ECU2.5CECU_Rivian_A1.5CTarget.5Crepo_projects.5CpRealEcu.5CcL_LATEST.5Cmake.5Coutput.5Cobjects.5CNvM_Act.,.-_NvM_ActFinishMainJob..C.3A.5C_ECU2.5CECU_Rivian_A1.5CTarget.5Crepo_projects.5CpRealEcu.5CcL_LATEST.5Cmake.5Coutput.5Cobjects.5CNvM_Act.
                         562 	.align	2
                         563 --_currSrvId	r6	local
                         564 --_JobResult	r7	local
                         565 
                         566 	.section ".bss","awb"
                         567 .L799:
                         568 	.type	.L799,@object
                         569 	.size	.L799,0
                         570 	.data
                         571 	.text
                         572 	.align	2
                         573 	.align	2
                         574 ..gh.f.f.1.e.8:
                         575 	.type	..gh.f.f.1.e.8,@object
                         576 	.size	..gh.f.f.1.e.8,0
                         577 	.global	_NvM_ActKillWriteAll..C.3A.5C_ECU2.5CECU_Rivian_A1.5CTarget.5Crepo_projects.5CpRealEcu.5CcL_LATEST.5Cmake.5Coutput.5Cobjects.5CNvM_Act.
                         578 _NvM_ActKillWriteAll..C.3A.5C_ECU2.5CECU_Rivian_A1.5CTarget.5Crepo_projects.5CpRealEcu.5CcL_LATEST.5Cmake.5Coutput.5Cobjects.5CNvM_Act.:
                         579 _NvM_ActKillWriteAll:
00000238 80076100        580 	prepare	{r29,r31},0
                         581 --	    .bf
                         582 .LDW82:
0000023c 0032            583 	mov	0,r6
                         584 	jarl	_MemIf_SetMode,lp
                         584 <EXPANSION BEGIN>
                         584 jarl22 _MemIf_SetMode , lp 
0000023e 80ff0000*       584 <EXPANSION END>
                         585 --line356
                         586 ..lin.C.3A.5C_ECU2.5CECU_Rivian_A1.5CTarget.5Crepo_projects.5CpRealEcu.5CcL_LATEST.5Cmake.5Coutput.5Cobjects.5CNvM_Act.35::
                         587 .LDWlin35:
00000242 3d0600000000*   588 	mov	_NvM_CurrentBlockInfo_t,r29
00000248 3d370100        589 	ld.w	0[r29],r6
0000024c 86372300        590 	ld.bu	34[r6],r6
00000250 c6360f00        591 	andi	15,r6,r6
                         592 	jarl	_MemIf_GetStatus,lp
                         592 <EXPANSION BEGIN>
                         592 jarl22 _MemIf_GetStatus , lp 
00000254 80ff0000*       592 <EXPANSION END>
00000258 6252            593 	cmp	2,r10
0000025a 9a0d*           594 	bne	.L878
                         595 --line358
                         596 ..lin.C.3A.5C_ECU2.5CECU_Rivian_A1.5CTarget.5Crepo_projects.5CpRealEcu.5CcL_LATEST.5Cmake.5Coutput.5Cobjects.5CNvM_Act.36::
                         597 .LDWlin36:
0000025c 3d370100        598 	ld.w	0[r29],r6
00000260 86372300        599 	ld.bu	34[r6],r6
00000264 c6360f00        600 	andi	15,r6,r6
                         601 	jarl	_MemIf_Cancel,lp
                         601 <EXPANSION BEGIN>
                         601 jarl22 _MemIf_Cancel , lp 
00000268 80ff0000*       601 <EXPANSION END>
                         602 .L878:
                         603 --line361
                         604 ..lin.C.3A.5C_ECU2.5CECU_Rivian_A1.5CTarget.5Crepo_projects.5CpRealEcu.5CcL_LATEST.5Cmake.5Coutput.5Cobjects.5CNvM_Act.37::
                         605 .LDWlin37:
0000026c 0842            606 	mov	8,r8
0000026e 405e0000*       607 	movhi	hi(_NvM_CurrentJob_t+2),zero,r11
                         608 --line363
                         609 ..lin.C.3A.5C_ECU2.5CECU_Rivian_A1.5CTarget.5Crepo_projects.5CpRealEcu.5CcL_LATEST.5Cmake.5Coutput.5Cobjects.5CNvM_Act.38::
                         610 .LDWlin38:
00000272 209e1900        611 	movea	25,zero,r19
00000276 40660000*       612 	movhi	hi(_NvM_JobSubState_t),zero,r12

                                                                      Page 12
                                                              C:\Users\nhuliyap\AppData\Local\Temp\gh_0000d3s1.s
0000027a 406e0000*       613 	movhi	hi(_NvM_JobMainState_t),zero,r13
0000027e 4b470000*       614 	st.b	r8,lo(_NvM_CurrentJob_t+2)[r11]
00000282 4c9f0000*       615 	st.b	r19,lo(_NvM_JobSubState_t)[r12]
00000286 4d9f0000*       616 	st.b	r19,lo(_NvM_JobMainState_t)[r13]
                         617 --line365
                         618 ..lin.C.3A.5C_ECU2.5CECU_Rivian_A1.5CTarget.5Crepo_projects.5CpRealEcu.5CcL_LATEST.5Cmake.5Coutput.5Cobjects.5CNvM_Act.39::
                         619 .LDWlin39:
                         620 	jarl	_NvM_EnterCriticalSection,lp
                         620 <EXPANSION BEGIN>
                         620 jarl22 _NvM_EnterCriticalSection , lp 
0000028a 80ff0000*       620 <EXPANSION END>
                         621 --line367
                         622 ..lin.C.3A.5C_ECU2.5CECU_Rivian_A1.5CTarget.5Crepo_projects.5CpRealEcu.5CcL_LATEST.5Cmake.5Coutput.5Cobjects.5CNvM_Act.40::
                         623 .LDWlin40:
0000028e 40960000*       624 	movhi	hi(_NvM_ApiFlags_u8),zero,r18
00000292 d2bf0000*       625 	clr1	7,lo(_NvM_ApiFlags_u8)[r18]
00000296 d2b70000*       626 	clr1	6,lo(_NvM_ApiFlags_u8)[r18]
                         627 --line369
                         628 ..lin.C.3A.5C_ECU2.5CECU_Rivian_A1.5CTarget.5Crepo_projects.5CpRealEcu.5CcL_LATEST.5Cmake.5Coutput.5Cobjects.5CNvM_Act.41::
                         629 .LDWlin41:
                         630 	jarl	_NvM_ExitCriticalSection,lp
                         630 <EXPANSION BEGIN>
                         630 jarl22 _NvM_ExitCriticalSection , lp 
0000029a 80ff0000*       630 <EXPANSION END>
                         631 --	    .ef
                         632 .LDW92:
                         633 --line370
                         634 ..lin.C.3A.5C_ECU2.5CECU_Rivian_A1.5CTarget.5Crepo_projects.5CpRealEcu.5CcL_LATEST.5Cmake.5Coutput.5Cobjects.5CNvM_Act.42::
                         635 .LDWlin42:
0000029e 40067f00        636 	dispose	0,{r29,r31},[lp]
                         637 ___ghs_eofn_NvM_ActKillWriteAll:
                         638 	.type	_NvM_ActKillWriteAll,@function
                         639 	.size	_NvM_ActKillWriteAll,.-_NvM_ActKillWriteAll
                         640 	.type	_NvM_ActKillWriteAll..C.3A.5C_ECU2.5CECU_Rivian_A1.5CTarget.5Crepo_projects.5CpRealEcu.5CcL_LATEST.5Cmake.5Coutput.5Cobjects.5CNvM_Act.,@function
                         641 	.size	_NvM_ActKillWriteAll..C.3A.5C_ECU2.5CECU_Rivian_A1.5CTarget.5Crepo_projects.5CpRealEcu.5CcL_LATEST.5Cmake.5Coutput.5Cobjects.5CNvM_Act.,.-_NvM_ActKillWriteAll..C.3A.5C_ECU2.5CECU_Rivian_A1.5CTarget.5Crepo_projects.5CpRealEcu.5CcL_LATEST.5Cmake.5Coutput.5Cobjects.5CNvM_Act.
                         642 	.align	2
                         643 
                         644 	.section ".bss","awb"
                         645 .L907:
                         646 	.type	.L907,@object
                         647 	.size	.L907,0
                         648 	.data
                         649 	.text
                         650 	.align	2
                         651 	.align	2
                         652 ..gh.f.f.1.e.9:
                         653 	.type	..gh.f.f.1.e.9,@object
                         654 	.size	..gh.f.f.1.e.9,0
                         655 	.global	_NvM_ActUpdateNvState..C.3A.5C_ECU2.5CECU_Rivian_A1.5CTarget.5Crepo_projects.5CpRealEcu.5CcL_LATEST.5Cmake.5Coutput.5Cobjects.5CNvM_Act.
                         656 _NvM_ActUpdateNvState..C.3A.5C_ECU2.5CECU_Rivian_A1.5CTarget.5Crepo_projects.5CpRealEcu.5CcL_LATEST.5Cmake.5Coutput.5Cobjects.5CNvM_Act.:
                         657 _NvM_ActUpdateNvState:
000002a2 80076100        658 	prepare	{r29,r31},0
                         659 --	    .bf
                         660 .LDW03:
000002a6 3d0600000000*   661 	mov	_NvM_CurrentBlockInfo_t,r29
000002ac 9d372500        662 	ld.bu	36[r29],r6
000002b0 e031            663 	cmp	zero,r6
000002b2 c20d*           664 	be	.L947
000002b4 6532            665 	cmp	5,r6
                         666 --line914
                         667 ..lin.C.3A.5C_ECU2.5CECU_Rivian_A1.5CTarget.5Crepo_projects.5CpRealEcu.5CcL_LATEST.5Cmake.5Coutput.5Cobjects.5CNvM_Act.43::

                                                                      Page 13
                                                              C:\Users\nhuliyap\AppData\Local\Temp\gh_0000d3s1.s
                         668 .LDWlin43:
000002b6 023a            669 	mov	2,r7
000002b8 b20d*           670 	be	.L948
                         671 .L945:
                         672 --line918
                         673 ..lin.C.3A.5C_ECU2.5CECU_Rivian_A1.5CTarget.5Crepo_projects.5CpRealEcu.5CcL_LATEST.5Cmake.5Coutput.5Cobjects.5CNvM_Act.44::
                         674 .LDWlin44:
000002ba 1d362700        675 	addi	39,r29,r6
                         676 	jarl	_NvM_IntCreateNvState,lp
                         676 <EXPANSION BEGIN>
                         676 jarl22 _NvM_IntCreateNvState , lp 
000002be bfffdefd*       676 <EXPANSION END>
                         677 --line920
                         678 ..lin.C.3A.5C_ECU2.5CECU_Rivian_A1.5CTarget.5Crepo_projects.5CpRealEcu.5CcL_LATEST.5Cmake.5Coutput.5Cobjects.5CNvM_Act.45::
                         679 .LDWlin45:
000002c2 dd7f2700        680 	not1	7,39[r29]
                         681 --	    .ef
                         682 .LDW13:
000002c6 40067f00        683 	dispose	0,{r29,r31},[lp]
                         684 .L947:
                         685 --line904
                         686 ..lin.C.3A.5C_ECU2.5CECU_Rivian_A1.5CTarget.5Crepo_projects.5CpRealEcu.5CcL_LATEST.5Cmake.5Coutput.5Cobjects.5CNvM_Act.46::
                         687 .LDWlin46:
000002ca 0638            688 	mov	r6,r7
000002cc f5f5*           689 	br	.L945
                         690 .L948:
                         691 --line909
                         692 ..lin.C.3A.5C_ECU2.5CECU_Rivian_A1.5CTarget.5Crepo_projects.5CpRealEcu.5CcL_LATEST.5Cmake.5Coutput.5Cobjects.5CNvM_Act.47::
                         693 .LDWlin47:
000002ce 013a            694 	mov	1,r7
000002d0 d5f5*           695 	br	.L945
                         696 ___ghs_eofn_NvM_ActUpdateNvState:
                         697 	.type	_NvM_ActUpdateNvState,@function
                         698 	.size	_NvM_ActUpdateNvState,.-_NvM_ActUpdateNvState
                         699 	.type	_NvM_ActUpdateNvState..C.3A.5C_ECU2.5CECU_Rivian_A1.5CTarget.5Crepo_projects.5CpRealEcu.5CcL_LATEST.5Cmake.5Coutput.5Cobjects.5CNvM_Act.,@function
                         700 	.size	_NvM_ActUpdateNvState..C.3A.5C_ECU2.5CECU_Rivian_A1.5CTarget.5Crepo_projects.5CpRealEcu.5CcL_LATEST.5Cmake.5Coutput.5Cobjects.5CNvM_Act.,.-_NvM_ActUpdateNvState..C.3A.5C_ECU2.5CECU_Rivian_A1.5CTarget.5Crepo_projects.5CpRealEcu.5CcL_LATEST.5Cmake.5Coutput.5Cobjects.5CNvM_Act.
                         701 	.align	2
                         702 --_NvBlockState_u8	r7	local
                         703 
                         704 	.section ".bss","awb"
                         705 .L997:
                         706 	.type	.L997,@object
                         707 	.size	.L997,0
                         708 	.data
                         709 	.text
                         710 	.align	2
                         711 	.align	2
                         712 ..gh.f.f.1.e.10:
                         713 	.type	..gh.f.f.1.e.10,@object
                         714 	.size	..gh.f.f.1.e.10,0
                         715 	.global	_NvM_IntUpdateCurrentBlockNVRAMStatus..C.3A.5C_ECU2.5CECU_Rivian_A1.5CTarget.5Crepo_projects.5CpRealEcu.5CcL_LATEST.5Cmake.5Coutput.5Cobjects.5CNvM_Act.
                         716 _NvM_IntUpdateCurrentBlockNVRAMStatus..C.3A.5C_ECU2.5CECU_Rivian_A1.5CTarget.5Crepo_projects.5CpRealEcu.5CcL_LATEST.5Cmake.5Coutput.5Cobjects.5CNvM_Act.:
                         717 _NvM_IntUpdateCurrentBlockNVRAMStatus:
                         718 --	    .bf
                         719 .LDW23:
000002d2 40960000*       720 	movhi	hi(_NvM_CurrentBlockInfo_t+4),zero,r18
                         721 --line1252
                         722 ..lin.C.3A.5C_ECU2.5CECU_Rivian_A1.5CTarget.5Crepo_projects.5CpRealEcu.5CcL_LATEST.5Cmake.5Coutput.5Cobjects.5CNvM_Act.48::
                         723 .LDWlin48:
000002d6 32970100*       724 	ld.w	lo(_NvM_CurrentBlockInfo_t+4)[r18],r18
000002da d832            725 	shl	24,r6

                                                                      Page 14
                                                              C:\Users\nhuliyap\AppData\Local\Temp\gh_0000d3s1.s
000002dc ca05*           726 	bne	.L1063
000002de d2170200        727 	set1	2,2[r18]
000002e2 7f00            728 	jmp	[lp]
                         729 .L1063:
000002e4 d2970200        730 	clr1	2,2[r18]
                         731 --	    .ef
                         732 .LDW33:
                         733 --line1260
                         734 ..lin.C.3A.5C_ECU2.5CECU_Rivian_A1.5CTarget.5Crepo_projects.5CpRealEcu.5CcL_LATEST.5Cmake.5Coutput.5Cobjects.5CNvM_Act.49::
                         735 .LDWlin49:
000002e8 7f00            736 	jmp	[lp]
                         737 ___ghs_eofn_NvM_IntUpdateCurrentBlockNVRAMStatus:
                         738 	.type	_NvM_IntUpdateCurrentBlockNVRAMStatus,@function
                         739 	.size	_NvM_IntUpdateCurrentBlockNVRAMStatus,.-_NvM_IntUpdateCurrentBlockNVRAMStatus
                         740 	.type	_NvM_IntUpdateCurrentBlockNVRAMStatus..C.3A.5C_ECU2.5CECU_Rivian_A1.5CTarget.5Crepo_projects.5CpRealEcu.5CcL_LATEST.5Cmake.5Coutput.5Cobjects.5CNvM_Act.,@function
                         741 	.size	_NvM_IntUpdateCurrentBlockNVRAMStatus..C.3A.5C_ECU2.5CECU_Rivian_A1.5CTarget.5Crepo_projects.5CpRealEcu.5CcL_LATEST.5Cmake.5Coutput.5Cobjects.5CNvM_Act.,.-_NvM_IntUpdateCurrentBlockNVRAMStatus..C.3A.5C_ECU2.5CECU_Rivian_A1.5CTarget.5Crepo_projects.5CpRealEcu.5CcL_LATEST.5Cmake.5Coutput.5Cobjects.5CNvM_Act.
                         742 	.align	2
                         743 
                         744 --_result	r6	param
                         745 
                         746 	.section ".bss","awb"
                         747 .L1104:
                         748 	.type	.L1104,@object
                         749 	.size	.L1104,0
                         750 	.data
                         751 	.text
                         752 	.align	2
                         753 	.align	2
                         754 ..gh.f.f.1.e.11:
                         755 	.type	..gh.f.f.1.e.11,@object
                         756 	.size	..gh.f.f.1.e.11,0
                         757 	.global	_NvM_ActFinishReadBlock..C.3A.5C_ECU2.5CECU_Rivian_A1.5CTarget.5Crepo_projects.5CpRealEcu.5CcL_LATEST.5Cmake.5Coutput.5Cobjects.5CNvM_Act.
                         758 _NvM_ActFinishReadBlock..C.3A.5C_ECU2.5CECU_Rivian_A1.5CTarget.5Crepo_projects.5CpRealEcu.5CcL_LATEST.5Cmake.5Coutput.5Cobjects.5CNvM_Act.:
                         759 _NvM_ActFinishReadBlock:
000002ea 8007e110        760 	prepare	{r27,r28,r29,r31},0
                         761 --	    .bf
                         762 .LDW43:
000002ee 3d0600000000*   763 	mov	_NvM_CurrentBlockInfo_t,r29
000002f4 1df0            764 	mov	r29,ep
000002f6 02dd            765 	sld.w	4[ep],r27
                         766 --line375
                         767 ..lin.C.3A.5C_ECU2.5CECU_Rivian_A1.5CTarget.5Crepo_projects.5CpRealEcu.5CcL_LATEST.5Cmake.5Coutput.5Cobjects.5CNvM_Act.50::
                         768 .LDWlin50:
000002f8 00e5            769 	sld.w	0[ep],r28
                         770 	jarl	_NvM_ActUpdateNvState,lp
                         770 <EXPANSION BEGIN>
                         770 jarl22 _NvM_ActUpdateNvState , lp 
000002fa bfffa8ff*       770 <EXPANSION END>
                         771 --line379
                         772 ..lin.C.3A.5C_ECU2.5CECU_Rivian_A1.5CTarget.5Crepo_projects.5CpRealEcu.5CcL_LATEST.5Cmake.5Coutput.5Cobjects.5CNvM_Act.51::
                         773 .LDWlin51:
000002fe dce72200        774 	tst1	4,34[r28]
00000302 8215*           775 	be	.L1148
00000304 bd872700        776 	ld.bu	39[r29],r16
00000308 1088            777 	mov	r16,r17
0000030a 858a            778 	shr	5,r17
0000030c d1760300        779 	andi	3,r17,r14
00000310 6172            780 	cmp	1,r14
00000312 820d*           781 	be	.L1148
00000314 8382            782 	shr	3,r16
00000316 d07e0300        783 	andi	3,r16,r15

                                                                      Page 15
                                                              C:\Users\nhuliyap\AppData\Local\Temp\gh_0000d3s1.s
0000031a 617a            784 	cmp	1,r15
0000031c ba05*           785 	bne	.L1148
                         786 --line383
                         787 ..lin.C.3A.5C_ECU2.5CECU_Rivian_A1.5CTarget.5Crepo_projects.5CpRealEcu.5CcL_LATEST.5Cmake.5Coutput.5Cobjects.5CNvM_Act.52::
                         788 .LDWlin52:
0000031e 5d7f2400        789 	st.b	r15,36[r29]
                         790 .L1148:
00000322 dcd72300        791 	tst1	2,35[r28]
00000326 a20d*           792 	be	.L1152
                         793 --line388
                         794 ..lin.C.3A.5C_ECU2.5CECU_Rivian_A1.5CTarget.5Crepo_projects.5CpRealEcu.5CcL_LATEST.5Cmake.5Coutput.5Cobjects.5CNvM_Act.53::
                         795 .LDWlin53:
00000328 9d672500        796 	ld.bu	36[r29],r12
0000032c 6562            797 	cmp	5,r12
0000032e ca05*           798 	bne	.L1154
                         799 --line390
                         800 ..lin.C.3A.5C_ECU2.5CECU_Rivian_A1.5CTarget.5Crepo_projects.5CpRealEcu.5CcL_LATEST.5Cmake.5Coutput.5Cobjects.5CNvM_Act.54::
                         801 .LDWlin54:
00000330 dbbf0200        802 	clr1	7,2[r27]
00000334 b505*           803 	br	.L1152
                         804 .L1154:
                         805 --line393
                         806 ..lin.C.3A.5C_ECU2.5CECU_Rivian_A1.5CTarget.5Crepo_projects.5CpRealEcu.5CcL_LATEST.5Cmake.5Coutput.5Cobjects.5CNvM_Act.55::
                         807 .LDWlin55:
00000336 db3f0200        808 	set1	7,2[r27]
                         809 .L1152:
0000033a 9d372500        810 	ld.bu	36[r29],r6
                         811 	jarl	_NvM_IntUpdateCurrentBlockNVRAMStatus,lp
                         811 <EXPANSION BEGIN>
                         811 jarl22 _NvM_IntUpdateCurrentBlockNVRAMStatus , lp 
0000033e bfff94ff*       811 <EXPANSION END>
                         812 --line399
                         813 ..lin.C.3A.5C_ECU2.5CECU_Rivian_A1.5CTarget.5Crepo_projects.5CpRealEcu.5CcL_LATEST.5Cmake.5Coutput.5Cobjects.5CNvM_Act.56::
                         814 .LDWlin56:
00000342 9d7f2500        815 	ld.bu	36[r29],r15
00000346 e079            816 	cmp	zero,r15
00000348 d205*           817 	be	.L1167
                         818 --line401
                         819 ..lin.C.3A.5C_ECU2.5CECU_Rivian_A1.5CTarget.5Crepo_projects.5CpRealEcu.5CcL_LATEST.5Cmake.5Coutput.5Cobjects.5CNvM_Act.57::
                         820 .LDWlin57:
0000034a dd272600        821 	set1	4,38[r29]
0000034e 4006ff10        822 	dispose	0,{r27,r28,r29,r31},[lp]
                         823 .L1167:
                         824 --line418
                         825 ..lin.C.3A.5C_ECU2.5CECU_Rivian_A1.5CTarget.5Crepo_projects.5CpRealEcu.5CcL_LATEST.5Cmake.5Coutput.5Cobjects.5CNvM_Act.58::
                         826 .LDWlin58:
00000352 405e0000*       827 	movhi	hi(_NvM_CurrentJob_t+4),zero,r11
00000356 2b5f0100*       828 	ld.w	lo(_NvM_CurrentJob_t+4)[r11],r11
0000035a e059            829 	cmp	zero,r11
0000035c fa05*           830 	bne	.L1146
                         831 --line421
                         832 ..lin.C.3A.5C_ECU2.5CECU_Rivian_A1.5CTarget.5Crepo_projects.5CpRealEcu.5CcL_LATEST.5Cmake.5Coutput.5Cobjects.5CNvM_Act.59::
                         833 .LDWlin59:
0000035e 3c3f1900        834 	ld.w	24[r28],r7
00000362 1d360c00        835 	addi	12,r29,r6
                         836 	jarl	_NvM_CrcJob_ExportBufferedValue,lp
                         836 <EXPANSION BEGIN>
                         836 jarl22 _NvM_CrcJob_ExportBufferedValue , lp 
00000366 80ff0000*       836 <EXPANSION END>
                         837 .L1146:
                         838 --	    .ef

                                                                      Page 16
                                                              C:\Users\nhuliyap\AppData\Local\Temp\gh_0000d3s1.s
                         839 .LDW53:
                         840 --line424
                         841 ..lin.C.3A.5C_ECU2.5CECU_Rivian_A1.5CTarget.5Crepo_projects.5CpRealEcu.5CcL_LATEST.5Cmake.5Coutput.5Cobjects.5CNvM_Act.60::
                         842 .LDWlin60:
0000036a 4006ff10        843 	dispose	0,{r27,r28,r29,r31},[lp]
                         844 ___ghs_eofn_NvM_ActFinishReadBlock:
                         845 	.type	_NvM_ActFinishReadBlock,@function
                         846 	.size	_NvM_ActFinishReadBlock,.-_NvM_ActFinishReadBlock
                         847 	.type	_NvM_ActFinishReadBlock..C.3A.5C_ECU2.5CECU_Rivian_A1.5CTarget.5Crepo_projects.5CpRealEcu.5CcL_LATEST.5Cmake.5Coutput.5Cobjects.5CNvM_Act.,@function
                         848 	.size	_NvM_ActFinishReadBlock..C.3A.5C_ECU2.5CECU_Rivian_A1.5CTarget.5Crepo_projects.5CpRealEcu.5CcL_LATEST.5Cmake.5Coutput.5Cobjects.5CNvM_Act.,.-_NvM_ActFinishReadBlock..C.3A.5C_ECU2.5CECU_Rivian_A1.5CTarget.5Crepo_projects.5CpRealEcu.5CcL_LATEST.5Cmake.5Coutput.5Cobjects.5CNvM_Act.
                         849 	.align	2
                         850 --_MngmtPtr	r27	local
                         851 --_descr_pt	r28	local
                         852 
                         853 	.section ".bss","awb"
                         854 .L1827:
                         855 	.type	.L1827,@object
                         856 	.size	.L1827,0
                         857 	.data
                         858 	.text
                         859 	.align	2
                         860 	.align	2
                         861 ..gh.f.f.1.e.12:
                         862 	.type	..gh.f.f.1.e.12,@object
                         863 	.size	..gh.f.f.1.e.12,0
                         864 	.global	_NvM_ActFinishWriteBlock..C.3A.5C_ECU2.5CECU_Rivian_A1.5CTarget.5Crepo_projects.5CpRealEcu.5CcL_LATEST.5Cmake.5Coutput.5Cobjects.5CNvM_Act.
                         865 _NvM_ActFinishWriteBlock..C.3A.5C_ECU2.5CECU_Rivian_A1.5CTarget.5Crepo_projects.5CpRealEcu.5CcL_LATEST.5Cmake.5Coutput.5Cobjects.5CNvM_Act.:
                         866 _NvM_ActFinishWriteBlock:
0000036e 8007e100        867 	prepare	{r28,r29,r31},0
                         868 --	    .bf
                         869 .LDW63:
00000372 3d0600000000*   870 	mov	_NvM_CurrentBlockInfo_t,r29
00000378 1df0            871 	mov	r29,ep
                         872 --line429
                         873 ..lin.C.3A.5C_ECU2.5CECU_Rivian_A1.5CTarget.5Crepo_projects.5CpRealEcu.5CcL_LATEST.5Cmake.5Coutput.5Cobjects.5CNvM_Act.61::
                         874 .LDWlin61:
0000037a 0085            875 	sld.w	0[ep],r16
0000037c 02e5            876 	sld.w	4[ep],r28
0000037e d0e72200        877 	tst1	4,34[r16]
00000382 f21d*           878 	be	.L1952
                         879 --	    .bs
                         880 .LDW73:
                         881 --line431
                         882 ..lin.C.3A.5C_ECU2.5CECU_Rivian_A1.5CTarget.5Crepo_projects.5CpRealEcu.5CcL_LATEST.5Cmake.5Coutput.5Cobjects.5CNvM_Act.62::
                         883 .LDWlin62:
00000384 bd772700        884 	ld.bu	39[r29],r14
00000388 0e78            885 	mov	r14,r15
0000038a 857a            886 	shr	5,r15
0000038c cf060300        887 	andi	3,r15,zero
00000390 ea970000        888 	setfne	r18
00000394 8372            889 	shr	3,r14
00000396 ce060300        890 	andi	3,r14,zero
0000039a ea8f0000        891 	setfne	r17
0000039e e091            892 	cmp	zero,r18
000003a0 d205*           893 	be	.L1954
000003a2 e089            894 	cmp	zero,r17
000003a4 ea9f0000        895 	setfne	r19
000003a8 a505*           896 	br	.L1957
                         897 .L1954:
                         898 --line440
                         899 ..lin.C.3A.5C_ECU2.5CECU_Rivian_A1.5CTarget.5Crepo_projects.5CpRealEcu.5CcL_LATEST.5Cmake.5Coutput.5Cobjects.5CNvM_Act.63::

                                                                      Page 17
                                                              C:\Users\nhuliyap\AppData\Local\Temp\gh_0000d3s1.s
                         900 .LDWlin63:
000003aa 1298            901 	mov	r18,r19
                         902 .L1957:
000003ac 5d9f2400        903 	st.b	r19,36[r29]
000003b0 e091            904 	cmp	zero,r18
000003b2 da05*           905 	bne	.L1961
000003b4 e089            906 	cmp	zero,r17
000003b6 e18f1433        907 	cmovne	1,r17,r6
000003ba d505*           908 	br	.L1963
                         909 .L1961:
000003bc 0132            910 	mov	1,r6
                         911 --	    .es
                         912 .LDW83:
                         913 --line440
                         914 ..lin.C.3A.5C_ECU2.5CECU_Rivian_A1.5CTarget.5Crepo_projects.5CpRealEcu.5CcL_LATEST.5Cmake.5Coutput.5Cobjects.5CNvM_Act.64::
                         915 .LDWlin64:
000003be b505*           916 	br	.L1963
                         917 .L1952:
                         918 --line451
                         919 ..lin.C.3A.5C_ECU2.5CECU_Rivian_A1.5CTarget.5Crepo_projects.5CpRealEcu.5CcL_LATEST.5Cmake.5Coutput.5Cobjects.5CNvM_Act.65::
                         920 .LDWlin65:
000003c0 9d372500        921 	ld.bu	36[r29],r6
                         922 .L1963:
                         923 	jarl	_NvM_IntUpdateCurrentBlockNVRAMStatus,lp
                         923 <EXPANSION BEGIN>
                         923 jarl22 _NvM_IntUpdateCurrentBlockNVRAMStatus , lp 
000003c4 bfff0eff*       923 <EXPANSION END>
000003c8 9d9f2500        924 	ld.bu	36[r29],r19
000003cc e099            925 	cmp	zero,r19
000003ce aa15*           926 	bne	.L1964
                         927 --line457
                         928 ..lin.C.3A.5C_ECU2.5CECU_Rivian_A1.5CTarget.5Crepo_projects.5CpRealEcu.5CcL_LATEST.5Cmake.5Coutput.5Cobjects.5CNvM_Act.66::
                         929 .LDWlin66:
000003d0 40960000*       930 	movhi	hi(_NvM_CurrentJob_t+4),zero,r18
000003d4 32970100*       931 	ld.w	lo(_NvM_CurrentJob_t+4)[r18],r18
000003d8 e091            932 	cmp	zero,r18
000003da ba05*           933 	bne	.L1966
                         934 --line459
                         935 ..lin.C.3A.5C_ECU2.5CECU_Rivian_A1.5CTarget.5Crepo_projects.5CpRealEcu.5CcL_LATEST.5Cmake.5Coutput.5Cobjects.5CNvM_Act.67::
                         936 .LDWlin67:
000003dc dc8f0200        937 	clr1	1,2[r28]
                         938 .L1966:
000003e0 3d7f0100        939 	ld.w	0[r29],r15
000003e4 cfd72300        940 	tst1	2,35[r15]
000003e8 f205*           941 	be	.L1950
                         942 --line464
                         943 ..lin.C.3A.5C_ECU2.5CECU_Rivian_A1.5CTarget.5Crepo_projects.5CpRealEcu.5CcL_LATEST.5Cmake.5Coutput.5Cobjects.5CNvM_Act.68::
                         944 .LDWlin68:
000003ea dc3f0200        945 	set1	7,2[r28]
000003ee 4006ff00        946 	dispose	0,{r28,r29,r31},[lp]
                         947 .L1964:
                         948 --line468
                         949 ..lin.C.3A.5C_ECU2.5CECU_Rivian_A1.5CTarget.5Crepo_projects.5CpRealEcu.5CcL_LATEST.5Cmake.5Coutput.5Cobjects.5CNvM_Act.69::
                         950 .LDWlin69:
000003f2 dd272600        951 	set1	4,38[r29]
                         952 .L1950:
                         953 --	    .ef
                         954 .LDW93:
000003f6 4006ff00        955 	dispose	0,{r28,r29,r31},[lp]
                         956 ___ghs_eofn_NvM_ActFinishWriteBlock:
                         957 	.type	_NvM_ActFinishWriteBlock,@function

                                                                      Page 18
                                                              C:\Users\nhuliyap\AppData\Local\Temp\gh_0000d3s1.s
                         958 	.size	_NvM_ActFinishWriteBlock,.-_NvM_ActFinishWriteBlock
                         959 	.type	_NvM_ActFinishWriteBlock..C.3A.5C_ECU2.5CECU_Rivian_A1.5CTarget.5Crepo_projects.5CpRealEcu.5CcL_LATEST.5Cmake.5Coutput.5Cobjects.5CNvM_Act.,@function
                         960 	.size	_NvM_ActFinishWriteBlock..C.3A.5C_ECU2.5CECU_Rivian_A1.5CTarget.5Crepo_projects.5CpRealEcu.5CcL_LATEST.5Cmake.5Coutput.5Cobjects.5CNvM_Act.,.-_NvM_ActFinishWriteBlock..C.3A.5C_ECU2.5CECU_Rivian_A1.5CTarget.5Crepo_projects.5CpRealEcu.5CcL_LATEST.5Cmake.5Coutput.5Cobjects.5CNvM_Act.
                         961 	.align	2
                         962 --_MngmtPtr	r28	local
                         963 --_firstBlockDefect	r18	local
                         964 --_secondBlockDefect	r17	local
                         965 
                         966 	.section ".bss","awb"
                         967 .L2738:
                         968 	.type	.L2738,@object
                         969 	.size	.L2738,0
                         970 	.data
                         971 	.text
                         972 	.align	2
                         973 	.align	2
                         974 ..gh.f.f.1.e.13:
                         975 	.type	..gh.f.f.1.e.13,@object
                         976 	.size	..gh.f.f.1.e.13,0
                         977 	.global	_NvM_ActInitMainFsm..C.3A.5C_ECU2.5CECU_Rivian_A1.5CTarget.5Crepo_projects.5CpRealEcu.5CcL_LATEST.5Cmake.5Coutput.5Cobjects.5CNvM_Act.
                         978 _NvM_ActInitMainFsm..C.3A.5C_ECU2.5CECU_Rivian_A1.5CTarget.5Crepo_projects.5CpRealEcu.5CcL_LATEST.5Cmake.5Coutput.5Cobjects.5CNvM_Act.:
                         979 _NvM_ActInitMainFsm:
000003fa 80076100        980 	prepare	{r29,r31},0
                         981 --	    .bf
                         982 .LDW04:
                         983 	jarl	_NvM_ActInitBlock,lp
                         983 <EXPANSION BEGIN>
                         983 jarl22 _NvM_ActInitBlock , lp 
000003fe bfffc2fc*       983 <EXPANSION END>
                         984 --line530
                         985 ..lin.C.3A.5C_ECU2.5CECU_Rivian_A1.5CTarget.5Crepo_projects.5CpRealEcu.5CcL_LATEST.5Cmake.5Coutput.5Cobjects.5CNvM_Act.70::
                         986 .LDWlin70:
00000402 40960000*       987 	movhi	hi(_NvM_CurrentJob_t+2),zero,r18
00000406 92970100*       988 	ld.bu	lo(_NvM_CurrentJob_t+2)[r18],r18
0000040a 310600000000*   989 	mov	_NvM_IntServiceDescrTable_at,r17
                         990 --line532
                         991 ..lin.C.3A.5C_ECU2.5CECU_Rivian_A1.5CTarget.5Crepo_projects.5CpRealEcu.5CcL_LATEST.5Cmake.5Coutput.5Cobjects.5CNvM_Act.71::
                         992 .LDWlin71:
00000410 2f0600000000*   993 	mov	_NvM_ActionTable_ap,r15
00000416 40660000*       994 	movhi	hi(_NvM_JobMainState_t),zero,r12
0000041a f2f60300        995 	mulhi	3,r18,ep
0000041e d1f1            996 	add	r17,ep
00000420 6180            997 	sld.bu	1[ep],r16
00000422 60f0            998 	sld.bu	0[ep],ep
00000424 4c870000*       999 	st.b	r16,lo(_NvM_JobMainState_t)[r12]
00000428 c2f2           1000 	shl	2,ep
0000042a cff1           1001 	add	r15,ep
0000042c 00ed           1002 	sld.w	0[ep],r29
0000042e fdc760f9       1003 	jarl	[r29],lp
                        1004 --	    .ef
                        1005 .LDW14:
                        1006 --line533
                        1007 ..lin.C.3A.5C_ECU2.5CECU_Rivian_A1.5CTarget.5Crepo_projects.5CpRealEcu.5CcL_LATEST.5Cmake.5Coutput.5Cobjects.5CNvM_Act.72::
                        1008 .LDWlin72:
00000432 40067f00       1009 	dispose	0,{r29,r31},[lp]
                        1010 ___ghs_eofn_NvM_ActInitMainFsm:
                        1011 	.type	_NvM_ActInitMainFsm,@function
                        1012 	.size	_NvM_ActInitMainFsm,.-_NvM_ActInitMainFsm
                        1013 	.type	_NvM_ActInitMainFsm..C.3A.5C_ECU2.5CECU_Rivian_A1.5CTarget.5Crepo_projects.5CpRealEcu.5CcL_LATEST.5Cmake.5Coutput.5Cobjects.5CNvM_Act.,@function
                        1014 	.size	_NvM_ActInitMainFsm..C.3A.5C_ECU2.5CECU_Rivian_A1.5CTarget.5Crepo_projects.5CpRealEcu.5CcL_LATEST.5Cmake.5Coutput.5Cobjects.5CNvM_Act.,.-_NvM_ActInitMainFsm..C.3A.5C_ECU2.5CECU_Rivian_A1.5CTarget.5Crepo_projects.5CpRealEcu.5CcL_LATEST.5Cmake.5Coutput.5Cobjects.5CNvM_Act.
                        1015 	.align	2

                                                                      Page 19
                                                              C:\Users\nhuliyap\AppData\Local\Temp\gh_0000d3s1.s
                        1016 
                        1017 	.section ".bss","awb"
                        1018 .L2913:
                        1019 	.type	.L2913,@object
                        1020 	.size	.L2913,0
                        1021 	.data
                        1022 	.text
                        1023 	.align	2
                        1024 	.align	2
                        1025 ..gh.f.f.1.e.14:
                        1026 	.type	..gh.f.f.1.e.14,@object
                        1027 	.size	..gh.f.f.1.e.14,0
                        1028 	.global	_NvM_ActSetInitialAttr..C.3A.5C_ECU2.5CECU_Rivian_A1.5CTarget.5Crepo_projects.5CpRealEcu.5CcL_LATEST.5Cmake.5Coutput.5Cobjects.5CNvM_Act.
                        1029 _NvM_ActSetInitialAttr..C.3A.5C_ECU2.5CECU_Rivian_A1.5CTarget.5Crepo_projects.5CpRealEcu.5CcL_LATEST.5Cmake.5Coutput.5Cobjects.5CNvM_Act.:
                        1030 _NvM_ActSetInitialAttr:
                        1031 --	    .bf
                        1032 .LDW24:
00000436 3e0600000000*  1033 	mov	_NvM_CurrentBlockInfo_t,ep
0000043c 007d           1034 	sld.w	0[ep],r15
                        1035 --line863
                        1036 ..lin.C.3A.5C_ECU2.5CECU_Rivian_A1.5CTarget.5Crepo_projects.5CpRealEcu.5CcL_LATEST.5Cmake.5Coutput.5Cobjects.5CNvM_Act.73::
                        1037 .LDWlin73:
0000043e 02f5           1038 	sld.w	4[ep],ep
00000440 206e8000       1039 	movea	128,zero,r13
00000444 af7f2300       1040 	ld.bu	35[r15],r15
00000448 cf960200       1041 	andi	2,r15,r18
0000044c f26f248b       1042 	cmove	r18,r13,r17
00000450 828b           1043 	sst.b	r17,2[ep]
                        1044 --	    .ef
                        1045 .LDW34:
00000452 7f00           1046 	jmp	[lp]
                        1047 ___ghs_eofn_NvM_ActSetInitialAttr:
                        1048 	.type	_NvM_ActSetInitialAttr,@function
                        1049 	.size	_NvM_ActSetInitialAttr,.-_NvM_ActSetInitialAttr
                        1050 	.type	_NvM_ActSetInitialAttr..C.3A.5C_ECU2.5CECU_Rivian_A1.5CTarget.5Crepo_projects.5CpRealEcu.5CcL_LATEST.5Cmake.5Coutput.5Cobjects.5CNvM_Act.,@function
                        1051 	.size	_NvM_ActSetInitialAttr..C.3A.5C_ECU2.5CECU_Rivian_A1.5CTarget.5Crepo_projects.5CpRealEcu.5CcL_LATEST.5Cmake.5Coutput.5Cobjects.5CNvM_Act.,.-_NvM_ActSetInitialAttr..C.3A.5C_ECU2.5CECU_Rivian_A1.5CTarget.5Crepo_projects.5CpRealEcu.5CcL_LATEST.5Cmake.5Coutput.5Cobjects.5CNvM_Act.
                        1052 	.align	2
                        1053 --_attribs_u8loc	r17	local
                        1054 
                        1055 	.section ".bss","awb"
                        1056 .L3042:
                        1057 	.type	.L3042,@object
                        1058 	.size	.L3042,0
                        1059 	.data
                        1060 	.text
                        1061 	.align	2
                        1062 	.align	2
                        1063 ..gh.f.f.1.e.15:
                        1064 	.type	..gh.f.f.1.e.15,@object
                        1065 	.size	..gh.f.f.1.e.15,0
                        1066 	.global	_NvM_ActInitReadBlockFsm..C.3A.5C_ECU2.5CECU_Rivian_A1.5CTarget.5Crepo_projects.5CpRealEcu.5CcL_LATEST.5Cmake.5Coutput.5Cobjects.5CNvM_Act.
                        1067 _NvM_ActInitReadBlockFsm..C.3A.5C_ECU2.5CECU_Rivian_A1.5CTarget.5Crepo_projects.5CpRealEcu.5CcL_LATEST.5Cmake.5Coutput.5Cobjects.5CNvM_Act.:
                        1068 _NvM_ActInitReadBlockFsm:
00000454 80077b000000*  1069 	prepare	{r29,r31},0,_NvM_CurrentBlockInfo_t
0000045a 0000*
                        1070 --	    .bf
                        1071 .LDW44:
0000045c deef2600       1072 	tst1	5,38[ep]
00000460 0192           1073 	mov	1,r18
00000462 f205*          1074 	be	.L3068
00000464 007d           1075 	sld.w	0[ep],r15

                                                                      Page 20
                                                              C:\Users\nhuliyap\AppData\Local\Temp\gh_0000d3s1.s
00000466 0292           1076 	mov	2,r18
00000468 cfdf2300       1077 	tst1	3,35[r15]
0000046c e1971493       1078 	cmovne	1,r18,r18
                        1079 .L3068:
                        1080 --line649
                        1081 ..lin.C.3A.5C_ECU2.5CECU_Rivian_A1.5CTarget.5Crepo_projects.5CpRealEcu.5CcL_LATEST.5Cmake.5Coutput.5Cobjects.5CNvM_Act.74::
                        1082 .LDWlin74:
00000470 f2f60300       1083 	mulhi	3,r18,ep
00000474 2e0600000000*  1084 	mov	_NvM_IntServiceDescrTable_at,r14
                        1085 --line651
                        1086 ..lin.C.3A.5C_ECU2.5CECU_Rivian_A1.5CTarget.5Crepo_projects.5CpRealEcu.5CcL_LATEST.5Cmake.5Coutput.5Cobjects.5CNvM_Act.75::
                        1087 .LDWlin75:
0000047a 2c0600000000*  1088 	mov	_NvM_ActionTable_ap,r12
00000480 405e0000*      1089 	movhi	hi(_NvM_JobSubState_t),zero,r11
00000484 cef1           1090 	add	r14,ep
00000486 6168           1091 	sld.bu	1[ep],r13
00000488 60f0           1092 	sld.bu	0[ep],ep
0000048a 4b6f0000*      1093 	st.b	r13,lo(_NvM_JobSubState_t)[r11]
0000048e c2f2           1094 	shl	2,ep
00000490 ccf1           1095 	add	r12,ep
00000492 00ed           1096 	sld.w	0[ep],r29
00000494 fdc760f9       1097 	jarl	[r29],lp
                        1098 --	    .ef
                        1099 .LDW54:
                        1100 --line652
                        1101 ..lin.C.3A.5C_ECU2.5CECU_Rivian_A1.5CTarget.5Crepo_projects.5CpRealEcu.5CcL_LATEST.5Cmake.5Coutput.5Cobjects.5CNvM_Act.76::
                        1102 .LDWlin76:
00000498 40067f00       1103 	dispose	0,{r29,r31},[lp]
                        1104 ___ghs_eofn_NvM_ActInitReadBlockFsm:
                        1105 	.type	_NvM_ActInitReadBlockFsm,@function
                        1106 	.size	_NvM_ActInitReadBlockFsm,.-_NvM_ActInitReadBlockFsm
                        1107 	.type	_NvM_ActInitReadBlockFsm..C.3A.5C_ECU2.5CECU_Rivian_A1.5CTarget.5Crepo_projects.5CpRealEcu.5CcL_LATEST.5Cmake.5Coutput.5Cobjects.5CNvM_Act.,@function
                        1108 	.size	_NvM_ActInitReadBlockFsm..C.3A.5C_ECU2.5CECU_Rivian_A1.5CTarget.5Crepo_projects.5CpRealEcu.5CcL_LATEST.5Cmake.5Coutput.5Cobjects.5CNvM_Act.,.-_NvM_ActInitReadBlockFsm..C.3A.5C_ECU2.5CECU_Rivian_A1.5CTarget.5Crepo_projects.5CpRealEcu.5CcL_LATEST.5Cmake.5Coutput.5Cobjects.5CNvM_Act.
                        1109 	.align	2
                        1110 --_jobId	r18	local
                        1111 
                        1112 	.section ".bss","awb"
                        1113 .L3109:
                        1114 	.type	.L3109,@object
                        1115 	.size	.L3109,0
                        1116 	.data
                        1117 	.text
                        1118 	.align	2
                        1119 	.align	2
                        1120 ..gh.f.f.1.e.16:
                        1121 	.type	..gh.f.f.1.e.16,@object
                        1122 	.size	..gh.f.f.1.e.16,0
                        1123 	.global	_NvM_ActInitReadAll..C.3A.5C_ECU2.5CECU_Rivian_A1.5CTarget.5Crepo_projects.5CpRealEcu.5CcL_LATEST.5Cmake.5Coutput.5Cobjects.5CNvM_Act.
                        1124 _NvM_ActInitReadAll..C.3A.5C_ECU2.5CECU_Rivian_A1.5CTarget.5Crepo_projects.5CpRealEcu.5CcL_LATEST.5Cmake.5Coutput.5Cobjects.5CNvM_Act.:
                        1125 _NvM_ActInitReadAll:
0000049c 80076100       1126 	prepare	{r29,r31},0
                        1127 --	    .bf
                        1128 .LDW64:
000004a0 320600000000*  1129 	mov	_NvM_CurrentBlockInfo_t,r18
                        1130 --line536
                        1131 ..lin.C.3A.5C_ECU2.5CECU_Rivian_A1.5CTarget.5Crepo_projects.5CpRealEcu.5CcL_LATEST.5Cmake.5Coutput.5Cobjects.5CNvM_Act.77::
                        1132 .LDWlin77:
000004a6 40ee0000*      1133 	movhi	hi(_NvM_NoOfBlockIds_t),zero,r29
000004aa d2af2600       1134 	clr1	5,38[r18]
000004ae fdef0100*      1135 	ld.hu	lo(_NvM_NoOfBlockIds_t)[r29],r29
000004b2 d2a72600       1136 	clr1	4,38[r18]

                                                                      Page 21
                                                              C:\Users\nhuliyap\AppData\Local\Temp\gh_0000d3s1.s
                        1137 .L3160:
                        1138 --line542
                        1139 ..lin.C.3A.5C_ECU2.5CECU_Rivian_A1.5CTarget.5Crepo_projects.5CpRealEcu.5CcL_LATEST.5Cmake.5Coutput.5Cobjects.5CNvM_Act.78::
                        1140 .LDWlin78:
000004b6 5fea           1141 	add	-1,r29
000004b8 dd00           1142 	zxh	r29
000004ba 1df0           1143 	mov	r29,ep
000004bc e3f74002       1144 	mul	3,ep,zero
000004c0 310600000000*  1145 	mov	_NvM_BlockMngmtArea_at,r17
000004c6 0242           1146 	mov	2,r8
                        1147 --line544
                        1148 ..lin.C.3A.5C_ECU2.5CECU_Rivian_A1.5CTarget.5Crepo_projects.5CpRealEcu.5CcL_LATEST.5Cmake.5Coutput.5Cobjects.5CNvM_Act.79::
                        1149 .LDWlin79:
000004c8 1d30           1150 	mov	r29,r6
000004ca d1f1           1151 	add	r17,ep
000004cc 8143           1152 	sst.b	r8,1[ep]
000004ce 0c3a           1153 	mov	12,r7
                        1154 	jarl	_NvM_BlockNotification,lp
                        1154 <EXPANSION BEGIN>
                        1154 jarl22 _NvM_BlockNotification , lp 
000004d0 80ff0000*      1154 <EXPANSION END>
                        1155 --line546
                        1156 ..lin.C.3A.5C_ECU2.5CECU_Rivian_A1.5CTarget.5Crepo_projects.5CpRealEcu.5CcL_LATEST.5Cmake.5Coutput.5Cobjects.5CNvM_Act.80::
                        1157 .LDWlin80:
000004d4 e0e9           1158 	cmp	zero,r29
000004d6 8af5*          1159 	bne	.L3160
                        1160 --line548
                        1161 ..lin.C.3A.5C_ECU2.5CECU_Rivian_A1.5CTarget.5Crepo_projects.5CpRealEcu.5CcL_LATEST.5Cmake.5Coutput.5Cobjects.5CNvM_Act.81::
                        1162 .LDWlin81:
                        1163 	jarl	_NvM_ActSetInitialAttr,lp
                        1163 <EXPANSION BEGIN>
                        1163 jarl22 _NvM_ActSetInitialAttr , lp 
000004d8 bfff5eff*      1163 <EXPANSION END>
                        1164 --line551
                        1165 ..lin.C.3A.5C_ECU2.5CECU_Rivian_A1.5CTarget.5Crepo_projects.5CpRealEcu.5CcL_LATEST.5Cmake.5Coutput.5Cobjects.5CNvM_Act.82::
                        1166 .LDWlin82:
000004dc 0132           1167 	mov	1,r6
                        1168 	jarl	_MemIf_SetMode,lp
                        1168 <EXPANSION BEGIN>
                        1168 jarl22 _MemIf_SetMode , lp 
000004de 80ff0000*      1168 <EXPANSION END>
                        1169 --line554
                        1170 ..lin.C.3A.5C_ECU2.5CECU_Rivian_A1.5CTarget.5Crepo_projects.5CpRealEcu.5CcL_LATEST.5Cmake.5Coutput.5Cobjects.5CNvM_Act.83::
                        1171 .LDWlin83:
                        1172 	jarl	_NvM_ActInitReadBlockFsm,lp
                        1172 <EXPANSION BEGIN>
                        1172 jarl22 _NvM_ActInitReadBlockFsm , lp 
000004e2 bfff72ff*      1172 <EXPANSION END>
                        1173 --	    .ef
                        1174 .LDW74:
                        1175 --line555
                        1176 ..lin.C.3A.5C_ECU2.5CECU_Rivian_A1.5CTarget.5Crepo_projects.5CpRealEcu.5CcL_LATEST.5Cmake.5Coutput.5Cobjects.5CNvM_Act.84::
                        1177 .LDWlin84:
000004e6 40067f00       1178 	dispose	0,{r29,r31},[lp]
                        1179 ___ghs_eofn_NvM_ActInitReadAll:
                        1180 	.type	_NvM_ActInitReadAll,@function
                        1181 	.size	_NvM_ActInitReadAll,.-_NvM_ActInitReadAll
                        1182 	.type	_NvM_ActInitReadAll..C.3A.5C_ECU2.5CECU_Rivian_A1.5CTarget.5Crepo_projects.5CpRealEcu.5CcL_LATEST.5Cmake.5Coutput.5Cobjects.5CNvM_Act.,@function
                        1183 	.size	_NvM_ActInitReadAll..C.3A.5C_ECU2.5CECU_Rivian_A1.5CTarget.5Crepo_projects.5CpRealEcu.5CcL_LATEST.5Cmake.5Coutput.5Cobjects.5CNvM_Act.,.-_NvM_ActInitReadAll..C.3A.5C_ECU2.5CECU_Rivian_A1.5CTarget.5Crepo_projects.5CpRealEcu.5CcL_LATEST.5Cmake.5Coutput.5Cobjects.5CNvM_Act.
                        1184 	.align	2
                        1185 --_currBlockId	r29	local

                                                                      Page 22
                                                              C:\Users\nhuliyap\AppData\Local\Temp\gh_0000d3s1.s
                        1186 
                        1187 	.section ".bss","awb"
                        1188 .L3195:
                        1189 	.type	.L3195,@object
                        1190 	.size	.L3195,0
                        1191 	.data
                        1192 	.text
                        1193 	.align	2
                        1194 	.align	2
                        1195 ..gh.f.f.1.e.17:
                        1196 	.type	..gh.f.f.1.e.17,@object
                        1197 	.size	..gh.f.f.1.e.17,0
                        1198 	.global	_NvM_InternalCopyData..C.3A.5C_ECU2.5CECU_Rivian_A1.5CTarget.5Crepo_projects.5CpRealEcu.5CcL_LATEST.5Cmake.5Coutput.5Cobjects.5CNvM_Act.
                        1199 _NvM_InternalCopyData..C.3A.5C_ECU2.5CECU_Rivian_A1.5CTarget.5Crepo_projects.5CpRealEcu.5CcL_LATEST.5Cmake.5Coutput.5Cobjects.5CNvM_Act.:
                        1200 _NvM_InternalCopyData:
000004ea 06f0           1201 	mov	r6,ep
                        1202 --	    .bf
                        1203 .LDW84:
000004ec 40860000*      1204 	movhi	hi(_NvM_NoOfCrcBytes_u16),zero,r16
000004f0 f0870100*      1205 	ld.hu	lo(_NvM_NoOfCrcBytes_u16)[r16],r16
000004f4 e68f2300       1206 	ld.hu	34[r6],r17
000004f8 c282           1207 	shl	2,r16
000004fa f181           1208 	cmp	r17,r16
000004fc f1873c93       1209 	cmovge	r17,r16,r18
00000500 d200           1210 	zxh	r18
                        1211 --line1231
                        1212 ..lin.C.3A.5C_ECU2.5CECU_Rivian_A1.5CTarget.5Crepo_projects.5CpRealEcu.5CcL_LATEST.5Cmake.5Coutput.5Cobjects.5CNvM_Act.85::
                        1213 .LDWlin85:
00000502 b289           1214 	sub	r18,r17
00000504 d100           1215 	zxh	r17
00000506 d139           1216 	add	r17,r7
00000508 918c           1217 	sst.h	r17,34[ep]
0000050a d141           1218 	add	r17,r8
0000050c a50d*          1219 	br	.L3233
                        1220 .L3235:
                        1221 --line1238
                        1222 ..lin.C.3A.5C_ECU2.5CECU_Rivian_A1.5CTarget.5Crepo_projects.5CpRealEcu.5CcL_LATEST.5Cmake.5Coutput.5Cobjects.5CNvM_Act.86::
                        1223 .LDWlin86:
0000050e 5f92           1224 	add	-1,r18
00000510 d200           1225 	zxh	r18
00000512 1230           1226 	mov	r18,r6
00000514 c831           1227 	add	r8,r6
00000516 868f0100       1228 	ld.bu	0[r6],r17
0000051a 12f0           1229 	mov	r18,ep
0000051c c7f1           1230 	add	r7,ep
0000051e 808b           1231 	sst.b	r17,0[ep]
                        1232 .L3233:
00000520 e091           1233 	cmp	zero,r18
00000522 eaf5*          1234 	bne	.L3235
                        1235 --	    .ef
                        1236 .LDW94:
                        1237 --line1241
                        1238 ..lin.C.3A.5C_ECU2.5CECU_Rivian_A1.5CTarget.5Crepo_projects.5CpRealEcu.5CcL_LATEST.5Cmake.5Coutput.5Cobjects.5CNvM_Act.87::
                        1239 .LDWlin87:
00000524 7f00           1240 	jmp	[lp]
                        1241 ___ghs_eofn_NvM_InternalCopyData:
                        1242 	.type	_NvM_InternalCopyData,@function
                        1243 	.size	_NvM_InternalCopyData,.-_NvM_InternalCopyData
                        1244 	.type	_NvM_InternalCopyData..C.3A.5C_ECU2.5CECU_Rivian_A1.5CTarget.5Crepo_projects.5CpRealEcu.5CcL_LATEST.5Cmake.5Coutput.5Cobjects.5CNvM_Act.,@function
                        1245 	.size	_NvM_InternalCopyData..C.3A.5C_ECU2.5CECU_Rivian_A1.5CTarget.5Crepo_projects.5CpRealEcu.5CcL_LATEST.5Cmake.5Coutput.5Cobjects.5CNvM_Act.,.-_NvM_InternalCopyData..C.3A.5C_ECU2.5CECU_Rivian_A1.5CTarget.5Crepo_projects.5CpRealEcu.5CcL_LATEST.5Cmake.5Coutput.5Cobjects.5CNvM_Act.
                        1246 	.align	2

                                                                      Page 23
                                                              C:\Users\nhuliyap\AppData\Local\Temp\gh_0000d3s1.s
                        1247 --_length	r18	local
                        1248 
                        1249 --_info_pt	ep	param
                        1250 --_destPtr	r7	param
                        1251 --_srcPtr	r8	param
                        1252 
                        1253 	.section ".bss","awb"
                        1254 .L3280:
                        1255 	.type	.L3280,@object
                        1256 	.size	.L3280,0
                        1257 	.data
                        1258 	.text
                        1259 	.align	2
                        1260 	.align	2
                        1261 ..gh.f.f.1.e.18:
                        1262 	.type	..gh.f.f.1.e.18,@object
                        1263 	.size	..gh.f.f.1.e.18,0
                        1264 	.global	_NvM_InternalCopyBufferedData..C.3A.5C_ECU2.5CECU_Rivian_A1.5CTarget.5Crepo_projects.5CpRealEcu.5CcL_LATEST.5Cmake.5Coutput.5Cobjects.5CNvM_Act.
                        1265 _NvM_InternalCopyBufferedData..C.3A.5C_ECU2.5CECU_Rivian_A1.5CTarget.5Crepo_projects.5CpRealEcu.5CcL_LATEST.5Cmake.5Coutput.5Cobjects.5CNvM_Act.:
                        1266 _NvM_InternalCopyBufferedData:
00000526 8007fb000000*  1267 	prepare	{r28,r29,r31},0,_NvM_CurrentBlockInfo_t
0000052c 0000*
0000052e 06e0           1268 	mov	r6,r28
00000530 0740           1269 	mov	r7,r8
                        1270 --	    .bf
                        1271 .LDW05:
00000532 00f5           1272 	sld.w	0[ep],ep
00000534 260600000000*  1273 	mov	_NvM_CurrentJob_t,r6
0000053a 08ed           1274 	sld.w	16[ep],r29
0000053c e0e9           1275 	cmp	zero,r29
0000053e c20d*          1276 	be	.L3324
00000540 269f0500       1277 	ld.w	4[r6],r19
00000544 e099           1278 	cmp	zero,r19
00000546 8a0d*          1279 	bne	.L3324
                        1280 --line786
                        1281 ..lin.C.3A.5C_ECU2.5CECU_Rivian_A1.5CTarget.5Crepo_projects.5CpRealEcu.5CcL_LATEST.5Cmake.5Coutput.5Cobjects.5CNvM_Act.88::
                        1282 .LDWlin88:
00000548 0730           1283 	mov	r7,r6
0000054a fdc760f9       1284 	jarl	[r29],lp
0000054e e051           1285 	cmp	zero,r10
00000550 f20d*          1286 	be	.L3333
                        1287 --	    .es
                        1288 .LDW15:
                        1289 --	    .ef
                        1290 .LDW25:
                        1291 --line805
                        1292 ..lin.C.3A.5C_ECU2.5CECU_Rivian_A1.5CTarget.5Crepo_projects.5CpRealEcu.5CcL_LATEST.5Cmake.5Coutput.5Cobjects.5CNvM_Act.89::
                        1293 .LDWlin89:
00000552 4006ff00       1294 	dispose	0,{r28,r29,r31},[lp]
                        1295 .L3324:
                        1296 --	    .bs
                        1297 .LDW35:
                        1298 --line792
                        1299 ..lin.C.3A.5C_ECU2.5CECU_Rivian_A1.5CTarget.5Crepo_projects.5CpRealEcu.5CcL_LATEST.5Cmake.5Coutput.5Cobjects.5CNvM_Act.90::
                        1300 .LDWlin90:
00000556 263f0500       1301 	ld.w	4[r6],r7
0000055a e039           1302 	cmp	zero,r7
0000055c aa05*          1303 	bne	.L3332
0000055e 003d           1304 	sld.w	0[ep],r7
                        1305 .L3332:
                        1306 --line794

                                                                      Page 24
                                                              C:\Users\nhuliyap\AppData\Local\Temp\gh_0000d3s1.s
                        1307 ..lin.C.3A.5C_ECU2.5CECU_Rivian_A1.5CTarget.5Crepo_projects.5CpRealEcu.5CcL_LATEST.5Cmake.5Coutput.5Cobjects.5CNvM_Act.91::
                        1308 .LDWlin91:
00000560 e741           1309 	cmp	r7,r8
00000562 e205*          1310 	be	.L3333
                        1311 --line796
                        1312 ..lin.C.3A.5C_ECU2.5CECU_Rivian_A1.5CTarget.5Crepo_projects.5CpRealEcu.5CcL_LATEST.5Cmake.5Coutput.5Cobjects.5CNvM_Act.92::
                        1313 .LDWlin92:
00000564 1c30           1314 	mov	r28,r6
                        1315 	jarl	_NvM_InternalCopyData,lp
                        1315 <EXPANSION BEGIN>
                        1315 jarl22 _NvM_InternalCopyData , lp 
00000566 bfff84ff*      1315 <EXPANSION END>
0000056a 4006ff00       1316 	dispose	0,{r28,r29,r31},[lp]
                        1317 .L3333:
                        1318 --line799
                        1319 ..lin.C.3A.5C_ECU2.5CECU_Rivian_A1.5CTarget.5Crepo_projects.5CpRealEcu.5CcL_LATEST.5Cmake.5Coutput.5Cobjects.5CNvM_Act.93::
                        1320 .LDWlin93:
0000056e 7c072200       1321 	st.h	zero,34[r28]
00000572 4006ff00       1322 	dispose	0,{r28,r29,r31},[lp]
                        1323 ___ghs_eofn_NvM_InternalCopyBufferedData:
                        1324 	.type	_NvM_InternalCopyBufferedData,@function
                        1325 	.size	_NvM_InternalCopyBufferedData,.-_NvM_InternalCopyBufferedData
                        1326 	.type	_NvM_InternalCopyBufferedData..C.3A.5C_ECU2.5CECU_Rivian_A1.5CTarget.5Crepo_projects.5CpRealEcu.5CcL_LATEST.5Cmake.5Coutput.5Cobjects.5CNvM_Act.,@function
                        1327 	.size	_NvM_InternalCopyBufferedData..C.3A.5C_ECU2.5CECU_Rivian_A1.5CTarget.5Crepo_projects.5CpRealEcu.5CcL_LATEST.5Cmake.5Coutput.5Cobjects.5CNvM_Act.,.-_NvM_InternalCopyBufferedData..C.3A.5C_ECU2.5CECU_Rivian_A1.5CTarget.5Crepo_projects.5CpRealEcu.5CcL_LATEST.5Cmake.5Coutput.5Cobjects.5CNvM_Act.
                        1328 	.align	2
                        1329 --_descr_pt	ep	local
                        1330 --_destPtr	r7	local
                        1331 
                        1332 --_info_pt	r28	param
                        1333 --_srcPtr	r8	param
                        1334 
                        1335 	.section ".bss","awb"
                        1336 .L3416:
                        1337 	.type	.L3416,@object
                        1338 	.size	.L3416,0
                        1339 	.data
                        1340 	.text
                        1341 	.align	2
                        1342 	.align	2
                        1343 ..gh.f.f.1.e.19:
                        1344 	.type	..gh.f.f.1.e.19,@object
                        1345 	.size	..gh.f.f.1.e.19,0
                        1346 	.global	_NvM_UpdateConfigIdBlock..C.3A.5C_ECU2.5CECU_Rivian_A1.5CTarget.5Crepo_projects.5CpRealEcu.5CcL_LATEST.5Cmake.5Coutput.5Cobjects.5CNvM_Act.
                        1347 _NvM_UpdateConfigIdBlock..C.3A.5C_ECU2.5CECU_Rivian_A1.5CTarget.5Crepo_projects.5CpRealEcu.5CcL_LATEST.5Cmake.5Coutput.5Cobjects.5CNvM_Act.:
                        1348 _NvM_UpdateConfigIdBlock:
00000576 80076100       1349 	prepare	{r29,r31},0
                        1350 --	    .bf
                        1351 .LDW45:
0000057a 3d0600000000*  1352 	mov	_NvM_CurrentBlockInfo_t,r29
00000580 3df70100       1353 	ld.w	0[r29],ep
                        1354 --line1220
                        1355 ..lin.C.3A.5C_ECU2.5CECU_Rivian_A1.5CTarget.5Crepo_projects.5CpRealEcu.5CcL_LATEST.5Cmake.5Coutput.5Cobjects.5CNvM_Act.94::
                        1356 .LDWlin94:
00000584 1d30           1357 	mov	r29,r6
00000586 270600000000*  1358 	mov	_NvM_CompiledConfigId_t,r7
0000058c 7f88           1359 	sld.hu	30[ep],r17
0000058e 7d8f2200       1360 	st.h	r17,34[r29]
                        1361 	jarl	_NvM_InternalCopyBufferedData,lp
                        1361 <EXPANSION BEGIN>
                        1361 jarl22 _NvM_InternalCopyBufferedData , lp 
00000592 bfff94ff*      1361 <EXPANSION END>

                                                                      Page 25
                                                              C:\Users\nhuliyap\AppData\Local\Temp\gh_0000d3s1.s
                        1362 --line1222
                        1363 ..lin.C.3A.5C_ECU2.5CECU_Rivian_A1.5CTarget.5Crepo_projects.5CpRealEcu.5CcL_LATEST.5Cmake.5Coutput.5Cobjects.5CNvM_Act.95::
                        1364 .LDWlin95:
00000596 3d970500       1365 	ld.w	4[r29],r18
0000059a d20f0200       1366 	set1	1,2[r18]
0000059e d2070200       1367 	set1	0,2[r18]
                        1368 --	    .ef
                        1369 .LDW55:
000005a2 40067f00       1370 	dispose	0,{r29,r31},[lp]
                        1371 ___ghs_eofn_NvM_UpdateConfigIdBlock:
                        1372 	.type	_NvM_UpdateConfigIdBlock,@function
                        1373 	.size	_NvM_UpdateConfigIdBlock,.-_NvM_UpdateConfigIdBlock
                        1374 	.type	_NvM_UpdateConfigIdBlock..C.3A.5C_ECU2.5CECU_Rivian_A1.5CTarget.5Crepo_projects.5CpRealEcu.5CcL_LATEST.5Cmake.5Coutput.5Cobjects.5CNvM_Act.,@function
                        1375 	.size	_NvM_UpdateConfigIdBlock..C.3A.5C_ECU2.5CECU_Rivian_A1.5CTarget.5Crepo_projects.5CpRealEcu.5CcL_LATEST.5Cmake.5Coutput.5Cobjects.5CNvM_Act.,.-_NvM_UpdateConfigIdBlock..C.3A.5C_ECU2.5CECU_Rivian_A1.5CTarget.5Crepo_projects.5CpRealEcu.5CcL_LATEST.5Cmake.5Coutput.5Cobjects.5CNvM_Act.
                        1376 	.align	2
                        1377 
                        1378 	.section ".bss","awb"
                        1379 .L3537:
                        1380 	.type	.L3537,@object
                        1381 	.size	.L3537,0
                        1382 	.data
                        1383 	.text
                        1384 	.align	2
                        1385 	.align	2
                        1386 ..gh.f.f.1.e.20:
                        1387 	.type	..gh.f.f.1.e.20,@object
                        1388 	.size	..gh.f.f.1.e.20,0
                        1389 	.global	_NvM_ActFinishCfgIdCheck..C.3A.5C_ECU2.5CECU_Rivian_A1.5CTarget.5Crepo_projects.5CpRealEcu.5CcL_LATEST.5Cmake.5Coutput.5Cobjects.5CNvM_Act.
                        1390 _NvM_ActFinishCfgIdCheck..C.3A.5C_ECU2.5CECU_Rivian_A1.5CTarget.5Crepo_projects.5CpRealEcu.5CcL_LATEST.5Cmake.5Coutput.5Cobjects.5CNvM_Act.:
                        1391 _NvM_ActFinishCfgIdCheck:
                        1392 --	    .bf
                        1393 .LDW65:
000005a6 3e0600000000*  1394 	mov	_NvM_CurrentBlockInfo_t,ep
                        1395 --line561
                        1396 ..lin.C.3A.5C_ECU2.5CECU_Rivian_A1.5CTarget.5Crepo_projects.5CpRealEcu.5CcL_LATEST.5Cmake.5Coutput.5Cobjects.5CNvM_Act.96::
                        1397 .LDWlin96:
000005ac 9e872500       1398 	ld.bu	36[ep],r16
000005b0 deaf2600       1399 	clr1	5,38[ep]
000005b4 9e772700       1400 	ld.bu	38[ep],r14
000005b8 e081           1401 	cmp	zero,r16
000005ba 8a1d*          1402 	bne	.L3557
                        1403 --line563
                        1404 ..lin.C.3A.5C_ECU2.5CECU_Rivian_A1.5CTarget.5Crepo_projects.5CpRealEcu.5CcL_LATEST.5Cmake.5Coutput.5Cobjects.5CNvM_Act.97::
                        1405 .LDWlin97:
000005bc 048d           1406 	sld.w	8[ep],r17
000005be 2f0600000000*  1407 	mov	_NvM_CompiledConfigId_t,r15
000005c4 8f670100       1408 	ld.bu	0[r15],r12
000005c8 0192           1409 	mov	1,r18
000005ca 916f0100       1410 	ld.bu	0[r17],r13
000005ce ed61           1411 	cmp	r13,r12
000005d0 fa05*          1412 	bne	.L3589
000005d2 b15f0100       1413 	ld.bu	1[r17],r11
000005d6 af570100       1414 	ld.bu	1[r15],r10
000005da eb51           1415 	cmp	r11,r10
000005dc c20d*          1416 	be	.L3555
                        1417 .L3589:
                        1418 --line563
                        1419 ..lin.C.3A.5C_ECU2.5CECU_Rivian_A1.5CTarget.5Crepo_projects.5CpRealEcu.5CcL_LATEST.5Cmake.5Coutput.5Cobjects.5CNvM_Act.98::
                        1420 .LDWlin98:
000005de 8e4e2000       1421 	ori	32,r14,r9
000005e2 a493           1422 	sst.b	r18,36[ep]

                                                                      Page 26
                                                              C:\Users\nhuliyap\AppData\Local\Temp\gh_0000d3s1.s
000005e4 a64b           1423 	sst.b	r9,38[ep]
000005e6 bf0790ff*      1424 	jr	_NvM_UpdateConfigIdBlock
                        1425 .L3557:
                        1426 --line575
                        1427 ..lin.C.3A.5C_ECU2.5CECU_Rivian_A1.5CTarget.5Crepo_projects.5CpRealEcu.5CcL_LATEST.5Cmake.5Coutput.5Cobjects.5CNvM_Act.99::
                        1428 .LDWlin99:
000005ea 6582           1429 	cmp	5,r16
000005ec 0392           1430 	mov	3,r18
000005ee 8afd*          1431 	bne	.L3589
000005f0 bf0786ff*      1432 	jr	_NvM_UpdateConfigIdBlock
                        1433 .L3555:
                        1434 --	    .ef
                        1435 .LDW75:
                        1436 --line587
                        1437 ..lin.C.3A.5C_ECU2.5CECU_Rivian_A1.5CTarget.5Crepo_projects.5CpRealEcu.5CcL_LATEST.5Cmake.5Coutput.5Cobjects.5CNvM_Act.100::
                        1438 .LDWlin100:
000005f4 7f00           1439 	jmp	[lp]
                        1440 ___ghs_eofn_NvM_ActFinishCfgIdCheck:
                        1441 	.type	_NvM_ActFinishCfgIdCheck,@function
                        1442 	.size	_NvM_ActFinishCfgIdCheck,.-_NvM_ActFinishCfgIdCheck
                        1443 	.type	_NvM_ActFinishCfgIdCheck..C.3A.5C_ECU2.5CECU_Rivian_A1.5CTarget.5Crepo_projects.5CpRealEcu.5CcL_LATEST.5Cmake.5Coutput.5Cobjects.5CNvM_Act.,@function
                        1444 	.size	_NvM_ActFinishCfgIdCheck..C.3A.5C_ECU2.5CECU_Rivian_A1.5CTarget.5Crepo_projects.5CpRealEcu.5CcL_LATEST.5Cmake.5Coutput.5Cobjects.5CNvM_Act.,.-_NvM_ActFinishCfgIdCheck..C.3A.5C_ECU2.5CECU_Rivian_A1.5CTarget.5Crepo_projects.5CpRealEcu.5CcL_LATEST.5Cmake.5Coutput.5Cobjects.5CNvM_Act.
                        1445 	.align	2
                        1446 
                        1447 	.section ".bss","awb"
                        1448 .L3650:
                        1449 	.type	.L3650,@object
                        1450 	.size	.L3650,0
                        1451 	.data
                        1452 	.text
                        1453 	.align	2
                        1454 	.align	2
                        1455 ..gh.f.f.1.e.21:
                        1456 	.type	..gh.f.f.1.e.21,@object
                        1457 	.size	..gh.f.f.1.e.21,0
                        1458 	.global	_NvM_ActInitWriteAll..C.3A.5C_ECU2.5CECU_Rivian_A1.5CTarget.5Crepo_projects.5CpRealEcu.5CcL_LATEST.5Cmake.5Coutput.5Cobjects.5CNvM_Act.
                        1459 _NvM_ActInitWriteAll..C.3A.5C_ECU2.5CECU_Rivian_A1.5CTarget.5Crepo_projects.5CpRealEcu.5CcL_LATEST.5Cmake.5Coutput.5Cobjects.5CNvM_Act.:
                        1460 _NvM_ActInitWriteAll:
                        1461 --	    .bf
                        1462 .LDW85:
000005f6 320600000000*  1463 	mov	_NvM_CurrentBlockInfo_t,r18
000005fc d2a72600       1464 	clr1	4,38[r18]
                        1465 --line594
                        1466 ..lin.C.3A.5C_ECU2.5CECU_Rivian_A1.5CTarget.5Crepo_projects.5CpRealEcu.5CcL_LATEST.5Cmake.5Coutput.5Cobjects.5CNvM_Act.101::
                        1467 .LDWlin101:
00000600 0132           1468 	mov	1,r6
00000602 80070000*      1469 	jr	_MemIf_SetMode
                        1470 --	    .ef
                        1471 .LDW95:
                        1472 ___ghs_eofn_NvM_ActInitWriteAll:
                        1473 	.type	_NvM_ActInitWriteAll,@function
                        1474 	.size	_NvM_ActInitWriteAll,.-_NvM_ActInitWriteAll
                        1475 	.type	_NvM_ActInitWriteAll..C.3A.5C_ECU2.5CECU_Rivian_A1.5CTarget.5Crepo_projects.5CpRealEcu.5CcL_LATEST.5Cmake.5Coutput.5Cobjects.5CNvM_Act.,@function
                        1476 	.size	_NvM_ActInitWriteAll..C.3A.5C_ECU2.5CECU_Rivian_A1.5CTarget.5Crepo_projects.5CpRealEcu.5CcL_LATEST.5Cmake.5Coutput.5Cobjects.5CNvM_Act.,.-_NvM_ActInitWriteAll..C.3A.5C_ECU2.5CECU_Rivian_A1.5CTarget.5Crepo_projects.5CpRealEcu.5CcL_LATEST.5Cmake.5Coutput.5Cobjects.5CNvM_Act.
                        1477 	.align	2
                        1478 
                        1479 	.section ".bss","awb"
                        1480 .L3761:
                        1481 	.type	.L3761,@object
                        1482 	.size	.L3761,0
                        1483 	.data

                                                                      Page 27
                                                              C:\Users\nhuliyap\AppData\Local\Temp\gh_0000d3s1.s
                        1484 	.text
                        1485 	.align	2
                        1486 	.align	2
                        1487 ..gh.f.f.1.e.22:
                        1488 	.type	..gh.f.f.1.e.22,@object
                        1489 	.size	..gh.f.f.1.e.22,0
                        1490 	.global	_NvM_ActTestBlockBlank..C.3A.5C_ECU2.5CECU_Rivian_A1.5CTarget.5Crepo_projects.5CpRealEcu.5CcL_LATEST.5Cmake.5Coutput.5Cobjects.5CNvM_Act.
                        1491 _NvM_ActTestBlockBlank..C.3A.5C_ECU2.5CECU_Rivian_A1.5CTarget.5Crepo_projects.5CpRealEcu.5CcL_LATEST.5Cmake.5Coutput.5Cobjects.5CNvM_Act.:
                        1492 _NvM_ActTestBlockBlank:
00000606 8207e100       1493 	prepare	{r28,r29,r31},1
                        1494 --	    .bf
                        1495 .LDW06:
0000060a 3d0600000000*  1496 	mov	_NvM_CurrentBlockInfo_t,r29
00000610 3d370100       1497 	ld.w	0[r29],r6
00000614 fd3f2100       1498 	ld.hu	32[r29],r7
00000618 01e2           1499 	mov	1,r28
0000061a 0042           1500 	mov	0,r8
0000061c 86372300       1501 	ld.bu	34[r6],r6
00000620 63e70100       1502 	st.w	r28,0[sp]
00000624 290600000000*  1503 	mov	_NvM_TestBuffer_u8,r9
0000062a c6360f00       1504 	andi	15,r6,r6
                        1505 	jarl	_MemIf_Read,lp
                        1505 <EXPANSION BEGIN>
                        1505 jarl22 _MemIf_Read , lp 
0000062e 80ff0000*      1505 <EXPANSION END>
00000632 e051           1506 	cmp	zero,r10
                        1507 --line978
                        1508 ..lin.C.3A.5C_ECU2.5CECU_Rivian_A1.5CTarget.5Crepo_projects.5CpRealEcu.5CcL_LATEST.5Cmake.5Coutput.5Cobjects.5CNvM_Act.102::
                        1509 .LDWlin102:
00000634 e2e704e3       1510 	cmove	2,r28,r28
00000638 5de72400       1511 	st.b	r28,36[r29]
                        1512 --	    .ef
                        1513 .LDW16:
0000063c 4206ff00       1514 	dispose	1,{r28,r29,r31},[lp]
                        1515 ___ghs_eofn_NvM_ActTestBlockBlank:
                        1516 	.type	_NvM_ActTestBlockBlank,@function
                        1517 	.size	_NvM_ActTestBlockBlank,.-_NvM_ActTestBlockBlank
                        1518 	.type	_NvM_ActTestBlockBlank..C.3A.5C_ECU2.5CECU_Rivian_A1.5CTarget.5Crepo_projects.5CpRealEcu.5CcL_LATEST.5Cmake.5Coutput.5Cobjects.5CNvM_Act.,@function
                        1519 	.size	_NvM_ActTestBlockBlank..C.3A.5C_ECU2.5CECU_Rivian_A1.5CTarget.5Crepo_projects.5CpRealEcu.5CcL_LATEST.5Cmake.5Coutput.5Cobjects.5CNvM_Act.,.-_NvM_ActTestBlockBlank..C.3A.5C_ECU2.5CECU_Rivian_A1.5CTarget.5Crepo_projects.5CpRealEcu.5CcL_LATEST.5Cmake.5Coutput.5Cobjects.5CNvM_Act.
                        1520 	.align	2
                        1521 
                        1522 	.section ".bss","awb"
                        1523 .L3834:
                        1524 	.type	.L3834,@object
                        1525 	.size	.L3834,0
                        1526 	.data
                        1527 	.text
                        1528 	.align	2
                        1529 	.align	2
                        1530 ..gh.f.f.1.e.23:
                        1531 	.type	..gh.f.f.1.e.23,@object
                        1532 	.size	..gh.f.f.1.e.23,0
                        1533 	.global	_NvM_ActCopyNvDataToBuf..C.3A.5C_ECU2.5CECU_Rivian_A1.5CTarget.5Crepo_projects.5CpRealEcu.5CcL_LATEST.5Cmake.5Coutput.5Cobjects.5CNvM_Act.
                        1534 _NvM_ActCopyNvDataToBuf..C.3A.5C_ECU2.5CECU_Rivian_A1.5CTarget.5Crepo_projects.5CpRealEcu.5CcL_LATEST.5Cmake.5Coutput.5Cobjects.5CNvM_Act.:
                        1535 _NvM_ActCopyNvDataToBuf:
00000640 8007fb000000*  1536 	prepare	{r28,r29,r31},0,_NvM_CurrentJob_t
00000646 0000*
                        1537 --	    .bf
                        1538 .LDW26:
00000648 3d0600000000*  1539 	mov	_NvM_CurrentBlockInfo_t,r29
                        1540 --line1009

                                                                      Page 28
                                                              C:\Users\nhuliyap\AppData\Local\Temp\gh_0000d3s1.s
                        1541 ..lin.C.3A.5C_ECU2.5CECU_Rivian_A1.5CTarget.5Crepo_projects.5CpRealEcu.5CcL_LATEST.5Cmake.5Coutput.5Cobjects.5CNvM_Act.103::
                        1542 .LDWlin103:
0000064e fd9f2300       1543 	ld.hu	34[r29],r19
00000652 e099           1544 	cmp	zero,r19
00000654 822d*          1545 	be	.L3865
00000656 3d8f0100       1546 	ld.w	0[r29],r17
0000065a 1d30           1547 	mov	r29,r6
                        1548 --line1012
                        1549 ..lin.C.3A.5C_ECU2.5CECU_Rivian_A1.5CTarget.5Crepo_projects.5CpRealEcu.5CcL_LATEST.5Cmake.5Coutput.5Cobjects.5CNvM_Act.104::
                        1550 .LDWlin104:
0000065c 31e71500       1551 	ld.w	20[r17],r28
00000660 e0e1           1552 	cmp	zero,r28
00000662 d20d*          1553 	be	.L3867
00000664 0295           1554 	sld.w	4[ep],r18
00000666 e091           1555 	cmp	zero,r18
00000668 aa0d*          1556 	bne	.L3867
                        1557 --line1014
                        1558 ..lin.C.3A.5C_ECU2.5CECU_Rivian_A1.5CTarget.5Crepo_projects.5CpRealEcu.5CcL_LATEST.5Cmake.5Coutput.5Cobjects.5CNvM_Act.105::
                        1559 .LDWlin105:
0000066a 260600000000*  1560 	mov	_NvM_InternalBuffer_au8,r6
00000670 fcc760f9       1561 	jarl	[r28],lp
00000674 e051           1562 	cmp	zero,r10
00000676 b215*          1563 	be	.L3873
                        1564 --	    .ef
                        1565 .LDW36:
                        1566 --line1039
                        1567 ..lin.C.3A.5C_ECU2.5CECU_Rivian_A1.5CTarget.5Crepo_projects.5CpRealEcu.5CcL_LATEST.5Cmake.5Coutput.5Cobjects.5CNvM_Act.106::
                        1568 .LDWlin106:
00000678 4006ff00       1569 	dispose	0,{r28,r29,r31},[lp]
                        1570 .L3867:
                        1571 --line1020
                        1572 ..lin.C.3A.5C_ECU2.5CECU_Rivian_A1.5CTarget.5Crepo_projects.5CpRealEcu.5CcL_LATEST.5Cmake.5Coutput.5Cobjects.5CNvM_Act.107::
                        1573 .LDWlin107:
0000067c 91972300       1574 	ld.bu	34[r17],r18
00000680 d206c000       1575 	andi	192,r18,zero
00000684 c20d*          1576 	be	.L3873
                        1577 --	    .bs
                        1578 .LDW46:
                        1579 --line1022
                        1580 ..lin.C.3A.5C_ECU2.5CECU_Rivian_A1.5CTarget.5Crepo_projects.5CpRealEcu.5CcL_LATEST.5Cmake.5Coutput.5Cobjects.5CNvM_Act.108::
                        1581 .LDWlin108:
00000686 0245           1582 	sld.w	4[ep],r8
00000688 e041           1583 	cmp	zero,r8
0000068a ba05*          1584 	bne	.L3877
0000068c 31470100       1585 	ld.w	0[r17],r8
                        1586 .L3877:
                        1587 --line1025
                        1588 ..lin.C.3A.5C_ECU2.5CECU_Rivian_A1.5CTarget.5Crepo_projects.5CpRealEcu.5CcL_LATEST.5Cmake.5Coutput.5Cobjects.5CNvM_Act.109::
                        1589 .LDWlin109:
00000690 3d3f0900       1590 	ld.w	8[r29],r7
                        1591 	jarl	_NvM_InternalCopyData,lp
                        1591 <EXPANSION BEGIN>
                        1591 jarl22 _NvM_InternalCopyData , lp 
00000694 bfff56fe*      1591 <EXPANSION END>
                        1592 --	    .es
                        1593 .LDW56:
                        1594 --line1025
                        1595 ..lin.C.3A.5C_ECU2.5CECU_Rivian_A1.5CTarget.5Crepo_projects.5CpRealEcu.5CcL_LATEST.5Cmake.5Coutput.5Cobjects.5CNvM_Act.110::
                        1596 .LDWlin110:
00000698 4006ff00       1597 	dispose	0,{r28,r29,r31},[lp]
                        1598 .L3873:

                                                                      Page 29
                                                              C:\Users\nhuliyap\AppData\Local\Temp\gh_0000d3s1.s
                        1599 --line1029
                        1600 ..lin.C.3A.5C_ECU2.5CECU_Rivian_A1.5CTarget.5Crepo_projects.5CpRealEcu.5CcL_LATEST.5Cmake.5Coutput.5Cobjects.5CNvM_Act.111::
                        1601 .LDWlin111:
0000069c 7d072200       1602 	st.h	zero,34[r29]
000006a0 4006ff00       1603 	dispose	0,{r28,r29,r31},[lp]
                        1604 .L3865:
                        1605 --line1037
                        1606 ..lin.C.3A.5C_ECU2.5CECU_Rivian_A1.5CTarget.5Crepo_projects.5CpRealEcu.5CcL_LATEST.5Cmake.5Coutput.5Cobjects.5CNvM_Act.112::
                        1607 .LDWlin112:
000006a4 403e0000*      1608 	movhi	hi(_NvM_NoOfCrcBytes_u16),zero,r7
000006a8 e73f0100*      1609 	ld.hu	lo(_NvM_NoOfCrcBytes_u16)[r7],r7
000006ac 1d360c00       1610 	addi	12,r29,r6
                        1611 	jarl	_NvM_CrcJob_Process,lp
                        1611 <EXPANSION BEGIN>
                        1611 jarl22 _NvM_CrcJob_Process , lp 
000006b0 80ff0000*      1611 <EXPANSION END>
000006b4 4006ff00       1612 	dispose	0,{r28,r29,r31},[lp]
                        1613 ___ghs_eofn_NvM_ActCopyNvDataToBuf:
                        1614 	.type	_NvM_ActCopyNvDataToBuf,@function
                        1615 	.size	_NvM_ActCopyNvDataToBuf,.-_NvM_ActCopyNvDataToBuf
                        1616 	.type	_NvM_ActCopyNvDataToBuf..C.3A.5C_ECU2.5CECU_Rivian_A1.5CTarget.5Crepo_projects.5CpRealEcu.5CcL_LATEST.5Cmake.5Coutput.5Cobjects.5CNvM_Act.,@function
                        1617 	.size	_NvM_ActCopyNvDataToBuf..C.3A.5C_ECU2.5CECU_Rivian_A1.5CTarget.5Crepo_projects.5CpRealEcu.5CcL_LATEST.5Cmake.5Coutput.5Cobjects.5CNvM_Act.,.-_NvM_ActCopyNvDataToBuf..C.3A.5C_ECU2.5CECU_Rivian_A1.5CTarget.5Crepo_projects.5CpRealEcu.5CcL_LATEST.5Cmake.5Coutput.5Cobjects.5CNvM_Act.
                        1618 	.align	2
                        1619 --_descr_pt	r17	local
                        1620 --_ramAddr	r8	local
                        1621 
                        1622 	.section ".bss","awb"
                        1623 .L3970:
                        1624 	.type	.L3970,@object
                        1625 	.size	.L3970,0
                        1626 	.data
                        1627 	.text
                        1628 	.align	2
                        1629 	.align	2
                        1630 ..gh.f.f.1.e.24:
                        1631 	.type	..gh.f.f.1.e.24,@object
                        1632 	.size	..gh.f.f.1.e.24,0
                        1633 	.global	_NvM_ActInitWriteBlock..C.3A.5C_ECU2.5CECU_Rivian_A1.5CTarget.5Crepo_projects.5CpRealEcu.5CcL_LATEST.5Cmake.5Coutput.5Cobjects.5CNvM_Act.
                        1634 _NvM_ActInitWriteBlock..C.3A.5C_ECU2.5CECU_Rivian_A1.5CTarget.5Crepo_projects.5CpRealEcu.5CcL_LATEST.5Cmake.5Coutput.5Cobjects.5CNvM_Act.:
                        1635 _NvM_ActInitWriteBlock:
000006b8 8007e100       1636 	prepare	{r28,r29,r31},0
                        1637 --	    .bf
                        1638 .LDW66:
000006bc 3d0600000000*  1639 	mov	_NvM_CurrentBlockInfo_t,r29
000006c2 1df0           1640 	mov	r29,ep
                        1641 --line601
                        1642 ..lin.C.3A.5C_ECU2.5CECU_Rivian_A1.5CTarget.5Crepo_projects.5CpRealEcu.5CcL_LATEST.5Cmake.5Coutput.5Cobjects.5CNvM_Act.113::
                        1643 .LDWlin113:
000006c4 0095           1644 	sld.w	0[ep],r18
000006c6 a503           1645 	sst.b	zero,37[ep]
000006c8 d2e72200       1646 	tst1	4,34[r18]
000006cc b205*          1647 	be	.L4082
                        1648 --line604
                        1649 ..lin.C.3A.5C_ECU2.5CECU_Rivian_A1.5CTarget.5Crepo_projects.5CpRealEcu.5CcL_LATEST.5Cmake.5Coutput.5Cobjects.5CNvM_Act.114::
                        1650 .LDWlin114:
                        1651 	jarl	_NvM_ActTestBlockBlank,lp
                        1651 <EXPANSION BEGIN>
                        1651 jarl22 _NvM_ActTestBlockBlank , lp 
000006ce bfff38ff*      1651 <EXPANSION END>
                        1652 .L4082:
                        1653 --line608

                                                                      Page 30
                                                              C:\Users\nhuliyap\AppData\Local\Temp\gh_0000d3s1.s
                        1654 ..lin.C.3A.5C_ECU2.5CECU_Rivian_A1.5CTarget.5Crepo_projects.5CpRealEcu.5CcL_LATEST.5Cmake.5Coutput.5Cobjects.5CNvM_Act.115::
                        1655 .LDWlin115:
000006d2 3df70100       1656 	ld.w	0[r29],ep
000006d6 403e0000*      1657 	movhi	hi(_NvM_CurrentJob_t),zero,r7
000006da e73f0100*      1658 	ld.hu	lo(_NvM_CurrentJob_t)[r7],r7
000006de 1de60c00       1659 	addi	12,r29,r28
000006e2 7f80           1660 	sld.hu	30[ep],r16
000006e4 1df0           1661 	mov	r29,ep
000006e6 0445           1662 	sld.w	8[ep],r8
000006e8 1c30           1663 	mov	r28,r6
000006ea 9184           1664 	sst.h	r16,34[ep]
                        1665 	jarl	_NvM_CrcJob_Create,lp
                        1665 <EXPANSION BEGIN>
                        1665 jarl22 _NvM_CrcJob_Create , lp 
000006ec 80ff0000*      1665 <EXPANSION END>
                        1666 --line615
                        1667 ..lin.C.3A.5C_ECU2.5CECU_Rivian_A1.5CTarget.5Crepo_projects.5CpRealEcu.5CcL_LATEST.5Cmake.5Coutput.5Cobjects.5CNvM_Act.116::
                        1668 .LDWlin116:
                        1669 	jarl	_NvM_ActCopyNvDataToBuf,lp
                        1669 <EXPANSION BEGIN>
                        1669 jarl22 _NvM_ActCopyNvDataToBuf , lp 
000006f0 bfff50ff*      1669 <EXPANSION END>
                        1670 --line619
                        1671 ..lin.C.3A.5C_ECU2.5CECU_Rivian_A1.5CTarget.5Crepo_projects.5CpRealEcu.5CcL_LATEST.5Cmake.5Coutput.5Cobjects.5CNvM_Act.117::
                        1672 .LDWlin117:
000006f4 3df70100       1673 	ld.w	0[r29],ep
000006f8 1c30           1674 	mov	r28,r6
000006fa 0c3d           1675 	sld.w	24[ep],r7
                        1676 	jarl	_NvM_CrcJob_ImportBufferedValue,lp
                        1676 <EXPANSION BEGIN>
                        1676 jarl22 _NvM_CrcJob_ImportBufferedValue , lp 
000006fc 80ff0000*      1676 <EXPANSION END>
                        1677 --	    .ef
                        1678 .LDW76:
                        1679 --line621
                        1680 ..lin.C.3A.5C_ECU2.5CECU_Rivian_A1.5CTarget.5Crepo_projects.5CpRealEcu.5CcL_LATEST.5Cmake.5Coutput.5Cobjects.5CNvM_Act.118::
                        1681 .LDWlin118:
00000700 4006ff00       1682 	dispose	0,{r28,r29,r31},[lp]
                        1683 ___ghs_eofn_NvM_ActInitWriteBlock:
                        1684 	.type	_NvM_ActInitWriteBlock,@function
                        1685 	.size	_NvM_ActInitWriteBlock,.-_NvM_ActInitWriteBlock
                        1686 	.type	_NvM_ActInitWriteBlock..C.3A.5C_ECU2.5CECU_Rivian_A1.5CTarget.5Crepo_projects.5CpRealEcu.5CcL_LATEST.5Cmake.5Coutput.5Cobjects.5CNvM_Act.,@function
                        1687 	.size	_NvM_ActInitWriteBlock..C.3A.5C_ECU2.5CECU_Rivian_A1.5CTarget.5Crepo_projects.5CpRealEcu.5CcL_LATEST.5Cmake.5Coutput.5Cobjects.5CNvM_Act.,.-_NvM_ActInitWriteBlock..C.3A.5C_ECU2.5CECU_Rivian_A1.5CTarget.5Crepo_projects.5CpRealEcu.5CcL_LATEST.5Cmake.5Coutput.5Cobjects.5CNvM_Act.
                        1688 	.align	2
                        1689 
                        1690 	.section ".bss","awb"
                        1691 .L4123:
                        1692 	.type	.L4123,@object
                        1693 	.size	.L4123,0
                        1694 	.data
                        1695 	.text
                        1696 	.align	2
                        1697 	.align	2
                        1698 ..gh.f.f.1.e.25:
                        1699 	.type	..gh.f.f.1.e.25,@object
                        1700 	.size	..gh.f.f.1.e.25,0
                        1701 	.global	_NvM_ActFinishEraseBlock..C.3A.5C_ECU2.5CECU_Rivian_A1.5CTarget.5Crepo_projects.5CpRealEcu.5CcL_LATEST.5Cmake.5Coutput.5Cobjects.5CNvM_Act.
                        1702 _NvM_ActFinishEraseBlock..C.3A.5C_ECU2.5CECU_Rivian_A1.5CTarget.5Crepo_projects.5CpRealEcu.5CcL_LATEST.5Cmake.5Coutput.5Cobjects.5CNvM_Act.:
                        1703 _NvM_ActFinishEraseBlock:
                        1704 --	    .bf
                        1705 .LDW86:

                                                                      Page 31
                                                              C:\Users\nhuliyap\AppData\Local\Temp\gh_0000d3s1.s
00000704 3e0600000000*  1706 	mov	_NvM_CurrentBlockInfo_t+36,ep
0000070a 6090           1707 	sld.bu	0[ep],r18
0000070c e091           1708 	cmp	zero,r18
0000070e b205*          1709 	be	.L4161
                        1710 --line629
                        1711 ..lin.C.3A.5C_ECU2.5CECU_Rivian_A1.5CTarget.5Crepo_projects.5CpRealEcu.5CcL_LATEST.5Cmake.5Coutput.5Cobjects.5CNvM_Act.119::
                        1712 .LDWlin119:
00000710 018a           1713 	mov	1,r17
00000712 808b           1714 	sst.b	r17,0[ep]
                        1715 .L4161:
00000714 0132           1716 	mov	1,r6
00000716 bf07bcfb*      1717 	jr	_NvM_IntUpdateCurrentBlockNVRAMStatus
                        1718 --	    .ef
                        1719 .LDW96:
                        1720 ___ghs_eofn_NvM_ActFinishEraseBlock:
                        1721 	.type	_NvM_ActFinishEraseBlock,@function
                        1722 	.size	_NvM_ActFinishEraseBlock,.-_NvM_ActFinishEraseBlock
                        1723 	.type	_NvM_ActFinishEraseBlock..C.3A.5C_ECU2.5CECU_Rivian_A1.5CTarget.5Crepo_projects.5CpRealEcu.5CcL_LATEST.5Cmake.5Coutput.5Cobjects.5CNvM_Act.,@function
                        1724 	.size	_NvM_ActFinishEraseBlock..C.3A.5C_ECU2.5CECU_Rivian_A1.5CTarget.5Crepo_projects.5CpRealEcu.5CcL_LATEST.5Cmake.5Coutput.5Cobjects.5CNvM_Act.,.-_NvM_ActFinishEraseBlock..C.3A.5C_ECU2.5CECU_Rivian_A1.5CTarget.5Crepo_projects.5CpRealEcu.5CcL_LATEST.5Cmake.5Coutput.5Cobjects.5CNvM_Act.
                        1725 	.align	2
                        1726 
                        1727 	.section ".bss","awb"
                        1728 .L4203:
                        1729 	.type	.L4203,@object
                        1730 	.size	.L4203,0
                        1731 	.data
                        1732 	.text
                        1733 	.align	2
                        1734 	.align	2
                        1735 ..gh.f.f.1.e.26:
                        1736 	.type	..gh.f.f.1.e.26,@object
                        1737 	.size	..gh.f.f.1.e.26,0
                        1738 	.global	_NvM_ActInitWriteBlockFsm..C.3A.5C_ECU2.5CECU_Rivian_A1.5CTarget.5Crepo_projects.5CpRealEcu.5CcL_LATEST.5Cmake.5Coutput.5Cobjects.5CNvM_Act.
                        1739 _NvM_ActInitWriteBlockFsm..C.3A.5C_ECU2.5CECU_Rivian_A1.5CTarget.5Crepo_projects.5CpRealEcu.5CcL_LATEST.5Cmake.5Coutput.5Cobjects.5CNvM_Act.:
                        1740 _NvM_ActInitWriteBlockFsm:
0000071a 80077b000000*  1741 	prepare	{r29,r31},0,_NvM_IntServiceDescrTable_at
00000720 0000*
                        1742 --	    .bf
                        1743 .LDW07:
00000722 6190           1744 	sld.bu	1[ep],r18
00000724 405e0000*      1745 	movhi	hi(_NvM_JobSubState_t),zero,r11
                        1746 --line658
                        1747 ..lin.C.3A.5C_ECU2.5CECU_Rivian_A1.5CTarget.5Crepo_projects.5CpRealEcu.5CcL_LATEST.5Cmake.5Coutput.5Cobjects.5CNvM_Act.120::
                        1748 .LDWlin120:
00000728 310600000000*  1749 	mov	_NvM_ActionTable_ap,r17
0000072e 4b970000*      1750 	st.b	r18,lo(_NvM_JobSubState_t)[r11]
00000732 60f0           1751 	sld.bu	0[ep],ep
00000734 c2f2           1752 	shl	2,ep
00000736 d1f1           1753 	add	r17,ep
00000738 00ed           1754 	sld.w	0[ep],r29
0000073a fdc760f9       1755 	jarl	[r29],lp
                        1756 --	    .ef
                        1757 .LDW17:
                        1758 --line659
                        1759 ..lin.C.3A.5C_ECU2.5CECU_Rivian_A1.5CTarget.5Crepo_projects.5CpRealEcu.5CcL_LATEST.5Cmake.5Coutput.5Cobjects.5CNvM_Act.121::
                        1760 .LDWlin121:
0000073e 40067f00       1761 	dispose	0,{r29,r31},[lp]
                        1762 ___ghs_eofn_NvM_ActInitWriteBlockFsm:
                        1763 	.type	_NvM_ActInitWriteBlockFsm,@function
                        1764 	.size	_NvM_ActInitWriteBlockFsm,.-_NvM_ActInitWriteBlockFsm
                        1765 	.type	_NvM_ActInitWriteBlockFsm..C.3A.5C_ECU2.5CECU_Rivian_A1.5CTarget.5Crepo_projects.5CpRealEcu.5CcL_LATEST.5Cmake.5Coutput.5Cobjects.5CNvM_Act.,@function

                                                                      Page 32
                                                              C:\Users\nhuliyap\AppData\Local\Temp\gh_0000d3s1.s
                        1766 	.size	_NvM_ActInitWriteBlockFsm..C.3A.5C_ECU2.5CECU_Rivian_A1.5CTarget.5Crepo_projects.5CpRealEcu.5CcL_LATEST.5Cmake.5Coutput.5Cobjects.5CNvM_Act.,.-_NvM_ActInitWriteBlockFsm..C.3A.5C_ECU2.5CECU_Rivian_A1.5CTarget.5Crepo_projects.5CpRealEcu.5CcL_LATEST.5Cmake.5Coutput.5Cobjects.5CNvM_Act.
                        1767 	.align	2
                        1768 
                        1769 	.section ".bss","awb"
                        1770 .L4273:
                        1771 	.type	.L4273,@object
                        1772 	.size	.L4273,0
                        1773 	.data
                        1774 	.text
                        1775 	.align	2
                        1776 	.align	2
                        1777 ..gh.f.f.1.e.27:
                        1778 	.type	..gh.f.f.1.e.27,@object
                        1779 	.size	..gh.f.f.1.e.27,0
                        1780 	.global	_NvM_ActInitRestoreBlockDefaults..C.3A.5C_ECU2.5CECU_Rivian_A1.5CTarget.5Crepo_projects.5CpRealEcu.5CcL_LATEST.5Cmake.5Coutput.5Cobjects.5CNvM_Act.
                        1781 _NvM_ActInitRestoreBlockDefaults..C.3A.5C_ECU2.5CECU_Rivian_A1.5CTarget.5Crepo_projects.5CpRealEcu.5CcL_LATEST.5Cmake.5Coutput.5Cobjects.5CNvM_Act.:
                        1782 _NvM_ActInitRestoreBlockDefaults:
                        1783 --	    .bf
                        1784 .LDW27:
00000742 3e0600000000*  1785 	mov	_NvM_CurrentBlockInfo_t,ep
00000748 008d           1786 	sld.w	0[ep],r17
0000074a f18f1f00       1787 	ld.hu	30[r17],r17
0000074e 918c           1788 	sst.h	r17,34[ep]
                        1789 --	    .ef
                        1790 .LDW37:
                        1791 --line664
                        1792 ..lin.C.3A.5C_ECU2.5CECU_Rivian_A1.5CTarget.5Crepo_projects.5CpRealEcu.5CcL_LATEST.5Cmake.5Coutput.5Cobjects.5CNvM_Act.122::
                        1793 .LDWlin122:
00000750 7f00           1794 	jmp	[lp]
                        1795 ___ghs_eofn_NvM_ActInitRestoreBlockDefaults:
                        1796 	.type	_NvM_ActInitRestoreBlockDefaults,@function
                        1797 	.size	_NvM_ActInitRestoreBlockDefaults,.-_NvM_ActInitRestoreBlockDefaults
                        1798 	.type	_NvM_ActInitRestoreBlockDefaults..C.3A.5C_ECU2.5CECU_Rivian_A1.5CTarget.5Crepo_projects.5CpRealEcu.5CcL_LATEST.5Cmake.5Coutput.5Cobjects.5CNvM_Act.,@function
                        1799 	.size	_NvM_ActInitRestoreBlockDefaults..C.3A.5C_ECU2.5CECU_Rivian_A1.5CTarget.5Crepo_projects.5CpRealEcu.5CcL_LATEST.5Cmake.5Coutput.5Cobjects.5CNvM_Act.,.-_NvM_ActInitRestoreBlockDefaults..C.3A.5C_ECU2.5CECU_Rivian_A1.5CTarget.5Crepo_projects.5CpRealEcu.5CcL_LATEST.5Cmake.5Coutput.5Cobjects.5CNvM_Act.
                        1800 	.align	2
                        1801 
                        1802 	.section ".bss","awb"
                        1803 .L4321:
                        1804 	.type	.L4321,@object
                        1805 	.size	.L4321,0
                        1806 	.data
                        1807 	.text
                        1808 	.align	2
                        1809 	.align	2
                        1810 ..gh.f.f.1.e.28:
                        1811 	.type	..gh.f.f.1.e.28,@object
                        1812 	.size	..gh.f.f.1.e.28,0
                        1813 	.global	_NvM_ActInvalidateNvBlock..C.3A.5C_ECU2.5CECU_Rivian_A1.5CTarget.5Crepo_projects.5CpRealEcu.5CcL_LATEST.5Cmake.5Coutput.5Cobjects.5CNvM_Act.
                        1814 _NvM_ActInvalidateNvBlock..C.3A.5C_ECU2.5CECU_Rivian_A1.5CTarget.5Crepo_projects.5CpRealEcu.5CcL_LATEST.5Cmake.5Coutput.5Cobjects.5CNvM_Act.:
                        1815 _NvM_ActInvalidateNvBlock:
00000752 8007e100       1816 	prepare	{r28,r29,r31},0
                        1817 --	    .bf
                        1818 .LDW47:
00000756 3d0600000000*  1819 	mov	_NvM_CurrentBlockInfo_t,r29
0000075c 3d370100       1820 	ld.w	0[r29],r6
00000760 fd3f2100       1821 	ld.hu	32[r29],r7
00000764 02e2           1822 	mov	2,r28
00000766 86372300       1823 	ld.bu	34[r6],r6
0000076a c6360f00       1824 	andi	15,r6,r6
                        1825 	jarl	_MemIf_InvalidateBlock,lp
                        1825 <EXPANSION BEGIN>

                                                                      Page 33
                                                              C:\Users\nhuliyap\AppData\Local\Temp\gh_0000d3s1.s
                        1825 jarl22 _MemIf_InvalidateBlock , lp 
0000076e 80ff0000*      1825 <EXPANSION END>
00000772 e051           1826 	cmp	zero,r10
                        1827 --line672
                        1828 ..lin.C.3A.5C_ECU2.5CECU_Rivian_A1.5CTarget.5Crepo_projects.5CpRealEcu.5CcL_LATEST.5Cmake.5Coutput.5Cobjects.5CNvM_Act.123::
                        1829 .LDWlin123:
00000774 e1e714e3       1830 	cmovne	1,r28,r28
00000778 5de72400       1831 	st.b	r28,36[r29]
                        1832 --	    .ef
                        1833 .LDW57:
0000077c 4006ff00       1834 	dispose	0,{r28,r29,r31},[lp]
                        1835 ___ghs_eofn_NvM_ActInvalidateNvBlock:
                        1836 	.type	_NvM_ActInvalidateNvBlock,@function
                        1837 	.size	_NvM_ActInvalidateNvBlock,.-_NvM_ActInvalidateNvBlock
                        1838 	.type	_NvM_ActInvalidateNvBlock..C.3A.5C_ECU2.5CECU_Rivian_A1.5CTarget.5Crepo_projects.5CpRealEcu.5CcL_LATEST.5Cmake.5Coutput.5Cobjects.5CNvM_Act.,@function
                        1839 	.size	_NvM_ActInvalidateNvBlock..C.3A.5C_ECU2.5CECU_Rivian_A1.5CTarget.5Crepo_projects.5CpRealEcu.5CcL_LATEST.5Cmake.5Coutput.5Cobjects.5CNvM_Act.,.-_NvM_ActInvalidateNvBlock..C.3A.5C_ECU2.5CECU_Rivian_A1.5CTarget.5Crepo_projects.5CpRealEcu.5CcL_LATEST.5Cmake.5Coutput.5Cobjects.5CNvM_Act.
                        1840 	.align	2
                        1841 
                        1842 	.section ".bss","awb"
                        1843 .L4394:
                        1844 	.type	.L4394,@object
                        1845 	.size	.L4394,0
                        1846 	.data
                        1847 	.text
                        1848 	.align	2
                        1849 	.align	2
                        1850 ..gh.f.f.1.e.29:
                        1851 	.type	..gh.f.f.1.e.29,@object
                        1852 	.size	..gh.f.f.1.e.29,0
                        1853 	.global	_NvM_ActNop..C.3A.5C_ECU2.5CECU_Rivian_A1.5CTarget.5Crepo_projects.5CpRealEcu.5CcL_LATEST.5Cmake.5Coutput.5Cobjects.5CNvM_Act.
                        1854 _NvM_ActNop..C.3A.5C_ECU2.5CECU_Rivian_A1.5CTarget.5Crepo_projects.5CpRealEcu.5CcL_LATEST.5Cmake.5Coutput.5Cobjects.5CNvM_Act.:
                        1855 _NvM_ActNop:
                        1856 --	    .bf
                        1857 .LDW67:
                        1858 --	    .ef
                        1859 .LDW77:
00000780 7f00           1860 	jmp	[lp]
                        1861 ___ghs_eofn_NvM_ActNop:
                        1862 	.type	_NvM_ActNop,@function
                        1863 	.size	_NvM_ActNop,.-_NvM_ActNop
                        1864 	.type	_NvM_ActNop..C.3A.5C_ECU2.5CECU_Rivian_A1.5CTarget.5Crepo_projects.5CpRealEcu.5CcL_LATEST.5Cmake.5Coutput.5Cobjects.5CNvM_Act.,@function
                        1865 	.size	_NvM_ActNop..C.3A.5C_ECU2.5CECU_Rivian_A1.5CTarget.5Crepo_projects.5CpRealEcu.5CcL_LATEST.5Cmake.5Coutput.5Cobjects.5CNvM_Act.,.-_NvM_ActNop..C.3A.5C_ECU2.5CECU_Rivian_A1.5CTarget.5Crepo_projects.5CpRealEcu.5CcL_LATEST.5Cmake.5Coutput.5Cobjects.5CNvM_Act.
                        1866 	.align	2
                        1867 
                        1868 	.section ".bss","awb"
                        1869 .L4448:
                        1870 	.type	.L4448,@object
                        1871 	.size	.L4448,0
                        1872 	.data
                        1873 	.text
                        1874 	.align	2
                        1875 	.align	2
                        1876 ..gh.f.f.1.e.30:
                        1877 	.type	..gh.f.f.1.e.30,@object
                        1878 	.size	..gh.f.f.1.e.30,0
                        1879 	.global	_NvM_ActWriteNvBlock..C.3A.5C_ECU2.5CECU_Rivian_A1.5CTarget.5Crepo_projects.5CpRealEcu.5CcL_LATEST.5Cmake.5Coutput.5Cobjects.5CNvM_Act.
                        1880 _NvM_ActWriteNvBlock..C.3A.5C_ECU2.5CECU_Rivian_A1.5CTarget.5Crepo_projects.5CpRealEcu.5CcL_LATEST.5Cmake.5Coutput.5Cobjects.5CNvM_Act.:
                        1881 _NvM_ActWriteNvBlock:
00000782 8007e130       1882 	prepare	{r26,r27,r28,r29,r31},0
                        1883 --	    .bf
                        1884 .LDW87:

                                                                      Page 34
                                                              C:\Users\nhuliyap\AppData\Local\Temp\gh_0000d3s1.s
00000786 3d0600000000*  1885 	mov	_NvM_CurrentBlockInfo_t,r29
                        1886 --line688
                        1887 ..lin.C.3A.5C_ECU2.5CECU_Rivian_A1.5CTarget.5Crepo_projects.5CpRealEcu.5CcL_LATEST.5Cmake.5Coutput.5Cobjects.5CNvM_Act.124::
                        1888 .LDWlin124:
0000078c bd972500       1889 	ld.bu	37[r29],r18
00000790 1df0           1890 	mov	r29,ep
00000792 04d5           1891 	sld.w	8[ep],r26
00000794 0132           1892 	mov	1,r6
00000796 4192           1893 	add	1,r18
00000798 a593           1894 	sst.b	r18,37[ep]
                        1895 	jarl	_NvM_IntUpdateCurrentBlockNVRAMStatus,lp
                        1895 <EXPANSION BEGIN>
                        1895 jarl22 _NvM_IntUpdateCurrentBlockNVRAMStatus , lp 
0000079a bfff38fb*      1895 <EXPANSION END>
                        1896 --line692
                        1897 ..lin.C.3A.5C_ECU2.5CECU_Rivian_A1.5CTarget.5Crepo_projects.5CpRealEcu.5CcL_LATEST.5Cmake.5Coutput.5Cobjects.5CNvM_Act.125::
                        1898 .LDWlin125:
0000079e 1de60c00       1899 	addi	12,r29,r28
000007a2 1c30           1900 	mov	r28,r6
                        1901 	jarl	_NvM_CrcJob_CopyToBuffer,lp
                        1901 <EXPANSION BEGIN>
                        1901 jarl22 _NvM_CrcJob_CopyToBuffer , lp 
000007a4 80ff0000*      1901 <EXPANSION END>
                        1902 --line696
                        1903 ..lin.C.3A.5C_ECU2.5CECU_Rivian_A1.5CTarget.5Crepo_projects.5CpRealEcu.5CcL_LATEST.5Cmake.5Coutput.5Cobjects.5CNvM_Act.126::
                        1904 .LDWlin126:
000007a8 3b0600000000*  1905 	mov	_NvM_CurrentJob_t,r27
000007ae 3b970500       1906 	ld.w	4[r27],r18
000007b2 e091           1907 	cmp	zero,r18
000007b4 fa05*          1908 	bne	.L4465
                        1909 --line698
                        1910 ..lin.C.3A.5C_ECU2.5CECU_Rivian_A1.5CTarget.5Crepo_projects.5CpRealEcu.5CcL_LATEST.5Cmake.5Coutput.5Cobjects.5CNvM_Act.127::
                        1911 .LDWlin127:
000007b6 3df70100       1912 	ld.w	0[r29],ep
000007ba 1c30           1913 	mov	r28,r6
000007bc 0c3d           1914 	sld.w	24[ep],r7
                        1915 	jarl	_NvM_CrcJob_ExportBufferedValue,lp
                        1915 <EXPANSION BEGIN>
                        1915 jarl22 _NvM_CrcJob_ExportBufferedValue , lp 
000007be 80ff0000*      1915 <EXPANSION END>
                        1916 .L4465:
                        1917 --line705
                        1918 ..lin.C.3A.5C_ECU2.5CECU_Rivian_A1.5CTarget.5Crepo_projects.5CpRealEcu.5CcL_LATEST.5Cmake.5Coutput.5Cobjects.5CNvM_Act.128::
                        1919 .LDWlin128:
                        1920 	jarl	_NvM_EnterCriticalSection,lp
                        1920 <EXPANSION BEGIN>
                        1920 jarl22 _NvM_EnterCriticalSection , lp 
000007c2 80ff0000*      1920 <EXPANSION END>
                        1921 --line707
                        1922 ..lin.C.3A.5C_ECU2.5CECU_Rivian_A1.5CTarget.5Crepo_projects.5CpRealEcu.5CcL_LATEST.5Cmake.5Coutput.5Cobjects.5CNvM_Act.129::
                        1923 .LDWlin129:
000007c6 403e0000*      1924 	movhi	hi(_NvM_ApiFlags_u8),zero,r7
000007ca 9b370300       1925 	ld.bu	2[r27],r6
000007ce 873f0100*      1926 	ld.bu	lo(_NvM_ApiFlags_u8)[r7],r7
                        1927 	jarl	_NvM_IsWriteAllAndKilled,lp
                        1927 <EXPANSION BEGIN>
                        1927 jarl22 _NvM_IsWriteAllAndKilled , lp 
000007d2 bfff5cf8*      1927 <EXPANSION END>
000007d6 e051           1928 	cmp	zero,r10
000007d8 da15*          1929 	bne	.L4471
                        1930 --line715

                                                                      Page 35
                                                              C:\Users\nhuliyap\AppData\Local\Temp\gh_0000d3s1.s
                        1931 ..lin.C.3A.5C_ECU2.5CECU_Rivian_A1.5CTarget.5Crepo_projects.5CpRealEcu.5CcL_LATEST.5Cmake.5Coutput.5Cobjects.5CNvM_Act.130::
                        1932 .LDWlin130:
000007da 3d370100       1933 	ld.w	0[r29],r6
000007de fd3f2100       1934 	ld.hu	32[r29],r7
000007e2 1a40           1935 	mov	r26,r8
000007e4 86372300       1936 	ld.bu	34[r6],r6
000007e8 c6360f00       1937 	andi	15,r6,r6
                        1938 	jarl	_MemIf_Write,lp
                        1938 <EXPANSION BEGIN>
                        1938 jarl22 _MemIf_Write , lp 
000007ec 80ff0000*      1938 <EXPANSION END>
                        1939 --line717
                        1940 ..lin.C.3A.5C_ECU2.5CECU_Rivian_A1.5CTarget.5Crepo_projects.5CpRealEcu.5CcL_LATEST.5Cmake.5Coutput.5Cobjects.5CNvM_Act.131::
                        1941 .LDWlin131:
000007f0 e051           1942 	cmp	zero,r10
000007f2 aa0d*          1943 	bne	.L4470
000007f4 029a           1944 	mov	2,r19
                        1945 .L4469:
                        1946 --line727
                        1947 ..lin.C.3A.5C_ECU2.5CECU_Rivian_A1.5CTarget.5Crepo_projects.5CpRealEcu.5CcL_LATEST.5Cmake.5Coutput.5Cobjects.5CNvM_Act.132::
                        1948 .LDWlin132:
000007f6 5d9f2400       1949 	st.b	r19,36[r29]
                        1950 	jarl	_NvM_ExitCriticalSection,lp
                        1950 <EXPANSION BEGIN>
                        1950 jarl22 _NvM_ExitCriticalSection , lp 
000007fa 80ff0000*      1950 <EXPANSION END>
                        1951 --	    .ef
                        1952 .LDW97:
                        1953 --line729
                        1954 ..lin.C.3A.5C_ECU2.5CECU_Rivian_A1.5CTarget.5Crepo_projects.5CpRealEcu.5CcL_LATEST.5Cmake.5Coutput.5Cobjects.5CNvM_Act.133::
                        1955 .LDWlin133:
000007fe 4006ff30       1956 	dispose	0,{r26,r27,r28,r29,r31},[lp]
                        1957 .L4471:
                        1958 --line719
                        1959 ..lin.C.3A.5C_ECU2.5CECU_Rivian_A1.5CTarget.5Crepo_projects.5CpRealEcu.5CcL_LATEST.5Cmake.5Coutput.5Cobjects.5CNvM_Act.134::
                        1960 .LDWlin134:
00000802 029a           1961 	mov	2,r19
00000804 95fd*          1962 	br	.L4469
                        1963 .L4470:
                        1964 --line722
                        1965 ..lin.C.3A.5C_ECU2.5CECU_Rivian_A1.5CTarget.5Crepo_projects.5CpRealEcu.5CcL_LATEST.5Cmake.5Coutput.5Cobjects.5CNvM_Act.135::
                        1966 .LDWlin135:
00000806 019a           1967 	mov	1,r19
00000808 f5f5*          1968 	br	.L4469
                        1969 ___ghs_eofn_NvM_ActWriteNvBlock:
                        1970 	.type	_NvM_ActWriteNvBlock,@function
                        1971 	.size	_NvM_ActWriteNvBlock,.-_NvM_ActWriteNvBlock
                        1972 	.type	_NvM_ActWriteNvBlock..C.3A.5C_ECU2.5CECU_Rivian_A1.5CTarget.5Crepo_projects.5CpRealEcu.5CcL_LATEST.5Cmake.5Coutput.5Cobjects.5CNvM_Act.,@function
                        1973 	.size	_NvM_ActWriteNvBlock..C.3A.5C_ECU2.5CECU_Rivian_A1.5CTarget.5Crepo_projects.5CpRealEcu.5CcL_LATEST.5Cmake.5Coutput.5Cobjects.5CNvM_Act.,.-_NvM_ActWriteNvBlock..C.3A.5C_ECU2.5CECU_Rivian_A1.5CTarget.5Crepo_projects.5CpRealEcu.5CcL_LATEST.5Cmake.5Coutput.5Cobjects.5CNvM_Act.
                        1974 	.align	2
                        1975 --_src_pt	r26	local
                        1976 
                        1977 	.section ".bss","awb"
                        1978 .L4538:
                        1979 	.type	.L4538,@object
                        1980 	.size	.L4538,0
                        1981 	.data
                        1982 	.text
                        1983 	.align	2
                        1984 	.align	2
                        1985 ..gh.f.f.1.e.31:

                                                                      Page 36
                                                              C:\Users\nhuliyap\AppData\Local\Temp\gh_0000d3s1.s
                        1986 	.type	..gh.f.f.1.e.31,@object
                        1987 	.size	..gh.f.f.1.e.31,0
                        1988 	.global	_NvM_ActReadNvBlock..C.3A.5C_ECU2.5CECU_Rivian_A1.5CTarget.5Crepo_projects.5CpRealEcu.5CcL_LATEST.5Cmake.5Coutput.5Cobjects.5CNvM_Act.
                        1989 _NvM_ActReadNvBlock..C.3A.5C_ECU2.5CECU_Rivian_A1.5CTarget.5Crepo_projects.5CpRealEcu.5CcL_LATEST.5Cmake.5Coutput.5Cobjects.5CNvM_Act.:
                        1990 _NvM_ActReadNvBlock:
0000080a 8207e170       1991 	prepare	{r25,r26,r27,r28,r29,r31},1
                        1992 --	    .bf
                        1993 .LDW08:
0000080e 3d0600000000*  1994 	mov	_NvM_CurrentBlockInfo_t,r29
00000814 1df0           1995 	mov	r29,ep
00000816 00e5           1996 	sld.w	0[ep],r28
                        1997 --line734
                        1998 ..lin.C.3A.5C_ECU2.5CECU_Rivian_A1.5CTarget.5Crepo_projects.5CpRealEcu.5CcL_LATEST.5Cmake.5Coutput.5Cobjects.5CNvM_Act.136::
                        1999 .LDWlin136:
00000818 04d5           2000 	sld.w	8[ep],r26
0000081a 403e0000*      2001 	movhi	hi(_NvM_CurrentJob_t),zero,r7
0000081e e73f0100*      2002 	ld.hu	lo(_NvM_CurrentJob_t)[r7],r7
                        2003 --line733
                        2004 ..lin.C.3A.5C_ECU2.5CECU_Rivian_A1.5CTarget.5Crepo_projects.5CpRealEcu.5CcL_LATEST.5Cmake.5Coutput.5Cobjects.5CNvM_Act.137::
                        2005 .LDWlin137:
00000822 fcdf1f00       2006 	ld.hu	30[r28],r27
00000826 1d360c00       2007 	addi	12,r29,r6
0000082a 1a40           2008 	mov	r26,r8
                        2009 	jarl	_NvM_CrcJob_Create,lp
                        2009 <EXPANSION BEGIN>
                        2009 jarl22 _NvM_CrcJob_Create , lp 
0000082c 80ff0000*      2009 <EXPANSION END>
                        2010 --line739
                        2011 ..lin.C.3A.5C_ECU2.5CECU_Rivian_A1.5CTarget.5Crepo_projects.5CpRealEcu.5CcL_LATEST.5Cmake.5Coutput.5Cobjects.5CNvM_Act.138::
                        2012 .LDWlin138:
00000830 1df0           2013 	mov	r29,ep
00000832 0c9d           2014 	sld.w	24[ep],r19
00000834 91dc           2015 	sst.h	r27,34[ep]
00000836 9c372300       2016 	ld.bu	34[r28],r6
0000083a fd3f2100       2017 	ld.hu	32[r29],r7
0000083e 939f1100       2018 	ld.bu	16[r19],r19
00000842 02ca           2019 	mov	2,r25
00000844 c6360f00       2020 	andi	15,r6,r6
00000848 1a48           2021 	mov	r26,r9
0000084a db99           2022 	add	r27,r19
0000084c d300           2023 	zxh	r19
0000084e 639f0100       2024 	st.w	r19,0[sp]
00000852 0042           2025 	mov	0,r8
                        2026 	jarl	_MemIf_Read,lp
                        2026 <EXPANSION BEGIN>
                        2026 jarl22 _MemIf_Read , lp 
00000854 80ff0000*      2026 <EXPANSION END>
00000858 e051           2027 	cmp	zero,r10
                        2028 --line749
                        2029 ..lin.C.3A.5C_ECU2.5CECU_Rivian_A1.5CTarget.5Crepo_projects.5CpRealEcu.5CcL_LATEST.5Cmake.5Coutput.5Cobjects.5CNvM_Act.139::
                        2030 .LDWlin139:
0000085a e1cf14cb       2031 	cmovne	1,r25,r25
0000085e 5dcf2400       2032 	st.b	r25,36[r29]
                        2033 --	    .ef
                        2034 .LDW18:
00000862 4206ff70       2035 	dispose	1,{r25,r26,r27,r28,r29,r31},[lp]
                        2036 ___ghs_eofn_NvM_ActReadNvBlock:
                        2037 	.type	_NvM_ActReadNvBlock,@function
                        2038 	.size	_NvM_ActReadNvBlock,.-_NvM_ActReadNvBlock
                        2039 	.type	_NvM_ActReadNvBlock..C.3A.5C_ECU2.5CECU_Rivian_A1.5CTarget.5Crepo_projects.5CpRealEcu.5CcL_LATEST.5Cmake.5Coutput.5Cobjects.5CNvM_Act.,@function
                        2040 	.size	_NvM_ActReadNvBlock..C.3A.5C_ECU2.5CECU_Rivian_A1.5CTarget.5Crepo_projects.5CpRealEcu.5CcL_LATEST.5Cmake.5Coutput.5Cobjects.5CNvM_Act.,.-_NvM_ActReadNvBlock..C.3A.5C_ECU2.5CECU_Rivian_A1.5CTarget.5Crepo_projects.5CpRealEcu.5CcL_LATEST.5Cmake.5Coutput.5Cobjects.5CNvM_Act.

                                                                      Page 37
                                                              C:\Users\nhuliyap\AppData\Local\Temp\gh_0000d3s1.s
                        2041 	.align	2
                        2042 --_descr_pt	r28	local
                        2043 --_BlockLength	r27	local
                        2044 --_readDest_pt	r26	local
                        2045 --_crcLen	r19	local
                        2046 
                        2047 	.section ".bss","awb"
                        2048 .L4666:
                        2049 	.type	.L4666,@object
                        2050 	.size	.L4666,0
                        2051 	.data
                        2052 	.text
                        2053 	.align	2
                        2054 	.align	2
                        2055 ..gh.f.f.1.e.32:
                        2056 	.type	..gh.f.f.1.e.32,@object
                        2057 	.size	..gh.f.f.1.e.32,0
                        2058 	.global	_NvM_ActProcessCrcRead..C.3A.5C_ECU2.5CECU_Rivian_A1.5CTarget.5Crepo_projects.5CpRealEcu.5CcL_LATEST.5Cmake.5Coutput.5Cobjects.5CNvM_Act.
                        2059 _NvM_ActProcessCrcRead..C.3A.5C_ECU2.5CECU_Rivian_A1.5CTarget.5Crepo_projects.5CpRealEcu.5CcL_LATEST.5Cmake.5Coutput.5Cobjects.5CNvM_Act.:
                        2060 _NvM_ActProcessCrcRead:
00000866 80076100       2061 	prepare	{r29,r31},0
                        2062 --	    .bf
                        2063 .LDW28:
0000086a 3d0600000000*  2064 	mov	_NvM_CurrentBlockInfo_t,r29
00000870 fd4f1d00       2065 	ld.hu	28[r29],r9
00000874 1d360c00       2066 	addi	12,r29,r6
00000878 e049           2067 	cmp	zero,r9
0000087a 920d*          2068 	be	.L4697
                        2069 --line759
                        2070 ..lin.C.3A.5C_ECU2.5CECU_Rivian_A1.5CTarget.5Crepo_projects.5CpRealEcu.5CcL_LATEST.5Cmake.5Coutput.5Cobjects.5CNvM_Act.140::
                        2071 .LDWlin140:
0000087c 403e0000*      2072 	movhi	hi(_NvM_NoOfCrcBytes_u16),zero,r7
00000880 e73f0100*      2073 	ld.hu	lo(_NvM_NoOfCrcBytes_u16)[r7],r7
                        2074 	jarl	_NvM_CrcJob_Process,lp
                        2074 <EXPANSION BEGIN>
                        2074 jarl22 _NvM_CrcJob_Process , lp 
00000884 80ff0000*      2074 <EXPANSION END>
00000888 40067f00       2075 	dispose	0,{r29,r31},[lp]
                        2076 .L4697:
                        2077 --line764
                        2078 ..lin.C.3A.5C_ECU2.5CECU_Rivian_A1.5CTarget.5Crepo_projects.5CpRealEcu.5CcL_LATEST.5Cmake.5Coutput.5Cobjects.5CNvM_Act.141::
                        2079 .LDWlin141:
                        2080 	jarl	_NvM_CrcJob_Compare,lp
                        2080 <EXPANSION BEGIN>
                        2080 jarl22 _NvM_CrcJob_Compare , lp 
0000088c 80ff0000*      2080 <EXPANSION END>
00000890 e051           2081 	cmp	zero,r10
00000892 820d*          2082 	be	.L4700
                        2083 --line767
                        2084 ..lin.C.3A.5C_ECU2.5CECU_Rivian_A1.5CTarget.5Crepo_projects.5CpRealEcu.5CcL_LATEST.5Cmake.5Coutput.5Cobjects.5CNvM_Act.142::
                        2085 .LDWlin142:
00000894 3d3f0900       2086 	ld.w	8[r29],r7
00000898 1d30           2087 	mov	r29,r6
                        2088 	jarl	_NvM_InternalCopyBufferedData,lp
                        2088 <EXPANSION BEGIN>
                        2088 jarl22 _NvM_InternalCopyBufferedData , lp 
0000089a bfff8cfc*      2088 <EXPANSION END>
0000089e 40067f00       2089 	dispose	0,{r29,r31},[lp]
                        2090 .L4700:
                        2091 --line770
                        2092 ..lin.C.3A.5C_ECU2.5CECU_Rivian_A1.5CTarget.5Crepo_projects.5CpRealEcu.5CcL_LATEST.5Cmake.5Coutput.5Cobjects.5CNvM_Act.143::

                                                                      Page 38
                                                              C:\Users\nhuliyap\AppData\Local\Temp\gh_0000d3s1.s
                        2093 .LDWlin143:
000008a2 7d072200       2094 	st.h	zero,34[r29]
                        2095 --	    .ef
                        2096 .LDW38:
000008a6 40067f00       2097 	dispose	0,{r29,r31},[lp]
                        2098 ___ghs_eofn_NvM_ActProcessCrcRead:
                        2099 	.type	_NvM_ActProcessCrcRead,@function
                        2100 	.size	_NvM_ActProcessCrcRead,.-_NvM_ActProcessCrcRead
                        2101 	.type	_NvM_ActProcessCrcRead..C.3A.5C_ECU2.5CECU_Rivian_A1.5CTarget.5Crepo_projects.5CpRealEcu.5CcL_LATEST.5Cmake.5Coutput.5Cobjects.5CNvM_Act.,@function
                        2102 	.size	_NvM_ActProcessCrcRead..C.3A.5C_ECU2.5CECU_Rivian_A1.5CTarget.5Crepo_projects.5CpRealEcu.5CcL_LATEST.5Cmake.5Coutput.5Cobjects.5CNvM_Act.,.-_NvM_ActProcessCrcRead..C.3A.5C_ECU2.5CECU_Rivian_A1.5CTarget.5Crepo_projects.5CpRealEcu.5CcL_LATEST.5Cmake.5Coutput.5Cobjects.5CNvM_Act.
                        2103 	.align	2
                        2104 
                        2105 	.section ".bss","awb"
                        2106 .L4909:
                        2107 	.type	.L4909,@object
                        2108 	.size	.L4909,0
                        2109 	.data
                        2110 	.text
                        2111 	.align	2
                        2112 	.align	2
                        2113 ..gh.f.f.1.e.33:
                        2114 	.type	..gh.f.f.1.e.33,@object
                        2115 	.size	..gh.f.f.1.e.33,0
                        2116 	.global	_NvM_ActWait..C.3A.5C_ECU2.5CECU_Rivian_A1.5CTarget.5Crepo_projects.5CpRealEcu.5CcL_LATEST.5Cmake.5Coutput.5Cobjects.5CNvM_Act.
                        2117 _NvM_ActWait..C.3A.5C_ECU2.5CECU_Rivian_A1.5CTarget.5Crepo_projects.5CpRealEcu.5CcL_LATEST.5Cmake.5Coutput.5Cobjects.5CNvM_Act.:
                        2118 _NvM_ActWait:
                        2119 --	    .bf
                        2120 .LDW48:
000008aa 320600000000*  2121 	mov	_NvM_CurrentBlockInfo_t,r18
000008b0 d2072600       2122 	set1	0,38[r18]
                        2123 --	    .ef
                        2124 .LDW58:
                        2125 --line1002
                        2126 ..lin.C.3A.5C_ECU2.5CECU_Rivian_A1.5CTarget.5Crepo_projects.5CpRealEcu.5CcL_LATEST.5Cmake.5Coutput.5Cobjects.5CNvM_Act.144::
                        2127 .LDWlin144:
000008b4 7f00           2128 	jmp	[lp]
                        2129 ___ghs_eofn_NvM_ActWait:
                        2130 	.type	_NvM_ActWait,@function
                        2131 	.size	_NvM_ActWait,.-_NvM_ActWait
                        2132 	.type	_NvM_ActWait..C.3A.5C_ECU2.5CECU_Rivian_A1.5CTarget.5Crepo_projects.5CpRealEcu.5CcL_LATEST.5Cmake.5Coutput.5Cobjects.5CNvM_Act.,@function
                        2133 	.size	_NvM_ActWait..C.3A.5C_ECU2.5CECU_Rivian_A1.5CTarget.5Crepo_projects.5CpRealEcu.5CcL_LATEST.5Cmake.5Coutput.5Cobjects.5CNvM_Act.,.-_NvM_ActWait..C.3A.5C_ECU2.5CECU_Rivian_A1.5CTarget.5Crepo_projects.5CpRealEcu.5CcL_LATEST.5Cmake.5Coutput.5Cobjects.5CNvM_Act.
                        2134 	.align	2
                        2135 
                        2136 	.section ".bss","awb"
                        2137 .L4993:
                        2138 	.type	.L4993,@object
                        2139 	.size	.L4993,0
                        2140 	.data
                        2141 	.text
                        2142 	.align	2
                        2143 	.align	2
                        2144 ..gh.f.f.1.e.34:
                        2145 	.type	..gh.f.f.1.e.34,@object
                        2146 	.size	..gh.f.f.1.e.34,0
                        2147 	.global	_NvM_ActRestoreRomDefaults..C.3A.5C_ECU2.5CECU_Rivian_A1.5CTarget.5Crepo_projects.5CpRealEcu.5CcL_LATEST.5Cmake.5Coutput.5Cobjects.5CNvM_Act.
                        2148 _NvM_ActRestoreRomDefaults..C.3A.5C_ECU2.5CECU_Rivian_A1.5CTarget.5Crepo_projects.5CpRealEcu.5CcL_LATEST.5Cmake.5Coutput.5Cobjects.5CNvM_Act.:
                        2149 _NvM_ActRestoreRomDefaults:
000008b6 8007e110       2150 	prepare	{r27,r28,r29,r31},0
                        2151 --	    .bf
                        2152 .LDW68:
000008ba 3b0600000000*  2153 	mov	_NvM_CurrentJob_t,r27

                                                                      Page 39
                                                              C:\Users\nhuliyap\AppData\Local\Temp\gh_0000d3s1.s
000008c0 fb3f0100       2154 	ld.hu	0[r27],r7
000008c4 3d0600000000*  2155 	mov	_NvM_CurrentBlockInfo_t,r29
000008ca 1d360c00       2156 	addi	12,r29,r6
000008ce 0042           2157 	mov	0,r8
                        2158 	jarl	_NvM_CrcJob_Create,lp
                        2158 <EXPANSION BEGIN>
                        2158 jarl22 _NvM_CrcJob_Create , lp 
000008d0 80ff0000*      2158 <EXPANSION END>
                        2159 --line811
                        2160 ..lin.C.3A.5C_ECU2.5CECU_Rivian_A1.5CTarget.5Crepo_projects.5CpRealEcu.5CcL_LATEST.5Cmake.5Coutput.5Cobjects.5CNvM_Act.145::
                        2161 .LDWlin145:
000008d4 3df70100       2162 	ld.w	0[r29],ep
000008d8 023d           2163 	sld.w	4[ep],r7
000008da e039           2164 	cmp	zero,r7
000008dc d205*          2165 	be	.L5013
                        2166 --line813
                        2167 ..lin.C.3A.5C_ECU2.5CECU_Rivian_A1.5CTarget.5Crepo_projects.5CpRealEcu.5CcL_LATEST.5Cmake.5Coutput.5Cobjects.5CNvM_Act.146::
                        2168 .LDWlin146:
000008de 1d30           2169 	mov	r29,r6
                        2170 	jarl	_NvM_InternalCopyBufferedData,lp
                        2170 <EXPANSION BEGIN>
                        2170 jarl22 _NvM_InternalCopyBufferedData , lp 
000008e0 bfff46fc*      2170 <EXPANSION END>
000008e4 f50d*          2171 	br	.L5015
                        2172 .L5013:
                        2173 --line818
                        2174 ..lin.C.3A.5C_ECU2.5CECU_Rivian_A1.5CTarget.5Crepo_projects.5CpRealEcu.5CcL_LATEST.5Cmake.5Coutput.5Cobjects.5CNvM_Act.147::
                        2175 .LDWlin147:
000008e6 04e5           2176 	sld.w	8[ep],r28
000008e8 e0e1           2177 	cmp	zero,r28
000008ea a20d*          2178 	be	.L5016
                        2179 --line821
                        2180 ..lin.C.3A.5C_ECU2.5CECU_Rivian_A1.5CTarget.5Crepo_projects.5CpRealEcu.5CcL_LATEST.5Cmake.5Coutput.5Cobjects.5CNvM_Act.148::
                        2181 .LDWlin148:
000008ec 9b370300       2182 	ld.bu	2[r27],r6
000008f0 6632           2183 	cmp	6,r6
000008f2 ca05*          2184 	bne	.L5019
000008f4 def72300       2185 	tst1	6,35[ep]
000008f8 b205*          2186 	be	.L5016
                        2187 .L5019:
                        2188 --line824
                        2189 ..lin.C.3A.5C_ECU2.5CECU_Rivian_A1.5CTarget.5Crepo_projects.5CpRealEcu.5CcL_LATEST.5Cmake.5Coutput.5Cobjects.5CNvM_Act.149::
                        2190 .LDWlin149:
000008fa fcc760f9       2191 	jarl	[r28],lp
                        2192 .L5016:
                        2193 --line828
                        2194 ..lin.C.3A.5C_ECU2.5CECU_Rivian_A1.5CTarget.5Crepo_projects.5CpRealEcu.5CcL_LATEST.5Cmake.5Coutput.5Cobjects.5CNvM_Act.150::
                        2195 .LDWlin150:
000008fe 7d072200       2196 	st.h	zero,34[r29]
                        2197 .L5015:
                        2198 	jarl	_NvM_ActWait,lp
                        2198 <EXPANSION BEGIN>
                        2198 jarl22 _NvM_ActWait , lp 
00000902 bfffa8ff*      2198 <EXPANSION END>
                        2199 --	    .ef
                        2200 .LDW78:
                        2201 --line832
                        2202 ..lin.C.3A.5C_ECU2.5CECU_Rivian_A1.5CTarget.5Crepo_projects.5CpRealEcu.5CcL_LATEST.5Cmake.5Coutput.5Cobjects.5CNvM_Act.151::
                        2203 .LDWlin151:
00000906 4006ff10       2204 	dispose	0,{r27,r28,r29,r31},[lp]
                        2205 ___ghs_eofn_NvM_ActRestoreRomDefaults:

                                                                      Page 40
                                                              C:\Users\nhuliyap\AppData\Local\Temp\gh_0000d3s1.s
                        2206 	.type	_NvM_ActRestoreRomDefaults,@function
                        2207 	.size	_NvM_ActRestoreRomDefaults,.-_NvM_ActRestoreRomDefaults
                        2208 	.type	_NvM_ActRestoreRomDefaults..C.3A.5C_ECU2.5CECU_Rivian_A1.5CTarget.5Crepo_projects.5CpRealEcu.5CcL_LATEST.5Cmake.5Coutput.5Cobjects.5CNvM_Act.,@function
                        2209 	.size	_NvM_ActRestoreRomDefaults..C.3A.5C_ECU2.5CECU_Rivian_A1.5CTarget.5Crepo_projects.5CpRealEcu.5CcL_LATEST.5Cmake.5Coutput.5Cobjects.5CNvM_Act.,.-_NvM_ActRestoreRomDefaults..C.3A.5C_ECU2.5CECU_Rivian_A1.5CTarget.5Crepo_projects.5CpRealEcu.5CcL_LATEST.5Cmake.5Coutput.5Cobjects.5CNvM_Act.
                        2210 	.align	2
                        2211 
                        2212 	.section ".bss","awb"
                        2213 .L5076:
                        2214 	.type	.L5076,@object
                        2215 	.size	.L5076,0
                        2216 	.data
                        2217 	.text
                        2218 	.align	2
                        2219 	.align	2
                        2220 ..gh.f.f.1.e.35:
                        2221 	.type	..gh.f.f.1.e.35,@object
                        2222 	.size	..gh.f.f.1.e.35,0
                        2223 	.global	_NvM_ActFinishRestoreRomDefaults..C.3A.5C_ECU2.5CECU_Rivian_A1.5CTarget.5Crepo_projects.5CpRealEcu.5CcL_LATEST.5Cmake.5Coutput.5Cobjects.5CNvM_Act.
                        2224 _NvM_ActFinishRestoreRomDefaults..C.3A.5C_ECU2.5CECU_Rivian_A1.5CTarget.5Crepo_projects.5CpRealEcu.5CcL_LATEST.5Cmake.5Coutput.5Cobjects.5CNvM_Act.:
                        2225 _NvM_ActFinishRestoreRomDefaults:
                        2226 --	    .bf
                        2227 .LDW88:
0000090a 407e0000*      2228 	movhi	hi(_NvM_CurrentJob_t+4),zero,r15
0000090e 2f7f0100*      2229 	ld.w	lo(_NvM_CurrentJob_t+4)[r15],r15
00000912 e079           2230 	cmp	zero,r15
00000914 8a15*          2231 	bne	.L5159
00000916 300600000000*  2232 	mov	_NvM_CurrentBlockInfo_t,r16
0000091c 30f70100       2233 	ld.w	0[r16],ep
00000920 0495           2234 	sld.w	8[ep],r18
00000922 0275           2235 	sld.w	4[ep],r14
00000924 0e91           2236 	or	r14,r18
00000926 f205*          2237 	be	.L5159
                        2238 --line840
                        2239 ..lin.C.3A.5C_ECU2.5CECU_Rivian_A1.5CTarget.5Crepo_projects.5CpRealEcu.5CcL_LATEST.5Cmake.5Coutput.5Cobjects.5CNvM_Act.152::
                        2240 .LDWlin152:
00000928 308f0500       2241 	ld.w	4[r16],r17
0000092c d10f0200       2242 	set1	1,2[r17]
00000930 d1070200       2243 	set1	0,2[r17]
                        2244 .L5159:
00000934 0132           2245 	mov	1,r6
00000936 bf079cf9*      2246 	jr	_NvM_IntUpdateCurrentBlockNVRAMStatus
                        2247 --	    .ef
                        2248 .LDW98:
                        2249 ___ghs_eofn_NvM_ActFinishRestoreRomDefaults:
                        2250 	.type	_NvM_ActFinishRestoreRomDefaults,@function
                        2251 	.size	_NvM_ActFinishRestoreRomDefaults,.-_NvM_ActFinishRestoreRomDefaults
                        2252 	.type	_NvM_ActFinishRestoreRomDefaults..C.3A.5C_ECU2.5CECU_Rivian_A1.5CTarget.5Crepo_projects.5CpRealEcu.5CcL_LATEST.5Cmake.5Coutput.5Cobjects.5CNvM_Act.,@function
                        2253 	.size	_NvM_ActFinishRestoreRomDefaults..C.3A.5C_ECU2.5CECU_Rivian_A1.5CTarget.5Crepo_projects.5CpRealEcu.5CcL_LATEST.5Cmake.5Coutput.5Cobjects.5CNvM_Act.,.-_NvM_ActFinishRestoreRomDefaults..C.3A.5C_ECU2.5CECU_Rivian_A1.5CTarget.5Crepo_projects.5CpRealEcu.5CcL_LATEST.5Cmake.5Coutput.5Cobjects.5CNvM_Act.
                        2254 	.align	2
                        2255 
                        2256 	.section ".bss","awb"
                        2257 .L5210:
                        2258 	.type	.L5210,@object
                        2259 	.size	.L5210,0
                        2260 	.data
                        2261 	.text
                        2262 	.align	2
                        2263 	.align	2
                        2264 ..gh.f.f.1.e.36:
                        2265 	.type	..gh.f.f.1.e.36,@object
                        2266 	.size	..gh.f.f.1.e.36,0

                                                                      Page 41
                                                              C:\Users\nhuliyap\AppData\Local\Temp\gh_0000d3s1.s
                        2267 	.global	_NvM_ActSetReqIntegrityFailed..C.3A.5C_ECU2.5CECU_Rivian_A1.5CTarget.5Crepo_projects.5CpRealEcu.5CcL_LATEST.5Cmake.5Coutput.5Cobjects.5CNvM_Act.
                        2268 _NvM_ActSetReqIntegrityFailed..C.3A.5C_ECU2.5CECU_Rivian_A1.5CTarget.5Crepo_projects.5CpRealEcu.5CcL_LATEST.5Cmake.5Coutput.5Cobjects.5CNvM_Act.:
                        2269 _NvM_ActSetReqIntegrityFailed:
                        2270 --	    .bf
                        2271 .LDW09:
0000093a 0392           2272 	mov	3,r18
0000093c 405e0000*      2273 	movhi	hi(_NvM_CurrentBlockInfo_t+36),zero,r11
00000940 4b970000*      2274 	st.b	r18,lo(_NvM_CurrentBlockInfo_t+36)[r11]
                        2275 --	    .ef
                        2276 .LDW19:
                        2277 --line868
                        2278 ..lin.C.3A.5C_ECU2.5CECU_Rivian_A1.5CTarget.5Crepo_projects.5CpRealEcu.5CcL_LATEST.5Cmake.5Coutput.5Cobjects.5CNvM_Act.153::
                        2279 .LDWlin153:
00000944 7f00           2280 	jmp	[lp]
                        2281 ___ghs_eofn_NvM_ActSetReqIntegrityFailed:
                        2282 	.type	_NvM_ActSetReqIntegrityFailed,@function
                        2283 	.size	_NvM_ActSetReqIntegrityFailed,.-_NvM_ActSetReqIntegrityFailed
                        2284 	.type	_NvM_ActSetReqIntegrityFailed..C.3A.5C_ECU2.5CECU_Rivian_A1.5CTarget.5Crepo_projects.5CpRealEcu.5CcL_LATEST.5Cmake.5Coutput.5Cobjects.5CNvM_Act.,@function
                        2285 	.size	_NvM_ActSetReqIntegrityFailed..C.3A.5C_ECU2.5CECU_Rivian_A1.5CTarget.5Crepo_projects.5CpRealEcu.5CcL_LATEST.5Cmake.5Coutput.5Cobjects.5CNvM_Act.,.-_NvM_ActSetReqIntegrityFailed..C.3A.5C_ECU2.5CECU_Rivian_A1.5CTarget.5Crepo_projects.5CpRealEcu.5CcL_LATEST.5Cmake.5Coutput.5Cobjects.5CNvM_Act.
                        2286 	.align	2
                        2287 
                        2288 	.section ".bss","awb"
                        2289 .L5281:
                        2290 	.type	.L5281,@object
                        2291 	.size	.L5281,0
                        2292 	.data
                        2293 	.text
                        2294 	.align	2
                        2295 	.align	2
                        2296 ..gh.f.f.1.e.37:
                        2297 	.type	..gh.f.f.1.e.37,@object
                        2298 	.size	..gh.f.f.1.e.37,0
                        2299 	.global	_NvM_ActSetReqSkipped..C.3A.5C_ECU2.5CECU_Rivian_A1.5CTarget.5Crepo_projects.5CpRealEcu.5CcL_LATEST.5Cmake.5Coutput.5Cobjects.5CNvM_Act.
                        2300 _NvM_ActSetReqSkipped..C.3A.5C_ECU2.5CECU_Rivian_A1.5CTarget.5Crepo_projects.5CpRealEcu.5CcL_LATEST.5Cmake.5Coutput.5Cobjects.5CNvM_Act.:
                        2301 _NvM_ActSetReqSkipped:
                        2302 --	    .bf
                        2303 .LDW29:
00000946 0492           2304 	mov	4,r18
00000948 405e0000*      2305 	movhi	hi(_NvM_CurrentBlockInfo_t+36),zero,r11
0000094c 4b970000*      2306 	st.b	r18,lo(_NvM_CurrentBlockInfo_t+36)[r11]
                        2307 --	    .ef
                        2308 .LDW39:
                        2309 --line872
                        2310 ..lin.C.3A.5C_ECU2.5CECU_Rivian_A1.5CTarget.5Crepo_projects.5CpRealEcu.5CcL_LATEST.5Cmake.5Coutput.5Cobjects.5CNvM_Act.154::
                        2311 .LDWlin154:
00000950 7f00           2312 	jmp	[lp]
                        2313 ___ghs_eofn_NvM_ActSetReqSkipped:
                        2314 	.type	_NvM_ActSetReqSkipped,@function
                        2315 	.size	_NvM_ActSetReqSkipped,.-_NvM_ActSetReqSkipped
                        2316 	.type	_NvM_ActSetReqSkipped..C.3A.5C_ECU2.5CECU_Rivian_A1.5CTarget.5Crepo_projects.5CpRealEcu.5CcL_LATEST.5Cmake.5Coutput.5Cobjects.5CNvM_Act.,@function
                        2317 	.size	_NvM_ActSetReqSkipped..C.3A.5C_ECU2.5CECU_Rivian_A1.5CTarget.5Crepo_projects.5CpRealEcu.5CcL_LATEST.5Cmake.5Coutput.5Cobjects.5CNvM_Act.,.-_NvM_ActSetReqSkipped..C.3A.5C_ECU2.5CECU_Rivian_A1.5CTarget.5Crepo_projects.5CpRealEcu.5CcL_LATEST.5Cmake.5Coutput.5Cobjects.5CNvM_Act.
                        2318 	.align	2
                        2319 
                        2320 	.section ".bss","awb"
                        2321 .L5329:
                        2322 	.type	.L5329,@object
                        2323 	.size	.L5329,0
                        2324 	.data
                        2325 	.text
                        2326 	.align	2
                        2327 	.align	2

                                                                      Page 42
                                                              C:\Users\nhuliyap\AppData\Local\Temp\gh_0000d3s1.s
                        2328 ..gh.f.f.1.e.38:
                        2329 	.type	..gh.f.f.1.e.38,@object
                        2330 	.size	..gh.f.f.1.e.38,0
                        2331 	.global	_NvM_SetBlockPendingWriteAll..C.3A.5C_ECU2.5CECU_Rivian_A1.5CTarget.5Crepo_projects.5CpRealEcu.5CcL_LATEST.5Cmake.5Coutput.5Cobjects.5CNvM_Act.
                        2332 _NvM_SetBlockPendingWriteAll..C.3A.5C_ECU2.5CECU_Rivian_A1.5CTarget.5Crepo_projects.5CpRealEcu.5CcL_LATEST.5Cmake.5Coutput.5Cobjects.5CNvM_Act.:
                        2333 _NvM_SetBlockPendingWriteAll:
                        2334 --	    .bf
                        2335 .LDW49:
00000952 40f60000*      2336 	movhi	hi(_NvM_CurrentBlockInfo_t+4),zero,ep
00000956 3ef70100*      2337 	ld.w	lo(_NvM_CurrentBlockInfo_t+4)[ep],ep
                        2338 --line876
                        2339 ..lin.C.3A.5C_ECU2.5CECU_Rivian_A1.5CTarget.5Crepo_projects.5CpRealEcu.5CcL_LATEST.5Cmake.5Coutput.5Cobjects.5CNvM_Act.155::
                        2340 .LDWlin155:
0000095a 40360000*      2341 	movhi	hi(_NvM_CurrentJob_t),zero,r6
0000095e e6370100*      2342 	ld.hu	lo(_NvM_CurrentJob_t)[r6],r6
00000962 0242           2343 	mov	2,r8
00000964 8143           2344 	sst.b	r8,1[ep]
00000966 0d3a           2345 	mov	13,r7
00000968 80070000*      2346 	jr	_NvM_BlockNotification
                        2347 --	    .ef
                        2348 .LDW59:
                        2349 ___ghs_eofn_NvM_SetBlockPendingWriteAll:
                        2350 	.type	_NvM_SetBlockPendingWriteAll,@function
                        2351 	.size	_NvM_SetBlockPendingWriteAll,.-_NvM_SetBlockPendingWriteAll
                        2352 	.type	_NvM_SetBlockPendingWriteAll..C.3A.5C_ECU2.5CECU_Rivian_A1.5CTarget.5Crepo_projects.5CpRealEcu.5CcL_LATEST.5Cmake.5Coutput.5Cobjects.5CNvM_Act.,@function
                        2353 	.size	_NvM_SetBlockPendingWriteAll..C.3A.5C_ECU2.5CECU_Rivian_A1.5CTarget.5Crepo_projects.5CpRealEcu.5CcL_LATEST.5Cmake.5Coutput.5Cobjects.5CNvM_Act.,.-_NvM_SetBlockPendingWriteAll..C.3A.5C_ECU2.5CECU_Rivian_A1.5CTarget.5Crepo_projects.5CpRealEcu.5CcL_LATEST.5Cmake.5Coutput.5Cobjects.5CNvM_Act.
                        2354 	.align	2
                        2355 
                        2356 	.section ".bss","awb"
                        2357 .L5377:
                        2358 	.type	.L5377,@object
                        2359 	.size	.L5377,0
                        2360 	.data
                        2361 	.text
                        2362 	.align	2
                        2363 	.align	2
                        2364 ..gh.f.f.1.e.39:
                        2365 	.type	..gh.f.f.1.e.39,@object
                        2366 	.size	..gh.f.f.1.e.39,0
                        2367 	.global	_NvM_ActSetupRedundant..C.3A.5C_ECU2.5CECU_Rivian_A1.5CTarget.5Crepo_projects.5CpRealEcu.5CcL_LATEST.5Cmake.5Coutput.5Cobjects.5CNvM_Act.
                        2368 _NvM_ActSetupRedundant..C.3A.5C_ECU2.5CECU_Rivian_A1.5CTarget.5Crepo_projects.5CpRealEcu.5CcL_LATEST.5Cmake.5Coutput.5Cobjects.5CNvM_Act.:
                        2369 _NvM_ActSetupRedundant:
0000096c 80072100       2370 	prepare	{r31},0
                        2371 --	    .bf
                        2372 .LDW69:
                        2373 	jarl	_NvM_ActUpdateNvState,lp
                        2373 <EXPANSION BEGIN>
                        2373 jarl22 _NvM_ActUpdateNvState , lp 
00000970 bfff32f9*      2373 <EXPANSION END>
                        2374 --line883
                        2375 ..lin.C.3A.5C_ECU2.5CECU_Rivian_A1.5CTarget.5Crepo_projects.5CpRealEcu.5CcL_LATEST.5Cmake.5Coutput.5Cobjects.5CNvM_Act.156::
                        2376 .LDWlin156:
00000974 3e0600000000*  2377 	mov	_NvM_CurrentBlockInfo_t,ep
0000097a de072000       2378 	set1	0,32[ep]
                        2379 --line885
                        2380 ..lin.C.3A.5C_ECU2.5CECU_Rivian_A1.5CTarget.5Crepo_projects.5CpRealEcu.5CcL_LATEST.5Cmake.5Coutput.5Cobjects.5CNvM_Act.157::
                        2381 .LDWlin157:
0000097e a503           2382 	sst.b	zero,37[ep]
                        2383 --	    .ef
                        2384 .LDW79:
00000980 40063f00       2385 	dispose	0,{r31},[lp]

                                                                      Page 43
                                                              C:\Users\nhuliyap\AppData\Local\Temp\gh_0000d3s1.s
                        2386 ___ghs_eofn_NvM_ActSetupRedundant:
                        2387 	.type	_NvM_ActSetupRedundant,@function
                        2388 	.size	_NvM_ActSetupRedundant,.-_NvM_ActSetupRedundant
                        2389 	.type	_NvM_ActSetupRedundant..C.3A.5C_ECU2.5CECU_Rivian_A1.5CTarget.5Crepo_projects.5CpRealEcu.5CcL_LATEST.5Cmake.5Coutput.5Cobjects.5CNvM_Act.,@function
                        2390 	.size	_NvM_ActSetupRedundant..C.3A.5C_ECU2.5CECU_Rivian_A1.5CTarget.5Crepo_projects.5CpRealEcu.5CcL_LATEST.5Cmake.5Coutput.5Cobjects.5CNvM_Act.,.-_NvM_ActSetupRedundant..C.3A.5C_ECU2.5CECU_Rivian_A1.5CTarget.5Crepo_projects.5CpRealEcu.5CcL_LATEST.5Cmake.5Coutput.5Cobjects.5CNvM_Act.
                        2391 	.align	2
                        2392 
                        2393 	.section ".bss","awb"
                        2394 .L5425:
                        2395 	.type	.L5425,@object
                        2396 	.size	.L5425,0
                        2397 	.data
                        2398 	.text
                        2399 	.align	2
                        2400 	.align	2
                        2401 ..gh.f.f.1.e.40:
                        2402 	.type	..gh.f.f.1.e.40,@object
                        2403 	.size	..gh.f.f.1.e.40,0
                        2404 	.global	_NvM_ActSetupOther..C.3A.5C_ECU2.5CECU_Rivian_A1.5CTarget.5Crepo_projects.5CpRealEcu.5CcL_LATEST.5Cmake.5Coutput.5Cobjects.5CNvM_Act.
                        2405 _NvM_ActSetupOther..C.3A.5C_ECU2.5CECU_Rivian_A1.5CTarget.5Crepo_projects.5CpRealEcu.5CcL_LATEST.5Cmake.5Coutput.5Cobjects.5CNvM_Act.:
                        2406 _NvM_ActSetupOther:
                        2407 --	    .bf
                        2408 .LDW89:
00000984 3e0600000000*  2409 	mov	_NvM_CurrentBlockInfo_t,ep
0000098a a503           2410 	sst.b	zero,37[ep]
                        2411 --line892
                        2412 ..lin.C.3A.5C_ECU2.5CECU_Rivian_A1.5CTarget.5Crepo_projects.5CpRealEcu.5CcL_LATEST.5Cmake.5Coutput.5Cobjects.5CNvM_Act.158::
                        2413 .LDWlin158:
0000098c de472000       2414 	not1	0,32[ep]
00000990 bf0712f9*      2415 	jr	_NvM_ActUpdateNvState
                        2416 --	    .ef
                        2417 .LDW99:
                        2418 ___ghs_eofn_NvM_ActSetupOther:
                        2419 	.type	_NvM_ActSetupOther,@function
                        2420 	.size	_NvM_ActSetupOther,.-_NvM_ActSetupOther
                        2421 	.type	_NvM_ActSetupOther..C.3A.5C_ECU2.5CECU_Rivian_A1.5CTarget.5Crepo_projects.5CpRealEcu.5CcL_LATEST.5Cmake.5Coutput.5Cobjects.5CNvM_Act.,@function
                        2422 	.size	_NvM_ActSetupOther..C.3A.5C_ECU2.5CECU_Rivian_A1.5CTarget.5Crepo_projects.5CpRealEcu.5CcL_LATEST.5Cmake.5Coutput.5Cobjects.5CNvM_Act.,.-_NvM_ActSetupOther..C.3A.5C_ECU2.5CECU_Rivian_A1.5CTarget.5Crepo_projects.5CpRealEcu.5CcL_LATEST.5Cmake.5Coutput.5Cobjects.5CNvM_Act.
                        2423 	.align	2
                        2424 
                        2425 	.section ".bss","awb"
                        2426 .L5473:
                        2427 	.type	.L5473,@object
                        2428 	.size	.L5473,0
                        2429 	.data
                        2430 	.text
                        2431 	.align	2
                        2432 	.align	2
                        2433 ..gh.f.f.1.e.41:
                        2434 	.type	..gh.f.f.1.e.41,@object
                        2435 	.size	..gh.f.f.1.e.41,0
                        2436 	.global	_NvM_ActGetMultiBlockJob..C.3A.5C_ECU2.5CECU_Rivian_A1.5CTarget.5Crepo_projects.5CpRealEcu.5CcL_LATEST.5Cmake.5Coutput.5Cobjects.5CNvM_Act.
                        2437 _NvM_ActGetMultiBlockJob..C.3A.5C_ECU2.5CECU_Rivian_A1.5CTarget.5Crepo_projects.5CpRealEcu.5CcL_LATEST.5Cmake.5Coutput.5Cobjects.5CNvM_Act.:
                        2438 _NvM_ActGetMultiBlockJob:
                        2439 --	    .bf
                        2440 .LDW001:
00000994 408e0000*      2441 	movhi	hi(_NvM_ApiFlags_u8),zero,r17
00000998 918f0100*      2442 	ld.bu	lo(_NvM_ApiFlags_u8)[r17],r17
                        2443 --line944
                        2444 ..lin.C.3A.5C_ECU2.5CECU_Rivian_A1.5CTarget.5Crepo_projects.5CpRealEcu.5CcL_LATEST.5Cmake.5Coutput.5Cobjects.5CNvM_Act.159::
                        2445 .LDWlin159:
0000099c 3e0600000000*  2446 	mov	_NvM_CurrentJob_t,ep

                                                                      Page 44
                                                              C:\Users\nhuliyap\AppData\Local\Temp\gh_0000d3s1.s
000009a2 8004           2447 	sst.h	zero,0[ep]
                        2448 --line945
                        2449 ..lin.C.3A.5C_ECU2.5CECU_Rivian_A1.5CTarget.5Crepo_projects.5CpRealEcu.5CcL_LATEST.5Cmake.5Coutput.5Cobjects.5CNvM_Act.160::
                        2450 .LDWlin160:
000009a4 0305           2451 	sst.w	zero,4[ep]
000009a6 d1060200       2452 	andi	2,r17,zero
000009aa a20d*          2453 	be	.L5494
                        2454 --line951
                        2455 ..lin.C.3A.5C_ECU2.5CECU_Rivian_A1.5CTarget.5Crepo_projects.5CpRealEcu.5CcL_LATEST.5Cmake.5Coutput.5Cobjects.5CNvM_Act.161::
                        2456 .LDWlin161:
000009ac 40860000*      2457 	movhi	hi(_NvM_NoOfBlockIds_t),zero,r16
000009b0 f0870100*      2458 	ld.hu	lo(_NvM_NoOfBlockIds_t)[r16],r16
                        2459 --line949
                        2460 ..lin.C.3A.5C_ECU2.5CECU_Rivian_A1.5CTarget.5Crepo_projects.5CpRealEcu.5CcL_LATEST.5Cmake.5Coutput.5Cobjects.5CNvM_Act.162::
                        2461 .LDWlin162:
000009b4 0572           2462 	mov	5,r14
000009b6 8273           2463 	sst.b	r14,2[ep]
000009b8 1096ffff       2464 	addi	-1,r16,r18
000009bc e505*          2465 	br	.L5518
                        2466 .L5494:
                        2467 --line953
                        2468 ..lin.C.3A.5C_ECU2.5CECU_Rivian_A1.5CTarget.5Crepo_projects.5CpRealEcu.5CcL_LATEST.5Cmake.5Coutput.5Cobjects.5CNvM_Act.163::
                        2469 .LDWlin163:
000009be 838a           2470 	shr	3,r17
000009c0 d905*          2471 	bnl	.L5492
                        2472 --line955
                        2473 ..lin.C.3A.5C_ECU2.5CECU_Rivian_A1.5CTarget.5Crepo_projects.5CpRealEcu.5CcL_LATEST.5Cmake.5Coutput.5Cobjects.5CNvM_Act.164::
                        2474 .LDWlin164:
000009c2 0662           2475 	mov	6,r12
000009c4 8263           2476 	sst.b	r12,2[ep]
000009c6 0192           2477 	mov	1,r18
                        2478 .L5518:
000009c8 8094           2479 	sst.h	r18,0[ep]
                        2480 .L5492:
                        2481 --	    .ef
                        2482 .LDW101:
000009ca 7f00           2483 	jmp	[lp]
                        2484 ___ghs_eofn_NvM_ActGetMultiBlockJob:
                        2485 	.type	_NvM_ActGetMultiBlockJob,@function
                        2486 	.size	_NvM_ActGetMultiBlockJob,.-_NvM_ActGetMultiBlockJob
                        2487 	.type	_NvM_ActGetMultiBlockJob..C.3A.5C_ECU2.5CECU_Rivian_A1.5CTarget.5Crepo_projects.5CpRealEcu.5CcL_LATEST.5Cmake.5Coutput.5Cobjects.5CNvM_Act.,@function
                        2488 	.size	_NvM_ActGetMultiBlockJob..C.3A.5C_ECU2.5CECU_Rivian_A1.5CTarget.5Crepo_projects.5CpRealEcu.5CcL_LATEST.5Cmake.5Coutput.5Cobjects.5CNvM_Act.,.-_NvM_ActGetMultiBlockJob..C.3A.5C_ECU2.5CECU_Rivian_A1.5CTarget.5Crepo_projects.5CpRealEcu.5CcL_LATEST.5Cmake.5Coutput.5Cobjects.5CNvM_Act.
                        2489 	.align	2
                        2490 --_multiJobFlags	r17	local
                        2491 
                        2492 	.section ".bss","awb"
                        2493 .L5547:
                        2494 	.type	.L5547,@object
                        2495 	.size	.L5547,0
                        2496 	.data
                        2497 	.text
                        2498 	.align	2
                        2499 	.align	2
                        2500 ..gh.f.f.1.e.42:
                        2501 	.type	..gh.f.f.1.e.42,@object
                        2502 	.size	..gh.f.f.1.e.42,0
                        2503 	.global	_NvM_ActValidateRam..C.3A.5C_ECU2.5CECU_Rivian_A1.5CTarget.5Crepo_projects.5CpRealEcu.5CcL_LATEST.5Cmake.5Coutput.5Cobjects.5CNvM_Act.
                        2504 _NvM_ActValidateRam..C.3A.5C_ECU2.5CECU_Rivian_A1.5CTarget.5Crepo_projects.5CpRealEcu.5CcL_LATEST.5Cmake.5Coutput.5Cobjects.5CNvM_Act.:
                        2505 _NvM_ActValidateRam:
                        2506 --	    .bf
                        2507 .LDW201:

                                                                      Page 45
                                                              C:\Users\nhuliyap\AppData\Local\Temp\gh_0000d3s1.s
000009cc 40960000*      2508 	movhi	hi(_NvM_CurrentJob_t+4),zero,r18
000009d0 32970100*      2509 	ld.w	lo(_NvM_CurrentJob_t+4)[r18],r18
000009d4 e091           2510 	cmp	zero,r18
000009d6 ba0d*          2511 	bne	.L5607
                        2512 --line991
                        2513 ..lin.C.3A.5C_ECU2.5CECU_Rivian_A1.5CTarget.5Crepo_projects.5CpRealEcu.5CcL_LATEST.5Cmake.5Coutput.5Cobjects.5CNvM_Act.165::
                        2514 .LDWlin165:
000009d8 40f60000*      2515 	movhi	hi(_NvM_CurrentBlockInfo_t+4),zero,ep
000009dc 3ef70100*      2516 	ld.w	lo(_NvM_CurrentBlockInfo_t+4)[ep],ep
000009e0 6280           2517 	sld.bu	2[ep],r16
000009e2 908e0100       2518 	ori	1,r16,r17
                        2519 --line992
                        2520 ..lin.C.3A.5C_ECU2.5CECU_Rivian_A1.5CTarget.5Crepo_projects.5CpRealEcu.5CcL_LATEST.5Cmake.5Coutput.5Cobjects.5CNvM_Act.166::
                        2521 .LDWlin166:
000009e6 d186fd00       2522 	andi	253,r17,r16
000009ea 8283           2523 	sst.b	r16,2[ep]
                        2524 .L5607:
                        2525 --	    .ef
                        2526 .LDW301:
000009ec 7f00           2527 	jmp	[lp]
                        2528 ___ghs_eofn_NvM_ActValidateRam:
                        2529 	.type	_NvM_ActValidateRam,@function
                        2530 	.size	_NvM_ActValidateRam,.-_NvM_ActValidateRam
                        2531 	.type	_NvM_ActValidateRam..C.3A.5C_ECU2.5CECU_Rivian_A1.5CTarget.5Crepo_projects.5CpRealEcu.5CcL_LATEST.5Cmake.5Coutput.5Cobjects.5CNvM_Act.,@function
                        2532 	.size	_NvM_ActValidateRam..C.3A.5C_ECU2.5CECU_Rivian_A1.5CTarget.5Crepo_projects.5CpRealEcu.5CcL_LATEST.5Cmake.5Coutput.5Cobjects.5CNvM_Act.,.-_NvM_ActValidateRam..C.3A.5C_ECU2.5CECU_Rivian_A1.5CTarget.5Crepo_projects.5CpRealEcu.5CcL_LATEST.5Cmake.5Coutput.5Cobjects.5CNvM_Act.
                        2533 	.align	2
                        2534 
                        2535 	.section ".bss","awb"
                        2536 .L5638:
                        2537 	.type	.L5638,@object
                        2538 	.size	.L5638,0
                        2539 	.data
                        2540 	.text
                        2541 	.align	2
                        2542 	.align	2
                        2543 ..gh.f.f.1.e.43:
                        2544 	.type	..gh.f.f.1.e.43,@object
                        2545 	.size	..gh.f.f.1.e.43,0
                        2546 	.global	_NvM_ActProcessCrc..C.3A.5C_ECU2.5CECU_Rivian_A1.5CTarget.5Crepo_projects.5CpRealEcu.5CcL_LATEST.5Cmake.5Coutput.5Cobjects.5CNvM_Act.
                        2547 _NvM_ActProcessCrc..C.3A.5C_ECU2.5CECU_Rivian_A1.5CTarget.5Crepo_projects.5CpRealEcu.5CcL_LATEST.5Cmake.5Coutput.5Cobjects.5CNvM_Act.:
                        2548 _NvM_ActProcessCrc:
                        2549 --	    .bf
                        2550 .LDW401:
000009ee 403e0000*      2551 	movhi	hi(_NvM_NoOfCrcBytes_u16),zero,r7
000009f2 e73f0100*      2552 	ld.hu	lo(_NvM_NoOfCrcBytes_u16)[r7],r7
000009f6 260600000000*  2553 	mov	_NvM_CurrentBlockInfo_t+12,r6
000009fc 80070000*      2554 	jr	_NvM_CrcJob_Process
                        2555 --	    .ef
                        2556 .LDW501:
                        2557 ___ghs_eofn_NvM_ActProcessCrc:
                        2558 	.type	_NvM_ActProcessCrc,@function
                        2559 	.size	_NvM_ActProcessCrc,.-_NvM_ActProcessCrc
                        2560 	.type	_NvM_ActProcessCrc..C.3A.5C_ECU2.5CECU_Rivian_A1.5CTarget.5Crepo_projects.5CpRealEcu.5CcL_LATEST.5Cmake.5Coutput.5Cobjects.5CNvM_Act.,@function
                        2561 	.size	_NvM_ActProcessCrc..C.3A.5C_ECU2.5CECU_Rivian_A1.5CTarget.5Crepo_projects.5CpRealEcu.5CcL_LATEST.5Cmake.5Coutput.5Cobjects.5CNvM_Act.,.-_NvM_ActProcessCrc..C.3A.5C_ECU2.5CECU_Rivian_A1.5CTarget.5Crepo_projects.5CpRealEcu.5CcL_LATEST.5Cmake.5Coutput.5Cobjects.5CNvM_Act.
                        2562 	.align	2
                        2563 
                        2564 	.section ".bss","awb"
                        2565 .L5697:
                        2566 	.type	.L5697,@object
                        2567 	.size	.L5697,0
                        2568 	.data

                                                                      Page 46
                                                              C:\Users\nhuliyap\AppData\Local\Temp\gh_0000d3s1.s
                        2569 	.text
                        2570 	.align	2
                        2571 --_NvM_NoOfBlockIds_t	_NvM_NoOfBlockIds_t	import
                        2572 --_NvM_CompiledConfigId_t	_NvM_CompiledConfigId_t	import
                        2573 --_NvM_InternalBuffer_au8	_NvM_InternalBuffer_au8	import
                        2574 --_NvM_TestBuffer_u8	_NvM_TestBuffer_u8	import
                        2575 --_NvM_NoOfCrcBytes_u16	_NvM_NoOfCrcBytes_u16	import
                        2576 --_NvM_BlockDescriptorTable_at	_NvM_BlockDescriptorTable_at	import
                        2577 --_NvM_BlockMngmtArea_at	_NvM_BlockMngmtArea_at	import
                        2578 --_NvM_DcmBlockMngmt_t	_NvM_DcmBlockMngmt_t	import
                        2579 --_NvM_JobMainState_t	_NvM_JobMainState_t	import
                        2580 --_NvM_JobSubState_t	_NvM_JobSubState_t	import
                        2581 --_NvM_ApiFlags_u8	_NvM_ApiFlags_u8	import
                        2582 --_NvM_CurrentJob_t	_NvM_CurrentJob_t	import
                        2583 --_NvM_CurrentBlockInfo_t	_NvM_CurrentBlockInfo_t	import
                        2584 --_NvM_IntServiceDescrTable_at	_NvM_IntServiceDescrTable_at	import
                        2585 
                        2586 	.section ".rodata","a"
                        2587 	.align	4
                        2588 	.global	_NvM_ActionTable_ap
00000000 00000000*      2589 _NvM_ActionTable_ap:	.word	_NvM_ActSetInitialAttr
00000004 00000000*      2590 	.word	_NvM_ActInitMainFsm
00000008 00000000*      2591 	.word	_NvM_ActInitBlock
0000000c 00000000*      2592 	.word	_NvM_ActInitReadAll
00000010 00000000*      2593 	.word	_NvM_ActInitReadBlockFsm
00000014 00000000*      2594 	.word	_NvM_ActInitWriteAll
00000018 00000000*      2595 	.word	_NvM_ActInitWriteBlock
0000001c 00000000*      2596 	.word	_NvM_ActInitWriteBlockFsm
00000020 00000000*      2597 	.word	_NvM_ActInitRestoreBlockDefaults
00000024 00000000*      2598 	.word	_NvM_ActFinishMainJob
00000028 00000000*      2599 	.word	_NvM_ActKillWriteAll
0000002c 00000000*      2600 	.word	_NvM_ActFinishBlock
00000030 00000000*      2601 	.word	_NvM_ActInitNextBlockReadAll
00000034 00000000*      2602 	.word	_NvM_ActInitNextBlockWriteAll
00000038 00000000*      2603 	.word	_NvM_ActFinishCfgIdCheck
0000003c 00000000*      2604 	.word	_NvM_ActFinishReadBlock
00000040 00000000*      2605 	.word	_NvM_ActFinishWriteBlock
00000044 00000000*      2606 	.word	_NvM_ActFinishEraseBlock
00000048 00000000*      2607 	.word	_NvM_ActEraseNvBlock
0000004c 00000000*      2608 	.word	_NvM_ActInvalidateNvBlock
00000050 00000000*      2609 	.word	_NvM_ActProcessCrc
00000054 00000000*      2610 	.word	_NvM_ActWriteNvBlock
00000058 00000000*      2611 	.word	_NvM_ActReadNvBlock
0000005c 00000000*      2612 	.word	_NvM_ActProcessCrcRead
00000060 00000000*      2613 	.word	_NvM_ActRestoreRomDefaults
00000064 00000000*      2614 	.word	_NvM_ActFinishRestoreRomDefaults
00000068 00000000*      2615 	.word	_NvM_ActTestBlockBlank
0000006c 00000000*      2616 	.word	_NvM_ActValidateRam
00000070 00000000*      2617 	.word	_NvM_ActSetupRedundant
00000074 00000000*      2618 	.word	_NvM_ActSetupOther
00000078 00000000*      2619 	.word	_NvM_ActUpdateNvState
0000007c 00000000*      2620 	.word	_NvM_ActSetReqIntegrityFailed
00000080 00000000*      2621 	.word	_NvM_ActSetReqSkipped
00000084 00000000*      2622 	.word	_NvM_SetBlockPendingWriteAll
00000088 00000000*      2623 	.word	_NvM_ActCopyNvDataToBuf
0000008c 00000000*      2624 	.word	_NvM_ActGetMultiBlockJob
00000090 00000000*      2625 	.word	_NvM_ActGetNormalPrioJob
00000094 00000000*      2626 	.word	_NvM_ActWait
00000098 00000000*      2627 	.word	_NvM_ActNop
                        2628 	.type	_NvM_ActionTable_ap,@object
                        2629 	.size	_NvM_ActionTable_ap,156

                                                                      Page 47
                                                              C:\Users\nhuliyap\AppData\Local\Temp\gh_0000d3s1.s
                        2630 	.data
                        2631 	.ghsnote version,17
                        2632 	.ghsnote tools,3
                        2633 	.ghsnote options,144
                        2634 	.text
                        2635 	.align	2
                        2636 ..eof.C.3A.5C_ECU2.5CECU_Rivian_A1.5CTarget.5Crepo_projects.5CpRealEcu.5CcL_LATEST.5Cmake.5Coutput.5Cobjects.5CNvM_Act...43.3A.5C_ECU2.5CECU_Rivian_A1.5CTarget.5Crepo_projects.5CpRealEcu.5CcL_LATEST.5Cmake..64F82DC0..0::
                        2637 	.section	.debug_info
                        2638 .Ldw_begin:
00000000 bc2d0000       2639 	.word	.Ldw_end-.Ldw_begin-4
00000004 0200           2640 	.byte	2,0
00000006 00000000*      2641 	.word	.Ldw_abbr_begin
0000000a 04             2642 	.byte	4
                        2643 	.section	.debug_abbrev
                        2644 .Ldw_abbr_begin:
                        2645 	.section	.debug_info
0000000b 01             2646 	.byte	1
0000000c 00000000*      2647 	.word	..bof.C.3A.5C_ECU2.5CECU_Rivian_A1.5CTarget.5Crepo_projects.5CpRealEcu.5CcL_LATEST.5Cmake.5Coutput.5Cobjects.5CNvM_Act...43.3A.5C_ECU2.5CECU_Rivian_A1.5CTarget.5Crepo_projects.5CpRealEcu.5CcL_LATEST.5Cmake..64F82DC0..0
00000010 00000000*      2648 	.word	..eof.C.3A.5C_ECU2.5CECU_Rivian_A1.5CTarget.5Crepo_projects.5CpRealEcu.5CcL_LATEST.5Cmake.5Coutput.5Cobjects.5CNvM_Act...43.3A.5C_ECU2.5CECU_Rivian_A1.5CTarget.5Crepo_projects.5CpRealEcu.5CcL_LATEST.5Cmake..64F82DC0..0
00000014 2e2e2f736f75   2649 	.strz	"../source/SwcServiceNvM/NvM_Act.c"
0000001a 7263652f5377 
00000020 635365727669 
00000026 63654e764d2f 
0000002c 4e764d5f4163 
00000032 742e6300 
00000036 433a5c5f4543   2650 	.strz	"C:\\_ECU2\\ECU_Rivian_A1\\Target\\repo_projects\\pRealEcu\\cL_LATEST\\make"
0000003c 55325c454355 
00000042 5f5269766961 
00000048 6e5f41315c54 
0000004e 61726765745c 
00000054 7265706f5f70 
0000005a 726f6a656374 
00000060 735c70526561 
00000066 6c4563755c63 
0000006c 4c5f4c415445 
00000072 53545c6d616b 
00000078 6500 
0000007a 474853204320   2651 	.strz	"GHS C 2015.1.7 [dual]"
00000080 323031352e31 
00000086 2e37205b6475 
0000008c 616c5d00 
00000090 0100           2652 	.byte	1,0
00000092 00000000*      2653 	.word	.Ldw_line_begin
00000096 00000000*      2654 	.word	.Ldw_macinfo_begin
0000009a 00             2655 	.byte	0
                        2656 
                        2657 	.section	.debug_abbrev
00000000 01             2658 	.byte	1
00000001 11             2659 	.byte	17
00000002 01             2660 	.byte	1
00000003 1101           2661 	.byte	17,1
00000005 1201           2662 	.byte	18,1
00000007 0308           2663 	.byte	3,8
00000009 1b08           2664 	.byte	27,8
0000000b 2508           2665 	.byte	37,8
0000000d 1305           2666 	.byte	19,5
0000000f 1006           2667 	.byte	16,6
00000011 4306           2668 	.byte	67,6
00000013 420b           2669 	.byte	66,11
00000015 0000           2670 	.byte	0,0
                        2671 

                                                                      Page 48
                                                              C:\Users\nhuliyap\AppData\Local\Temp\gh_0000d3s1.s
                        2672 	.section	.debug_line
                        2673 .Ldw_line_begin:
00000000 98110000       2674 	.word	.Ldw_line_end-.Ldw_line_begin-4
00000004 0200           2675 	.byte	2,0
00000006 00000000*      2676 	.word	.Ldw_lpro_end-.Ldw_lpro_begin
                        2677 .Ldw_lpro_begin:
0000000a 01             2678 	.byte	1
0000000b 00             2679 	.byte	0
0000000c 00             2680 	.byte	0
0000000d 04             2681 	.byte	4
0000000e 0a             2682 	.byte	10
0000000f 000101         2683 	.byte	0,1,1
00000012 010100         2684 	.byte	1,1,0
00000015 000001         2685 	.byte	0,0,1
00000018 00             2686 	.byte	0
00000019 2e2e2f736f75   2687 	.strz	"../source/SwcServiceNvM/NvM_Act.c"
0000001f 7263652f5377 
00000025 635365727669 
0000002b 63654e764d2f 
00000031 4e764d5f4163 
00000037 742e6300 
0000003b 000000         2688 	.byte	0,0,0
0000003e 2e2e2f736f75   2689 	.strz	"../source/common/Std_Types.hpp"
00000044 7263652f636f 
0000004a 6d6d6f6e2f53 
00000050 74645f547970 
00000056 65732e687070 
0000005c 00 
0000005d 000000         2690 	.byte	0,0,0
00000060 2e2e2f736f75   2691 	.strz	"../source/common/Platform_Types.hpp"
00000066 7263652f636f 
0000006c 6d6d6f6e2f50 
00000072 6c6174666f72 
00000078 6d5f54797065 
0000007e 732e68707000 
00000084 000000         2692 	.byte	0,0,0
00000087 2e2e2f736f75   2693 	.strz	"../source/common/Compiler.hpp"
0000008d 7263652f636f 
00000093 6d6d6f6e2f43 
00000099 6f6d70696c65 
0000009f 722e68707000 
000000a5 000000         2694 	.byte	0,0,0
000000a8 2e2e2f736f75   2695 	.strz	"../source/ProjectCompiler/Compiler_Cfg.hpp"
000000ae 7263652f5072 
000000b4 6f6a65637443 
000000ba 6f6d70696c65 
000000c0 722f436f6d70 
000000c6 696c65725f43 
000000cc 66672e687070 
000000d2 00 
000000d3 000000         2696 	.byte	0,0,0
000000d6 2e2e2f736f75   2697 	.strz	"../source/ProjectCompiler/CompilerCfg_SwcServiceOs.hpp"
000000dc 7263652f5072 
000000e2 6f6a65637443 
000000e8 6f6d70696c65 
000000ee 722f436f6d70 
000000f4 696c65724366 
000000fa 675f53776353 
00000100 657276696365 
00000106 4f732e687070 
0000010c 00 

                                                                      Page 49
                                                              C:\Users\nhuliyap\AppData\Local\Temp\gh_0000d3s1.s
0000010d 000000         2698 	.byte	0,0,0
00000110 2e2e2f736f75   2699 	.strz	"../source/ProjectCfg/NvM_Cfg.hpp"
00000116 7263652f5072 
0000011c 6f6a65637443 
00000122 66672f4e764d 
00000128 5f4366672e68 
0000012e 707000 
00000131 000000         2700 	.byte	0,0,0
00000134 2e2e2f736f75   2701 	.strz	"../source/wrappers/Rte_NvM_Type.hpp"
0000013a 7263652f7772 
00000140 617070657273 
00000146 2f5274655f4e 
0000014c 764d5f547970 
00000152 652e68707000 
00000158 000000         2702 	.byte	0,0,0
0000015b 2e2e2f736f75   2703 	.strz	"../source/McalMcu/Types.hpp"
00000161 7263652f4d63 
00000167 616c4d63752f 
0000016d 54797065732e 
00000173 68707000 
00000177 000000         2704 	.byte	0,0,0
0000017a 2e2e2f736f75   2705 	.strz	"../source/wrappers/SwcServiceDem/Dem_NvmCallbacks.hpp"
00000180 7263652f7772 
00000186 617070657273 
0000018c 2f5377635365 
00000192 727669636544 
00000198 656d2f44656d 
0000019e 5f4e766d4361 
000001a4 6c6c6261636b 
000001aa 732e68707000 
000001b0 000000         2706 	.byte	0,0,0
000001b3 2e2e2f736f75   2707 	.strz	"../source/ProjectCfg/Dem_Cfg_NvmCallbacks.hpp"
000001b9 7263652f5072 
000001bf 6f6a65637443 
000001c5 66672f44656d 
000001cb 5f4366675f4e 
000001d1 766d43616c6c 
000001d7 6261636b732e 
000001dd 68707000 
000001e1 000000         2708 	.byte	0,0,0
000001e4 2e2e2f736f75   2709 	.strz	"../source/wrappers/SwcServiceDem/Dem_Types.hpp"
000001ea 7263652f7772 
000001f0 617070657273 
000001f6 2f5377635365 
000001fc 727669636544 
00000202 656d2f44656d 
00000208 5f5479706573 
0000020e 2e68707000 
00000213 000000         2710 	.byte	0,0,0
00000216 2e2e2f736f75   2711 	.strz	"../source/ProjectCfg/Dem_Cfg.hpp"
0000021c 7263652f5072 
00000222 6f6a65637443 
00000228 66672f44656d 
0000022e 5f4366672e68 
00000234 707000 
00000237 000000         2712 	.byte	0,0,0
0000023a 2e2e2f736f75   2713 	.strz	"../source/ProjectCfg/Dem_Cfg_Client.hpp"
00000240 7263652f5072 
00000246 6f6a65637443 
0000024c 66672f44656d 
00000252 5f4366675f43 

                                                                      Page 50
                                                              C:\Users\nhuliyap\AppData\Local\Temp\gh_0000d3s1.s
00000258 6c69656e742e 
0000025e 68707000 
00000262 000000         2714 	.byte	0,0,0
00000265 2e2e2f736f75   2715 	.strz	"../source/wrappers/SwcServiceDem/Dem_ClientHandlingTypes.hpp"
0000026b 7263652f7772 
00000271 617070657273 
00000277 2f5377635365 
0000027d 727669636544 
00000283 656d2f44656d 
00000289 5f436c69656e 
0000028f 7448616e646c 
00000295 696e67547970 
0000029b 65732e687070 
000002a1 00 
000002a2 000000         2716 	.byte	0,0,0
000002a5 2e2e2f736f75   2717 	.strz	"../source/ProjectCfg/Dem_Cfg_NodeId.hpp"
000002ab 7263652f5072 
000002b1 6f6a65637443 
000002b7 66672f44656d 
000002bd 5f4366675f4e 
000002c3 6f646549642e 
000002c9 68707000 
000002cd 000000         2718 	.byte	0,0,0
000002d0 2e2e2f736f75   2719 	.strz	"../source/ProjectCfg/Dem_Cfg_Version.hpp"
000002d6 7263652f5072 
000002dc 6f6a65637443 
000002e2 66672f44656d 
000002e8 5f4366675f56 
000002ee 657273696f6e 
000002f4 2e68707000 
000002f9 000000         2720 	.byte	0,0,0
000002fc 2e2e2f736f75   2721 	.strz	"../source/wrappers/Rte_Dem_Type.hpp"
00000302 7263652f7772 
00000308 617070657273 
0000030e 2f5274655f44 
00000314 656d5f547970 
0000031a 652e68707000 
00000320 000000         2722 	.byte	0,0,0
00000323 2e2e2f736f75   2723 	.strz	"../source/ProjectCompiler/Dem_MemMap.hpp"
00000329 7263652f5072 
0000032f 6f6a65637443 
00000335 6f6d70696c65 
0000033b 722f44656d5f 
00000341 4d656d4d6170 
00000347 2e68707000 
0000034c 000000         2724 	.byte	0,0,0
0000034f 2e2e2f736f75   2725 	.strz	"../source/ProjectCompiler/Dem_Cfg_MemMap.hpp"
00000355 7263652f5072 
0000035b 6f6a65637443 
00000361 6f6d70696c65 
00000367 722f44656d5f 
0000036d 4366675f4d65 
00000373 6d4d61702e68 
00000379 707000 
0000037c 000000         2726 	.byte	0,0,0
0000037f 2e2e2f736f75   2727 	.strz	"../source/ProjectCompiler/Bsw_MemMap.hpp"
00000385 7263652f5072 
0000038b 6f6a65637443 
00000391 6f6d70696c65 
00000397 722f4273775f 
0000039d 4d656d4d6170 

                                                                      Page 51
                                                              C:\Users\nhuliyap\AppData\Local\Temp\gh_0000d3s1.s
000003a3 2e68707000 
000003a8 000000         2728 	.byte	0,0,0
000003ab 2e2e2f736f75   2729 	.strz	"../source/ProjectCompiler/MemMap_Common.hpp"
000003b1 7263652f5072 
000003b7 6f6a65637443 
000003bd 6f6d70696c65 
000003c3 722f4d656d4d 
000003c9 61705f436f6d 
000003cf 6d6f6e2e6870 
000003d5 7000 
000003d7 000000         2730 	.byte	0,0,0
000003da 2e2e2f736f75   2731 	.strz	"../source/wrappers/SwcApplTpms_NvM.hpp"
000003e0 7263652f7772 
000003e6 617070657273 
000003ec 2f5377634170 
000003f2 706c54706d73 
000003f8 5f4e764d2e68 
000003fe 707000 
00000401 000000         2732 	.byte	0,0,0
00000404 2e2e2f736f75   2733 	.strz	"../source/SwcApplTpms/iTpms_Interface.hpp"
0000040a 7263652f5377 
00000410 634170706c54 
00000416 706d732f6954 
0000041c 706d735f496e 
00000422 746572666163 
00000428 652e68707000 
0000042e 000000         2734 	.byte	0,0,0
00000431 2e2e2f736f75   2735 	.strz	"../source/SwcApplTpms/Tpms_Rte_Data_Type.hpp"
00000437 7263652f5377 
0000043d 634170706c54 
00000443 706d732f5470 
00000449 6d735f527465 
0000044f 5f446174615f 
00000455 547970652e68 
0000045b 707000 
0000045e 000000         2736 	.byte	0,0,0
00000461 2e2e2f736f75   2737 	.strz	"../source/SwcServiceNvM/NvM_Types.hpp"
00000467 7263652f5377 
0000046d 635365727669 
00000473 63654e764d2f 
00000479 4e764d5f5479 
0000047f 7065732e6870 
00000485 7000 
00000487 000000         2738 	.byte	0,0,0
0000048a 2e2e2f736f75   2739 	.strz	"../source/ProjectCompiler/MemMap.hpp"
00000490 7263652f5072 
00000496 6f6a65637443 
0000049c 6f6d70696c65 
000004a2 722f4d656d4d 
000004a8 61702e687070 
000004ae 00 
000004af 000000         2740 	.byte	0,0,0
000004b2 2e2e2f736f75   2741 	.strz	"../source/ProjectCfg/NvM_PrivateCfg.hpp"
000004b8 7263652f5072 
000004be 6f6a65637443 
000004c4 66672f4e764d 
000004ca 5f5072697661 
000004d0 74654366672e 
000004d6 68707000 
000004da 000000         2742 	.byte	0,0,0
000004dd 2e2e2f736f75   2743 	.strz	"../source/EcuabMemIf/MemIf.hpp"

                                                                      Page 52
                                                              C:\Users\nhuliyap\AppData\Local\Temp\gh_0000d3s1.s
000004e3 7263652f4563 
000004e9 7561624d656d 
000004ef 49662f4d656d 
000004f5 49662e687070 
000004fb 00 
000004fc 000000         2744 	.byte	0,0,0
000004ff 2e2e2f736f75   2745 	.strz	"../source/EcuabMemIf/MemIf_Types.hpp"
00000505 7263652f4563 
0000050b 7561624d656d 
00000511 49662f4d656d 
00000517 49665f547970 
0000051d 65732e687070 
00000523 00 
00000524 000000         2746 	.byte	0,0,0
00000527 2e2e2f736f75   2747 	.strz	"../source/ProjectCfg/MemIf_Cfg.hpp"
0000052d 7263652f5072 
00000533 6f6a65637443 
00000539 66672f4d656d 
0000053f 49665f436667 
00000545 2e68707000 
0000054a 000000         2748 	.byte	0,0,0
0000054d 2e2e2f736f75   2749 	.strz	"../source/wrappers/Crc/Crc.hpp"
00000553 7263652f7772 
00000559 617070657273 
0000055f 2f4372632f43 
00000565 72632e687070 
0000056b 00 
0000056c 000000         2750 	.byte	0,0,0
0000056f 2e2e2f736f75   2751 	.strz	"../source/ProjectCfg/Crc_Cfg.hpp"
00000575 7263652f5072 
0000057b 6f6a65637443 
00000581 66672f437263 
00000587 5f4366672e68 
0000058d 707000 
00000590 000000         2752 	.byte	0,0,0
00000593 2e2e2f736f75   2753 	.strz	"../source/ProjectCompiler/Crc_MemMap.hpp"
00000599 7263652f5072 
0000059f 6f6a65637443 
000005a5 6f6d70696c65 
000005ab 722f4372635f 
000005b1 4d656d4d6170 
000005b7 2e68707000 
000005bc 000000         2754 	.byte	0,0,0
000005bf 2e2e2f736f75   2755 	.strz	"../source/SwcServiceNvM/NvM_JobProc.hpp"
000005c5 7263652f5377 
000005cb 635365727669 
000005d1 63654e764d2f 
000005d7 4e764d5f4a6f 
000005dd 6250726f632e 
000005e3 68707000 
000005e7 000000         2756 	.byte	0,0,0
000005ea 2e2e2f736f75   2757 	.strz	"../source/SwcServiceNvM/NvM_Act.hpp"
000005f0 7263652f5377 
000005f6 635365727669 
000005fc 63654e764d2f 
00000602 4e764d5f4163 
00000608 742e68707000 
0000060e 000000         2758 	.byte	0,0,0
00000611 2e2e2f736f75   2759 	.strz	"../source/SwcServiceNvM/NvM_Qry.hpp"
00000617 7263652f5377 
0000061d 635365727669 

                                                                      Page 53
                                                              C:\Users\nhuliyap\AppData\Local\Temp\gh_0000d3s1.s
00000623 63654e764d2f 
00000629 4e764d5f5172 
0000062f 792e68707000 
00000635 000000         2760 	.byte	0,0,0
00000638 2e2e2f736f75   2761 	.strz	"../source/SwcServiceNvM/NvM_Crc.hpp"
0000063e 7263652f5377 
00000644 635365727669 
0000064a 63654e764d2f 
00000650 4e764d5f4372 
00000656 632e68707000 
0000065c 000000         2762 	.byte	0,0,0
0000065f 2e2e2f736f75   2763 	.strz	"../source/SwcServiceNvM/NvM_Queue.hpp"
00000665 7263652f5377 
0000066b 635365727669 
00000671 63654e764d2f 
00000677 4e764d5f5175 
0000067d 6575652e6870 
00000683 7000 
00000685 000000         2764 	.byte	0,0,0
00000688 00             2765 	.byte	0
                        2766 .Ldw_lpro_end:
                        2767 	.section	.debug_macinfo
                        2768 .Ldw_macinfo_begin:
                        2769 	.section	.debug_frame
                        2770 .LDW_4d14688:
00000000 00000000*      2771 	.word	.LDW_unq_2-.LDW_unq_1
                        2772 .LDW_unq_1:
00000004 ffffffff       2773 	.byte	255,255,255,255
00000008 01             2774 	.byte	1
00000009 00             2775 	.byte	0
0000000a 01             2776 	.byte	1
0000000b 01             2777 	.byte	1
0000000c 1f             2778 	.byte	31
0000000d 0c             2779 	.byte	12
0000000e 03             2780 	.byte	3
0000000f 00             2781 	.byte	0
00000010 07             2782 	.byte	7
00000011 00             2783 	.byte	0
00000012 07             2784 	.byte	7
00000013 01             2785 	.byte	1
00000014 07             2786 	.byte	7
00000015 02             2787 	.byte	2
00000016 07             2788 	.byte	7
00000017 03             2789 	.byte	3
00000018 07             2790 	.byte	7
00000019 04             2791 	.byte	4
0000001a 07             2792 	.byte	7
0000001b 05             2793 	.byte	5
0000001c 07             2794 	.byte	7
0000001d 06             2795 	.byte	6
0000001e 07             2796 	.byte	7
0000001f 07             2797 	.byte	7
00000020 07             2798 	.byte	7
00000021 08             2799 	.byte	8
00000022 07             2800 	.byte	7
00000023 09             2801 	.byte	9
00000024 07             2802 	.byte	7
00000025 0a             2803 	.byte	10
00000026 07             2804 	.byte	7
00000027 0b             2805 	.byte	11
00000028 07             2806 	.byte	7

                                                                      Page 54
                                                              C:\Users\nhuliyap\AppData\Local\Temp\gh_0000d3s1.s
00000029 0c             2807 	.byte	12
0000002a 07             2808 	.byte	7
0000002b 0d             2809 	.byte	13
0000002c 07             2810 	.byte	7
0000002d 0e             2811 	.byte	14
0000002e 07             2812 	.byte	7
0000002f 0f             2813 	.byte	15
00000030 07             2814 	.byte	7
00000031 10             2815 	.byte	16
00000032 07             2816 	.byte	7
00000033 11             2817 	.byte	17
00000034 07             2818 	.byte	7
00000035 12             2819 	.byte	18
00000036 07             2820 	.byte	7
00000037 13             2821 	.byte	19
00000038 08             2822 	.byte	8
00000039 14             2823 	.byte	20
0000003a 08             2824 	.byte	8
0000003b 15             2825 	.byte	21
0000003c 08             2826 	.byte	8
0000003d 16             2827 	.byte	22
0000003e 08             2828 	.byte	8
0000003f 17             2829 	.byte	23
00000040 08             2830 	.byte	8
00000041 18             2831 	.byte	24
00000042 08             2832 	.byte	8
00000043 19             2833 	.byte	25
00000044 08             2834 	.byte	8
00000045 1a             2835 	.byte	26
00000046 08             2836 	.byte	8
00000047 1b             2837 	.byte	27
00000048 08             2838 	.byte	8
00000049 1c             2839 	.byte	28
0000004a 08             2840 	.byte	8
0000004b 1d             2841 	.byte	29
0000004c 07             2842 	.byte	7
0000004d 1e             2843 	.byte	30
0000004e 08             2844 	.byte	8
0000004f 1f             2845 	.byte	31
00000050 07             2846 	.byte	7
00000051 20             2847 	.byte	32
00000052 07             2848 	.byte	7
00000053 21             2849 	.byte	33
00000054 07             2850 	.byte	7
00000055 22             2851 	.byte	34
00000056 07             2852 	.byte	7
00000057 23             2853 	.byte	35
00000058 07             2854 	.byte	7
00000059 24             2855 	.byte	36
0000005a 07             2856 	.byte	7
0000005b 25             2857 	.byte	37
0000005c 07             2858 	.byte	7
0000005d 26             2859 	.byte	38
0000005e 07             2860 	.byte	7
0000005f 27             2861 	.byte	39
00000060 07             2862 	.byte	7
00000061 28             2863 	.byte	40
00000062 07             2864 	.byte	7
00000063 29             2865 	.byte	41
00000064 07             2866 	.byte	7
00000065 2a             2867 	.byte	42

                                                                      Page 55
                                                              C:\Users\nhuliyap\AppData\Local\Temp\gh_0000d3s1.s
00000066 07             2868 	.byte	7
00000067 2b             2869 	.byte	43
00000068 07             2870 	.byte	7
00000069 2c             2871 	.byte	44
0000006a 07             2872 	.byte	7
0000006b 2d             2873 	.byte	45
0000006c 07             2874 	.byte	7
0000006d 2e             2875 	.byte	46
0000006e 07             2876 	.byte	7
0000006f 2f             2877 	.byte	47
00000070 07             2878 	.byte	7
00000071 30             2879 	.byte	48
00000072 07             2880 	.byte	7
00000073 31             2881 	.byte	49
00000074 07             2882 	.byte	7
00000075 32             2883 	.byte	50
00000076 07             2884 	.byte	7
00000077 33             2885 	.byte	51
00000078 07             2886 	.byte	7
00000079 34             2887 	.byte	52
0000007a 07             2888 	.byte	7
0000007b 35             2889 	.byte	53
0000007c 07             2890 	.byte	7
0000007d 36             2891 	.byte	54
0000007e 07             2892 	.byte	7
0000007f 37             2893 	.byte	55
00000080 07             2894 	.byte	7
00000081 38             2895 	.byte	56
00000082 07             2896 	.byte	7
00000083 39             2897 	.byte	57
00000084 07             2898 	.byte	7
00000085 3a             2899 	.byte	58
00000086 07             2900 	.byte	7
00000087 3b             2901 	.byte	59
00000088 07             2902 	.byte	7
00000089 3c             2903 	.byte	60
0000008a 07             2904 	.byte	7
0000008b 3d             2905 	.byte	61
0000008c 07             2906 	.byte	7
0000008d 3e             2907 	.byte	62
0000008e 07             2908 	.byte	7
0000008f 3f             2909 	.byte	63
                        2910 .LDW_unq_2:
                        2911 	.section	.debug_info
                        2912 .LDW_48273b0:
0000009b 45             2913 	.byte	69
0000009c 01             2914 	.byte	1
                        2915 
                        2916 	.section	.debug_abbrev
00000017 45             2917 	.byte	69
00000018 15             2918 	.byte	21
00000019 01             2919 	.byte	1
0000001a 270c           2920 	.byte	39,12
0000001c 0000           2921 	.byte	0,0
                        2922 
                        2923 	.section	.debug_info
0000009d 00             2924 	.byte	0
                        2925 
                        2926 .LDW_48270a0:
0000009e 45             2927 	.byte	69
0000009f 01             2928 	.byte	1

                                                                      Page 56
                                                              C:\Users\nhuliyap\AppData\Local\Temp\gh_0000d3s1.s
                        2929 
000000a0 00             2930 	.byte	0
                        2931 
                        2932 .LDW_4827148:
000000a1 45             2933 	.byte	69
000000a2 01             2934 	.byte	1
                        2935 
000000a3 00             2936 	.byte	0
                        2937 
                        2938 .LDW_4827180:
000000a4 45             2939 	.byte	69
000000a5 01             2940 	.byte	1
                        2941 
000000a6 00             2942 	.byte	0
                        2943 
                        2944 .LDW_48273e8:
000000a7 45             2945 	.byte	69
000000a8 01             2946 	.byte	1
                        2947 
000000a9 00             2948 	.byte	0
                        2949 
                        2950 .LDW_4826d90:
000000aa 25             2951 	.byte	37
000000ab 756e7369676e   2952 	.strz	"unsigned char"
000000b1 656420636861 
000000b7 7200 
000000b9 08             2953 	.byte	8
000000ba 01             2954 	.byte	1
                        2955 
                        2956 	.section	.debug_abbrev
0000001e 25             2957 	.byte	37
0000001f 24             2958 	.byte	36
00000020 00             2959 	.byte	0
00000021 0308           2960 	.byte	3,8
00000023 3e0b           2961 	.byte	62,11
00000025 0b0b           2962 	.byte	11,11
00000027 0000           2963 	.byte	0,0
                        2964 
                        2965 	.section	.debug_info
                        2966 .LDW_486ea60:
000000bb 29             2967 	.byte	41
000000bc 00000000*      2968 	.word	.LDW_486ea08
                        2969 
                        2970 	.section	.debug_abbrev
00000029 29             2971 	.byte	41
0000002a 26             2972 	.byte	38
0000002b 00             2973 	.byte	0
0000002c 4910           2974 	.byte	73,16
0000002e 0000           2975 	.byte	0,0
                        2976 
                        2977 	.section	.debug_info
                        2978 .LDW_4826dc8:
000000c0 45             2979 	.byte	69
000000c1 01             2980 	.byte	1
                        2981 
000000c2 00             2982 	.byte	0
                        2983 
                        2984 .LDW_4827458:
000000c3 45             2985 	.byte	69
000000c4 01             2986 	.byte	1
                        2987 

                                                                      Page 57
                                                              C:\Users\nhuliyap\AppData\Local\Temp\gh_0000d3s1.s
000000c5 00             2988 	.byte	0
                        2989 
                        2990 .LDW_4827490:
000000c6 2f             2991 	.byte	47
000000c7 00000000*      2992 	.word	.LDW_4bdecf8
                        2993 
                        2994 	.section	.debug_abbrev
00000030 2f             2995 	.byte	47
00000031 0f             2996 	.byte	15
00000032 00             2997 	.byte	0
00000033 4910           2998 	.byte	73,16
00000035 0000           2999 	.byte	0,0
                        3000 
                        3001 	.section	.debug_info
                        3002 .LDW_4bdeda8:
000000cb 29             3003 	.byte	41
000000cc 00000000*      3004 	.word	.LDW_4bded50
                        3005 
                        3006 .LDW_4bdef08:
000000d0 29             3007 	.byte	41
000000d1 00000000*      3008 	.word	.LDW_4bdeeb0
                        3009 
                        3010 .LDW_4827420:
000000d5 2f             3011 	.byte	47
000000d6 00000000*      3012 	.word	.LDW_4bdef08
                        3013 
                        3014 .LDW_4bdefb8:
000000da 29             3015 	.byte	41
000000db 00000000*      3016 	.word	.LDW_4bdef60
                        3017 
                        3018 .LDW_4be1238:
000000df 45             3019 	.byte	69
000000e0 01             3020 	.byte	1
                        3021 
000000e1 00             3022 	.byte	0
                        3023 
                        3024 .LDW_4be0c88:
000000e2 45             3025 	.byte	69
000000e3 01             3026 	.byte	1
                        3027 
000000e4 00             3028 	.byte	0
                        3029 
                        3030 .LDW_4be1200:
000000e5 25             3031 	.byte	37
000000e6 756e7369676e   3032 	.strz	"unsigned short"
000000ec 65642073686f 
000000f2 727400 
000000f5 07             3033 	.byte	7
000000f6 02             3034 	.byte	2
                        3035 
                        3036 .LDW_48699a0:
000000f7 29             3037 	.byte	41
000000f8 00000000*      3038 	.word	.LDW_4869898
                        3039 
                        3040 .LDW_4be0ef0:
000000fc 45             3041 	.byte	69
000000fd 01             3042 	.byte	1
                        3043 
000000fe 00             3044 	.byte	0
                        3045 
                        3046 .LDW_4be0f60:

                                                                      Page 58
                                                              C:\Users\nhuliyap\AppData\Local\Temp\gh_0000d3s1.s
000000ff 45             3047 	.byte	69
00000100 01             3048 	.byte	1
                        3049 
00000101 00             3050 	.byte	0
                        3051 
                        3052 .LDW_4be1040:
00000102 45             3053 	.byte	69
00000103 01             3054 	.byte	1
                        3055 
00000104 00             3056 	.byte	0
                        3057 
                        3058 .LDW_4be0f98:
00000105 45             3059 	.byte	69
00000106 01             3060 	.byte	1
                        3061 
00000107 00             3062 	.byte	0
                        3063 
                        3064 .LDW_4be1120:
00000108 45             3065 	.byte	69
00000109 01             3066 	.byte	1
                        3067 
0000010a 00             3068 	.byte	0
                        3069 
                        3070 .LDW_4be1078:
0000010b 45             3071 	.byte	69
0000010c 01             3072 	.byte	1
                        3073 
0000010d 00             3074 	.byte	0
                        3075 
                        3076 .LDW_4be10b0:
0000010e 45             3077 	.byte	69
0000010f 01             3078 	.byte	1
                        3079 
00000110 00             3080 	.byte	0
                        3081 
                        3082 .LDW_4869948:
00000111 29             3083 	.byte	41
00000112 00000000*      3084 	.word	.LDW_4869aa8
                        3085 
                        3086 .LDW_4869478:
00000116 29             3087 	.byte	41
00000117 00000000*      3088 	.word	.LDW_4869370
                        3089 
                        3090 .LDW_4be11c8:
0000011b 45             3091 	.byte	69
0000011c 01             3092 	.byte	1
                        3093 
0000011d 00             3094 	.byte	0
                        3095 
                        3096 .LDW_4be12a8:
0000011e 45             3097 	.byte	69
0000011f 01             3098 	.byte	1
                        3099 
00000120 00             3100 	.byte	0
                        3101 
                        3102 .LDW_4be1008:
00000121 45             3103 	.byte	69
00000122 01             3104 	.byte	1
                        3105 
00000123 00             3106 	.byte	0
                        3107 

                                                                      Page 59
                                                              C:\Users\nhuliyap\AppData\Local\Temp\gh_0000d3s1.s
                        3108 .LDW_4be0dd8:
00000124 45             3109 	.byte	69
00000125 01             3110 	.byte	1
                        3111 
00000126 00             3112 	.byte	0
                        3113 
                        3114 .LDW_4be1270:
00000127 45             3115 	.byte	69
00000128 01             3116 	.byte	1
                        3117 
00000129 00             3118 	.byte	0
                        3119 
                        3120 .LDW_4be12e0:
0000012a 2f             3121 	.byte	47
0000012b 00000000*      3122 	.word	.LDW_483c010
                        3123 
                        3124 .LDW_48694d0:
0000012f 29             3125 	.byte	41
00000130 00000000*      3126 	.word	.LDW_48695d8
                        3127 
                        3128 .LDW_4be1318:
00000134 45             3129 	.byte	69
00000135 01             3130 	.byte	1
                        3131 
00000136 00             3132 	.byte	0
                        3133 
                        3134 .LDW_4d52a80:
00000137 29             3135 	.byte	41
00000138 00000000*      3136 	.word	.LDW_48697e8
                        3137 
                        3138 .LDW_4be0fd0:
0000013c 45             3139 	.byte	69
0000013d 01             3140 	.byte	1
                        3141 
0000013e 00             3142 	.byte	0
                        3143 
                        3144 .LDW_4be0e10:
0000013f 2f             3145 	.byte	47
00000140 00000000*      3146 	.word	.LDW_4d52ad8
                        3147 
                        3148 .LDW_4d52c38:
00000144 29             3149 	.byte	41
00000145 00000000*      3150 	.word	.LDW_483c010
                        3151 
                        3152 .LDW_4be0f28:
00000149 2f             3153 	.byte	47
0000014a 00000000*      3154 	.word	.LDW_4d52c38
                        3155 
                        3156 .LDW_4be0cf8:
0000014e 45             3157 	.byte	69
0000014f 01             3158 	.byte	1
                        3159 
                        3160 .LDW_4d512c0:
00000150 12             3161 	.byte	18
00000151 00000000*      3162 	.word	.LDW_4d52be0
00000155 00             3163 	.byte	0
                        3164 
                        3165 	.section	.debug_abbrev
00000037 12             3166 	.byte	18
00000038 05             3167 	.byte	5
00000039 00             3168 	.byte	0

                                                                      Page 60
                                                              C:\Users\nhuliyap\AppData\Local\Temp\gh_0000d3s1.s
0000003a 4910           3169 	.byte	73,16
0000003c 4b0c           3170 	.byte	75,12
0000003e 0000           3171 	.byte	0,0
                        3172 
                        3173 	.section	.debug_info
                        3174 .LDW_4d51260:
00000156 12             3175 	.byte	18
00000157 00000000*      3176 	.word	.LDW_4d52978
0000015b 00             3177 	.byte	0
                        3178 
0000015c 00             3179 	.byte	0
                        3180 
                        3181 .LDW_4be0e48:
0000015d 45             3182 	.byte	69
0000015e 01             3183 	.byte	1
                        3184 
0000015f 00             3185 	.byte	0
                        3186 
                        3187 .LDW_4be0cc0:
00000160 45             3188 	.byte	69
00000161 01             3189 	.byte	1
                        3190 
00000162 00             3191 	.byte	0
                        3192 
                        3193 .LDW_4be0c50:
00000163 45             3194 	.byte	69
00000164 01             3195 	.byte	1
                        3196 
00000165 00             3197 	.byte	0
                        3198 
                        3199 .LDW_4be10e8:
00000166 45             3200 	.byte	69
00000167 01             3201 	.byte	1
                        3202 
00000168 00             3203 	.byte	0
                        3204 
                        3205 .LDW_4be0d68:
00000169 45             3206 	.byte	69
0000016a 01             3207 	.byte	1
                        3208 
0000016b 00             3209 	.byte	0
                        3210 
                        3211 .LDW_4be1158:
0000016c 45             3212 	.byte	69
0000016d 01             3213 	.byte	1
                        3214 
0000016e 00             3215 	.byte	0
                        3216 
                        3217 .LDW_4be0e80:
0000016f 45             3218 	.byte	69
00000170 01             3219 	.byte	1
                        3220 
00000171 00             3221 	.byte	0
                        3222 
                        3223 .LDW_4be1190:
00000172 45             3224 	.byte	69
00000173 01             3225 	.byte	1
                        3226 
00000174 00             3227 	.byte	0
                        3228 
                        3229 .LDW_4be0d30:

                                                                      Page 61
                                                              C:\Users\nhuliyap\AppData\Local\Temp\gh_0000d3s1.s
00000175 45             3230 	.byte	69
00000176 01             3231 	.byte	1
                        3232 
00000177 00             3233 	.byte	0
                        3234 
                        3235 .LDW_4be0da0:
00000178 45             3236 	.byte	69
00000179 01             3237 	.byte	1
                        3238 
                        3239 .LDW_4d505a0:
0000017a 12             3240 	.byte	18
0000017b 00000000*      3241 	.word	.LDW_4be12e0
0000017f 00             3242 	.byte	0
                        3243 
                        3244 .LDW_4d50690:
00000180 12             3245 	.byte	18
00000181 00000000*      3246 	.word	.LDW_483c010
00000185 00             3247 	.byte	0
                        3248 
00000186 00             3249 	.byte	0
                        3250 
                        3251 .LDW_4be0eb8:
00000187 45             3252 	.byte	69
00000188 01             3253 	.byte	1
                        3254 
00000189 00             3255 	.byte	0
                        3256 
                        3257 .LDW_4be1350:
0000018a 45             3258 	.byte	69
0000018b 01             3259 	.byte	1
                        3260 
0000018c 00             3261 	.byte	0
                        3262 
                        3263 .LDW_4be13c0:
0000018d 45             3264 	.byte	69
0000018e 01             3265 	.byte	1
                        3266 
0000018f 00             3267 	.byte	0
                        3268 
                        3269 .LDW_4be1388:
00000190 45             3270 	.byte	69
00000191 01             3271 	.byte	1
                        3272 
00000192 00             3273 	.byte	0
                        3274 
                        3275 .LDW_4d70550:
00000193 45             3276 	.byte	69
00000194 01             3277 	.byte	1
                        3278 
00000195 00             3279 	.byte	0
                        3280 
                        3281 .LDW_4d700b8:
00000196 45             3282 	.byte	69
00000197 01             3283 	.byte	1
                        3284 
00000198 00             3285 	.byte	0
                        3286 
                        3287 .LDW_4d70588:
00000199 45             3288 	.byte	69
0000019a 01             3289 	.byte	1
                        3290 

                                                                      Page 62
                                                              C:\Users\nhuliyap\AppData\Local\Temp\gh_0000d3s1.s
0000019b 00             3291 	.byte	0
                        3292 
                        3293 .LDW_4d70390:
0000019c 45             3294 	.byte	69
0000019d 01             3295 	.byte	1
                        3296 
                        3297 .LDW_4d50750:
0000019e 12             3298 	.byte	18
0000019f 00000000*      3299 	.word	.LDW_4d52be0
000001a3 00             3300 	.byte	0
                        3301 
                        3302 .LDW_4d50900:
000001a4 12             3303 	.byte	18
000001a5 00000000*      3304 	.word	.LDW_48695d8
000001a9 00             3305 	.byte	0
                        3306 
                        3307 .LDW_4d507e0:
000001aa 12             3308 	.byte	18
000001ab 00000000*      3309 	.word	.LDW_4d52978
000001af 00             3310 	.byte	0
                        3311 
000001b0 00             3312 	.byte	0
                        3313 
                        3314 .LDW_4d705f8:
000001b1 44             3315 	.byte	68
000001b2 00000000*      3316 	.word	.LDW_48696e0
000001b6 01             3317 	.byte	1
                        3318 
                        3319 	.section	.debug_abbrev
00000040 44             3320 	.byte	68
00000041 15             3321 	.byte	21
00000042 01             3322 	.byte	1
00000043 4910           3323 	.byte	73,16
00000045 270c           3324 	.byte	39,12
00000047 0000           3325 	.byte	0,0
                        3326 
                        3327 	.section	.debug_info
                        3328 .LDW_4d505d0:
000001b7 12             3329 	.byte	18
000001b8 00000000*      3330 	.word	.LDW_486ea60
000001bc 00             3331 	.byte	0
                        3332 
                        3333 .LDW_4d50960:
000001bd 12             3334 	.byte	18
000001be 00000000*      3335 	.word	.LDW_4d52c38
000001c2 00             3336 	.byte	0
                        3337 
000001c3 00             3338 	.byte	0
                        3339 
                        3340 .LDW_4d527c0:
000001c4 29             3341 	.byte	41
000001c5 00000000*      3342 	.word	.LDW_486eb10
                        3343 
                        3344 .LDW_4d70320:
000001c9 45             3345 	.byte	69
000001ca 01             3346 	.byte	1
                        3347 
                        3348 .LDW_4d50600:
000001cb 12             3349 	.byte	18
000001cc 00000000*      3350 	.word	.LDW_4d527c0
000001d0 00             3351 	.byte	0

                                                                      Page 63
                                                              C:\Users\nhuliyap\AppData\Local\Temp\gh_0000d3s1.s
                        3352 
000001d1 00             3353 	.byte	0
                        3354 
                        3355 .LDW_4d70278:
000001d2 25             3356 	.byte	37
000001d3 756e7369676e   3357 	.strz	"unsigned long"
000001d9 6564206c6f6e 
000001df 6700 
000001e1 07             3358 	.byte	7
000001e2 04             3359 	.byte	4
                        3360 
                        3361 .LDW_4d70668:
000001e3 25             3362 	.byte	37
000001e4 756e7369676e   3363 	.strz	"unsigned int"
000001ea 656420696e74 
000001f0 00 
000001f1 07             3364 	.byte	7
000001f2 04             3365 	.byte	4
                        3366 
                        3367 .LDW_4d706d8:
000001f3 25             3368 	.byte	37
000001f4 696e7400       3369 	.strz	"int"
000001f8 05             3370 	.byte	5
000001f9 04             3371 	.byte	4
                        3372 
                        3373 .LDW_486a1d8:
000001fa 3a             3374 	.byte	58
000001fb 00             3375 	.byte	0
000001fc 02             3376 	.byte	2
000001fd 00000000*      3377 	.word	.LDW_483c010
                        3378 
                        3379 	.section	.debug_abbrev
00000049 3a             3380 	.byte	58
0000004a 01             3381 	.byte	1
0000004b 01             3382 	.byte	1
0000004c 090b           3383 	.byte	9,11
0000004e 0b0f           3384 	.byte	11,15
00000050 4910           3385 	.byte	73,16
00000052 0000           3386 	.byte	0,0
                        3387 
                        3388 	.section	.debug_info
00000201 32             3389 	.byte	50
00000202 00000000*      3390 	.word	.LDW_4d706d8
00000206 04             3391 	.byte	4
00000207 00             3392 	.byte	0
00000208 01             3393 	.byte	1
                        3394 
                        3395 	.section	.debug_abbrev
00000054 32             3396 	.byte	50
00000055 21             3397 	.byte	33
00000056 00             3398 	.byte	0
00000057 4910           3399 	.byte	73,16
00000059 0b0f           3400 	.byte	11,15
0000005b 220d           3401 	.byte	34,13
0000005d 2f0d           3402 	.byte	47,13
0000005f 0000           3403 	.byte	0,0
                        3404 
                        3405 	.section	.debug_info
00000209 00             3406 	.byte	0
                        3407 
                        3408 .LDW_4d707f0:

                                                                      Page 64
                                                              C:\Users\nhuliyap\AppData\Local\Temp\gh_0000d3s1.s
0000020a 44             3409 	.byte	68
0000020b 00000000*      3410 	.word	.LDW_4869630
0000020f 01             3411 	.byte	1
                        3412 
                        3413 .LDW_4d50b10:
00000210 12             3414 	.byte	18
00000211 00000000*      3415 	.word	.LDW_4d55e00
00000215 00             3416 	.byte	0
                        3417 
                        3418 .LDW_4d50810:
00000216 12             3419 	.byte	18
00000217 00000000*      3420 	.word	.LDW_486eb10
0000021b 00             3421 	.byte	0
                        3422 
0000021c 00             3423 	.byte	0
                        3424 
                        3425 .LDW_4d5a6c8:
0000021d 2f             3426 	.byte	47
0000021e 00000000*      3427 	.word	.LDW_4d707f0
                        3428 
                        3429 .LDW_4d5ab28:
00000222 44             3430 	.byte	68
00000223 00000000*      3431 	.word	.LDW_4869630
00000227 01             3432 	.byte	1
                        3433 
00000228 00             3434 	.byte	0
                        3435 
                        3436 .LDW_4d5a7e0:
00000229 2f             3437 	.byte	47
0000022a 00000000*      3438 	.word	.LDW_4d5ab28
                        3439 
                        3440 .LDW_4d5a5e8:
0000022e 25             3441 	.byte	37
0000022f 766f69642a00   3442 	.strz	"void*"
00000235 01             3443 	.byte	1
00000236 04             3444 	.byte	4
                        3445 
                        3446 .LDW_4d5a9a0:
00000237 44             3447 	.byte	68
00000238 00000000*      3448 	.word	.LDW_4869630
0000023c 01             3449 	.byte	1
                        3450 
                        3451 .LDW_4d50b40:
0000023d 12             3452 	.byte	18
0000023e 00000000*      3453 	.word	.LDW_4d5a5e8
00000242 00             3454 	.byte	0
                        3455 
00000243 00             3456 	.byte	0
                        3457 
                        3458 .LDW_4d5a8f8:
00000244 2f             3459 	.byte	47
00000245 00000000*      3460 	.word	.LDW_4d5a9a0
                        3461 
                        3462 .LDW_4d5a558:
00000249 2a             3463 	.byte	42
                        3464 
                        3465 	.section	.debug_abbrev
00000061 2a             3466 	.byte	42
00000062 26             3467 	.byte	38
00000063 00             3468 	.byte	0
00000064 0000           3469 	.byte	0,0

                                                                      Page 65
                                                              C:\Users\nhuliyap\AppData\Local\Temp\gh_0000d3s1.s
                        3470 
                        3471 	.section	.debug_info
                        3472 .LDW_4d5aa48:
0000024a 2f             3473 	.byte	47
0000024b 00000000*      3474 	.word	.LDW_4d5a558
                        3475 
                        3476 .LDW_4d5a9d8:
0000024f 44             3477 	.byte	68
00000250 00000000*      3478 	.word	.LDW_4869630
00000254 01             3479 	.byte	1
                        3480 
                        3481 .LDW_4d50cf0:
00000255 12             3482 	.byte	18
00000256 00000000*      3483 	.word	.LDW_4d5aa48
0000025a 00             3484 	.byte	0
                        3485 
0000025b 00             3486 	.byte	0
                        3487 
                        3488 .LDW_4d5a818:
0000025c 2f             3489 	.byte	47
0000025d 00000000*      3490 	.word	.LDW_4d5a9d8
                        3491 
                        3492 .LDW_4d5a658:
00000261 2f             3493 	.byte	47
00000262 00000000*      3494 	.word	.LDW_4869478
                        3495 
                        3496 .LDW_4d5aa10:
00000266 45             3497 	.byte	69
00000267 01             3498 	.byte	1
                        3499 
00000268 00             3500 	.byte	0
                        3501 
                        3502 .LDW_4d5a8c0:
00000269 2f             3503 	.byte	47
0000026a 00000000*      3504 	.word	.LDW_4d5aa10
                        3505 
                        3506 .LDW_4d5a930:
0000026e 2f             3507 	.byte	47
0000026f 00000000*      3508 	.word	.LDW_4d534d0
                        3509 
                        3510 .LDW_4d5abd0:
00000273 45             3511 	.byte	69
00000274 01             3512 	.byte	1
                        3513 
                        3514 .LDW_4d50e10:
00000275 12             3515 	.byte	18
00000276 00000000*      3516 	.word	.LDW_4d52978
0000027a 00             3517 	.byte	0
                        3518 
                        3519 .LDW_4d50ea0:
0000027b 12             3520 	.byte	18
0000027c 00000000*      3521 	.word	.LDW_48697e8
00000280 00             3522 	.byte	0
                        3523 
                        3524 .LDW_4d50e40:
00000281 12             3525 	.byte	18
00000282 00000000*      3526 	.word	.LDW_4d59690
00000286 00             3527 	.byte	0
                        3528 
00000287 00             3529 	.byte	0
                        3530 

                                                                      Page 66
                                                              C:\Users\nhuliyap\AppData\Local\Temp\gh_0000d3s1.s
                        3531 .LDW_4d5ac08:
00000288 2f             3532 	.byte	47
00000289 00000000*      3533 	.word	.LDW_4d5abd0
                        3534 
                        3535 .LDW_4d5a700:
0000028d 44             3536 	.byte	68
0000028e 00000000*      3537 	.word	.LDW_48696e0
00000292 01             3538 	.byte	1
                        3539 
                        3540 .LDW_4d51050:
00000293 12             3541 	.byte	18
00000294 00000000*      3542 	.word	.LDW_4d59f28
00000298 00             3543 	.byte	0
                        3544 
                        3545 .LDW_4d50f30:
00000299 12             3546 	.byte	18
0000029a 00000000*      3547 	.word	.LDW_4d59798
0000029e 00             3548 	.byte	0
                        3549 
0000029f 00             3550 	.byte	0
                        3551 
                        3552 .LDW_4d5a770:
000002a0 2f             3553 	.byte	47
000002a1 00000000*      3554 	.word	.LDW_4d5a700
                        3555 
                        3556 .LDW_4d5a7a8:
000002a5 45             3557 	.byte	69
000002a6 01             3558 	.byte	1
                        3559 
                        3560 .LDW_4d50de0:
000002a7 12             3561 	.byte	18
000002a8 00000000*      3562 	.word	.LDW_4d59ed0
000002ac 00             3563 	.byte	0
                        3564 
                        3565 .LDW_4d510b0:
000002ad 12             3566 	.byte	18
000002ae 00000000*      3567 	.word	.LDW_4d59798
000002b2 00             3568 	.byte	0
                        3569 
000002b3 00             3570 	.byte	0
                        3571 
                        3572 .LDW_4d5a690:
000002b4 2f             3573 	.byte	47
000002b5 00000000*      3574 	.word	.LDW_4d5a7a8
                        3575 
                        3576 .LDW_4d59950:
000002b9 29             3577 	.byte	41
000002ba 00000000*      3578 	.word	.LDW_4d59c68
                        3579 
                        3580 .LDW_4d5a888:
000002be 2f             3581 	.byte	47
000002bf 00000000*      3582 	.word	.LDW_4d59950
                        3583 
                        3584 .LDW_4d5a968:
000002c3 2f             3585 	.byte	47
000002c4 00000000*      3586 	.word	.LDW_4d59d18
                        3587 
                        3588 .LDW_4d5a088:
000002c8 29             3589 	.byte	41
000002c9 00000000*      3590 	.word	.LDW_4d59d18
                        3591 

                                                                      Page 67
                                                              C:\Users\nhuliyap\AppData\Local\Temp\gh_0000d3s1.s
                        3592 .LDW_4d5ac40:
000002cd 2f             3593 	.byte	47
000002ce 00000000*      3594 	.word	.LDW_4d5a088
                        3595 
                        3596 .LDW_4d7cd50:
000002d2 29             3597 	.byte	41
000002d3 00000000*      3598 	.word	.LDW_4d56118
                        3599 
                        3600 .LDW_4d7b7d0:
000002d7 3b             3601 	.byte	59
000002d8 00             3602 	.byte	0
000002d9 00000000*      3603 	.word	.LDW_483c010
                        3604 
                        3605 	.section	.debug_abbrev
00000066 3b             3606 	.byte	59
00000067 01             3607 	.byte	1
00000068 01             3608 	.byte	1
00000069 090b           3609 	.byte	9,11
0000006b 4910           3610 	.byte	73,16
0000006d 0000           3611 	.byte	0,0
                        3612 
                        3613 	.section	.debug_info
000002dd 32             3614 	.byte	50
000002de 00000000*      3615 	.word	.LDW_4d706d8
000002e2 04             3616 	.byte	4
000002e3 00             3617 	.byte	0
000002e4 7f             3618 	.byte	127
                        3619 
000002e5 00             3620 	.byte	0
                        3621 
                        3622 .LDW_4d7b528:
000002e6 3b             3623 	.byte	59
000002e7 00             3624 	.byte	0
000002e8 00000000*      3625 	.word	.LDW_4bdef08
                        3626 
000002ec 32             3627 	.byte	50
000002ed 00000000*      3628 	.word	.LDW_4d706d8
000002f1 04             3629 	.byte	4
000002f2 00             3630 	.byte	0
000002f3 7f             3631 	.byte	127
                        3632 
000002f4 00             3633 	.byte	0
                        3634 
                        3635 .LDW_4d7b1f8:
000002f5 3b             3636 	.byte	59
000002f6 00             3637 	.byte	0
000002f7 00000000*      3638 	.word	.LDW_4bdecf8
                        3639 
000002fb 32             3640 	.byte	50
000002fc 00000000*      3641 	.word	.LDW_4d706d8
00000300 04             3642 	.byte	4
00000301 00             3643 	.byte	0
00000302 7f             3644 	.byte	127
                        3645 
00000303 00             3646 	.byte	0
                        3647 
                        3648 .LDW_4d7d7a0:
00000304 29             3649 	.byte	41
00000305 00000000*      3650 	.word	.LDW_4d5dbe0
                        3651 
                        3652 .LDW_4d7b170:

                                                                      Page 68
                                                              C:\Users\nhuliyap\AppData\Local\Temp\gh_0000d3s1.s
00000309 3b             3653 	.byte	59
0000030a 00             3654 	.byte	0
0000030b 00000000*      3655 	.word	.LDW_4d7d7a0
                        3656 
0000030f 32             3657 	.byte	50
00000310 00000000*      3658 	.word	.LDW_4d706d8
00000314 04             3659 	.byte	4
00000315 00             3660 	.byte	0
00000316 7f             3661 	.byte	127
                        3662 
00000317 00             3663 	.byte	0
                        3664 
                        3665 .LDW_4d7d698:
00000318 29             3666 	.byte	41
00000319 00000000*      3667 	.word	.LDW_4d59e78
                        3668 
                        3669 .LDW_4d7b280:
0000031d 3a             3670 	.byte	58
0000031e 00             3671 	.byte	0
0000031f 9c01           3672 	.byte	156,1
00000321 00000000*      3673 	.word	.LDW_4d7d698
                        3674 
00000325 32             3675 	.byte	50
00000326 00000000*      3676 	.word	.LDW_4d706d8
0000032a 04             3677 	.byte	4
0000032b 00             3678 	.byte	0
0000032c 26             3679 	.byte	38
                        3680 
0000032d 00             3681 	.byte	0
                        3682 
                        3683 .LDW_4d814a8:
0000032e 44             3684 	.byte	68
0000032f 00000000*      3685 	.word	.LDW_4869630
00000333 01             3686 	.byte	1
                        3687 
                        3688 .LDW_4d7e938:
00000334 12             3689 	.byte	18
00000335 00000000*      3690 	.word	.LDW_483c010
00000339 00             3691 	.byte	0
                        3692 
                        3693 .LDW_4d7e9f8:
0000033a 12             3694 	.byte	18
0000033b 00000000*      3695 	.word	.LDW_48697e8
0000033f 00             3696 	.byte	0
                        3697 
                        3698 .LDW_4d7e758:
00000340 12             3699 	.byte	18
00000341 00000000*      3700 	.word	.LDW_48697e8
00000345 00             3701 	.byte	0
                        3702 
                        3703 .LDW_4d7e698:
00000346 12             3704 	.byte	18
00000347 00000000*      3705 	.word	.LDW_4d564e0
0000034b 00             3706 	.byte	0
                        3707 
                        3708 .LDW_4d7e6f8:
0000034c 12             3709 	.byte	18
0000034d 00000000*      3710 	.word	.LDW_48697e8
00000351 00             3711 	.byte	0
                        3712 
00000352 00             3713 	.byte	0

                                                                      Page 69
                                                              C:\Users\nhuliyap\AppData\Local\Temp\gh_0000d3s1.s
                        3714 
                        3715 .LDW_4d814e0:
00000353 44             3716 	.byte	68
00000354 00000000*      3717 	.word	.LDW_4869630
00000358 01             3718 	.byte	1
                        3719 
                        3720 .LDW_4d7e6c8:
00000359 12             3721 	.byte	18
0000035a 00000000*      3722 	.word	.LDW_483c010
0000035e 00             3723 	.byte	0
                        3724 
                        3725 .LDW_4d7e968:
0000035f 12             3726 	.byte	18
00000360 00000000*      3727 	.word	.LDW_48697e8
00000364 00             3728 	.byte	0
                        3729 
                        3730 .LDW_4d7e848:
00000365 12             3731 	.byte	18
00000366 00000000*      3732 	.word	.LDW_4d564e0
0000036a 00             3733 	.byte	0
                        3734 
0000036b 00             3735 	.byte	0
                        3736 
                        3737 .LDW_4d81518:
0000036c 44             3738 	.byte	68
0000036d 00000000*      3739 	.word	.LDW_4869630
00000371 01             3740 	.byte	1
                        3741 
                        3742 .LDW_4d7ea28:
00000372 12             3743 	.byte	18
00000373 00000000*      3744 	.word	.LDW_483c010
00000377 00             3745 	.byte	0
                        3746 
                        3747 .LDW_4d7e878:
00000378 12             3748 	.byte	18
00000379 00000000*      3749 	.word	.LDW_48697e8
0000037d 00             3750 	.byte	0
                        3751 
0000037e 00             3752 	.byte	0
                        3753 
                        3754 .LDW_4d819b0:
0000037f 44             3755 	.byte	68
00000380 00000000*      3756 	.word	.LDW_4869630
00000384 01             3757 	.byte	1
                        3758 
                        3759 .LDW_4d7e8d8:
00000385 12             3760 	.byte	18
00000386 00000000*      3761 	.word	.LDW_483c010
0000038a 00             3762 	.byte	0
                        3763 
                        3764 .LDW_4d7e728:
0000038b 12             3765 	.byte	18
0000038c 00000000*      3766 	.word	.LDW_48697e8
00000390 00             3767 	.byte	0
                        3768 
00000391 00             3769 	.byte	0
                        3770 
                        3771 .LDW_4d81a20:
00000392 45             3772 	.byte	69
00000393 01             3773 	.byte	1
                        3774 

                                                                      Page 70
                                                              C:\Users\nhuliyap\AppData\Local\Temp\gh_0000d3s1.s
                        3775 .LDW_4d7e7e8:
00000394 12             3776 	.byte	18
00000395 00000000*      3777 	.word	.LDW_483c010
00000399 00             3778 	.byte	0
                        3779 
0000039a 00             3780 	.byte	0
                        3781 
                        3782 .LDW_4d819e8:
0000039b 44             3783 	.byte	68
0000039c 00000000*      3784 	.word	.LDW_4d560c0
000003a0 01             3785 	.byte	1
                        3786 
                        3787 .LDW_4d7e8a8:
000003a1 12             3788 	.byte	18
000003a2 00000000*      3789 	.word	.LDW_483c010
000003a6 00             3790 	.byte	0
                        3791 
000003a7 00             3792 	.byte	0
                        3793 
                        3794 .LDW_4d81ab8:
000003a8 45             3795 	.byte	69
000003a9 01             3796 	.byte	1
                        3797 
                        3798 .LDW_4d7e998:
000003aa 12             3799 	.byte	18
000003ab 00000000*      3800 	.word	.LDW_4d56430
000003af 00             3801 	.byte	0
                        3802 
000003b0 00             3803 	.byte	0
                        3804 
                        3805 .LDW_4d81f50:
000003b1 45             3806 	.byte	69
000003b2 01             3807 	.byte	1
                        3808 
000003b3 00             3809 	.byte	0
                        3810 
                        3811 .LDW_4d82030:
000003b4 45             3812 	.byte	69
000003b5 01             3813 	.byte	1
                        3814 
000003b6 00             3815 	.byte	0
                        3816 
                        3817 .LDW_4d81d20:
000003b7 45             3818 	.byte	69
000003b8 01             3819 	.byte	1
                        3820 
                        3821 .LDW_4d7e9c8:
000003b9 12             3822 	.byte	18
000003ba 00000000*      3823 	.word	.LDW_4d55e00
000003be 00             3824 	.byte	0
                        3825 
                        3826 .LDW_4d7e788:
000003bf 12             3827 	.byte	18
000003c0 00000000*      3828 	.word	.LDW_486eb10
000003c4 00             3829 	.byte	0
                        3830 
000003c5 00             3831 	.byte	0
                        3832 
                        3833 .LDW_4d81ff8:
000003c6 45             3834 	.byte	69
000003c7 01             3835 	.byte	1

                                                                      Page 71
                                                              C:\Users\nhuliyap\AppData\Local\Temp\gh_0000d3s1.s
                        3836 
                        3837 .LDW_4d7e7b8:
000003c8 12             3838 	.byte	18
000003c9 00000000*      3839 	.word	.LDW_4869898
000003cd 00             3840 	.byte	0
                        3841 
                        3842 .LDW_4d85378:
000003ce 12             3843 	.byte	18
000003cf 00000000*      3844 	.word	.LDW_4d55e00
000003d3 00             3845 	.byte	0
                        3846 
                        3847 .LDW_4d85468:
000003d4 12             3848 	.byte	18
000003d5 00000000*      3849 	.word	.LDW_486eb10
000003d9 00             3850 	.byte	0
                        3851 
000003da 00             3852 	.byte	0
                        3853 
                        3854 .LDW_4d81b28:
000003db 45             3855 	.byte	69
000003dc 01             3856 	.byte	1
                        3857 
                        3858 .LDW_4d84fb8:
000003dd 12             3859 	.byte	18
000003de 00000000*      3860 	.word	.LDW_4d59a00
000003e2 00             3861 	.byte	0
                        3862 
                        3863 .LDW_4d85288:
000003e3 12             3864 	.byte	18
000003e4 00000000*      3865 	.word	.LDW_4869898
000003e8 00             3866 	.byte	0
                        3867 
                        3868 .LDW_4d84fe8:
000003e9 12             3869 	.byte	18
000003ea 00000000*      3870 	.word	.LDW_48695d8
000003ee 00             3871 	.byte	0
                        3872 
000003ef 00             3873 	.byte	0
                        3874 
                        3875 .LDW_4d81ee0:
000003f0 45             3876 	.byte	69
000003f1 01             3877 	.byte	1
                        3878 
                        3879 .LDW_4d852b8:
000003f2 12             3880 	.byte	18
000003f3 00000000*      3881 	.word	.LDW_4d59a00
000003f7 00             3882 	.byte	0
                        3883 
                        3884 .LDW_4d85078:
000003f8 12             3885 	.byte	18
000003f9 00000000*      3886 	.word	.LDW_48697e8
000003fd 00             3887 	.byte	0
                        3888 
000003fe 00             3889 	.byte	0
                        3890 
                        3891 .LDW_4d820a0:
000003ff 45             3892 	.byte	69
00000400 01             3893 	.byte	1
                        3894 
                        3895 .LDW_4d852e8:
00000401 12             3896 	.byte	18

                                                                      Page 72
                                                              C:\Users\nhuliyap\AppData\Local\Temp\gh_0000d3s1.s
00000402 00000000*      3897 	.word	.LDW_4d59a58
00000406 00             3898 	.byte	0
                        3899 
00000407 00             3900 	.byte	0
                        3901 
                        3902 .LDW_4d81b98:
00000408 44             3903 	.byte	68
00000409 00000000*      3904 	.word	.LDW_48696e0
0000040d 01             3905 	.byte	1
                        3906 
                        3907 .LDW_4d853a8:
0000040e 12             3908 	.byte	18
0000040f 00000000*      3909 	.word	.LDW_4d59a58
00000413 00             3910 	.byte	0
                        3911 
00000414 00             3912 	.byte	0
                        3913 
                        3914 .LDW_4d82110:
00000415 45             3915 	.byte	69
00000416 01             3916 	.byte	1
                        3917 
                        3918 .LDW_4d853d8:
00000417 12             3919 	.byte	18
00000418 00000000*      3920 	.word	.LDW_4d59a58
0000041c 00             3921 	.byte	0
                        3922 
                        3923 .LDW_4d850a8:
0000041d 12             3924 	.byte	18
0000041e 00000000*      3925 	.word	.LDW_4d59ed0
00000422 00             3926 	.byte	0
                        3927 
00000423 00             3928 	.byte	0
                        3929 
                        3930 .LDW_4d81e38:
00000424 45             3931 	.byte	69
00000425 01             3932 	.byte	1
                        3933 
                        3934 .LDW_4d85438:
00000426 12             3935 	.byte	18
00000427 00000000*      3936 	.word	.LDW_4d59a58
0000042b 00             3937 	.byte	0
                        3938 
                        3939 .LDW_4d84ef8:
0000042c 12             3940 	.byte	18
0000042d 00000000*      3941 	.word	.LDW_4d59f28
00000431 00             3942 	.byte	0
                        3943 
00000432 00             3944 	.byte	0
                        3945 
                        3946 .LDW_4d81cb0:
00000433 45             3947 	.byte	69
00000434 01             3948 	.byte	1
                        3949 
00000435 00             3950 	.byte	0
                        3951 
                        3952 .LDW_48696e0:
00000436 28             3953 	.byte	40
00000437 626f6f6c6561   3954 	.strz	"boolean"
0000043d 6e00 
0000043f 4e             3955 	.byte	78
00000440 49             3956 	.byte	73

                                                                      Page 73
                                                              C:\Users\nhuliyap\AppData\Local\Temp\gh_0000d3s1.s
00000441 03             3957 	.byte	3
00000442 00000000*      3958 	.word	.LDW_4826d90
                        3959 
                        3960 	.section	.debug_abbrev
0000006f 28             3961 	.byte	40
00000070 16             3962 	.byte	22
00000071 00             3963 	.byte	0
00000072 0308           3964 	.byte	3,8
00000074 3b0f           3965 	.byte	59,15
00000076 390f           3966 	.byte	57,15
00000078 3a0f           3967 	.byte	58,15
0000007a 4910           3968 	.byte	73,16
0000007c 0000           3969 	.byte	0,0
                        3970 
                        3971 	.section	.debug_info
                        3972 .LDW_483c010:
00000446 28             3973 	.byte	40
00000447 75696e743800   3974 	.strz	"uint8"
0000044d 50             3975 	.byte	80
0000044e 4b             3976 	.byte	75
0000044f 03             3977 	.byte	3
00000450 00000000*      3978 	.word	.LDW_4826d90
                        3979 
                        3980 .LDW_48697e8:
00000454 28             3981 	.byte	40
00000455 75696e743136   3982 	.strz	"uint16"
0000045b 00 
0000045c 52             3983 	.byte	82
0000045d 4a             3984 	.byte	74
0000045e 03             3985 	.byte	3
0000045f 00000000*      3986 	.word	.LDW_4be1200
                        3987 
                        3988 .LDW_4d534d0:
00000463 28             3989 	.byte	40
00000464 75696e743332   3990 	.strz	"uint32"
0000046a 00 
0000046b 54             3991 	.byte	84
0000046c 4a             3992 	.byte	74
0000046d 03             3993 	.byte	3
0000046e 00000000*      3994 	.word	.LDW_4d70278
                        3995 
                        3996 .LDW_4869630:
00000472 28             3997 	.byte	40
00000473 5374645f5265   3998 	.strz	"Std_ReturnType"
00000479 7475726e5479 
0000047f 706500 
00000482 4e             3999 	.byte	78
00000483 0f             4000 	.byte	15
00000484 02             4001 	.byte	2
00000485 00000000*      4002 	.word	.LDW_483c010
                        4003 
                        4004 .LDW_486eb10:
00000489 28             4005 	.byte	40
0000048a 4e764d5f5265   4006 	.strz	"NvM_RequestResultType"
00000490 717565737452 
00000496 6573756c7454 
0000049c 79706500 
000004a0 0b             4007 	.byte	11
000004a1 0f             4008 	.byte	15
000004a2 1a             4009 	.byte	26
000004a3 00000000*      4010 	.word	.LDW_483c010

                                                                      Page 74
                                                              C:\Users\nhuliyap\AppData\Local\Temp\gh_0000d3s1.s
                        4011 
                        4012 .LDW_4869898:
000004a7 28             4013 	.byte	40
000004a8 4e764d5f426c   4014 	.strz	"NvM_BlockIdType"
000004ae 6f636b496454 
000004b4 79706500 
000004b8 0f             4015 	.byte	15
000004b9 10             4016 	.byte	16
000004ba 1a             4017 	.byte	26
000004bb 00000000*      4018 	.word	.LDW_48697e8
                        4019 
                        4020 .LDW_4d55e00:
000004bf 28             4021 	.byte	40
000004c0 4e764d5f5365   4022 	.strz	"NvM_ServiceIdType"
000004c6 727669636549 
000004cc 645479706500 
000004d2 2f             4023 	.byte	47
000004d3 0f             4024 	.byte	15
000004d4 1a             4025 	.byte	26
000004d5 00000000*      4026 	.word	.LDW_483c010
                        4027 
                        4028 .LDW_4d55eb0:
000004d9 43             4029 	.byte	67
000004da 9801           4030 	.byte	152,1
000004dc 0e             4031 	.byte	14
000004dd 07             4032 	.byte	7
000004de 02             4033 	.byte	2
000004df 01             4034 	.byte	1
                        4035 
                        4036 	.section	.debug_abbrev
0000007e 43             4037 	.byte	67
0000007f 17             4038 	.byte	23
00000080 01             4039 	.byte	1
00000081 3b0f           4040 	.byte	59,15
00000083 390f           4041 	.byte	57,15
00000085 3a0f           4042 	.byte	58,15
00000087 0b0f           4043 	.byte	11,15
00000089 320b           4044 	.byte	50,11
0000008b 0000           4045 	.byte	0,0
                        4046 
                        4047 	.section	.debug_info
                        4048 .LDW_4d57a98:
000004e0 23             4049 	.byte	35
000004e1 576f72645f75   4050 	.strz	"Word_u16"
000004e7 313600 
000004ea 9901           4051 	.byte	153,1
000004ec 0b             4052 	.byte	11
000004ed 07             4053 	.byte	7
000004ee 00000000*      4054 	.word	.LDW_48697e8
000004f2 0223           4055 	.byte	2,35
000004f4 00             4056 	.byte	0
000004f5 01             4057 	.byte	1
                        4058 
                        4059 	.section	.debug_abbrev
0000008d 23             4060 	.byte	35
0000008e 0d             4061 	.byte	13
0000008f 00             4062 	.byte	0
00000090 0308           4063 	.byte	3,8
00000092 3b0f           4064 	.byte	59,15
00000094 390f           4065 	.byte	57,15
00000096 3a0f           4066 	.byte	58,15

                                                                      Page 75
                                                              C:\Users\nhuliyap\AppData\Local\Temp\gh_0000d3s1.s
00000098 4910           4067 	.byte	73,16
0000009a 380a           4068 	.byte	56,10
0000009c 320b           4069 	.byte	50,11
0000009e 0000           4070 	.byte	0,0
                        4071 
                        4072 	.section	.debug_info
                        4073 .LDW_4d576a8:
000004f6 23             4074 	.byte	35
000004f7 42797465735f   4075 	.strz	"Bytes_au8"
000004fd 61753800 
00000501 9a01           4076 	.byte	154,1
00000503 0b             4077 	.byte	11
00000504 07             4078 	.byte	7
00000505 00000000*      4079 	.word	.LDW_486a1d8
00000509 0223           4080 	.byte	2,35
0000050b 00             4081 	.byte	0
0000050c 01             4082 	.byte	1
                        4083 
0000050d 00             4084 	.byte	0
                        4085 
                        4086 .LDW_4d56118:
0000050e 28             4087 	.byte	40
0000050f 4e764d5f436f   4088 	.strz	"NvM_CompiledConfigIdType"
00000515 6d70696c6564 
0000051b 436f6e666967 
00000521 496454797065 
00000527 00 
00000528 9b01           4089 	.byte	155,1
0000052a 02             4090 	.byte	2
0000052b 07             4091 	.byte	7
0000052c 00000000*      4092 	.word	.LDW_4d55eb0
                        4093 
                        4094 .LDW_486a260:
00000530 2e             4095 	.byte	46
00000531 00             4096 	.byte	0
00000532 14             4097 	.byte	20
00000533 0d             4098 	.byte	13
00000534 1e             4099 	.byte	30
00000535 01             4100 	.byte	1
00000536 01             4101 	.byte	1
                        4102 
                        4103 	.section	.debug_abbrev
000000a0 2e             4104 	.byte	46
000000a1 04             4105 	.byte	4
000000a2 01             4106 	.byte	1
000000a3 0308           4107 	.byte	3,8
000000a5 3b0f           4108 	.byte	59,15
000000a7 390f           4109 	.byte	57,15
000000a9 3a0f           4110 	.byte	58,15
000000ab 0b0f           4111 	.byte	11,15
000000ad 320b           4112 	.byte	50,11
000000af 0000           4113 	.byte	0,0
                        4114 
                        4115 	.section	.debug_info
                        4116 .LDW_4d71188:
00000537 2d             4117 	.byte	45
00000538 4d454d49465f   4118 	.strz	"MEMIF_UNINIT"
0000053e 554e494e4954 
00000544 00 
00000545 15             4119 	.byte	21
00000546 03             4120 	.byte	3

                                                                      Page 76
                                                              C:\Users\nhuliyap\AppData\Local\Temp\gh_0000d3s1.s
00000547 1e             4121 	.byte	30
00000548 00             4122 	.byte	0
                        4123 
                        4124 	.section	.debug_abbrev
000000b1 2d             4125 	.byte	45
000000b2 28             4126 	.byte	40
000000b3 00             4127 	.byte	0
000000b4 0308           4128 	.byte	3,8
000000b6 3b0f           4129 	.byte	59,15
000000b8 390f           4130 	.byte	57,15
000000ba 3a0f           4131 	.byte	58,15
000000bc 1c0d           4132 	.byte	28,13
000000be 0000           4133 	.byte	0,0
                        4134 
                        4135 	.section	.debug_info
                        4136 .LDW_4d594d8:
00000549 2d             4137 	.byte	45
0000054a 4d454d49465f   4138 	.strz	"MEMIF_IDLE"
00000550 49444c4500 
00000555 16             4139 	.byte	22
00000556 07             4140 	.byte	7
00000557 1e             4141 	.byte	30
00000558 01             4142 	.byte	1
                        4143 
                        4144 .LDW_4d58e18:
00000559 2d             4145 	.byte	45
0000055a 4d454d49465f   4146 	.strz	"MEMIF_BUSY"
00000560 4255535900 
00000565 17             4147 	.byte	23
00000566 07             4148 	.byte	7
00000567 1e             4149 	.byte	30
00000568 02             4150 	.byte	2
                        4151 
                        4152 .LDW_4d58dd8:
00000569 2d             4153 	.byte	45
0000056a 4d454d49465f   4154 	.strz	"MEMIF_BUSY_INTERNAL"
00000570 425553595f49 
00000576 4e5445524e41 
0000057c 4c00 
0000057e 18             4155 	.byte	24
0000057f 07             4156 	.byte	7
00000580 1e             4157 	.byte	30
00000581 03             4158 	.byte	3
                        4159 
00000582 00             4160 	.byte	0
                        4161 
                        4162 .LDW_4d560c0:
00000583 28             4163 	.byte	40
00000584 4d656d49665f   4164 	.strz	"MemIf_StatusType"
0000058a 537461747573 
00000590 5479706500 
00000595 19             4165 	.byte	25
00000596 02             4166 	.byte	2
00000597 1e             4167 	.byte	30
00000598 00000000*      4168 	.word	.LDW_486a260
                        4169 
                        4170 .LDW_486a300:
0000059c 2e             4171 	.byte	46
0000059d 00             4172 	.byte	0
0000059e 24             4173 	.byte	36
0000059f 0d             4174 	.byte	13

                                                                      Page 77
                                                              C:\Users\nhuliyap\AppData\Local\Temp\gh_0000d3s1.s
000005a0 1e             4175 	.byte	30
000005a1 01             4176 	.byte	1
000005a2 01             4177 	.byte	1
                        4178 
                        4179 .LDW_4d58e58:
000005a3 2d             4180 	.byte	45
000005a4 4d454d49465f   4181 	.strz	"MEMIF_MODE_SLOW"
000005aa 4d4f44455f53 
000005b0 4c4f5700 
000005b4 25             4182 	.byte	37
000005b5 05             4183 	.byte	5
000005b6 1e             4184 	.byte	30
000005b7 00             4185 	.byte	0
                        4186 
                        4187 .LDW_4d59358:
000005b8 2d             4188 	.byte	45
000005b9 4d454d49465f   4189 	.strz	"MEMIF_MODE_FAST"
000005bf 4d4f44455f46 
000005c5 41535400 
000005c9 26             4190 	.byte	38
000005ca 08             4191 	.byte	8
000005cb 1e             4192 	.byte	30
000005cc 01             4193 	.byte	1
                        4194 
000005cd 00             4195 	.byte	0
                        4196 
                        4197 .LDW_4d56430:
000005ce 28             4198 	.byte	40
000005cf 4d656d49665f   4199 	.strz	"MemIf_ModeType"
000005d5 4d6f64655479 
000005db 706500 
000005de 27             4200 	.byte	39
000005df 02             4201 	.byte	2
000005e0 1e             4202 	.byte	30
000005e1 00000000*      4203 	.word	.LDW_486a300
                        4204 
                        4205 .LDW_4d564e0:
000005e5 28             4206 	.byte	40
000005e6 4d656d49665f   4207 	.strz	"MemIf_DataPtr_pu8"
000005ec 446174615074 
000005f2 725f70753800 
000005f8 29             4208 	.byte	41
000005f9 32             4209 	.byte	50
000005fa 1e             4210 	.byte	30
000005fb 00000000*      4211 	.word	.LDW_4be12e0
                        4212 
                        4213 .LDW_4d5a240:
000005ff 28             4214 	.byte	40
00000600 4e764d5f4269   4215 	.strz	"NvM_BitFieldType"
00000606 744669656c64 
0000060c 5479706500 
00000611 49             4216 	.byte	73
00000612 16             4217 	.byte	22
00000613 1c             4218 	.byte	28
00000614 00000000*      4219 	.word	.LDW_4d70668
                        4220 
                        4221 .LDW_4bdeca0:
00000618 41             4222 	.byte	65
00000619 4e             4223 	.byte	78
0000061a 0f             4224 	.byte	15
0000061b 1c             4225 	.byte	28

                                                                      Page 78
                                                              C:\Users\nhuliyap\AppData\Local\Temp\gh_0000d3s1.s
0000061c 03             4226 	.byte	3
0000061d 01             4227 	.byte	1
                        4228 
                        4229 	.section	.debug_abbrev
000000c0 41             4230 	.byte	65
000000c1 13             4231 	.byte	19
000000c2 01             4232 	.byte	1
000000c3 3b0f           4233 	.byte	59,15
000000c5 390f           4234 	.byte	57,15
000000c7 3a0f           4235 	.byte	58,15
000000c9 0b0f           4236 	.byte	11,15
000000cb 320b           4237 	.byte	50,11
000000cd 0000           4238 	.byte	0,0
                        4239 
                        4240 	.section	.debug_info
                        4241 .LDW_4d57930:
0000061e 23             4242 	.byte	35
0000061f 4e7644617461   4243 	.strz	"NvDataIndex_t"
00000625 496e6465785f 
0000062b 7400 
0000062d 4f             4244 	.byte	79
0000062e 1c             4245 	.byte	28
0000062f 1c             4246 	.byte	28
00000630 00000000*      4247 	.word	.LDW_483c010
00000634 0223           4248 	.byte	2,35
00000636 00             4249 	.byte	0
00000637 01             4250 	.byte	1
                        4251 
                        4252 .LDW_4d57df8:
00000638 23             4253 	.byte	35
00000639 4e7652616d45   4254 	.strz	"NvRamErrorStatus_u8"
0000063f 72726f725374 
00000645 617475735f75 
0000064b 3800 
0000064d 50             4255 	.byte	80
0000064e 1d             4256 	.byte	29
0000064f 1c             4257 	.byte	28
00000650 00000000*      4258 	.word	.LDW_486eb10
00000654 0223           4259 	.byte	2,35
00000656 01             4260 	.byte	1
00000657 01             4261 	.byte	1
                        4262 
                        4263 .LDW_4d57780:
00000658 23             4264 	.byte	35
00000659 4e7652616d41   4265 	.strz	"NvRamAttributes_u8"
0000065f 747472696275 
00000665 7465735f7538 
0000066b 00 
0000066c 51             4266 	.byte	81
0000066d 1c             4267 	.byte	28
0000066e 1c             4268 	.byte	28
0000066f 00000000*      4269 	.word	.LDW_483c010
00000673 0223           4270 	.byte	2,35
00000675 02             4271 	.byte	2
00000676 01             4272 	.byte	1
                        4273 
00000677 00             4274 	.byte	0
                        4275 
                        4276 .LDW_4bdecf8:
00000678 28             4277 	.byte	40
00000679 4e764d5f5261   4278 	.strz	"NvM_RamMngmtAreaType"

                                                                      Page 79
                                                              C:\Users\nhuliyap\AppData\Local\Temp\gh_0000d3s1.s
0000067f 6d4d6e676d74 
00000685 417265615479 
0000068b 706500 
0000068e 52             4279 	.byte	82
0000068f 02             4280 	.byte	2
00000690 1c             4281 	.byte	28
00000691 00000000*      4282 	.word	.LDW_4bdeca0
                        4283 
                        4284 .LDW_4bded50:
00000695 28             4285 	.byte	40
00000696 4e764d5f5261   4286 	.strz	"NvM_RamMngmtPtrType"
0000069c 6d4d6e676d74 
000006a2 507472547970 
000006a8 6500 
000006aa 54             4287 	.byte	84
000006ab 41             4288 	.byte	65
000006ac 1c             4289 	.byte	28
000006ad 00000000*      4290 	.word	.LDW_4827490
                        4291 
                        4292 .LDW_4d5a138:
000006b1 28             4293 	.byte	40
000006b2 4e764d5f4173   4294 	.strz	"NvM_AsyncCbkPtrType"
000006b8 796e6343626b 
000006be 507472547970 
000006c4 6500 
000006c6 56             4295 	.byte	86
000006c7 09             4296 	.byte	9
000006c8 1c             4297 	.byte	28
000006c9 00000000*      4298 	.word	.LDW_4d5a6c8
                        4299 
                        4300 .LDW_4d5a2f0:
000006cd 28             4301 	.byte	40
000006ce 4e764d5f496e   4302 	.strz	"NvM_InitCbkPtrType"
000006d4 697443626b50 
000006da 747254797065 
000006e0 00 
000006e1 58             4303 	.byte	88
000006e2 09             4304 	.byte	9
000006e3 1c             4305 	.byte	28
000006e4 00000000*      4306 	.word	.LDW_4d5a7e0
                        4307 
                        4308 .LDW_4d5a450:
000006e8 28             4309 	.byte	40
000006e9 4e764d5f5772   4310 	.strz	"NvM_WriteRamToNvMCbkPtrType"
000006ef 69746552616d 
000006f5 546f4e764d43 
000006fb 626b50747254 
00000701 79706500 
00000705 5a             4311 	.byte	90
00000706 09             4312 	.byte	9
00000707 1c             4313 	.byte	28
00000708 00000000*      4314 	.word	.LDW_4d5a8f8
                        4315 
                        4316 .LDW_4d5a190:
0000070c 28             4317 	.byte	40
0000070d 4e764d5f5265   4318 	.strz	"NvM_ReadRamFromNvMCbkPtrType"
00000713 616452616d46 
00000719 726f6d4e764d 
0000071f 43626b507472 
00000725 5479706500 
0000072a 5b             4319 	.byte	91

                                                                      Page 80
                                                              C:\Users\nhuliyap\AppData\Local\Temp\gh_0000d3s1.s
0000072b 09             4320 	.byte	9
0000072c 1c             4321 	.byte	28
0000072d 00000000*      4322 	.word	.LDW_4d5a818
                        4323 
                        4324 .LDW_48695d8:
00000731 28             4325 	.byte	40
00000732 4e764d5f5261   4326 	.strz	"NvM_RamAddressType"
00000738 6d4164647265 
0000073e 737354797065 
00000744 00 
00000745 5d             4327 	.byte	93
00000746 30             4328 	.byte	48
00000747 1c             4329 	.byte	28
00000748 00000000*      4330 	.word	.LDW_4be12e0
                        4331 
                        4332 .LDW_4d52978:
0000074c 28             4333 	.byte	40
0000074d 4e764d5f436f   4334 	.strz	"NvM_ConstRamAddressType"
00000753 6e737452616d 
00000759 416464726573 
0000075f 735479706500 
00000765 5e             4335 	.byte	94
00000766 32             4336 	.byte	50
00000767 1c             4337 	.byte	28
00000768 00000000*      4338 	.word	.LDW_4be0f28
                        4339 
                        4340 .LDW_4d5a1e8:
0000076c 28             4341 	.byte	40
0000076d 4e764d5f526f   4342 	.strz	"NvM_RomAddressType"
00000773 6d4164647265 
00000779 737354797065 
0000077f 00 
00000780 60             4343 	.byte	96
00000781 32             4344 	.byte	50
00000782 1c             4345 	.byte	28
00000783 00000000*      4346 	.word	.LDW_4be0f28
                        4347 
                        4348 .LDW_4d5a348:
00000787 28             4349 	.byte	40
00000788 4e764d5f5261   4350 	.strz	"NvM_RamCrcAddressType"
0000078e 6d4372634164 
00000794 647265737354 
0000079a 79706500 
0000079e 65             4351 	.byte	101
0000079f 33             4352 	.byte	51
000007a0 1c             4353 	.byte	28
000007a1 00000000*      4354 	.word	.LDW_4be12e0
                        4355 
                        4356 .LDW_4bdee58:
000007a5 41             4357 	.byte	65
000007a6 9b01           4358 	.byte	155,1
000007a8 0f             4359 	.byte	15
000007a9 1c             4360 	.byte	28
000007aa 28             4361 	.byte	40
000007ab 01             4362 	.byte	1
                        4363 
                        4364 .LDW_4d57bb8:
000007ac 23             4365 	.byte	35
000007ad 52616d426c6f   4366 	.strz	"RamBlockDataAddr_t"
000007b3 636b44617461 
000007b9 416464725f74 

                                                                      Page 81
                                                              C:\Users\nhuliyap\AppData\Local\Temp\gh_0000d3s1.s
000007bf 00 
000007c0 9c01           4367 	.byte	156,1
000007c2 1d             4368 	.byte	29
000007c3 1c             4369 	.byte	28
000007c4 00000000*      4370 	.word	.LDW_48695d8
000007c8 0223           4371 	.byte	2,35
000007ca 00             4372 	.byte	0
000007cb 01             4373 	.byte	1
                        4374 
                        4375 .LDW_4d57e88:
000007cc 23             4376 	.byte	35
000007cd 526f6d426c6f   4377 	.strz	"RomBlockDataAddr_pt"
000007d3 636b44617461 
000007d9 416464725f70 
000007df 7400 
000007e1 9d01           4378 	.byte	157,1
000007e3 1d             4379 	.byte	29
000007e4 1c             4380 	.byte	28
000007e5 00000000*      4381 	.word	.LDW_4d5a1e8
000007e9 0223           4382 	.byte	2,35
000007eb 04             4383 	.byte	4
000007ec 01             4384 	.byte	1
                        4385 
                        4386 .LDW_4d57810:
000007ed 23             4387 	.byte	35
000007ee 496e69744361   4388 	.strz	"InitCallback_pt"
000007f4 6c6c6261636b 
000007fa 5f707400 
000007fe 9e01           4389 	.byte	158,1
00000800 1d             4390 	.byte	29
00000801 1c             4391 	.byte	28
00000802 00000000*      4392 	.word	.LDW_4d5a2f0
00000806 0223           4393 	.byte	2,35
00000808 08             4394 	.byte	8
00000809 01             4395 	.byte	1
                        4396 
                        4397 .LDW_4d57c90:
0000080a 23             4398 	.byte	35
0000080b 43616c6c6261   4399 	.strz	"CallbackFunc_pt"
00000811 636b46756e63 
00000817 5f707400 
0000081b 9f01           4400 	.byte	159,1
0000081d 1d             4401 	.byte	29
0000081e 1c             4402 	.byte	28
0000081f 00000000*      4403 	.word	.LDW_4d5a138
00000823 0223           4404 	.byte	2,35
00000825 0c             4405 	.byte	12
00000826 01             4406 	.byte	1
                        4407 
                        4408 .LDW_4d575d0:
00000827 23             4409 	.byte	35
00000828 43626b476574   4410 	.strz	"CbkGetMirrorFunc_pt"
0000082e 4d6972726f72 
00000834 46756e635f70 
0000083a 7400 
0000083c a001           4411 	.byte	160,1
0000083e 22             4412 	.byte	34
0000083f 1c             4413 	.byte	28
00000840 00000000*      4414 	.word	.LDW_4d5a190
00000844 0223           4415 	.byte	2,35
00000846 10             4416 	.byte	16

                                                                      Page 82
                                                              C:\Users\nhuliyap\AppData\Local\Temp\gh_0000d3s1.s
00000847 01             4417 	.byte	1
                        4418 
                        4419 .LDW_4d57c00:
00000848 23             4420 	.byte	35
00000849 43626b536574   4421 	.strz	"CbkSetMirrorFunc_pt"
0000084f 4d6972726f72 
00000855 46756e635f70 
0000085b 7400 
0000085d a101           4422 	.byte	161,1
0000085f 21             4423 	.byte	33
00000860 1c             4424 	.byte	28
00000861 00000000*      4425 	.word	.LDW_4d5a450
00000865 0223           4426 	.byte	2,35
00000867 14             4427 	.byte	20
00000868 01             4428 	.byte	1
                        4429 
                        4430 .LDW_4d57d20:
00000869 23             4431 	.byte	35
0000086a 52616d426c6f   4432 	.strz	"RamBlockCrcAddr_t"
00000870 636b43726341 
00000876 6464725f7400 
0000087c a301           4433 	.byte	163,1
0000087e 1d             4434 	.byte	29
0000087f 1c             4435 	.byte	28
00000880 00000000*      4436 	.word	.LDW_4d5a348
00000884 0223           4437 	.byte	2,35
00000886 18             4438 	.byte	24
00000887 01             4439 	.byte	1
                        4440 
                        4441 .LDW_4d57c48:
00000888 23             4442 	.byte	35
00000889 4e764964656e   4443 	.strz	"NvIdentifier_u16"
0000088f 746966696572 
00000895 5f75313600 
0000089a a501           4444 	.byte	165,1
0000089c 1c             4445 	.byte	28
0000089d 1c             4446 	.byte	28
0000089e 00000000*      4447 	.word	.LDW_48697e8
000008a2 0223           4448 	.byte	2,35
000008a4 1c             4449 	.byte	28
000008a5 01             4450 	.byte	1
                        4451 
                        4452 .LDW_4d57618:
000008a6 23             4453 	.byte	35
000008a7 4e76426c6f63   4454 	.strz	"NvBlockLength_u16"
000008ad 6b4c656e6774 
000008b3 685f75313600 
000008b9 a601           4455 	.byte	166,1
000008bb 1c             4456 	.byte	28
000008bc 1c             4457 	.byte	28
000008bd 00000000*      4458 	.word	.LDW_48697e8
000008c1 0223           4459 	.byte	2,35
000008c3 1e             4460 	.byte	30
000008c4 01             4461 	.byte	1
                        4462 
                        4463 .LDW_4d57858:
000008c5 24             4464 	.byte	36
000008c6 4e76426c6f63   4465 	.strz	"NvBlockCount_u8"
000008cc 6b436f756e74 
000008d2 5f753800 
000008d6 a701           4466 	.byte	167,1

                                                                      Page 83
                                                              C:\Users\nhuliyap\AppData\Local\Temp\gh_0000d3s1.s
000008d8 1d             4467 	.byte	29
000008d9 1c             4468 	.byte	28
000008da 00000000*      4469 	.word	.LDW_4d5a240
000008de 04             4470 	.byte	4
000008df 18             4471 	.byte	24
000008e0 08             4472 	.byte	8
000008e1 0223           4473 	.byte	2,35
000008e3 20             4474 	.byte	32
000008e4 01             4475 	.byte	1
                        4476 
                        4477 	.section	.debug_abbrev
000000cf 24             4478 	.byte	36
000000d0 0d             4479 	.byte	13
000000d1 00             4480 	.byte	0
000000d2 0308           4481 	.byte	3,8
000000d4 3b0f           4482 	.byte	59,15
000000d6 390f           4483 	.byte	57,15
000000d8 3a0f           4484 	.byte	58,15
000000da 4910           4485 	.byte	73,16
000000dc 0b0f           4486 	.byte	11,15
000000de 0c0f           4487 	.byte	12,15
000000e0 0d0b           4488 	.byte	13,11
000000e2 380a           4489 	.byte	56,10
000000e4 320b           4490 	.byte	50,11
000000e6 0000           4491 	.byte	0,0
                        4492 
                        4493 	.section	.debug_info
                        4494 .LDW_4d578e8:
000008e5 24             4495 	.byte	36
000008e6 426c6f636b50   4496 	.strz	"BlockPrio_u8"
000008ec 72696f5f7538 
000008f2 00 
000008f3 a801           4497 	.byte	168,1
000008f5 1d             4498 	.byte	29
000008f6 1c             4499 	.byte	28
000008f7 00000000*      4500 	.word	.LDW_4d5a240
000008fb 04             4501 	.byte	4
000008fc 10             4502 	.byte	16
000008fd 08             4503 	.byte	8
000008fe 0223           4504 	.byte	2,35
00000900 20             4505 	.byte	32
00000901 01             4506 	.byte	1
                        4507 
                        4508 .LDW_4d57978:
00000902 24             4509 	.byte	36
00000903 446576696365   4510 	.strz	"DeviceId_u8"
00000909 49645f753800 
0000090f a901           4511 	.byte	169,1
00000911 1d             4512 	.byte	29
00000912 1c             4513 	.byte	28
00000913 00000000*      4514 	.word	.LDW_4d5a240
00000917 04             4515 	.byte	4
00000918 0c             4516 	.byte	12
00000919 04             4517 	.byte	4
0000091a 0223           4518 	.byte	2,35
0000091c 20             4519 	.byte	32
0000091d 01             4520 	.byte	1
                        4521 
                        4522 .LDW_4d58428:
0000091e 24             4523 	.byte	36
0000091f 4d6e676d7454   4524 	.strz	"MngmtType_t"

                                                                      Page 84
                                                              C:\Users\nhuliyap\AppData\Local\Temp\gh_0000d3s1.s
00000925 7970655f7400 
0000092b aa01           4525 	.byte	170,1
0000092d 1d             4526 	.byte	29
0000092e 1c             4527 	.byte	28
0000092f 00000000*      4528 	.word	.LDW_4d5a240
00000933 04             4529 	.byte	4
00000934 0a             4530 	.byte	10
00000935 02             4531 	.byte	2
00000936 0223           4532 	.byte	2,35
00000938 20             4533 	.byte	32
00000939 01             4534 	.byte	1
                        4535 
                        4536 .LDW_4d58308:
0000093a 24             4537 	.byte	36
0000093b 437263536574   4538 	.strz	"CrcSettings"
00000941 74696e677300 
00000947 ab01           4539 	.byte	171,1
00000949 1d             4540 	.byte	29
0000094a 1c             4541 	.byte	28
0000094b 00000000*      4542 	.word	.LDW_4d5a240
0000094f 04             4543 	.byte	4
00000950 08             4544 	.byte	8
00000951 02             4545 	.byte	2
00000952 0223           4546 	.byte	2,35
00000954 20             4547 	.byte	32
00000955 01             4548 	.byte	1
                        4549 
                        4550 .LDW_4d58230:
00000956 24             4551 	.byte	36
00000957 466c6167735f   4552 	.strz	"Flags_u8"
0000095d 753800 
00000960 ac01           4553 	.byte	172,1
00000962 1d             4554 	.byte	29
00000963 1c             4555 	.byte	28
00000964 00000000*      4556 	.word	.LDW_4d5a240
00000968 04             4557 	.byte	4
00000969 00             4558 	.byte	0
0000096a 08             4559 	.byte	8
0000096b 0223           4560 	.byte	2,35
0000096d 20             4561 	.byte	32
0000096e 01             4562 	.byte	1
                        4563 
                        4564 .LDW_4d584b8:
0000096f 24             4565 	.byte	36
00000970 4e6f74696679   4566 	.strz	"NotifyBswM"
00000976 4273774d00 
0000097b ad01           4567 	.byte	173,1
0000097d 1d             4568 	.byte	29
0000097e 1c             4569 	.byte	28
0000097f 00000000*      4570 	.word	.LDW_4d5a240
00000983 04             4571 	.byte	4
00000984 1f             4572 	.byte	31
00000985 01             4573 	.byte	1
00000986 0223           4574 	.byte	2,35
00000988 24             4575 	.byte	36
00000989 01             4576 	.byte	1
                        4577 
0000098a 00             4578 	.byte	0
                        4579 
                        4580 .LDW_4bdeeb0:
0000098b 28             4581 	.byte	40

                                                                      Page 85
                                                              C:\Users\nhuliyap\AppData\Local\Temp\gh_0000d3s1.s
0000098c 4e764d5f426c   4582 	.strz	"NvM_BlockDescriptorType"
00000992 6f636b446573 
00000998 63726970746f 
0000099e 725479706500 
000009a4 ae01           4583 	.byte	174,1
000009a6 02             4584 	.byte	2
000009a7 1c             4585 	.byte	28
000009a8 00000000*      4586 	.word	.LDW_4bdee58
                        4587 
                        4588 .LDW_4bdef60:
000009ac 28             4589 	.byte	40
000009ad 4e764d5f426c   4590 	.strz	"NvM_BlockDescrPtrType"
000009b3 6f636b446573 
000009b9 637250747254 
000009bf 79706500 
000009c3 b001           4591 	.byte	176,1
000009c5 47             4592 	.byte	71
000009c6 1c             4593 	.byte	28
000009c7 00000000*      4594 	.word	.LDW_4827420
                        4595 
                        4596 .LDW_4bdf438:
000009cb 2e             4597 	.byte	46
000009cc 00             4598 	.byte	0
000009cd b201           4599 	.byte	178,1
000009cf 0d             4600 	.byte	13
000009d0 1c             4601 	.byte	28
000009d1 01             4602 	.byte	1
000009d2 01             4603 	.byte	1
                        4604 
                        4605 .LDW_4be1558:
000009d3 2d             4606 	.byte	45
000009d4 4e564d5f494e   4607 	.strz	"NVM_INT_FID_WRITE_BLOCK"
000009da 545f4649445f 
000009e0 57524954455f 
000009e6 424c4f434b00 
000009ec b301           4608 	.byte	179,1
000009ee 05             4609 	.byte	5
000009ef 1c             4610 	.byte	28
000009f0 00             4611 	.byte	0
                        4612 
                        4613 .LDW_4be1598:
000009f1 2d             4614 	.byte	45
000009f2 4e564d5f494e   4615 	.strz	"NVM_INT_FID_READ_BLOCK"
000009f8 545f4649445f 
000009fe 524541445f42 
00000a04 4c4f434b00 
00000a09 b401           4616 	.byte	180,1
00000a0b 08             4617 	.byte	8
00000a0c 1c             4618 	.byte	28
00000a0d 01             4619 	.byte	1
                        4620 
                        4621 .LDW_4be15d8:
00000a0e 2d             4622 	.byte	45
00000a0f 4e564d5f494e   4623 	.strz	"NVM_INT_FID_RESTORE_DEFAULTS"
00000a15 545f4649445f 
00000a1b 524553544f52 
00000a21 455f44454641 
00000a27 554c545300 
00000a2c b501           4624 	.byte	181,1
00000a2e 08             4625 	.byte	8
00000a2f 1c             4626 	.byte	28

                                                                      Page 86
                                                              C:\Users\nhuliyap\AppData\Local\Temp\gh_0000d3s1.s
00000a30 02             4627 	.byte	2
                        4628 
                        4629 .LDW_4be1618:
00000a31 2d             4630 	.byte	45
00000a32 4e564d5f494e   4631 	.strz	"NVM_INT_FID_INVALIDATE_NV_BLOCK"
00000a38 545f4649445f 
00000a3e 494e56414c49 
00000a44 444154455f4e 
00000a4a 565f424c4f43 
00000a50 4b00 
00000a52 b601           4632 	.byte	182,1
00000a54 08             4633 	.byte	8
00000a55 1c             4634 	.byte	28
00000a56 03             4635 	.byte	3
                        4636 
                        4637 .LDW_4be1658:
00000a57 2d             4638 	.byte	45
00000a58 4e564d5f494e   4639 	.strz	"NVM_INT_FID_ERASE_BLOCK"
00000a5e 545f4649445f 
00000a64 45524153455f 
00000a6a 424c4f434b00 
00000a70 b701           4640 	.byte	183,1
00000a72 08             4641 	.byte	8
00000a73 1c             4642 	.byte	28
00000a74 04             4643 	.byte	4
                        4644 
                        4645 .LDW_4be1698:
00000a75 2d             4646 	.byte	45
00000a76 4e564d5f494e   4647 	.strz	"NVM_INT_FID_WRITE_ALL"
00000a7c 545f4649445f 
00000a82 57524954455f 
00000a88 414c4c00 
00000a8c b801           4648 	.byte	184,1
00000a8e 08             4649 	.byte	8
00000a8f 1c             4650 	.byte	28
00000a90 05             4651 	.byte	5
                        4652 
                        4653 .LDW_4be16d8:
00000a91 2d             4654 	.byte	45
00000a92 4e564d5f494e   4655 	.strz	"NVM_INT_FID_READ_ALL"
00000a98 545f4649445f 
00000a9e 524541445f41 
00000aa4 4c4c00 
00000aa7 b901           4656 	.byte	185,1
00000aa9 08             4657 	.byte	8
00000aaa 1c             4658 	.byte	28
00000aab 06             4659 	.byte	6
                        4660 
                        4661 .LDW_4be1718:
00000aac 2d             4662 	.byte	45
00000aad 4e564d5f494e   4663 	.strz	"NVM_INT_FID_REPAIR_REDUNDANT_BLOCKS"
00000ab3 545f4649445f 
00000ab9 524550414952 
00000abf 5f524544554e 
00000ac5 44414e545f42 
00000acb 4c4f434b5300 
00000ad1 ba01           4664 	.byte	186,1
00000ad3 08             4665 	.byte	8
00000ad4 1c             4666 	.byte	28
00000ad5 07             4667 	.byte	7
                        4668 

                                                                      Page 87
                                                              C:\Users\nhuliyap\AppData\Local\Temp\gh_0000d3s1.s
                        4669 .LDW_4d50050:
00000ad6 2d             4670 	.byte	45
00000ad7 4e564d5f494e   4671 	.strz	"NVM_INT_FID_NO_JOB_PENDING"
00000add 545f4649445f 
00000ae3 4e4f5f4a4f42 
00000ae9 5f50454e4449 
00000aef 4e4700 
00000af2 bb01           4672 	.byte	187,1
00000af4 08             4673 	.byte	8
00000af5 1c             4674 	.byte	28
00000af6 08             4675 	.byte	8
                        4676 
00000af7 00             4677 	.byte	0
                        4678 
                        4679 .LDW_4869aa8:
00000af8 28             4680 	.byte	40
00000af9 4e764d5f496e   4681 	.strz	"NvM_InternalServiceIdEnumType"
00000aff 7465726e616c 
00000b05 536572766963 
00000b0b 654964456e75 
00000b11 6d5479706500 
00000b17 bc01           4682 	.byte	188,1
00000b19 02             4683 	.byte	2
00000b1a 1c             4684 	.byte	28
00000b1b 00000000*      4685 	.word	.LDW_4bdf438
                        4686 
                        4687 .LDW_486ea08:
00000b1f 28             4688 	.byte	40
00000b20 4e764d5f496e   4689 	.strz	"NvM_InternalServiceIdType"
00000b26 7465726e616c 
00000b2c 536572766963 
00000b32 654964547970 
00000b38 6500 
00000b3a c101           4690 	.byte	193,1
00000b3c 0f             4691 	.byte	15
00000b3d 1c             4692 	.byte	28
00000b3e 00000000*      4693 	.word	.LDW_483c010
                        4694 
                        4695 .LDW_4d71860:
00000b42 2e             4696 	.byte	46
00000b43 00             4697 	.byte	0
00000b44 0a             4698 	.byte	10
00000b45 0d             4699 	.byte	13
00000b46 24             4700 	.byte	36
00000b47 01             4701 	.byte	1
00000b48 01             4702 	.byte	1
                        4703 
                        4704 .LDW_4d58fd8:
00000b49 2d             4705 	.byte	45
00000b4a 4e564d5f4143   4706 	.strz	"NVM_ACT_ID_SetInitialAttr"
00000b50 545f49445f53 
00000b56 6574496e6974 
00000b5c 69616c417474 
00000b62 7200 
00000b64 0b             4707 	.byte	11
00000b65 05             4708 	.byte	5
00000b66 24             4709 	.byte	36
00000b67 00             4710 	.byte	0
                        4711 
                        4712 .LDW_4d59558:
00000b68 2d             4713 	.byte	45

                                                                      Page 88
                                                              C:\Users\nhuliyap\AppData\Local\Temp\gh_0000d3s1.s
00000b69 4e564d5f4143   4714 	.strz	"NVM_ACT_ID_InitMainFsm"
00000b6f 545f49445f49 
00000b75 6e69744d6169 
00000b7b 6e46736d00 
00000b80 0c             4715 	.byte	12
00000b81 08             4716 	.byte	8
00000b82 24             4717 	.byte	36
00000b83 01             4718 	.byte	1
                        4719 
                        4720 .LDW_4d58f58:
00000b84 2d             4721 	.byte	45
00000b85 4e564d5f4143   4722 	.strz	"NVM_ACT_ID_InitBlock"
00000b8b 545f49445f49 
00000b91 6e6974426c6f 
00000b97 636b00 
00000b9a 0d             4723 	.byte	13
00000b9b 08             4724 	.byte	8
00000b9c 24             4725 	.byte	36
00000b9d 02             4726 	.byte	2
                        4727 
                        4728 .LDW_4d59258:
00000b9e 2d             4729 	.byte	45
00000b9f 4e564d5f4143   4730 	.strz	"NVM_ACT_ID_InitReadAll"
00000ba5 545f49445f49 
00000bab 6e6974526561 
00000bb1 64416c6c00 
00000bb6 0e             4731 	.byte	14
00000bb7 08             4732 	.byte	8
00000bb8 24             4733 	.byte	36
00000bb9 03             4734 	.byte	3
                        4735 
                        4736 .LDW_4d59298:
00000bba 2d             4737 	.byte	45
00000bbb 4e564d5f4143   4738 	.strz	"NVM_ACT_ID_InitReadBlockFsm"
00000bc1 545f49445f49 
00000bc7 6e6974526561 
00000bcd 64426c6f636b 
00000bd3 46736d00 
00000bd7 0f             4739 	.byte	15
00000bd8 08             4740 	.byte	8
00000bd9 24             4741 	.byte	36
00000bda 04             4742 	.byte	4
                        4743 
                        4744 .LDW_4d59318:
00000bdb 2d             4745 	.byte	45
00000bdc 4e564d5f4143   4746 	.strz	"NVM_ACT_ID_InitWriteAll"
00000be2 545f49445f49 
00000be8 6e6974577269 
00000bee 7465416c6c00 
00000bf4 10             4747 	.byte	16
00000bf5 08             4748 	.byte	8
00000bf6 24             4749 	.byte	36
00000bf7 05             4750 	.byte	5
                        4751 
                        4752 .LDW_4d59398:
00000bf8 2d             4753 	.byte	45
00000bf9 4e564d5f4143   4754 	.strz	"NVM_ACT_ID_InitWriteBlock"
00000bff 545f49445f49 
00000c05 6e6974577269 
00000c0b 7465426c6f63 
00000c11 6b00 

                                                                      Page 89
                                                              C:\Users\nhuliyap\AppData\Local\Temp\gh_0000d3s1.s
00000c13 11             4755 	.byte	17
00000c14 08             4756 	.byte	8
00000c15 24             4757 	.byte	36
00000c16 06             4758 	.byte	6
                        4759 
                        4760 .LDW_4d593d8:
00000c17 2d             4761 	.byte	45
00000c18 4e564d5f4143   4762 	.strz	"NVM_ACT_ID_InitWriteBlockFsm"
00000c1e 545f49445f49 
00000c24 6e6974577269 
00000c2a 7465426c6f63 
00000c30 6b46736d00 
00000c35 12             4763 	.byte	18
00000c36 08             4764 	.byte	8
00000c37 24             4765 	.byte	36
00000c38 07             4766 	.byte	7
                        4767 
                        4768 .LDW_4d58f18:
00000c39 2d             4769 	.byte	45
00000c3a 4e564d5f4143   4770 	.strz	"NVM_ACT_ID_InitRestoreBlockDefaults"
00000c40 545f49445f49 
00000c46 6e6974526573 
00000c4c 746f7265426c 
00000c52 6f636b446566 
00000c58 61756c747300 
00000c5e 13             4771 	.byte	19
00000c5f 08             4772 	.byte	8
00000c60 24             4773 	.byte	36
00000c61 08             4774 	.byte	8
                        4775 
                        4776 .LDW_4d59098:
00000c62 2d             4777 	.byte	45
00000c63 4e564d5f4143   4778 	.strz	"NVM_ACT_ID_FinishMainJob"
00000c69 545f49445f46 
00000c6f 696e6973684d 
00000c75 61696e4a6f62 
00000c7b 00 
00000c7c 14             4779 	.byte	20
00000c7d 08             4780 	.byte	8
00000c7e 24             4781 	.byte	36
00000c7f 09             4782 	.byte	9
                        4783 
                        4784 .LDW_4d59058:
00000c80 2d             4785 	.byte	45
00000c81 4e564d5f4143   4786 	.strz	"NVM_ACT_ID_KillWritAll"
00000c87 545f49445f4b 
00000c8d 696c6c577269 
00000c93 74416c6c00 
00000c98 16             4787 	.byte	22
00000c99 05             4788 	.byte	5
00000c9a 24             4789 	.byte	36
00000c9b 0a             4790 	.byte	10
                        4791 
                        4792 .LDW_4d59158:
00000c9c 2d             4793 	.byte	45
00000c9d 4e564d5f4143   4794 	.strz	"NVM_ACT_ID_FinishBlock"
00000ca3 545f49445f46 
00000ca9 696e69736842 
00000caf 6c6f636b00 
00000cb4 18             4795 	.byte	24
00000cb5 05             4796 	.byte	5

                                                                      Page 90
                                                              C:\Users\nhuliyap\AppData\Local\Temp\gh_0000d3s1.s
00000cb6 24             4797 	.byte	36
00000cb7 0b             4798 	.byte	11
                        4799 
                        4800 .LDW_4d58f98:
00000cb8 2d             4801 	.byte	45
00000cb9 4e564d5f4143   4802 	.strz	"NVM_ACT_ID_InitNextBlockReadAll"
00000cbf 545f49445f49 
00000cc5 6e69744e6578 
00000ccb 74426c6f636b 
00000cd1 52656164416c 
00000cd7 6c00 
00000cd9 19             4803 	.byte	25
00000cda 08             4804 	.byte	8
00000cdb 24             4805 	.byte	36
00000cdc 0c             4806 	.byte	12
                        4807 
                        4808 .LDW_4d59018:
00000cdd 2d             4809 	.byte	45
00000cde 4e564d5f4143   4810 	.strz	"NVM_ACT_ID_InitNextBlockWriteAll"
00000ce4 545f49445f49 
00000cea 6e69744e6578 
00000cf0 74426c6f636b 
00000cf6 577269746541 
00000cfc 6c6c00 
00000cff 1a             4811 	.byte	26
00000d00 08             4812 	.byte	8
00000d01 24             4813 	.byte	36
00000d02 0d             4814 	.byte	13
                        4815 
                        4816 .LDW_4d59418:
00000d03 2d             4817 	.byte	45
00000d04 4e564d5f4143   4818 	.strz	"NVM_ACT_ID_FinishCfgIdCheck"
00000d0a 545f49445f46 
00000d10 696e69736843 
00000d16 666749644368 
00000d1c 65636b00 
00000d20 1b             4819 	.byte	27
00000d21 08             4820 	.byte	8
00000d22 24             4821 	.byte	36
00000d23 0e             4822 	.byte	14
                        4823 
                        4824 .LDW_4d59118:
00000d24 2d             4825 	.byte	45
00000d25 4e564d5f4143   4826 	.strz	"NVM_ACT_ID_FinishReadBlock"
00000d2b 545f49445f46 
00000d31 696e69736852 
00000d37 656164426c6f 
00000d3d 636b00 
00000d40 1c             4827 	.byte	28
00000d41 08             4828 	.byte	8
00000d42 24             4829 	.byte	36
00000d43 0f             4830 	.byte	15
                        4831 
                        4832 .LDW_4d59198:
00000d44 2d             4833 	.byte	45
00000d45 4e564d5f4143   4834 	.strz	"NVM_ACT_ID_FinishWriteBlock"
00000d4b 545f49445f46 
00000d51 696e69736857 
00000d57 72697465426c 
00000d5d 6f636b00 
00000d61 1d             4835 	.byte	29

                                                                      Page 91
                                                              C:\Users\nhuliyap\AppData\Local\Temp\gh_0000d3s1.s
00000d62 08             4836 	.byte	8
00000d63 24             4837 	.byte	36
00000d64 10             4838 	.byte	16
                        4839 
                        4840 .LDW_4d59458:
00000d65 2d             4841 	.byte	45
00000d66 4e564d5f4143   4842 	.strz	"NVM_ACT_ID_FinishEraseBlock"
00000d6c 545f49445f46 
00000d72 696e69736845 
00000d78 72617365426c 
00000d7e 6f636b00 
00000d82 1f             4843 	.byte	31
00000d83 05             4844 	.byte	5
00000d84 24             4845 	.byte	36
00000d85 11             4846 	.byte	17
                        4847 
                        4848 .LDW_4d591d8:
00000d86 2d             4849 	.byte	45
00000d87 4e564d5f4143   4850 	.strz	"NVM_ACT_ID_EraseNvBlock"
00000d8d 545f49445f45 
00000d93 726173654e76 
00000d99 426c6f636b00 
00000d9f 20             4851 	.byte	32
00000da0 08             4852 	.byte	8
00000da1 24             4853 	.byte	36
00000da2 12             4854 	.byte	18
                        4855 
                        4856 .LDW_4d59218:
00000da3 2d             4857 	.byte	45
00000da4 4e564d5f4143   4858 	.strz	"NVM_ACT_ID_InvalidateNvBlock"
00000daa 545f49445f49 
00000db0 6e76616c6964 
00000db6 6174654e7642 
00000dbc 6c6f636b00 
00000dc1 21             4859 	.byte	33
00000dc2 08             4860 	.byte	8
00000dc3 24             4861 	.byte	36
00000dc4 13             4862 	.byte	19
                        4863 
                        4864 .LDW_4d58cd8:
00000dc5 2d             4865 	.byte	45
00000dc6 4e564d5f4143   4866 	.strz	"NVM_ACT_ID_ProcessCrc"
00000dcc 545f49445f50 
00000dd2 726f63657373 
00000dd8 43726300 
00000ddc 24             4867 	.byte	36
00000ddd 05             4868 	.byte	5
00000dde 24             4869 	.byte	36
00000ddf 14             4870 	.byte	20
                        4871 
                        4872 .LDW_4d58bd8:
00000de0 2d             4873 	.byte	45
00000de1 4e564d5f4143   4874 	.strz	"NVM_ACT_ID_WriteNvBlock"
00000de7 545f49445f57 
00000ded 726974654e76 
00000df3 426c6f636b00 
00000df9 26             4875 	.byte	38
00000dfa 05             4876 	.byte	5
00000dfb 24             4877 	.byte	36
00000dfc 15             4878 	.byte	21
                        4879 

                                                                      Page 92
                                                              C:\Users\nhuliyap\AppData\Local\Temp\gh_0000d3s1.s
                        4880 .LDW_4d58a98:
00000dfd 2d             4881 	.byte	45
00000dfe 4e564d5f4143   4882 	.strz	"NVM_ACT_ID_ReadNvBlock"
00000e04 545f49445f52 
00000e0a 6561644e7642 
00000e10 6c6f636b00 
00000e15 27             4883 	.byte	39
00000e16 08             4884 	.byte	8
00000e17 24             4885 	.byte	36
00000e18 16             4886 	.byte	22
                        4887 
                        4888 .LDW_4d58998:
00000e19 2d             4889 	.byte	45
00000e1a 4e564d5f4143   4890 	.strz	"NVM_ACT_ID_ProcessCrcRead"
00000e20 545f49445f50 
00000e26 726f63657373 
00000e2c 437263526561 
00000e32 6400 
00000e34 28             4891 	.byte	40
00000e35 08             4892 	.byte	8
00000e36 24             4893 	.byte	36
00000e37 17             4894 	.byte	23
                        4895 
                        4896 .LDW_4d58c98:
00000e38 2d             4897 	.byte	45
00000e39 4e564d5f4143   4898 	.strz	"NVM_ACT_ID_RestoreRomDefaults"
00000e3f 545f49445f52 
00000e45 6573746f7265 
00000e4b 526f6d446566 
00000e51 61756c747300 
00000e57 29             4899 	.byte	41
00000e58 08             4900 	.byte	8
00000e59 24             4901 	.byte	36
00000e5a 18             4902 	.byte	24
                        4903 
                        4904 .LDW_4d58b98:
00000e5b 2d             4905 	.byte	45
00000e5c 4e564d5f4143   4906 	.strz	"NVM_ACT_ID_FinishRestoreRomDefaults"
00000e62 545f49445f46 
00000e68 696e69736852 
00000e6e 6573746f7265 
00000e74 526f6d446566 
00000e7a 61756c747300 
00000e80 2a             4907 	.byte	42
00000e81 08             4908 	.byte	8
00000e82 24             4909 	.byte	36
00000e83 19             4910 	.byte	25
                        4911 
                        4912 .LDW_4d58c18:
00000e84 2d             4913 	.byte	45
00000e85 4e564d5f4143   4914 	.strz	"NVM_ACT_ID_TestBlockBlank"
00000e8b 545f49445f54 
00000e91 657374426c6f 
00000e97 636b426c616e 
00000e9d 6b00 
00000e9f 2b             4915 	.byte	43
00000ea0 08             4916 	.byte	8
00000ea1 24             4917 	.byte	36
00000ea2 1a             4918 	.byte	26
                        4919 
                        4920 .LDW_4d58958:

                                                                      Page 93
                                                              C:\Users\nhuliyap\AppData\Local\Temp\gh_0000d3s1.s
00000ea3 2d             4921 	.byte	45
00000ea4 4e564d5f4143   4922 	.strz	"NVM_ACT_ID_ValidateRam"
00000eaa 545f49445f56 
00000eb0 616c69646174 
00000eb6 6552616d00 
00000ebb 2c             4923 	.byte	44
00000ebc 08             4924 	.byte	8
00000ebd 24             4925 	.byte	36
00000ebe 1b             4926 	.byte	27
                        4927 
                        4928 .LDW_4d58d98:
00000ebf 2d             4929 	.byte	45
00000ec0 4e564d5f4143   4930 	.strz	"NVM_ACT_ID_SetupRedundant"
00000ec6 545f49445f53 
00000ecc 657475705265 
00000ed2 64756e64616e 
00000ed8 7400 
00000eda 2d             4931 	.byte	45
00000edb 08             4932 	.byte	8
00000edc 24             4933 	.byte	36
00000edd 1c             4934 	.byte	28
                        4935 
                        4936 .LDW_4d585d8:
00000ede 2d             4937 	.byte	45
00000edf 4e564d5f4143   4938 	.strz	"NVM_ACT_ID_SetupOther"
00000ee5 545f49445f53 
00000eeb 657475704f74 
00000ef1 68657200 
00000ef5 2e             4939 	.byte	46
00000ef6 08             4940 	.byte	8
00000ef7 24             4941 	.byte	36
00000ef8 1d             4942 	.byte	29
                        4943 
                        4944 .LDW_4d58658:
00000ef9 2d             4945 	.byte	45
00000efa 4e564d5f4143   4946 	.strz	"NVM_ACT_ID_UpdateNvState"
00000f00 545f49445f55 
00000f06 70646174654e 
00000f0c 765374617465 
00000f12 00 
00000f13 2f             4947 	.byte	47
00000f14 08             4948 	.byte	8
00000f15 24             4949 	.byte	36
00000f16 1e             4950 	.byte	30
                        4951 
                        4952 .LDW_4d58d58:
00000f17 2d             4953 	.byte	45
00000f18 4e564d5f4143   4954 	.strz	"NVM_ACT_ID_SetReqIntegrityFailed"
00000f1e 545f49445f53 
00000f24 657452657149 
00000f2a 6e7465677269 
00000f30 74794661696c 
00000f36 656400 
00000f39 30             4955 	.byte	48
00000f3a 08             4956 	.byte	8
00000f3b 24             4957 	.byte	36
00000f3c 1f             4958 	.byte	31
                        4959 
                        4960 .LDW_4d58618:
00000f3d 2d             4961 	.byte	45
00000f3e 4e564d5f4143   4962 	.strz	"NVM_ACT_ID_SetReqSkipped"

                                                                      Page 94
                                                              C:\Users\nhuliyap\AppData\Local\Temp\gh_0000d3s1.s
00000f44 545f49445f53 
00000f4a 657452657153 
00000f50 6b6970706564 
00000f56 00 
00000f57 31             4963 	.byte	49
00000f58 08             4964 	.byte	8
00000f59 24             4965 	.byte	36
00000f5a 20             4966 	.byte	32
                        4967 
                        4968 .LDW_4d58698:
00000f5b 2d             4969 	.byte	45
00000f5c 4e564d5f4143   4970 	.strz	"NVM_ACT_ID_SetBlockPendingWriteAll"
00000f62 545f49445f53 
00000f68 6574426c6f63 
00000f6e 6b50656e6469 
00000f74 6e6757726974 
00000f7a 65416c6c00 
00000f7f 32             4971 	.byte	50
00000f80 08             4972 	.byte	8
00000f81 24             4973 	.byte	36
00000f82 21             4974 	.byte	33
                        4975 
                        4976 .LDW_4d58d18:
00000f83 2d             4977 	.byte	45
00000f84 4e564d5f4143   4978 	.strz	"NVM_ACT_ID_CopyNvDataToBuf"
00000f8a 545f49445f43 
00000f90 6f70794e7644 
00000f96 617461546f42 
00000f9c 756600 
00000f9f 33             4979 	.byte	51
00000fa0 08             4980 	.byte	8
00000fa1 24             4981 	.byte	36
00000fa2 22             4982 	.byte	34
                        4983 
                        4984 .LDW_4d58858:
00000fa3 2d             4985 	.byte	45
00000fa4 4e564d5f4143   4986 	.strz	"NVM_ACT_ID_GetMultiBlockJob"
00000faa 545f49445f47 
00000fb0 65744d756c74 
00000fb6 69426c6f636b 
00000fbc 4a6f6200 
00000fc0 34             4987 	.byte	52
00000fc1 08             4988 	.byte	8
00000fc2 24             4989 	.byte	36
00000fc3 23             4990 	.byte	35
                        4991 
                        4992 .LDW_4d58a58:
00000fc4 2d             4993 	.byte	45
00000fc5 4e564d5f4143   4994 	.strz	"NVM_ACT_ID_GetNormalPrioJob"
00000fcb 545f49445f47 
00000fd1 65744e6f726d 
00000fd7 616c5072696f 
00000fdd 4a6f6200 
00000fe1 41             4995 	.byte	65
00000fe2 05             4996 	.byte	5
00000fe3 24             4997 	.byte	36
00000fe4 24             4998 	.byte	36
                        4999 
                        5000 .LDW_4d589d8:
00000fe5 2d             5001 	.byte	45
00000fe6 4e564d5f4143   5002 	.strz	"NVM_ACT_ID_Wait"

                                                                      Page 95
                                                              C:\Users\nhuliyap\AppData\Local\Temp\gh_0000d3s1.s
00000fec 545f49445f57 
00000ff2 61697400 
00000ff6 47             5003 	.byte	71
00000ff7 05             5004 	.byte	5
00000ff8 24             5005 	.byte	36
00000ff9 25             5006 	.byte	37
                        5007 
                        5008 .LDW_4d58a18:
00000ffa 2d             5009 	.byte	45
00000ffb 4e564d5f4143   5010 	.strz	"NVM_ACT_ID_Nop"
00001001 545f49445f4e 
00001007 6f7000 
0000100a 48             5011 	.byte	72
0000100b 08             5012 	.byte	8
0000100c 24             5013 	.byte	36
0000100d 26             5014 	.byte	38
                        5015 
0000100e 00             5016 	.byte	0
                        5017 
                        5018 .LDW_4d5a030:
0000100f 28             5019 	.byte	40
00001010 4e764d5f5374   5020 	.strz	"NvM_StateActionIdType"
00001016 617465416374 
0000101c 696f6e496454 
00001022 79706500 
00001026 49             5021 	.byte	73
00001027 02             5022 	.byte	2
00001028 24             5023 	.byte	36
00001029 00000000*      5024 	.word	.LDW_4d71860
                        5025 
                        5026 .LDW_4869370:
0000102d 28             5027 	.byte	40
0000102e 4e764d5f5374   5028 	.strz	"NvM_StateActionType"
00001034 617465416374 
0000103a 696f6e547970 
00001040 6500 
00001042 4e             5029 	.byte	78
00001043 0f             5030 	.byte	15
00001044 24             5031 	.byte	36
00001045 00000000*      5032 	.word	.LDW_483c010
                        5033 
                        5034 .LDW_4d59e78:
00001049 28             5035 	.byte	40
0000104a 4e764d5f4163   5036 	.strz	"NvM_ActFctPtrType"
00001050 744663745074 
00001056 725479706500 
0000105c 53             5037 	.byte	83
0000105d 09             5038 	.byte	9
0000105e 24             5039 	.byte	36
0000105f 00000000*      5040 	.word	.LDW_4d5a8c0
                        5041 
                        5042 .LDW_4d5b1a8:
00001063 2e             5043 	.byte	46
00001064 00             5044 	.byte	0
00001065 0a             5045 	.byte	10
00001066 0d             5046 	.byte	13
00001067 25             5047 	.byte	37
00001068 01             5048 	.byte	1
00001069 01             5049 	.byte	1
                        5050 
                        5051 .LDW_4d587d8:

                                                                      Page 96
                                                              C:\Users\nhuliyap\AppData\Local\Temp\gh_0000d3s1.s
0000106a 2d             5052 	.byte	45
0000106b 4e564d5f5152   5053 	.strz	"NVM_QRY_ID_BLK_WRITE_ALL"
00001071 595f49445f42 
00001077 4c4b5f575249 
0000107d 54455f414c4c 
00001083 00 
00001084 0b             5054 	.byte	11
00001085 05             5055 	.byte	5
00001086 25             5056 	.byte	37
00001087 00             5057 	.byte	0
                        5058 
                        5059 .LDW_4d58c58:
00001088 2d             5060 	.byte	45
00001089 4e564d5f5152   5061 	.strz	"NVM_QRY_ID_CANCEL_WRITE_ALL"
0000108f 595f49445f43 
00001095 414e43454c5f 
0000109b 57524954455f 
000010a1 414c4c00 
000010a5 0c             5062 	.byte	12
000010a6 08             5063 	.byte	8
000010a7 25             5064 	.byte	37
000010a8 01             5065 	.byte	1
                        5066 
                        5067 .LDW_4d586d8:
000010a9 2d             5068 	.byte	45
000010aa 4e564d5f5152   5069 	.strz	"NVM_QR_ID_WRITEALL_KILLED"
000010b0 5f49445f5752 
000010b6 495445414c4c 
000010bc 5f4b494c4c45 
000010c2 4400 
000010c4 0e             5070 	.byte	14
000010c5 05             5071 	.byte	5
000010c6 25             5072 	.byte	37
000010c7 02             5073 	.byte	2
                        5074 
                        5075 .LDW_4d58718:
000010c8 2d             5076 	.byte	45
000010c9 4e564d5f5152   5077 	.strz	"NVM_QRY_ID_CRC_BUSY"
000010cf 595f49445f43 
000010d5 52435f425553 
000010db 5900 
000010dd 10             5078 	.byte	16
000010de 05             5079 	.byte	5
000010df 25             5080 	.byte	37
000010e0 03             5081 	.byte	3
                        5082 
                        5083 .LDW_4d58b58:
000010e1 2d             5084 	.byte	45
000010e2 4e564d5f5152   5085 	.strz	"NVM_QRY_ID_CRC_MATCH"
000010e8 595f49445f43 
000010ee 52435f4d4154 
000010f4 434800 
000010f7 11             5086 	.byte	17
000010f8 08             5087 	.byte	8
000010f9 25             5088 	.byte	37
000010fa 04             5089 	.byte	4
                        5090 
                        5091 .LDW_4d58818:
000010fb 2d             5092 	.byte	45
000010fc 4e564d5f5152   5093 	.strz	"NVM_QRY_ID_LAST_BLOCK_DONE_READALL"
00001102 595f49445f4c 

                                                                      Page 97
                                                              C:\Users\nhuliyap\AppData\Local\Temp\gh_0000d3s1.s
00001108 4153545f424c 
0000110e 4f434b5f444f 
00001114 4e455f524541 
0000111a 44414c4c00 
0000111f 13             5094 	.byte	19
00001120 05             5095 	.byte	5
00001121 25             5096 	.byte	37
00001122 05             5097 	.byte	5
                        5098 
                        5099 .LDW_4d588d8:
00001123 2d             5100 	.byte	45
00001124 4e564d5f5152   5101 	.strz	"NVM_QRY_ID_LAST_BLOCK_DONE_WRITEALL"
0000112a 595f49445f4c 
00001130 4153545f424c 
00001136 4f434b5f444f 
0000113c 4e455f575249 
00001142 5445414c4c00 
00001148 14             5102 	.byte	20
00001149 08             5103 	.byte	8
0000114a 25             5104 	.byte	37
0000114b 06             5105 	.byte	6
                        5106 
                        5107 .LDW_4d58758:
0000114c 2d             5108 	.byte	45
0000114d 4e564d5f5152   5109 	.strz	"NVM_QRY_ID_LAST_RESULT_OK"
00001153 595f49445f4c 
00001159 4153545f5245 
0000115f 53554c545f4f 
00001165 4b00 
00001167 15             5110 	.byte	21
00001168 08             5111 	.byte	8
00001169 25             5112 	.byte	37
0000116a 07             5113 	.byte	7
                        5114 
                        5115 .LDW_4d58798:
0000116b 2d             5116 	.byte	45
0000116c 4e564d5f5152   5117 	.strz	"NVM_QRY_ID_MAIN_FSM_RUNNING"
00001172 595f49445f4d 
00001178 41494e5f4653 
0000117e 4d5f52554e4e 
00001184 494e4700 
00001188 16             5118 	.byte	22
00001189 08             5119 	.byte	8
0000118a 25             5120 	.byte	37
0000118b 08             5121 	.byte	8
                        5122 
                        5123 .LDW_4d58898:
0000118c 2d             5124 	.byte	45
0000118d 4e564d5f5152   5125 	.strz	"NVM_QRY_ID_MULTI_BLK_JOB"
00001193 595f49445f4d 
00001199 554c54495f42 
0000119f 4c4b5f4a4f42 
000011a5 00 
000011a6 17             5126 	.byte	23
000011a7 08             5127 	.byte	8
000011a8 25             5128 	.byte	37
000011a9 09             5129 	.byte	9
                        5130 
                        5131 .LDW_4d58ad8:
000011aa 2d             5132 	.byte	45
000011ab 4e564d5f5152   5133 	.strz	"NVM_QRY_ID_NORMAL_PRIO_JOB"

                                                                      Page 98
                                                              C:\Users\nhuliyap\AppData\Local\Temp\gh_0000d3s1.s
000011b1 595f49445f4e 
000011b7 4f524d414c5f 
000011bd 5052494f5f4a 
000011c3 4f4200 
000011c6 19             5134 	.byte	25
000011c7 05             5135 	.byte	5
000011c8 25             5136 	.byte	37
000011c9 0a             5137 	.byte	10
                        5138 
                        5139 .LDW_4d58b18:
000011ca 2d             5140 	.byte	45
000011cb 4e564d5f5152   5141 	.strz	"NVM_QRY_ID_NV_BUSY"
000011d1 595f49445f4e 
000011d7 565f42555359 
000011dd 00 
000011de 1e             5142 	.byte	30
000011df 05             5143 	.byte	5
000011e0 25             5144 	.byte	37
000011e1 0b             5145 	.byte	11
                        5146 
                        5147 .LDW_4d58918:
000011e2 2d             5148 	.byte	45
000011e3 4e564d5f5152   5149 	.strz	"NVM_QRY_ID_MEMHWA_BUSY"
000011e9 595f49445f4d 
000011ef 454d4857415f 
000011f5 4255535900 
000011fa 1f             5150 	.byte	31
000011fb 08             5151 	.byte	8
000011fc 25             5152 	.byte	37
000011fd 0c             5153 	.byte	12
                        5154 
                        5155 .LDW_4d5c3b8:
000011fe 2d             5156 	.byte	45
000011ff 4e564d5f5152   5157 	.strz	"NVM_QRY_ID_RAM_VALID"
00001205 595f49445f52 
0000120b 414d5f56414c 
00001211 494400 
00001214 21             5158 	.byte	33
00001215 05             5159 	.byte	5
00001216 25             5160 	.byte	37
00001217 0d             5161 	.byte	13
                        5162 
                        5163 .LDW_4d5c438:
00001218 2d             5164 	.byte	45
00001219 4e564d5f5152   5165 	.strz	"NVM_QRY_ID_REDUNDANT_BLOCK"
0000121f 595f49445f52 
00001225 4544554e4441 
0000122b 4e545f424c4f 
00001231 434b00 
00001234 23             5166 	.byte	35
00001235 05             5167 	.byte	5
00001236 25             5168 	.byte	37
00001237 0e             5169 	.byte	14
                        5170 
                        5171 .LDW_4d5c238:
00001238 2d             5172 	.byte	45
00001239 4e564d5f5152   5173 	.strz	"NVM_QRY_ID_SKIP_BLOCK"
0000123f 595f49445f53 
00001245 4b49505f424c 
0000124b 4f434b00 
0000124f 24             5174 	.byte	36

                                                                      Page 99
                                                              C:\Users\nhuliyap\AppData\Local\Temp\gh_0000d3s1.s
00001250 08             5175 	.byte	8
00001251 25             5176 	.byte	37
00001252 0f             5177 	.byte	15
                        5178 
                        5179 .LDW_4d5bff8:
00001253 2d             5180 	.byte	45
00001254 4e564d5f5152   5181 	.strz	"NVM_QRY_ID_SUB_FSM_RUNNING"
0000125a 595f49445f53 
00001260 55425f46534d 
00001266 5f52554e4e49 
0000126c 4e4700 
0000126f 25             5182 	.byte	37
00001270 08             5183 	.byte	8
00001271 25             5184 	.byte	37
00001272 10             5185 	.byte	16
                        5186 
                        5187 .LDW_4d5c1b8:
00001273 2d             5188 	.byte	45
00001274 4e564d5f5152   5189 	.strz	"NVM_QRY_ID_WRITE_BLOCK_ONCE"
0000127a 595f49445f57 
00001280 524954455f42 
00001286 4c4f434b5f4f 
0000128c 4e434500 
00001290 26             5190 	.byte	38
00001291 08             5191 	.byte	8
00001292 25             5192 	.byte	37
00001293 11             5193 	.byte	17
                        5194 
                        5195 .LDW_4d5c578:
00001294 2d             5196 	.byte	45
00001295 4e564d5f5152   5197 	.strz	"NVM_QRY_ID_WRITE_RETRIES_EXCEEDED"
0000129b 595f49445f57 
000012a1 524954455f52 
000012a7 455452494553 
000012ad 5f4558434545 
000012b3 44454400 
000012b7 27             5198 	.byte	39
000012b8 08             5199 	.byte	8
000012b9 25             5200 	.byte	37
000012ba 12             5201 	.byte	18
                        5202 
                        5203 .LDW_4d5c0b8:
000012bb 2d             5204 	.byte	45
000012bc 4e564d5f5152   5205 	.strz	"NVM_QRY_ID_HAS_ROM"
000012c2 595f49445f48 
000012c8 41535f524f4d 
000012ce 00 
000012cf 29             5206 	.byte	41
000012d0 05             5207 	.byte	5
000012d1 25             5208 	.byte	37
000012d2 13             5209 	.byte	19
                        5210 
                        5211 .LDW_4d5be38:
000012d3 2d             5212 	.byte	45
000012d4 4e564d5f5152   5213 	.strz	"NVM_QRY_ID_EXT_RUNTIME"
000012da 595f49445f45 
000012e0 58545f52554e 
000012e6 54494d4500 
000012eb 2a             5214 	.byte	42
000012ec 08             5215 	.byte	8
000012ed 25             5216 	.byte	37

                                                                      Page 100
                                                              C:\Users\nhuliyap\AppData\Local\Temp\gh_0000d3s1.s
000012ee 14             5217 	.byte	20
                        5218 
                        5219 .LDW_4d5c278:
000012ef 2d             5220 	.byte	45
000012f0 4e764d5f5152   5221 	.strz	"NvM_QRY_CRC_COMP_MECHANISM_SKIPWRITE"
000012f6 595f4352435f 
000012fc 434f4d505f4d 
00001302 454348414e49 
00001308 534d5f534b49 
0000130e 505752495445 
00001314 00 
00001315 30             5222 	.byte	48
00001316 05             5223 	.byte	5
00001317 25             5224 	.byte	37
00001318 15             5225 	.byte	21
                        5226 
                        5227 .LDW_4d5bf38:
00001319 2d             5228 	.byte	45
0000131a 4e564d5f5152   5229 	.strz	"NVM_QRY_ID_TRUE"
00001320 595f49445f54 
00001326 52554500 
0000132a 31             5230 	.byte	49
0000132b 08             5231 	.byte	8
0000132c 25             5232 	.byte	37
0000132d 16             5233 	.byte	22
                        5234 
0000132e 00             5235 	.byte	0
                        5236 
                        5237 .LDW_4d59cc0:
0000132f 28             5238 	.byte	40
00001330 4e764d5f5374   5239 	.strz	"NvM_StateQueryIdType"
00001336 617465517565 
0000133c 727949645479 
00001342 706500 
00001345 32             5240 	.byte	50
00001346 02             5241 	.byte	2
00001347 25             5242 	.byte	37
00001348 00000000*      5243 	.word	.LDW_4d5b1a8
                        5244 
                        5245 .LDW_4d59ed0:
0000134c 28             5246 	.byte	40
0000134d 4e764d5f4372   5247 	.strz	"NvM_CrcBufferPtrType"
00001353 634275666665 
00001359 725074725479 
0000135f 706500 
00001362 1d             5248 	.byte	29
00001363 3b             5249 	.byte	59
00001364 26             5250 	.byte	38
00001365 00000000*      5251 	.word	.LDW_4be12e0
                        5252 
                        5253 .LDW_4d59f28:
00001369 28             5254 	.byte	40
0000136a 4e764d5f4372   5255 	.strz	"NvM_CrcBufferConstPtrType"
00001370 634275666665 
00001376 72436f6e7374 
0000137c 507472547970 
00001382 6500 
00001384 1e             5256 	.byte	30
00001385 3d             5257 	.byte	61
00001386 26             5258 	.byte	38
00001387 00000000*      5259 	.word	.LDW_4be0f28

                                                                      Page 101
                                                              C:\Users\nhuliyap\AppData\Local\Temp\gh_0000d3s1.s
                        5260 
                        5261 .LDW_4d59690:
0000138b 28             5262 	.byte	40
0000138c 4e764d5f4372   5263 	.strz	"NvM_CrcValuePtrType"
00001392 6356616c7565 
00001398 507472547970 
0000139e 6500 
000013a0 20             5264 	.byte	32
000013a1 34             5265 	.byte	52
000013a2 26             5266 	.byte	38
000013a3 00000000*      5267 	.word	.LDW_4d5a930
                        5268 
                        5269 .LDW_4d59798:
000013a7 28             5270 	.byte	40
000013a8 4e764d5f4372   5271 	.strz	"NvM_CrcValueRefType"
000013ae 6356616c7565 
000013b4 526566547970 
000013ba 6500 
000013bc 21             5272 	.byte	33
000013bd 35             5273 	.byte	53
000013be 26             5274 	.byte	38
000013bf 00000000*      5275 	.word	.LDW_4be0f28
                        5276 
                        5277 .LDW_4d59b60:
000013c3 28             5278 	.byte	40
000013c4 4e764d5f4372   5279 	.strz	"NvM_CrcCalculateFPtr"
000013ca 6343616c6375 
000013d0 6c6174654650 
000013d6 747200 
000013d9 23             5280 	.byte	35
000013da 09             5281 	.byte	9
000013db 26             5282 	.byte	38
000013dc 00000000*      5283 	.word	.LDW_4d5ac08
                        5284 
                        5285 .LDW_4d595e0:
000013e0 28             5286 	.byte	40
000013e1 4e764d5f4372   5287 	.strz	"NvM_CrcCompareFPtr"
000013e7 63436f6d7061 
000013ed 726546507472 
000013f3 00 
000013f4 24             5288 	.byte	36
000013f5 09             5289 	.byte	9
000013f6 26             5290 	.byte	38
000013f7 00000000*      5291 	.word	.LDW_4d5a770
                        5292 
                        5293 .LDW_4d59bb8:
000013fb 28             5294 	.byte	40
000013fc 4e764d5f4372   5295 	.strz	"NvM_CrcCopyToBufferFPtr"
00001402 63436f707954 
00001408 6f4275666665 
0000140e 724650747200 
00001414 25             5296 	.byte	37
00001415 09             5297 	.byte	9
00001416 26             5298 	.byte	38
00001417 00000000*      5299 	.word	.LDW_4d5a690
                        5300 
                        5301 .LDW_4d59c68:
0000141b 40             5302 	.byte	64
0000141c 4e764d5f4372   5303 	.strz	"NvM_CrcHandlerClass"
00001422 6348616e646c 
00001428 6572436c6173 

                                                                      Page 102
                                                              C:\Users\nhuliyap\AppData\Local\Temp\gh_0000d3s1.s
0000142e 7300 
00001430 27             5304 	.byte	39
00001431 08             5305 	.byte	8
00001432 26             5306 	.byte	38
00001433 14             5307 	.byte	20
00001434 01             5308 	.byte	1
                        5309 
                        5310 	.section	.debug_abbrev
000000e8 40             5311 	.byte	64
000000e9 13             5312 	.byte	19
000000ea 01             5313 	.byte	1
000000eb 0308           5314 	.byte	3,8
000000ed 3b0f           5315 	.byte	59,15
000000ef 390f           5316 	.byte	57,15
000000f1 3a0f           5317 	.byte	58,15
000000f3 0b0f           5318 	.byte	11,15
000000f5 320b           5319 	.byte	50,11
000000f7 0000           5320 	.byte	0,0
                        5321 
                        5322 	.section	.debug_info
                        5323 .LDW_4d58110:
00001435 23             5324 	.byte	35
00001436 63616c6300     5325 	.strz	"calc"
0000143b 29             5326 	.byte	41
0000143c 1d             5327 	.byte	29
0000143d 26             5328 	.byte	38
0000143e 00000000*      5329 	.word	.LDW_4d59b60
00001442 0223           5330 	.byte	2,35
00001444 00             5331 	.byte	0
00001445 01             5332 	.byte	1
                        5333 
                        5334 .LDW_4d58158:
00001446 23             5335 	.byte	35
00001447 636f6d706172   5336 	.strz	"compare"
0000144d 6500 
0000144f 2a             5337 	.byte	42
00001450 1d             5338 	.byte	29
00001451 26             5339 	.byte	38
00001452 00000000*      5340 	.word	.LDW_4d595e0
00001456 0223           5341 	.byte	2,35
00001458 04             5342 	.byte	4
00001459 01             5343 	.byte	1
                        5344 
                        5345 .LDW_4d58038:
0000145a 23             5346 	.byte	35
0000145b 636f7079546f   5347 	.strz	"copyToBuffer"
00001461 427566666572 
00001467 00 
00001468 2b             5348 	.byte	43
00001469 1d             5349 	.byte	29
0000146a 26             5350 	.byte	38
0000146b 00000000*      5351 	.word	.LDW_4d59bb8
0000146f 0223           5352 	.byte	2,35
00001471 08             5353 	.byte	8
00001472 01             5354 	.byte	1
                        5355 
                        5356 .LDW_4d58080:
00001473 23             5357 	.byte	35
00001474 696e69746961   5358 	.strz	"initialCrcValue"
0000147a 6c4372635661 
00001480 6c756500 

                                                                      Page 103
                                                              C:\Users\nhuliyap\AppData\Local\Temp\gh_0000d3s1.s
00001484 2c             5359 	.byte	44
00001485 1c             5360 	.byte	28
00001486 26             5361 	.byte	38
00001487 00000000*      5362 	.word	.LDW_4d534d0
0000148b 0223           5363 	.byte	2,35
0000148d 0c             5364 	.byte	12
0000148e 01             5365 	.byte	1
                        5366 
                        5367 .LDW_4d583e0:
0000148f 23             5368 	.byte	35
00001490 6372634c656e   5369 	.strz	"crcLength"
00001496 67746800 
0000149a 2d             5370 	.byte	45
0000149b 1c             5371 	.byte	28
0000149c 26             5372 	.byte	38
0000149d 00000000*      5373 	.word	.LDW_483c010
000014a1 0223           5374 	.byte	2,35
000014a3 10             5375 	.byte	16
000014a4 01             5376 	.byte	1
                        5377 
000014a5 00             5378 	.byte	0
                        5379 
                        5380 .LDW_4d59c10:
000014a6 28             5381 	.byte	40
000014a7 4e764d5f4372   5382 	.strz	"NvM_CrcHandlerClassConstPtr"
000014ad 6348616e646c 
000014b3 6572436c6173 
000014b9 73436f6e7374 
000014bf 50747200 
000014c3 30             5383 	.byte	48
000014c4 4b             5384 	.byte	75
000014c5 26             5385 	.byte	38
000014c6 00000000*      5386 	.word	.LDW_4d5a888
                        5387 
                        5388 .LDW_4d59638:
000014ca 40             5389 	.byte	64
000014cb 4e764d5f4372   5390 	.strz	"NvM_CrcJobStruct"
000014d1 634a6f625374 
000014d7 7275637400 
000014dc 32             5391 	.byte	50
000014dd 10             5392 	.byte	16
000014de 26             5393 	.byte	38
000014df 14             5394 	.byte	20
000014e0 01             5395 	.byte	1
                        5396 
                        5397 .LDW_4d580c8:
000014e1 23             5398 	.byte	35
000014e2 43757272656e   5399 	.strz	"CurrentCrcValue"
000014e8 744372635661 
000014ee 6c756500 
000014f2 34             5400 	.byte	52
000014f3 20             5401 	.byte	32
000014f4 26             5402 	.byte	38
000014f5 00000000*      5403 	.word	.LDW_4d534d0
000014f9 0223           5404 	.byte	2,35
000014fb 00             5405 	.byte	0
000014fc 01             5406 	.byte	1
                        5407 
                        5408 .LDW_4d581a0:
000014fd 23             5409 	.byte	35
000014fe 52616d446174   5410 	.strz	"RamData_pt"

                                                                      Page 104
                                                              C:\Users\nhuliyap\AppData\Local\Temp\gh_0000d3s1.s
00001504 615f707400 
00001509 35             5411 	.byte	53
0000150a 21             5412 	.byte	33
0000150b 26             5413 	.byte	38
0000150c 00000000*      5414 	.word	.LDW_4d52978
00001510 0223           5415 	.byte	2,35
00001512 04             5416 	.byte	4
00001513 01             5417 	.byte	1
                        5418 
                        5419 .LDW_4d582c0:
00001514 23             5420 	.byte	35
00001515 437263427566   5421 	.strz	"CrcBuffer"
0000151b 66657200 
0000151f 36             5422 	.byte	54
00001520 21             5423 	.byte	33
00001521 26             5424 	.byte	38
00001522 00000000*      5425 	.word	.LDW_4d59ed0
00001526 0223           5426 	.byte	2,35
00001528 08             5427 	.byte	8
00001529 01             5428 	.byte	1
                        5429 
                        5430 .LDW_4d58278:
0000152a 23             5431 	.byte	35
0000152b 48616e646c65   5432 	.strz	"HandlerInstance_pt"
00001531 72496e737461 
00001537 6e63655f7074 
0000153d 00 
0000153e 37             5433 	.byte	55
0000153f 21             5434 	.byte	33
00001540 26             5435 	.byte	38
00001541 00000000*      5436 	.word	.LDW_4d59c10
00001545 0223           5437 	.byte	2,35
00001547 0c             5438 	.byte	12
00001548 01             5439 	.byte	1
                        5440 
                        5441 .LDW_4d58470:
00001549 23             5442 	.byte	35
0000154a 52656d61696e   5443 	.strz	"RemainingLength_u16"
00001550 696e674c656e 
00001556 6774685f7531 
0000155c 3600 
0000155e 38             5444 	.byte	56
0000155f 20             5445 	.byte	32
00001560 26             5446 	.byte	38
00001561 00000000*      5447 	.word	.LDW_48697e8
00001565 0223           5448 	.byte	2,35
00001567 10             5449 	.byte	16
00001568 01             5450 	.byte	1
                        5451 
00001569 00             5452 	.byte	0
                        5453 
                        5454 .LDW_4d59d18:
0000156a 28             5455 	.byte	40
0000156b 4e764d5f4372   5456 	.strz	"NvM_CrcJobType"
00001571 634a6f625479 
00001577 706500 
0000157a 39             5457 	.byte	57
0000157b 02             5458 	.byte	2
0000157c 26             5459 	.byte	38
0000157d 00000000*      5460 	.word	.LDW_4d59638
                        5461 

                                                                      Page 105
                                                              C:\Users\nhuliyap\AppData\Local\Temp\gh_0000d3s1.s
                        5462 .LDW_4d59a00:
00001581 28             5463 	.byte	40
00001582 4e764d5f4372   5464 	.strz	"NvM_CrcJobPtrType"
00001588 634a6f625074 
0000158e 725479706500 
00001594 3b             5465 	.byte	59
00001595 3c             5466 	.byte	60
00001596 26             5467 	.byte	38
00001597 00000000*      5468 	.word	.LDW_4d5a968
                        5469 
                        5470 .LDW_4d59a58:
0000159b 28             5471 	.byte	40
0000159c 4e764d5f4372   5472 	.strz	"NvM_CrcJobConstPtrType"
000015a2 634a6f62436f 
000015a8 6e7374507472 
000015ae 5479706500 
000015b3 3c             5473 	.byte	60
000015b4 3e             5474 	.byte	62
000015b5 26             5475 	.byte	38
000015b6 00000000*      5476 	.word	.LDW_4d5ac40
                        5477 
                        5478 .LDW_4d59f80:
000015ba 41             5479 	.byte	65
000015bb 0e             5480 	.byte	14
000015bc 0f             5481 	.byte	15
000015bd 23             5482 	.byte	35
000015be 08             5483 	.byte	8
000015bf 01             5484 	.byte	1
                        5485 
                        5486 .LDW_4d58500:
000015c0 23             5487 	.byte	35
000015c1 4a6f62426c6f   5488 	.strz	"JobBlockId_t"
000015c7 636b49645f74 
000015cd 00 
000015ce 0f             5489 	.byte	15
000015cf 21             5490 	.byte	33
000015d0 23             5491 	.byte	35
000015d1 00000000*      5492 	.word	.LDW_4869898
000015d5 0223           5493 	.byte	2,35
000015d7 00             5494 	.byte	0
000015d8 01             5495 	.byte	1
                        5496 
                        5497 .LDW_4d58548:
000015d9 23             5498 	.byte	35
000015da 4a6f62536572   5499 	.strz	"JobServiceId_t"
000015e0 766963654964 
000015e6 5f7400 
000015e9 10             5500 	.byte	16
000015ea 21             5501 	.byte	33
000015eb 23             5502 	.byte	35
000015ec 00000000*      5503 	.word	.LDW_486ea08
000015f0 0223           5504 	.byte	2,35
000015f2 02             5505 	.byte	2
000015f3 01             5506 	.byte	1
                        5507 
                        5508 .LDW_4d57ed0:
000015f4 23             5509 	.byte	35
000015f5 52616d416464   5510 	.strz	"RamAddr_t"
000015fb 725f7400 
000015ff 11             5511 	.byte	17
00001600 21             5512 	.byte	33

                                                                      Page 106
                                                              C:\Users\nhuliyap\AppData\Local\Temp\gh_0000d3s1.s
00001601 23             5513 	.byte	35
00001602 00000000*      5514 	.word	.LDW_48695d8
00001606 0223           5515 	.byte	2,35
00001608 04             5516 	.byte	4
00001609 01             5517 	.byte	1
                        5518 
0000160a 00             5519 	.byte	0
                        5520 
                        5521 .LDW_4d59848:
0000160b 28             5522 	.byte	40
0000160c 4e764d5f4a6f   5523 	.strz	"NvM_JobType"
00001612 625479706500 
00001618 12             5524 	.byte	18
00001619 02             5525 	.byte	2
0000161a 23             5526 	.byte	35
0000161b 00000000*      5527 	.word	.LDW_4d59f80
                        5528 
                        5529 .LDW_4d52870:
0000161f 41             5530 	.byte	65
00001620 16             5531 	.byte	22
00001621 0f             5532 	.byte	15
00001622 23             5533 	.byte	35
00001623 28             5534 	.byte	40
00001624 01             5535 	.byte	1
                        5536 
                        5537 .LDW_4d5d2a8:
00001625 23             5538 	.byte	35
00001626 446573637269   5539 	.strz	"Descriptor_pt"
0000162c 70746f725f70 
00001632 7400 
00001634 17             5540 	.byte	23
00001635 21             5541 	.byte	33
00001636 23             5542 	.byte	35
00001637 00000000*      5543 	.word	.LDW_4bdef60
0000163b 0223           5544 	.byte	2,35
0000163d 00             5545 	.byte	0
0000163e 01             5546 	.byte	1
                        5547 
                        5548 .LDW_4d5d260:
0000163f 23             5549 	.byte	35
00001640 4d6e676d745f   5550 	.strz	"Mngmt_pt"
00001646 707400 
00001649 18             5551 	.byte	24
0000164a 21             5552 	.byte	33
0000164b 23             5553 	.byte	35
0000164c 00000000*      5554 	.word	.LDW_4bded50
00001650 0223           5555 	.byte	2,35
00001652 04             5556 	.byte	4
00001653 01             5557 	.byte	1
                        5558 
                        5559 .LDW_4d5cf48:
00001654 23             5560 	.byte	35
00001655 52616d416464   5561 	.strz	"RamAddr_t"
0000165b 725f7400 
0000165f 19             5562 	.byte	25
00001660 21             5563 	.byte	33
00001661 23             5564 	.byte	35
00001662 00000000*      5565 	.word	.LDW_48695d8
00001666 0223           5566 	.byte	2,35
00001668 08             5567 	.byte	8
00001669 01             5568 	.byte	1

                                                                      Page 107
                                                              C:\Users\nhuliyap\AppData\Local\Temp\gh_0000d3s1.s
                        5569 
                        5570 .LDW_4d5d2f0:
0000166a 23             5571 	.byte	35
0000166b 426c6f636b43   5572 	.strz	"BlockCrcJob_t"
00001671 72634a6f625f 
00001677 7400 
00001679 1a             5573 	.byte	26
0000167a 21             5574 	.byte	33
0000167b 23             5575 	.byte	35
0000167c 00000000*      5576 	.word	.LDW_4d59d18
00001680 0223           5577 	.byte	2,35
00001682 0c             5578 	.byte	12
00001683 01             5579 	.byte	1
                        5580 
                        5581 .LDW_4d5d4e8:
00001684 23             5582 	.byte	35
00001685 4e764964656e   5583 	.strz	"NvIdentifier_u16"
0000168b 746966696572 
00001691 5f75313600 
00001696 1b             5584 	.byte	27
00001697 20             5585 	.byte	32
00001698 23             5586 	.byte	35
00001699 00000000*      5587 	.word	.LDW_48697e8
0000169d 0223           5588 	.byte	2,35
0000169f 20             5589 	.byte	32
000016a0 01             5590 	.byte	1
                        5591 
                        5592 .LDW_4d5d458:
000016a1 23             5593 	.byte	35
000016a2 42797465436f   5594 	.strz	"ByteCount_u16"
000016a8 756e745f7531 
000016ae 3600 
000016b0 1c             5595 	.byte	28
000016b1 20             5596 	.byte	32
000016b2 23             5597 	.byte	35
000016b3 00000000*      5598 	.word	.LDW_48697e8
000016b7 0223           5599 	.byte	2,35
000016b9 22             5600 	.byte	34
000016ba 01             5601 	.byte	1
                        5602 
                        5603 .LDW_4d5d338:
000016bb 23             5604 	.byte	35
000016bc 4c6173745265   5605 	.strz	"LastResult_t"
000016c2 73756c745f74 
000016c8 00 
000016c9 1d             5606 	.byte	29
000016ca 21             5607 	.byte	33
000016cb 23             5608 	.byte	35
000016cc 00000000*      5609 	.word	.LDW_486eb10
000016d0 0223           5610 	.byte	2,35
000016d2 24             5611 	.byte	36
000016d3 01             5612 	.byte	1
                        5613 
                        5614 .LDW_4d5d380:
000016d4 23             5615 	.byte	35
000016d5 577269746552   5616 	.strz	"WriteRetryCounter_u8"
000016db 65747279436f 
000016e1 756e7465725f 
000016e7 753800 
000016ea 1e             5617 	.byte	30
000016eb 20             5618 	.byte	32

                                                                      Page 108
                                                              C:\Users\nhuliyap\AppData\Local\Temp\gh_0000d3s1.s
000016ec 23             5619 	.byte	35
000016ed 00000000*      5620 	.word	.LDW_483c010
000016f1 0223           5621 	.byte	2,35
000016f3 25             5622 	.byte	37
000016f4 01             5623 	.byte	1
                        5624 
                        5625 .LDW_4d5d530:
000016f5 23             5626 	.byte	35
000016f6 496e7465726e   5627 	.strz	"InternalFlags_u8"
000016fc 616c466c6167 
00001702 735f753800 
00001707 1f             5628 	.byte	31
00001708 20             5629 	.byte	32
00001709 23             5630 	.byte	35
0000170a 00000000*      5631 	.word	.LDW_483c010
0000170e 0223           5632 	.byte	2,35
00001710 26             5633 	.byte	38
00001711 01             5634 	.byte	1
                        5635 
                        5636 .LDW_4d5d410:
00001712 23             5637 	.byte	35
00001713 4e7653746174   5638 	.strz	"NvState_u8"
00001719 655f753800 
0000171e 20             5639 	.byte	32
0000171f 20             5640 	.byte	32
00001720 23             5641 	.byte	35
00001721 00000000*      5642 	.word	.LDW_483c010
00001725 0223           5643 	.byte	2,35
00001727 27             5644 	.byte	39
00001728 01             5645 	.byte	1
                        5646 
00001729 00             5647 	.byte	0
                        5648 
                        5649 .LDW_4d52ad8:
0000172a 28             5650 	.byte	40
0000172b 4e764d5f426c   5651 	.strz	"NvM_BlockInfoType"
00001731 6f636b496e66 
00001737 6f5479706500 
0000173d 21             5652 	.byte	33
0000173e 02             5653 	.byte	2
0000173f 23             5654 	.byte	35
00001740 00000000*      5655 	.word	.LDW_4d52870
                        5656 
                        5657 .LDW_4d52be0:
00001744 28             5658 	.byte	40
00001745 4e764d5f426c   5659 	.strz	"NvM_BlockInfoPtrType"
0000174b 6f636b496e66 
00001751 6f5074725479 
00001757 706500 
0000175a 23             5660 	.byte	35
0000175b 3c             5661 	.byte	60
0000175c 23             5662 	.byte	35
0000175d 00000000*      5663 	.word	.LDW_4be0e10
                        5664 
                        5665 .LDW_4d5af78:
00001761 2e             5666 	.byte	46
00001762 00             5667 	.byte	0
00001763 30             5668 	.byte	48
00001764 0d             5669 	.byte	13
00001765 23             5670 	.byte	35
00001766 01             5671 	.byte	1

                                                                      Page 109
                                                              C:\Users\nhuliyap\AppData\Local\Temp\gh_0000d3s1.s
00001767 01             5672 	.byte	1
                        5673 
                        5674 .LDW_4d5be78:
00001768 2d             5675 	.byte	45
00001769 4e564d5f5354   5676 	.strz	"NVM_STATE_UNINIT"
0000176f 4154455f554e 
00001775 494e495400 
0000177a 32             5677 	.byte	50
0000177b 05             5678 	.byte	5
0000177c 23             5679 	.byte	35
0000177d 00             5680 	.byte	0
                        5681 
                        5682 .LDW_4d5c378:
0000177e 2d             5683 	.byte	45
0000177f 4e564d5f5354   5684 	.strz	"NVM_STATE_IDLE"
00001785 4154455f4944 
0000178b 4c4500 
0000178e 34             5685 	.byte	52
0000178f 05             5686 	.byte	5
00001790 23             5687 	.byte	35
00001791 01             5688 	.byte	1
                        5689 
                        5690 .LDW_4d5c2b8:
00001792 2d             5691 	.byte	45
00001793 4e564d5f5354   5692 	.strz	"NVM_STATE_NORMAL_PRIO_JOB"
00001799 4154455f4e4f 
0000179f 524d414c5f50 
000017a5 52494f5f4a4f 
000017ab 4200 
000017ad 3a             5693 	.byte	58
000017ae 05             5694 	.byte	5
000017af 23             5695 	.byte	35
000017b0 02             5696 	.byte	2
                        5697 
                        5698 .LDW_4d5c4f8:
000017b1 2d             5699 	.byte	45
000017b2 4e564d5f5354   5700 	.strz	"NVM_STATE_MULTI_BLOCK_JOB"
000017b8 4154455f4d55 
000017be 4c54495f424c 
000017c4 4f434b5f4a4f 
000017ca 4200 
000017cc 3d             5701 	.byte	61
000017cd 05             5702 	.byte	5
000017ce 23             5703 	.byte	35
000017cf 03             5704 	.byte	3
                        5705 
                        5706 .LDW_4d5beb8:
000017d0 2d             5707 	.byte	45
000017d1 4e564d5f5354   5708 	.strz	"NVM_STATE_READ_READ_DATA"
000017d7 4154455f5245 
000017dd 41445f524541 
000017e3 445f44415441 
000017e9 00 
000017ea 40             5709 	.byte	64
000017eb 05             5710 	.byte	5
000017ec 23             5711 	.byte	35
000017ed 04             5712 	.byte	4
                        5713 
                        5714 .LDW_4d5bef8:
000017ee 2d             5715 	.byte	45
000017ef 4e564d5f5354   5716 	.strz	"NVM_STATE_READ_CMP_CRC"

                                                                      Page 110
                                                              C:\Users\nhuliyap\AppData\Local\Temp\gh_0000d3s1.s
000017f5 4154455f5245 
000017fb 41445f434d50 
00001801 5f43524300 
00001806 42             5717 	.byte	66
00001807 05             5718 	.byte	5
00001808 23             5719 	.byte	35
00001809 05             5720 	.byte	5
                        5721 
                        5722 .LDW_4d5c3f8:
0000180a 2d             5723 	.byte	45
0000180b 4e564d5f5354   5724 	.strz	"NVM_STATE_READ_IMPL_RECOV"
00001811 4154455f5245 
00001817 41445f494d50 
0000181d 4c5f5245434f 
00001823 5600 
00001825 44             5725 	.byte	68
00001826 05             5726 	.byte	5
00001827 23             5727 	.byte	35
00001828 06             5728 	.byte	6
                        5729 
                        5730 .LDW_4d5bf78:
00001829 2d             5731 	.byte	45
0000182a 4e564d5f5354   5732 	.strz	"NVM_STATE_READ_LOAD_ROM"
00001830 4154455f5245 
00001836 41445f4c4f41 
0000183c 445f524f4d00 
00001842 46             5733 	.byte	70
00001843 05             5734 	.byte	5
00001844 23             5735 	.byte	35
00001845 07             5736 	.byte	7
                        5737 
                        5738 .LDW_4d5c138:
00001846 2d             5739 	.byte	45
00001847 4e564d5f5354   5740 	.strz	"NVM_STATE_WRITE_INITIAL"
0000184d 4154455f5752 
00001853 4954455f494e 
00001859 495449414c00 
0000185f 48             5741 	.byte	72
00001860 05             5742 	.byte	5
00001861 23             5743 	.byte	35
00001862 08             5744 	.byte	8
                        5745 
                        5746 .LDW_4d5c178:
00001863 2d             5747 	.byte	45
00001864 4e564d5f5354   5748 	.strz	"NVM_STATE_WRITE_TEST_PRI_READ"
0000186a 4154455f5752 
00001870 4954455f5445 
00001876 53545f505249 
0000187c 5f5245414400 
00001882 4a             5749 	.byte	74
00001883 05             5750 	.byte	5
00001884 23             5751 	.byte	35
00001885 09             5752 	.byte	9
                        5753 
                        5754 .LDW_4d5c1f8:
00001886 2d             5755 	.byte	45
00001887 4e564d5f5354   5756 	.strz	"NVM_STATE_WRITE_TEST_SEC_READ"
0000188d 4154455f5752 
00001893 4954455f5445 
00001899 53545f534543 
0000189f 5f5245414400 

                                                                      Page 111
                                                              C:\Users\nhuliyap\AppData\Local\Temp\gh_0000d3s1.s
000018a5 4c             5757 	.byte	76
000018a6 05             5758 	.byte	5
000018a7 23             5759 	.byte	35
000018a8 0a             5760 	.byte	10
                        5761 
                        5762 .LDW_4d5c2f8:
000018a9 2d             5763 	.byte	45
000018aa 4e564d5f5354   5764 	.strz	"NVM_STATE_WRITE_WR_DATA_CRC_1"
000018b0 4154455f5752 
000018b6 4954455f5752 
000018bc 5f444154415f 
000018c2 4352435f3100 
000018c8 4e             5765 	.byte	78
000018c9 05             5766 	.byte	5
000018ca 23             5767 	.byte	35
000018cb 0b             5768 	.byte	11
                        5769 
                        5770 .LDW_4d5c338:
000018cc 2d             5771 	.byte	45
000018cd 4e564d5f5354   5772 	.strz	"NVM_STATE_WRITE_WR_DATA_CRC_2"
000018d3 4154455f5752 
000018d9 4954455f5752 
000018df 5f444154415f 
000018e5 4352435f3200 
000018eb 50             5773 	.byte	80
000018ec 05             5774 	.byte	5
000018ed 23             5775 	.byte	35
000018ee 0c             5776 	.byte	12
                        5777 
                        5778 .LDW_4d5c478:
000018ef 2d             5779 	.byte	45
000018f0 4e564d5f5354   5780 	.strz	"NVM_STATE_RESTORE_LOAD_ROM"
000018f6 4154455f5245 
000018fc 53544f52455f 
00001902 4c4f41445f52 
00001908 4f4d00 
0000190b 52             5781 	.byte	82
0000190c 05             5782 	.byte	5
0000190d 23             5783 	.byte	35
0000190e 0d             5784 	.byte	13
                        5785 
                        5786 .LDW_4d5bfb8:
0000190f 2d             5787 	.byte	45
00001910 4e564d5f5354   5788 	.strz	"NVM_STATE_INVALIDATING_BLOCK"
00001916 4154455f494e 
0000191c 56414c494441 
00001922 54494e475f42 
00001928 4c4f434b00 
0000192d 56             5789 	.byte	86
0000192e 05             5790 	.byte	5
0000192f 23             5791 	.byte	35
00001930 0e             5792 	.byte	14
                        5793 
                        5794 .LDW_4d5c038:
00001931 2d             5795 	.byte	45
00001932 4e564d5f5354   5796 	.strz	"NVM_STATE_ERASE_ERASE_BLOCK"
00001938 4154455f4552 
0000193e 4153455f4552 
00001944 4153455f424c 
0000194a 4f434b00 
0000194e 58             5797 	.byte	88

                                                                      Page 112
                                                              C:\Users\nhuliyap\AppData\Local\Temp\gh_0000d3s1.s
0000194f 05             5798 	.byte	5
00001950 23             5799 	.byte	35
00001951 0f             5800 	.byte	15
                        5801 
                        5802 .LDW_4d5c078:
00001952 2d             5803 	.byte	45
00001953 4e564d5f5354   5804 	.strz	"NVM_STATE_READALL_PROC_CONFIG_ID"
00001959 4154455f5245 
0000195f 4144414c4c5f 
00001965 50524f435f43 
0000196b 4f4e4649475f 
00001971 494400 
00001974 5b             5805 	.byte	91
00001975 05             5806 	.byte	5
00001976 23             5807 	.byte	35
00001977 10             5808 	.byte	16
                        5809 
                        5810 .LDW_4d5c4b8:
00001978 2d             5811 	.byte	45
00001979 4e564d5f5354   5812 	.strz	"NVM_STATE_READALL_PROC_RAM_BLOCK"
0000197f 4154455f5245 
00001985 4144414c4c5f 
0000198b 50524f435f52 
00001991 414d5f424c4f 
00001997 434b00 
0000199a 5d             5813 	.byte	93
0000199b 05             5814 	.byte	5
0000199c 23             5815 	.byte	35
0000199d 11             5816 	.byte	17
                        5817 
                        5818 .LDW_4d5c538:
0000199e 2d             5819 	.byte	45
0000199f 4e564d5f5354   5820 	.strz	"NVM_STATE_READALL_CHK_SKIP"
000019a5 4154455f5245 
000019ab 4144414c4c5f 
000019b1 43484b5f534b 
000019b7 495000 
000019ba 5f             5821 	.byte	95
000019bb 05             5822 	.byte	5
000019bc 23             5823 	.byte	35
000019bd 12             5824 	.byte	18
                        5825 
                        5826 .LDW_4d5c0f8:
000019be 2d             5827 	.byte	45
000019bf 4e564d5f5354   5828 	.strz	"NVM_STATE_READALL_WR_ONCE_PROT"
000019c5 4154455f5245 
000019cb 4144414c4c5f 
000019d1 57525f4f4e43 
000019d7 455f50524f54 
000019dd 00 
000019de 61             5829 	.byte	97
000019df 05             5830 	.byte	5
000019e0 23             5831 	.byte	35
000019e1 13             5832 	.byte	19
                        5833 
                        5834 .LDW_4d5bdf8:
000019e2 2d             5835 	.byte	45
000019e3 4e564d5f5354   5836 	.strz	"NVM_STATE_READALL_CHK_RAM_VALIDITY"
000019e9 4154455f5245 
000019ef 4144414c4c5f 
000019f5 43484b5f5241 

                                                                      Page 113
                                                              C:\Users\nhuliyap\AppData\Local\Temp\gh_0000d3s1.s
000019fb 4d5f56414c49 
00001a01 4449545900 
00001a06 64             5837 	.byte	100
00001a07 05             5838 	.byte	5
00001a08 23             5839 	.byte	35
00001a09 14             5840 	.byte	20
                        5841 
                        5842 .LDW_4d5b938:
00001a0a 2d             5843 	.byte	45
00001a0b 4e564d5f5354   5844 	.strz	"NVM_STATE_READALL_READ_NV"
00001a11 4154455f5245 
00001a17 4144414c4c5f 
00001a1d 524541445f4e 
00001a23 5600 
00001a25 67             5845 	.byte	103
00001a26 05             5846 	.byte	5
00001a27 23             5847 	.byte	35
00001a28 15             5848 	.byte	21
                        5849 
                        5850 .LDW_4d5b9b8:
00001a29 2d             5851 	.byte	45
00001a2a 4e564d5f5354   5852 	.strz	"NVM_STATE_WRITEALL_PROC_BLOCK"
00001a30 4154455f5752 
00001a36 495445414c4c 
00001a3c 5f50524f435f 
00001a42 424c4f434b00 
00001a48 69             5853 	.byte	105
00001a49 05             5854 	.byte	5
00001a4a 23             5855 	.byte	35
00001a4b 16             5856 	.byte	22
                        5857 
                        5858 .LDW_4d5b7f8:
00001a4c 2d             5859 	.byte	45
00001a4d 4e564d5f5354   5860 	.strz	"NVM_STATE_WRITEALL_WRITE_FSM"
00001a53 4154455f5752 
00001a59 495445414c4c 
00001a5f 5f5752495445 
00001a65 5f46534d00 
00001a6a 6b             5861 	.byte	107
00001a6b 05             5862 	.byte	5
00001a6c 23             5863 	.byte	35
00001a6d 17             5864 	.byte	23
                        5865 
                        5866 .LDW_4d5b7b8:
00001a6e 2d             5867 	.byte	45
00001a6f 4e564d5f5354   5868 	.strz	"NVM_STATE_WRITEALL_WAIT_MEMHWA"
00001a75 4154455f5752 
00001a7b 495445414c4c 
00001a81 5f574149545f 
00001a87 4d454d485741 
00001a8d 00 
00001a8e 6d             5869 	.byte	109
00001a8f 05             5870 	.byte	5
00001a90 23             5871 	.byte	35
00001a91 18             5872 	.byte	24
                        5873 
                        5874 .LDW_4d5b838:
00001a92 2d             5875 	.byte	45
00001a93 4e564d5f5354   5876 	.strz	"NVM_STATE_FSM_FINISHED"
00001a99 4154455f4653 
00001a9f 4d5f46494e49 

                                                                      Page 114
                                                              C:\Users\nhuliyap\AppData\Local\Temp\gh_0000d3s1.s
00001aa5 5348454400 
00001aaa 7e             5877 	.byte	126
00001aab 05             5878 	.byte	5
00001aac 23             5879 	.byte	35
00001aad 19             5880 	.byte	25
                        5881 
00001aae 00             5882 	.byte	0
                        5883 
                        5884 .LDW_4d59dc8:
00001aaf 28             5885 	.byte	40
00001ab0 4e764d5f5374   5886 	.strz	"NvM_StateIdType"
00001ab6 617465496454 
00001abc 79706500 
00001ac0 7f             5887 	.byte	127
00001ac1 02             5888 	.byte	2
00001ac2 23             5889 	.byte	35
00001ac3 00000000*      5890 	.word	.LDW_4d5af78
                        5891 
                        5892 .LDW_4d598a0:
00001ac7 28             5893 	.byte	40
00001ac8 4e764d5f5374   5894 	.strz	"NvM_StateType"
00001ace 617465547970 
00001ad4 6500 
00001ad6 8401           5895 	.byte	132,1
00001ad8 13             5896 	.byte	19
00001ad9 23             5897 	.byte	35
00001ada 00000000*      5898 	.word	.LDW_483c010
                        5899 
                        5900 .LDW_4d5d608:
00001ade 41             5901 	.byte	65
00001adf 8701           5902 	.byte	135,1
00001ae1 0f             5903 	.byte	15
00001ae2 23             5904 	.byte	35
00001ae3 03             5905 	.byte	3
00001ae4 01             5906 	.byte	1
                        5907 
                        5908 .LDW_4d5d578:
00001ae5 23             5909 	.byte	35
00001ae6 496e69746961   5910 	.strz	"InitialActionId"
00001aec 6c416374696f 
00001af2 6e496400 
00001af6 8801           5911 	.byte	136,1
00001af8 1c             5912 	.byte	28
00001af9 23             5913 	.byte	35
00001afa 00000000*      5914 	.word	.LDW_4869370
00001afe 0223           5915 	.byte	2,35
00001b00 00             5916 	.byte	0
00001b01 01             5917 	.byte	1
                        5918 
                        5919 .LDW_4d5d4a0:
00001b02 23             5920 	.byte	35
00001b03 496e69746961   5921 	.strz	"InitialState_t"
00001b09 6c5374617465 
00001b0f 5f7400 
00001b12 8901           5922 	.byte	137,1
00001b14 1c             5923 	.byte	28
00001b15 23             5924 	.byte	35
00001b16 00000000*      5925 	.word	.LDW_4d598a0
00001b1a 0223           5926 	.byte	2,35
00001b1c 01             5927 	.byte	1
00001b1d 01             5928 	.byte	1

                                                                      Page 115
                                                              C:\Users\nhuliyap\AppData\Local\Temp\gh_0000d3s1.s
                        5929 
                        5930 .LDW_4d5d3c8:
00001b1e 23             5931 	.byte	35
00001b1f 5075626c6963   5932 	.strz	"PublicFid_t"
00001b25 4669645f7400 
00001b2b 8a01           5933 	.byte	138,1
00001b2d 1c             5934 	.byte	28
00001b2e 23             5935 	.byte	35
00001b2f 00000000*      5936 	.word	.LDW_4d55e00
00001b33 0223           5937 	.byte	2,35
00001b35 02             5938 	.byte	2
00001b36 01             5939 	.byte	1
                        5940 
00001b37 00             5941 	.byte	0
                        5942 
                        5943 .LDW_4d5dbe0:
00001b38 28             5944 	.byte	40
00001b39 4e764d5f496e   5945 	.strz	"NvM_IntServiceDescrType"
00001b3f 745365727669 
00001b45 636544657363 
00001b4b 725479706500 
00001b51 8b01           5946 	.byte	139,1
00001b53 02             5947 	.byte	2
00001b54 23             5948 	.byte	35
00001b55 00000000*      5949 	.word	.LDW_4d5d608
                        5950 
                        5951 .LDW_4d7cfb8:
00001b59 05             5952 	.byte	5
00001b5a 4e764d5f4e6f   5953 	.strz	"NvM_NoOfBlockIds_t"
00001b60 4f66426c6f63 
00001b66 6b4964735f74 
00001b6c 00 
00001b6d a201           5954 	.byte	162,1
00001b6f 28             5955 	.byte	40
00001b70 07             5956 	.byte	7
00001b71 00000000*      5957 	.word	.LDW_4d52a80
00001b75 01             5958 	.byte	1
00001b76 01             5959 	.byte	1
                        5960 
                        5961 	.section	.debug_abbrev
000000f9 05             5962 	.byte	5
000000fa 34             5963 	.byte	52
000000fb 00             5964 	.byte	0
000000fc 0308           5965 	.byte	3,8
000000fe 3b0f           5966 	.byte	59,15
00000100 390f           5967 	.byte	57,15
00000102 3a0f           5968 	.byte	58,15
00000104 4910           5969 	.byte	73,16
00000106 3f0c           5970 	.byte	63,12
00000108 3c0c           5971 	.byte	60,12
0000010a 0000           5972 	.byte	0,0
                        5973 
                        5974 	.section	.debug_info
                        5975 .LDW_4d7ceb0:
00001b77 05             5976 	.byte	5
00001b78 4e764d5f436f   5977 	.strz	"NvM_CompiledConfigId_t"
00001b7e 6d70696c6564 
00001b84 436f6e666967 
00001b8a 49645f7400 
00001b8f a301           5978 	.byte	163,1
00001b91 3a             5979 	.byte	58

                                                                      Page 116
                                                              C:\Users\nhuliyap\AppData\Local\Temp\gh_0000d3s1.s
00001b92 07             5980 	.byte	7
00001b93 00000000*      5981 	.word	.LDW_4d7cd50
00001b97 01             5982 	.byte	1
00001b98 01             5983 	.byte	1
                        5984 
                        5985 .LDW_4d7d488:
00001b99 05             5986 	.byte	5
00001b9a 4e764d5f496e   5987 	.strz	"NvM_InternalBuffer_au8"
00001ba0 7465726e616c 
00001ba6 427566666572 
00001bac 5f61753800 
00001bb1 f101           5988 	.byte	241,1
00001bb3 25             5989 	.byte	37
00001bb4 1c             5990 	.byte	28
00001bb5 00000000*      5991 	.word	.LDW_4d7b7d0
00001bb9 01             5992 	.byte	1
00001bba 01             5993 	.byte	1
                        5994 
                        5995 .LDW_4d7d2d0:
00001bbb 05             5996 	.byte	5
00001bbc 4e764d5f5465   5997 	.strz	"NvM_TestBuffer_u8"
00001bc2 737442756666 
00001bc8 65725f753800 
00001bce f301           5998 	.byte	243,1
00001bd0 25             5999 	.byte	37
00001bd1 1c             6000 	.byte	28
00001bd2 00000000*      6001 	.word	.LDW_483c010
00001bd6 01             6002 	.byte	1
00001bd7 01             6003 	.byte	1
                        6004 
                        6005 .LDW_4d7d170:
00001bd8 05             6006 	.byte	5
00001bd9 4e764d5f4e6f   6007 	.strz	"NvM_NoOfCrcBytes_u16"
00001bdf 4f6643726342 
00001be5 797465735f75 
00001beb 313600 
00001bee 8702           6008 	.byte	135,2
00001bf0 28             6009 	.byte	40
00001bf1 1c             6010 	.byte	28
00001bf2 00000000*      6011 	.word	.LDW_4d52a80
00001bf6 01             6012 	.byte	1
00001bf7 01             6013 	.byte	1
                        6014 
                        6015 .LDW_4d7d1c8:
00001bf8 05             6016 	.byte	5
00001bf9 4e764d5f426c   6017 	.strz	"NvM_BlockDescriptorTable_at"
00001bff 6f636b446573 
00001c05 63726970746f 
00001c0b 725461626c65 
00001c11 5f617400 
00001c15 9c02           6018 	.byte	156,2
00001c17 39             6019 	.byte	57
00001c18 1c             6020 	.byte	28
00001c19 00000000*      6021 	.word	.LDW_4d7b528
00001c1d 01             6022 	.byte	1
00001c1e 01             6023 	.byte	1
                        6024 
                        6025 .LDW_4d7cca0:
00001c1f 05             6026 	.byte	5
00001c20 4e764d5f426c   6027 	.strz	"NvM_BlockMngmtArea_at"
00001c26 6f636b4d6e67 

                                                                      Page 117
                                                              C:\Users\nhuliyap\AppData\Local\Temp\gh_0000d3s1.s
00001c2c 6d7441726561 
00001c32 5f617400 
00001c36 a202           6028 	.byte	162,2
00001c38 33             6029 	.byte	51
00001c39 1c             6030 	.byte	28
00001c3a 00000000*      6031 	.word	.LDW_4d7b1f8
00001c3e 01             6032 	.byte	1
00001c3f 01             6033 	.byte	1
                        6034 
                        6035 .LDW_4d7d3d8:
00001c40 05             6036 	.byte	5
00001c41 4e764d5f4463   6037 	.strz	"NvM_DcmBlockMngmt_t"
00001c47 6d426c6f636b 
00001c4d 4d6e676d745f 
00001c53 7400 
00001c55 a302           6038 	.byte	163,2
00001c57 33             6039 	.byte	51
00001c58 1c             6040 	.byte	28
00001c59 00000000*      6041 	.word	.LDW_4bdecf8
00001c5d 01             6042 	.byte	1
00001c5e 01             6043 	.byte	1
                        6044 
                        6045 .LDW_4d7cb40:
00001c5f 05             6046 	.byte	5
00001c60 4e764d5f4a6f   6047 	.strz	"NvM_JobMainState_t"
00001c66 624d61696e53 
00001c6c 746174655f74 
00001c72 00 
00001c73 ab01           6048 	.byte	171,1
00001c75 2a             6049 	.byte	42
00001c76 23             6050 	.byte	35
00001c77 00000000*      6051 	.word	.LDW_4d598a0
00001c7b 01             6052 	.byte	1
00001c7c 01             6053 	.byte	1
                        6054 
                        6055 .LDW_4d7d538:
00001c7d 05             6056 	.byte	5
00001c7e 4e764d5f4a6f   6057 	.strz	"NvM_JobSubState_t"
00001c84 625375625374 
00001c8a 6174655f7400 
00001c90 ac01           6058 	.byte	172,1
00001c92 2a             6059 	.byte	42
00001c93 23             6060 	.byte	35
00001c94 00000000*      6061 	.word	.LDW_4d598a0
00001c98 01             6062 	.byte	1
00001c99 01             6063 	.byte	1
                        6064 
                        6065 .LDW_4d7d220:
00001c9a 05             6066 	.byte	5
00001c9b 4e764d5f4170   6067 	.strz	"NvM_ApiFlags_u8"
00001ca1 69466c616773 
00001ca7 5f753800 
00001cab ae01           6068 	.byte	174,1
00001cad 22             6069 	.byte	34
00001cae 23             6070 	.byte	35
00001caf 00000000*      6071 	.word	.LDW_483c010
00001cb3 01             6072 	.byte	1
00001cb4 01             6073 	.byte	1
                        6074 
                        6075 .LDW_4d7cb98:
00001cb5 05             6076 	.byte	5

                                                                      Page 118
                                                              C:\Users\nhuliyap\AppData\Local\Temp\gh_0000d3s1.s
00001cb6 4e764d5f4375   6077 	.strz	"NvM_CurrentJob_t"
00001cbc 7272656e744a 
00001cc2 6f625f7400 
00001cc7 be01           6078 	.byte	190,1
00001cc9 2b             6079 	.byte	43
00001cca 23             6080 	.byte	35
00001ccb 00000000*      6081 	.word	.LDW_4d59848
00001ccf 01             6082 	.byte	1
00001cd0 01             6083 	.byte	1
                        6084 
                        6085 .LDW_4d7d850:
00001cd1 05             6086 	.byte	5
00001cd2 4e764d5f4375   6087 	.strz	"NvM_CurrentBlockInfo_t"
00001cd8 7272656e7442 
00001cde 6c6f636b496e 
00001ce4 666f5f7400 
00001ce9 bf01           6088 	.byte	191,1
00001ceb 31             6089 	.byte	49
00001cec 23             6090 	.byte	35
00001ced 00000000*      6091 	.word	.LDW_4d52ad8
00001cf1 01             6092 	.byte	1
00001cf2 01             6093 	.byte	1
                        6094 
                        6095 .LDW_4d7d5e8:
00001cf3 05             6096 	.byte	5
00001cf4 4e764d5f496e   6097 	.strz	"NvM_IntServiceDescrTable_at"
00001cfa 745365727669 
00001d00 636544657363 
00001d06 725461626c65 
00001d0c 5f617400 
00001d10 c701           6098 	.byte	199,1
00001d12 3a             6099 	.byte	58
00001d13 23             6100 	.byte	35
00001d14 00000000*      6101 	.word	.LDW_4d7b170
00001d18 01             6102 	.byte	1
00001d19 01             6103 	.byte	1
                        6104 
                        6105 .LDW_4d7d6f0:
00001d1a 04             6106 	.byte	4
00001d1b 4e764d5f4163   6107 	.strz	"NvM_ActionTable_ap"
00001d21 74696f6e5461 
00001d27 626c655f6170 
00001d2d 00 
00001d2e a801           6108 	.byte	168,1
00001d30 2d             6109 	.byte	45
00001d31 01             6110 	.byte	1
00001d32 00000000*      6111 	.word	.LDW_4d7b280
00001d36 01             6112 	.byte	1
00001d37 00             6113 	.byte	0
00001d38 0503           6114 	.byte	5,3
00001d3a 00000000*      6115 	.word	_NvM_ActionTable_ap
                        6116 
                        6117 	.section	.debug_abbrev
0000010c 04             6118 	.byte	4
0000010d 34             6119 	.byte	52
0000010e 00             6120 	.byte	0
0000010f 0308           6121 	.byte	3,8
00000111 3b0f           6122 	.byte	59,15
00000113 390f           6123 	.byte	57,15
00000115 3a0f           6124 	.byte	58,15
00000117 4910           6125 	.byte	73,16

                                                                      Page 119
                                                              C:\Users\nhuliyap\AppData\Local\Temp\gh_0000d3s1.s
00000119 3f0c           6126 	.byte	63,12
0000011b 3c0c           6127 	.byte	60,12
0000011d 020a           6128 	.byte	2,10
0000011f 0000           6129 	.byte	0,0
                        6130 
                        6131 	.section	.debug_info
                        6132 .LDW_4d7f3d8:
00001d3e 16             6133 	.byte	22
00001d3f 4d656d49665f   6134 	.strz	"MemIf_Read"
00001d45 5265616400 
00001d4a 28             6135 	.byte	40
00001d4b 22             6136 	.byte	34
00001d4c 1d             6137 	.byte	29
00001d4d 00000000*      6138 	.word	.LDW_4869630
00001d51 01             6139 	.byte	1
00001d52 00             6140 	.byte	0
00001d53 01             6141 	.byte	1
00001d54 01             6142 	.byte	1
00001d55 00             6143 	.byte	0
00001d56 01             6144 	.byte	1
                        6145 
                        6146 	.section	.debug_abbrev
00000121 16             6147 	.byte	22
00000122 2e             6148 	.byte	46
00000123 01             6149 	.byte	1
00000124 0308           6150 	.byte	3,8
00000126 3b0f           6151 	.byte	59,15
00000128 390f           6152 	.byte	57,15
0000012a 3a0f           6153 	.byte	58,15
0000012c 4910           6154 	.byte	73,16
0000012e 3c0c           6155 	.byte	60,12
00000130 200b           6156 	.byte	32,11
00000132 3f0c           6157 	.byte	63,12
00000134 320b           6158 	.byte	50,11
00000136 4c0b           6159 	.byte	76,11
00000138 270c           6160 	.byte	39,12
0000013a 0000           6161 	.byte	0,0
                        6162 
                        6163 	.section	.debug_info
00001d57 00             6164 	.byte	0
                        6165 
                        6166 .LDW_4d7f508:
00001d58 16             6167 	.byte	22
00001d59 4d656d49665f   6168 	.strz	"MemIf_Write"
00001d5f 577269746500 
00001d65 2a             6169 	.byte	42
00001d66 22             6170 	.byte	34
00001d67 1d             6171 	.byte	29
00001d68 00000000*      6172 	.word	.LDW_4869630
00001d6c 01             6173 	.byte	1
00001d6d 00             6174 	.byte	0
00001d6e 01             6175 	.byte	1
00001d6f 01             6176 	.byte	1
00001d70 00             6177 	.byte	0
00001d71 01             6178 	.byte	1
                        6179 
00001d72 00             6180 	.byte	0
                        6181 
                        6182 .LDW_4d7faf8:
00001d73 16             6183 	.byte	22
00001d74 4d656d49665f   6184 	.strz	"MemIf_InvalidateBlock"

                                                                      Page 120
                                                              C:\Users\nhuliyap\AppData\Local\Temp\gh_0000d3s1.s
00001d7a 496e76616c69 
00001d80 64617465426c 
00001d86 6f636b00 
00001d8a 2c             6185 	.byte	44
00001d8b 22             6186 	.byte	34
00001d8c 1d             6187 	.byte	29
00001d8d 00000000*      6188 	.word	.LDW_4869630
00001d91 01             6189 	.byte	1
00001d92 00             6190 	.byte	0
00001d93 01             6191 	.byte	1
00001d94 01             6192 	.byte	1
00001d95 00             6193 	.byte	0
00001d96 01             6194 	.byte	1
                        6195 
00001d97 00             6196 	.byte	0
                        6197 
                        6198 .LDW_4d80180:
00001d98 16             6199 	.byte	22
00001d99 4d656d49665f   6200 	.strz	"MemIf_EraseImmediateBlock"
00001d9f 457261736549 
00001da5 6d6d65646961 
00001dab 7465426c6f63 
00001db1 6b00 
00001db3 2e             6201 	.byte	46
00001db4 22             6202 	.byte	34
00001db5 1d             6203 	.byte	29
00001db6 00000000*      6204 	.word	.LDW_4869630
00001dba 01             6205 	.byte	1
00001dbb 00             6206 	.byte	0
00001dbc 01             6207 	.byte	1
00001dbd 01             6208 	.byte	1
00001dbe 00             6209 	.byte	0
00001dbf 01             6210 	.byte	1
                        6211 
00001dc0 00             6212 	.byte	0
                        6213 
                        6214 .LDW_4d7f2a8:
00001dc1 15             6215 	.byte	21
00001dc2 4d656d49665f   6216 	.strz	"MemIf_Cancel"
00001dc8 43616e63656c 
00001dce 00 
00001dcf 30             6217 	.byte	48
00001dd0 18             6218 	.byte	24
00001dd1 1d             6219 	.byte	29
00001dd2 01             6220 	.byte	1
00001dd3 00             6221 	.byte	0
00001dd4 01             6222 	.byte	1
00001dd5 01             6223 	.byte	1
00001dd6 00             6224 	.byte	0
00001dd7 01             6225 	.byte	1
                        6226 
                        6227 	.section	.debug_abbrev
0000013c 15             6228 	.byte	21
0000013d 2e             6229 	.byte	46
0000013e 01             6230 	.byte	1
0000013f 0308           6231 	.byte	3,8
00000141 3b0f           6232 	.byte	59,15
00000143 390f           6233 	.byte	57,15
00000145 3a0f           6234 	.byte	58,15
00000147 3c0c           6235 	.byte	60,12
00000149 200b           6236 	.byte	32,11

                                                                      Page 121
                                                              C:\Users\nhuliyap\AppData\Local\Temp\gh_0000d3s1.s
0000014b 3f0c           6237 	.byte	63,12
0000014d 320b           6238 	.byte	50,11
0000014f 4c0b           6239 	.byte	76,11
00000151 270c           6240 	.byte	39,12
00000153 0000           6241 	.byte	0,0
                        6242 
                        6243 	.section	.debug_info
00001dd8 00             6244 	.byte	0
                        6245 
                        6246 .LDW_4d7f5a0:
00001dd9 16             6247 	.byte	22
00001dda 4d656d49665f   6248 	.strz	"MemIf_GetStatus"
00001de0 476574537461 
00001de6 74757300 
00001dea 32             6249 	.byte	50
00001deb 24             6250 	.byte	36
00001dec 1d             6251 	.byte	29
00001ded 00000000*      6252 	.word	.LDW_4d560c0
00001df1 01             6253 	.byte	1
00001df2 00             6254 	.byte	0
00001df3 01             6255 	.byte	1
00001df4 01             6256 	.byte	1
00001df5 00             6257 	.byte	0
00001df6 01             6258 	.byte	1
                        6259 
00001df7 00             6260 	.byte	0
                        6261 
                        6262 .LDW_4d7f638:
00001df8 15             6263 	.byte	21
00001df9 4d656d49665f   6264 	.strz	"MemIf_SetMode"
00001dff 5365744d6f64 
00001e05 6500 
00001e07 3b             6265 	.byte	59
00001e08 18             6266 	.byte	24
00001e09 1d             6267 	.byte	29
00001e0a 01             6268 	.byte	1
00001e0b 00             6269 	.byte	0
00001e0c 01             6270 	.byte	1
00001e0d 01             6271 	.byte	1
00001e0e 00             6272 	.byte	0
00001e0f 01             6273 	.byte	1
                        6274 
00001e10 00             6275 	.byte	0
                        6276 
                        6277 .LDW_4d83e58:
00001e11 15             6278 	.byte	21
00001e12 4e764d5f456e   6279 	.strz	"NvM_EnterCriticalSection"
00001e18 746572437269 
00001e1e 746963616c53 
00001e24 656374696f6e 
00001e2a 00 
00001e2b e701           6280 	.byte	231,1
00001e2d 25             6281 	.byte	37
00001e2e 1c             6282 	.byte	28
00001e2f 01             6283 	.byte	1
00001e30 00             6284 	.byte	0
00001e31 01             6285 	.byte	1
00001e32 01             6286 	.byte	1
00001e33 00             6287 	.byte	0
00001e34 01             6288 	.byte	1
                        6289 

                                                                      Page 122
                                                              C:\Users\nhuliyap\AppData\Local\Temp\gh_0000d3s1.s
00001e35 00             6290 	.byte	0
                        6291 
                        6292 .LDW_4d841e8:
00001e36 15             6293 	.byte	21
00001e37 4e764d5f4578   6294 	.strz	"NvM_ExitCriticalSection"
00001e3d 697443726974 
00001e43 6963616c5365 
00001e49 6374696f6e00 
00001e4f e801           6295 	.byte	232,1
00001e51 25             6296 	.byte	37
00001e52 1c             6297 	.byte	28
00001e53 01             6298 	.byte	1
00001e54 00             6299 	.byte	0
00001e55 01             6300 	.byte	1
00001e56 01             6301 	.byte	1
00001e57 00             6302 	.byte	0
00001e58 01             6303 	.byte	1
                        6304 
00001e59 00             6305 	.byte	0
                        6306 
                        6307 .LDW_4d84150:
00001e5a 15             6308 	.byte	21
00001e5b 4e764d5f4d75   6309 	.strz	"NvM_MultiBlockCbk"
00001e61 6c7469426c6f 
00001e67 636b43626b00 
00001e6d e901           6310 	.byte	233,1
00001e6f 25             6311 	.byte	37
00001e70 1c             6312 	.byte	28
00001e71 01             6313 	.byte	1
00001e72 00             6314 	.byte	0
00001e73 01             6315 	.byte	1
00001e74 01             6316 	.byte	1
00001e75 00             6317 	.byte	0
00001e76 01             6318 	.byte	1
                        6319 
00001e77 00             6320 	.byte	0
                        6321 
                        6322 .LDW_4d83ef0:
00001e78 15             6323 	.byte	21
00001e79 4e764d5f426c   6324 	.strz	"NvM_BlockNotification"
00001e7f 6f636b4e6f74 
00001e85 696669636174 
00001e8b 696f6e00 
00001e8f ea01           6325 	.byte	234,1
00001e91 25             6326 	.byte	37
00001e92 1c             6327 	.byte	28
00001e93 01             6328 	.byte	1
00001e94 00             6329 	.byte	0
00001e95 01             6330 	.byte	1
00001e96 01             6331 	.byte	1
00001e97 00             6332 	.byte	0
00001e98 01             6333 	.byte	1
                        6334 
00001e99 00             6335 	.byte	0
                        6336 
                        6337 .LDW_4d83dc0:
00001e9a 15             6338 	.byte	21
00001e9b 4e764d5f4372   6339 	.strz	"NvM_CrcJob_Create"
00001ea1 634a6f625f43 
00001ea7 726561746500 
00001ead 59             6340 	.byte	89

                                                                      Page 123
                                                              C:\Users\nhuliyap\AppData\Local\Temp\gh_0000d3s1.s
00001eae 25             6341 	.byte	37
00001eaf 26             6342 	.byte	38
00001eb0 01             6343 	.byte	1
00001eb1 00             6344 	.byte	0
00001eb2 01             6345 	.byte	1
00001eb3 01             6346 	.byte	1
00001eb4 00             6347 	.byte	0
00001eb5 01             6348 	.byte	1
                        6349 
00001eb6 00             6350 	.byte	0
                        6351 
                        6352 .LDW_4d84578:
00001eb7 15             6353 	.byte	21
00001eb8 4e764d5f4372   6354 	.strz	"NvM_CrcJob_Process"
00001ebe 634a6f625f50 
00001ec4 726f63657373 
00001eca 00 
00001ecb 5b             6355 	.byte	91
00001ecc 25             6356 	.byte	37
00001ecd 26             6357 	.byte	38
00001ece 01             6358 	.byte	1
00001ecf 00             6359 	.byte	0
00001ed0 01             6360 	.byte	1
00001ed1 01             6361 	.byte	1
00001ed2 00             6362 	.byte	0
00001ed3 01             6363 	.byte	1
                        6364 
00001ed4 00             6365 	.byte	0
                        6366 
                        6367 .LDW_4d84020:
00001ed5 15             6368 	.byte	21
00001ed6 4e764d5f4372   6369 	.strz	"NvM_CrcJob_CopyToBuffer"
00001edc 634a6f625f43 
00001ee2 6f7079546f42 
00001ee8 756666657200 
00001eee 5d             6370 	.byte	93
00001eef 25             6371 	.byte	37
00001ef0 26             6372 	.byte	38
00001ef1 01             6373 	.byte	1
00001ef2 00             6374 	.byte	0
00001ef3 01             6375 	.byte	1
00001ef4 01             6376 	.byte	1
00001ef5 00             6377 	.byte	0
00001ef6 01             6378 	.byte	1
                        6379 
00001ef7 00             6380 	.byte	0
                        6381 
                        6382 .LDW_4d847d8:
00001ef8 16             6383 	.byte	22
00001ef9 4e764d5f4372   6384 	.strz	"NvM_CrcJob_Compare"
00001eff 634a6f625f43 
00001f05 6f6d70617265 
00001f0b 00 
00001f0c 5f             6385 	.byte	95
00001f0d 28             6386 	.byte	40
00001f0e 26             6387 	.byte	38
00001f0f 00000000*      6388 	.word	.LDW_48696e0
00001f13 01             6389 	.byte	1
00001f14 00             6390 	.byte	0
00001f15 01             6391 	.byte	1
00001f16 01             6392 	.byte	1

                                                                      Page 124
                                                              C:\Users\nhuliyap\AppData\Local\Temp\gh_0000d3s1.s
00001f17 00             6393 	.byte	0
00001f18 01             6394 	.byte	1
                        6395 
00001f19 00             6396 	.byte	0
                        6397 
                        6398 .LDW_4d840b8:
00001f1a 15             6399 	.byte	21
00001f1b 4e764d5f4372   6400 	.strz	"NvM_CrcJob_ExportBufferedValue"
00001f21 634a6f625f45 
00001f27 78706f727442 
00001f2d 756666657265 
00001f33 6456616c7565 
00001f39 00 
00001f3a 63             6401 	.byte	99
00001f3b 25             6402 	.byte	37
00001f3c 26             6403 	.byte	38
00001f3d 01             6404 	.byte	1
00001f3e 00             6405 	.byte	0
00001f3f 01             6406 	.byte	1
00001f40 01             6407 	.byte	1
00001f41 00             6408 	.byte	0
00001f42 01             6409 	.byte	1
                        6410 
00001f43 00             6411 	.byte	0
                        6412 
                        6413 .LDW_4d849a0:
00001f44 15             6414 	.byte	21
00001f45 4e764d5f4372   6415 	.strz	"NvM_CrcJob_ImportBufferedValue"
00001f4b 634a6f625f49 
00001f51 6d706f727442 
00001f57 756666657265 
00001f5d 6456616c7565 
00001f63 00 
00001f64 65             6416 	.byte	101
00001f65 25             6417 	.byte	37
00001f66 26             6418 	.byte	38
00001f67 01             6419 	.byte	1
00001f68 00             6420 	.byte	0
00001f69 01             6421 	.byte	1
00001f6a 01             6422 	.byte	1
00001f6b 00             6423 	.byte	0
00001f6c 01             6424 	.byte	1
                        6425 
00001f6d 00             6426 	.byte	0
                        6427 
                        6428 .LDW_4d846a8:
00001f6e 15             6429 	.byte	21
00001f6f 4e764d5f4163   6430 	.strz	"NvM_ActGetNormalPrioJob"
00001f75 744765744e6f 
00001f7b 726d616c5072 
00001f81 696f4a6f6200 
00001f87 1c             6431 	.byte	28
00001f88 25             6432 	.byte	37
00001f89 27             6433 	.byte	39
00001f8a 01             6434 	.byte	1
00001f8b 00             6435 	.byte	0
00001f8c 01             6436 	.byte	1
00001f8d 01             6437 	.byte	1
00001f8e 00             6438 	.byte	0
00001f8f 01             6439 	.byte	1
                        6440 

                                                                      Page 125
                                                              C:\Users\nhuliyap\AppData\Local\Temp\gh_0000d3s1.s
00001f90 00             6441 	.byte	0
                        6442 
                        6443 .LDW_486b2a8:
00001f91 13             6444 	.byte	19
00001f92 4e764d5f4163   6445 	.strz	"NvM_ActEraseNvBlock"
00001f98 744572617365 
00001f9e 4e76426c6f63 
00001fa4 6b00 
00001fa6 f201           6446 	.byte	242,1
00001fa8 28             6447 	.byte	40
00001fa9 01             6448 	.byte	1
00001faa 00000000*      6449 	.word	_NvM_ActEraseNvBlock..C.3A.5C_ECU2.5CECU_Rivian_A1.5CTarget.5Crepo_projects.5CpRealEcu.5CcL_LATEST.5Cmake.5Coutput.5Cobjects.5CNvM_Act.
00001fae 00000000*      6450 	.word	___ghs_eofn_NvM_ActEraseNvBlock
00001fb2 0153           6451 	.byte	1,83
00001fb4 828080800b     6452 	.byte	130,128,128,128,11
00001fb9 0c             6453 	.byte	12
00001fba 03             6454 	.byte	3
00001fbb 0c             6455 	.byte	12
00001fbc 00             6456 	.byte	0
00001fbd 00             6457 	.byte	0
00001fbe 00             6458 	.byte	0
00001fbf 00             6459 	.byte	0
00001fc0 01             6460 	.byte	1
00001fc1 00             6461 	.byte	0
00001fc2 01             6462 	.byte	1
                        6463 
                        6464 	.section	.debug_abbrev
00000155 13             6465 	.byte	19
00000156 2e             6466 	.byte	46
00000157 01             6467 	.byte	1
00000158 0308           6468 	.byte	3,8
0000015a 3b0f           6469 	.byte	59,15
0000015c 390f           6470 	.byte	57,15
0000015e 3a0f           6471 	.byte	58,15
00000160 1101           6472 	.byte	17,1
00000162 1201           6473 	.byte	18,1
00000164 400a           6474 	.byte	64,10
00000166 8341           6475 	.byte	131,65
00000168 0f             6476 	.byte	15
00000169 8741           6477 	.byte	135,65
0000016b 0d             6478 	.byte	13
0000016c 8541           6479 	.byte	133,65
0000016e 0f             6480 	.byte	15
0000016f 8641           6481 	.byte	134,65
00000171 0d             6482 	.byte	13
00000172 9241           6483 	.byte	146,65
00000174 0f             6484 	.byte	15
00000175 3c0c           6485 	.byte	60,12
00000177 200b           6486 	.byte	32,11
00000179 3f0c           6487 	.byte	63,12
0000017b 320b           6488 	.byte	50,11
0000017d 4c0b           6489 	.byte	76,11
0000017f 270c           6490 	.byte	39,12
00000181 0000           6491 	.byte	0,0
                        6492 
                        6493 	.section	.debug_frame
                        6494 .LDW_4d5bb78:
00000090 00000000*      6495 	.word	.LDW_unq_4-.LDW_unq_3
                        6496 .LDW_unq_3:
00000094 00000000*      6497 	.word	.LDW_4d14688
00000098 00000000*      6498 	.word	_NvM_ActEraseNvBlock..C.3A.5C_ECU2.5CECU_Rivian_A1.5CTarget.5Crepo_projects.5CpRealEcu.5CcL_LATEST.5Cmake.5Coutput.5Cobjects.5CNvM_Act.

                                                                      Page 126
                                                              C:\Users\nhuliyap\AppData\Local\Temp\gh_0000d3s1.s
0000009c 00000000*      6499 	.word	___ghs_eofn_NvM_ActEraseNvBlock-_NvM_ActEraseNvBlock..C.3A.5C_ECU2.5CECU_Rivian_A1.5CTarget.5Crepo_projects.5CpRealEcu.5CcL_LATEST.5Cmake.5Coutput.5Cobjects.5CNvM_Act.
000000a0 44             6500 	.byte	68
000000a1 9f             6501 	.byte	159
000000a2 00             6502 	.byte	0
000000a3 40             6503 	.byte	64
000000a4 9d             6504 	.byte	157
000000a5 04             6505 	.byte	4
000000a6 40             6506 	.byte	64
000000a7 9c             6507 	.byte	156
000000a8 08             6508 	.byte	8
000000a9 01             6509 	.byte	1
000000aa 00000000*      6510 	.word	.LDW11
000000ae 44             6511 	.byte	68
000000af df             6512 	.byte	223
000000b0 40             6513 	.byte	64
000000b1 dd             6514 	.byte	221
000000b2 40             6515 	.byte	64
000000b3 dc             6516 	.byte	220
                        6517 .LDW_unq_4:
                        6518 	.section	.debug_line
00000689 000502         6519 	.byte	0,5,2
0000068c 00000000*      6520 	.word	_NvM_ActEraseNvBlock..C.3A.5C_ECU2.5CECU_Rivian_A1.5CTarget.5Crepo_projects.5CpRealEcu.5CcL_LATEST.5Cmake.5Coutput.5Cobjects.5CNvM_Act.
00000690 03             6521 	.byte	3
00000691 f101           6522 	.byte	241,1
00000693 02             6523 	.byte	2
00000694 00             6524 	.byte	0
00000695 01             6525 	.byte	1
00000696 06             6526 	.byte	6
00000697 1b             6527 	.byte	27
00000698 000502         6528 	.byte	0,5,2
0000069b 00000000*      6529 	.word	.LDWlin1
0000069f 0c             6530 	.byte	12
000006a0 0b             6531 	.byte	11
000006a1 03             6532 	.byte	3
000006a2 04             6533 	.byte	4
000006a3 02             6534 	.byte	2
000006a4 08             6535 	.byte	8
000006a5 01             6536 	.byte	1
000006a6 02             6537 	.byte	2
000006a7 00             6538 	.byte	0
000006a8 0b             6539 	.byte	11
000006a9 02             6540 	.byte	2
000006aa 04             6541 	.byte	4
000006ab 000101         6542 	.byte	0,1,1
                        6543 	.section	.debug_info
                        6544 .LDW_486b7a8:
00001fc3 1d             6545 	.byte	29
00001fc4 00000000*      6546 	.word	.LDW01
00001fc8 00000000*      6547 	.word	.LDW11
                        6548 
                        6549 	.section	.debug_abbrev
00000183 1d             6550 	.byte	29
00000184 0b             6551 	.byte	11
00000185 01             6552 	.byte	1
00000186 1101           6553 	.byte	17,1
00000188 1201           6554 	.byte	18,1
0000018a 0000           6555 	.byte	0,0
                        6556 
                        6557 	.section	.debug_info
00001fcc 00             6558 	.byte	0
                        6559 

                                                                      Page 127
                                                              C:\Users\nhuliyap\AppData\Local\Temp\gh_0000d3s1.s
00001fcd 00             6560 	.byte	0
                        6561 
                        6562 .LDW_486ef20:
00001fce 13             6563 	.byte	19
00001fcf 4e764d5f4163   6564 	.strz	"NvM_ActFinishBlock"
00001fd5 7446696e6973 
00001fdb 68426c6f636b 
00001fe1 00 
00001fe2 fe01           6565 	.byte	254,1
00001fe4 28             6566 	.byte	40
00001fe5 01             6567 	.byte	1
00001fe6 00000000*      6568 	.word	_NvM_ActFinishBlock..C.3A.5C_ECU2.5CECU_Rivian_A1.5CTarget.5Crepo_projects.5CpRealEcu.5CcL_LATEST.5Cmake.5Coutput.5Cobjects.5CNvM_Act.
00001fea 00000000*      6569 	.word	___ghs_eofn_NvM_ActFinishBlock
00001fee 0153           6570 	.byte	1,83
00001ff0 828080800b     6571 	.byte	130,128,128,128,11
00001ff5 0c             6572 	.byte	12
00001ff6 03             6573 	.byte	3
00001ff7 0c             6574 	.byte	12
00001ff8 00             6575 	.byte	0
00001ff9 00             6576 	.byte	0
00001ffa 00             6577 	.byte	0
00001ffb 00             6578 	.byte	0
00001ffc 01             6579 	.byte	1
00001ffd 00             6580 	.byte	0
00001ffe 01             6581 	.byte	1
                        6582 
                        6583 	.section	.debug_frame
                        6584 .LDW_4d5bd78:
000000b4 00000000*      6585 	.word	.LDW_unq_6-.LDW_unq_5
                        6586 .LDW_unq_5:
000000b8 00000000*      6587 	.word	.LDW_4d14688
000000bc 00000000*      6588 	.word	_NvM_ActFinishBlock..C.3A.5C_ECU2.5CECU_Rivian_A1.5CTarget.5Crepo_projects.5CpRealEcu.5CcL_LATEST.5Cmake.5Coutput.5Cobjects.5CNvM_Act.
000000c0 00000000*      6589 	.word	___ghs_eofn_NvM_ActFinishBlock-_NvM_ActFinishBlock..C.3A.5C_ECU2.5CECU_Rivian_A1.5CTarget.5Crepo_projects.5CpRealEcu.5CcL_LATEST.5Cmake.5Coutput.5Cobjects.5CNvM_Act.
000000c4 44             6590 	.byte	68
000000c5 9f             6591 	.byte	159
000000c6 00             6592 	.byte	0
000000c7 40             6593 	.byte	64
000000c8 9d             6594 	.byte	157
000000c9 04             6595 	.byte	4
000000ca 40             6596 	.byte	64
000000cb 9c             6597 	.byte	156
000000cc 08             6598 	.byte	8
000000cd 01             6599 	.byte	1
000000ce 00000000*      6600 	.word	.LDW51
000000d2 00             6601 	.byte	0
000000d3 00             6602 	.byte	0
                        6603 .LDW_unq_6:
                        6604 	.section	.debug_line
000006ae 000502         6605 	.byte	0,5,2
000006b1 00000000*      6606 	.word	_NvM_ActFinishBlock..C.3A.5C_ECU2.5CECU_Rivian_A1.5CTarget.5Crepo_projects.5CpRealEcu.5CcL_LATEST.5Cmake.5Coutput.5Cobjects.5CNvM_Act.
000006b5 03             6607 	.byte	3
000006b6 fd01           6608 	.byte	253,1
000006b8 02             6609 	.byte	2
000006b9 00             6610 	.byte	0
000006ba 01             6611 	.byte	1
000006bb 06             6612 	.byte	6
000006bc 1d             6613 	.byte	29
000006bd 000502         6614 	.byte	0,5,2
000006c0 00000000*      6615 	.word	.LDWlin3
000006c4 0b             6616 	.byte	11
000006c5 0b             6617 	.byte	11

                                                                      Page 128
                                                              C:\Users\nhuliyap\AppData\Local\Temp\gh_0000d3s1.s
000006c6 33             6618 	.byte	51
000006c7 02             6619 	.byte	2
000006c8 00             6620 	.byte	0
000006c9 03             6621 	.byte	3
000006ca 06             6622 	.byte	6
000006cb 02             6623 	.byte	2
000006cc 00             6624 	.byte	0
000006cd 01             6625 	.byte	1
000006ce 000502         6626 	.byte	0,5,2
000006d1 00000000*      6627 	.word	.LDWlin4
000006d5 0b             6628 	.byte	11
000006d6 0b             6629 	.byte	11
000006d7 000502         6630 	.byte	0,5,2
000006da 00000000*      6631 	.word	.LDWlin5
000006de 0d             6632 	.byte	13
000006df 02             6633 	.byte	2
000006e0 00             6634 	.byte	0
000006e1 0c             6635 	.byte	12
000006e2 1b             6636 	.byte	27
000006e3 02             6637 	.byte	2
000006e4 04             6638 	.byte	4
000006e5 000101         6639 	.byte	0,1,1
                        6640 	.section	.debug_info
                        6641 .LDW_486b7d8:
00001fff 1d             6642 	.byte	29
00002000 00000000*      6643 	.word	.LDW41
00002004 00000000*      6644 	.word	.LDW51
                        6645 
00002008 00             6646 	.byte	0
                        6647 
00002009 00             6648 	.byte	0
                        6649 
                        6650 .LDW_486e840:
0000200a 13             6651 	.byte	19
0000200b 4e764d5f4163   6652 	.strz	"NvM_ActInitNextBlockReadAll"
00002011 74496e69744e 
00002017 657874426c6f 
0000201d 636b52656164 
00002023 416c6c00 
00002027 9402           6653 	.byte	148,2
00002029 28             6654 	.byte	40
0000202a 01             6655 	.byte	1
0000202b 00000000*      6656 	.word	_NvM_ActInitNextBlockReadAll..C.3A.5C_ECU2.5CECU_Rivian_A1.5CTarget.5Crepo_projects.5CpRealEcu.5CcL_LATEST.5Cmake.5Coutput.5Cobjects.5CNvM_Act.
0000202f 00000000*      6657 	.word	___ghs_eofn_NvM_ActInitNextBlockReadAll
00002033 0153           6658 	.byte	1,83
00002035 828080800b     6659 	.byte	130,128,128,128,11
0000203a 0c             6660 	.byte	12
0000203b 03             6661 	.byte	3
0000203c 0c             6662 	.byte	12
0000203d 00             6663 	.byte	0
0000203e 00             6664 	.byte	0
0000203f 00             6665 	.byte	0
00002040 00             6666 	.byte	0
00002041 01             6667 	.byte	1
00002042 00             6668 	.byte	0
00002043 01             6669 	.byte	1
                        6670 
                        6671 	.section	.debug_frame
                        6672 .LDW_4d5bcb8:
000000d4 00000000*      6673 	.word	.LDW_unq_8-.LDW_unq_7
                        6674 .LDW_unq_7:

                                                                      Page 129
                                                              C:\Users\nhuliyap\AppData\Local\Temp\gh_0000d3s1.s
000000d8 00000000*      6675 	.word	.LDW_4d14688
000000dc 00000000*      6676 	.word	_NvM_ActInitNextBlockReadAll..C.3A.5C_ECU2.5CECU_Rivian_A1.5CTarget.5Crepo_projects.5CpRealEcu.5CcL_LATEST.5Cmake.5Coutput.5Cobjects.5CNvM_Act.
000000e0 00000000*      6677 	.word	___ghs_eofn_NvM_ActInitNextBlockReadAll-_NvM_ActInitNextBlockReadAll..C.3A.5C_ECU2.5CECU_Rivian_A1.5CTarget.5Crepo_projects.5CpRealEcu.5CcL_LATEST.5Cmake.5Coutput.5Cobjects.5CNvM_Act.
000000e4 44             6678 	.byte	68
000000e5 9f             6679 	.byte	159
000000e6 00             6680 	.byte	0
000000e7 40             6681 	.byte	64
000000e8 9d             6682 	.byte	157
000000e9 04             6683 	.byte	4
000000ea 40             6684 	.byte	64
000000eb 9c             6685 	.byte	156
000000ec 08             6686 	.byte	8
000000ed 01             6687 	.byte	1
000000ee 00000000*      6688 	.word	.LDW12
000000f2 00             6689 	.byte	0
000000f3 00             6690 	.byte	0
                        6691 .LDW_unq_8:
                        6692 	.section	.debug_line
000006e8 000502         6693 	.byte	0,5,2
000006eb 00000000*      6694 	.word	_NvM_ActInitNextBlockReadAll..C.3A.5C_ECU2.5CECU_Rivian_A1.5CTarget.5Crepo_projects.5CpRealEcu.5CcL_LATEST.5Cmake.5Coutput.5Cobjects.5CNvM_Act.
000006ef 03             6695 	.byte	3
000006f0 9302           6696 	.byte	147,2
000006f2 02             6697 	.byte	2
000006f3 00             6698 	.byte	0
000006f4 01             6699 	.byte	1
000006f5 06             6700 	.byte	6
000006f6 1b             6701 	.byte	27
000006f7 000502         6702 	.byte	0,5,2
000006fa 00000000*      6703 	.word	.LDWlin17
000006fe 0c             6704 	.byte	12
000006ff 000502         6705 	.byte	0,5,2
00000702 00000000*      6706 	.word	.LDWlin18
00000706 0c             6707 	.byte	12
00000707 000502         6708 	.byte	0,5,2
0000070a 00000000*      6709 	.word	.LDWlin19
0000070e 0b             6710 	.byte	11
0000070f 0b             6711 	.byte	11
00000710 000502         6712 	.byte	0,5,2
00000713 00000000*      6713 	.word	.LDWlin20
00000717 0c             6714 	.byte	12
00000718 000502         6715 	.byte	0,5,2
0000071b 00000000*      6716 	.word	.LDWlin21
0000071f 03             6717 	.byte	3
00000720 05             6718 	.byte	5
00000721 02             6719 	.byte	2
00000722 00             6720 	.byte	0
00000723 01             6721 	.byte	1
00000724 35             6722 	.byte	53
00000725 02             6723 	.byte	2
00000726 00             6724 	.byte	0
00000727 0b             6725 	.byte	11
00000728 02             6726 	.byte	2
00000729 04             6727 	.byte	4
0000072a 000101         6728 	.byte	0,1,1
                        6729 	.section	.debug_info
                        6730 .LDW_486b448:
00002044 1d             6731 	.byte	29
00002045 00000000*      6732 	.word	.LDW02
00002049 00000000*      6733 	.word	.LDW12
                        6734 
0000204d 00             6735 	.byte	0

                                                                      Page 130
                                                              C:\Users\nhuliyap\AppData\Local\Temp\gh_0000d3s1.s
                        6736 
0000204e 00             6737 	.byte	0
                        6738 
                        6739 .LDW_486e8d8:
0000204f 13             6740 	.byte	19
00002050 4e764d5f4163   6741 	.strz	"NvM_ActInitNextBlockWriteAll"
00002056 74496e69744e 
0000205c 657874426c6f 
00002062 636b57726974 
00002068 65416c6c00 
0000206d a802           6742 	.byte	168,2
0000206f 28             6743 	.byte	40
00002070 01             6744 	.byte	1
00002071 00000000*      6745 	.word	_NvM_ActInitNextBlockWriteAll..C.3A.5C_ECU2.5CECU_Rivian_A1.5CTarget.5Crepo_projects.5CpRealEcu.5CcL_LATEST.5Cmake.5Coutput.5Cobjects.5CNvM_Act.
00002075 00000000*      6746 	.word	___ghs_eofn_NvM_ActInitNextBlockWriteAll
00002079 0153           6747 	.byte	1,83
0000207b 8280808008     6748 	.byte	130,128,128,128,8
00002080 04             6749 	.byte	4
00002081 03             6750 	.byte	3
00002082 04             6751 	.byte	4
00002083 00             6752 	.byte	0
00002084 00             6753 	.byte	0
00002085 00             6754 	.byte	0
00002086 00             6755 	.byte	0
00002087 01             6756 	.byte	1
00002088 00             6757 	.byte	0
00002089 01             6758 	.byte	1
                        6759 
                        6760 	.section	.debug_frame
                        6761 .LDW_4e8f4e8:
000000f4 00000000*      6762 	.word	.LDW_unq_a-.LDW_unq_9
                        6763 .LDW_unq_9:
000000f8 00000000*      6764 	.word	.LDW_4d14688
000000fc 00000000*      6765 	.word	_NvM_ActInitNextBlockWriteAll..C.3A.5C_ECU2.5CECU_Rivian_A1.5CTarget.5Crepo_projects.5CpRealEcu.5CcL_LATEST.5Cmake.5Coutput.5Cobjects.5CNvM_Act.
00000100 00000000*      6766 	.word	___ghs_eofn_NvM_ActInitNextBlockWriteAll-_NvM_ActInitNextBlockWriteAll..C.3A.5C_ECU2.5CECU_Rivian_A1.5CTarget.5Crepo_projects.5CpRealEcu.5CcL_LATEST.5Cmake.5Coutput.5Cobjects.5CNvM_Act.
00000104 44             6767 	.byte	68
00000105 9f             6768 	.byte	159
00000106 00             6769 	.byte	0
00000107 01             6770 	.byte	1
00000108 00000000*      6771 	.word	.LDW32
0000010c 44             6772 	.byte	68
0000010d df             6773 	.byte	223
0000010e 00             6774 	.byte	0
0000010f 00             6775 	.byte	0
                        6776 .LDW_unq_a:
                        6777 	.section	.debug_line
0000072d 000502         6778 	.byte	0,5,2
00000730 00000000*      6779 	.word	_NvM_ActInitNextBlockWriteAll..C.3A.5C_ECU2.5CECU_Rivian_A1.5CTarget.5Crepo_projects.5CpRealEcu.5CcL_LATEST.5Cmake.5Coutput.5Cobjects.5CNvM_Act.
00000734 03             6780 	.byte	3
00000735 a702           6781 	.byte	167,2
00000737 02             6782 	.byte	2
00000738 00             6783 	.byte	0
00000739 01             6784 	.byte	1
0000073a 06             6785 	.byte	6
0000073b 1b             6786 	.byte	27
0000073c 000502         6787 	.byte	0,5,2
0000073f 00000000*      6788 	.word	.LDWlin22
00000743 0c             6789 	.byte	12
00000744 000502         6790 	.byte	0,5,2
00000747 00000000*      6791 	.word	.LDWlin23
0000074b 0c             6792 	.byte	12

                                                                      Page 131
                                                              C:\Users\nhuliyap\AppData\Local\Temp\gh_0000d3s1.s
0000074c 000502         6793 	.byte	0,5,2
0000074f 00000000*      6794 	.word	.LDWlin24
00000753 0b             6795 	.byte	11
00000754 02             6796 	.byte	2
00000755 04             6797 	.byte	4
00000756 000101         6798 	.byte	0,1,1
                        6799 	.section	.debug_info
                        6800 .LDW_486b838:
0000208a 1d             6801 	.byte	29
0000208b 00000000*      6802 	.word	.LDW22
0000208f 00000000*      6803 	.word	.LDW32
                        6804 
00002093 00             6805 	.byte	0
                        6806 
00002094 00             6807 	.byte	0
                        6808 
                        6809 .LDW_486e970:
00002095 13             6810 	.byte	19
00002096 4e764d5f4163   6811 	.strz	"NvM_ActFinishMainJob"
0000209c 7446696e6973 
000020a2 684d61696e4a 
000020a8 6f6200 
000020ab b002           6812 	.byte	176,2
000020ad 28             6813 	.byte	40
000020ae 01             6814 	.byte	1
000020af 00000000*      6815 	.word	_NvM_ActFinishMainJob..C.3A.5C_ECU2.5CECU_Rivian_A1.5CTarget.5Crepo_projects.5CpRealEcu.5CcL_LATEST.5Cmake.5Coutput.5Cobjects.5CNvM_Act.
000020b3 00000000*      6816 	.word	___ghs_eofn_NvM_ActFinishMainJob
000020b7 0153           6817 	.byte	1,83
000020b9 828080800b     6818 	.byte	130,128,128,128,11
000020be 0c             6819 	.byte	12
000020bf 03             6820 	.byte	3
000020c0 0c             6821 	.byte	12
000020c1 00             6822 	.byte	0
000020c2 00             6823 	.byte	0
000020c3 00             6824 	.byte	0
000020c4 00             6825 	.byte	0
000020c5 01             6826 	.byte	1
000020c6 00             6827 	.byte	0
000020c7 01             6828 	.byte	1
                        6829 
                        6830 	.section	.debug_frame
                        6831 .LDW_4e8efe8:
00000110 00000000*      6832 	.word	.LDW_unq_c-.LDW_unq_b
                        6833 .LDW_unq_b:
00000114 00000000*      6834 	.word	.LDW_4d14688
00000118 00000000*      6835 	.word	_NvM_ActFinishMainJob..C.3A.5C_ECU2.5CECU_Rivian_A1.5CTarget.5Crepo_projects.5CpRealEcu.5CcL_LATEST.5Cmake.5Coutput.5Cobjects.5CNvM_Act.
0000011c 00000000*      6836 	.word	___ghs_eofn_NvM_ActFinishMainJob-_NvM_ActFinishMainJob..C.3A.5C_ECU2.5CECU_Rivian_A1.5CTarget.5Crepo_projects.5CpRealEcu.5CcL_LATEST.5Cmake.5Coutput.5Cobjects.5CNvM_Act.
00000120 44             6837 	.byte	68
00000121 9f             6838 	.byte	159
00000122 00             6839 	.byte	0
00000123 40             6840 	.byte	64
00000124 9d             6841 	.byte	157
00000125 04             6842 	.byte	4
00000126 40             6843 	.byte	64
00000127 9c             6844 	.byte	156
00000128 08             6845 	.byte	8
00000129 01             6846 	.byte	1
0000012a 00000000*      6847 	.word	.LDW72
0000012e 00             6848 	.byte	0
0000012f 00             6849 	.byte	0
                        6850 .LDW_unq_c:

                                                                      Page 132
                                                              C:\Users\nhuliyap\AppData\Local\Temp\gh_0000d3s1.s
                        6851 	.section	.debug_line
00000759 000502         6852 	.byte	0,5,2
0000075c 00000000*      6853 	.word	_NvM_ActFinishMainJob..C.3A.5C_ECU2.5CECU_Rivian_A1.5CTarget.5Crepo_projects.5CpRealEcu.5CcL_LATEST.5Cmake.5Coutput.5Cobjects.5CNvM_Act.
00000760 03             6854 	.byte	3
00000761 af02           6855 	.byte	175,2
00000763 02             6856 	.byte	2
00000764 00             6857 	.byte	0
00000765 01             6858 	.byte	1
00000766 06             6859 	.byte	6
00000767 1b             6860 	.byte	27
00000768 000502         6861 	.byte	0,5,2
0000076b 00000000*      6862 	.word	.LDWlin25
0000076f 03             6863 	.byte	3
00000770 06             6864 	.byte	6
00000771 02             6865 	.byte	2
00000772 00             6866 	.byte	0
00000773 01             6867 	.byte	1
00000774 000502         6868 	.byte	0,5,2
00000777 00000000*      6869 	.word	.LDWlin26
0000077b 03             6870 	.byte	3
0000077c 1d             6871 	.byte	29
0000077d 02             6872 	.byte	2
0000077e 00             6873 	.byte	0
0000077f 01             6874 	.byte	1
00000780 0b             6875 	.byte	11
00000781 0b             6876 	.byte	11
00000782 000502         6877 	.byte	0,5,2
00000785 00000000*      6878 	.word	.LDWlin27
00000789 03             6879 	.byte	3
0000078a 62             6880 	.byte	98
0000078b 02             6881 	.byte	2
0000078c 00             6882 	.byte	0
0000078d 01             6883 	.byte	1
0000078e 0d             6884 	.byte	13
0000078f 1b             6885 	.byte	27
00000790 0b             6886 	.byte	11
00000791 000502         6887 	.byte	0,5,2
00000794 00000000*      6888 	.word	.LDWlin28
00000798 0b             6889 	.byte	11
00000799 0b             6890 	.byte	11
0000079a 02             6891 	.byte	2
0000079b 00             6892 	.byte	0
0000079c 000502         6893 	.byte	0,5,2
0000079f 00000000*      6894 	.word	.LDWlin29
000007a3 03             6895 	.byte	3
000007a4 0a             6896 	.byte	10
000007a5 02             6897 	.byte	2
000007a6 00             6898 	.byte	0
000007a7 01             6899 	.byte	1
000007a8 000502         6900 	.byte	0,5,2
000007ab 00000000*      6901 	.word	.LDWlin30
000007af 03             6902 	.byte	3
000007b0 7c             6903 	.byte	124
000007b1 02             6904 	.byte	2
000007b2 00             6905 	.byte	0
000007b3 01             6906 	.byte	1
000007b4 02             6907 	.byte	2
000007b5 00             6908 	.byte	0
000007b6 02             6909 	.byte	2
000007b7 00             6910 	.byte	0
000007b8 02             6911 	.byte	2

                                                                      Page 133
                                                              C:\Users\nhuliyap\AppData\Local\Temp\gh_0000d3s1.s
000007b9 00             6912 	.byte	0
000007ba 0c             6913 	.byte	12
000007bb 000502         6914 	.byte	0,5,2
000007be 00000000*      6915 	.word	.LDWlin31
000007c2 03             6916 	.byte	3
000007c3 04             6917 	.byte	4
000007c4 02             6918 	.byte	2
000007c5 00             6919 	.byte	0
000007c6 01             6920 	.byte	1
000007c7 000502         6921 	.byte	0,5,2
000007ca 00000000*      6922 	.word	.LDWlin32
000007ce 0c             6923 	.byte	12
000007cf 2c             6924 	.byte	44
000007d0 000502         6925 	.byte	0,5,2
000007d3 00000000*      6926 	.word	.LDWlin33
000007d7 0d             6927 	.byte	13
000007d8 000502         6928 	.byte	0,5,2
000007db 00000000*      6929 	.word	.LDWlin34
000007df 03             6930 	.byte	3
000007e0 05             6931 	.byte	5
000007e1 02             6932 	.byte	2
000007e2 00             6933 	.byte	0
000007e3 01             6934 	.byte	1
000007e4 02             6935 	.byte	2
000007e5 00             6936 	.byte	0
000007e6 0d             6937 	.byte	13
000007e7 23             6938 	.byte	35
000007e8 02             6939 	.byte	2
000007e9 04             6940 	.byte	4
000007ea 000101         6941 	.byte	0,1,1
                        6942 	.section	.debug_info
                        6943 .LDW_486b4a8:
000020c8 1d             6944 	.byte	29
000020c9 00000000*      6945 	.word	.LDW42
000020cd 00000000*      6946 	.word	.LDW72
                        6947 
                        6948 .LDW_486eab8:
000020d1 04             6949 	.byte	4
000020d2 637572725372   6950 	.strz	"currSrvId"
000020d8 76496400 
000020dc b102           6951 	.byte	177,2
000020de 24             6952 	.byte	36
000020df 01             6953 	.byte	1
000020e0 00000000*      6954 	.word	.LDW_486ea60
000020e4 00             6955 	.byte	0
000020e5 00             6956 	.byte	0
000020e6 0156           6957 	.byte	1,86
                        6958 
                        6959 .LDW_486b598:
000020e8 1d             6960 	.byte	29
000020e9 00000000*      6961 	.word	.LDW52
000020ed 00000000*      6962 	.word	.LDW62
                        6963 
                        6964 .LDW_486eb68:
000020f1 04             6965 	.byte	4
000020f2 4a6f62526573   6966 	.strz	"JobResult"
000020f8 756c7400 
000020fc b902           6967 	.byte	185,2
000020fe 23             6968 	.byte	35
000020ff 01             6969 	.byte	1
00002100 00000000*      6970 	.word	.LDW_486eb10

                                                                      Page 134
                                                              C:\Users\nhuliyap\AppData\Local\Temp\gh_0000d3s1.s
00002104 00             6971 	.byte	0
00002105 00             6972 	.byte	0
00002106 0157           6973 	.byte	1,87
                        6974 
00002108 00             6975 	.byte	0
                        6976 
00002109 00             6977 	.byte	0
                        6978 
0000210a 00             6979 	.byte	0
                        6980 
                        6981 .LDW_486ebc0:
0000210b 13             6982 	.byte	19
0000210c 4e764d5f4163   6983 	.strz	"NvM_ActKillWriteAll"
00002112 744b696c6c57 
00002118 72697465416c 
0000211e 6c00 
00002120 df02           6984 	.byte	223,2
00002122 28             6985 	.byte	40
00002123 01             6986 	.byte	1
00002124 00000000*      6987 	.word	_NvM_ActKillWriteAll..C.3A.5C_ECU2.5CECU_Rivian_A1.5CTarget.5Crepo_projects.5CpRealEcu.5CcL_LATEST.5Cmake.5Coutput.5Cobjects.5CNvM_Act.
00002128 00000000*      6988 	.word	___ghs_eofn_NvM_ActKillWriteAll
0000212c 0153           6989 	.byte	1,83
0000212e 828080800a     6990 	.byte	130,128,128,128,10
00002133 08             6991 	.byte	8
00002134 03             6992 	.byte	3
00002135 08             6993 	.byte	8
00002136 00             6994 	.byte	0
00002137 00             6995 	.byte	0
00002138 00             6996 	.byte	0
00002139 00             6997 	.byte	0
0000213a 01             6998 	.byte	1
0000213b 00             6999 	.byte	0
0000213c 01             7000 	.byte	1
                        7001 
                        7002 	.section	.debug_frame
                        7003 .LDW_4e8f528:
00000130 00000000*      7004 	.word	.LDW_unq_e-.LDW_unq_d
                        7005 .LDW_unq_d:
00000134 00000000*      7006 	.word	.LDW_4d14688
00000138 00000000*      7007 	.word	_NvM_ActKillWriteAll..C.3A.5C_ECU2.5CECU_Rivian_A1.5CTarget.5Crepo_projects.5CpRealEcu.5CcL_LATEST.5Cmake.5Coutput.5Cobjects.5CNvM_Act.
0000013c 00000000*      7008 	.word	___ghs_eofn_NvM_ActKillWriteAll-_NvM_ActKillWriteAll..C.3A.5C_ECU2.5CECU_Rivian_A1.5CTarget.5Crepo_projects.5CpRealEcu.5CcL_LATEST.5Cmake.5Coutput.5Cobjects.5CNvM_Act.
00000140 44             7009 	.byte	68
00000141 9f             7010 	.byte	159
00000142 00             7011 	.byte	0
00000143 40             7012 	.byte	64
00000144 9d             7013 	.byte	157
00000145 04             7014 	.byte	4
00000146 01             7015 	.byte	1
00000147 00000000*      7016 	.word	.LDW92
0000014b 00             7017 	.byte	0
                        7018 .LDW_unq_e:
                        7019 	.section	.debug_line
000007ed 000502         7020 	.byte	0,5,2
000007f0 00000000*      7021 	.word	_NvM_ActKillWriteAll..C.3A.5C_ECU2.5CECU_Rivian_A1.5CTarget.5Crepo_projects.5CpRealEcu.5CcL_LATEST.5Cmake.5Coutput.5Cobjects.5CNvM_Act.
000007f4 03             7022 	.byte	3
000007f5 de02           7023 	.byte	222,2
000007f7 02             7024 	.byte	2
000007f8 00             7025 	.byte	0
000007f9 01             7026 	.byte	1
000007fa 06             7027 	.byte	6
000007fb 1c             7028 	.byte	28

                                                                      Page 135
                                                              C:\Users\nhuliyap\AppData\Local\Temp\gh_0000d3s1.s
000007fc 000502         7029 	.byte	0,5,2
000007ff 00000000*      7030 	.word	.LDWlin35
00000803 0d             7031 	.byte	13
00000804 000502         7032 	.byte	0,5,2
00000807 00000000*      7033 	.word	.LDWlin36
0000080b 0b             7034 	.byte	11
0000080c 0b             7035 	.byte	11
0000080d 000502         7036 	.byte	0,5,2
00000810 00000000*      7037 	.word	.LDWlin37
00000814 0b             7038 	.byte	11
00000815 02             7039 	.byte	2
00000816 00             7040 	.byte	0
00000817 0c             7041 	.byte	12
00000818 000502         7042 	.byte	0,5,2
0000081b 00000000*      7043 	.word	.LDWlin38
0000081f 0c             7044 	.byte	12
00000820 000502         7045 	.byte	0,5,2
00000823 00000000*      7046 	.word	.LDWlin39
00000827 0c             7047 	.byte	12
00000828 000502         7048 	.byte	0,5,2
0000082b 00000000*      7049 	.word	.LDWlin40
0000082f 0c             7050 	.byte	12
00000830 000502         7051 	.byte	0,5,2
00000833 00000000*      7052 	.word	.LDWlin41
00000837 0c             7053 	.byte	12
00000838 000502         7054 	.byte	0,5,2
0000083b 00000000*      7055 	.word	.LDWlin42
0000083f 0b             7056 	.byte	11
00000840 02             7057 	.byte	2
00000841 04             7058 	.byte	4
00000842 000101         7059 	.byte	0,1,1
                        7060 	.section	.debug_info
                        7061 .LDW_486b3e8:
0000213d 1d             7062 	.byte	29
0000213e 00000000*      7063 	.word	.LDW82
00002142 00000000*      7064 	.word	.LDW92
                        7065 
00002146 00             7066 	.byte	0
                        7067 
00002147 00             7068 	.byte	0
                        7069 
                        7070 .LDW_486ec58:
00002148 13             7071 	.byte	19
00002149 4e764d5f4163   7072 	.strz	"NvM_ActFinishReadBlock"
0000214f 7446696e6973 
00002155 685265616442 
0000215b 6c6f636b00 
00002160 f502           7073 	.byte	245,2
00002162 28             7074 	.byte	40
00002163 01             7075 	.byte	1
00002164 00000000*      7076 	.word	_NvM_ActFinishReadBlock..C.3A.5C_ECU2.5CECU_Rivian_A1.5CTarget.5Crepo_projects.5CpRealEcu.5CcL_LATEST.5Cmake.5Coutput.5Cobjects.5CNvM_Act.
00002168 00000000*      7077 	.word	___ghs_eofn_NvM_ActFinishReadBlock
0000216c 0153           7078 	.byte	1,83
0000216e 828080c00b     7079 	.byte	130,128,128,192,11
00002173 10             7080 	.byte	16
00002174 03             7081 	.byte	3
00002175 10             7082 	.byte	16
00002176 00             7083 	.byte	0
00002177 00             7084 	.byte	0
00002178 00             7085 	.byte	0
00002179 00             7086 	.byte	0

                                                                      Page 136
                                                              C:\Users\nhuliyap\AppData\Local\Temp\gh_0000d3s1.s
0000217a 01             7087 	.byte	1
0000217b 00             7088 	.byte	0
0000217c 01             7089 	.byte	1
                        7090 
                        7091 	.section	.debug_frame
                        7092 .LDW_4e8f728:
0000014c 00000000*      7093 	.word	.LDW_unq_10-.LDW_unq_f
                        7094 .LDW_unq_f:
00000150 00000000*      7095 	.word	.LDW_4d14688
00000154 00000000*      7096 	.word	_NvM_ActFinishReadBlock..C.3A.5C_ECU2.5CECU_Rivian_A1.5CTarget.5Crepo_projects.5CpRealEcu.5CcL_LATEST.5Cmake.5Coutput.5Cobjects.5CNvM_Act.
00000158 00000000*      7097 	.word	___ghs_eofn_NvM_ActFinishReadBlock-_NvM_ActFinishReadBlock..C.3A.5C_ECU2.5CECU_Rivian_A1.5CTarget.5Crepo_projects.5CpRealEcu.5CcL_LATEST.5Cmake.5Coutput.5Cobjects.5CNvM_Act.
0000015c 44             7098 	.byte	68
0000015d 9f             7099 	.byte	159
0000015e 00             7100 	.byte	0
0000015f 40             7101 	.byte	64
00000160 9d             7102 	.byte	157
00000161 04             7103 	.byte	4
00000162 40             7104 	.byte	64
00000163 9c             7105 	.byte	156
00000164 08             7106 	.byte	8
00000165 40             7107 	.byte	64
00000166 9b             7108 	.byte	155
00000167 0c             7109 	.byte	12
00000168 01             7110 	.byte	1
00000169 00000000*      7111 	.word	.LDW53
0000016d 00             7112 	.byte	0
0000016e 00             7113 	.byte	0
0000016f 00             7114 	.byte	0
                        7115 .LDW_unq_10:
                        7116 	.section	.debug_line
00000845 000502         7117 	.byte	0,5,2
00000848 00000000*      7118 	.word	_NvM_ActFinishReadBlock..C.3A.5C_ECU2.5CECU_Rivian_A1.5CTarget.5Crepo_projects.5CpRealEcu.5CcL_LATEST.5Cmake.5Coutput.5Cobjects.5CNvM_Act.
0000084c 03             7119 	.byte	3
0000084d f402           7120 	.byte	244,2
0000084f 02             7121 	.byte	2
00000850 00             7122 	.byte	0
00000851 01             7123 	.byte	1
00000852 06             7124 	.byte	6
00000853 1b             7125 	.byte	27
00000854 000502         7126 	.byte	0,5,2
00000857 00000000*      7127 	.word	.LDWlin50
0000085b 0b             7128 	.byte	11
0000085c 14             7129 	.byte	20
0000085d 000502         7130 	.byte	0,5,2
00000860 00000000*      7131 	.word	.LDWlin51
00000864 0c             7132 	.byte	12
00000865 000502         7133 	.byte	0,5,2
00000868 00000000*      7134 	.word	.LDWlin52
0000086c 0d             7135 	.byte	13
0000086d 0b             7136 	.byte	11
0000086e 1b             7137 	.byte	27
0000086f 02             7138 	.byte	2
00000870 00             7139 	.byte	0
00000871 0c             7140 	.byte	12
00000872 000502         7141 	.byte	0,5,2
00000875 00000000*      7142 	.word	.LDWlin53
00000879 0b             7143 	.byte	11
0000087a 0b             7144 	.byte	11
0000087b 000502         7145 	.byte	0,5,2
0000087e 00000000*      7146 	.word	.LDWlin54
00000882 0b             7147 	.byte	11

                                                                      Page 137
                                                              C:\Users\nhuliyap\AppData\Local\Temp\gh_0000d3s1.s
00000883 0b             7148 	.byte	11
00000884 000502         7149 	.byte	0,5,2
00000887 00000000*      7150 	.word	.LDWlin55
0000088b 0b             7151 	.byte	11
0000088c 0b             7152 	.byte	11
0000088d 0b             7153 	.byte	11
0000088e 1b             7154 	.byte	27
0000088f 02             7155 	.byte	2
00000890 00             7156 	.byte	0
00000891 0b             7157 	.byte	11
00000892 02             7158 	.byte	2
00000893 00             7159 	.byte	0
00000894 0c             7160 	.byte	12
00000895 000502         7161 	.byte	0,5,2
00000898 00000000*      7162 	.word	.LDWlin56
0000089c 0c             7163 	.byte	12
0000089d 000502         7164 	.byte	0,5,2
000008a0 00000000*      7165 	.word	.LDWlin57
000008a4 0b             7166 	.byte	11
000008a5 0b             7167 	.byte	11
000008a6 1c             7168 	.byte	28
000008a7 000502         7169 	.byte	0,5,2
000008aa 00000000*      7170 	.word	.LDWlin58
000008ae 0b             7171 	.byte	11
000008af 0c             7172 	.byte	12
000008b0 0b             7173 	.byte	11
000008b1 02             7174 	.byte	2
000008b2 00             7175 	.byte	0
000008b3 0b             7176 	.byte	11
000008b4 0c             7177 	.byte	12
000008b5 0b             7178 	.byte	11
000008b6 0c             7179 	.byte	12
000008b7 02             7180 	.byte	2
000008b8 00             7181 	.byte	0
000008b9 02             7182 	.byte	2
000008ba 00             7183 	.byte	0
000008bb 02             7184 	.byte	2
000008bc 00             7185 	.byte	0
000008bd 0b             7186 	.byte	11
000008be 02             7187 	.byte	2
000008bf 00             7188 	.byte	0
000008c0 03             7189 	.byte	3
000008c1 04             7190 	.byte	4
000008c2 02             7191 	.byte	2
000008c3 00             7192 	.byte	0
000008c4 01             7193 	.byte	1
000008c5 000502         7194 	.byte	0,5,2
000008c8 00000000*      7195 	.word	.LDWlin59
000008cc 0c             7196 	.byte	12
000008cd 0b             7197 	.byte	11
000008ce 000502         7198 	.byte	0,5,2
000008d1 00000000*      7199 	.word	.LDWlin60
000008d5 0b             7200 	.byte	11
000008d6 02             7201 	.byte	2
000008d7 00             7202 	.byte	0
000008d8 0c             7203 	.byte	12
000008d9 02             7204 	.byte	2
000008da 04             7205 	.byte	4
000008db 000101         7206 	.byte	0,1,1
                        7207 	.section	.debug_info
                        7208 .LDW_486b5f8:

                                                                      Page 138
                                                              C:\Users\nhuliyap\AppData\Local\Temp\gh_0000d3s1.s
0000217d 1d             7209 	.byte	29
0000217e 00000000*      7210 	.word	.LDW43
00002182 00000000*      7211 	.word	.LDW53
                        7212 
                        7213 .LDW_4bdee00:
00002186 04             7214 	.byte	4
00002187 4d6e676d7450   7215 	.strz	"MngmtPtr"
0000218d 747200 
00002190 f602           7216 	.byte	246,2
00002192 1e             7217 	.byte	30
00002193 01             7218 	.byte	1
00002194 00000000*      7219 	.word	.LDW_4bdeda8
00002198 00             7220 	.byte	0
00002199 00             7221 	.byte	0
0000219a 016b           7222 	.byte	1,107
                        7223 
                        7224 .LDW_4869688:
0000219c 04             7225 	.byte	4
0000219d 64657363725f   7226 	.strz	"descr_pt"
000021a3 707400 
000021a6 f702           7227 	.byte	247,2
000021a8 20             7228 	.byte	32
000021a9 01             7229 	.byte	1
000021aa 00000000*      7230 	.word	.LDW_4bdefb8
000021ae 00             7231 	.byte	0
000021af 00             7232 	.byte	0
000021b0 016c           7233 	.byte	1,108
                        7234 
000021b2 00             7235 	.byte	0
                        7236 
000021b3 00             7237 	.byte	0
                        7238 
                        7239 .LDW_4bdf010:
000021b4 13             7240 	.byte	19
000021b5 4e764d5f4163   7241 	.strz	"NvM_ActFinishWriteBlock"
000021bb 7446696e6973 
000021c1 685772697465 
000021c7 426c6f636b00 
000021cd aa03           7242 	.byte	170,3
000021cf 28             7243 	.byte	40
000021d0 01             7244 	.byte	1
000021d1 00000000*      7245 	.word	_NvM_ActFinishWriteBlock..C.3A.5C_ECU2.5CECU_Rivian_A1.5CTarget.5Crepo_projects.5CpRealEcu.5CcL_LATEST.5Cmake.5Coutput.5Cobjects.5CNvM_Act.
000021d5 00000000*      7246 	.word	___ghs_eofn_NvM_ActFinishWriteBlock
000021d9 0153           7247 	.byte	1,83
000021db 828080800b     7248 	.byte	130,128,128,128,11
000021e0 0c             7249 	.byte	12
000021e1 03             7250 	.byte	3
000021e2 0c             7251 	.byte	12
000021e3 00             7252 	.byte	0
000021e4 00             7253 	.byte	0
000021e5 00             7254 	.byte	0
000021e6 00             7255 	.byte	0
000021e7 01             7256 	.byte	1
000021e8 00             7257 	.byte	0
000021e9 01             7258 	.byte	1
                        7259 
                        7260 	.section	.debug_frame
                        7261 .LDW_4e8f628:
00000170 00000000*      7262 	.word	.LDW_unq_12-.LDW_unq_11
                        7263 .LDW_unq_11:
00000174 00000000*      7264 	.word	.LDW_4d14688

                                                                      Page 139
                                                              C:\Users\nhuliyap\AppData\Local\Temp\gh_0000d3s1.s
00000178 00000000*      7265 	.word	_NvM_ActFinishWriteBlock..C.3A.5C_ECU2.5CECU_Rivian_A1.5CTarget.5Crepo_projects.5CpRealEcu.5CcL_LATEST.5Cmake.5Coutput.5Cobjects.5CNvM_Act.
0000017c 00000000*      7266 	.word	___ghs_eofn_NvM_ActFinishWriteBlock-_NvM_ActFinishWriteBlock..C.3A.5C_ECU2.5CECU_Rivian_A1.5CTarget.5Crepo_projects.5CpRealEcu.5CcL_LATEST.5Cmake.5Coutput.5Cobjects.5CNvM_Act.
00000180 44             7267 	.byte	68
00000181 9f             7268 	.byte	159
00000182 00             7269 	.byte	0
00000183 40             7270 	.byte	64
00000184 9d             7271 	.byte	157
00000185 04             7272 	.byte	4
00000186 40             7273 	.byte	64
00000187 9c             7274 	.byte	156
00000188 08             7275 	.byte	8
00000189 01             7276 	.byte	1
0000018a 00000000*      7277 	.word	.LDW93
0000018e 00             7278 	.byte	0
0000018f 00             7279 	.byte	0
                        7280 .LDW_unq_12:
                        7281 	.section	.debug_line
000008de 000502         7282 	.byte	0,5,2
000008e1 00000000*      7283 	.word	_NvM_ActFinishWriteBlock..C.3A.5C_ECU2.5CECU_Rivian_A1.5CTarget.5Crepo_projects.5CpRealEcu.5CcL_LATEST.5Cmake.5Coutput.5Cobjects.5CNvM_Act.
000008e5 03             7284 	.byte	3
000008e6 a903           7285 	.byte	169,3
000008e8 02             7286 	.byte	2
000008e9 00             7287 	.byte	0
000008ea 01             7288 	.byte	1
000008eb 06             7289 	.byte	6
000008ec 1b             7290 	.byte	27
000008ed 000502         7291 	.byte	0,5,2
000008f0 00000000*      7292 	.word	.LDWlin61
000008f4 0c             7293 	.byte	12
000008f5 000502         7294 	.byte	0,5,2
000008f8 00000000*      7295 	.word	.LDWlin62
000008fc 0b             7296 	.byte	11
000008fd 0b             7297 	.byte	11
000008fe 4b             7298 	.byte	75
000008ff 34             7299 	.byte	52
00000900 000502         7300 	.byte	0,5,2
00000903 00000000*      7301 	.word	.LDWlin63
00000907 0b             7302 	.byte	11
00000908 0c             7303 	.byte	12
00000909 0c             7304 	.byte	12
0000090a 0b             7305 	.byte	11
0000090b 14             7306 	.byte	20
0000090c 0b             7307 	.byte	11
0000090d 0c             7308 	.byte	12
0000090e 02             7309 	.byte	2
0000090f 00             7310 	.byte	0
00000910 0b             7311 	.byte	11
00000911 02             7312 	.byte	2
00000912 00             7313 	.byte	0
00000913 0c             7314 	.byte	12
00000914 06             7315 	.byte	6
00000915 000502         7316 	.byte	0,5,2
00000918 00000000*      7317 	.word	.LDWlin64
0000091c 02             7318 	.byte	2
0000091d 00             7319 	.byte	0
0000091e 06             7320 	.byte	6
0000091f 000502         7321 	.byte	0,5,2
00000922 00000000*      7322 	.word	.LDWlin65
00000926 0b             7323 	.byte	11
00000927 0b             7324 	.byte	11
00000928 0b             7325 	.byte	11

                                                                      Page 140
                                                              C:\Users\nhuliyap\AppData\Local\Temp\gh_0000d3s1.s
00000929 1b             7326 	.byte	27
0000092a 02             7327 	.byte	2
0000092b 00             7328 	.byte	0
0000092c 0c             7329 	.byte	12
0000092d 000502         7330 	.byte	0,5,2
00000930 00000000*      7331 	.word	.LDWlin66
00000934 0b             7332 	.byte	11
00000935 0c             7333 	.byte	12
00000936 000502         7334 	.byte	0,5,2
00000939 00000000*      7335 	.word	.LDWlin67
0000093d 0b             7336 	.byte	11
0000093e 0b             7337 	.byte	11
0000093f 1b             7338 	.byte	27
00000940 02             7339 	.byte	2
00000941 00             7340 	.byte	0
00000942 0c             7341 	.byte	12
00000943 000502         7342 	.byte	0,5,2
00000946 00000000*      7343 	.word	.LDWlin68
0000094a 0b             7344 	.byte	11
0000094b 0b             7345 	.byte	11
0000094c 000502         7346 	.byte	0,5,2
0000094f 00000000*      7347 	.word	.LDWlin69
00000953 0b             7348 	.byte	11
00000954 02             7349 	.byte	2
00000955 00             7350 	.byte	0
00000956 0b             7351 	.byte	11
00000957 0b             7352 	.byte	11
00000958 0b             7353 	.byte	11
00000959 1c             7354 	.byte	28
0000095a 02             7355 	.byte	2
0000095b 00             7356 	.byte	0
0000095c 0b             7357 	.byte	11
0000095d 02             7358 	.byte	2
0000095e 04             7359 	.byte	4
0000095f 000101         7360 	.byte	0,1,1
                        7361 	.section	.debug_info
                        7362 .LDW_486b5c8:
000021ea 1d             7363 	.byte	29
000021eb 00000000*      7364 	.word	.LDW63
000021ef 00000000*      7365 	.word	.LDW93
                        7366 
                        7367 .LDW_48693c8:
000021f3 04             7368 	.byte	4
000021f4 4d6e676d7450   7369 	.strz	"MngmtPtr"
000021fa 747200 
000021fd ab03           7370 	.byte	171,3
000021ff 1e             7371 	.byte	30
00002200 01             7372 	.byte	1
00002201 00000000*      7373 	.word	.LDW_4bdeda8
00002205 00             7374 	.byte	0
00002206 00             7375 	.byte	0
00002207 016c           7376 	.byte	1,108
                        7377 
                        7378 .LDW_486ba18:
00002209 1d             7379 	.byte	29
0000220a 00000000*      7380 	.word	.LDW73
0000220e 00000000*      7381 	.word	.LDW83
                        7382 
                        7383 .LDW_4869790:
00002212 04             7384 	.byte	4
00002213 666972737442   7385 	.strz	"firstBlockDefect"

                                                                      Page 141
                                                              C:\Users\nhuliyap\AppData\Local\Temp\gh_0000d3s1.s
00002219 6c6f636b4465 
0000221f 6665637400 
00002224 af03           7386 	.byte	175,3
00002226 11             7387 	.byte	17
00002227 01             7388 	.byte	1
00002228 00000000*      7389 	.word	.LDW_48696e0
0000222c 00             7390 	.byte	0
0000222d 00             7391 	.byte	0
0000222e 0162           7392 	.byte	1,98
                        7393 
                        7394 .LDW_4869738:
00002230 04             7395 	.byte	4
00002231 7365636f6e64   7396 	.strz	"secondBlockDefect"
00002237 426c6f636b44 
0000223d 656665637400 
00002243 b003           7397 	.byte	176,3
00002245 11             7398 	.byte	17
00002246 01             7399 	.byte	1
00002247 00000000*      7400 	.word	.LDW_48696e0
0000224b 00             7401 	.byte	0
0000224c 00             7402 	.byte	0
0000224d 0161           7403 	.byte	1,97
                        7404 
0000224f 00             7405 	.byte	0
                        7406 
00002250 00             7407 	.byte	0
                        7408 
00002251 00             7409 	.byte	0
                        7410 
                        7411 .LDW_4bdf0a8:
00002252 13             7412 	.byte	19
00002253 4e764d5f4163   7413 	.strz	"NvM_ActInitBlock"
00002259 74496e697442 
0000225f 6c6f636b00 
00002264 d903           7414 	.byte	217,3
00002266 28             7415 	.byte	40
00002267 01             7416 	.byte	1
00002268 00000000*      7417 	.word	_NvM_ActInitBlock..C.3A.5C_ECU2.5CECU_Rivian_A1.5CTarget.5Crepo_projects.5CpRealEcu.5CcL_LATEST.5Cmake.5Coutput.5Cobjects.5CNvM_Act.
0000226c 00000000*      7418 	.word	___ghs_eofn_NvM_ActInitBlock
00002270 0153           7419 	.byte	1,83
00002272 02             7420 	.byte	2
00002273 00             7421 	.byte	0
00002274 02             7422 	.byte	2
00002275 00             7423 	.byte	0
00002276 00             7424 	.byte	0
00002277 00             7425 	.byte	0
00002278 00             7426 	.byte	0
00002279 00             7427 	.byte	0
0000227a 01             7428 	.byte	1
0000227b 00             7429 	.byte	0
0000227c 01             7430 	.byte	1
                        7431 
                        7432 	.section	.debug_frame
                        7433 .LDW_4d5bbb8:
00000190 00000000*      7434 	.word	.LDW_unq_14-.LDW_unq_13
                        7435 .LDW_unq_13:
00000194 00000000*      7436 	.word	.LDW_4d14688
00000198 00000000*      7437 	.word	_NvM_ActInitBlock..C.3A.5C_ECU2.5CECU_Rivian_A1.5CTarget.5Crepo_projects.5CpRealEcu.5CcL_LATEST.5Cmake.5Coutput.5Cobjects.5CNvM_Act.
0000019c 00000000*      7438 	.word	___ghs_eofn_NvM_ActInitBlock-_NvM_ActInitBlock..C.3A.5C_ECU2.5CECU_Rivian_A1.5CTarget.5Crepo_projects.5CpRealEcu.5CcL_LATEST.5Cmake.5Coutput.5Cobjects.5CNvM_Act.
000001a0 01             7439 	.byte	1
000001a1 00000000*      7440 	.word	.LDW91

                                                                      Page 142
                                                              C:\Users\nhuliyap\AppData\Local\Temp\gh_0000d3s1.s
000001a5 00             7441 	.byte	0
000001a6 00             7442 	.byte	0
000001a7 00             7443 	.byte	0
                        7444 .LDW_unq_14:
                        7445 	.section	.debug_line
00000962 000502         7446 	.byte	0,5,2
00000965 00000000*      7447 	.word	_NvM_ActInitBlock..C.3A.5C_ECU2.5CECU_Rivian_A1.5CTarget.5Crepo_projects.5CpRealEcu.5CcL_LATEST.5Cmake.5Coutput.5Cobjects.5CNvM_Act.
00000969 06             7448 	.byte	6
0000096a 03             7449 	.byte	3
0000096b da03           7450 	.byte	218,3
0000096d 02             7451 	.byte	2
0000096e 00             7452 	.byte	0
0000096f 01             7453 	.byte	1
00000970 000502         7454 	.byte	0,5,2
00000973 00000000*      7455 	.word	.LDWlin6
00000977 0c             7456 	.byte	12
00000978 000502         7457 	.byte	0,5,2
0000097b 00000000*      7458 	.word	.LDWlin7
0000097f 0c             7459 	.byte	12
00000980 000502         7460 	.byte	0,5,2
00000983 00000000*      7461 	.word	.LDWlin8
00000987 03             7462 	.byte	3
00000988 06             7463 	.byte	6
00000989 02             7464 	.byte	2
0000098a 00             7465 	.byte	0
0000098b 01             7466 	.byte	1
0000098c 000502         7467 	.byte	0,5,2
0000098f 00000000*      7468 	.word	.LDWlin9
00000993 03             7469 	.byte	3
00000994 7d             7470 	.byte	125
00000995 02             7471 	.byte	2
00000996 00             7472 	.byte	0
00000997 01             7473 	.byte	1
00000998 14             7474 	.byte	20
00000999 1d             7475 	.byte	29
0000099a 000502         7476 	.byte	0,5,2
0000099d 00000000*      7477 	.word	.LDWlin10
000009a1 0b             7478 	.byte	11
000009a2 0b             7479 	.byte	11
000009a3 03             7480 	.byte	3
000009a4 07             7481 	.byte	7
000009a5 02             7482 	.byte	2
000009a6 08             7483 	.byte	8
000009a7 01             7484 	.byte	1
000009a8 000502         7485 	.byte	0,5,2
000009ab 00000000*      7486 	.word	.LDWlin11
000009af 03             7487 	.byte	3
000009b0 7a             7488 	.byte	122
000009b1 02             7489 	.byte	2
000009b2 00             7490 	.byte	0
000009b3 01             7491 	.byte	1
000009b4 02             7492 	.byte	2
000009b5 00             7493 	.byte	0
000009b6 0c             7494 	.byte	12
000009b7 03             7495 	.byte	3
000009b8 06             7496 	.byte	6
000009b9 02             7497 	.byte	2
000009ba 04             7498 	.byte	4
000009bb 01             7499 	.byte	1
000009bc 000502         7500 	.byte	0,5,2
000009bf 00000000*      7501 	.word	.LDWlin12

                                                                      Page 143
                                                              C:\Users\nhuliyap\AppData\Local\Temp\gh_0000d3s1.s
000009c3 0b             7502 	.byte	11
000009c4 0b             7503 	.byte	11
000009c5 000502         7504 	.byte	0,5,2
000009c8 00000000*      7505 	.word	.LDWlin13
000009cc 0b             7506 	.byte	11
000009cd 0c             7507 	.byte	12
000009ce 0c             7508 	.byte	12
000009cf 02             7509 	.byte	2
000009d0 00             7510 	.byte	0
000009d1 000502         7511 	.byte	0,5,2
000009d4 00000000*      7512 	.word	.LDWlin14
000009d8 0b             7513 	.byte	11
000009d9 0b             7514 	.byte	11
000009da 23             7515 	.byte	35
000009db 0b             7516 	.byte	11
000009dc 0c             7517 	.byte	12
000009dd 02             7518 	.byte	2
000009de 00             7519 	.byte	0
000009df 02             7520 	.byte	2
000009e0 00             7521 	.byte	0
000009e1 02             7522 	.byte	2
000009e2 00             7523 	.byte	0
000009e3 0b             7524 	.byte	11
000009e4 02             7525 	.byte	2
000009e5 00             7526 	.byte	0
000009e6 03             7527 	.byte	3
000009e7 06             7528 	.byte	6
000009e8 02             7529 	.byte	2
000009e9 00             7530 	.byte	0
000009ea 01             7531 	.byte	1
000009eb 000502         7532 	.byte	0,5,2
000009ee 00000000*      7533 	.word	.LDWlin15
000009f2 0b             7534 	.byte	11
000009f3 0c             7535 	.byte	12
000009f4 24             7536 	.byte	36
000009f5 000502         7537 	.byte	0,5,2
000009f8 00000000*      7538 	.word	.LDWlin16
000009fc 0b             7539 	.byte	11
000009fd 02             7540 	.byte	2
000009fe 00             7541 	.byte	0
000009ff 0b             7542 	.byte	11
00000a00 02             7543 	.byte	2
00000a01 02             7544 	.byte	2
00000a02 000101         7545 	.byte	0,1,1
                        7546 	.section	.debug_info
                        7547 .LDW_486b988:
0000227d 1d             7548 	.byte	29
0000227e 00000000*      7549 	.word	.LDW81
00002282 00000000*      7550 	.word	.LDW91
                        7551 
                        7552 .LDW_4869580:
00002286 04             7553 	.byte	4
00002287 6f7267426c6f   7554 	.strz	"orgBlockId"
0000228d 636b496400 
00002292 db03           7555 	.byte	219,3
00002294 1a             7556 	.byte	26
00002295 01             7557 	.byte	1
00002296 00000000*      7558 	.word	.LDW_48699a0
0000229a 00             7559 	.byte	0
0000229b 00             7560 	.byte	0
0000229c 015f           7561 	.byte	1,95

                                                                      Page 144
                                                              C:\Users\nhuliyap\AppData\Local\Temp\gh_0000d3s1.s
                        7562 
                        7563 .LDW_48699f8:
0000229e 04             7564 	.byte	4
0000229f 446573637250   7565 	.strz	"DescrPtr"
000022a5 747200 
000022a8 dd03           7566 	.byte	221,3
000022aa 20             7567 	.byte	32
000022ab 01             7568 	.byte	1
000022ac 00000000*      7569 	.word	.LDW_4bdefb8
000022b0 00             7570 	.byte	0
000022b1 00             7571 	.byte	0
000022b2 0162           7572 	.byte	1,98
                        7573 
000022b4 00             7574 	.byte	0
                        7575 
000022b5 00             7576 	.byte	0
                        7577 
                        7578 .LDW_4bdf140:
000022b6 13             7579 	.byte	19
000022b7 4e764d5f4163   7580 	.strz	"NvM_ActInitMainFsm"
000022bd 74496e69744d 
000022c3 61696e46736d 
000022c9 00 
000022ca 8f04           7581 	.byte	143,4
000022cc 28             7582 	.byte	40
000022cd 01             7583 	.byte	1
000022ce 00000000*      7584 	.word	_NvM_ActInitMainFsm..C.3A.5C_ECU2.5CECU_Rivian_A1.5CTarget.5Crepo_projects.5CpRealEcu.5CcL_LATEST.5Cmake.5Coutput.5Cobjects.5CNvM_Act.
000022d2 00000000*      7585 	.word	___ghs_eofn_NvM_ActInitMainFsm
000022d6 0153           7586 	.byte	1,83
000022d8 828080800a     7587 	.byte	130,128,128,128,10
000022dd 08             7588 	.byte	8
000022de 03             7589 	.byte	3
000022df 08             7590 	.byte	8
000022e0 00             7591 	.byte	0
000022e1 00             7592 	.byte	0
000022e2 00             7593 	.byte	0
000022e3 00             7594 	.byte	0
000022e4 01             7595 	.byte	1
000022e5 00             7596 	.byte	0
000022e6 01             7597 	.byte	1
                        7598 
                        7599 	.section	.debug_frame
                        7600 .LDW_4e8f2e8:
000001a8 00000000*      7601 	.word	.LDW_unq_16-.LDW_unq_15
                        7602 .LDW_unq_15:
000001ac 00000000*      7603 	.word	.LDW_4d14688
000001b0 00000000*      7604 	.word	_NvM_ActInitMainFsm..C.3A.5C_ECU2.5CECU_Rivian_A1.5CTarget.5Crepo_projects.5CpRealEcu.5CcL_LATEST.5Cmake.5Coutput.5Cobjects.5CNvM_Act.
000001b4 00000000*      7605 	.word	___ghs_eofn_NvM_ActInitMainFsm-_NvM_ActInitMainFsm..C.3A.5C_ECU2.5CECU_Rivian_A1.5CTarget.5Crepo_projects.5CpRealEcu.5CcL_LATEST.5Cmake.5Coutput.5Cobjects.5CNvM_Act.
000001b8 44             7606 	.byte	68
000001b9 9f             7607 	.byte	159
000001ba 00             7608 	.byte	0
000001bb 40             7609 	.byte	64
000001bc 9d             7610 	.byte	157
000001bd 04             7611 	.byte	4
000001be 01             7612 	.byte	1
000001bf 00000000*      7613 	.word	.LDW14
000001c3 44             7614 	.byte	68
000001c4 df             7615 	.byte	223
000001c5 40             7616 	.byte	64
000001c6 dd             7617 	.byte	221
000001c7 00             7618 	.byte	0

                                                                      Page 145
                                                              C:\Users\nhuliyap\AppData\Local\Temp\gh_0000d3s1.s
                        7619 .LDW_unq_16:
                        7620 	.section	.debug_line
00000a05 000502         7621 	.byte	0,5,2
00000a08 00000000*      7622 	.word	_NvM_ActInitMainFsm..C.3A.5C_ECU2.5CECU_Rivian_A1.5CTarget.5Crepo_projects.5CpRealEcu.5CcL_LATEST.5Cmake.5Coutput.5Cobjects.5CNvM_Act.
00000a0c 03             7623 	.byte	3
00000a0d 8e04           7624 	.byte	142,4
00000a0f 02             7625 	.byte	2
00000a10 00             7626 	.byte	0
00000a11 01             7627 	.byte	1
00000a12 06             7628 	.byte	6
00000a13 1b             7629 	.byte	27
00000a14 000502         7630 	.byte	0,5,2
00000a17 00000000*      7631 	.word	.LDWlin70
00000a1b 0c             7632 	.byte	12
00000a1c 000502         7633 	.byte	0,5,2
00000a1f 00000000*      7634 	.word	.LDWlin71
00000a23 0c             7635 	.byte	12
00000a24 000502         7636 	.byte	0,5,2
00000a27 00000000*      7637 	.word	.LDWlin72
00000a2b 0b             7638 	.byte	11
00000a2c 02             7639 	.byte	2
00000a2d 04             7640 	.byte	4
00000a2e 000101         7641 	.byte	0,1,1
                        7642 	.section	.debug_info
                        7643 .LDW_486b9b8:
000022e7 1d             7644 	.byte	29
000022e8 00000000*      7645 	.word	.LDW04
000022ec 00000000*      7646 	.word	.LDW14
                        7647 
000022f0 00             7648 	.byte	0
                        7649 
000022f1 00             7650 	.byte	0
                        7651 
                        7652 .LDW_4bdf1d8:
000022f2 13             7653 	.byte	19
000022f3 4e764d5f4163   7654 	.strz	"NvM_ActInitReadAll"
000022f9 74496e697452 
000022ff 656164416c6c 
00002305 00 
00002306 9704           7655 	.byte	151,4
00002308 28             7656 	.byte	40
00002309 01             7657 	.byte	1
0000230a 00000000*      7658 	.word	_NvM_ActInitReadAll..C.3A.5C_ECU2.5CECU_Rivian_A1.5CTarget.5Crepo_projects.5CpRealEcu.5CcL_LATEST.5Cmake.5Coutput.5Cobjects.5CNvM_Act.
0000230e 00000000*      7659 	.word	___ghs_eofn_NvM_ActInitReadAll
00002312 0153           7660 	.byte	1,83
00002314 828080800a     7661 	.byte	130,128,128,128,10
00002319 08             7662 	.byte	8
0000231a 03             7663 	.byte	3
0000231b 08             7664 	.byte	8
0000231c 00             7665 	.byte	0
0000231d 00             7666 	.byte	0
0000231e 00             7667 	.byte	0
0000231f 00             7668 	.byte	0
00002320 01             7669 	.byte	1
00002321 00             7670 	.byte	0
00002322 01             7671 	.byte	1
                        7672 
                        7673 	.section	.debug_frame
                        7674 .LDW_4e8fea8:
000001c8 00000000*      7675 	.word	.LDW_unq_18-.LDW_unq_17
                        7676 .LDW_unq_17:

                                                                      Page 146
                                                              C:\Users\nhuliyap\AppData\Local\Temp\gh_0000d3s1.s
000001cc 00000000*      7677 	.word	.LDW_4d14688
000001d0 00000000*      7678 	.word	_NvM_ActInitReadAll..C.3A.5C_ECU2.5CECU_Rivian_A1.5CTarget.5Crepo_projects.5CpRealEcu.5CcL_LATEST.5Cmake.5Coutput.5Cobjects.5CNvM_Act.
000001d4 00000000*      7679 	.word	___ghs_eofn_NvM_ActInitReadAll-_NvM_ActInitReadAll..C.3A.5C_ECU2.5CECU_Rivian_A1.5CTarget.5Crepo_projects.5CpRealEcu.5CcL_LATEST.5Cmake.5Coutput.5Cobjects.5CNvM_Act.
000001d8 44             7680 	.byte	68
000001d9 9f             7681 	.byte	159
000001da 00             7682 	.byte	0
000001db 40             7683 	.byte	64
000001dc 9d             7684 	.byte	157
000001dd 04             7685 	.byte	4
000001de 01             7686 	.byte	1
000001df 00000000*      7687 	.word	.LDW74
000001e3 00             7688 	.byte	0
                        7689 .LDW_unq_18:
                        7690 	.section	.debug_line
00000a31 000502         7691 	.byte	0,5,2
00000a34 00000000*      7692 	.word	_NvM_ActInitReadAll..C.3A.5C_ECU2.5CECU_Rivian_A1.5CTarget.5Crepo_projects.5CpRealEcu.5CcL_LATEST.5Cmake.5Coutput.5Cobjects.5CNvM_Act.
00000a38 03             7693 	.byte	3
00000a39 9604           7694 	.byte	150,4
00000a3b 02             7695 	.byte	2
00000a3c 00             7696 	.byte	0
00000a3d 01             7697 	.byte	1
00000a3e 06             7698 	.byte	6
00000a3f 1d             7699 	.byte	29
00000a40 000502         7700 	.byte	0,5,2
00000a43 00000000*      7701 	.word	.LDWlin77
00000a47 03             7702 	.byte	3
00000a48 7e             7703 	.byte	126
00000a49 02             7704 	.byte	2
00000a4a 00             7705 	.byte	0
00000a4b 01             7706 	.byte	1
00000a4c 000502         7707 	.byte	0,5,2
00000a4f 00000000*      7708 	.word	.LDWlin78
00000a53 03             7709 	.byte	3
00000a54 04             7710 	.byte	4
00000a55 02             7711 	.byte	2
00000a56 00             7712 	.byte	0
00000a57 01             7713 	.byte	1
00000a58 0c             7714 	.byte	12
00000a59 1b             7715 	.byte	27
00000a5a 000502         7716 	.byte	0,5,2
00000a5d 00000000*      7717 	.word	.LDWlin79
00000a61 0b             7718 	.byte	11
00000a62 000502         7719 	.byte	0,5,2
00000a65 00000000*      7720 	.word	.LDWlin80
00000a69 0c             7721 	.byte	12
00000a6a 000502         7722 	.byte	0,5,2
00000a6d 00000000*      7723 	.word	.LDWlin81
00000a71 02             7724 	.byte	2
00000a72 00             7725 	.byte	0
00000a73 0c             7726 	.byte	12
00000a74 000502         7727 	.byte	0,5,2
00000a77 00000000*      7728 	.word	.LDWlin82
00000a7b 0d             7729 	.byte	13
00000a7c 000502         7730 	.byte	0,5,2
00000a7f 00000000*      7731 	.word	.LDWlin83
00000a83 0d             7732 	.byte	13
00000a84 000502         7733 	.byte	0,5,2
00000a87 00000000*      7734 	.word	.LDWlin84
00000a8b 0b             7735 	.byte	11
00000a8c 02             7736 	.byte	2
00000a8d 04             7737 	.byte	4

                                                                      Page 147
                                                              C:\Users\nhuliyap\AppData\Local\Temp\gh_0000d3s1.s
00000a8e 000101         7738 	.byte	0,1,1
                        7739 	.section	.debug_info
                        7740 .LDW_486bad8:
00002323 1d             7741 	.byte	29
00002324 00000000*      7742 	.word	.LDW64
00002328 00000000*      7743 	.word	.LDW74
                        7744 
                        7745 .LDW_4869840:
0000232c 04             7746 	.byte	4
0000232d 63757272426c   7747 	.strz	"currBlockId"
00002333 6f636b496400 
00002339 9804           7748 	.byte	152,4
0000233b 15             7749 	.byte	21
0000233c 01             7750 	.byte	1
0000233d 00000000*      7751 	.word	.LDW_4869898
00002341 00             7752 	.byte	0
00002342 00             7753 	.byte	0
00002343 016d           7754 	.byte	1,109
                        7755 
00002345 00             7756 	.byte	0
                        7757 
00002346 00             7758 	.byte	0
                        7759 
                        7760 .LDW_4bdf270:
00002347 13             7761 	.byte	19
00002348 4e764d5f4163   7762 	.strz	"NvM_ActFinishCfgIdCheck"
0000234e 7446696e6973 
00002354 684366674964 
0000235a 436865636b00 
00002360 ad04           7763 	.byte	173,4
00002362 28             7764 	.byte	40
00002363 01             7765 	.byte	1
00002364 00000000*      7766 	.word	_NvM_ActFinishCfgIdCheck..C.3A.5C_ECU2.5CECU_Rivian_A1.5CTarget.5Crepo_projects.5CpRealEcu.5CcL_LATEST.5Cmake.5Coutput.5Cobjects.5CNvM_Act.
00002368 00000000*      7767 	.word	___ghs_eofn_NvM_ActFinishCfgIdCheck
0000236c 0153           7768 	.byte	1,83
0000236e 02             7769 	.byte	2
0000236f 00             7770 	.byte	0
00002370 02             7771 	.byte	2
00002371 00             7772 	.byte	0
00002372 00             7773 	.byte	0
00002373 00             7774 	.byte	0
00002374 00             7775 	.byte	0
00002375 00             7776 	.byte	0
00002376 01             7777 	.byte	1
00002377 00             7778 	.byte	0
00002378 01             7779 	.byte	1
                        7780 
                        7781 	.section	.debug_frame
                        7782 .LDW_4e8fce8:
000001e4 00000000*      7783 	.word	.LDW_unq_1a-.LDW_unq_19
                        7784 .LDW_unq_19:
000001e8 00000000*      7785 	.word	.LDW_4d14688
000001ec 00000000*      7786 	.word	_NvM_ActFinishCfgIdCheck..C.3A.5C_ECU2.5CECU_Rivian_A1.5CTarget.5Crepo_projects.5CpRealEcu.5CcL_LATEST.5Cmake.5Coutput.5Cobjects.5CNvM_Act.
000001f0 00000000*      7787 	.word	___ghs_eofn_NvM_ActFinishCfgIdCheck-_NvM_ActFinishCfgIdCheck..C.3A.5C_ECU2.5CECU_Rivian_A1.5CTarget.5Crepo_projects.5CpRealEcu.5CcL_LATEST.5Cmake.5Coutput.5Cobjects.5CNvM_Act.
000001f4 01             7788 	.byte	1
000001f5 00000000*      7789 	.word	.LDW75
000001f9 00             7790 	.byte	0
000001fa 00             7791 	.byte	0
000001fb 00             7792 	.byte	0
                        7793 .LDW_unq_1a:
                        7794 	.section	.debug_line

                                                                      Page 148
                                                              C:\Users\nhuliyap\AppData\Local\Temp\gh_0000d3s1.s
00000a91 000502         7795 	.byte	0,5,2
00000a94 00000000*      7796 	.word	_NvM_ActFinishCfgIdCheck..C.3A.5C_ECU2.5CECU_Rivian_A1.5CTarget.5Crepo_projects.5CpRealEcu.5CcL_LATEST.5Cmake.5Coutput.5Cobjects.5CNvM_Act.
00000a98 06             7797 	.byte	6
00000a99 03             7798 	.byte	3
00000a9a ae04           7799 	.byte	174,4
00000a9c 02             7800 	.byte	2
00000a9d 00             7801 	.byte	0
00000a9e 01             7802 	.byte	1
00000a9f 000502         7803 	.byte	0,5,2
00000aa2 00000000*      7804 	.word	.LDWlin96
00000aa6 0c             7805 	.byte	12
00000aa7 000502         7806 	.byte	0,5,2
00000aaa 00000000*      7807 	.word	.LDWlin97
00000aae 0b             7808 	.byte	11
00000aaf 0b             7809 	.byte	11
00000ab0 06             7810 	.byte	6
00000ab1 000502         7811 	.byte	0,5,2
00000ab4 00000000*      7812 	.word	.LDWlin98
00000ab8 03             7813 	.byte	3
00000ab9 13             7814 	.byte	19
00000aba 02             7815 	.byte	2
00000abb 00             7816 	.byte	0
00000abc 01             7817 	.byte	1
00000abd 03             7818 	.byte	3
00000abe 73             7819 	.byte	115
00000abf 02             7820 	.byte	2
00000ac0 00             7821 	.byte	0
00000ac1 01             7822 	.byte	1
00000ac2 03             7823 	.byte	3
00000ac3 7a             7824 	.byte	122
00000ac4 02             7825 	.byte	2
00000ac5 00             7826 	.byte	0
00000ac6 01             7827 	.byte	1
00000ac7 06             7828 	.byte	6
00000ac8 000502         7829 	.byte	0,5,2
00000acb 00000000*      7830 	.word	.LDWlin99
00000acf 0c             7831 	.byte	12
00000ad0 03             7832 	.byte	3
00000ad1 08             7833 	.byte	8
00000ad2 02             7834 	.byte	2
00000ad3 00             7835 	.byte	0
00000ad4 01             7836 	.byte	1
00000ad5 02             7837 	.byte	2
00000ad6 00             7838 	.byte	0
00000ad7 0b             7839 	.byte	11
00000ad8 0b             7840 	.byte	11
00000ad9 02             7841 	.byte	2
00000ada 00             7842 	.byte	0
00000adb 15             7843 	.byte	21
00000adc 0b             7844 	.byte	11
00000add 0b             7845 	.byte	11
00000ade 06             7846 	.byte	6
00000adf 000502         7847 	.byte	0,5,2
00000ae2 00000000*      7848 	.word	.LDWlin100
00000ae6 03             7849 	.byte	3
00000ae7 77             7850 	.byte	119
00000ae8 02             7851 	.byte	2
00000ae9 00             7852 	.byte	0
00000aea 01             7853 	.byte	1
00000aeb 03             7854 	.byte	3
00000aec 06             7855 	.byte	6

                                                                      Page 149
                                                              C:\Users\nhuliyap\AppData\Local\Temp\gh_0000d3s1.s
00000aed 02             7856 	.byte	2
00000aee 00             7857 	.byte	0
00000aef 01             7858 	.byte	1
00000af0 03             7859 	.byte	3
00000af1 07             7860 	.byte	7
00000af2 02             7861 	.byte	2
00000af3 00             7862 	.byte	0
00000af4 01             7863 	.byte	1
00000af5 06             7864 	.byte	6
00000af6 0c             7865 	.byte	12
00000af7 02             7866 	.byte	2
00000af8 00             7867 	.byte	0
00000af9 02             7868 	.byte	2
00000afa 00             7869 	.byte	0
00000afb 02             7870 	.byte	2
00000afc 00             7871 	.byte	0
00000afd 0b             7872 	.byte	11
00000afe 02             7873 	.byte	2
00000aff 02             7874 	.byte	2
00000b00 000101         7875 	.byte	0,1,1
                        7876 	.section	.debug_info
                        7877 .LDW_486bb08:
00002379 1d             7878 	.byte	29
0000237a 00000000*      7879 	.word	.LDW65
0000237e 00000000*      7880 	.word	.LDW75
                        7881 
00002382 00             7882 	.byte	0
                        7883 
00002383 00             7884 	.byte	0
                        7885 
                        7886 .LDW_4bdf308:
00002384 13             7887 	.byte	19
00002385 4e764d5f4163   7888 	.strz	"NvM_ActInitWriteAll"
0000238b 74496e697457 
00002391 72697465416c 
00002397 6c00 
00002399 cd04           7889 	.byte	205,4
0000239b 28             7890 	.byte	40
0000239c 01             7891 	.byte	1
0000239d 00000000*      7892 	.word	_NvM_ActInitWriteAll..C.3A.5C_ECU2.5CECU_Rivian_A1.5CTarget.5Crepo_projects.5CpRealEcu.5CcL_LATEST.5Cmake.5Coutput.5Cobjects.5CNvM_Act.
000023a1 00000000*      7893 	.word	___ghs_eofn_NvM_ActInitWriteAll
000023a5 0153           7894 	.byte	1,83
000023a7 02             7895 	.byte	2
000023a8 00             7896 	.byte	0
000023a9 02             7897 	.byte	2
000023aa 00             7898 	.byte	0
000023ab 00             7899 	.byte	0
000023ac 00             7900 	.byte	0
000023ad 00             7901 	.byte	0
000023ae 00             7902 	.byte	0
000023af 01             7903 	.byte	1
000023b0 00             7904 	.byte	0
000023b1 01             7905 	.byte	1
                        7906 
                        7907 	.section	.debug_frame
                        7908 .LDW_4e8f9e8:
000001fc 00000000*      7909 	.word	.LDW_unq_1c-.LDW_unq_1b
                        7910 .LDW_unq_1b:
00000200 00000000*      7911 	.word	.LDW_4d14688
00000204 00000000*      7912 	.word	_NvM_ActInitWriteAll..C.3A.5C_ECU2.5CECU_Rivian_A1.5CTarget.5Crepo_projects.5CpRealEcu.5CcL_LATEST.5Cmake.5Coutput.5Cobjects.5CNvM_Act.
00000208 00000000*      7913 	.word	___ghs_eofn_NvM_ActInitWriteAll-_NvM_ActInitWriteAll..C.3A.5C_ECU2.5CECU_Rivian_A1.5CTarget.5Crepo_projects.5CpRealEcu.5CcL_LATEST.5Cmake.5Coutput.5Cobjects.5CNvM_Act.

                                                                      Page 150
                                                              C:\Users\nhuliyap\AppData\Local\Temp\gh_0000d3s1.s
0000020c 01             7914 	.byte	1
0000020d 00000000*      7915 	.word	.LDW95
00000211 00             7916 	.byte	0
00000212 00             7917 	.byte	0
00000213 00             7918 	.byte	0
                        7919 .LDW_unq_1c:
                        7920 	.section	.debug_line
00000b03 000502         7921 	.byte	0,5,2
00000b06 00000000*      7922 	.word	_NvM_ActInitWriteAll..C.3A.5C_ECU2.5CECU_Rivian_A1.5CTarget.5Crepo_projects.5CpRealEcu.5CcL_LATEST.5Cmake.5Coutput.5Cobjects.5CNvM_Act.
00000b0a 06             7923 	.byte	6
00000b0b 03             7924 	.byte	3
00000b0c ce04           7925 	.byte	206,4
00000b0e 02             7926 	.byte	2
00000b0f 00             7927 	.byte	0
00000b10 01             7928 	.byte	1
00000b11 000502         7929 	.byte	0,5,2
00000b14 00000000*      7930 	.word	.LDWlin101
00000b18 0d             7931 	.byte	13
00000b19 02             7932 	.byte	2
00000b1a 06             7933 	.byte	6
00000b1b 000101         7934 	.byte	0,1,1
                        7935 	.section	.debug_info
                        7936 .LDW_486baa8:
000023b2 1d             7937 	.byte	29
000023b3 00000000*      7938 	.word	.LDW85
000023b7 00000000*      7939 	.word	.LDW95
                        7940 
000023bb 00             7941 	.byte	0
                        7942 
000023bc 00             7943 	.byte	0
                        7944 
                        7945 .LDW_4bdf3a0:
000023bd 13             7946 	.byte	19
000023be 4e764d5f4163   7947 	.strz	"NvM_ActInitWriteBlock"
000023c4 74496e697457 
000023ca 72697465426c 
000023d0 6f636b00 
000023d4 d604           7948 	.byte	214,4
000023d6 28             7949 	.byte	40
000023d7 01             7950 	.byte	1
000023d8 00000000*      7951 	.word	_NvM_ActInitWriteBlock..C.3A.5C_ECU2.5CECU_Rivian_A1.5CTarget.5Crepo_projects.5CpRealEcu.5CcL_LATEST.5Cmake.5Coutput.5Cobjects.5CNvM_Act.
000023dc 00000000*      7952 	.word	___ghs_eofn_NvM_ActInitWriteBlock
000023e0 0153           7953 	.byte	1,83
000023e2 828080800b     7954 	.byte	130,128,128,128,11
000023e7 0c             7955 	.byte	12
000023e8 03             7956 	.byte	3
000023e9 0c             7957 	.byte	12
000023ea 00             7958 	.byte	0
000023eb 00             7959 	.byte	0
000023ec 00             7960 	.byte	0
000023ed 00             7961 	.byte	0
000023ee 01             7962 	.byte	1
000023ef 00             7963 	.byte	0
000023f0 01             7964 	.byte	1
                        7965 
                        7966 	.section	.debug_frame
                        7967 .LDW_4edf428:
00000214 00000000*      7968 	.word	.LDW_unq_1e-.LDW_unq_1d
                        7969 .LDW_unq_1d:
00000218 00000000*      7970 	.word	.LDW_4d14688
0000021c 00000000*      7971 	.word	_NvM_ActInitWriteBlock..C.3A.5C_ECU2.5CECU_Rivian_A1.5CTarget.5Crepo_projects.5CpRealEcu.5CcL_LATEST.5Cmake.5Coutput.5Cobjects.5CNvM_Act.

                                                                      Page 151
                                                              C:\Users\nhuliyap\AppData\Local\Temp\gh_0000d3s1.s
00000220 00000000*      7972 	.word	___ghs_eofn_NvM_ActInitWriteBlock-_NvM_ActInitWriteBlock..C.3A.5C_ECU2.5CECU_Rivian_A1.5CTarget.5Crepo_projects.5CpRealEcu.5CcL_LATEST.5Cmake.5Coutput.5Cobjects.5CNvM_Act.
00000224 44             7973 	.byte	68
00000225 9f             7974 	.byte	159
00000226 00             7975 	.byte	0
00000227 40             7976 	.byte	64
00000228 9d             7977 	.byte	157
00000229 04             7978 	.byte	4
0000022a 40             7979 	.byte	64
0000022b 9c             7980 	.byte	156
0000022c 08             7981 	.byte	8
0000022d 01             7982 	.byte	1
0000022e 00000000*      7983 	.word	.LDW76
00000232 00             7984 	.byte	0
00000233 00             7985 	.byte	0
                        7986 .LDW_unq_1e:
                        7987 	.section	.debug_line
00000b1e 000502         7988 	.byte	0,5,2
00000b21 00000000*      7989 	.word	_NvM_ActInitWriteBlock..C.3A.5C_ECU2.5CECU_Rivian_A1.5CTarget.5Crepo_projects.5CpRealEcu.5CcL_LATEST.5Cmake.5Coutput.5Cobjects.5CNvM_Act.
00000b25 03             7990 	.byte	3
00000b26 d504           7991 	.byte	213,4
00000b28 02             7992 	.byte	2
00000b29 00             7993 	.byte	0
00000b2a 01             7994 	.byte	1
00000b2b 06             7995 	.byte	6
00000b2c 1b             7996 	.byte	27
00000b2d 000502         7997 	.byte	0,5,2
00000b30 00000000*      7998 	.word	.LDWlin113
00000b34 0c             7999 	.byte	12
00000b35 000502         8000 	.byte	0,5,2
00000b38 00000000*      8001 	.word	.LDWlin114
00000b3c 0b             8002 	.byte	11
00000b3d 0c             8003 	.byte	12
00000b3e 000502         8004 	.byte	0,5,2
00000b41 00000000*      8005 	.word	.LDWlin115
00000b45 0b             8006 	.byte	11
00000b46 02             8007 	.byte	2
00000b47 00             8008 	.byte	0
00000b48 0d             8009 	.byte	13
00000b49 1d             8010 	.byte	29
00000b4a 000502         8011 	.byte	0,5,2
00000b4d 00000000*      8012 	.word	.LDWlin116
00000b51 03             8013 	.byte	3
00000b52 04             8014 	.byte	4
00000b53 02             8015 	.byte	2
00000b54 00             8016 	.byte	0
00000b55 01             8017 	.byte	1
00000b56 000502         8018 	.byte	0,5,2
00000b59 00000000*      8019 	.word	.LDWlin117
00000b5d 03             8020 	.byte	3
00000b5e 04             8021 	.byte	4
00000b5f 02             8022 	.byte	2
00000b60 00             8023 	.byte	0
00000b61 01             8024 	.byte	1
00000b62 000502         8025 	.byte	0,5,2
00000b65 00000000*      8026 	.word	.LDWlin118
00000b69 0c             8027 	.byte	12
00000b6a 02             8028 	.byte	2
00000b6b 04             8029 	.byte	4
00000b6c 000101         8030 	.byte	0,1,1
                        8031 	.section	.debug_info
                        8032 .LDW_486ba78:

                                                                      Page 152
                                                              C:\Users\nhuliyap\AppData\Local\Temp\gh_0000d3s1.s
000023f1 1d             8033 	.byte	29
000023f2 00000000*      8034 	.word	.LDW66
000023f6 00000000*      8035 	.word	.LDW76
                        8036 
000023fa 00             8037 	.byte	0
                        8038 
000023fb 00             8039 	.byte	0
                        8040 
                        8041 .LDW_4be1428:
000023fc 13             8042 	.byte	19
000023fd 4e764d5f4163   8043 	.strz	"NvM_ActFinishEraseBlock"
00002403 7446696e6973 
00002409 684572617365 
0000240f 426c6f636b00 
00002415 f104           8044 	.byte	241,4
00002417 28             8045 	.byte	40
00002418 01             8046 	.byte	1
00002419 00000000*      8047 	.word	_NvM_ActFinishEraseBlock..C.3A.5C_ECU2.5CECU_Rivian_A1.5CTarget.5Crepo_projects.5CpRealEcu.5CcL_LATEST.5Cmake.5Coutput.5Cobjects.5CNvM_Act.
0000241d 00000000*      8048 	.word	___ghs_eofn_NvM_ActFinishEraseBlock
00002421 0153           8049 	.byte	1,83
00002423 02             8050 	.byte	2
00002424 00             8051 	.byte	0
00002425 02             8052 	.byte	2
00002426 00             8053 	.byte	0
00002427 00             8054 	.byte	0
00002428 00             8055 	.byte	0
00002429 00             8056 	.byte	0
0000242a 00             8057 	.byte	0
0000242b 01             8058 	.byte	1
0000242c 00             8059 	.byte	0
0000242d 01             8060 	.byte	1
                        8061 
                        8062 	.section	.debug_frame
                        8063 .LDW_4edf068:
00000234 00000000*      8064 	.word	.LDW_unq_20-.LDW_unq_1f
                        8065 .LDW_unq_1f:
00000238 00000000*      8066 	.word	.LDW_4d14688
0000023c 00000000*      8067 	.word	_NvM_ActFinishEraseBlock..C.3A.5C_ECU2.5CECU_Rivian_A1.5CTarget.5Crepo_projects.5CpRealEcu.5CcL_LATEST.5Cmake.5Coutput.5Cobjects.5CNvM_Act.
00000240 00000000*      8068 	.word	___ghs_eofn_NvM_ActFinishEraseBlock-_NvM_ActFinishEraseBlock..C.3A.5C_ECU2.5CECU_Rivian_A1.5CTarget.5Crepo_projects.5CpRealEcu.5CcL_LATEST.5Cmake.5Coutput.5Cobjects.5CNvM_Act.
00000244 01             8069 	.byte	1
00000245 00000000*      8070 	.word	.LDW96
00000249 00             8071 	.byte	0
0000024a 00             8072 	.byte	0
0000024b 00             8073 	.byte	0
                        8074 .LDW_unq_20:
                        8075 	.section	.debug_line
00000b6f 000502         8076 	.byte	0,5,2
00000b72 00000000*      8077 	.word	_NvM_ActFinishEraseBlock..C.3A.5C_ECU2.5CECU_Rivian_A1.5CTarget.5Crepo_projects.5CpRealEcu.5CcL_LATEST.5Cmake.5Coutput.5Cobjects.5CNvM_Act.
00000b76 06             8078 	.byte	6
00000b77 03             8079 	.byte	3
00000b78 f104           8080 	.byte	241,4
00000b7a 02             8081 	.byte	2
00000b7b 00             8082 	.byte	0
00000b7c 01             8083 	.byte	1
00000b7d 000502         8084 	.byte	0,5,2
00000b80 00000000*      8085 	.word	.LDWlin119
00000b84 0b             8086 	.byte	11
00000b85 0c             8087 	.byte	12
00000b86 1b             8088 	.byte	27
00000b87 02             8089 	.byte	2
00000b88 00             8090 	.byte	0

                                                                      Page 153
                                                              C:\Users\nhuliyap\AppData\Local\Temp\gh_0000d3s1.s
00000b89 0c             8091 	.byte	12
00000b8a 02             8092 	.byte	2
00000b8b 06             8093 	.byte	6
00000b8c 000101         8094 	.byte	0,1,1
                        8095 	.section	.debug_info
                        8096 .LDW_486b9e8:
0000242e 1d             8097 	.byte	29
0000242f 00000000*      8098 	.word	.LDW86
00002433 00000000*      8099 	.word	.LDW96
                        8100 
00002437 00             8101 	.byte	0
                        8102 
00002438 00             8103 	.byte	0
                        8104 
                        8105 .LDW_4be14c0:
00002439 13             8106 	.byte	19
0000243a 4e764d5f4163   8107 	.strz	"NvM_ActInitReadBlockFsm"
00002440 74496e697452 
00002446 656164426c6f 
0000244c 636b46736d00 
00002452 fc04           8108 	.byte	252,4
00002454 28             8109 	.byte	40
00002455 01             8110 	.byte	1
00002456 00000000*      8111 	.word	_NvM_ActInitReadBlockFsm..C.3A.5C_ECU2.5CECU_Rivian_A1.5CTarget.5Crepo_projects.5CpRealEcu.5CcL_LATEST.5Cmake.5Coutput.5Cobjects.5CNvM_Act.
0000245a 00000000*      8112 	.word	___ghs_eofn_NvM_ActInitReadBlockFsm
0000245e 0153           8113 	.byte	1,83
00002460 828080800a     8114 	.byte	130,128,128,128,10
00002465 08             8115 	.byte	8
00002466 03             8116 	.byte	3
00002467 08             8117 	.byte	8
00002468 00             8118 	.byte	0
00002469 00             8119 	.byte	0
0000246a 00             8120 	.byte	0
0000246b 00             8121 	.byte	0
0000246c 01             8122 	.byte	1
0000246d 00             8123 	.byte	0
0000246e 01             8124 	.byte	1
                        8125 
                        8126 	.section	.debug_frame
                        8127 .LDW_4e8fa28:
0000024c 00000000*      8128 	.word	.LDW_unq_22-.LDW_unq_21
                        8129 .LDW_unq_21:
00000250 00000000*      8130 	.word	.LDW_4d14688
00000254 00000000*      8131 	.word	_NvM_ActInitReadBlockFsm..C.3A.5C_ECU2.5CECU_Rivian_A1.5CTarget.5Crepo_projects.5CpRealEcu.5CcL_LATEST.5Cmake.5Coutput.5Cobjects.5CNvM_Act.
00000258 00000000*      8132 	.word	___ghs_eofn_NvM_ActInitReadBlockFsm-_NvM_ActInitReadBlockFsm..C.3A.5C_ECU2.5CECU_Rivian_A1.5CTarget.5Crepo_projects.5CpRealEcu.5CcL_LATEST.5Cmake.5Coutput.5Cobjects.5CNvM_Act.
0000025c 48             8133 	.byte	72
0000025d 9f             8134 	.byte	159
0000025e 00             8135 	.byte	0
0000025f 40             8136 	.byte	64
00000260 9d             8137 	.byte	157
00000261 04             8138 	.byte	4
00000262 01             8139 	.byte	1
00000263 00000000*      8140 	.word	.LDW54
00000267 00             8141 	.byte	0
                        8142 .LDW_unq_22:
                        8143 	.section	.debug_line
00000b8f 000502         8144 	.byte	0,5,2
00000b92 00000000*      8145 	.word	_NvM_ActInitReadBlockFsm..C.3A.5C_ECU2.5CECU_Rivian_A1.5CTarget.5Crepo_projects.5CpRealEcu.5CcL_LATEST.5Cmake.5Coutput.5Cobjects.5CNvM_Act.
00000b96 03             8146 	.byte	3
00000b97 fb04           8147 	.byte	251,4
00000b99 02             8148 	.byte	2

                                                                      Page 154
                                                              C:\Users\nhuliyap\AppData\Local\Temp\gh_0000d3s1.s
00000b9a 00             8149 	.byte	0
00000b9b 01             8150 	.byte	1
00000b9c 06             8151 	.byte	6
00000b9d 2d             8152 	.byte	45
00000b9e 000502         8153 	.byte	0,5,2
00000ba1 00000000*      8154 	.word	.LDWlin74
00000ba5 03             8155 	.byte	3
00000ba6 0a             8156 	.byte	10
00000ba7 02             8157 	.byte	2
00000ba8 00             8158 	.byte	0
00000ba9 01             8159 	.byte	1
00000baa 000502         8160 	.byte	0,5,2
00000bad 00000000*      8161 	.word	.LDWlin75
00000bb1 0c             8162 	.byte	12
00000bb2 000502         8163 	.byte	0,5,2
00000bb5 00000000*      8164 	.word	.LDWlin76
00000bb9 0b             8165 	.byte	11
00000bba 02             8166 	.byte	2
00000bbb 04             8167 	.byte	4
00000bbc 000101         8168 	.byte	0,1,1
                        8169 	.section	.debug_info
                        8170 .LDW_486ba48:
0000246f 1d             8171 	.byte	29
00002470 00000000*      8172 	.word	.LDW44
00002474 00000000*      8173 	.word	.LDW54
                        8174 
                        8175 .LDW_4869420:
00002478 04             8176 	.byte	4
00002479 6a6f62496400   8177 	.strz	"jobId"
0000247f ff04           8178 	.byte	255,4
00002481 28             8179 	.byte	40
00002482 01             8180 	.byte	1
00002483 00000000*      8181 	.word	.LDW_4869948
00002487 00             8182 	.byte	0
00002488 00             8183 	.byte	0
00002489 0162           8184 	.byte	1,98
                        8185 
                        8186 .LDW_48698f0:
0000248b 05             8187 	.byte	5
0000248c 496e69746961   8188 	.strz	"InitialActId"
00002492 6c4163744964 
00002498 00 
00002499 8805           8189 	.byte	136,5
0000249b 1e             8190 	.byte	30
0000249c 01             8191 	.byte	1
0000249d 00000000*      8192 	.word	.LDW_4869478
000024a1 00             8193 	.byte	0
000024a2 00             8194 	.byte	0
                        8195 
000024a3 00             8196 	.byte	0
                        8197 
000024a4 00             8198 	.byte	0
                        8199 
                        8200 .LDW_4be1758:
000024a5 13             8201 	.byte	19
000024a6 4e764d5f4163   8202 	.strz	"NvM_ActInitWriteBlockFsm"
000024ac 74496e697457 
000024b2 72697465426c 
000024b8 6f636b46736d 
000024be 00 
000024bf 8e05           8203 	.byte	142,5

                                                                      Page 155
                                                              C:\Users\nhuliyap\AppData\Local\Temp\gh_0000d3s1.s
000024c1 28             8204 	.byte	40
000024c2 01             8205 	.byte	1
000024c3 00000000*      8206 	.word	_NvM_ActInitWriteBlockFsm..C.3A.5C_ECU2.5CECU_Rivian_A1.5CTarget.5Crepo_projects.5CpRealEcu.5CcL_LATEST.5Cmake.5Coutput.5Cobjects.5CNvM_Act.
000024c7 00000000*      8207 	.word	___ghs_eofn_NvM_ActInitWriteBlockFsm
000024cb 0153           8208 	.byte	1,83
000024cd 828080800a     8209 	.byte	130,128,128,128,10
000024d2 08             8210 	.byte	8
000024d3 03             8211 	.byte	3
000024d4 08             8212 	.byte	8
000024d5 00             8213 	.byte	0
000024d6 00             8214 	.byte	0
000024d7 00             8215 	.byte	0
000024d8 00             8216 	.byte	0
000024d9 01             8217 	.byte	1
000024da 00             8218 	.byte	0
000024db 01             8219 	.byte	1
                        8220 
                        8221 	.section	.debug_frame
                        8222 .LDW_4edf4a8:
00000268 00000000*      8223 	.word	.LDW_unq_24-.LDW_unq_23
                        8224 .LDW_unq_23:
0000026c 00000000*      8225 	.word	.LDW_4d14688
00000270 00000000*      8226 	.word	_NvM_ActInitWriteBlockFsm..C.3A.5C_ECU2.5CECU_Rivian_A1.5CTarget.5Crepo_projects.5CpRealEcu.5CcL_LATEST.5Cmake.5Coutput.5Cobjects.5CNvM_Act.
00000274 00000000*      8227 	.word	___ghs_eofn_NvM_ActInitWriteBlockFsm-_NvM_ActInitWriteBlockFsm..C.3A.5C_ECU2.5CECU_Rivian_A1.5CTarget.5Crepo_projects.5CpRealEcu.5CcL_LATEST.5Cmake.5Coutput.5Cobjects.5CNvM_Act.
00000278 48             8228 	.byte	72
00000279 9f             8229 	.byte	159
0000027a 00             8230 	.byte	0
0000027b 40             8231 	.byte	64
0000027c 9d             8232 	.byte	157
0000027d 04             8233 	.byte	4
0000027e 01             8234 	.byte	1
0000027f 00000000*      8235 	.word	.LDW17
00000283 48             8236 	.byte	72
00000284 df             8237 	.byte	223
00000285 40             8238 	.byte	64
00000286 dd             8239 	.byte	221
00000287 00             8240 	.byte	0
                        8241 .LDW_unq_24:
                        8242 	.section	.debug_line
00000bbf 000502         8243 	.byte	0,5,2
00000bc2 00000000*      8244 	.word	_NvM_ActInitWriteBlockFsm..C.3A.5C_ECU2.5CECU_Rivian_A1.5CTarget.5Crepo_projects.5CpRealEcu.5CcL_LATEST.5Cmake.5Coutput.5Cobjects.5CNvM_Act.
00000bc6 03             8245 	.byte	3
00000bc7 8d05           8246 	.byte	141,5
00000bc9 02             8247 	.byte	2
00000bca 00             8248 	.byte	0
00000bcb 01             8249 	.byte	1
00000bcc 06             8250 	.byte	6
00000bcd 2d             8251 	.byte	45
00000bce 000502         8252 	.byte	0,5,2
00000bd1 00000000*      8253 	.word	.LDWlin120
00000bd5 0b             8254 	.byte	11
00000bd6 000502         8255 	.byte	0,5,2
00000bd9 00000000*      8256 	.word	.LDWlin121
00000bdd 0b             8257 	.byte	11
00000bde 02             8258 	.byte	2
00000bdf 04             8259 	.byte	4
00000be0 000101         8260 	.byte	0,1,1
                        8261 	.section	.debug_info
                        8262 .LDW_4d513b0:
000024dc 1d             8263 	.byte	29
000024dd 00000000*      8264 	.word	.LDW07

                                                                      Page 156
                                                              C:\Users\nhuliyap\AppData\Local\Temp\gh_0000d3s1.s
000024e1 00000000*      8265 	.word	.LDW17
                        8266 
                        8267 .LDW_4869a50:
000024e5 05             8268 	.byte	5
000024e6 496e69746961   8269 	.strz	"InitialActId"
000024ec 6c4163744964 
000024f2 00 
000024f3 8f05           8270 	.byte	143,5
000024f5 1e             8271 	.byte	30
000024f6 01             8272 	.byte	1
000024f7 00000000*      8273 	.word	.LDW_4869478
000024fb 00             8274 	.byte	0
000024fc 00             8275 	.byte	0
                        8276 
000024fd 00             8277 	.byte	0
                        8278 
000024fe 00             8279 	.byte	0
                        8280 
                        8281 .LDW_4d522b0:
000024ff 13             8282 	.byte	19
00002500 4e764d5f4163   8283 	.strz	"NvM_ActInitRestoreBlockDefaults"
00002506 74496e697452 
0000250c 6573746f7265 
00002512 426c6f636b44 
00002518 656661756c74 
0000251e 7300 
00002520 9505           8284 	.byte	149,5
00002522 28             8285 	.byte	40
00002523 01             8286 	.byte	1
00002524 00000000*      8287 	.word	_NvM_ActInitRestoreBlockDefaults..C.3A.5C_ECU2.5CECU_Rivian_A1.5CTarget.5Crepo_projects.5CpRealEcu.5CcL_LATEST.5Cmake.5Coutput.5Cobjects.5CNvM_Act.
00002528 00000000*      8288 	.word	___ghs_eofn_NvM_ActInitRestoreBlockDefaults
0000252c 0153           8289 	.byte	1,83
0000252e 02             8290 	.byte	2
0000252f 00             8291 	.byte	0
00002530 02             8292 	.byte	2
00002531 00             8293 	.byte	0
00002532 00             8294 	.byte	0
00002533 00             8295 	.byte	0
00002534 00             8296 	.byte	0
00002535 00             8297 	.byte	0
00002536 01             8298 	.byte	1
00002537 00             8299 	.byte	0
00002538 01             8300 	.byte	1
                        8301 
                        8302 	.section	.debug_frame
                        8303 .LDW_4edf2e8:
00000288 00000000*      8304 	.word	.LDW_unq_26-.LDW_unq_25
                        8305 .LDW_unq_25:
0000028c 00000000*      8306 	.word	.LDW_4d14688
00000290 00000000*      8307 	.word	_NvM_ActInitRestoreBlockDefaults..C.3A.5C_ECU2.5CECU_Rivian_A1.5CTarget.5Crepo_projects.5CpRealEcu.5CcL_LATEST.5Cmake.5Coutput.5Cobjects.5CNvM_Act.
00000294 00000000*      8308 	.word	___ghs_eofn_NvM_ActInitRestoreBlockDefaults-_NvM_ActInitRestoreBlockDefaults..C.3A.5C_ECU2.5CECU_Rivian_A1.5CTarget.5Crepo_projects.5CpRealEcu.5CcL_LATEST.5Cmake.5Coutput.5Cobjects.5CNvM_Act.
00000298 01             8309 	.byte	1
00000299 00000000*      8310 	.word	.LDW37
0000029d 00             8311 	.byte	0
0000029e 00             8312 	.byte	0
0000029f 00             8313 	.byte	0
                        8314 .LDW_unq_26:
                        8315 	.section	.debug_line
00000be3 000502         8316 	.byte	0,5,2
00000be6 00000000*      8317 	.word	_NvM_ActInitRestoreBlockDefaults..C.3A.5C_ECU2.5CECU_Rivian_A1.5CTarget.5Crepo_projects.5CpRealEcu.5CcL_LATEST.5Cmake.5Coutput.5Cobjects.5CNvM_Act.
00000bea 06             8318 	.byte	6

                                                                      Page 157
                                                              C:\Users\nhuliyap\AppData\Local\Temp\gh_0000d3s1.s
00000beb 03             8319 	.byte	3
00000bec 9605           8320 	.byte	150,5
00000bee 02             8321 	.byte	2
00000bef 00             8322 	.byte	0
00000bf0 01             8323 	.byte	1
00000bf1 000502         8324 	.byte	0,5,2
00000bf4 00000000*      8325 	.word	.LDWlin122
00000bf8 0b             8326 	.byte	11
00000bf9 02             8327 	.byte	2
00000bfa 02             8328 	.byte	2
00000bfb 000101         8329 	.byte	0,1,1
                        8330 	.section	.debug_info
                        8331 .LDW_4d511d0:
00002539 1d             8332 	.byte	29
0000253a 00000000*      8333 	.word	.LDW27
0000253e 00000000*      8334 	.word	.LDW37
                        8335 
00002542 00             8336 	.byte	0
                        8337 
00002543 00             8338 	.byte	0
                        8339 
                        8340 .LDW_4d51fb8:
00002544 13             8341 	.byte	19
00002545 4e764d5f4163   8342 	.strz	"NvM_ActInvalidateNvBlock"
0000254b 74496e76616c 
00002551 69646174654e 
00002557 76426c6f636b 
0000255d 00 
0000255e 9c05           8343 	.byte	156,5
00002560 28             8344 	.byte	40
00002561 01             8345 	.byte	1
00002562 00000000*      8346 	.word	_NvM_ActInvalidateNvBlock..C.3A.5C_ECU2.5CECU_Rivian_A1.5CTarget.5Crepo_projects.5CpRealEcu.5CcL_LATEST.5Cmake.5Coutput.5Cobjects.5CNvM_Act.
00002566 00000000*      8347 	.word	___ghs_eofn_NvM_ActInvalidateNvBlock
0000256a 0153           8348 	.byte	1,83
0000256c 828080800b     8349 	.byte	130,128,128,128,11
00002571 0c             8350 	.byte	12
00002572 03             8351 	.byte	3
00002573 0c             8352 	.byte	12
00002574 00             8353 	.byte	0
00002575 00             8354 	.byte	0
00002576 00             8355 	.byte	0
00002577 00             8356 	.byte	0
00002578 01             8357 	.byte	1
00002579 00             8358 	.byte	0
0000257a 01             8359 	.byte	1
                        8360 
                        8361 	.section	.debug_frame
                        8362 .LDW_4edf328:
000002a0 00000000*      8363 	.word	.LDW_unq_28-.LDW_unq_27
                        8364 .LDW_unq_27:
000002a4 00000000*      8365 	.word	.LDW_4d14688
000002a8 00000000*      8366 	.word	_NvM_ActInvalidateNvBlock..C.3A.5C_ECU2.5CECU_Rivian_A1.5CTarget.5Crepo_projects.5CpRealEcu.5CcL_LATEST.5Cmake.5Coutput.5Cobjects.5CNvM_Act.
000002ac 00000000*      8367 	.word	___ghs_eofn_NvM_ActInvalidateNvBlock-_NvM_ActInvalidateNvBlock..C.3A.5C_ECU2.5CECU_Rivian_A1.5CTarget.5Crepo_projects.5CpRealEcu.5CcL_LATEST.5Cmake.5Coutput.5Cobjects.5CNvM_Act.
000002b0 44             8368 	.byte	68
000002b1 9f             8369 	.byte	159
000002b2 00             8370 	.byte	0
000002b3 40             8371 	.byte	64
000002b4 9d             8372 	.byte	157
000002b5 04             8373 	.byte	4
000002b6 40             8374 	.byte	64
000002b7 9c             8375 	.byte	156

                                                                      Page 158
                                                              C:\Users\nhuliyap\AppData\Local\Temp\gh_0000d3s1.s
000002b8 08             8376 	.byte	8
000002b9 01             8377 	.byte	1
000002ba 00000000*      8378 	.word	.LDW57
000002be 44             8379 	.byte	68
000002bf df             8380 	.byte	223
000002c0 40             8381 	.byte	64
000002c1 dd             8382 	.byte	221
000002c2 40             8383 	.byte	64
000002c3 dc             8384 	.byte	220
                        8385 .LDW_unq_28:
                        8386 	.section	.debug_line
00000bfe 000502         8387 	.byte	0,5,2
00000c01 00000000*      8388 	.word	_NvM_ActInvalidateNvBlock..C.3A.5C_ECU2.5CECU_Rivian_A1.5CTarget.5Crepo_projects.5CpRealEcu.5CcL_LATEST.5Cmake.5Coutput.5Cobjects.5CNvM_Act.
00000c05 03             8389 	.byte	3
00000c06 9b05           8390 	.byte	155,5
00000c08 02             8391 	.byte	2
00000c09 00             8392 	.byte	0
00000c0a 01             8393 	.byte	1
00000c0b 06             8394 	.byte	6
00000c0c 1b             8395 	.byte	27
00000c0d 000502         8396 	.byte	0,5,2
00000c10 00000000*      8397 	.word	.LDWlin123
00000c14 0c             8398 	.byte	12
00000c15 0b             8399 	.byte	11
00000c16 03             8400 	.byte	3
00000c17 04             8401 	.byte	4
00000c18 02             8402 	.byte	2
00000c19 08             8403 	.byte	8
00000c1a 01             8404 	.byte	1
00000c1b 02             8405 	.byte	2
00000c1c 00             8406 	.byte	0
00000c1d 0b             8407 	.byte	11
00000c1e 02             8408 	.byte	2
00000c1f 04             8409 	.byte	4
00000c20 000101         8410 	.byte	0,1,1
                        8411 	.section	.debug_info
                        8412 .LDW_4d51200:
0000257b 1d             8413 	.byte	29
0000257c 00000000*      8414 	.word	.LDW47
00002580 00000000*      8415 	.word	.LDW57
                        8416 
00002584 00             8417 	.byte	0
                        8418 
00002585 00             8419 	.byte	0
                        8420 
                        8421 .LDW_4d51800:
00002586 13             8422 	.byte	19
00002587 4e764d5f4163   8423 	.strz	"NvM_ActNop"
0000258d 744e6f7000 
00002592 a805           8424 	.byte	168,5
00002594 28             8425 	.byte	40
00002595 01             8426 	.byte	1
00002596 00000000*      8427 	.word	_NvM_ActNop..C.3A.5C_ECU2.5CECU_Rivian_A1.5CTarget.5Crepo_projects.5CpRealEcu.5CcL_LATEST.5Cmake.5Coutput.5Cobjects.5CNvM_Act.
0000259a 00000000*      8428 	.word	___ghs_eofn_NvM_ActNop
0000259e 0153           8429 	.byte	1,83
000025a0 02             8430 	.byte	2
000025a1 00             8431 	.byte	0
000025a2 02             8432 	.byte	2
000025a3 00             8433 	.byte	0
000025a4 00             8434 	.byte	0
000025a5 00             8435 	.byte	0

                                                                      Page 159
                                                              C:\Users\nhuliyap\AppData\Local\Temp\gh_0000d3s1.s
000025a6 00             8436 	.byte	0
000025a7 00             8437 	.byte	0
000025a8 01             8438 	.byte	1
000025a9 00             8439 	.byte	0
000025aa 01             8440 	.byte	1
                        8441 
                        8442 	.section	.debug_frame
                        8443 .LDW_4edf168:
000002c4 00000000*      8444 	.word	.LDW_unq_2a-.LDW_unq_29
                        8445 .LDW_unq_29:
000002c8 00000000*      8446 	.word	.LDW_4d14688
000002cc 00000000*      8447 	.word	_NvM_ActNop..C.3A.5C_ECU2.5CECU_Rivian_A1.5CTarget.5Crepo_projects.5CpRealEcu.5CcL_LATEST.5Cmake.5Coutput.5Cobjects.5CNvM_Act.
000002d0 00000000*      8448 	.word	___ghs_eofn_NvM_ActNop-_NvM_ActNop..C.3A.5C_ECU2.5CECU_Rivian_A1.5CTarget.5Crepo_projects.5CpRealEcu.5CcL_LATEST.5Cmake.5Coutput.5Cobjects.5CNvM_Act.
000002d4 01             8449 	.byte	1
000002d5 00000000*      8450 	.word	.LDW77
000002d9 00             8451 	.byte	0
000002da 00             8452 	.byte	0
000002db 00             8453 	.byte	0
                        8454 .LDW_unq_2a:
                        8455 	.section	.debug_line
00000c23 000502         8456 	.byte	0,5,2
00000c26 00000000*      8457 	.word	_NvM_ActNop..C.3A.5C_ECU2.5CECU_Rivian_A1.5CTarget.5Crepo_projects.5CpRealEcu.5CcL_LATEST.5Cmake.5Coutput.5Cobjects.5CNvM_Act.
00000c2a 06             8458 	.byte	6
00000c2b 03             8459 	.byte	3
00000c2c a805           8460 	.byte	168,5
00000c2e 02             8461 	.byte	2
00000c2f 00             8462 	.byte	0
00000c30 01             8463 	.byte	1
00000c31 02             8464 	.byte	2
00000c32 02             8465 	.byte	2
00000c33 000101         8466 	.byte	0,1,1
                        8467 	.section	.debug_info
                        8468 .LDW_4d51290:
000025ab 1d             8469 	.byte	29
000025ac 00000000*      8470 	.word	.LDW67
000025b0 00000000*      8471 	.word	.LDW77
                        8472 
000025b4 00             8473 	.byte	0
                        8474 
000025b5 00             8475 	.byte	0
                        8476 
                        8477 .LDW_4d51cc0:
000025b6 13             8478 	.byte	19
000025b7 4e764d5f4163   8479 	.strz	"NvM_ActWriteNvBlock"
000025bd 745772697465 
000025c3 4e76426c6f63 
000025c9 6b00 
000025cb ac05           8480 	.byte	172,5
000025cd 28             8481 	.byte	40
000025ce 01             8482 	.byte	1
000025cf 00000000*      8483 	.word	_NvM_ActWriteNvBlock..C.3A.5C_ECU2.5CECU_Rivian_A1.5CTarget.5Crepo_projects.5CpRealEcu.5CcL_LATEST.5Cmake.5Coutput.5Cobjects.5CNvM_Act.
000025d3 00000000*      8484 	.word	___ghs_eofn_NvM_ActWriteNvBlock
000025d7 0153           8485 	.byte	1,83
000025d9 828080e00b     8486 	.byte	130,128,128,224,11
000025de 14             8487 	.byte	20
000025df 03             8488 	.byte	3
000025e0 14             8489 	.byte	20
000025e1 00             8490 	.byte	0
000025e2 00             8491 	.byte	0
000025e3 00             8492 	.byte	0
000025e4 00             8493 	.byte	0

                                                                      Page 160
                                                              C:\Users\nhuliyap\AppData\Local\Temp\gh_0000d3s1.s
000025e5 01             8494 	.byte	1
000025e6 00             8495 	.byte	0
000025e7 01             8496 	.byte	1
                        8497 
                        8498 	.section	.debug_frame
                        8499 .LDW_4edfc28:
000002dc 00000000*      8500 	.word	.LDW_unq_2c-.LDW_unq_2b
                        8501 .LDW_unq_2b:
000002e0 00000000*      8502 	.word	.LDW_4d14688
000002e4 00000000*      8503 	.word	_NvM_ActWriteNvBlock..C.3A.5C_ECU2.5CECU_Rivian_A1.5CTarget.5Crepo_projects.5CpRealEcu.5CcL_LATEST.5Cmake.5Coutput.5Cobjects.5CNvM_Act.
000002e8 00000000*      8504 	.word	___ghs_eofn_NvM_ActWriteNvBlock-_NvM_ActWriteNvBlock..C.3A.5C_ECU2.5CECU_Rivian_A1.5CTarget.5Crepo_projects.5CpRealEcu.5CcL_LATEST.5Cmake.5Coutput.5Cobjects.5CNvM_Act.
000002ec 44             8505 	.byte	68
000002ed 9f             8506 	.byte	159
000002ee 00             8507 	.byte	0
000002ef 40             8508 	.byte	64
000002f0 9d             8509 	.byte	157
000002f1 04             8510 	.byte	4
000002f2 40             8511 	.byte	64
000002f3 9c             8512 	.byte	156
000002f4 08             8513 	.byte	8
000002f5 40             8514 	.byte	64
000002f6 9b             8515 	.byte	155
000002f7 0c             8516 	.byte	12
000002f8 40             8517 	.byte	64
000002f9 9a             8518 	.byte	154
000002fa 10             8519 	.byte	16
000002fb 01             8520 	.byte	1
000002fc 00000000*      8521 	.word	.LDW97
                        8522 .LDW_unq_2c:
                        8523 	.section	.debug_line
00000c36 000502         8524 	.byte	0,5,2
00000c39 00000000*      8525 	.word	_NvM_ActWriteNvBlock..C.3A.5C_ECU2.5CECU_Rivian_A1.5CTarget.5Crepo_projects.5CpRealEcu.5CcL_LATEST.5Cmake.5Coutput.5Cobjects.5CNvM_Act.
00000c3d 03             8526 	.byte	3
00000c3e ab05           8527 	.byte	171,5
00000c40 02             8528 	.byte	2
00000c41 00             8529 	.byte	0
00000c42 01             8530 	.byte	1
00000c43 06             8531 	.byte	6
00000c44 1b             8532 	.byte	27
00000c45 000502         8533 	.byte	0,5,2
00000c48 00000000*      8534 	.word	.LDWlin124
00000c4c 0d             8535 	.byte	13
00000c4d 2c             8536 	.byte	44
00000c4e 000502         8537 	.byte	0,5,2
00000c51 00000000*      8538 	.word	.LDWlin125
00000c55 0c             8539 	.byte	12
00000c56 000502         8540 	.byte	0,5,2
00000c59 00000000*      8541 	.word	.LDWlin126
00000c5d 03             8542 	.byte	3
00000c5e 04             8543 	.byte	4
00000c5f 02             8544 	.byte	2
00000c60 00             8545 	.byte	0
00000c61 01             8546 	.byte	1
00000c62 000502         8547 	.byte	0,5,2
00000c65 00000000*      8548 	.word	.LDWlin127
00000c69 0b             8549 	.byte	11
00000c6a 0b             8550 	.byte	11
00000c6b 000502         8551 	.byte	0,5,2
00000c6e 00000000*      8552 	.word	.LDWlin128
00000c72 0c             8553 	.byte	12
00000c73 02             8554 	.byte	2

                                                                      Page 161
                                                              C:\Users\nhuliyap\AppData\Local\Temp\gh_0000d3s1.s
00000c74 00             8555 	.byte	0
00000c75 03             8556 	.byte	3
00000c76 05             8557 	.byte	5
00000c77 02             8558 	.byte	2
00000c78 00             8559 	.byte	0
00000c79 01             8560 	.byte	1
00000c7a 000502         8561 	.byte	0,5,2
00000c7d 00000000*      8562 	.word	.LDWlin129
00000c81 0c             8563 	.byte	12
00000c82 000502         8564 	.byte	0,5,2
00000c85 00000000*      8565 	.word	.LDWlin130
00000c89 03             8566 	.byte	3
00000c8a 04             8567 	.byte	4
00000c8b 02             8568 	.byte	2
00000c8c 00             8569 	.byte	0
00000c8d 01             8570 	.byte	1
00000c8e 0d             8571 	.byte	13
00000c8f 0b             8572 	.byte	11
00000c90 000502         8573 	.byte	0,5,2
00000c93 00000000*      8574 	.word	.LDWlin131
00000c97 0c             8575 	.byte	12
00000c98 000502         8576 	.byte	0,5,2
00000c9b 00000000*      8577 	.word	.LDWlin132
00000c9f 03             8578 	.byte	3
00000ca0 06             8579 	.byte	6
00000ca1 02             8580 	.byte	2
00000ca2 00             8581 	.byte	0
00000ca3 01             8582 	.byte	1
00000ca4 02             8583 	.byte	2
00000ca5 00             8584 	.byte	0
00000ca6 0b             8585 	.byte	11
00000ca7 02             8586 	.byte	2
00000ca8 00             8587 	.byte	0
00000ca9 0d             8588 	.byte	13
00000caa 000502         8589 	.byte	0,5,2
00000cad 00000000*      8590 	.word	.LDWlin133
00000cb1 0c             8591 	.byte	12
00000cb2 06             8592 	.byte	6
00000cb3 000502         8593 	.byte	0,5,2
00000cb6 00000000*      8594 	.word	.LDWlin134
00000cba 03             8595 	.byte	3
00000cbb 6d             8596 	.byte	109
00000cbc 02             8597 	.byte	2
00000cbd 00             8598 	.byte	0
00000cbe 01             8599 	.byte	1
00000cbf 06             8600 	.byte	6
00000cc0 03             8601 	.byte	3
00000cc1 08             8602 	.byte	8
00000cc2 02             8603 	.byte	2
00000cc3 00             8604 	.byte	0
00000cc4 01             8605 	.byte	1
00000cc5 0b             8606 	.byte	11
00000cc6 000502         8607 	.byte	0,5,2
00000cc9 00000000*      8608 	.word	.LDWlin135
00000ccd 0b             8609 	.byte	11
00000cce 0b             8610 	.byte	11
00000ccf 0b             8611 	.byte	11
00000cd0 02             8612 	.byte	2
00000cd1 04             8613 	.byte	4
00000cd2 000101         8614 	.byte	0,1,1
                        8615 	.section	.debug_info

                                                                      Page 162
                                                              C:\Users\nhuliyap\AppData\Local\Temp\gh_0000d3s1.s
                        8616 .LDW_4d51500:
000025e8 1d             8617 	.byte	29
000025e9 00000000*      8618 	.word	.LDW87
000025ed 00000000*      8619 	.word	.LDW97
                        8620 
                        8621 .LDW_4869528:
000025f1 04             8622 	.byte	4
000025f2 7372635f7074   8623 	.strz	"src_pt"
000025f8 00 
000025f9 ad05           8624 	.byte	173,5
000025fb 1d             8625 	.byte	29
000025fc 01             8626 	.byte	1
000025fd 00000000*      8627 	.word	.LDW_48694d0
00002601 00             8628 	.byte	0
00002602 00             8629 	.byte	0
00002603 016a           8630 	.byte	1,106
                        8631 
                        8632 .LDW_4d52c90:
00002605 05             8633 	.byte	5
00002606 72657456616c   8634 	.strz	"retValMemIf"
0000260c 4d656d496600 
00002612 ae05           8635 	.byte	174,5
00002614 14             8636 	.byte	20
00002615 01             8637 	.byte	1
00002616 00000000*      8638 	.word	.LDW_4869630
0000261a 00             8639 	.byte	0
0000261b 00             8640 	.byte	0
                        8641 
0000261c 00             8642 	.byte	0
                        8643 
0000261d 00             8644 	.byte	0
                        8645 
                        8646 .LDW_4d51af8:
0000261e 13             8647 	.byte	19
0000261f 4e764d5f4163   8648 	.strz	"NvM_ActReadNvBlock"
00002625 74526561644e 
0000262b 76426c6f636b 
00002631 00 
00002632 db05           8649 	.byte	219,5
00002634 28             8650 	.byte	40
00002635 01             8651 	.byte	1
00002636 00000000*      8652 	.word	_NvM_ActReadNvBlock..C.3A.5C_ECU2.5CECU_Rivian_A1.5CTarget.5Crepo_projects.5CpRealEcu.5CcL_LATEST.5Cmake.5Coutput.5Cobjects.5CNvM_Act.
0000263a 00000000*      8653 	.word	___ghs_eofn_NvM_ActReadNvBlock
0000263e 0153           8654 	.byte	1,83
00002640 828080f00b     8655 	.byte	130,128,128,240,11
00002645 18             8656 	.byte	24
00002646 03             8657 	.byte	3
00002647 1c             8658 	.byte	28
00002648 00             8659 	.byte	0
00002649 00             8660 	.byte	0
0000264a 00             8661 	.byte	0
0000264b 00             8662 	.byte	0
0000264c 01             8663 	.byte	1
0000264d 00             8664 	.byte	0
0000264e 01             8665 	.byte	1
                        8666 
                        8667 	.section	.debug_frame
                        8668 .LDW_4edfee8:
00000300 00000000*      8669 	.word	.LDW_unq_2e-.LDW_unq_2d
                        8670 .LDW_unq_2d:
00000304 00000000*      8671 	.word	.LDW_4d14688

                                                                      Page 163
                                                              C:\Users\nhuliyap\AppData\Local\Temp\gh_0000d3s1.s
00000308 00000000*      8672 	.word	_NvM_ActReadNvBlock..C.3A.5C_ECU2.5CECU_Rivian_A1.5CTarget.5Crepo_projects.5CpRealEcu.5CcL_LATEST.5Cmake.5Coutput.5Cobjects.5CNvM_Act.
0000030c 00000000*      8673 	.word	___ghs_eofn_NvM_ActReadNvBlock-_NvM_ActReadNvBlock..C.3A.5C_ECU2.5CECU_Rivian_A1.5CTarget.5Crepo_projects.5CpRealEcu.5CcL_LATEST.5Cmake.5Coutput.5Cobjects.5CNvM_Act.
00000310 44             8674 	.byte	68
00000311 9f             8675 	.byte	159
00000312 03             8676 	.byte	3
00000313 40             8677 	.byte	64
00000314 9d             8678 	.byte	157
00000315 07             8679 	.byte	7
00000316 40             8680 	.byte	64
00000317 9c             8681 	.byte	156
00000318 0b             8682 	.byte	11
00000319 40             8683 	.byte	64
0000031a 9b             8684 	.byte	155
0000031b 0f             8685 	.byte	15
0000031c 40             8686 	.byte	64
0000031d 9a             8687 	.byte	154
0000031e 13             8688 	.byte	19
0000031f 40             8689 	.byte	64
00000320 99             8690 	.byte	153
00000321 17             8691 	.byte	23
00000322 01             8692 	.byte	1
00000323 00000000*      8693 	.word	.LDW18
00000327 44             8694 	.byte	68
00000328 df             8695 	.byte	223
00000329 40             8696 	.byte	64
0000032a dd             8697 	.byte	221
0000032b 40             8698 	.byte	64
0000032c dc             8699 	.byte	220
0000032d 40             8700 	.byte	64
0000032e db             8701 	.byte	219
0000032f 40             8702 	.byte	64
00000330 da             8703 	.byte	218
00000331 40             8704 	.byte	64
00000332 d9             8705 	.byte	217
00000333 00             8706 	.byte	0
                        8707 .LDW_unq_2e:
                        8708 	.section	.debug_line
00000cd5 000502         8709 	.byte	0,5,2
00000cd8 00000000*      8710 	.word	_NvM_ActReadNvBlock..C.3A.5C_ECU2.5CECU_Rivian_A1.5CTarget.5Crepo_projects.5CpRealEcu.5CcL_LATEST.5Cmake.5Coutput.5Cobjects.5CNvM_Act.
00000cdc 03             8711 	.byte	3
00000cdd da05           8712 	.byte	218,5
00000cdf 02             8713 	.byte	2
00000ce0 00             8714 	.byte	0
00000ce1 01             8715 	.byte	1
00000ce2 06             8716 	.byte	6
00000ce3 1b             8717 	.byte	27
00000ce4 000502         8718 	.byte	0,5,2
00000ce7 00000000*      8719 	.word	.LDWlin136
00000ceb 0c             8720 	.byte	12
00000cec 15             8721 	.byte	21
00000ced 000502         8722 	.byte	0,5,2
00000cf0 00000000*      8723 	.word	.LDWlin137
00000cf4 03             8724 	.byte	3
00000cf5 7c             8725 	.byte	124
00000cf6 02             8726 	.byte	2
00000cf7 00             8727 	.byte	0
00000cf8 01             8728 	.byte	1
00000cf9 000502         8729 	.byte	0,5,2
00000cfc 00000000*      8730 	.word	.LDWlin138
00000d00 03             8731 	.byte	3
00000d01 06             8732 	.byte	6

                                                                      Page 164
                                                              C:\Users\nhuliyap\AppData\Local\Temp\gh_0000d3s1.s
00000d02 02             8733 	.byte	2
00000d03 00             8734 	.byte	0
00000d04 01             8735 	.byte	1
00000d05 1c             8736 	.byte	28
00000d06 14             8737 	.byte	20
00000d07 000502         8738 	.byte	0,5,2
00000d0a 00000000*      8739 	.word	.LDWlin139
00000d0e 03             8740 	.byte	3
00000d0f 05             8741 	.byte	5
00000d10 02             8742 	.byte	2
00000d11 00             8743 	.byte	0
00000d12 01             8744 	.byte	1
00000d13 0b             8745 	.byte	11
00000d14 03             8746 	.byte	3
00000d15 04             8747 	.byte	4
00000d16 02             8748 	.byte	2
00000d17 08             8749 	.byte	8
00000d18 01             8750 	.byte	1
00000d19 02             8751 	.byte	2
00000d1a 00             8752 	.byte	0
00000d1b 0b             8753 	.byte	11
00000d1c 02             8754 	.byte	2
00000d1d 04             8755 	.byte	4
00000d1e 000101         8756 	.byte	0,1,1
                        8757 	.section	.debug_info
                        8758 .LDW_4d51320:
0000264f 1d             8759 	.byte	29
00002650 00000000*      8760 	.word	.LDW08
00002654 00000000*      8761 	.word	.LDW18
                        8762 
                        8763 .LDW_4d52608:
00002658 04             8764 	.byte	4
00002659 64657363725f   8765 	.strz	"descr_pt"
0000265f 707400 
00002662 dc05           8766 	.byte	220,5
00002664 20             8767 	.byte	32
00002665 01             8768 	.byte	1
00002666 00000000*      8769 	.word	.LDW_4bdefb8
0000266a 00             8770 	.byte	0
0000266b 00             8771 	.byte	0
0000266c 016c           8772 	.byte	1,108
                        8773 
                        8774 .LDW_4d52d98:
0000266e 04             8775 	.byte	4
0000266f 426c6f636b4c   8776 	.strz	"BlockLength"
00002675 656e67746800 
0000267b dd05           8777 	.byte	221,5
0000267d 11             8778 	.byte	17
0000267e 01             8779 	.byte	1
0000267f 00000000*      8780 	.word	.LDW_4d52a80
00002683 00             8781 	.byte	0
00002684 00             8782 	.byte	0
00002685 016b           8783 	.byte	1,107
                        8784 
                        8785 .LDW_4d52b30:
00002687 04             8786 	.byte	4
00002688 726561644465   8787 	.strz	"readDest_pt"
0000268e 73745f707400 
00002694 de05           8788 	.byte	222,5
00002696 1d             8789 	.byte	29
00002697 01             8790 	.byte	1

                                                                      Page 165
                                                              C:\Users\nhuliyap\AppData\Local\Temp\gh_0000d3s1.s
00002698 00000000*      8791 	.word	.LDW_48694d0
0000269c 00             8792 	.byte	0
0000269d 00             8793 	.byte	0
0000269e 016a           8794 	.byte	1,106
                        8795 
                        8796 .LDW_4d52b88:
000026a0 04             8797 	.byte	4
000026a1 6372634c656e   8798 	.strz	"crcLen"
000026a7 00 
000026a8 df05           8799 	.byte	223,5
000026aa 0a             8800 	.byte	10
000026ab 01             8801 	.byte	1
000026ac 00000000*      8802 	.word	.LDW_483c010
000026b0 00             8803 	.byte	0
000026b1 00             8804 	.byte	0
000026b2 0163           8805 	.byte	1,99
                        8806 
000026b4 00             8807 	.byte	0
                        8808 
000026b5 00             8809 	.byte	0
                        8810 
                        8811 .LDW_4d52050:
000026b6 13             8812 	.byte	19
000026b7 4e764d5f4163   8813 	.strz	"NvM_ActProcessCrcRead"
000026bd 7450726f6365 
000026c3 737343726352 
000026c9 65616400 
000026cd f405           8814 	.byte	244,5
000026cf 28             8815 	.byte	40
000026d0 01             8816 	.byte	1
000026d1 00000000*      8817 	.word	_NvM_ActProcessCrcRead..C.3A.5C_ECU2.5CECU_Rivian_A1.5CTarget.5Crepo_projects.5CpRealEcu.5CcL_LATEST.5Cmake.5Coutput.5Cobjects.5CNvM_Act.
000026d5 00000000*      8818 	.word	___ghs_eofn_NvM_ActProcessCrcRead
000026d9 0153           8819 	.byte	1,83
000026db 828080800a     8820 	.byte	130,128,128,128,10
000026e0 08             8821 	.byte	8
000026e1 03             8822 	.byte	3
000026e2 08             8823 	.byte	8
000026e3 00             8824 	.byte	0
000026e4 00             8825 	.byte	0
000026e5 00             8826 	.byte	0
000026e6 00             8827 	.byte	0
000026e7 01             8828 	.byte	1
000026e8 00             8829 	.byte	0
000026e9 01             8830 	.byte	1
                        8831 
                        8832 	.section	.debug_frame
                        8833 .LDW_4edfa68:
00000334 00000000*      8834 	.word	.LDW_unq_30-.LDW_unq_2f
                        8835 .LDW_unq_2f:
00000338 00000000*      8836 	.word	.LDW_4d14688
0000033c 00000000*      8837 	.word	_NvM_ActProcessCrcRead..C.3A.5C_ECU2.5CECU_Rivian_A1.5CTarget.5Crepo_projects.5CpRealEcu.5CcL_LATEST.5Cmake.5Coutput.5Cobjects.5CNvM_Act.
00000340 00000000*      8838 	.word	___ghs_eofn_NvM_ActProcessCrcRead-_NvM_ActProcessCrcRead..C.3A.5C_ECU2.5CECU_Rivian_A1.5CTarget.5Crepo_projects.5CpRealEcu.5CcL_LATEST.5Cmake.5Coutput.5Cobjects.5CNvM_Act.
00000344 44             8839 	.byte	68
00000345 9f             8840 	.byte	159
00000346 00             8841 	.byte	0
00000347 40             8842 	.byte	64
00000348 9d             8843 	.byte	157
00000349 04             8844 	.byte	4
0000034a 01             8845 	.byte	1
0000034b 00000000*      8846 	.word	.LDW38
0000034f 00             8847 	.byte	0

                                                                      Page 166
                                                              C:\Users\nhuliyap\AppData\Local\Temp\gh_0000d3s1.s
                        8848 .LDW_unq_30:
                        8849 	.section	.debug_line
00000d21 000502         8850 	.byte	0,5,2
00000d24 00000000*      8851 	.word	_NvM_ActProcessCrcRead..C.3A.5C_ECU2.5CECU_Rivian_A1.5CTarget.5Crepo_projects.5CpRealEcu.5CcL_LATEST.5Cmake.5Coutput.5Cobjects.5CNvM_Act.
00000d28 03             8852 	.byte	3
00000d29 f305           8853 	.byte	243,5
00000d2b 02             8854 	.byte	2
00000d2c 00             8855 	.byte	0
00000d2d 01             8856 	.byte	1
00000d2e 06             8857 	.byte	6
00000d2f 1b             8858 	.byte	27
00000d30 000502         8859 	.byte	0,5,2
00000d33 00000000*      8860 	.word	.LDWlin140
00000d37 0b             8861 	.byte	11
00000d38 0b             8862 	.byte	11
00000d39 000502         8863 	.byte	0,5,2
00000d3c 00000000*      8864 	.word	.LDWlin141
00000d40 0b             8865 	.byte	11
00000d41 0b             8866 	.byte	11
00000d42 0d             8867 	.byte	13
00000d43 000502         8868 	.byte	0,5,2
00000d46 00000000*      8869 	.word	.LDWlin142
00000d4a 0b             8870 	.byte	11
00000d4b 0c             8871 	.byte	12
00000d4c 000502         8872 	.byte	0,5,2
00000d4f 00000000*      8873 	.word	.LDWlin143
00000d53 0b             8874 	.byte	11
00000d54 0b             8875 	.byte	11
00000d55 0b             8876 	.byte	11
00000d56 1b             8877 	.byte	27
00000d57 02             8878 	.byte	2
00000d58 00             8879 	.byte	0
00000d59 03             8880 	.byte	3
00000d5a 05             8881 	.byte	5
00000d5b 02             8882 	.byte	2
00000d5c 00             8883 	.byte	0
00000d5d 01             8884 	.byte	1
00000d5e 02             8885 	.byte	2
00000d5f 00             8886 	.byte	0
00000d60 0b             8887 	.byte	11
00000d61 02             8888 	.byte	2
00000d62 04             8889 	.byte	4
00000d63 000101         8890 	.byte	0,1,1
                        8891 	.section	.debug_info
                        8892 .LDW_4d51350:
000026ea 1d             8893 	.byte	29
000026eb 00000000*      8894 	.word	.LDW28
000026ef 00000000*      8895 	.word	.LDW38
                        8896 
000026f3 00             8897 	.byte	0
                        8898 
000026f4 00             8899 	.byte	0
                        8900 
                        8901 .LDW_4d52348:
000026f5 13             8902 	.byte	19
000026f6 4e764d5f496e   8903 	.strz	"NvM_InternalCopyBufferedData"
000026fc 7465726e616c 
00002702 436f70794275 
00002708 666665726564 
0000270e 4461746100 
00002713 8b06           8904 	.byte	139,6

                                                                      Page 167
                                                              C:\Users\nhuliyap\AppData\Local\Temp\gh_0000d3s1.s
00002715 28             8905 	.byte	40
00002716 01             8906 	.byte	1
00002717 00000000*      8907 	.word	_NvM_InternalCopyBufferedData..C.3A.5C_ECU2.5CECU_Rivian_A1.5CTarget.5Crepo_projects.5CpRealEcu.5CcL_LATEST.5Cmake.5Coutput.5Cobjects.5CNvM_Act.
0000271b 00000000*      8908 	.word	___ghs_eofn_NvM_InternalCopyBufferedData
0000271f 0153           8909 	.byte	1,83
00002721 828080800b     8910 	.byte	130,128,128,128,11
00002726 0c             8911 	.byte	12
00002727 03             8912 	.byte	3
00002728 0c             8913 	.byte	12
00002729 00             8914 	.byte	0
0000272a 00             8915 	.byte	0
0000272b 00             8916 	.byte	0
0000272c 00             8917 	.byte	0
0000272d 01             8918 	.byte	1
0000272e 00             8919 	.byte	0
0000272f 01             8920 	.byte	1
                        8921 
                        8922 	.section	.debug_frame
                        8923 .LDW_4e8ff28:
00000350 00000000*      8924 	.word	.LDW_unq_32-.LDW_unq_31
                        8925 .LDW_unq_31:
00000354 00000000*      8926 	.word	.LDW_4d14688
00000358 00000000*      8927 	.word	_NvM_InternalCopyBufferedData..C.3A.5C_ECU2.5CECU_Rivian_A1.5CTarget.5Crepo_projects.5CpRealEcu.5CcL_LATEST.5Cmake.5Coutput.5Cobjects.5CNvM_Act.
0000035c 00000000*      8928 	.word	___ghs_eofn_NvM_InternalCopyBufferedData-_NvM_InternalCopyBufferedData..C.3A.5C_ECU2.5CECU_Rivian_A1.5CTarget.5Crepo_projects.5CpRealEcu.5CcL_LATEST.5Cmake.5Coutput.5Cobjects.5CNvM_Act.
00000360 48             8929 	.byte	72
00000361 9f             8930 	.byte	159
00000362 00             8931 	.byte	0
00000363 40             8932 	.byte	64
00000364 9d             8933 	.byte	157
00000365 04             8934 	.byte	4
00000366 40             8935 	.byte	64
00000367 9c             8936 	.byte	156
00000368 08             8937 	.byte	8
00000369 01             8938 	.byte	1
0000036a 00000000*      8939 	.word	.LDW25
0000036e 00             8940 	.byte	0
0000036f 00             8941 	.byte	0
                        8942 .LDW_unq_32:
                        8943 	.section	.debug_line
00000d66 000502         8944 	.byte	0,5,2
00000d69 00000000*      8945 	.word	_NvM_InternalCopyBufferedData..C.3A.5C_ECU2.5CECU_Rivian_A1.5CTarget.5Crepo_projects.5CpRealEcu.5CcL_LATEST.5Cmake.5Coutput.5Cobjects.5CNvM_Act.
00000d6d 03             8946 	.byte	3
00000d6e 8b06           8947 	.byte	139,6
00000d70 02             8948 	.byte	2
00000d71 00             8949 	.byte	0
00000d72 01             8950 	.byte	1
00000d73 06             8951 	.byte	6
00000d74 3c             8952 	.byte	60
00000d75 14             8953 	.byte	20
00000d76 000502         8954 	.byte	0,5,2
00000d79 00000000*      8955 	.word	.LDWlin88
00000d7d 0b             8956 	.byte	11
00000d7e 0b             8957 	.byte	11
00000d7f 000502         8958 	.byte	0,5,2
00000d82 00000000*      8959 	.word	.LDWlin89
00000d86 03             8960 	.byte	3
00000d87 0e             8961 	.byte	14
00000d88 02             8962 	.byte	2
00000d89 00             8963 	.byte	0
00000d8a 01             8964 	.byte	1
00000d8b 02             8965 	.byte	2

                                                                      Page 168
                                                              C:\Users\nhuliyap\AppData\Local\Temp\gh_0000d3s1.s
00000d8c 00             8966 	.byte	0
00000d8d 0b             8967 	.byte	11
00000d8e 02             8968 	.byte	2
00000d8f 00             8969 	.byte	0
00000d90 03             8970 	.byte	3
00000d91 04             8971 	.byte	4
00000d92 02             8972 	.byte	2
00000d93 00             8973 	.byte	0
00000d94 01             8974 	.byte	1
00000d95 000502         8975 	.byte	0,5,2
00000d98 00000000*      8976 	.word	.LDWlin90
00000d9c 03             8977 	.byte	3
00000d9d 70             8978 	.byte	112
00000d9e 02             8979 	.byte	2
00000d9f 00             8980 	.byte	0
00000da0 01             8981 	.byte	1
00000da1 02             8982 	.byte	2
00000da2 00             8983 	.byte	0
00000da3 0b             8984 	.byte	11
00000da4 0b             8985 	.byte	11
00000da5 0b             8986 	.byte	11
00000da6 000502         8987 	.byte	0,5,2
00000da9 00000000*      8988 	.word	.LDWlin91
00000dad 0c             8989 	.byte	12
00000dae 000502         8990 	.byte	0,5,2
00000db1 00000000*      8991 	.word	.LDWlin92
00000db5 0b             8992 	.byte	11
00000db6 0b             8993 	.byte	11
00000db7 06             8994 	.byte	6
00000db8 000502         8995 	.byte	0,5,2
00000dbb 00000000*      8996 	.word	.LDWlin93
00000dbf 03             8997 	.byte	3
00000dc0 78             8998 	.byte	120
00000dc1 02             8999 	.byte	2
00000dc2 00             9000 	.byte	0
00000dc3 01             9001 	.byte	1
00000dc4 06             9002 	.byte	6
00000dc5 03             9003 	.byte	3
00000dc6 09             9004 	.byte	9
00000dc7 02             9005 	.byte	2
00000dc8 00             9006 	.byte	0
00000dc9 01             9007 	.byte	1
00000dca 0b             9008 	.byte	11
00000dcb 0b             9009 	.byte	11
00000dcc 02             9010 	.byte	2
00000dcd 08             9011 	.byte	8
00000dce 000101         9012 	.byte	0,1,1
                        9013 	.section	.debug_info
                        9014 .LDW_4d52f50:
00002730 0f             9015 	.byte	15
00002731 696e666f5f70   9016 	.strz	"info_pt"
00002737 7400 
00002739 8b06           9017 	.byte	139,6
0000273b 5a             9018 	.byte	90
0000273c 01             9019 	.byte	1
0000273d 00000000*      9020 	.word	.LDW_4d52be0
00002741 00             9021 	.byte	0
00002742 016c           9022 	.byte	1,108
                        9023 
                        9024 	.section	.debug_abbrev
0000018c 0f             9025 	.byte	15

                                                                      Page 169
                                                              C:\Users\nhuliyap\AppData\Local\Temp\gh_0000d3s1.s
0000018d 05             9026 	.byte	5
0000018e 00             9027 	.byte	0
0000018f 0308           9028 	.byte	3,8
00000191 3b0f           9029 	.byte	59,15
00000193 390f           9030 	.byte	57,15
00000195 3a0f           9031 	.byte	58,15
00000197 4910           9032 	.byte	73,16
00000199 4b0c           9033 	.byte	75,12
0000019b 020a           9034 	.byte	2,10
0000019d 0000           9035 	.byte	0,0
                        9036 
                        9037 	.section	.debug_info
                        9038 .LDW_4d52df0:
00002744 0f             9039 	.byte	15
00002745 737263507472   9040 	.strz	"srcPtr"
0000274b 00 
0000274c 8b06           9041 	.byte	139,6
0000274e 7b             9042 	.byte	123
0000274f 01             9043 	.byte	1
00002750 00000000*      9044 	.word	.LDW_4d52978
00002754 00             9045 	.byte	0
00002755 0158           9046 	.byte	1,88
                        9047 
                        9048 .LDW_4d51380:
00002757 1d             9049 	.byte	29
00002758 00000000*      9050 	.word	.LDW05
0000275c 00000000*      9051 	.word	.LDW25
                        9052 
                        9053 .LDW_4d52ce8:
00002760 04             9054 	.byte	4
00002761 64657363725f   9055 	.strz	"descr_pt"
00002767 707400 
0000276a 8e06           9056 	.byte	142,6
0000276c 20             9057 	.byte	32
0000276d 01             9058 	.byte	1
0000276e 00000000*      9059 	.word	.LDW_4bdefb8
00002772 00             9060 	.byte	0
00002773 00             9061 	.byte	0
00002774 016e           9062 	.byte	1,110
                        9063 
                        9064 .LDW_4d513e0:
00002776 1d             9065 	.byte	29
00002777 00000000*      9066 	.word	.LDW35
0000277b 00000000*      9067 	.word	.LDW15
                        9068 
                        9069 .LDW_4d529d0:
0000277f 04             9070 	.byte	4
00002780 646573745074   9071 	.strz	"destPtr"
00002786 7200 
00002788 9806           9072 	.byte	152,6
0000278a 22             9073 	.byte	34
0000278b 01             9074 	.byte	1
0000278c 00000000*      9075 	.word	.LDW_48694d0
00002790 00             9076 	.byte	0
00002791 00             9077 	.byte	0
00002792 0157           9078 	.byte	1,87
                        9079 
00002794 00             9080 	.byte	0
                        9081 
00002795 00             9082 	.byte	0
                        9083 

                                                                      Page 170
                                                              C:\Users\nhuliyap\AppData\Local\Temp\gh_0000d3s1.s
00002796 00             9084 	.byte	0
                        9085 
                        9086 .LDW_4d515a0:
00002797 13             9087 	.byte	19
00002798 4e764d5f4163   9088 	.strz	"NvM_ActRestoreRomDefaults"
0000279e 74526573746f 
000027a4 7265526f6d44 
000027aa 656661756c74 
000027b0 7300 
000027b2 a706           9089 	.byte	167,6
000027b4 28             9090 	.byte	40
000027b5 01             9091 	.byte	1
000027b6 00000000*      9092 	.word	_NvM_ActRestoreRomDefaults..C.3A.5C_ECU2.5CECU_Rivian_A1.5CTarget.5Crepo_projects.5CpRealEcu.5CcL_LATEST.5Cmake.5Coutput.5Cobjects.5CNvM_Act.
000027ba 00000000*      9093 	.word	___ghs_eofn_NvM_ActRestoreRomDefaults
000027be 0153           9094 	.byte	1,83
000027c0 828080c00b     9095 	.byte	130,128,128,192,11
000027c5 10             9096 	.byte	16
000027c6 03             9097 	.byte	3
000027c7 10             9098 	.byte	16
000027c8 00             9099 	.byte	0
000027c9 00             9100 	.byte	0
000027ca 00             9101 	.byte	0
000027cb 00             9102 	.byte	0
000027cc 01             9103 	.byte	1
000027cd 00             9104 	.byte	0
000027ce 01             9105 	.byte	1
                        9106 
                        9107 	.section	.debug_frame
                        9108 .LDW_4edf868:
00000370 00000000*      9109 	.word	.LDW_unq_34-.LDW_unq_33
                        9110 .LDW_unq_33:
00000374 00000000*      9111 	.word	.LDW_4d14688
00000378 00000000*      9112 	.word	_NvM_ActRestoreRomDefaults..C.3A.5C_ECU2.5CECU_Rivian_A1.5CTarget.5Crepo_projects.5CpRealEcu.5CcL_LATEST.5Cmake.5Coutput.5Cobjects.5CNvM_Act.
0000037c 00000000*      9113 	.word	___ghs_eofn_NvM_ActRestoreRomDefaults-_NvM_ActRestoreRomDefaults..C.3A.5C_ECU2.5CECU_Rivian_A1.5CTarget.5Crepo_projects.5CpRealEcu.5CcL_LATEST.5Cmake.5Coutput.5Cobjects.5CNvM_Act.
00000380 44             9114 	.byte	68
00000381 9f             9115 	.byte	159
00000382 00             9116 	.byte	0
00000383 40             9117 	.byte	64
00000384 9d             9118 	.byte	157
00000385 04             9119 	.byte	4
00000386 40             9120 	.byte	64
00000387 9c             9121 	.byte	156
00000388 08             9122 	.byte	8
00000389 40             9123 	.byte	64
0000038a 9b             9124 	.byte	155
0000038b 0c             9125 	.byte	12
0000038c 01             9126 	.byte	1
0000038d 00000000*      9127 	.word	.LDW78
00000391 00             9128 	.byte	0
00000392 00             9129 	.byte	0
00000393 00             9130 	.byte	0
                        9131 .LDW_unq_34:
                        9132 	.section	.debug_line
00000dd1 000502         9133 	.byte	0,5,2
00000dd4 00000000*      9134 	.word	_NvM_ActRestoreRomDefaults..C.3A.5C_ECU2.5CECU_Rivian_A1.5CTarget.5Crepo_projects.5CpRealEcu.5CcL_LATEST.5Cmake.5Coutput.5Cobjects.5CNvM_Act.
00000dd8 03             9135 	.byte	3
00000dd9 a606           9136 	.byte	166,6
00000ddb 02             9137 	.byte	2
00000ddc 00             9138 	.byte	0
00000ddd 01             9139 	.byte	1
00000dde 06             9140 	.byte	6

                                                                      Page 171
                                                              C:\Users\nhuliyap\AppData\Local\Temp\gh_0000d3s1.s
00000ddf 1c             9141 	.byte	28
00000de0 000502         9142 	.byte	0,5,2
00000de3 00000000*      9143 	.word	.LDWlin145
00000de7 0c             9144 	.byte	12
00000de8 000502         9145 	.byte	0,5,2
00000deb 00000000*      9146 	.word	.LDWlin146
00000def 0b             9147 	.byte	11
00000df0 0b             9148 	.byte	11
00000df1 000502         9149 	.byte	0,5,2
00000df4 00000000*      9150 	.word	.LDWlin147
00000df8 0c             9151 	.byte	12
00000df9 0b             9152 	.byte	11
00000dfa 0c             9153 	.byte	12
00000dfb 000502         9154 	.byte	0,5,2
00000dfe 00000000*      9155 	.word	.LDWlin148
00000e02 0b             9156 	.byte	11
00000e03 0c             9157 	.byte	12
00000e04 000502         9158 	.byte	0,5,2
00000e07 00000000*      9159 	.word	.LDWlin149
00000e0b 0c             9160 	.byte	12
00000e0c 0b             9161 	.byte	11
00000e0d 000502         9162 	.byte	0,5,2
00000e10 00000000*      9163 	.word	.LDWlin150
00000e14 0b             9164 	.byte	11
00000e15 02             9165 	.byte	2
00000e16 00             9166 	.byte	0
00000e17 0b             9167 	.byte	11
00000e18 02             9168 	.byte	2
00000e19 00             9169 	.byte	0
00000e1a 0c             9170 	.byte	12
00000e1b 1b             9171 	.byte	27
00000e1c 02             9172 	.byte	2
00000e1d 00             9173 	.byte	0
00000e1e 0c             9174 	.byte	12
00000e1f 000502         9175 	.byte	0,5,2
00000e22 00000000*      9176 	.word	.LDWlin151
00000e26 0b             9177 	.byte	11
00000e27 02             9178 	.byte	2
00000e28 04             9179 	.byte	4
00000e29 000101         9180 	.byte	0,1,1
                        9181 	.section	.debug_info
                        9182 .LDW_4d51230:
000027cf 1d             9183 	.byte	29
000027d0 00000000*      9184 	.word	.LDW68
000027d4 00000000*      9185 	.word	.LDW78
                        9186 
000027d8 00             9187 	.byte	0
                        9188 
000027d9 00             9189 	.byte	0
                        9190 
                        9191 .LDW_4d52218:
000027da 13             9192 	.byte	19
000027db 4e764d5f4163   9193 	.strz	"NvM_ActFinishRestoreRomDefaults"
000027e1 7446696e6973 
000027e7 68526573746f 
000027ed 7265526f6d44 
000027f3 656661756c74 
000027f9 7300 
000027fb c206           9194 	.byte	194,6
000027fd 28             9195 	.byte	40
000027fe 01             9196 	.byte	1

                                                                      Page 172
                                                              C:\Users\nhuliyap\AppData\Local\Temp\gh_0000d3s1.s
000027ff 00000000*      9197 	.word	_NvM_ActFinishRestoreRomDefaults..C.3A.5C_ECU2.5CECU_Rivian_A1.5CTarget.5Crepo_projects.5CpRealEcu.5CcL_LATEST.5Cmake.5Coutput.5Cobjects.5CNvM_Act.
00002803 00000000*      9198 	.word	___ghs_eofn_NvM_ActFinishRestoreRomDefaults
00002807 0153           9199 	.byte	1,83
00002809 02             9200 	.byte	2
0000280a 00             9201 	.byte	0
0000280b 02             9202 	.byte	2
0000280c 00             9203 	.byte	0
0000280d 00             9204 	.byte	0
0000280e 00             9205 	.byte	0
0000280f 00             9206 	.byte	0
00002810 00             9207 	.byte	0
00002811 01             9208 	.byte	1
00002812 00             9209 	.byte	0
00002813 01             9210 	.byte	1
                        9211 
                        9212 	.section	.debug_frame
                        9213 .LDW_4edf8e8:
00000394 00000000*      9214 	.word	.LDW_unq_36-.LDW_unq_35
                        9215 .LDW_unq_35:
00000398 00000000*      9216 	.word	.LDW_4d14688
0000039c 00000000*      9217 	.word	_NvM_ActFinishRestoreRomDefaults..C.3A.5C_ECU2.5CECU_Rivian_A1.5CTarget.5Crepo_projects.5CpRealEcu.5CcL_LATEST.5Cmake.5Coutput.5Cobjects.5CNvM_Act.
000003a0 00000000*      9218 	.word	___ghs_eofn_NvM_ActFinishRestoreRomDefaults-_NvM_ActFinishRestoreRomDefaults..C.3A.5C_ECU2.5CECU_Rivian_A1.5CTarget.5Crepo_projects.5CpRealEcu.5CcL_LATEST.5Cmake.5Coutput.5Cobjects.5CNvM_Act.
000003a4 01             9219 	.byte	1
000003a5 00000000*      9220 	.word	.LDW98
000003a9 00             9221 	.byte	0
000003aa 00             9222 	.byte	0
000003ab 00             9223 	.byte	0
                        9224 .LDW_unq_36:
                        9225 	.section	.debug_line
00000e2c 000502         9226 	.byte	0,5,2
00000e2f 00000000*      9227 	.word	_NvM_ActFinishRestoreRomDefaults..C.3A.5C_ECU2.5CECU_Rivian_A1.5CTarget.5Crepo_projects.5CpRealEcu.5CcL_LATEST.5Cmake.5Coutput.5Cobjects.5CNvM_Act.
00000e33 06             9228 	.byte	6
00000e34 03             9229 	.byte	3
00000e35 c306           9230 	.byte	195,6
00000e37 02             9231 	.byte	2
00000e38 00             9232 	.byte	0
00000e39 01             9233 	.byte	1
00000e3a 000502         9234 	.byte	0,5,2
00000e3d 00000000*      9235 	.word	.LDWlin152
00000e41 0d             9236 	.byte	13
00000e42 0b             9237 	.byte	11
00000e43 03             9238 	.byte	3
00000e44 05             9239 	.byte	5
00000e45 02             9240 	.byte	2
00000e46 0c             9241 	.byte	12
00000e47 01             9242 	.byte	1
00000e48 02             9243 	.byte	2
00000e49 00             9244 	.byte	0
00000e4a 0c             9245 	.byte	12
00000e4b 02             9246 	.byte	2
00000e4c 06             9247 	.byte	6
00000e4d 000101         9248 	.byte	0,1,1
                        9249 	.section	.debug_info
                        9250 .LDW_4d51530:
00002814 1d             9251 	.byte	29
00002815 00000000*      9252 	.word	.LDW88
00002819 00000000*      9253 	.word	.LDW98
                        9254 
0000281d 00             9255 	.byte	0
                        9256 
0000281e 00             9257 	.byte	0

                                                                      Page 173
                                                              C:\Users\nhuliyap\AppData\Local\Temp\gh_0000d3s1.s
                        9258 
                        9259 .LDW_4d51e88:
0000281f 13             9260 	.byte	19
00002820 4e764d5f4163   9261 	.strz	"NvM_ActSetInitialAttr"
00002826 74536574496e 
0000282c 697469616c41 
00002832 74747200 
00002836 d206           9262 	.byte	210,6
00002838 28             9263 	.byte	40
00002839 01             9264 	.byte	1
0000283a 00000000*      9265 	.word	_NvM_ActSetInitialAttr..C.3A.5C_ECU2.5CECU_Rivian_A1.5CTarget.5Crepo_projects.5CpRealEcu.5CcL_LATEST.5Cmake.5Coutput.5Cobjects.5CNvM_Act.
0000283e 00000000*      9266 	.word	___ghs_eofn_NvM_ActSetInitialAttr
00002842 0153           9267 	.byte	1,83
00002844 02             9268 	.byte	2
00002845 00             9269 	.byte	0
00002846 02             9270 	.byte	2
00002847 00             9271 	.byte	0
00002848 00             9272 	.byte	0
00002849 00             9273 	.byte	0
0000284a 00             9274 	.byte	0
0000284b 00             9275 	.byte	0
0000284c 01             9276 	.byte	1
0000284d 00             9277 	.byte	0
0000284e 01             9278 	.byte	1
                        9279 
                        9280 	.section	.debug_frame
                        9281 .LDW_4e8fde8:
000003ac 00000000*      9282 	.word	.LDW_unq_38-.LDW_unq_37
                        9283 .LDW_unq_37:
000003b0 00000000*      9284 	.word	.LDW_4d14688
000003b4 00000000*      9285 	.word	_NvM_ActSetInitialAttr..C.3A.5C_ECU2.5CECU_Rivian_A1.5CTarget.5Crepo_projects.5CpRealEcu.5CcL_LATEST.5Cmake.5Coutput.5Cobjects.5CNvM_Act.
000003b8 00000000*      9286 	.word	___ghs_eofn_NvM_ActSetInitialAttr-_NvM_ActSetInitialAttr..C.3A.5C_ECU2.5CECU_Rivian_A1.5CTarget.5Crepo_projects.5CpRealEcu.5CcL_LATEST.5Cmake.5Coutput.5Cobjects.5CNvM_Act.
000003bc 01             9287 	.byte	1
000003bd 00000000*      9288 	.word	.LDW34
000003c1 00             9289 	.byte	0
000003c2 00             9290 	.byte	0
000003c3 00             9291 	.byte	0
                        9292 .LDW_unq_38:
                        9293 	.section	.debug_line
00000e50 000502         9294 	.byte	0,5,2
00000e53 00000000*      9295 	.word	_NvM_ActSetInitialAttr..C.3A.5C_ECU2.5CECU_Rivian_A1.5CTarget.5Crepo_projects.5CpRealEcu.5CcL_LATEST.5Cmake.5Coutput.5Cobjects.5CNvM_Act.
00000e57 06             9296 	.byte	6
00000e58 03             9297 	.byte	3
00000e59 d406           9298 	.byte	212,6
00000e5b 02             9299 	.byte	2
00000e5c 00             9300 	.byte	0
00000e5d 01             9301 	.byte	1
00000e5e 000502         9302 	.byte	0,5,2
00000e61 00000000*      9303 	.word	.LDWlin73
00000e65 0b             9304 	.byte	11
00000e66 0d             9305 	.byte	13
00000e67 0b             9306 	.byte	11
00000e68 0d             9307 	.byte	13
00000e69 02             9308 	.byte	2
00000e6a 00             9309 	.byte	0
00000e6b 0c             9310 	.byte	12
00000e6c 5b             9311 	.byte	91
00000e6d 02             9312 	.byte	2
00000e6e 02             9313 	.byte	2
00000e6f 000101         9314 	.byte	0,1,1
                        9315 	.section	.debug_info

                                                                      Page 174
                                                              C:\Users\nhuliyap\AppData\Local\Temp\gh_0000d3s1.s
                        9316 .LDW_4d51410:
0000284f 1d             9317 	.byte	29
00002850 00000000*      9318 	.word	.LDW24
00002854 00000000*      9319 	.word	.LDW34
                        9320 
                        9321 .LDW_4d52818:
00002858 04             9322 	.byte	4
00002859 617474726962   9323 	.strz	"attribs_u8loc"
0000285f 735f75386c6f 
00002865 6300 
00002867 d306           9324 	.byte	211,6
00002869 0a             9325 	.byte	10
0000286a 01             9326 	.byte	1
0000286b 00000000*      9327 	.word	.LDW_483c010
0000286f 00             9328 	.byte	0
00002870 00             9329 	.byte	0
00002871 0161           9330 	.byte	1,97
                        9331 
00002873 00             9332 	.byte	0
                        9333 
00002874 00             9334 	.byte	0
                        9335 
                        9336 .LDW_4d51c28:
00002875 13             9337 	.byte	19
00002876 4e764d5f4163   9338 	.strz	"NvM_ActSetReqIntegrityFailed"
0000287c 745365745265 
00002882 71496e746567 
00002888 726974794661 
0000288e 696c656400 
00002893 e206           9339 	.byte	226,6
00002895 28             9340 	.byte	40
00002896 01             9341 	.byte	1
00002897 00000000*      9342 	.word	_NvM_ActSetReqIntegrityFailed..C.3A.5C_ECU2.5CECU_Rivian_A1.5CTarget.5Crepo_projects.5CpRealEcu.5CcL_LATEST.5Cmake.5Coutput.5Cobjects.5CNvM_Act.
0000289b 00000000*      9343 	.word	___ghs_eofn_NvM_ActSetReqIntegrityFailed
0000289f 0153           9344 	.byte	1,83
000028a1 02             9345 	.byte	2
000028a2 00             9346 	.byte	0
000028a3 02             9347 	.byte	2
000028a4 00             9348 	.byte	0
000028a5 00             9349 	.byte	0
000028a6 00             9350 	.byte	0
000028a7 00             9351 	.byte	0
000028a8 00             9352 	.byte	0
000028a9 01             9353 	.byte	1
000028aa 00             9354 	.byte	0
000028ab 01             9355 	.byte	1
                        9356 
                        9357 	.section	.debug_frame
                        9358 .LDW_4edfd28:
000003c4 00000000*      9359 	.word	.LDW_unq_3a-.LDW_unq_39
                        9360 .LDW_unq_39:
000003c8 00000000*      9361 	.word	.LDW_4d14688
000003cc 00000000*      9362 	.word	_NvM_ActSetReqIntegrityFailed..C.3A.5C_ECU2.5CECU_Rivian_A1.5CTarget.5Crepo_projects.5CpRealEcu.5CcL_LATEST.5Cmake.5Coutput.5Cobjects.5CNvM_Act.
000003d0 00000000*      9363 	.word	___ghs_eofn_NvM_ActSetReqIntegrityFailed-_NvM_ActSetReqIntegrityFailed..C.3A.5C_ECU2.5CECU_Rivian_A1.5CTarget.5Crepo_projects.5CpRealEcu.5CcL_LATEST.5Cmake.5Coutput.5Cobjects.5CNvM_Act.
000003d4 01             9364 	.byte	1
000003d5 00000000*      9365 	.word	.LDW19
000003d9 00             9366 	.byte	0
000003da 00             9367 	.byte	0
000003db 00             9368 	.byte	0
                        9369 .LDW_unq_3a:
                        9370 	.section	.debug_line

                                                                      Page 175
                                                              C:\Users\nhuliyap\AppData\Local\Temp\gh_0000d3s1.s
00000e72 000502         9371 	.byte	0,5,2
00000e75 00000000*      9372 	.word	_NvM_ActSetReqIntegrityFailed..C.3A.5C_ECU2.5CECU_Rivian_A1.5CTarget.5Crepo_projects.5CpRealEcu.5CcL_LATEST.5Cmake.5Coutput.5Cobjects.5CNvM_Act.
00000e79 06             9373 	.byte	6
00000e7a 03             9374 	.byte	3
00000e7b e206           9375 	.byte	226,6
00000e7d 02             9376 	.byte	2
00000e7e 00             9377 	.byte	0
00000e7f 01             9378 	.byte	1
00000e80 000502         9379 	.byte	0,5,2
00000e83 00000000*      9380 	.word	.LDWlin153
00000e87 0b             9381 	.byte	11
00000e88 02             9382 	.byte	2
00000e89 02             9383 	.byte	2
00000e8a 000101         9384 	.byte	0,1,1
                        9385 	.section	.debug_info
                        9386 .LDW_4d512f0:
000028ac 1d             9387 	.byte	29
000028ad 00000000*      9388 	.word	.LDW09
000028b1 00000000*      9389 	.word	.LDW19
                        9390 
000028b5 00             9391 	.byte	0
                        9392 
000028b6 00             9393 	.byte	0
                        9394 
                        9395 .LDW_4d51638:
000028b7 13             9396 	.byte	19
000028b8 4e764d5f4163   9397 	.strz	"NvM_ActSetReqSkipped"
000028be 745365745265 
000028c4 71536b697070 
000028ca 656400 
000028cd e606           9398 	.byte	230,6
000028cf 28             9399 	.byte	40
000028d0 01             9400 	.byte	1
000028d1 00000000*      9401 	.word	_NvM_ActSetReqSkipped..C.3A.5C_ECU2.5CECU_Rivian_A1.5CTarget.5Crepo_projects.5CpRealEcu.5CcL_LATEST.5Cmake.5Coutput.5Cobjects.5CNvM_Act.
000028d5 00000000*      9402 	.word	___ghs_eofn_NvM_ActSetReqSkipped
000028d9 0153           9403 	.byte	1,83
000028db 02             9404 	.byte	2
000028dc 00             9405 	.byte	0
000028dd 02             9406 	.byte	2
000028de 00             9407 	.byte	0
000028df 00             9408 	.byte	0
000028e0 00             9409 	.byte	0
000028e1 00             9410 	.byte	0
000028e2 00             9411 	.byte	0
000028e3 01             9412 	.byte	1
000028e4 00             9413 	.byte	0
000028e5 01             9414 	.byte	1
                        9415 
                        9416 	.section	.debug_frame
                        9417 .LDW_4edfe28:
000003dc 00000000*      9418 	.word	.LDW_unq_3c-.LDW_unq_3b
                        9419 .LDW_unq_3b:
000003e0 00000000*      9420 	.word	.LDW_4d14688
000003e4 00000000*      9421 	.word	_NvM_ActSetReqSkipped..C.3A.5C_ECU2.5CECU_Rivian_A1.5CTarget.5Crepo_projects.5CpRealEcu.5CcL_LATEST.5Cmake.5Coutput.5Cobjects.5CNvM_Act.
000003e8 00000000*      9422 	.word	___ghs_eofn_NvM_ActSetReqSkipped-_NvM_ActSetReqSkipped..C.3A.5C_ECU2.5CECU_Rivian_A1.5CTarget.5Crepo_projects.5CpRealEcu.5CcL_LATEST.5Cmake.5Coutput.5Cobjects.5CNvM_Act.
000003ec 01             9423 	.byte	1
000003ed 00000000*      9424 	.word	.LDW39
000003f1 00             9425 	.byte	0
000003f2 00             9426 	.byte	0
000003f3 00             9427 	.byte	0
                        9428 .LDW_unq_3c:

                                                                      Page 176
                                                              C:\Users\nhuliyap\AppData\Local\Temp\gh_0000d3s1.s
                        9429 	.section	.debug_line
00000e8d 000502         9430 	.byte	0,5,2
00000e90 00000000*      9431 	.word	_NvM_ActSetReqSkipped..C.3A.5C_ECU2.5CECU_Rivian_A1.5CTarget.5Crepo_projects.5CpRealEcu.5CcL_LATEST.5Cmake.5Coutput.5Cobjects.5CNvM_Act.
00000e94 06             9432 	.byte	6
00000e95 03             9433 	.byte	3
00000e96 e606           9434 	.byte	230,6
00000e98 02             9435 	.byte	2
00000e99 00             9436 	.byte	0
00000e9a 01             9437 	.byte	1
00000e9b 000502         9438 	.byte	0,5,2
00000e9e 00000000*      9439 	.word	.LDWlin154
00000ea2 0b             9440 	.byte	11
00000ea3 02             9441 	.byte	2
00000ea4 02             9442 	.byte	2
00000ea5 000101         9443 	.byte	0,1,1
                        9444 	.section	.debug_info
                        9445 .LDW_4d51440:
000028e6 1d             9446 	.byte	29
000028e7 00000000*      9447 	.word	.LDW29
000028eb 00000000*      9448 	.word	.LDW39
                        9449 
000028ef 00             9450 	.byte	0
                        9451 
000028f0 00             9452 	.byte	0
                        9453 
                        9454 .LDW_4d51d58:
000028f1 13             9455 	.byte	19
000028f2 4e764d5f5365   9456 	.strz	"NvM_SetBlockPendingWriteAll"
000028f8 74426c6f636b 
000028fe 50656e64696e 
00002904 675772697465 
0000290a 416c6c00 
0000290e ea06           9457 	.byte	234,6
00002910 28             9458 	.byte	40
00002911 01             9459 	.byte	1
00002912 00000000*      9460 	.word	_NvM_SetBlockPendingWriteAll..C.3A.5C_ECU2.5CECU_Rivian_A1.5CTarget.5Crepo_projects.5CpRealEcu.5CcL_LATEST.5Cmake.5Coutput.5Cobjects.5CNvM_Act.
00002916 00000000*      9461 	.word	___ghs_eofn_NvM_SetBlockPendingWriteAll
0000291a 0153           9462 	.byte	1,83
0000291c 02             9463 	.byte	2
0000291d 00             9464 	.byte	0
0000291e 02             9465 	.byte	2
0000291f 00             9466 	.byte	0
00002920 00             9467 	.byte	0
00002921 00             9468 	.byte	0
00002922 00             9469 	.byte	0
00002923 00             9470 	.byte	0
00002924 01             9471 	.byte	1
00002925 00             9472 	.byte	0
00002926 01             9473 	.byte	1
                        9474 
                        9475 	.section	.debug_frame
                        9476 .LDW_4ee9c58:
000003f4 00000000*      9477 	.word	.LDW_unq_3e-.LDW_unq_3d
                        9478 .LDW_unq_3d:
000003f8 00000000*      9479 	.word	.LDW_4d14688
000003fc 00000000*      9480 	.word	_NvM_SetBlockPendingWriteAll..C.3A.5C_ECU2.5CECU_Rivian_A1.5CTarget.5Crepo_projects.5CpRealEcu.5CcL_LATEST.5Cmake.5Coutput.5Cobjects.5CNvM_Act.
00000400 00000000*      9481 	.word	___ghs_eofn_NvM_SetBlockPendingWriteAll-_NvM_SetBlockPendingWriteAll..C.3A.5C_ECU2.5CECU_Rivian_A1.5CTarget.5Crepo_projects.5CpRealEcu.5CcL_LATEST.5Cmake.5Coutput.5Cobjects.5CNvM_Act.
00000404 01             9482 	.byte	1
00000405 00000000*      9483 	.word	.LDW59
00000409 00             9484 	.byte	0
0000040a 00             9485 	.byte	0

                                                                      Page 177
                                                              C:\Users\nhuliyap\AppData\Local\Temp\gh_0000d3s1.s
0000040b 00             9486 	.byte	0
                        9487 .LDW_unq_3e:
                        9488 	.section	.debug_line
00000ea8 000502         9489 	.byte	0,5,2
00000eab 00000000*      9490 	.word	_NvM_SetBlockPendingWriteAll..C.3A.5C_ECU2.5CECU_Rivian_A1.5CTarget.5Crepo_projects.5CpRealEcu.5CcL_LATEST.5Cmake.5Coutput.5Cobjects.5CNvM_Act.
00000eaf 06             9491 	.byte	6
00000eb0 03             9492 	.byte	3
00000eb1 ea06           9493 	.byte	234,6
00000eb3 02             9494 	.byte	2
00000eb4 00             9495 	.byte	0
00000eb5 01             9496 	.byte	1
00000eb6 000502         9497 	.byte	0,5,2
00000eb9 00000000*      9498 	.word	.LDWlin155
00000ebd 0b             9499 	.byte	11
00000ebe 02             9500 	.byte	2
00000ebf 12             9501 	.byte	18
00000ec0 000101         9502 	.byte	0,1,1
                        9503 	.section	.debug_info
                        9504 .LDW_4d51470:
00002927 1d             9505 	.byte	29
00002928 00000000*      9506 	.word	.LDW49
0000292c 00000000*      9507 	.word	.LDW59
                        9508 
00002930 00             9509 	.byte	0
                        9510 
00002931 00             9511 	.byte	0
                        9512 
                        9513 .LDW_4d51a60:
00002932 13             9514 	.byte	19
00002933 4e764d5f4163   9515 	.strz	"NvM_ActSetupRedundant"
00002939 745365747570 
0000293f 526564756e64 
00002945 616e7400 
00002949 ef06           9516 	.byte	239,6
0000294b 28             9517 	.byte	40
0000294c 01             9518 	.byte	1
0000294d 00000000*      9519 	.word	_NvM_ActSetupRedundant..C.3A.5C_ECU2.5CECU_Rivian_A1.5CTarget.5Crepo_projects.5CpRealEcu.5CcL_LATEST.5Cmake.5Coutput.5Cobjects.5CNvM_Act.
00002951 00000000*      9520 	.word	___ghs_eofn_NvM_ActSetupRedundant
00002955 0153           9521 	.byte	1,83
00002957 8280808008     9522 	.byte	130,128,128,128,8
0000295c 04             9523 	.byte	4
0000295d 03             9524 	.byte	3
0000295e 04             9525 	.byte	4
0000295f 00             9526 	.byte	0
00002960 00             9527 	.byte	0
00002961 00             9528 	.byte	0
00002962 00             9529 	.byte	0
00002963 01             9530 	.byte	1
00002964 00             9531 	.byte	0
00002965 01             9532 	.byte	1
                        9533 
                        9534 	.section	.debug_frame
                        9535 .LDW_4ee9b98:
0000040c 00000000*      9536 	.word	.LDW_unq_40-.LDW_unq_3f
                        9537 .LDW_unq_3f:
00000410 00000000*      9538 	.word	.LDW_4d14688
00000414 00000000*      9539 	.word	_NvM_ActSetupRedundant..C.3A.5C_ECU2.5CECU_Rivian_A1.5CTarget.5Crepo_projects.5CpRealEcu.5CcL_LATEST.5Cmake.5Coutput.5Cobjects.5CNvM_Act.
00000418 00000000*      9540 	.word	___ghs_eofn_NvM_ActSetupRedundant-_NvM_ActSetupRedundant..C.3A.5C_ECU2.5CECU_Rivian_A1.5CTarget.5Crepo_projects.5CpRealEcu.5CcL_LATEST.5Cmake.5Coutput.5Cobjects.5CNvM_Act.
0000041c 44             9541 	.byte	68
0000041d 9f             9542 	.byte	159
0000041e 00             9543 	.byte	0

                                                                      Page 178
                                                              C:\Users\nhuliyap\AppData\Local\Temp\gh_0000d3s1.s
0000041f 01             9544 	.byte	1
00000420 00000000*      9545 	.word	.LDW79
00000424 44             9546 	.byte	68
00000425 df             9547 	.byte	223
00000426 00             9548 	.byte	0
00000427 00             9549 	.byte	0
                        9550 .LDW_unq_40:
                        9551 	.section	.debug_line
00000ec3 000502         9552 	.byte	0,5,2
00000ec6 00000000*      9553 	.word	_NvM_ActSetupRedundant..C.3A.5C_ECU2.5CECU_Rivian_A1.5CTarget.5Crepo_projects.5CpRealEcu.5CcL_LATEST.5Cmake.5Coutput.5Cobjects.5CNvM_Act.
00000eca 03             9554 	.byte	3
00000ecb ee06           9555 	.byte	238,6
00000ecd 02             9556 	.byte	2
00000ece 00             9557 	.byte	0
00000ecf 01             9558 	.byte	1
00000ed0 06             9559 	.byte	6
00000ed1 1c             9560 	.byte	28
00000ed2 000502         9561 	.byte	0,5,2
00000ed5 00000000*      9562 	.word	.LDWlin156
00000ed9 0c             9563 	.byte	12
00000eda 000502         9564 	.byte	0,5,2
00000edd 00000000*      9565 	.word	.LDWlin157
00000ee1 0c             9566 	.byte	12
00000ee2 13             9567 	.byte	19
00000ee3 02             9568 	.byte	2
00000ee4 04             9569 	.byte	4
00000ee5 000101         9570 	.byte	0,1,1
                        9571 	.section	.debug_info
                        9572 .LDW_4d514a0:
00002966 1d             9573 	.byte	29
00002967 00000000*      9574 	.word	.LDW69
0000296b 00000000*      9575 	.word	.LDW79
                        9576 
0000296f 00             9577 	.byte	0
                        9578 
00002970 00             9579 	.byte	0
                        9580 
                        9581 .LDW_4d51b90:
00002971 13             9582 	.byte	19
00002972 4e764d5f4163   9583 	.strz	"NvM_ActSetupOther"
00002978 745365747570 
0000297e 4f7468657200 
00002984 f806           9584 	.byte	248,6
00002986 28             9585 	.byte	40
00002987 01             9586 	.byte	1
00002988 00000000*      9587 	.word	_NvM_ActSetupOther..C.3A.5C_ECU2.5CECU_Rivian_A1.5CTarget.5Crepo_projects.5CpRealEcu.5CcL_LATEST.5Cmake.5Coutput.5Cobjects.5CNvM_Act.
0000298c 00000000*      9588 	.word	___ghs_eofn_NvM_ActSetupOther
00002990 0153           9589 	.byte	1,83
00002992 02             9590 	.byte	2
00002993 00             9591 	.byte	0
00002994 02             9592 	.byte	2
00002995 00             9593 	.byte	0
00002996 00             9594 	.byte	0
00002997 00             9595 	.byte	0
00002998 00             9596 	.byte	0
00002999 00             9597 	.byte	0
0000299a 01             9598 	.byte	1
0000299b 00             9599 	.byte	0
0000299c 01             9600 	.byte	1
                        9601 
                        9602 	.section	.debug_frame

                                                                      Page 179
                                                              C:\Users\nhuliyap\AppData\Local\Temp\gh_0000d3s1.s
                        9603 .LDW_4ee9cd8:
00000428 00000000*      9604 	.word	.LDW_unq_42-.LDW_unq_41
                        9605 .LDW_unq_41:
0000042c 00000000*      9606 	.word	.LDW_4d14688
00000430 00000000*      9607 	.word	_NvM_ActSetupOther..C.3A.5C_ECU2.5CECU_Rivian_A1.5CTarget.5Crepo_projects.5CpRealEcu.5CcL_LATEST.5Cmake.5Coutput.5Cobjects.5CNvM_Act.
00000434 00000000*      9608 	.word	___ghs_eofn_NvM_ActSetupOther-_NvM_ActSetupOther..C.3A.5C_ECU2.5CECU_Rivian_A1.5CTarget.5Crepo_projects.5CpRealEcu.5CcL_LATEST.5Cmake.5Coutput.5Cobjects.5CNvM_Act.
00000438 01             9609 	.byte	1
00000439 00000000*      9610 	.word	.LDW99
0000043d 00             9611 	.byte	0
0000043e 00             9612 	.byte	0
0000043f 00             9613 	.byte	0
                        9614 .LDW_unq_42:
                        9615 	.section	.debug_line
00000ee8 000502         9616 	.byte	0,5,2
00000eeb 00000000*      9617 	.word	_NvM_ActSetupOther..C.3A.5C_ECU2.5CECU_Rivian_A1.5CTarget.5Crepo_projects.5CpRealEcu.5CcL_LATEST.5Cmake.5Coutput.5Cobjects.5CNvM_Act.
00000eef 06             9618 	.byte	6
00000ef0 03             9619 	.byte	3
00000ef1 f906           9620 	.byte	249,6
00000ef3 02             9621 	.byte	2
00000ef4 00             9622 	.byte	0
00000ef5 01             9623 	.byte	1
00000ef6 000502         9624 	.byte	0,5,2
00000ef9 00000000*      9625 	.word	.LDWlin158
00000efd 0c             9626 	.byte	12
00000efe 1c             9627 	.byte	28
00000eff 02             9628 	.byte	2
00000f00 04             9629 	.byte	4
00000f01 000101         9630 	.byte	0,1,1
                        9631 	.section	.debug_info
                        9632 .LDW_4d511a0:
0000299d 1d             9633 	.byte	29
0000299e 00000000*      9634 	.word	.LDW89
000029a2 00000000*      9635 	.word	.LDW99
                        9636 
000029a6 00             9637 	.byte	0
                        9638 
000029a7 00             9639 	.byte	0
                        9640 
                        9641 .LDW_4d51df0:
000029a8 13             9642 	.byte	19
000029a9 4e764d5f4163   9643 	.strz	"NvM_ActUpdateNvState"
000029af 745570646174 
000029b5 654e76537461 
000029bb 746500 
000029be 8107           9644 	.byte	129,7
000029c0 28             9645 	.byte	40
000029c1 01             9646 	.byte	1
000029c2 00000000*      9647 	.word	_NvM_ActUpdateNvState..C.3A.5C_ECU2.5CECU_Rivian_A1.5CTarget.5Crepo_projects.5CpRealEcu.5CcL_LATEST.5Cmake.5Coutput.5Cobjects.5CNvM_Act.
000029c6 00000000*      9648 	.word	___ghs_eofn_NvM_ActUpdateNvState
000029ca 0153           9649 	.byte	1,83
000029cc 828080800a     9650 	.byte	130,128,128,128,10
000029d1 08             9651 	.byte	8
000029d2 03             9652 	.byte	3
000029d3 08             9653 	.byte	8
000029d4 00             9654 	.byte	0
000029d5 00             9655 	.byte	0
000029d6 00             9656 	.byte	0
000029d7 00             9657 	.byte	0
000029d8 01             9658 	.byte	1
000029d9 00             9659 	.byte	0
000029da 01             9660 	.byte	1

                                                                      Page 180
                                                              C:\Users\nhuliyap\AppData\Local\Temp\gh_0000d3s1.s
                        9661 
                        9662 	.section	.debug_frame
                        9663 .LDW_4e8f368:
00000440 00000000*      9664 	.word	.LDW_unq_44-.LDW_unq_43
                        9665 .LDW_unq_43:
00000444 00000000*      9666 	.word	.LDW_4d14688
00000448 00000000*      9667 	.word	_NvM_ActUpdateNvState..C.3A.5C_ECU2.5CECU_Rivian_A1.5CTarget.5Crepo_projects.5CpRealEcu.5CcL_LATEST.5Cmake.5Coutput.5Cobjects.5CNvM_Act.
0000044c 00000000*      9668 	.word	___ghs_eofn_NvM_ActUpdateNvState-_NvM_ActUpdateNvState..C.3A.5C_ECU2.5CECU_Rivian_A1.5CTarget.5Crepo_projects.5CpRealEcu.5CcL_LATEST.5Cmake.5Coutput.5Cobjects.5CNvM_Act.
00000450 44             9669 	.byte	68
00000451 9f             9670 	.byte	159
00000452 00             9671 	.byte	0
00000453 40             9672 	.byte	64
00000454 9d             9673 	.byte	157
00000455 04             9674 	.byte	4
00000456 01             9675 	.byte	1
00000457 00000000*      9676 	.word	.LDW13
0000045b 00             9677 	.byte	0
                        9678 .LDW_unq_44:
                        9679 	.section	.debug_line
00000f04 000502         9680 	.byte	0,5,2
00000f07 00000000*      9681 	.word	_NvM_ActUpdateNvState..C.3A.5C_ECU2.5CECU_Rivian_A1.5CTarget.5Crepo_projects.5CpRealEcu.5CcL_LATEST.5Cmake.5Coutput.5Cobjects.5CNvM_Act.
00000f0b 03             9682 	.byte	3
00000f0c 8007           9683 	.byte	128,7
00000f0e 02             9684 	.byte	2
00000f0f 00             9685 	.byte	0
00000f10 01             9686 	.byte	1
00000f11 06             9687 	.byte	6
00000f12 1d             9688 	.byte	29
00000f13 000502         9689 	.byte	0,5,2
00000f16 00000000*      9690 	.word	.LDWlin43
00000f1a 03             9691 	.byte	3
00000f1b 0c             9692 	.byte	12
00000f1c 02             9693 	.byte	2
00000f1d 00             9694 	.byte	0
00000f1e 01             9695 	.byte	1
00000f1f 0c             9696 	.byte	12
00000f20 13             9697 	.byte	19
00000f21 000502         9698 	.byte	0,5,2
00000f24 00000000*      9699 	.word	.LDWlin44
00000f28 0b             9700 	.byte	11
00000f29 0c             9701 	.byte	12
00000f2a 000502         9702 	.byte	0,5,2
00000f2d 00000000*      9703 	.word	.LDWlin45
00000f31 0c             9704 	.byte	12
00000f32 1b             9705 	.byte	27
00000f33 000502         9706 	.byte	0,5,2
00000f36 00000000*      9707 	.word	.LDWlin46
00000f3a 03             9708 	.byte	3
00000f3b 6f             9709 	.byte	111
00000f3c 02             9710 	.byte	2
00000f3d 00             9711 	.byte	0
00000f3e 01             9712 	.byte	1
00000f3f 13             9713 	.byte	19
00000f40 000502         9714 	.byte	0,5,2
00000f43 00000000*      9715 	.word	.LDWlin47
00000f47 03             9716 	.byte	3
00000f48 04             9717 	.byte	4
00000f49 02             9718 	.byte	2
00000f4a 00             9719 	.byte	0
00000f4b 01             9720 	.byte	1
00000f4c 13             9721 	.byte	19

                                                                      Page 181
                                                              C:\Users\nhuliyap\AppData\Local\Temp\gh_0000d3s1.s
00000f4d 02             9722 	.byte	2
00000f4e 02             9723 	.byte	2
00000f4f 000101         9724 	.byte	0,1,1
                        9725 	.section	.debug_info
                        9726 .LDW_4d514d0:
000029db 1d             9727 	.byte	29
000029dc 00000000*      9728 	.word	.LDW03
000029e0 00000000*      9729 	.word	.LDW13
                        9730 
                        9731 .LDW_4d52d40:
000029e4 04             9732 	.byte	4
000029e5 4e76426c6f63   9733 	.strz	"NvBlockState_u8"
000029eb 6b5374617465 
000029f1 5f753800 
000029f5 8207           9734 	.byte	130,7
000029f7 0a             9735 	.byte	10
000029f8 01             9736 	.byte	1
000029f9 00000000*      9737 	.word	.LDW_483c010
000029fd 00             9738 	.byte	0
000029fe 00             9739 	.byte	0
000029ff 0157           9740 	.byte	1,87
                        9741 
00002a01 00             9742 	.byte	0
                        9743 
00002a02 00             9744 	.byte	0
                        9745 
                        9746 .LDW_4d51f20:
00002a03 13             9747 	.byte	19
00002a04 4e764d5f496e   9748 	.strz	"NvM_IntCreateNvState"
00002a0a 744372656174 
00002a10 654e76537461 
00002a16 746500 
00002a19 9b07           9749 	.byte	155,7
00002a1b 28             9750 	.byte	40
00002a1c 01             9751 	.byte	1
00002a1d 00000000*      9752 	.word	_NvM_IntCreateNvState..C.3A.5C_ECU2.5CECU_Rivian_A1.5CTarget.5Crepo_projects.5CpRealEcu.5CcL_LATEST.5Cmake.5Coutput.5Cobjects.5CNvM_Act.
00002a21 00000000*      9753 	.word	___ghs_eofn_NvM_IntCreateNvState
00002a25 0153           9754 	.byte	1,83
00002a27 02             9755 	.byte	2
00002a28 00             9756 	.byte	0
00002a29 02             9757 	.byte	2
00002a2a 00             9758 	.byte	0
00002a2b 00             9759 	.byte	0
00002a2c 00             9760 	.byte	0
00002a2d 00             9761 	.byte	0
00002a2e 00             9762 	.byte	0
00002a2f 01             9763 	.byte	1
00002a30 00             9764 	.byte	0
00002a31 01             9765 	.byte	1
                        9766 
                        9767 	.section	.debug_frame
                        9768 .LDW_4d5bab8:
0000045c 00000000*      9769 	.word	.LDW_unq_46-.LDW_unq_45
                        9770 .LDW_unq_45:
00000460 00000000*      9771 	.word	.LDW_4d14688
00000464 00000000*      9772 	.word	_NvM_IntCreateNvState..C.3A.5C_ECU2.5CECU_Rivian_A1.5CTarget.5Crepo_projects.5CpRealEcu.5CcL_LATEST.5Cmake.5Coutput.5Cobjects.5CNvM_Act.
00000468 00000000*      9773 	.word	___ghs_eofn_NvM_IntCreateNvState-_NvM_IntCreateNvState..C.3A.5C_ECU2.5CECU_Rivian_A1.5CTarget.5Crepo_projects.5CpRealEcu.5CcL_LATEST.5Cmake.5Coutput.5Cobjects.5CNvM_Act.
0000046c 01             9774 	.byte	1
0000046d 00000000*      9775 	.word	.LDW71
00000471 00             9776 	.byte	0
00000472 00             9777 	.byte	0

                                                                      Page 182
                                                              C:\Users\nhuliyap\AppData\Local\Temp\gh_0000d3s1.s
00000473 00             9778 	.byte	0
                        9779 .LDW_unq_46:
                        9780 	.section	.debug_line
00000f52 000502         9781 	.byte	0,5,2
00000f55 00000000*      9782 	.word	_NvM_IntCreateNvState..C.3A.5C_ECU2.5CECU_Rivian_A1.5CTarget.5Crepo_projects.5CpRealEcu.5CcL_LATEST.5Cmake.5Coutput.5Cobjects.5CNvM_Act.
00000f59 03             9783 	.byte	3
00000f5a 9b07           9784 	.byte	155,7
00000f5c 02             9785 	.byte	2
00000f5d 00             9786 	.byte	0
00000f5e 01             9787 	.byte	1
00000f5f 06             9788 	.byte	6
00000f60 1d             9789 	.byte	29
00000f61 23             9790 	.byte	35
00000f62 0c             9791 	.byte	12
00000f63 0b             9792 	.byte	11
00000f64 0c             9793 	.byte	12
00000f65 02             9794 	.byte	2
00000f66 00             9795 	.byte	0
00000f67 0c             9796 	.byte	12
00000f68 4c             9797 	.byte	76
00000f69 2b             9798 	.byte	43
00000f6a 02             9799 	.byte	2
00000f6b 02             9800 	.byte	2
00000f6c 000101         9801 	.byte	0,1,1
                        9802 	.section	.debug_info
                        9803 .LDW_4d52e48:
00002a32 0f             9804 	.byte	15
00002a33 4e7653746174   9805 	.strz	"NvState"
00002a39 6500 
00002a3b 9b07           9806 	.byte	155,7
00002a3d 67             9807 	.byte	103
00002a3e 01             9808 	.byte	1
00002a3f 00000000*      9809 	.word	.LDW_4be12e0
00002a43 00             9810 	.byte	0
00002a44 016e           9811 	.byte	1,110
                        9812 
                        9813 .LDW_4d52ea0:
00002a46 0f             9814 	.byte	15
00002a47 4e6577537461   9815 	.strz	"NewState"
00002a4d 746500 
00002a50 9b07           9816 	.byte	155,7
00002a52 76             9817 	.byte	118
00002a53 01             9818 	.byte	1
00002a54 00000000*      9819 	.word	.LDW_483c010
00002a58 00             9820 	.byte	0
00002a59 0157           9821 	.byte	1,87
                        9822 
                        9823 .LDW_4d50990:
00002a5b 1d             9824 	.byte	29
00002a5c 00000000*      9825 	.word	.LDW61
00002a60 00000000*      9826 	.word	.LDW71
                        9827 
                        9828 .LDW_4d52ef8:
00002a64 04             9829 	.byte	4
00002a65 736869667400   9830 	.strz	"shift"
00002a6b 9d07           9831 	.byte	157,7
00002a6d 0a             9832 	.byte	10
00002a6e 01             9833 	.byte	1
00002a6f 00000000*      9834 	.word	.LDW_483c010
00002a73 00             9835 	.byte	0
00002a74 00             9836 	.byte	0

                                                                      Page 183
                                                              C:\Users\nhuliyap\AppData\Local\Temp\gh_0000d3s1.s
00002a75 0160           9837 	.byte	1,96
                        9838 
00002a77 00             9839 	.byte	0
                        9840 
00002a78 00             9841 	.byte	0
                        9842 
                        9843 .LDW_4d523e0:
00002a79 13             9844 	.byte	19
00002a7a 4e764d5f4163   9845 	.strz	"NvM_ActGetMultiBlockJob"
00002a80 744765744d75 
00002a86 6c7469426c6f 
00002a8c 636b4a6f6200 
00002a92 ac07           9846 	.byte	172,7
00002a94 28             9847 	.byte	40
00002a95 01             9848 	.byte	1
00002a96 00000000*      9849 	.word	_NvM_ActGetMultiBlockJob..C.3A.5C_ECU2.5CECU_Rivian_A1.5CTarget.5Crepo_projects.5CpRealEcu.5CcL_LATEST.5Cmake.5Coutput.5Cobjects.5CNvM_Act.
00002a9a 00000000*      9850 	.word	___ghs_eofn_NvM_ActGetMultiBlockJob
00002a9e 0153           9851 	.byte	1,83
00002aa0 02             9852 	.byte	2
00002aa1 00             9853 	.byte	0
00002aa2 02             9854 	.byte	2
00002aa3 00             9855 	.byte	0
00002aa4 00             9856 	.byte	0
00002aa5 00             9857 	.byte	0
00002aa6 00             9858 	.byte	0
00002aa7 00             9859 	.byte	0
00002aa8 01             9860 	.byte	1
00002aa9 00             9861 	.byte	0
00002aaa 01             9862 	.byte	1
                        9863 
                        9864 	.section	.debug_frame
                        9865 .LDW_4ee9898:
00000474 00000000*      9866 	.word	.LDW_unq_48-.LDW_unq_47
                        9867 .LDW_unq_47:
00000478 00000000*      9868 	.word	.LDW_4d14688
0000047c 00000000*      9869 	.word	_NvM_ActGetMultiBlockJob..C.3A.5C_ECU2.5CECU_Rivian_A1.5CTarget.5Crepo_projects.5CpRealEcu.5CcL_LATEST.5Cmake.5Coutput.5Cobjects.5CNvM_Act.
00000480 00000000*      9870 	.word	___ghs_eofn_NvM_ActGetMultiBlockJob-_NvM_ActGetMultiBlockJob..C.3A.5C_ECU2.5CECU_Rivian_A1.5CTarget.5Crepo_projects.5CpRealEcu.5CcL_LATEST.5Cmake.5Coutput.5Cobjects.5CNvM_Act.
00000484 01             9871 	.byte	1
00000485 00000000*      9872 	.word	.LDW101
00000489 00             9873 	.byte	0
0000048a 00             9874 	.byte	0
0000048b 00             9875 	.byte	0
                        9876 .LDW_unq_48:
                        9877 	.section	.debug_line
00000f6f 000502         9878 	.byte	0,5,2
00000f72 00000000*      9879 	.word	_NvM_ActGetMultiBlockJob..C.3A.5C_ECU2.5CECU_Rivian_A1.5CTarget.5Crepo_projects.5CpRealEcu.5CcL_LATEST.5Cmake.5Coutput.5Cobjects.5CNvM_Act.
00000f76 06             9880 	.byte	6
00000f77 03             9881 	.byte	3
00000f78 ad07           9882 	.byte	173,7
00000f7a 02             9883 	.byte	2
00000f7b 00             9884 	.byte	0
00000f7c 01             9885 	.byte	1
00000f7d 000502         9886 	.byte	0,5,2
00000f80 00000000*      9887 	.word	.LDWlin159
00000f84 0c             9888 	.byte	12
00000f85 000502         9889 	.byte	0,5,2
00000f88 00000000*      9890 	.word	.LDWlin160
00000f8c 0b             9891 	.byte	11
00000f8d 14             9892 	.byte	20
00000f8e 000502         9893 	.byte	0,5,2
00000f91 00000000*      9894 	.word	.LDWlin161

                                                                      Page 184
                                                              C:\Users\nhuliyap\AppData\Local\Temp\gh_0000d3s1.s
00000f95 03             9895 	.byte	3
00000f96 04             9896 	.byte	4
00000f97 02             9897 	.byte	2
00000f98 00             9898 	.byte	0
00000f99 01             9899 	.byte	1
00000f9a 000502         9900 	.byte	0,5,2
00000f9d 00000000*      9901 	.word	.LDWlin162
00000fa1 03             9902 	.byte	3
00000fa2 7d             9903 	.byte	125
00000fa3 02             9904 	.byte	2
00000fa4 00             9905 	.byte	0
00000fa5 01             9906 	.byte	1
00000fa6 0b             9907 	.byte	11
00000fa7 000502         9908 	.byte	0,5,2
00000faa 00000000*      9909 	.word	.LDWlin163
00000fae 0d             9910 	.byte	13
00000faf 0b             9911 	.byte	11
00000fb0 02             9912 	.byte	2
00000fb1 00             9913 	.byte	0
00000fb2 000502         9914 	.byte	0,5,2
00000fb5 00000000*      9915 	.word	.LDWlin164
00000fb9 0b             9916 	.byte	11
00000fba 0b             9917 	.byte	11
00000fbb 1c             9918 	.byte	28
00000fbc 1b             9919 	.byte	27
00000fbd 03             9920 	.byte	3
00000fbe 07             9921 	.byte	7
00000fbf 02             9922 	.byte	2
00000fc0 00             9923 	.byte	0
00000fc1 01             9924 	.byte	1
00000fc2 0c             9925 	.byte	12
00000fc3 02             9926 	.byte	2
00000fc4 00             9927 	.byte	0
00000fc5 02             9928 	.byte	2
00000fc6 00             9929 	.byte	0
00000fc7 02             9930 	.byte	2
00000fc8 00             9931 	.byte	0
00000fc9 0b             9932 	.byte	11
00000fca 02             9933 	.byte	2
00000fcb 02             9934 	.byte	2
00000fcc 000101         9935 	.byte	0,1,1
                        9936 	.section	.debug_info
                        9937 .LDW_4d50b70:
00002aab 1d             9938 	.byte	29
00002aac 00000000*      9939 	.word	.LDW001
00002ab0 00000000*      9940 	.word	.LDW101
                        9941 
                        9942 .LDW_4d52fa8:
00002ab4 04             9943 	.byte	4
00002ab5 6d756c74694a   9944 	.strz	"multiJobFlags"
00002abb 6f62466c6167 
00002ac1 7300 
00002ac3 ae07           9945 	.byte	174,7
00002ac5 10             9946 	.byte	16
00002ac6 01             9947 	.byte	1
00002ac7 00000000*      9948 	.word	.LDW_4d52c38
00002acb 00             9949 	.byte	0
00002acc 00             9950 	.byte	0
00002acd 0161           9951 	.byte	1,97
                        9952 
00002acf 00             9953 	.byte	0

                                                                      Page 185
                                                              C:\Users\nhuliyap\AppData\Local\Temp\gh_0000d3s1.s
                        9954 
00002ad0 00             9955 	.byte	0
                        9956 
                        9957 .LDW_4d51898:
00002ad1 13             9958 	.byte	19
00002ad2 4e764d5f4163   9959 	.strz	"NvM_ActTestBlockBlank"
00002ad8 745465737442 
00002ade 6c6f636b426c 
00002ae4 616e6b00 
00002ae8 ca07           9960 	.byte	202,7
00002aea 28             9961 	.byte	40
00002aeb 01             9962 	.byte	1
00002aec 00000000*      9963 	.word	_NvM_ActTestBlockBlank..C.3A.5C_ECU2.5CECU_Rivian_A1.5CTarget.5Crepo_projects.5CpRealEcu.5CcL_LATEST.5Cmake.5Coutput.5Cobjects.5CNvM_Act.
00002af0 00000000*      9964 	.word	___ghs_eofn_NvM_ActTestBlockBlank
00002af4 0153           9965 	.byte	1,83
00002af6 828080800b     9966 	.byte	130,128,128,128,11
00002afb 0c             9967 	.byte	12
00002afc 03             9968 	.byte	3
00002afd 10             9969 	.byte	16
00002afe 00             9970 	.byte	0
00002aff 00             9971 	.byte	0
00002b00 00             9972 	.byte	0
00002b01 00             9973 	.byte	0
00002b02 01             9974 	.byte	1
00002b03 00             9975 	.byte	0
00002b04 01             9976 	.byte	1
                        9977 
                        9978 	.section	.debug_frame
                        9979 .LDW_4edf6e8:
0000048c 00000000*      9980 	.word	.LDW_unq_4a-.LDW_unq_49
                        9981 .LDW_unq_49:
00000490 00000000*      9982 	.word	.LDW_4d14688
00000494 00000000*      9983 	.word	_NvM_ActTestBlockBlank..C.3A.5C_ECU2.5CECU_Rivian_A1.5CTarget.5Crepo_projects.5CpRealEcu.5CcL_LATEST.5Cmake.5Coutput.5Cobjects.5CNvM_Act.
00000498 00000000*      9984 	.word	___ghs_eofn_NvM_ActTestBlockBlank-_NvM_ActTestBlockBlank..C.3A.5C_ECU2.5CECU_Rivian_A1.5CTarget.5Crepo_projects.5CpRealEcu.5CcL_LATEST.5Cmake.5Coutput.5Cobjects.5CNvM_Act.
0000049c 44             9985 	.byte	68
0000049d 9f             9986 	.byte	159
0000049e 03             9987 	.byte	3
0000049f 40             9988 	.byte	64
000004a0 9d             9989 	.byte	157
000004a1 07             9990 	.byte	7
000004a2 40             9991 	.byte	64
000004a3 9c             9992 	.byte	156
000004a4 0b             9993 	.byte	11
000004a5 01             9994 	.byte	1
000004a6 00000000*      9995 	.word	.LDW16
000004aa 44             9996 	.byte	68
000004ab df             9997 	.byte	223
000004ac 40             9998 	.byte	64
000004ad dd             9999 	.byte	221
000004ae 40            10000 	.byte	64
000004af dc            10001 	.byte	220
                       10002 .LDW_unq_4a:
                       10003 	.section	.debug_line
00000fcf 000502        10004 	.byte	0,5,2
00000fd2 00000000*     10005 	.word	_NvM_ActTestBlockBlank..C.3A.5C_ECU2.5CECU_Rivian_A1.5CTarget.5Crepo_projects.5CpRealEcu.5CcL_LATEST.5Cmake.5Coutput.5Cobjects.5CNvM_Act.
00000fd6 03            10006 	.byte	3
00000fd7 c907          10007 	.byte	201,7
00000fd9 02            10008 	.byte	2
00000fda 00            10009 	.byte	0
00000fdb 01            10010 	.byte	1
00000fdc 06            10011 	.byte	6

                                                                      Page 186
                                                              C:\Users\nhuliyap\AppData\Local\Temp\gh_0000d3s1.s
00000fdd 1c            10012 	.byte	28
00000fde 000502        10013 	.byte	0,5,2
00000fe1 00000000*     10014 	.word	.LDWlin102
00000fe5 03            10015 	.byte	3
00000fe6 05            10016 	.byte	5
00000fe7 02            10017 	.byte	2
00000fe8 00            10018 	.byte	0
00000fe9 01            10019 	.byte	1
00000fea 0b            10020 	.byte	11
00000feb 03            10021 	.byte	3
00000fec 04            10022 	.byte	4
00000fed 02            10023 	.byte	2
00000fee 08            10024 	.byte	8
00000fef 01            10025 	.byte	1
00000ff0 02            10026 	.byte	2
00000ff1 00            10027 	.byte	0
00000ff2 0b            10028 	.byte	11
00000ff3 02            10029 	.byte	2
00000ff4 04            10030 	.byte	4
00000ff5 000101        10031 	.byte	0,1,1
                       10032 	.section	.debug_info
                       10033 .LDW_4d50630:
00002b05 1d            10034 	.byte	29
00002b06 00000000*     10035 	.word	.LDW06
00002b0a 00000000*     10036 	.word	.LDW16
                       10037 
00002b0e 00            10038 	.byte	0
                       10039 
00002b0f 00            10040 	.byte	0
                       10041 
                       10042 .LDW_4d520e8:
00002b10 13            10043 	.byte	19
00002b11 4e764d5f4163  10044 	.strz	"NvM_ActValidateRam"
00002b17 7456616c6964 
00002b1d 61746552616d 
00002b23 00 
00002b24 d907          10045 	.byte	217,7
00002b26 28            10046 	.byte	40
00002b27 01            10047 	.byte	1
00002b28 00000000*     10048 	.word	_NvM_ActValidateRam..C.3A.5C_ECU2.5CECU_Rivian_A1.5CTarget.5Crepo_projects.5CpRealEcu.5CcL_LATEST.5Cmake.5Coutput.5Cobjects.5CNvM_Act.
00002b2c 00000000*     10049 	.word	___ghs_eofn_NvM_ActValidateRam
00002b30 0153          10050 	.byte	1,83
00002b32 02            10051 	.byte	2
00002b33 00            10052 	.byte	0
00002b34 02            10053 	.byte	2
00002b35 00            10054 	.byte	0
00002b36 00            10055 	.byte	0
00002b37 00            10056 	.byte	0
00002b38 00            10057 	.byte	0
00002b39 00            10058 	.byte	0
00002b3a 01            10059 	.byte	1
00002b3b 00            10060 	.byte	0
00002b3c 01            10061 	.byte	1
                       10062 
                       10063 	.section	.debug_frame
                       10064 .LDW_4ee9a18:
000004b0 00000000*     10065 	.word	.LDW_unq_4c-.LDW_unq_4b
                       10066 .LDW_unq_4b:
000004b4 00000000*     10067 	.word	.LDW_4d14688
000004b8 00000000*     10068 	.word	_NvM_ActValidateRam..C.3A.5C_ECU2.5CECU_Rivian_A1.5CTarget.5Crepo_projects.5CpRealEcu.5CcL_LATEST.5Cmake.5Coutput.5Cobjects.5CNvM_Act.
000004bc 00000000*     10069 	.word	___ghs_eofn_NvM_ActValidateRam-_NvM_ActValidateRam..C.3A.5C_ECU2.5CECU_Rivian_A1.5CTarget.5Crepo_projects.5CpRealEcu.5CcL_LATEST.5Cmake.5Coutput.5Cobjects.5CNvM_Act.

                                                                      Page 187
                                                              C:\Users\nhuliyap\AppData\Local\Temp\gh_0000d3s1.s
000004c0 01            10070 	.byte	1
000004c1 00000000*     10071 	.word	.LDW301
000004c5 00            10072 	.byte	0
000004c6 00            10073 	.byte	0
000004c7 00            10074 	.byte	0
                       10075 .LDW_unq_4c:
                       10076 	.section	.debug_line
00000ff8 000502        10077 	.byte	0,5,2
00000ffb 00000000*     10078 	.word	_NvM_ActValidateRam..C.3A.5C_ECU2.5CECU_Rivian_A1.5CTarget.5Crepo_projects.5CpRealEcu.5CcL_LATEST.5Cmake.5Coutput.5Cobjects.5CNvM_Act.
00000fff 06            10079 	.byte	6
00001000 03            10080 	.byte	3
00001001 da07          10081 	.byte	218,7
00001003 02            10082 	.byte	2
00001004 00            10083 	.byte	0
00001005 01            10084 	.byte	1
00001006 000502        10085 	.byte	0,5,2
00001009 00000000*     10086 	.word	.LDWlin165
0000100d 0b            10087 	.byte	11
0000100e 0d            10088 	.byte	13
0000100f 000502        10089 	.byte	0,5,2
00001012 00000000*     10090 	.word	.LDWlin166
00001016 0b            10091 	.byte	11
00001017 03            10092 	.byte	3
00001018 05            10093 	.byte	5
00001019 02            10094 	.byte	2
0000101a 06            10095 	.byte	6
0000101b 01            10096 	.byte	1
0000101c 02            10097 	.byte	2
0000101d 00            10098 	.byte	0
0000101e 0b            10099 	.byte	11
0000101f 02            10100 	.byte	2
00001020 02            10101 	.byte	2
00001021 000101        10102 	.byte	0,1,1
                       10103 	.section	.debug_info
                       10104 .LDW_4d50660:
00002b3d 1d            10105 	.byte	29
00002b3e 00000000*     10106 	.word	.LDW201
00002b42 00000000*     10107 	.word	.LDW301
                       10108 
00002b46 00            10109 	.byte	0
                       10110 
00002b47 00            10111 	.byte	0
                       10112 
                       10113 .LDW_4d52180:
00002b48 13            10114 	.byte	19
00002b49 4e764d5f4163  10115 	.strz	"NvM_ActWait"
00002b4f 745761697400 
00002b55 e807          10116 	.byte	232,7
00002b57 28            10117 	.byte	40
00002b58 01            10118 	.byte	1
00002b59 00000000*     10119 	.word	_NvM_ActWait..C.3A.5C_ECU2.5CECU_Rivian_A1.5CTarget.5Crepo_projects.5CpRealEcu.5CcL_LATEST.5Cmake.5Coutput.5Cobjects.5CNvM_Act.
00002b5d 00000000*     10120 	.word	___ghs_eofn_NvM_ActWait
00002b61 0153          10121 	.byte	1,83
00002b63 02            10122 	.byte	2
00002b64 00            10123 	.byte	0
00002b65 02            10124 	.byte	2
00002b66 00            10125 	.byte	0
00002b67 00            10126 	.byte	0
00002b68 00            10127 	.byte	0
00002b69 00            10128 	.byte	0
00002b6a 00            10129 	.byte	0

                                                                      Page 188
                                                              C:\Users\nhuliyap\AppData\Local\Temp\gh_0000d3s1.s
00002b6b 01            10130 	.byte	1
00002b6c 00            10131 	.byte	0
00002b6d 01            10132 	.byte	1
                       10133 
                       10134 	.section	.debug_frame
                       10135 .LDW_4edfce8:
000004c8 00000000*     10136 	.word	.LDW_unq_4e-.LDW_unq_4d
                       10137 .LDW_unq_4d:
000004cc 00000000*     10138 	.word	.LDW_4d14688
000004d0 00000000*     10139 	.word	_NvM_ActWait..C.3A.5C_ECU2.5CECU_Rivian_A1.5CTarget.5Crepo_projects.5CpRealEcu.5CcL_LATEST.5Cmake.5Coutput.5Cobjects.5CNvM_Act.
000004d4 00000000*     10140 	.word	___ghs_eofn_NvM_ActWait-_NvM_ActWait..C.3A.5C_ECU2.5CECU_Rivian_A1.5CTarget.5Crepo_projects.5CpRealEcu.5CcL_LATEST.5Cmake.5Coutput.5Cobjects.5CNvM_Act.
000004d8 01            10141 	.byte	1
000004d9 00000000*     10142 	.word	.LDW58
000004dd 00            10143 	.byte	0
000004de 00            10144 	.byte	0
000004df 00            10145 	.byte	0
                       10146 .LDW_unq_4e:
                       10147 	.section	.debug_line
00001024 000502        10148 	.byte	0,5,2
00001027 00000000*     10149 	.word	_NvM_ActWait..C.3A.5C_ECU2.5CECU_Rivian_A1.5CTarget.5Crepo_projects.5CpRealEcu.5CcL_LATEST.5Cmake.5Coutput.5Cobjects.5CNvM_Act.
0000102b 06            10150 	.byte	6
0000102c 03            10151 	.byte	3
0000102d e807          10152 	.byte	232,7
0000102f 02            10153 	.byte	2
00001030 00            10154 	.byte	0
00001031 01            10155 	.byte	1
00001032 000502        10156 	.byte	0,5,2
00001035 00000000*     10157 	.word	.LDWlin144
00001039 0b            10158 	.byte	11
0000103a 02            10159 	.byte	2
0000103b 02            10160 	.byte	2
0000103c 000101        10161 	.byte	0,1,1
                       10162 	.section	.debug_info
                       10163 .LDW_4d50ab0:
00002b6e 1d            10164 	.byte	29
00002b6f 00000000*     10165 	.word	.LDW48
00002b73 00000000*     10166 	.word	.LDW58
                       10167 
00002b77 00            10168 	.byte	0
                       10169 
00002b78 00            10170 	.byte	0
                       10171 
                       10172 .LDW_4d52478:
00002b79 13            10173 	.byte	19
00002b7a 4e764d5f4163  10174 	.strz	"NvM_ActCopyNvDataToBuf"
00002b80 74436f70794e 
00002b86 764461746154 
00002b8c 6f42756600 
00002b91 ec07          10175 	.byte	236,7
00002b93 28            10176 	.byte	40
00002b94 01            10177 	.byte	1
00002b95 00000000*     10178 	.word	_NvM_ActCopyNvDataToBuf..C.3A.5C_ECU2.5CECU_Rivian_A1.5CTarget.5Crepo_projects.5CpRealEcu.5CcL_LATEST.5Cmake.5Coutput.5Cobjects.5CNvM_Act.
00002b99 00000000*     10179 	.word	___ghs_eofn_NvM_ActCopyNvDataToBuf
00002b9d 0153          10180 	.byte	1,83
00002b9f 828080800b    10181 	.byte	130,128,128,128,11
00002ba4 0c            10182 	.byte	12
00002ba5 03            10183 	.byte	3
00002ba6 0c            10184 	.byte	12
00002ba7 00            10185 	.byte	0
00002ba8 00            10186 	.byte	0
00002ba9 00            10187 	.byte	0

                                                                      Page 189
                                                              C:\Users\nhuliyap\AppData\Local\Temp\gh_0000d3s1.s
00002baa 00            10188 	.byte	0
00002bab 01            10189 	.byte	1
00002bac 00            10190 	.byte	0
00002bad 01            10191 	.byte	1
                       10192 
                       10193 	.section	.debug_frame
                       10194 .LDW_4edf568:
000004e0 00000000*     10195 	.word	.LDW_unq_50-.LDW_unq_4f
                       10196 .LDW_unq_4f:
000004e4 00000000*     10197 	.word	.LDW_4d14688
000004e8 00000000*     10198 	.word	_NvM_ActCopyNvDataToBuf..C.3A.5C_ECU2.5CECU_Rivian_A1.5CTarget.5Crepo_projects.5CpRealEcu.5CcL_LATEST.5Cmake.5Coutput.5Cobjects.5CNvM_Act.
000004ec 00000000*     10199 	.word	___ghs_eofn_NvM_ActCopyNvDataToBuf-_NvM_ActCopyNvDataToBuf..C.3A.5C_ECU2.5CECU_Rivian_A1.5CTarget.5Crepo_projects.5CpRealEcu.5CcL_LATEST.5Cmake.5Coutput.5Cobjects.5CNvM_Act.
000004f0 48            10200 	.byte	72
000004f1 9f            10201 	.byte	159
000004f2 00            10202 	.byte	0
000004f3 40            10203 	.byte	64
000004f4 9d            10204 	.byte	157
000004f5 04            10205 	.byte	4
000004f6 40            10206 	.byte	64
000004f7 9c            10207 	.byte	156
000004f8 08            10208 	.byte	8
000004f9 01            10209 	.byte	1
000004fa 00000000*     10210 	.word	.LDW36
000004fe 00            10211 	.byte	0
000004ff 00            10212 	.byte	0
                       10213 .LDW_unq_50:
                       10214 	.section	.debug_line
0000103f 000502        10215 	.byte	0,5,2
00001042 00000000*     10216 	.word	_NvM_ActCopyNvDataToBuf..C.3A.5C_ECU2.5CECU_Rivian_A1.5CTarget.5Crepo_projects.5CpRealEcu.5CcL_LATEST.5Cmake.5Coutput.5Cobjects.5CNvM_Act.
00001046 03            10217 	.byte	3
00001047 eb07          10218 	.byte	235,7
00001049 02            10219 	.byte	2
0000104a 00            10220 	.byte	0
0000104b 01            10221 	.byte	1
0000104c 06            10222 	.byte	6
0000104d 2d            10223 	.byte	45
0000104e 000502        10224 	.byte	0,5,2
00001051 00000000*     10225 	.word	.LDWlin103
00001055 0c            10226 	.byte	12
00001056 000502        10227 	.byte	0,5,2
00001059 00000000*     10228 	.word	.LDWlin104
0000105d 0b            10229 	.byte	11
0000105e 0c            10230 	.byte	12
0000105f 000502        10231 	.byte	0,5,2
00001062 00000000*     10232 	.word	.LDWlin105
00001066 0b            10233 	.byte	11
00001067 0b            10234 	.byte	11
00001068 000502        10235 	.byte	0,5,2
0000106b 00000000*     10236 	.word	.LDWlin106
0000106f 03            10237 	.byte	3
00001070 18            10238 	.byte	24
00001071 02            10239 	.byte	2
00001072 00            10240 	.byte	0
00001073 01            10241 	.byte	1
00001074 02            10242 	.byte	2
00001075 00            10243 	.byte	0
00001076 0b            10244 	.byte	11
00001077 000502        10245 	.byte	0,5,2
0000107a 00000000*     10246 	.word	.LDWlin107
0000107e 03            10247 	.byte	3
0000107f 6a            10248 	.byte	106

                                                                      Page 190
                                                              C:\Users\nhuliyap\AppData\Local\Temp\gh_0000d3s1.s
00001080 02            10249 	.byte	2
00001081 00            10250 	.byte	0
00001082 01            10251 	.byte	1
00001083 02            10252 	.byte	2
00001084 00            10253 	.byte	0
00001085 0b            10254 	.byte	11
00001086 0c            10255 	.byte	12
00001087 02            10256 	.byte	2
00001088 00            10257 	.byte	0
00001089 000502        10258 	.byte	0,5,2
0000108c 00000000*     10259 	.word	.LDWlin108
00001090 0b            10260 	.byte	11
00001091 0b            10261 	.byte	11
00001092 000502        10262 	.byte	0,5,2
00001095 00000000*     10263 	.word	.LDWlin109
00001099 0d            10264 	.byte	13
0000109a 06            10265 	.byte	6
0000109b 000502        10266 	.byte	0,5,2
0000109e 00000000*     10267 	.word	.LDWlin110
000010a2 02            10268 	.byte	2
000010a3 00            10269 	.byte	0
000010a4 000502        10270 	.byte	0,5,2
000010a7 00000000*     10271 	.word	.LDWlin111
000010ab 03            10272 	.byte	3
000010ac 77            10273 	.byte	119
000010ad 02            10274 	.byte	2
000010ae 00            10275 	.byte	0
000010af 01            10276 	.byte	1
000010b0 06            10277 	.byte	6
000010b1 03            10278 	.byte	3
000010b2 0a            10279 	.byte	10
000010b3 02            10280 	.byte	2
000010b4 00            10281 	.byte	0
000010b5 01            10282 	.byte	1
000010b6 0c            10283 	.byte	12
000010b7 0b            10284 	.byte	11
000010b8 000502        10285 	.byte	0,5,2
000010bb 00000000*     10286 	.word	.LDWlin112
000010bf 0b            10287 	.byte	11
000010c0 02            10288 	.byte	2
000010c1 00            10289 	.byte	0
000010c2 02            10290 	.byte	2
000010c3 00            10291 	.byte	0
000010c4 02            10292 	.byte	2
000010c5 00            10293 	.byte	0
000010c6 0b            10294 	.byte	11
000010c7 03            10295 	.byte	3
000010c8 04            10296 	.byte	4
000010c9 02            10297 	.byte	2
000010ca 00            10298 	.byte	0
000010cb 01            10299 	.byte	1
000010cc 0c            10300 	.byte	12
000010cd 02            10301 	.byte	2
000010ce 14            10302 	.byte	20
000010cf 000101        10303 	.byte	0,1,1
                       10304 	.section	.debug_info
                       10305 .LDW_4d50720:
00002bae 1d            10306 	.byte	29
00002baf 00000000*     10307 	.word	.LDW26
00002bb3 00000000*     10308 	.word	.LDW36
                       10309 

                                                                      Page 191
                                                              C:\Users\nhuliyap\AppData\Local\Temp\gh_0000d3s1.s
                       10310 .LDW_4d52660:
00002bb7 04            10311 	.byte	4
00002bb8 64657363725f  10312 	.strz	"descr_pt"
00002bbe 707400 
00002bc1 ef07          10313 	.byte	239,7
00002bc3 20            10314 	.byte	32
00002bc4 01            10315 	.byte	1
00002bc5 00000000*     10316 	.word	.LDW_4bdefb8
00002bc9 00            10317 	.byte	0
00002bca 00            10318 	.byte	0
00002bcb 0161          10319 	.byte	1,97
                       10320 
                       10321 .LDW_4d50ae0:
00002bcd 1d            10322 	.byte	29
00002bce 00000000*     10323 	.word	.LDW46
00002bd2 00000000*     10324 	.word	.LDW56
                       10325 
                       10326 .LDW_4d53000:
00002bd6 04            10327 	.byte	4
00002bd7 72616d416464  10328 	.strz	"ramAddr"
00002bdd 7200 
00002bdf fe07          10329 	.byte	254,7
00002be1 26            10330 	.byte	38
00002be2 01            10331 	.byte	1
00002be3 00000000*     10332 	.word	.LDW_48694d0
00002be7 00            10333 	.byte	0
00002be8 00            10334 	.byte	0
00002be9 0158          10335 	.byte	1,88
                       10336 
00002beb 00            10337 	.byte	0
                       10338 
00002bec 00            10339 	.byte	0
                       10340 
00002bed 00            10341 	.byte	0
                       10342 
                       10343 .LDW_4d516d0:
00002bee 13            10344 	.byte	19
00002bef 4e764d5f4163  10345 	.strz	"NvM_ActProcessCrc"
00002bf5 7450726f6365 
00002bfb 737343726300 
00002c01 bc09          10346 	.byte	188,9
00002c03 28            10347 	.byte	40
00002c04 01            10348 	.byte	1
00002c05 00000000*     10349 	.word	_NvM_ActProcessCrc..C.3A.5C_ECU2.5CECU_Rivian_A1.5CTarget.5Crepo_projects.5CpRealEcu.5CcL_LATEST.5Cmake.5Coutput.5Cobjects.5CNvM_Act.
00002c09 00000000*     10350 	.word	___ghs_eofn_NvM_ActProcessCrc
00002c0d 0153          10351 	.byte	1,83
00002c0f 02            10352 	.byte	2
00002c10 00            10353 	.byte	0
00002c11 02            10354 	.byte	2
00002c12 00            10355 	.byte	0
00002c13 00            10356 	.byte	0
00002c14 00            10357 	.byte	0
00002c15 00            10358 	.byte	0
00002c16 00            10359 	.byte	0
00002c17 01            10360 	.byte	1
00002c18 00            10361 	.byte	0
00002c19 01            10362 	.byte	1
                       10363 
                       10364 	.section	.debug_frame
                       10365 .LDW_4ee9a98:
00000500 00000000*     10366 	.word	.LDW_unq_52-.LDW_unq_51

                                                                      Page 192
                                                              C:\Users\nhuliyap\AppData\Local\Temp\gh_0000d3s1.s
                       10367 .LDW_unq_51:
00000504 00000000*     10368 	.word	.LDW_4d14688
00000508 00000000*     10369 	.word	_NvM_ActProcessCrc..C.3A.5C_ECU2.5CECU_Rivian_A1.5CTarget.5Crepo_projects.5CpRealEcu.5CcL_LATEST.5Cmake.5Coutput.5Cobjects.5CNvM_Act.
0000050c 00000000*     10370 	.word	___ghs_eofn_NvM_ActProcessCrc-_NvM_ActProcessCrc..C.3A.5C_ECU2.5CECU_Rivian_A1.5CTarget.5Crepo_projects.5CpRealEcu.5CcL_LATEST.5Cmake.5Coutput.5Cobjects.5CNvM_Act.
00000510 01            10371 	.byte	1
00000511 00000000*     10372 	.word	.LDW501
00000515 00            10373 	.byte	0
00000516 00            10374 	.byte	0
00000517 00            10375 	.byte	0
                       10376 .LDW_unq_52:
                       10377 	.section	.debug_line
000010d2 000502        10378 	.byte	0,5,2
000010d5 00000000*     10379 	.word	_NvM_ActProcessCrc..C.3A.5C_ECU2.5CECU_Rivian_A1.5CTarget.5Crepo_projects.5CpRealEcu.5CcL_LATEST.5Cmake.5Coutput.5Cobjects.5CNvM_Act.
000010d9 06            10380 	.byte	6
000010da 03            10381 	.byte	3
000010db bc09          10382 	.byte	188,9
000010dd 02            10383 	.byte	2
000010de 00            10384 	.byte	0
000010df 01            10385 	.byte	1
000010e0 02            10386 	.byte	2
000010e1 12            10387 	.byte	18
000010e2 000101        10388 	.byte	0,1,1
                       10389 	.section	.debug_info
                       10390 .LDW_4d509f0:
00002c1a 1d            10391 	.byte	29
00002c1b 00000000*     10392 	.word	.LDW401
00002c1f 00000000*     10393 	.word	.LDW501
                       10394 
00002c23 00            10395 	.byte	0
                       10396 
00002c24 00            10397 	.byte	0
                       10398 
                       10399 .LDW_4d51768:
00002c25 13            10400 	.byte	19
00002c26 4e764d5f5570  10401 	.strz	"NvM_UpdateConfigIdBlock"
00002c2c 64617465436f 
00002c32 6e6669674964 
00002c38 426c6f636b00 
00002c3e c109          10402 	.byte	193,9
00002c40 28            10403 	.byte	40
00002c41 01            10404 	.byte	1
00002c42 00000000*     10405 	.word	_NvM_UpdateConfigIdBlock..C.3A.5C_ECU2.5CECU_Rivian_A1.5CTarget.5Crepo_projects.5CpRealEcu.5CcL_LATEST.5Cmake.5Coutput.5Cobjects.5CNvM_Act.
00002c46 00000000*     10406 	.word	___ghs_eofn_NvM_UpdateConfigIdBlock
00002c4a 0153          10407 	.byte	1,83
00002c4c 828080800a    10408 	.byte	130,128,128,128,10
00002c51 08            10409 	.byte	8
00002c52 03            10410 	.byte	3
00002c53 08            10411 	.byte	8
00002c54 00            10412 	.byte	0
00002c55 00            10413 	.byte	0
00002c56 00            10414 	.byte	0
00002c57 00            10415 	.byte	0
00002c58 01            10416 	.byte	1
00002c59 00            10417 	.byte	0
00002c5a 01            10418 	.byte	1
                       10419 
                       10420 	.section	.debug_frame
                       10421 .LDW_4e8f928:
00000518 00000000*     10422 	.word	.LDW_unq_54-.LDW_unq_53
                       10423 .LDW_unq_53:
0000051c 00000000*     10424 	.word	.LDW_4d14688

                                                                      Page 193
                                                              C:\Users\nhuliyap\AppData\Local\Temp\gh_0000d3s1.s
00000520 00000000*     10425 	.word	_NvM_UpdateConfigIdBlock..C.3A.5C_ECU2.5CECU_Rivian_A1.5CTarget.5Crepo_projects.5CpRealEcu.5CcL_LATEST.5Cmake.5Coutput.5Cobjects.5CNvM_Act.
00000524 00000000*     10426 	.word	___ghs_eofn_NvM_UpdateConfigIdBlock-_NvM_UpdateConfigIdBlock..C.3A.5C_ECU2.5CECU_Rivian_A1.5CTarget.5Crepo_projects.5CpRealEcu.5CcL_LATEST.5Cmake.5Coutput.5Cobjects.5CNvM_Act.
00000528 44            10427 	.byte	68
00000529 9f            10428 	.byte	159
0000052a 00            10429 	.byte	0
0000052b 40            10430 	.byte	64
0000052c 9d            10431 	.byte	157
0000052d 04            10432 	.byte	4
0000052e 01            10433 	.byte	1
0000052f 00000000*     10434 	.word	.LDW55
00000533 44            10435 	.byte	68
00000534 df            10436 	.byte	223
00000535 40            10437 	.byte	64
00000536 dd            10438 	.byte	221
00000537 00            10439 	.byte	0
                       10440 .LDW_unq_54:
                       10441 	.section	.debug_line
000010e5 000502        10442 	.byte	0,5,2
000010e8 00000000*     10443 	.word	_NvM_UpdateConfigIdBlock..C.3A.5C_ECU2.5CECU_Rivian_A1.5CTarget.5Crepo_projects.5CpRealEcu.5CcL_LATEST.5Cmake.5Coutput.5Cobjects.5CNvM_Act.
000010ec 03            10444 	.byte	3
000010ed c009          10445 	.byte	192,9
000010ef 02            10446 	.byte	2
000010f0 00            10447 	.byte	0
000010f1 01            10448 	.byte	1
000010f2 06            10449 	.byte	6
000010f3 1b            10450 	.byte	27
000010f4 000502        10451 	.byte	0,5,2
000010f7 00000000*     10452 	.word	.LDWlin94
000010fb 0c            10453 	.byte	12
000010fc 000502        10454 	.byte	0,5,2
000010ff 00000000*     10455 	.word	.LDWlin95
00001103 0c            10456 	.byte	12
00001104 3b            10457 	.byte	59
00001105 02            10458 	.byte	2
00001106 04            10459 	.byte	4
00001107 000101        10460 	.byte	0,1,1
                       10461 	.section	.debug_info
                       10462 .LDW_4d50840:
00002c5b 1d            10463 	.byte	29
00002c5c 00000000*     10464 	.word	.LDW45
00002c60 00000000*     10465 	.word	.LDW55
                       10466 
00002c64 00            10467 	.byte	0
                       10468 
00002c65 00            10469 	.byte	0
                       10470 
                       10471 .LDW_4d51930:
00002c66 13            10472 	.byte	19
00002c67 4e764d5f496e  10473 	.strz	"NvM_InternalCopyData"
00002c6d 7465726e616c 
00002c73 436f70794461 
00002c79 746100 
00002c7c c909          10474 	.byte	201,9
00002c7e 28            10475 	.byte	40
00002c7f 01            10476 	.byte	1
00002c80 00000000*     10477 	.word	_NvM_InternalCopyData..C.3A.5C_ECU2.5CECU_Rivian_A1.5CTarget.5Crepo_projects.5CpRealEcu.5CcL_LATEST.5Cmake.5Coutput.5Cobjects.5CNvM_Act.
00002c84 00000000*     10478 	.word	___ghs_eofn_NvM_InternalCopyData
00002c88 0153          10479 	.byte	1,83
00002c8a 02            10480 	.byte	2
00002c8b 00            10481 	.byte	0
00002c8c 02            10482 	.byte	2

                                                                      Page 194
                                                              C:\Users\nhuliyap\AppData\Local\Temp\gh_0000d3s1.s
00002c8d 00            10483 	.byte	0
00002c8e 00            10484 	.byte	0
00002c8f 00            10485 	.byte	0
00002c90 00            10486 	.byte	0
00002c91 00            10487 	.byte	0
00002c92 01            10488 	.byte	1
00002c93 00            10489 	.byte	0
00002c94 01            10490 	.byte	1
                       10491 
                       10492 	.section	.debug_frame
                       10493 .LDW_4e8f8a8:
00000538 00000000*     10494 	.word	.LDW_unq_56-.LDW_unq_55
                       10495 .LDW_unq_55:
0000053c 00000000*     10496 	.word	.LDW_4d14688
00000540 00000000*     10497 	.word	_NvM_InternalCopyData..C.3A.5C_ECU2.5CECU_Rivian_A1.5CTarget.5Crepo_projects.5CpRealEcu.5CcL_LATEST.5Cmake.5Coutput.5Cobjects.5CNvM_Act.
00000544 00000000*     10498 	.word	___ghs_eofn_NvM_InternalCopyData-_NvM_InternalCopyData..C.3A.5C_ECU2.5CECU_Rivian_A1.5CTarget.5Crepo_projects.5CpRealEcu.5CcL_LATEST.5Cmake.5Coutput.5Cobjects.5CNvM_Act.
00000548 01            10499 	.byte	1
00000549 00000000*     10500 	.word	.LDW94
0000054d 00            10501 	.byte	0
0000054e 00            10502 	.byte	0
0000054f 00            10503 	.byte	0
                       10504 .LDW_unq_56:
                       10505 	.section	.debug_line
0000110a 000502        10506 	.byte	0,5,2
0000110d 00000000*     10507 	.word	_NvM_InternalCopyData..C.3A.5C_ECU2.5CECU_Rivian_A1.5CTarget.5Crepo_projects.5CpRealEcu.5CcL_LATEST.5Cmake.5Coutput.5Cobjects.5CNvM_Act.
00001111 03            10508 	.byte	3
00001112 ca09          10509 	.byte	202,9
00001114 02            10510 	.byte	2
00001115 00            10511 	.byte	0
00001116 01            10512 	.byte	1
00001117 06            10513 	.byte	6
00001118 13            10514 	.byte	19
00001119 000502        10515 	.byte	0,5,2
0000111c 00000000*     10516 	.word	.LDWlin85
00001120 0d            10517 	.byte	13
00001121 1c            10518 	.byte	28
00001122 1b            10519 	.byte	27
00001123 14            10520 	.byte	20
00001124 000502        10521 	.byte	0,5,2
00001127 00000000*     10522 	.word	.LDWlin86
0000112b 0c            10523 	.byte	12
0000112c 1b            10524 	.byte	27
0000112d 03            10525 	.byte	3
0000112e 7d            10526 	.byte	125
0000112f 02            10527 	.byte	2
00001130 0e            10528 	.byte	14
00001131 01            10529 	.byte	1
00001132 000502        10530 	.byte	0,5,2
00001135 00000000*     10531 	.word	.LDWlin87
00001139 03            10532 	.byte	3
0000113a 04            10533 	.byte	4
0000113b 02            10534 	.byte	2
0000113c 00            10535 	.byte	0
0000113d 01            10536 	.byte	1
0000113e 0b            10537 	.byte	11
0000113f 02            10538 	.byte	2
00001140 02            10539 	.byte	2
00001141 000101        10540 	.byte	0,1,1
                       10541 	.section	.debug_info
                       10542 .LDW_4d528c8:
00002c95 0f            10543 	.byte	15

                                                                      Page 195
                                                              C:\Users\nhuliyap\AppData\Local\Temp\gh_0000d3s1.s
00002c96 696e666f5f70  10544 	.strz	"info_pt"
00002c9c 7400 
00002c9e ca09          10545 	.byte	202,9
00002ca0 1a            10546 	.byte	26
00002ca1 01            10547 	.byte	1
00002ca2 00000000*     10548 	.word	.LDW_4d52be0
00002ca6 00            10549 	.byte	0
00002ca7 016e          10550 	.byte	1,110
                       10551 
                       10552 .LDW_4d53058:
00002ca9 0f            10553 	.byte	15
00002caa 646573745074  10554 	.strz	"destPtr"
00002cb0 7200 
00002cb2 ca09          10555 	.byte	202,9
00002cb4 36            10556 	.byte	54
00002cb5 01            10557 	.byte	1
00002cb6 00000000*     10558 	.word	.LDW_48695d8
00002cba 00            10559 	.byte	0
00002cbb 0157          10560 	.byte	1,87
                       10561 
                       10562 .LDW_4d525b0:
00002cbd 0f            10563 	.byte	15
00002cbe 737263507472  10564 	.strz	"srcPtr"
00002cc4 00 
00002cc5 ca09          10565 	.byte	202,9
00002cc7 57            10566 	.byte	87
00002cc8 01            10567 	.byte	1
00002cc9 00000000*     10568 	.word	.LDW_4d52978
00002ccd 00            10569 	.byte	0
00002cce 0158          10570 	.byte	1,88
                       10571 
                       10572 .LDW_4d50a20:
00002cd0 1d            10573 	.byte	29
00002cd1 00000000*     10574 	.word	.LDW84
00002cd5 00000000*     10575 	.word	.LDW94
                       10576 
                       10577 .LDW_4d526b8:
00002cd9 04            10578 	.byte	4
00002cda 6c656e677468  10579 	.strz	"length"
00002ce0 00 
00002ce1 cc09          10580 	.byte	204,9
00002ce3 0b            10581 	.byte	11
00002ce4 01            10582 	.byte	1
00002ce5 00000000*     10583 	.word	.LDW_48697e8
00002ce9 00            10584 	.byte	0
00002cea 00            10585 	.byte	0
00002ceb 0162          10586 	.byte	1,98
                       10587 
00002ced 00            10588 	.byte	0
                       10589 
00002cee 00            10590 	.byte	0
                       10591 
                       10592 .LDW_4d519c8:
00002cef 14            10593 	.byte	20
00002cf0 4e764d5f4973  10594 	.strz	"NvM_IsWriteAllAndKilled"
00002cf6 577269746541 
00002cfc 6c6c416e644b 
00002d02 696c6c656400 
00002d08 dd09          10595 	.byte	221,9
00002d0a 2b            10596 	.byte	43
00002d0b 01            10597 	.byte	1

                                                                      Page 196
                                                              C:\Users\nhuliyap\AppData\Local\Temp\gh_0000d3s1.s
00002d0c 00000000*     10598 	.word	.LDW_48696e0
00002d10 00000000*     10599 	.word	_NvM_IsWriteAllAndKilled..C.3A.5C_ECU2.5CECU_Rivian_A1.5CTarget.5Crepo_projects.5CpRealEcu.5CcL_LATEST.5Cmake.5Coutput.5Cobjects.5CNvM_Act.
00002d14 00000000*     10600 	.word	___ghs_eofn_NvM_IsWriteAllAndKilled
00002d18 0153          10601 	.byte	1,83
00002d1a 02            10602 	.byte	2
00002d1b 00            10603 	.byte	0
00002d1c 02            10604 	.byte	2
00002d1d 00            10605 	.byte	0
00002d1e 00            10606 	.byte	0
00002d1f 00            10607 	.byte	0
00002d20 00            10608 	.byte	0
00002d21 00            10609 	.byte	0
00002d22 01            10610 	.byte	1
00002d23 00            10611 	.byte	0
00002d24 01            10612 	.byte	1
                       10613 
                       10614 	.section	.debug_abbrev
0000019f 14            10615 	.byte	20
000001a0 2e            10616 	.byte	46
000001a1 01            10617 	.byte	1
000001a2 0308          10618 	.byte	3,8
000001a4 3b0f          10619 	.byte	59,15
000001a6 390f          10620 	.byte	57,15
000001a8 3a0f          10621 	.byte	58,15
000001aa 4910          10622 	.byte	73,16
000001ac 1101          10623 	.byte	17,1
000001ae 1201          10624 	.byte	18,1
000001b0 400a          10625 	.byte	64,10
000001b2 8341          10626 	.byte	131,65
000001b4 0f            10627 	.byte	15
000001b5 8741          10628 	.byte	135,65
000001b7 0d            10629 	.byte	13
000001b8 8541          10630 	.byte	133,65
000001ba 0f            10631 	.byte	15
000001bb 8641          10632 	.byte	134,65
000001bd 0d            10633 	.byte	13
000001be 9241          10634 	.byte	146,65
000001c0 0f            10635 	.byte	15
000001c1 3c0c          10636 	.byte	60,12
000001c3 200b          10637 	.byte	32,11
000001c5 3f0c          10638 	.byte	63,12
000001c7 320b          10639 	.byte	50,11
000001c9 4c0b          10640 	.byte	76,11
000001cb 270c          10641 	.byte	39,12
000001cd 0000          10642 	.byte	0,0
                       10643 
                       10644 	.section	.debug_frame
                       10645 .LDW_4d5b6f8:
00000550 00000000*     10646 	.word	.LDW_unq_58-.LDW_unq_57
                       10647 .LDW_unq_57:
00000554 00000000*     10648 	.word	.LDW_4d14688
00000558 00000000*     10649 	.word	_NvM_IsWriteAllAndKilled..C.3A.5C_ECU2.5CECU_Rivian_A1.5CTarget.5Crepo_projects.5CpRealEcu.5CcL_LATEST.5Cmake.5Coutput.5Cobjects.5CNvM_Act.
0000055c 00000000*     10650 	.word	___ghs_eofn_NvM_IsWriteAllAndKilled-_NvM_IsWriteAllAndKilled..C.3A.5C_ECU2.5CECU_Rivian_A1.5CTarget.5Crepo_projects.5CpRealEcu.5CcL_LATEST.5Cmake.5Coutput.5Cobjects.5CNvM_Act.
00000560 01            10651 	.byte	1
00000561 00000000*     10652 	.word	.LDW31
00000565 00            10653 	.byte	0
00000566 00            10654 	.byte	0
00000567 00            10655 	.byte	0
                       10656 .LDW_unq_58:
                       10657 	.section	.debug_line
00001144 000502        10658 	.byte	0,5,2

                                                                      Page 197
                                                              C:\Users\nhuliyap\AppData\Local\Temp\gh_0000d3s1.s
00001147 00000000*     10659 	.word	_NvM_IsWriteAllAndKilled..C.3A.5C_ECU2.5CECU_Rivian_A1.5CTarget.5Crepo_projects.5CpRealEcu.5CcL_LATEST.5Cmake.5Coutput.5Cobjects.5CNvM_Act.
0000114b 03            10660 	.byte	3
0000114c dd09          10661 	.byte	221,9
0000114e 02            10662 	.byte	2
0000114f 00            10663 	.byte	0
00001150 01            10664 	.byte	1
00001151 06            10665 	.byte	6
00001152 13            10666 	.byte	19
00001153 06            10667 	.byte	6
00001154 000502        10668 	.byte	0,5,2
00001157 00000000*     10669 	.word	.LDWlin2
0000115b 02            10670 	.byte	2
0000115c 00            10671 	.byte	0
0000115d 02            10672 	.byte	2
0000115e 02            10673 	.byte	2
0000115f 000101        10674 	.byte	0,1,1
                       10675 	.section	.debug_info
                       10676 .LDW_4d52768:
00002d25 0f            10677 	.byte	15
00002d26 637572725365  10678 	.strz	"currServiceId"
00002d2c 727669636549 
00002d32 6400 
00002d34 dd09          10679 	.byte	221,9
00002d36 63            10680 	.byte	99
00002d37 01            10681 	.byte	1
00002d38 00000000*     10682 	.word	.LDW_486ea60
00002d3c 00            10683 	.byte	0
00002d3d 0156          10684 	.byte	1,86
                       10685 
                       10686 .LDW_4d52710:
00002d3f 0f            10687 	.byte	15
00002d40 637572724170  10688 	.strz	"currApiFlag"
00002d46 69466c616700 
00002d4c dd09          10689 	.byte	221,9
00002d4e 7e            10690 	.byte	126
00002d4f 01            10691 	.byte	1
00002d50 00000000*     10692 	.word	.LDW_4d52c38
00002d54 00            10693 	.byte	0
00002d55 0157          10694 	.byte	1,87
                       10695 
                       10696 .LDW_4d50930:
00002d57 1d            10697 	.byte	29
00002d58 00000000*     10698 	.word	.LDW21
00002d5c 00000000*     10699 	.word	.LDW31
                       10700 
00002d60 00            10701 	.byte	0
                       10702 
00002d61 00            10703 	.byte	0
                       10704 
                       10705 .LDW_4d55108:
00002d62 13            10706 	.byte	19
00002d63 4e764d5f496e  10707 	.strz	"NvM_IntUpdateCurrentBlockNVRAMStatus"
00002d69 745570646174 
00002d6f 654375727265 
00002d75 6e74426c6f63 
00002d7b 6b4e5652414d 
00002d81 537461747573 
00002d87 00 
00002d88 e309          10708 	.byte	227,9
00002d8a 28            10709 	.byte	40
00002d8b 01            10710 	.byte	1

                                                                      Page 198
                                                              C:\Users\nhuliyap\AppData\Local\Temp\gh_0000d3s1.s
00002d8c 00000000*     10711 	.word	_NvM_IntUpdateCurrentBlockNVRAMStatus..C.3A.5C_ECU2.5CECU_Rivian_A1.5CTarget.5Crepo_projects.5CpRealEcu.5CcL_LATEST.5Cmake.5Coutput.5Cobjects.5CNvM_Act.
00002d90 00000000*     10712 	.word	___ghs_eofn_NvM_IntUpdateCurrentBlockNVRAMStatus
00002d94 0153          10713 	.byte	1,83
00002d96 02            10714 	.byte	2
00002d97 00            10715 	.byte	0
00002d98 02            10716 	.byte	2
00002d99 00            10717 	.byte	0
00002d9a 00            10718 	.byte	0
00002d9b 00            10719 	.byte	0
00002d9c 00            10720 	.byte	0
00002d9d 00            10721 	.byte	0
00002d9e 01            10722 	.byte	1
00002d9f 00            10723 	.byte	0
00002da0 01            10724 	.byte	1
                       10725 
                       10726 	.section	.debug_frame
                       10727 .LDW_4e8f128:
00000568 00000000*     10728 	.word	.LDW_unq_5a-.LDW_unq_59
                       10729 .LDW_unq_59:
0000056c 00000000*     10730 	.word	.LDW_4d14688
00000570 00000000*     10731 	.word	_NvM_IntUpdateCurrentBlockNVRAMStatus..C.3A.5C_ECU2.5CECU_Rivian_A1.5CTarget.5Crepo_projects.5CpRealEcu.5CcL_LATEST.5Cmake.5Coutput.5Cobjects.5CNvM_Act.
00000574 00000000*     10732 	.word	___ghs_eofn_NvM_IntUpdateCurrentBlockNVRAMStatus-_NvM_IntUpdateCurrentBlockNVRAMStatus..C.3A.5C_ECU2.5CECU_Rivian_A1.5CTarget.5Crepo_projects.5CpRealEcu.5CcL_LATEST.5Cmake.5Coutput.5Cobjects.5CNvM_Act.
00000578 01            10733 	.byte	1
00000579 00000000*     10734 	.word	.LDW33
0000057d 00            10735 	.byte	0
0000057e 00            10736 	.byte	0
0000057f 00            10737 	.byte	0
                       10738 .LDW_unq_5a:
                       10739 	.section	.debug_line
00001162 000502        10740 	.byte	0,5,2
00001165 00000000*     10741 	.word	_NvM_IntUpdateCurrentBlockNVRAMStatus..C.3A.5C_ECU2.5CECU_Rivian_A1.5CTarget.5Crepo_projects.5CpRealEcu.5CcL_LATEST.5Cmake.5Coutput.5Cobjects.5CNvM_Act.
00001169 06            10742 	.byte	6
0000116a 03            10743 	.byte	3
0000116b e409          10744 	.byte	228,9
0000116d 02            10745 	.byte	2
0000116e 00            10746 	.byte	0
0000116f 01            10747 	.byte	1
00001170 06            10748 	.byte	6
00001171 000502        10749 	.byte	0,5,2
00001174 00000000*     10750 	.word	.LDWlin48
00001178 03            10751 	.byte	3
00001179 05            10752 	.byte	5
0000117a 02            10753 	.byte	2
0000117b 00            10754 	.byte	0
0000117c 01            10755 	.byte	1
0000117d 03            10756 	.byte	3
0000117e 7d            10757 	.byte	125
0000117f 02            10758 	.byte	2
00001180 00            10759 	.byte	0
00001181 01            10760 	.byte	1
00001182 03            10761 	.byte	3
00001183 7e            10762 	.byte	126
00001184 02            10763 	.byte	2
00001185 00            10764 	.byte	0
00001186 01            10765 	.byte	1
00001187 06            10766 	.byte	6
00001188 000502        10767 	.byte	0,5,2
0000118b 00000000*     10768 	.word	.LDWlin49
0000118f 03            10769 	.byte	3
00001190 06            10770 	.byte	6
00001191 02            10771 	.byte	2

                                                                      Page 199
                                                              C:\Users\nhuliyap\AppData\Local\Temp\gh_0000d3s1.s
00001192 00            10772 	.byte	0
00001193 01            10773 	.byte	1
00001194 02            10774 	.byte	2
00001195 00            10775 	.byte	0
00001196 0b            10776 	.byte	11
00001197 02            10777 	.byte	2
00001198 02            10778 	.byte	2
00001199 000101        10779 	.byte	0,1,1
                       10780 	.section	.debug_info
                       10781 .LDW_4d52920:
00002da1 0f            10782 	.byte	15
00002da2 726573756c74  10783 	.strz	"result"
00002da8 00 
00002da9 e309          10784 	.byte	227,9
00002dab 69            10785 	.byte	105
00002dac 01            10786 	.byte	1
00002dad 00000000*     10787 	.word	.LDW_4d527c0
00002db1 00            10788 	.byte	0
00002db2 0156          10789 	.byte	1,86
                       10790 
                       10791 .LDW_4d506c0:
00002db4 1d            10792 	.byte	29
00002db5 00000000*     10793 	.word	.LDW23
00002db9 00000000*     10794 	.word	.LDW33
                       10795 
00002dbd 00            10796 	.byte	0
                       10797 
00002dbe 00            10798 	.byte	0
                       10799 
00002dbf 00            10800 	.byte	0
                       10801 
                       10802 	.section	.debug_line
                       10803 .Ldw_line_end:
                       10804 	.section	.debug_macinfo
00000000 01            10805 	.byte	1
00000001 00            10806 	.byte	0
00000002 5f5f6768735f  10807 	.strz	"__ghs__ 1"
00000008 5f203100 
0000000c 01            10808 	.byte	1
0000000d 00            10809 	.byte	0
0000000e 5f5f4c4c4f4e  10810 	.strz	"__LLONG_BIT 64"
00000014 475f42495420 
0000001a 363400 
0000001d 01            10811 	.byte	1
0000001e 00            10812 	.byte	0
0000001f 4e4f545f5245  10813 	.strz	"NOT_READY_FOR_TESTING_OR_DEPLOYMENT 1"
00000025 4144595f464f 
0000002b 525f54455354 
00000031 494e475f4f52 
00000037 5f4445504c4f 
0000003d 594d454e5420 
00000043 3100 
00000045 03            10814 	.byte	3
00000046 00            10815 	.byte	0
00000047 01            10816 	.byte	1
00000048 03            10817 	.byte	3
00000049 05            10818 	.byte	5
0000004a 02            10819 	.byte	2
0000004b 03            10820 	.byte	3
0000004c 1c            10821 	.byte	28
0000004d 03            10822 	.byte	3

                                                                      Page 200
                                                              C:\Users\nhuliyap\AppData\Local\Temp\gh_0000d3s1.s
0000004e 01            10823 	.byte	1
0000004f 3c            10824 	.byte	60
00000050 545255452031  10825 	.strz	"TRUE 1u"
00000056 7500 
00000058 01            10826 	.byte	1
00000059 40            10827 	.byte	64
0000005a 46414c534520  10828 	.strz	"FALSE 0u"
00000060 307500 
00000063 04            10829 	.byte	4
00000064 03            10830 	.byte	3
00000065 1d            10831 	.byte	29
00000066 04            10832 	.byte	4
00000067 03            10833 	.byte	3
00000068 1b            10834 	.byte	27
00000069 05            10835 	.byte	5
0000006a 03            10836 	.byte	3
0000006b 54            10837 	.byte	84
0000006c 06            10838 	.byte	6
0000006d 04            10839 	.byte	4
0000006e 04            10840 	.byte	4
0000006f 01            10841 	.byte	1
00000070 2f            10842 	.byte	47
00000071 4e554c4c5f50  10843 	.strz	"NULL_PTR ((void *)0)"
00000077 545220282876 
0000007d 6f6964202a29 
00000083 302900 
00000086 01            10844 	.byte	1
00000087 34            10845 	.byte	52
00000088 46554e432872  10846 	.strz	"FUNC(rettype,memclass) rettype"
0000008e 657474797065 
00000094 2c6d656d636c 
0000009a 617373292072 
000000a0 657474797065 
000000a6 00 
000000a7 01            10847 	.byte	1
000000a8 37            10848 	.byte	55
000000a9 503256415228  10849 	.strz	"P2VAR(ptrtype,memclass,ptrclass) ptrtype*"
000000af 707472747970 
000000b5 652c6d656d63 
000000bb 6c6173732c70 
000000c1 7472636c6173 
000000c7 732920707472 
000000cd 747970652a00 
000000d3 01            10850 	.byte	1
000000d4 38            10851 	.byte	56
000000d5 5032434f4e53  10852 	.strz	"P2CONST(ptrtype,memclass,ptrclass) const ptrtype*"
000000db 542870747274 
000000e1 7970652c6d65 
000000e7 6d636c617373 
000000ed 2c707472636c 
000000f3 617373292063 
000000f9 6f6e73742070 
000000ff 747274797065 
00000105 2a00 
00000107 01            10853 	.byte	1
00000108 3b            10854 	.byte	59
00000109 503246554e43  10855 	.strz	"P2FUNC(rettype,ptrclass,fctname) rettype (*fctname)"
0000010f 287265747479 
00000115 70652c707472 
0000011b 636c6173732c 
00000121 6663746e616d 

                                                                      Page 201
                                                              C:\Users\nhuliyap\AppData\Local\Temp\gh_0000d3s1.s
00000127 652920726574 
0000012d 747970652028 
00000133 2a6663746e61 
00000139 6d652900 
0000013d 01            10856 	.byte	1
0000013e 3d            10857 	.byte	61
0000013f 434f4e535428  10858 	.strz	"CONST(type,memclass) const type"
00000145 747970652c6d 
0000014b 656d636c6173 
00000151 732920636f6e 
00000157 737420747970 
0000015d 6500 
0000015f 01            10859 	.byte	1
00000160 3e            10860 	.byte	62
00000161 564152287661  10861 	.strz	"VAR(vartype,memclass) vartype"
00000167 72747970652c 
0000016d 6d656d636c61 
00000173 737329207661 
00000179 727479706500 
0000017f 04            10862 	.byte	4
00000180 01            10863 	.byte	1
00000181 3c            10864 	.byte	60
00000182 5354445f4f4e  10865 	.strz	"STD_ON 1u"
00000188 20317500 
0000018c 01            10866 	.byte	1
0000018d 3d            10867 	.byte	61
0000018e 5354445f4f46  10868 	.strz	"STD_OFF 0u"
00000194 4620307500 
00000199 01            10869 	.byte	1
0000019a 3e            10870 	.byte	62
0000019b 455f4f4b2030  10871 	.strz	"E_OK 0u"
000001a1 7500 
000001a3 04            10872 	.byte	4
000001a4 03            10873 	.byte	3
000001a5 07            10874 	.byte	7
000001a6 07            10875 	.byte	7
000001a7 01            10876 	.byte	1
000001a8 1b            10877 	.byte	27
000001a9 4e564d5f4346  10878 	.strz	"NVM_CFG_MAJOR_VERSION (5u)"
000001af 475f4d414a4f 
000001b5 525f56455253 
000001bb 494f4e202835 
000001c1 752900 
000001c4 01            10879 	.byte	1
000001c5 1c            10880 	.byte	28
000001c6 4e564d5f4346  10881 	.strz	"NVM_CFG_MINOR_VERSION (7u)"
000001cc 475f4d494e4f 
000001d2 525f56455253 
000001d8 494f4e202837 
000001de 752900 
000001e1 03            10882 	.byte	3
000001e2 1f            10883 	.byte	31
000001e3 08            10884 	.byte	8
000001e4 03            10885 	.byte	3
000001e5 04            10886 	.byte	4
000001e6 09            10887 	.byte	9
000001e7 04            10888 	.byte	4
000001e8 03            10889 	.byte	3
000001e9 05            10890 	.byte	5
000001ea 0a            10891 	.byte	10
000001eb 03            10892 	.byte	3

                                                                      Page 202
                                                              C:\Users\nhuliyap\AppData\Local\Temp\gh_0000d3s1.s
000001ec 06            10893 	.byte	6
000001ed 0b            10894 	.byte	11
000001ee 03            10895 	.byte	3
000001ef 1b            10896 	.byte	27
000001f0 0c            10897 	.byte	12
000001f1 01            10898 	.byte	1
000001f2 04            10899 	.byte	4
000001f3 44454d5f5459  10900 	.strz	"DEM_TYPES_H "
000001f9 5045535f4820 
000001ff 00 
00000200 03            10901 	.byte	3
00000201 07            10902 	.byte	7
00000202 0d            10903 	.byte	13
00000203 01            10904 	.byte	1
00000204 1f            10905 	.byte	31
00000205 44454d5f4346  10906 	.strz	"DEM_CFG_OBD_OFF 0"
0000020b 475f4f42445f 
00000211 4f4646203000 
00000217 01            10907 	.byte	1
00000218 20            10908 	.byte	32
00000219 44454d5f4346  10909 	.strz	"DEM_CFG_OBD_ON 1"
0000021f 475f4f42445f 
00000225 4f4e203100 
0000022a 01            10910 	.byte	1
0000022b 21            10911 	.byte	33
0000022c 44454d5f4346  10912 	.strz	"DEM_CFG_OBD DEM_CFG_OBD_OFF"
00000232 475f4f424420 
00000238 44454d5f4346 
0000023e 475f4f42445f 
00000244 4f464600 
00000248 01            10913 	.byte	1
00000249 23            10914 	.byte	35
0000024a 44454d5f4346  10915 	.strz	"DEM_CFG_J1939DCM_OFF 0"
00000250 475f4a313933 
00000256 3944434d5f4f 
0000025c 4646203000 
00000261 01            10916 	.byte	1
00000262 25            10917 	.byte	37
00000263 44454d5f4346  10918 	.strz	"DEM_CFG_J1939DCM DEM_CFG_J1939DCM_OFF"
00000269 475f4a313933 
0000026f 3944434d2044 
00000275 454d5f434647 
0000027b 5f4a31393339 
00000281 44434d5f4f46 
00000287 4600 
00000289 01            10919 	.byte	1
0000028a 31            10920 	.byte	49
0000028b 44454d5f4246  10921 	.strz	"DEM_BFM_ON TRUE"
00000291 4d5f4f4e2054 
00000297 52554500 
0000029b 01            10922 	.byte	1
0000029c 34            10923 	.byte	52
0000029d 44454d5f4246  10924 	.strz	"DEM_BFM_OFF FALSE"
000002a3 4d5f4f464620 
000002a9 46414c534500 
000002af 01            10925 	.byte	1
000002b0 3e            10926 	.byte	62
000002b1 44454d5f4246  10927 	.strz	"DEM_BFM_ENABLED DEM_BFM_OFF"
000002b7 4d5f454e4142 
000002bd 4c4544204445 
000002c3 4d5f42464d5f 

                                                                      Page 203
                                                              C:\Users\nhuliyap\AppData\Local\Temp\gh_0000d3s1.s
000002c9 4f464600 
000002cd 01            10928 	.byte	1
000002ce 65            10929 	.byte	101
000002cf 44454d5f4346  10930 	.strz	"DEM_CFG_DEBUGDATA_OFF 0"
000002d5 475f44454255 
000002db 47444154415f 
000002e1 4f4646203000 
000002e7 01            10931 	.byte	1
000002e8 67            10932 	.byte	103
000002e9 44454d5f4346  10933 	.strz	"DEM_CFG_DEBUGDATA_32BIT (0+4)"
000002ef 475f44454255 
000002f5 47444154415f 
000002fb 333242495420 
00000301 28302b342900 
00000307 01            10934 	.byte	1
00000308 68            10935 	.byte	104
00000309 44454d5f4346  10936 	.strz	"DEM_CFG_DEBUGDATA DEM_CFG_DEBUGDATA_32BIT"
0000030f 475f44454255 
00000315 474441544120 
0000031b 44454d5f4346 
00000321 475f44454255 
00000327 47444154415f 
0000032d 333242495400 
00000333 04            10937 	.byte	4
00000334 03            10938 	.byte	3
00000335 08            10939 	.byte	8
00000336 0e            10940 	.byte	14
00000337 03            10941 	.byte	3
00000338 1c            10942 	.byte	28
00000339 0f            10943 	.byte	15
0000033a 03            10944 	.byte	3
0000033b 06            10945 	.byte	6
0000033c 0c            10946 	.byte	12
0000033d 04            10947 	.byte	4
0000033e 04            10948 	.byte	4
0000033f 04            10949 	.byte	4
00000340 03            10950 	.byte	3
00000341 09            10951 	.byte	9
00000342 10            10952 	.byte	16
00000343 01            10953 	.byte	1
00000344 22            10954 	.byte	34
00000345 44454d5f4e4f  10955 	.strz	"DEM_NODEID_COUNT 0u"
0000034b 444549445f43 
00000351 4f554e542030 
00000357 7500 
00000359 01            10956 	.byte	1
0000035a 23            10957 	.byte	35
0000035b 44454d5f4e4f  10958 	.strz	"DEM_NODEID_ARRAYLENGTH (DEM_NODEID_COUNT+1u)"
00000361 444549445f41 
00000367 525241594c45 
0000036d 4e4754482028 
00000373 44454d5f4e4f 
00000379 444549445f43 
0000037f 4f554e542b31 
00000385 752900 
00000388 04            10959 	.byte	4
00000389 03            10960 	.byte	3
0000038a 0f            10961 	.byte	15
0000038b 11            10962 	.byte	17
0000038c 04            10963 	.byte	4
0000038d 03            10964 	.byte	3

                                                                      Page 204
                                                              C:\Users\nhuliyap\AppData\Local\Temp\gh_0000d3s1.s
0000038e 10            10965 	.byte	16
0000038f 12            10966 	.byte	18
00000390 04            10967 	.byte	4
00000391 04            10968 	.byte	4
00000392 01            10969 	.byte	1
00000393 38            10970 	.byte	56
00000394 44454d5f5354  10971 	.strz	"DEM_START_SEC_CODE "
0000039a 4152545f5345 
000003a0 435f434f4445 
000003a6 2000 
000003a8 03            10972 	.byte	3
000003a9 39            10973 	.byte	57
000003aa 13            10974 	.byte	19
000003ab 03            10975 	.byte	3
000003ac 08            10976 	.byte	8
000003ad 14            10977 	.byte	20
000003ae 01            10978 	.byte	1
000003af 06            10979 	.byte	6
000003b0 44454d5f4d45  10980 	.strz	"DEM_MEMMAP_ERROR "
000003b6 4d4d41505f45 
000003bc 52524f522000 
000003c2 01            10981 	.byte	1
000003c3 51            10982 	.byte	81
000003c4 4253575f5354  10983 	.strz	"BSW_START_SEC_CODE "
000003ca 4152545f5345 
000003d0 435f434f4445 
000003d6 2000 
000003d8 03            10984 	.byte	3
000003d9 52            10985 	.byte	82
000003da 15            10986 	.byte	21
000003db 01            10987 	.byte	1
000003dc e408          10988 	.byte	228,8
000003de 53544152545f  10989 	.strz	"START_SEC_CODE "
000003e4 5345435f434f 
000003ea 44452000 
000003ee 03            10990 	.byte	3
000003ef c509          10991 	.byte	197,9
000003f1 16            10992 	.byte	22
000003f2 01            10993 	.byte	1
000003f3 f407          10994 	.byte	244,7
000003f5 434f44455f53  10995 	.strz	"CODE_SEC_OPEN "
000003fb 45435f4f5045 
00000401 4e2000 
00000404 04            10996 	.byte	4
00000405 04            10997 	.byte	4
00000406 01            10998 	.byte	1
00000407 56            10999 	.byte	86
00000408 44454d5f5741  11000 	.strz	"DEM_WAS_STARTED_SEC_CODE "
0000040e 535f53544152 
00000414 5445445f5345 
0000041a 435f434f4445 
00000420 2000 
00000422 04            11001 	.byte	4
00000423 04            11002 	.byte	4
00000424 01            11003 	.byte	1
00000425 4e            11004 	.byte	78
00000426 44454d5f5354  11005 	.strz	"DEM_STOP_SEC_CODE "
0000042c 4f505f534543 
00000432 5f434f444520 
00000438 00 
00000439 03            11006 	.byte	3

                                                                      Page 205
                                                              C:\Users\nhuliyap\AppData\Local\Temp\gh_0000d3s1.s
0000043a 4f            11007 	.byte	79
0000043b 13            11008 	.byte	19
0000043c 03            11009 	.byte	3
0000043d 08            11010 	.byte	8
0000043e 14            11011 	.byte	20
0000043f 01            11012 	.byte	1
00000440 06            11013 	.byte	6
00000441 44454d5f4d45  11014 	.strz	"DEM_MEMMAP_ERROR "
00000447 4d4d41505f45 
0000044d 52524f522000 
00000453 01            11015 	.byte	1
00000454 5e            11016 	.byte	94
00000455 4253575f5354  11017 	.strz	"BSW_STOP_SEC_CODE "
0000045b 4f505f534543 
00000461 5f434f444520 
00000467 00 
00000468 03            11018 	.byte	3
00000469 5f            11019 	.byte	95
0000046a 15            11020 	.byte	21
0000046b 01            11021 	.byte	1
0000046c e808          11022 	.byte	232,8
0000046e 53544f505f53  11023 	.strz	"STOP_SEC_CODE "
00000474 45435f434f44 
0000047a 452000 
0000047d 03            11024 	.byte	3
0000047e c509          11025 	.byte	197,9
00000480 16            11026 	.byte	22
00000481 04            11027 	.byte	4
00000482 04            11028 	.byte	4
00000483 04            11029 	.byte	4
00000484 04            11030 	.byte	4
00000485 04            11031 	.byte	4
00000486 01            11032 	.byte	1
00000487 10            11033 	.byte	16
00000488 44454d5f5354  11034 	.strz	"DEM_START_SEC_CODE "
0000048e 4152545f5345 
00000494 435f434f4445 
0000049a 2000 
0000049c 03            11035 	.byte	3
0000049d 11            11036 	.byte	17
0000049e 13            11037 	.byte	19
0000049f 03            11038 	.byte	3
000004a0 08            11039 	.byte	8
000004a1 14            11040 	.byte	20
000004a2 01            11041 	.byte	1
000004a3 06            11042 	.byte	6
000004a4 44454d5f4d45  11043 	.strz	"DEM_MEMMAP_ERROR "
000004aa 4d4d41505f45 
000004b0 52524f522000 
000004b6 01            11044 	.byte	1
000004b7 51            11045 	.byte	81
000004b8 4253575f5354  11046 	.strz	"BSW_START_SEC_CODE "
000004be 4152545f5345 
000004c4 435f434f4445 
000004ca 2000 
000004cc 03            11047 	.byte	3
000004cd 52            11048 	.byte	82
000004ce 15            11049 	.byte	21
000004cf 01            11050 	.byte	1
000004d0 e408          11051 	.byte	228,8
000004d2 53544152545f  11052 	.strz	"START_SEC_CODE "

                                                                      Page 206
                                                              C:\Users\nhuliyap\AppData\Local\Temp\gh_0000d3s1.s
000004d8 5345435f434f 
000004de 44452000 
000004e2 03            11053 	.byte	3
000004e3 c509          11054 	.byte	197,9
000004e5 16            11055 	.byte	22
000004e6 01            11056 	.byte	1
000004e7 f407          11057 	.byte	244,7
000004e9 434f44455f53  11058 	.strz	"CODE_SEC_OPEN "
000004ef 45435f4f5045 
000004f5 4e2000 
000004f8 04            11059 	.byte	4
000004f9 04            11060 	.byte	4
000004fa 01            11061 	.byte	1
000004fb 56            11062 	.byte	86
000004fc 44454d5f5741  11063 	.strz	"DEM_WAS_STARTED_SEC_CODE "
00000502 535f53544152 
00000508 5445445f5345 
0000050e 435f434f4445 
00000514 2000 
00000516 04            11064 	.byte	4
00000517 04            11065 	.byte	4
00000518 01            11066 	.byte	1
00000519 2b            11067 	.byte	43
0000051a 44454d5f5354  11068 	.strz	"DEM_STOP_SEC_CODE "
00000520 4f505f534543 
00000526 5f434f444520 
0000052c 00 
0000052d 03            11069 	.byte	3
0000052e 2c            11070 	.byte	44
0000052f 13            11071 	.byte	19
00000530 03            11072 	.byte	3
00000531 08            11073 	.byte	8
00000532 14            11074 	.byte	20
00000533 01            11075 	.byte	1
00000534 06            11076 	.byte	6
00000535 44454d5f4d45  11077 	.strz	"DEM_MEMMAP_ERROR "
0000053b 4d4d41505f45 
00000541 52524f522000 
00000547 01            11078 	.byte	1
00000548 5e            11079 	.byte	94
00000549 4253575f5354  11080 	.strz	"BSW_STOP_SEC_CODE "
0000054f 4f505f534543 
00000555 5f434f444520 
0000055b 00 
0000055c 03            11081 	.byte	3
0000055d 5f            11082 	.byte	95
0000055e 15            11083 	.byte	21
0000055f 01            11084 	.byte	1
00000560 e808          11085 	.byte	232,8
00000562 53544f505f53  11086 	.strz	"STOP_SEC_CODE "
00000568 45435f434f44 
0000056e 452000 
00000571 03            11087 	.byte	3
00000572 c509          11088 	.byte	197,9
00000574 16            11089 	.byte	22
00000575 04            11090 	.byte	4
00000576 04            11091 	.byte	4
00000577 04            11092 	.byte	4
00000578 04            11093 	.byte	4
00000579 04            11094 	.byte	4
0000057a 03            11095 	.byte	3

                                                                      Page 207
                                                              C:\Users\nhuliyap\AppData\Local\Temp\gh_0000d3s1.s
0000057b 06            11096 	.byte	6
0000057c 17            11097 	.byte	23
0000057d 04            11098 	.byte	4
0000057e 03            11099 	.byte	3
0000057f 07            11100 	.byte	7
00000580 18            11101 	.byte	24
00000581 03            11102 	.byte	3
00000582 06            11103 	.byte	6
00000583 19            11104 	.byte	25
00000584 01            11105 	.byte	1
00000585 0e            11106 	.byte	14
00000586 50524f445543  11107 	.strz	"PRODUCTION_SW 0x0"
0000058c 54494f4e5f53 
00000592 572030783000 
00000598 01            11108 	.byte	1
00000599 0f            11109 	.byte	15
0000059a 444556454c4f  11110 	.strz	"DEVELOPMENT_SW 0x1"
000005a0 504d454e545f 
000005a6 535720307831 
000005ac 00 
000005ad 01            11111 	.byte	1
000005ae 10            11112 	.byte	16
000005af 53575f434154  11113 	.strz	"SW_CATEGORY PRODUCTION_SW"
000005b5 45474f525920 
000005bb 50524f445543 
000005c1 54494f4e5f53 
000005c7 5700 
000005c9 04            11114 	.byte	4
000005ca 01            11115 	.byte	1
000005cb 08            11116 	.byte	8
000005cc 4d41585f5349  11117 	.strz	"MAX_SIZE_WS_TELEGRAM 16U"
000005d2 5a455f57535f 
000005d8 54454c454752 
000005de 414d20313655 
000005e4 00 
000005e5 01            11118 	.byte	1
000005e6 11            11119 	.byte	17
000005e7 4e564d5f424c  11120 	.strz	"NVM_BLOCK_TYPE uint32"
000005ed 4f434b5f5459 
000005f3 50452075696e 
000005f9 74333200 
000005fd 04            11121 	.byte	4
000005fe 04            11122 	.byte	4
000005ff 03            11123 	.byte	3
00000600 20            11124 	.byte	32
00000601 1a            11125 	.byte	26
00000602 01            11126 	.byte	1
00000603 13            11127 	.byte	19
00000604 4e564d5f5245  11128 	.strz	"NVM_REQ_OK (0u)"
0000060a 515f4f4b2028 
00000610 30752900 
00000614 01            11129 	.byte	1
00000615 16            11130 	.byte	22
00000616 4e564d5f5245  11131 	.strz	"NVM_REQ_NOT_OK (1u)"
0000061c 515f4e4f545f 
00000622 4f4b20283175 
00000628 2900 
0000062a 01            11132 	.byte	1
0000062b 19            11133 	.byte	25
0000062c 4e564d5f5245  11134 	.strz	"NVM_REQ_PENDING (2u)"
00000632 515f50454e44 

                                                                      Page 208
                                                              C:\Users\nhuliyap\AppData\Local\Temp\gh_0000d3s1.s
00000638 494e47202832 
0000063e 752900 
00000641 01            11135 	.byte	1
00000642 1c            11136 	.byte	28
00000643 4e564d5f5245  11137 	.strz	"NVM_REQ_INTEGRITY_FAILED (3u)"
00000649 515f494e5445 
0000064f 47524954595f 
00000655 4641494c4544 
0000065b 202833752900 
00000661 01            11138 	.byte	1
00000662 1f            11139 	.byte	31
00000663 4e564d5f5245  11140 	.strz	"NVM_REQ_BLOCK_SKIPPED (4u)"
00000669 515f424c4f43 
0000066f 4b5f534b4950 
00000675 504544202834 
0000067b 752900 
0000067e 01            11141 	.byte	1
0000067f 22            11142 	.byte	34
00000680 4e564d5f5245  11143 	.strz	"NVM_REQ_NV_INVALIDATED (5u)"
00000686 515f4e565f49 
0000068c 4e56414c4944 
00000692 415445442028 
00000698 35752900 
0000069c 01            11144 	.byte	1
0000069d 25            11145 	.byte	37
0000069e 4e564d5f5245  11146 	.strz	"NVM_REQ_CANCELED (6u)"
000006a4 515f43414e43 
000006aa 454c45442028 
000006b0 36752900 
000006b4 01            11147 	.byte	1
000006b5 42            11148 	.byte	66
000006b6 4e564d5f5245  11149 	.strz	"NVM_READ_ALL (12u)"
000006bc 41445f414c4c 
000006c2 202831327529 
000006c8 00 
000006c9 01            11150 	.byte	1
000006ca 5d            11151 	.byte	93
000006cb 4e564d5f5752  11152 	.strz	"NVM_WRITE_ALL (13u)"
000006d1 4954455f414c 
000006d7 4c2028313375 
000006dd 2900 
000006df 04            11153 	.byte	4
000006e0 01            11154 	.byte	1
000006e1 25            11155 	.byte	37
000006e2 4e564d5f4445  11156 	.strz	"NVM_DEV_ERROR_DETECT (STD_OFF)"
000006e8 565f4552524f 
000006ee 525f44455445 
000006f4 435420285354 
000006fa 445f4f464629 
00000700 00 
00000701 01            11157 	.byte	1
00000702 26            11158 	.byte	38
00000703 4e564d5f4459  11159 	.strz	"NVM_DYNAMIC_CONFIGURATION (STD_ON)"
00000709 4e414d49435f 
0000070f 434f4e464947 
00000715 55524154494f 
0000071b 4e2028535444 
00000721 5f4f4e2900 
00000726 01            11160 	.byte	1
00000727 27            11161 	.byte	39
00000728 4e564d5f4150  11162 	.strz	"NVM_API_CONFIG_CLASS_1 (1u)"

                                                                      Page 209
                                                              C:\Users\nhuliyap\AppData\Local\Temp\gh_0000d3s1.s
0000072e 495f434f4e46 
00000734 49475f434c41 
0000073a 53535f312028 
00000740 31752900 
00000744 01            11163 	.byte	1
00000745 29            11164 	.byte	41
00000746 4e564d5f4150  11165 	.strz	"NVM_API_CONFIG_CLASS_3 (7u)"
0000074c 495f434f4e46 
00000752 49475f434c41 
00000758 53535f332028 
0000075e 37752900 
00000762 01            11166 	.byte	1
00000763 2a            11167 	.byte	42
00000764 4e564d5f4150  11168 	.strz	"NVM_API_CONFIG_CLASS (NVM_API_CONFIG_CLASS_3)"
0000076a 495f434f4e46 
00000770 49475f434c41 
00000776 535320284e56 
0000077c 4d5f4150495f 
00000782 434f4e464947 
00000788 5f434c415353 
0000078e 5f332900 
00000792 01            11169 	.byte	1
00000793 2b            11170 	.byte	43
00000794 4e564d5f4a4f  11171 	.strz	"NVM_JOB_PRIORISATION STD_OFF"
0000079a 425f5052494f 
000007a0 524953415449 
000007a6 4f4e20535444 
000007ac 5f4f464600 
000007b1 01            11172 	.byte	1
000007b2 2d            11173 	.byte	45
000007b3 4e564d5f4452  11174 	.strz	"NVM_DRV_MODE_SWITCH (STD_ON)"
000007b9 565f4d4f4445 
000007bf 5f5357495443 
000007c5 482028535444 
000007cb 5f4f4e2900 
000007d0 01            11175 	.byte	1
000007d1 2f            11176 	.byte	47
000007d2 4e564d5f4352  11177 	.strz	"NVM_CRC_INT_BUFFER (STD_ON)"
000007d8 435f494e545f 
000007de 425546464552 
000007e4 20285354445f 
000007ea 4f4e2900 
000007ee 01            11178 	.byte	1
000007ef 33            11179 	.byte	51
000007f0 4e564d5f5345  11180 	.strz	"NVM_SET_RAM_BLOCK_STATUS_API (STD_ON)"
000007f6 545f52414d5f 
000007fc 424c4f434b5f 
00000802 535441545553 
00000808 5f4150492028 
0000080e 5354445f4f4e 
00000814 2900 
00000816 01            11181 	.byte	1
00000817 34            11182 	.byte	52
00000818 4e564d5f4b49  11183 	.strz	"NVM_KILL_WRITEALL_API (STD_ON)"
0000081e 4c4c5f575249 
00000824 5445414c4c5f 
0000082a 415049202853 
00000830 54445f4f4e29 
00000836 00 
00000837 01            11184 	.byte	1
00000838 35            11185 	.byte	53

                                                                      Page 210
                                                              C:\Users\nhuliyap\AppData\Local\Temp\gh_0000d3s1.s
00000839 4e564d5f5245  11186 	.strz	"NVM_REPAIR_REDUNDANT_BLOCKS_API (STD_OFF)"
0000083f 504149525f52 
00000845 4544554e4441 
0000084b 4e545f424c4f 
00000851 434b535f4150 
00000857 492028535444 
0000085d 5f4f46462900 
00000863 01            11187 	.byte	1
00000864 37            11188 	.byte	55
00000865 4e564d5f4443  11189 	.strz	"NVM_DCM_BLOCK_OFFSET 0x8000u"
0000086b 4d5f424c4f43 
00000871 4b5f4f464653 
00000877 455420307838 
0000087d 3030307500 
00000882 01            11190 	.byte	1
00000883 a001          11191 	.byte	160,1
00000885 4e564d5f5354  11192 	.strz	"NVM_START_SEC_CONST_DESCRIPTOR_TABLE "
0000088b 4152545f5345 
00000891 435f434f4e53 
00000897 545f44455343 
0000089d 524950544f52 
000008a3 5f5441424c45 
000008a9 2000 
000008ab 03            11193 	.byte	3
000008ac a101          11194 	.byte	161,1
000008ae 1b            11195 	.byte	27
000008af 01            11196 	.byte	1
000008b0 02            11197 	.byte	2
000008b1 4d454d4d4150  11198 	.strz	"MEMMAP_VENDOR_ID (30u)"
000008b7 5f56454e444f 
000008bd 525f49442028 
000008c3 3330752900 
000008c8 01            11199 	.byte	1
000008c9 08            11200 	.byte	8
000008ca 4d454d4d4150  11201 	.strz	"MEMMAP_AR_RELEASE_MAJOR_VERSION (4u)"
000008d0 5f41525f5245 
000008d6 4c454153455f 
000008dc 4d414a4f525f 
000008e2 56455253494f 
000008e8 4e2028347529 
000008ee 00 
000008ef 01            11202 	.byte	1
000008f0 09            11203 	.byte	9
000008f1 4d454d4d4150  11204 	.strz	"MEMMAP_AR_RELEASE_MINOR_VERSION (0u)"
000008f7 5f41525f5245 
000008fd 4c454153455f 
00000903 4d494e4f525f 
00000909 56455253494f 
0000090f 4e2028307529 
00000915 00 
00000916 01            11205 	.byte	1
00000917 0a            11206 	.byte	10
00000918 4d454d4d4150  11207 	.strz	"MEMMAP_AR_RELEASE_REVISION_VERSION (3u)"
0000091e 5f41525f5245 
00000924 4c454153455f 
0000092a 524556495349 
00000930 4f4e5f564552 
00000936 53494f4e2028 
0000093c 33752900 
00000940 01            11208 	.byte	1
00000941 10            11209 	.byte	16

                                                                      Page 211
                                                              C:\Users\nhuliyap\AppData\Local\Temp\gh_0000d3s1.s
00000942 4d454d5f4152  11210 	.strz	"MEM_AR_RELEASE_MAJOR_VERSION MEMMAP_AR_RELEASE_MAJOR_VERSION"
00000948 5f52454c4541 
0000094e 53455f4d414a 
00000954 4f525f564552 
0000095a 53494f4e204d 
00000960 454d4d41505f 
00000966 41525f52454c 
0000096c 454153455f4d 
00000972 414a4f525f56 
00000978 455253494f4e 
0000097e 00 
0000097f 01            11211 	.byte	1
00000980 11            11212 	.byte	17
00000981 4d454d5f4152  11213 	.strz	"MEM_AR_RELEASE_MINOR_VERSION MEMMAP_AR_RELEASE_MINOR_VERSION"
00000987 5f52454c4541 
0000098d 53455f4d494e 
00000993 4f525f564552 
00000999 53494f4e204d 
0000099f 454d4d41505f 
000009a5 41525f52454c 
000009ab 454153455f4d 
000009b1 494e4f525f56 
000009b7 455253494f4e 
000009bd 00 
000009be 01            11214 	.byte	1
000009bf 12            11215 	.byte	18
000009c0 4d454d5f4152  11216 	.strz	"MEM_AR_RELEASE_PATCH_VERSION MEMMAP_AR_RELEASE_REVISION_VERSION"
000009c6 5f52454c4541 
000009cc 53455f504154 
000009d2 43485f564552 
000009d8 53494f4e204d 
000009de 454d4d41505f 
000009e4 41525f52454c 
000009ea 454153455f52 
000009f0 45564953494f 
000009f6 4e5f56455253 
000009fc 494f4e00 
00000a00 01            11217 	.byte	1
00000a01 18            11218 	.byte	24
00000a02 4d454d4d4150  11219 	.strz	"MEMMAP_SW_MAJOR_VERSION (1u)"
00000a08 5f53575f4d41 
00000a0e 4a4f525f5645 
00000a14 5253494f4e20 
00000a1a 2831752900 
00000a1f 01            11220 	.byte	1
00000a20 19            11221 	.byte	25
00000a21 4d454d4d4150  11222 	.strz	"MEMMAP_SW_MINOR_VERSION (11u)"
00000a27 5f53575f4d49 
00000a2d 4e4f525f5645 
00000a33 5253494f4e20 
00000a39 283131752900 
00000a3f 01            11223 	.byte	1
00000a40 1a            11224 	.byte	26
00000a41 4d454d4d4150  11225 	.strz	"MEMMAP_SW_PATCH_VERSION (0u)"
00000a47 5f53575f5041 
00000a4d 5443485f5645 
00000a53 5253494f4e20 
00000a59 2830752900 
00000a5e 01            11226 	.byte	1
00000a5f 20            11227 	.byte	32
00000a60 4d454d5f5357  11228 	.strz	"MEM_SW_MAJOR_VERSION MEMMAP_SW_MAJOR_VERSION"

                                                                      Page 212
                                                              C:\Users\nhuliyap\AppData\Local\Temp\gh_0000d3s1.s
00000a66 5f4d414a4f52 
00000a6c 5f5645525349 
00000a72 4f4e204d454d 
00000a78 4d41505f5357 
00000a7e 5f4d414a4f52 
00000a84 5f5645525349 
00000a8a 4f4e00 
00000a8d 01            11229 	.byte	1
00000a8e 21            11230 	.byte	33
00000a8f 4d454d5f5357  11231 	.strz	"MEM_SW_MINOR_VERSION MEMMAP_SW_MINOR_VERSION"
00000a95 5f4d494e4f52 
00000a9b 5f5645525349 
00000aa1 4f4e204d454d 
00000aa7 4d41505f5357 
00000aad 5f4d494e4f52 
00000ab3 5f5645525349 
00000ab9 4f4e00 
00000abc 01            11232 	.byte	1
00000abd 22            11233 	.byte	34
00000abe 4d454d5f5357  11234 	.strz	"MEM_SW_PATCH_VERSION MEMMAP_SW_PATCH_VERSION"
00000ac4 5f5041544348 
00000aca 5f5645525349 
00000ad0 4f4e204d454d 
00000ad6 4d41505f5357 
00000adc 5f5041544348 
00000ae2 5f5645525349 
00000ae8 4f4e00 
00000aeb 01            11235 	.byte	1
00000aec 24            11236 	.byte	36
00000aed 4d454d4d4150  11237 	.strz	"MEMMAP_ERROR "
00000af3 5f4552524f52 
00000af9 2000 
00000afb 01            11238 	.byte	1
00000afc b201          11239 	.byte	178,1
00000afe 53544152545f  11240 	.strz	"START_SEC_CONST_UNSPECIFIED "
00000b04 5345435f434f 
00000b0a 4e53545f554e 
00000b10 535045434946 
00000b16 4945442000 
00000b1b 03            11241 	.byte	3
00000b1c f403          11242 	.byte	244,3
00000b1e 16            11243 	.byte	22
00000b1f 01            11244 	.byte	1
00000b20 b508          11245 	.byte	181,8
00000b22 434f4e53545f  11246 	.strz	"CONST_SEC_OPEN "
00000b28 5345435f4f50 
00000b2e 454e2000 
00000b32 04            11247 	.byte	4
00000b33 04            11248 	.byte	4
00000b34 01            11249 	.byte	1
00000b35 a401          11250 	.byte	164,1
00000b37 4e564d5f5354  11251 	.strz	"NVM_STOP_SEC_CONST_DESCRIPTOR_TABLE "
00000b3d 4f505f534543 
00000b43 5f434f4e5354 
00000b49 5f4445534352 
00000b4f 4950544f525f 
00000b55 5441424c4520 
00000b5b 00 
00000b5c 03            11252 	.byte	3
00000b5d a501          11253 	.byte	165,1
00000b5f 1b            11254 	.byte	27

                                                                      Page 213
                                                              C:\Users\nhuliyap\AppData\Local\Temp\gh_0000d3s1.s
00000b60 01            11255 	.byte	1
00000b61 02            11256 	.byte	2
00000b62 4d454d4d4150  11257 	.strz	"MEMMAP_VENDOR_ID (30u)"
00000b68 5f56454e444f 
00000b6e 525f49442028 
00000b74 3330752900 
00000b79 01            11258 	.byte	1
00000b7a 08            11259 	.byte	8
00000b7b 4d454d4d4150  11260 	.strz	"MEMMAP_AR_RELEASE_MAJOR_VERSION (4u)"
00000b81 5f41525f5245 
00000b87 4c454153455f 
00000b8d 4d414a4f525f 
00000b93 56455253494f 
00000b99 4e2028347529 
00000b9f 00 
00000ba0 01            11261 	.byte	1
00000ba1 09            11262 	.byte	9
00000ba2 4d454d4d4150  11263 	.strz	"MEMMAP_AR_RELEASE_MINOR_VERSION (0u)"
00000ba8 5f41525f5245 
00000bae 4c454153455f 
00000bb4 4d494e4f525f 
00000bba 56455253494f 
00000bc0 4e2028307529 
00000bc6 00 
00000bc7 01            11264 	.byte	1
00000bc8 0a            11265 	.byte	10
00000bc9 4d454d4d4150  11266 	.strz	"MEMMAP_AR_RELEASE_REVISION_VERSION (3u)"
00000bcf 5f41525f5245 
00000bd5 4c454153455f 
00000bdb 524556495349 
00000be1 4f4e5f564552 
00000be7 53494f4e2028 
00000bed 33752900 
00000bf1 01            11267 	.byte	1
00000bf2 10            11268 	.byte	16
00000bf3 4d454d5f4152  11269 	.strz	"MEM_AR_RELEASE_MAJOR_VERSION MEMMAP_AR_RELEASE_MAJOR_VERSION"
00000bf9 5f52454c4541 
00000bff 53455f4d414a 
00000c05 4f525f564552 
00000c0b 53494f4e204d 
00000c11 454d4d41505f 
00000c17 41525f52454c 
00000c1d 454153455f4d 
00000c23 414a4f525f56 
00000c29 455253494f4e 
00000c2f 00 
00000c30 01            11270 	.byte	1
00000c31 11            11271 	.byte	17
00000c32 4d454d5f4152  11272 	.strz	"MEM_AR_RELEASE_MINOR_VERSION MEMMAP_AR_RELEASE_MINOR_VERSION"
00000c38 5f52454c4541 
00000c3e 53455f4d494e 
00000c44 4f525f564552 
00000c4a 53494f4e204d 
00000c50 454d4d41505f 
00000c56 41525f52454c 
00000c5c 454153455f4d 
00000c62 494e4f525f56 
00000c68 455253494f4e 
00000c6e 00 
00000c6f 01            11273 	.byte	1
00000c70 12            11274 	.byte	18

                                                                      Page 214
                                                              C:\Users\nhuliyap\AppData\Local\Temp\gh_0000d3s1.s
00000c71 4d454d5f4152  11275 	.strz	"MEM_AR_RELEASE_PATCH_VERSION MEMMAP_AR_RELEASE_REVISION_VERSION"
00000c77 5f52454c4541 
00000c7d 53455f504154 
00000c83 43485f564552 
00000c89 53494f4e204d 
00000c8f 454d4d41505f 
00000c95 41525f52454c 
00000c9b 454153455f52 
00000ca1 45564953494f 
00000ca7 4e5f56455253 
00000cad 494f4e00 
00000cb1 01            11276 	.byte	1
00000cb2 18            11277 	.byte	24
00000cb3 4d454d4d4150  11278 	.strz	"MEMMAP_SW_MAJOR_VERSION (1u)"
00000cb9 5f53575f4d41 
00000cbf 4a4f525f5645 
00000cc5 5253494f4e20 
00000ccb 2831752900 
00000cd0 01            11279 	.byte	1
00000cd1 19            11280 	.byte	25
00000cd2 4d454d4d4150  11281 	.strz	"MEMMAP_SW_MINOR_VERSION (11u)"
00000cd8 5f53575f4d49 
00000cde 4e4f525f5645 
00000ce4 5253494f4e20 
00000cea 283131752900 
00000cf0 01            11282 	.byte	1
00000cf1 1a            11283 	.byte	26
00000cf2 4d454d4d4150  11284 	.strz	"MEMMAP_SW_PATCH_VERSION (0u)"
00000cf8 5f53575f5041 
00000cfe 5443485f5645 
00000d04 5253494f4e20 
00000d0a 2830752900 
00000d0f 01            11285 	.byte	1
00000d10 20            11286 	.byte	32
00000d11 4d454d5f5357  11287 	.strz	"MEM_SW_MAJOR_VERSION MEMMAP_SW_MAJOR_VERSION"
00000d17 5f4d414a4f52 
00000d1d 5f5645525349 
00000d23 4f4e204d454d 
00000d29 4d41505f5357 
00000d2f 5f4d414a4f52 
00000d35 5f5645525349 
00000d3b 4f4e00 
00000d3e 01            11288 	.byte	1
00000d3f 21            11289 	.byte	33
00000d40 4d454d5f5357  11290 	.strz	"MEM_SW_MINOR_VERSION MEMMAP_SW_MINOR_VERSION"
00000d46 5f4d494e4f52 
00000d4c 5f5645525349 
00000d52 4f4e204d454d 
00000d58 4d41505f5357 
00000d5e 5f4d494e4f52 
00000d64 5f5645525349 
00000d6a 4f4e00 
00000d6d 01            11291 	.byte	1
00000d6e 22            11292 	.byte	34
00000d6f 4d454d5f5357  11293 	.strz	"MEM_SW_PATCH_VERSION MEMMAP_SW_PATCH_VERSION"
00000d75 5f5041544348 
00000d7b 5f5645525349 
00000d81 4f4e204d454d 
00000d87 4d41505f5357 
00000d8d 5f5041544348 
00000d93 5f5645525349 

                                                                      Page 215
                                                              C:\Users\nhuliyap\AppData\Local\Temp\gh_0000d3s1.s
00000d99 4f4e00 
00000d9c 01            11294 	.byte	1
00000d9d 24            11295 	.byte	36
00000d9e 4d454d4d4150  11296 	.strz	"MEMMAP_ERROR "
00000da4 5f4552524f52 
00000daa 2000 
00000dac 01            11297 	.byte	1
00000dad b601          11298 	.byte	182,1
00000daf 53544f505f53  11299 	.strz	"STOP_SEC_CONST "
00000db5 45435f434f4e 
00000dbb 53542000 
00000dbf 03            11300 	.byte	3
00000dc0 f403          11301 	.byte	244,3
00000dc2 16            11302 	.byte	22
00000dc3 04            11303 	.byte	4
00000dc4 04            11304 	.byte	4
00000dc5 04            11305 	.byte	4
00000dc6 03            11306 	.byte	3
00000dc7 08            11307 	.byte	8
00000dc8 1c            11308 	.byte	28
00000dc9 01            11309 	.byte	1
00000dca 22            11310 	.byte	34
00000dcb 4e764d5f4465  11311 	.strz	"NvM_DemReportErrorReqFailed() "
00000dd1 6d5265706f72 
00000dd7 744572726f72 
00000ddd 526571466169 
00000de3 6c6564282920 
00000de9 00 
00000dea 01            11312 	.byte	1
00000deb 23            11313 	.byte	35
00000dec 4e764d5f4465  11314 	.strz	"NvM_DemReportErrorIntegrityFailed() "
00000df2 6d5265706f72 
00000df8 744572726f72 
00000dfe 496e74656772 
00000e04 697479466169 
00000e0a 6c6564282920 
00000e10 00 
00000e11 01            11315 	.byte	1
00000e12 24            11316 	.byte	36
00000e13 4e764d5f4465  11317 	.strz	"NvM_DemReportErrorLossOfRedundancy() "
00000e19 6d5265706f72 
00000e1f 744572726f72 
00000e25 4c6f73734f66 
00000e2b 526564756e64 
00000e31 616e63792829 
00000e37 2000 
00000e39 01            11318 	.byte	1
00000e3a 27            11319 	.byte	39
00000e3b 4e564d5f424c  11320 	.strz	"NVM_BLOCK_FROM_DCM_ID(blockId) ((NvM_BlockIdType)((blockId) & ((NVM_DCM_BLOCK_OFFSET) ^ 0xFFFFu)))"
00000e41 4f434b5f4652 
00000e47 4f4d5f44434d 
00000e4d 5f494428626c 
00000e53 6f636b496429 
00000e59 2028284e764d 
00000e5f 5f426c6f636b 
00000e65 496454797065 
00000e6b 292828626c6f 
00000e71 636b49642920 
00000e77 262028284e56 
00000e7d 4d5f44434d5f 
00000e83 424c4f434b5f 

                                                                      Page 216
                                                              C:\Users\nhuliyap\AppData\Local\Temp\gh_0000d3s1.s
00000e89 4f4646534554 
00000e8f 29205e203078 
00000e95 464646467529 
00000e9b 292900 
00000e9e 01            11321 	.byte	1
00000e9f 2a            11322 	.byte	42
00000ea0 4e564d5f4445  11323 	.strz	"NVM_DEV_ERROR_REPORT (STD_OFF)"
00000ea6 565f4552524f 
00000eac 525f5245504f 
00000eb2 525420285354 
00000eb8 445f4f464629 
00000ebe 00 
00000ebf 01            11324 	.byte	1
00000ec0 30            11325 	.byte	48
00000ec1 4e564d5f494e  11326 	.strz	"NVM_INTFLAG_WAIT_SET (0x01u)"
00000ec7 54464c41475f 
00000ecd 574149545f53 
00000ed3 455420283078 
00000ed9 3031752900 
00000ede 01            11327 	.byte	1
00000edf 32            11328 	.byte	50
00000ee0 4e564d5f494e  11329 	.strz	"NVM_INTFLAG_ERROR_SET (0x10u)"
00000ee6 54464c41475f 
00000eec 4552524f525f 
00000ef2 534554202830 
00000ef8 783130752900 
00000efe 01            11330 	.byte	1
00000eff 33            11331 	.byte	51
00000f00 4e564d5f494e  11332 	.strz	"NVM_INTFLAG_ERROR_CL (0xEFu)"
00000f06 54464c41475f 
00000f0c 4552524f525f 
00000f12 434c20283078 
00000f18 4546752900 
00000f1d 01            11333 	.byte	1
00000f1e 34            11334 	.byte	52
00000f1f 4e564d5f494e  11335 	.strz	"NVM_INTFLAG_DYN_MISMATCH_SET (0x20u)"
00000f25 54464c41475f 
00000f2b 44594e5f4d49 
00000f31 534d41544348 
00000f37 5f5345542028 
00000f3d 307832307529 
00000f43 00 
00000f44 01            11336 	.byte	1
00000f45 35            11337 	.byte	53
00000f46 4e564d5f494e  11338 	.strz	"NVM_INTFLAG_DYN_MISMATCH_CL (0xDFu)"
00000f4c 54464c41475f 
00000f52 44594e5f4d49 
00000f58 534d41544348 
00000f5e 5f434c202830 
00000f64 784446752900 
00000f6a 01            11339 	.byte	1
00000f6b 36            11340 	.byte	54
00000f6c 4e564d5f4150  11341 	.strz	"NVM_APIFLAG_WRITE_ALL_SET (0x02u)"
00000f72 49464c41475f 
00000f78 57524954455f 
00000f7e 414c4c5f5345 
00000f84 542028307830 
00000f8a 32752900 
00000f8e 01            11342 	.byte	1
00000f8f 37            11343 	.byte	55
00000f90 4e564d5f4150  11344 	.strz	"NVM_APIFLAG_WRITE_ALL_CL (0xFDu)"

                                                                      Page 217
                                                              C:\Users\nhuliyap\AppData\Local\Temp\gh_0000d3s1.s
00000f96 49464c41475f 
00000f9c 57524954455f 
00000fa2 414c4c5f434c 
00000fa8 202830784644 
00000fae 752900 
00000fb1 01            11345 	.byte	1
00000fb2 38            11346 	.byte	56
00000fb3 4e564d5f4150  11347 	.strz	"NVM_APIFLAG_READ_ALL_SET (0x04u)"
00000fb9 49464c41475f 
00000fbf 524541445f41 
00000fc5 4c4c5f534554 
00000fcb 202830783034 
00000fd1 752900 
00000fd4 01            11348 	.byte	1
00000fd5 39            11349 	.byte	57
00000fd6 4e564d5f4150  11350 	.strz	"NVM_APIFLAG_READ_ALL_CL (0xFBu)"
00000fdc 49464c41475f 
00000fe2 524541445f41 
00000fe8 4c4c5f434c20 
00000fee 283078464275 
00000ff4 2900 
00000ff6 01            11351 	.byte	1
00000ff7 3a            11352 	.byte	58
00000ff8 4e564d5f4150  11353 	.strz	"NVM_APIFLAG_CANCEL_WR_ALL_SET (0x40u)"
00000ffe 49464c41475f 
00001004 43414e43454c 
0000100a 5f57525f414c 
00001010 4c5f53455420 
00001016 283078343075 
0000101c 2900 
0000101e 01            11354 	.byte	1
0000101f 3b            11355 	.byte	59
00001020 4e564d5f4150  11356 	.strz	"NVM_APIFLAG_CANCEL_WR_ALL_CL (0xBFu)"
00001026 49464c41475f 
0000102c 43414e43454c 
00001032 5f57525f414c 
00001038 4c5f434c2028 
0000103e 307842467529 
00001044 00 
00001045 01            11357 	.byte	1
00001046 3c            11358 	.byte	60
00001047 4e564d5f4150  11359 	.strz	"NVM_APIFLAG_KILL_WR_ALL_SET (0x80u)"
0000104d 49464c41475f 
00001053 4b494c4c5f57 
00001059 525f414c4c5f 
0000105f 534554202830 
00001065 783830752900 
0000106b 01            11360 	.byte	1
0000106c 3d            11361 	.byte	61
0000106d 4e564d5f4150  11362 	.strz	"NVM_APIFLAG_KILL_WR_ALL_CL (0x7Fu)"
00001073 49464c41475f 
00001079 4b494c4c5f57 
0000107f 525f414c4c5f 
00001085 434c20283078 
0000108b 3746752900 
00001090 03            11363 	.byte	3
00001091 45            11364 	.byte	69
00001092 1d            11365 	.byte	29
00001093 03            11366 	.byte	3
00001094 06            11367 	.byte	6
00001095 1e            11368 	.byte	30

                                                                      Page 218
                                                              C:\Users\nhuliyap\AppData\Local\Temp\gh_0000d3s1.s
00001096 04            11369 	.byte	4
00001097 03            11370 	.byte	3
00001098 07            11371 	.byte	7
00001099 1f            11372 	.byte	31
0000109a 01            11373 	.byte	1
0000109b 5f            11374 	.byte	95
0000109c 4d454d49465f  11375 	.strz	"MEMIF_VERSION_INFO_API (STD_OFF)"
000010a2 56455253494f 
000010a8 4e5f494e464f 
000010ae 5f4150492028 
000010b4 5354445f4f46 
000010ba 462900 
000010bd 01            11376 	.byte	1
000010be 61            11377 	.byte	97
000010bf 4d454d49465f  11378 	.strz	"MEMIF_NUMBER_OF_DEVICES (1U)"
000010c5 4e554d424552 
000010cb 5f4f465f4445 
000010d1 564943455320 
000010d7 2831552900 
000010dc 01            11379 	.byte	1
000010dd 8101          11380 	.byte	129,1
000010df 4d454d49465f  11381 	.strz	"MEMIF_START_SEC_CONST_8BIT "
000010e5 53544152545f 
000010eb 5345435f434f 
000010f1 4e53545f3842 
000010f7 49542000 
000010fb 03            11382 	.byte	3
000010fc 8201          11383 	.byte	130,1
000010fe 1b            11384 	.byte	27
000010ff 01            11385 	.byte	1
00001100 02            11386 	.byte	2
00001101 4d454d4d4150  11387 	.strz	"MEMMAP_VENDOR_ID (30u)"
00001107 5f56454e444f 
0000110d 525f49442028 
00001113 3330752900 
00001118 01            11388 	.byte	1
00001119 08            11389 	.byte	8
0000111a 4d454d4d4150  11390 	.strz	"MEMMAP_AR_RELEASE_MAJOR_VERSION (4u)"
00001120 5f41525f5245 
00001126 4c454153455f 
0000112c 4d414a4f525f 
00001132 56455253494f 
00001138 4e2028347529 
0000113e 00 
0000113f 01            11391 	.byte	1
00001140 09            11392 	.byte	9
00001141 4d454d4d4150  11393 	.strz	"MEMMAP_AR_RELEASE_MINOR_VERSION (0u)"
00001147 5f41525f5245 
0000114d 4c454153455f 
00001153 4d494e4f525f 
00001159 56455253494f 
0000115f 4e2028307529 
00001165 00 
00001166 01            11394 	.byte	1
00001167 0a            11395 	.byte	10
00001168 4d454d4d4150  11396 	.strz	"MEMMAP_AR_RELEASE_REVISION_VERSION (3u)"
0000116e 5f41525f5245 
00001174 4c454153455f 
0000117a 524556495349 
00001180 4f4e5f564552 
00001186 53494f4e2028 

                                                                      Page 219
                                                              C:\Users\nhuliyap\AppData\Local\Temp\gh_0000d3s1.s
0000118c 33752900 
00001190 01            11397 	.byte	1
00001191 10            11398 	.byte	16
00001192 4d454d5f4152  11399 	.strz	"MEM_AR_RELEASE_MAJOR_VERSION MEMMAP_AR_RELEASE_MAJOR_VERSION"
00001198 5f52454c4541 
0000119e 53455f4d414a 
000011a4 4f525f564552 
000011aa 53494f4e204d 
000011b0 454d4d41505f 
000011b6 41525f52454c 
000011bc 454153455f4d 
000011c2 414a4f525f56 
000011c8 455253494f4e 
000011ce 00 
000011cf 01            11400 	.byte	1
000011d0 11            11401 	.byte	17
000011d1 4d454d5f4152  11402 	.strz	"MEM_AR_RELEASE_MINOR_VERSION MEMMAP_AR_RELEASE_MINOR_VERSION"
000011d7 5f52454c4541 
000011dd 53455f4d494e 
000011e3 4f525f564552 
000011e9 53494f4e204d 
000011ef 454d4d41505f 
000011f5 41525f52454c 
000011fb 454153455f4d 
00001201 494e4f525f56 
00001207 455253494f4e 
0000120d 00 
0000120e 01            11403 	.byte	1
0000120f 12            11404 	.byte	18
00001210 4d454d5f4152  11405 	.strz	"MEM_AR_RELEASE_PATCH_VERSION MEMMAP_AR_RELEASE_REVISION_VERSION"
00001216 5f52454c4541 
0000121c 53455f504154 
00001222 43485f564552 
00001228 53494f4e204d 
0000122e 454d4d41505f 
00001234 41525f52454c 
0000123a 454153455f52 
00001240 45564953494f 
00001246 4e5f56455253 
0000124c 494f4e00 
00001250 01            11406 	.byte	1
00001251 18            11407 	.byte	24
00001252 4d454d4d4150  11408 	.strz	"MEMMAP_SW_MAJOR_VERSION (1u)"
00001258 5f53575f4d41 
0000125e 4a4f525f5645 
00001264 5253494f4e20 
0000126a 2831752900 
0000126f 01            11409 	.byte	1
00001270 19            11410 	.byte	25
00001271 4d454d4d4150  11411 	.strz	"MEMMAP_SW_MINOR_VERSION (11u)"
00001277 5f53575f4d49 
0000127d 4e4f525f5645 
00001283 5253494f4e20 
00001289 283131752900 
0000128f 01            11412 	.byte	1
00001290 1a            11413 	.byte	26
00001291 4d454d4d4150  11414 	.strz	"MEMMAP_SW_PATCH_VERSION (0u)"
00001297 5f53575f5041 
0000129d 5443485f5645 
000012a3 5253494f4e20 
000012a9 2830752900 

                                                                      Page 220
                                                              C:\Users\nhuliyap\AppData\Local\Temp\gh_0000d3s1.s
000012ae 01            11415 	.byte	1
000012af 20            11416 	.byte	32
000012b0 4d454d5f5357  11417 	.strz	"MEM_SW_MAJOR_VERSION MEMMAP_SW_MAJOR_VERSION"
000012b6 5f4d414a4f52 
000012bc 5f5645525349 
000012c2 4f4e204d454d 
000012c8 4d41505f5357 
000012ce 5f4d414a4f52 
000012d4 5f5645525349 
000012da 4f4e00 
000012dd 01            11418 	.byte	1
000012de 21            11419 	.byte	33
000012df 4d454d5f5357  11420 	.strz	"MEM_SW_MINOR_VERSION MEMMAP_SW_MINOR_VERSION"
000012e5 5f4d494e4f52 
000012eb 5f5645525349 
000012f1 4f4e204d454d 
000012f7 4d41505f5357 
000012fd 5f4d494e4f52 
00001303 5f5645525349 
00001309 4f4e00 
0000130c 01            11421 	.byte	1
0000130d 22            11422 	.byte	34
0000130e 4d454d5f5357  11423 	.strz	"MEM_SW_PATCH_VERSION MEMMAP_SW_PATCH_VERSION"
00001314 5f5041544348 
0000131a 5f5645525349 
00001320 4f4e204d454d 
00001326 4d41505f5357 
0000132c 5f5041544348 
00001332 5f5645525349 
00001338 4f4e00 
0000133b 01            11424 	.byte	1
0000133c 24            11425 	.byte	36
0000133d 4d454d4d4150  11426 	.strz	"MEMMAP_ERROR "
00001343 5f4552524f52 
00001349 2000 
0000134b 01            11427 	.byte	1
0000134c 70            11428 	.byte	112
0000134d 53544152545f  11429 	.strz	"START_SEC_CONST_8BIT "
00001353 5345435f434f 
00001359 4e53545f3842 
0000135f 49542000 
00001363 03            11430 	.byte	3
00001364 f403          11431 	.byte	244,3
00001366 16            11432 	.byte	22
00001367 01            11433 	.byte	1
00001368 9008          11434 	.byte	144,8
0000136a 434f4e53545f  11435 	.strz	"CONST_SEC_OPEN "
00001370 5345435f4f50 
00001376 454e2000 
0000137a 04            11436 	.byte	4
0000137b 04            11437 	.byte	4
0000137c 01            11438 	.byte	1
0000137d 8401          11439 	.byte	132,1
0000137f 4d454d49465f  11440 	.strz	"MEMIF_STOP_SEC_CONST_8BIT "
00001385 53544f505f53 
0000138b 45435f434f4e 
00001391 53545f384249 
00001397 542000 
0000139a 03            11441 	.byte	3
0000139b 8501          11442 	.byte	133,1
0000139d 1b            11443 	.byte	27

                                                                      Page 221
                                                              C:\Users\nhuliyap\AppData\Local\Temp\gh_0000d3s1.s
0000139e 01            11444 	.byte	1
0000139f 02            11445 	.byte	2
000013a0 4d454d4d4150  11446 	.strz	"MEMMAP_VENDOR_ID (30u)"
000013a6 5f56454e444f 
000013ac 525f49442028 
000013b2 3330752900 
000013b7 01            11447 	.byte	1
000013b8 08            11448 	.byte	8
000013b9 4d454d4d4150  11449 	.strz	"MEMMAP_AR_RELEASE_MAJOR_VERSION (4u)"
000013bf 5f41525f5245 
000013c5 4c454153455f 
000013cb 4d414a4f525f 
000013d1 56455253494f 
000013d7 4e2028347529 
000013dd 00 
000013de 01            11450 	.byte	1
000013df 09            11451 	.byte	9
000013e0 4d454d4d4150  11452 	.strz	"MEMMAP_AR_RELEASE_MINOR_VERSION (0u)"
000013e6 5f41525f5245 
000013ec 4c454153455f 
000013f2 4d494e4f525f 
000013f8 56455253494f 
000013fe 4e2028307529 
00001404 00 
00001405 01            11453 	.byte	1
00001406 0a            11454 	.byte	10
00001407 4d454d4d4150  11455 	.strz	"MEMMAP_AR_RELEASE_REVISION_VERSION (3u)"
0000140d 5f41525f5245 
00001413 4c454153455f 
00001419 524556495349 
0000141f 4f4e5f564552 
00001425 53494f4e2028 
0000142b 33752900 
0000142f 01            11456 	.byte	1
00001430 10            11457 	.byte	16
00001431 4d454d5f4152  11458 	.strz	"MEM_AR_RELEASE_MAJOR_VERSION MEMMAP_AR_RELEASE_MAJOR_VERSION"
00001437 5f52454c4541 
0000143d 53455f4d414a 
00001443 4f525f564552 
00001449 53494f4e204d 
0000144f 454d4d41505f 
00001455 41525f52454c 
0000145b 454153455f4d 
00001461 414a4f525f56 
00001467 455253494f4e 
0000146d 00 
0000146e 01            11459 	.byte	1
0000146f 11            11460 	.byte	17
00001470 4d454d5f4152  11461 	.strz	"MEM_AR_RELEASE_MINOR_VERSION MEMMAP_AR_RELEASE_MINOR_VERSION"
00001476 5f52454c4541 
0000147c 53455f4d494e 
00001482 4f525f564552 
00001488 53494f4e204d 
0000148e 454d4d41505f 
00001494 41525f52454c 
0000149a 454153455f4d 
000014a0 494e4f525f56 
000014a6 455253494f4e 
000014ac 00 
000014ad 01            11462 	.byte	1
000014ae 12            11463 	.byte	18

                                                                      Page 222
                                                              C:\Users\nhuliyap\AppData\Local\Temp\gh_0000d3s1.s
000014af 4d454d5f4152  11464 	.strz	"MEM_AR_RELEASE_PATCH_VERSION MEMMAP_AR_RELEASE_REVISION_VERSION"
000014b5 5f52454c4541 
000014bb 53455f504154 
000014c1 43485f564552 
000014c7 53494f4e204d 
000014cd 454d4d41505f 
000014d3 41525f52454c 
000014d9 454153455f52 
000014df 45564953494f 
000014e5 4e5f56455253 
000014eb 494f4e00 
000014ef 01            11465 	.byte	1
000014f0 18            11466 	.byte	24
000014f1 4d454d4d4150  11467 	.strz	"MEMMAP_SW_MAJOR_VERSION (1u)"
000014f7 5f53575f4d41 
000014fd 4a4f525f5645 
00001503 5253494f4e20 
00001509 2831752900 
0000150e 01            11468 	.byte	1
0000150f 19            11469 	.byte	25
00001510 4d454d4d4150  11470 	.strz	"MEMMAP_SW_MINOR_VERSION (11u)"
00001516 5f53575f4d49 
0000151c 4e4f525f5645 
00001522 5253494f4e20 
00001528 283131752900 
0000152e 01            11471 	.byte	1
0000152f 1a            11472 	.byte	26
00001530 4d454d4d4150  11473 	.strz	"MEMMAP_SW_PATCH_VERSION (0u)"
00001536 5f53575f5041 
0000153c 5443485f5645 
00001542 5253494f4e20 
00001548 2830752900 
0000154d 01            11474 	.byte	1
0000154e 20            11475 	.byte	32
0000154f 4d454d5f5357  11476 	.strz	"MEM_SW_MAJOR_VERSION MEMMAP_SW_MAJOR_VERSION"
00001555 5f4d414a4f52 
0000155b 5f5645525349 
00001561 4f4e204d454d 
00001567 4d41505f5357 
0000156d 5f4d414a4f52 
00001573 5f5645525349 
00001579 4f4e00 
0000157c 01            11477 	.byte	1
0000157d 21            11478 	.byte	33
0000157e 4d454d5f5357  11479 	.strz	"MEM_SW_MINOR_VERSION MEMMAP_SW_MINOR_VERSION"
00001584 5f4d494e4f52 
0000158a 5f5645525349 
00001590 4f4e204d454d 
00001596 4d41505f5357 
0000159c 5f4d494e4f52 
000015a2 5f5645525349 
000015a8 4f4e00 
000015ab 01            11480 	.byte	1
000015ac 22            11481 	.byte	34
000015ad 4d454d5f5357  11482 	.strz	"MEM_SW_PATCH_VERSION MEMMAP_SW_PATCH_VERSION"
000015b3 5f5041544348 
000015b9 5f5645525349 
000015bf 4f4e204d454d 
000015c5 4d41505f5357 
000015cb 5f5041544348 
000015d1 5f5645525349 

                                                                      Page 223
                                                              C:\Users\nhuliyap\AppData\Local\Temp\gh_0000d3s1.s
000015d7 4f4e00 
000015da 01            11483 	.byte	1
000015db 24            11484 	.byte	36
000015dc 4d454d4d4150  11485 	.strz	"MEMMAP_ERROR "
000015e2 5f4552524f52 
000015e8 2000 
000015ea 01            11486 	.byte	1
000015eb 75            11487 	.byte	117
000015ec 53544f505f53  11488 	.strz	"STOP_SEC_CONST "
000015f2 45435f434f4e 
000015f8 53542000 
000015fc 03            11489 	.byte	3
000015fd f403          11490 	.byte	244,3
000015ff 16            11491 	.byte	22
00001600 04            11492 	.byte	4
00001601 04            11493 	.byte	4
00001602 01            11494 	.byte	1
00001603 8701          11495 	.byte	135,1
00001605 4d454d49465f  11496 	.strz	"MEMIF_START_SEC_CONST_32BIT "
0000160b 53544152545f 
00001611 5345435f434f 
00001617 4e53545f3332 
0000161d 4249542000 
00001622 03            11497 	.byte	3
00001623 8801          11498 	.byte	136,1
00001625 1b            11499 	.byte	27
00001626 01            11500 	.byte	1
00001627 02            11501 	.byte	2
00001628 4d454d4d4150  11502 	.strz	"MEMMAP_VENDOR_ID (30u)"
0000162e 5f56454e444f 
00001634 525f49442028 
0000163a 3330752900 
0000163f 01            11503 	.byte	1
00001640 08            11504 	.byte	8
00001641 4d454d4d4150  11505 	.strz	"MEMMAP_AR_RELEASE_MAJOR_VERSION (4u)"
00001647 5f41525f5245 
0000164d 4c454153455f 
00001653 4d414a4f525f 
00001659 56455253494f 
0000165f 4e2028347529 
00001665 00 
00001666 01            11506 	.byte	1
00001667 09            11507 	.byte	9
00001668 4d454d4d4150  11508 	.strz	"MEMMAP_AR_RELEASE_MINOR_VERSION (0u)"
0000166e 5f41525f5245 
00001674 4c454153455f 
0000167a 4d494e4f525f 
00001680 56455253494f 
00001686 4e2028307529 
0000168c 00 
0000168d 01            11509 	.byte	1
0000168e 0a            11510 	.byte	10
0000168f 4d454d4d4150  11511 	.strz	"MEMMAP_AR_RELEASE_REVISION_VERSION (3u)"
00001695 5f41525f5245 
0000169b 4c454153455f 
000016a1 524556495349 
000016a7 4f4e5f564552 
000016ad 53494f4e2028 
000016b3 33752900 
000016b7 01            11512 	.byte	1
000016b8 10            11513 	.byte	16

                                                                      Page 224
                                                              C:\Users\nhuliyap\AppData\Local\Temp\gh_0000d3s1.s
000016b9 4d454d5f4152  11514 	.strz	"MEM_AR_RELEASE_MAJOR_VERSION MEMMAP_AR_RELEASE_MAJOR_VERSION"
000016bf 5f52454c4541 
000016c5 53455f4d414a 
000016cb 4f525f564552 
000016d1 53494f4e204d 
000016d7 454d4d41505f 
000016dd 41525f52454c 
000016e3 454153455f4d 
000016e9 414a4f525f56 
000016ef 455253494f4e 
000016f5 00 
000016f6 01            11515 	.byte	1
000016f7 11            11516 	.byte	17
000016f8 4d454d5f4152  11517 	.strz	"MEM_AR_RELEASE_MINOR_VERSION MEMMAP_AR_RELEASE_MINOR_VERSION"
000016fe 5f52454c4541 
00001704 53455f4d494e 
0000170a 4f525f564552 
00001710 53494f4e204d 
00001716 454d4d41505f 
0000171c 41525f52454c 
00001722 454153455f4d 
00001728 494e4f525f56 
0000172e 455253494f4e 
00001734 00 
00001735 01            11518 	.byte	1
00001736 12            11519 	.byte	18
00001737 4d454d5f4152  11520 	.strz	"MEM_AR_RELEASE_PATCH_VERSION MEMMAP_AR_RELEASE_REVISION_VERSION"
0000173d 5f52454c4541 
00001743 53455f504154 
00001749 43485f564552 
0000174f 53494f4e204d 
00001755 454d4d41505f 
0000175b 41525f52454c 
00001761 454153455f52 
00001767 45564953494f 
0000176d 4e5f56455253 
00001773 494f4e00 
00001777 01            11521 	.byte	1
00001778 18            11522 	.byte	24
00001779 4d454d4d4150  11523 	.strz	"MEMMAP_SW_MAJOR_VERSION (1u)"
0000177f 5f53575f4d41 
00001785 4a4f525f5645 
0000178b 5253494f4e20 
00001791 2831752900 
00001796 01            11524 	.byte	1
00001797 19            11525 	.byte	25
00001798 4d454d4d4150  11526 	.strz	"MEMMAP_SW_MINOR_VERSION (11u)"
0000179e 5f53575f4d49 
000017a4 4e4f525f5645 
000017aa 5253494f4e20 
000017b0 283131752900 
000017b6 01            11527 	.byte	1
000017b7 1a            11528 	.byte	26
000017b8 4d454d4d4150  11529 	.strz	"MEMMAP_SW_PATCH_VERSION (0u)"
000017be 5f53575f5041 
000017c4 5443485f5645 
000017ca 5253494f4e20 
000017d0 2830752900 
000017d5 01            11530 	.byte	1
000017d6 20            11531 	.byte	32
000017d7 4d454d5f5357  11532 	.strz	"MEM_SW_MAJOR_VERSION MEMMAP_SW_MAJOR_VERSION"

                                                                      Page 225
                                                              C:\Users\nhuliyap\AppData\Local\Temp\gh_0000d3s1.s
000017dd 5f4d414a4f52 
000017e3 5f5645525349 
000017e9 4f4e204d454d 
000017ef 4d41505f5357 
000017f5 5f4d414a4f52 
000017fb 5f5645525349 
00001801 4f4e00 
00001804 01            11533 	.byte	1
00001805 21            11534 	.byte	33
00001806 4d454d5f5357  11535 	.strz	"MEM_SW_MINOR_VERSION MEMMAP_SW_MINOR_VERSION"
0000180c 5f4d494e4f52 
00001812 5f5645525349 
00001818 4f4e204d454d 
0000181e 4d41505f5357 
00001824 5f4d494e4f52 
0000182a 5f5645525349 
00001830 4f4e00 
00001833 01            11536 	.byte	1
00001834 22            11537 	.byte	34
00001835 4d454d5f5357  11538 	.strz	"MEM_SW_PATCH_VERSION MEMMAP_SW_PATCH_VERSION"
0000183b 5f5041544348 
00001841 5f5645525349 
00001847 4f4e204d454d 
0000184d 4d41505f5357 
00001853 5f5041544348 
00001859 5f5645525349 
0000185f 4f4e00 
00001862 01            11539 	.byte	1
00001863 24            11540 	.byte	36
00001864 4d454d4d4150  11541 	.strz	"MEMMAP_ERROR "
0000186a 5f4552524f52 
00001870 2000 
00001872 01            11542 	.byte	1
00001873 7a            11543 	.byte	122
00001874 53544152545f  11544 	.strz	"START_SEC_CONST_32BIT "
0000187a 5345435f434f 
00001880 4e53545f3332 
00001886 4249542000 
0000188b 03            11545 	.byte	3
0000188c f403          11546 	.byte	244,3
0000188e 16            11547 	.byte	22
0000188f 01            11548 	.byte	1
00001890 a308          11549 	.byte	163,8
00001892 434f4e53545f  11550 	.strz	"CONST_SEC_OPEN "
00001898 5345435f4f50 
0000189e 454e2000 
000018a2 04            11551 	.byte	4
000018a3 04            11552 	.byte	4
000018a4 01            11553 	.byte	1
000018a5 8a01          11554 	.byte	138,1
000018a7 4d454d49465f  11555 	.strz	"MEMIF_STOP_SEC_CONST_32BIT "
000018ad 53544f505f53 
000018b3 45435f434f4e 
000018b9 53545f333242 
000018bf 49542000 
000018c3 03            11556 	.byte	3
000018c4 8b01          11557 	.byte	139,1
000018c6 1b            11558 	.byte	27
000018c7 01            11559 	.byte	1
000018c8 02            11560 	.byte	2
000018c9 4d454d4d4150  11561 	.strz	"MEMMAP_VENDOR_ID (30u)"

                                                                      Page 226
                                                              C:\Users\nhuliyap\AppData\Local\Temp\gh_0000d3s1.s
000018cf 5f56454e444f 
000018d5 525f49442028 
000018db 3330752900 
000018e0 01            11562 	.byte	1
000018e1 08            11563 	.byte	8
000018e2 4d454d4d4150  11564 	.strz	"MEMMAP_AR_RELEASE_MAJOR_VERSION (4u)"
000018e8 5f41525f5245 
000018ee 4c454153455f 
000018f4 4d414a4f525f 
000018fa 56455253494f 
00001900 4e2028347529 
00001906 00 
00001907 01            11565 	.byte	1
00001908 09            11566 	.byte	9
00001909 4d454d4d4150  11567 	.strz	"MEMMAP_AR_RELEASE_MINOR_VERSION (0u)"
0000190f 5f41525f5245 
00001915 4c454153455f 
0000191b 4d494e4f525f 
00001921 56455253494f 
00001927 4e2028307529 
0000192d 00 
0000192e 01            11568 	.byte	1
0000192f 0a            11569 	.byte	10
00001930 4d454d4d4150  11570 	.strz	"MEMMAP_AR_RELEASE_REVISION_VERSION (3u)"
00001936 5f41525f5245 
0000193c 4c454153455f 
00001942 524556495349 
00001948 4f4e5f564552 
0000194e 53494f4e2028 
00001954 33752900 
00001958 01            11571 	.byte	1
00001959 10            11572 	.byte	16
0000195a 4d454d5f4152  11573 	.strz	"MEM_AR_RELEASE_MAJOR_VERSION MEMMAP_AR_RELEASE_MAJOR_VERSION"
00001960 5f52454c4541 
00001966 53455f4d414a 
0000196c 4f525f564552 
00001972 53494f4e204d 
00001978 454d4d41505f 
0000197e 41525f52454c 
00001984 454153455f4d 
0000198a 414a4f525f56 
00001990 455253494f4e 
00001996 00 
00001997 01            11574 	.byte	1
00001998 11            11575 	.byte	17
00001999 4d454d5f4152  11576 	.strz	"MEM_AR_RELEASE_MINOR_VERSION MEMMAP_AR_RELEASE_MINOR_VERSION"
0000199f 5f52454c4541 
000019a5 53455f4d494e 
000019ab 4f525f564552 
000019b1 53494f4e204d 
000019b7 454d4d41505f 
000019bd 41525f52454c 
000019c3 454153455f4d 
000019c9 494e4f525f56 
000019cf 455253494f4e 
000019d5 00 
000019d6 01            11577 	.byte	1
000019d7 12            11578 	.byte	18
000019d8 4d454d5f4152  11579 	.strz	"MEM_AR_RELEASE_PATCH_VERSION MEMMAP_AR_RELEASE_REVISION_VERSION"
000019de 5f52454c4541 
000019e4 53455f504154 

                                                                      Page 227
                                                              C:\Users\nhuliyap\AppData\Local\Temp\gh_0000d3s1.s
000019ea 43485f564552 
000019f0 53494f4e204d 
000019f6 454d4d41505f 
000019fc 41525f52454c 
00001a02 454153455f52 
00001a08 45564953494f 
00001a0e 4e5f56455253 
00001a14 494f4e00 
00001a18 01            11580 	.byte	1
00001a19 18            11581 	.byte	24
00001a1a 4d454d4d4150  11582 	.strz	"MEMMAP_SW_MAJOR_VERSION (1u)"
00001a20 5f53575f4d41 
00001a26 4a4f525f5645 
00001a2c 5253494f4e20 
00001a32 2831752900 
00001a37 01            11583 	.byte	1
00001a38 19            11584 	.byte	25
00001a39 4d454d4d4150  11585 	.strz	"MEMMAP_SW_MINOR_VERSION (11u)"
00001a3f 5f53575f4d49 
00001a45 4e4f525f5645 
00001a4b 5253494f4e20 
00001a51 283131752900 
00001a57 01            11586 	.byte	1
00001a58 1a            11587 	.byte	26
00001a59 4d454d4d4150  11588 	.strz	"MEMMAP_SW_PATCH_VERSION (0u)"
00001a5f 5f53575f5041 
00001a65 5443485f5645 
00001a6b 5253494f4e20 
00001a71 2830752900 
00001a76 01            11589 	.byte	1
00001a77 20            11590 	.byte	32
00001a78 4d454d5f5357  11591 	.strz	"MEM_SW_MAJOR_VERSION MEMMAP_SW_MAJOR_VERSION"
00001a7e 5f4d414a4f52 
00001a84 5f5645525349 
00001a8a 4f4e204d454d 
00001a90 4d41505f5357 
00001a96 5f4d414a4f52 
00001a9c 5f5645525349 
00001aa2 4f4e00 
00001aa5 01            11592 	.byte	1
00001aa6 21            11593 	.byte	33
00001aa7 4d454d5f5357  11594 	.strz	"MEM_SW_MINOR_VERSION MEMMAP_SW_MINOR_VERSION"
00001aad 5f4d494e4f52 
00001ab3 5f5645525349 
00001ab9 4f4e204d454d 
00001abf 4d41505f5357 
00001ac5 5f4d494e4f52 
00001acb 5f5645525349 
00001ad1 4f4e00 
00001ad4 01            11595 	.byte	1
00001ad5 22            11596 	.byte	34
00001ad6 4d454d5f5357  11597 	.strz	"MEM_SW_PATCH_VERSION MEMMAP_SW_PATCH_VERSION"
00001adc 5f5041544348 
00001ae2 5f5645525349 
00001ae8 4f4e204d454d 
00001aee 4d41505f5357 
00001af4 5f5041544348 
00001afa 5f5645525349 
00001b00 4f4e00 
00001b03 01            11598 	.byte	1
00001b04 24            11599 	.byte	36

                                                                      Page 228
                                                              C:\Users\nhuliyap\AppData\Local\Temp\gh_0000d3s1.s
00001b05 4d454d4d4150  11600 	.strz	"MEMMAP_ERROR "
00001b0b 5f4552524f52 
00001b11 2000 
00001b13 01            11601 	.byte	1
00001b14 7f            11602 	.byte	127
00001b15 53544f505f53  11603 	.strz	"STOP_SEC_CONST "
00001b1b 45435f434f4e 
00001b21 53542000 
00001b25 03            11604 	.byte	3
00001b26 f403          11605 	.byte	244,3
00001b28 16            11606 	.byte	22
00001b29 04            11607 	.byte	4
00001b2a 04            11608 	.byte	4
00001b2b 04            11609 	.byte	4
00001b2c 01            11610 	.byte	1
00001b2d 25            11611 	.byte	37
00001b2e 4d454d49465f  11612 	.strz	"MEMIF_START_SEC_CODE "
00001b34 53544152545f 
00001b3a 5345435f434f 
00001b40 44452000 
00001b44 03            11613 	.byte	3
00001b45 26            11614 	.byte	38
00001b46 1b            11615 	.byte	27
00001b47 01            11616 	.byte	1
00001b48 02            11617 	.byte	2
00001b49 4d454d4d4150  11618 	.strz	"MEMMAP_VENDOR_ID (30u)"
00001b4f 5f56454e444f 
00001b55 525f49442028 
00001b5b 3330752900 
00001b60 01            11619 	.byte	1
00001b61 08            11620 	.byte	8
00001b62 4d454d4d4150  11621 	.strz	"MEMMAP_AR_RELEASE_MAJOR_VERSION (4u)"
00001b68 5f41525f5245 
00001b6e 4c454153455f 
00001b74 4d414a4f525f 
00001b7a 56455253494f 
00001b80 4e2028347529 
00001b86 00 
00001b87 01            11622 	.byte	1
00001b88 09            11623 	.byte	9
00001b89 4d454d4d4150  11624 	.strz	"MEMMAP_AR_RELEASE_MINOR_VERSION (0u)"
00001b8f 5f41525f5245 
00001b95 4c454153455f 
00001b9b 4d494e4f525f 
00001ba1 56455253494f 
00001ba7 4e2028307529 
00001bad 00 
00001bae 01            11625 	.byte	1
00001baf 0a            11626 	.byte	10
00001bb0 4d454d4d4150  11627 	.strz	"MEMMAP_AR_RELEASE_REVISION_VERSION (3u)"
00001bb6 5f41525f5245 
00001bbc 4c454153455f 
00001bc2 524556495349 
00001bc8 4f4e5f564552 
00001bce 53494f4e2028 
00001bd4 33752900 
00001bd8 01            11628 	.byte	1
00001bd9 10            11629 	.byte	16
00001bda 4d454d5f4152  11630 	.strz	"MEM_AR_RELEASE_MAJOR_VERSION MEMMAP_AR_RELEASE_MAJOR_VERSION"
00001be0 5f52454c4541 
00001be6 53455f4d414a 

                                                                      Page 229
                                                              C:\Users\nhuliyap\AppData\Local\Temp\gh_0000d3s1.s
00001bec 4f525f564552 
00001bf2 53494f4e204d 
00001bf8 454d4d41505f 
00001bfe 41525f52454c 
00001c04 454153455f4d 
00001c0a 414a4f525f56 
00001c10 455253494f4e 
00001c16 00 
00001c17 01            11631 	.byte	1
00001c18 11            11632 	.byte	17
00001c19 4d454d5f4152  11633 	.strz	"MEM_AR_RELEASE_MINOR_VERSION MEMMAP_AR_RELEASE_MINOR_VERSION"
00001c1f 5f52454c4541 
00001c25 53455f4d494e 
00001c2b 4f525f564552 
00001c31 53494f4e204d 
00001c37 454d4d41505f 
00001c3d 41525f52454c 
00001c43 454153455f4d 
00001c49 494e4f525f56 
00001c4f 455253494f4e 
00001c55 00 
00001c56 01            11634 	.byte	1
00001c57 12            11635 	.byte	18
00001c58 4d454d5f4152  11636 	.strz	"MEM_AR_RELEASE_PATCH_VERSION MEMMAP_AR_RELEASE_REVISION_VERSION"
00001c5e 5f52454c4541 
00001c64 53455f504154 
00001c6a 43485f564552 
00001c70 53494f4e204d 
00001c76 454d4d41505f 
00001c7c 41525f52454c 
00001c82 454153455f52 
00001c88 45564953494f 
00001c8e 4e5f56455253 
00001c94 494f4e00 
00001c98 01            11637 	.byte	1
00001c99 18            11638 	.byte	24
00001c9a 4d454d4d4150  11639 	.strz	"MEMMAP_SW_MAJOR_VERSION (1u)"
00001ca0 5f53575f4d41 
00001ca6 4a4f525f5645 
00001cac 5253494f4e20 
00001cb2 2831752900 
00001cb7 01            11640 	.byte	1
00001cb8 19            11641 	.byte	25
00001cb9 4d454d4d4150  11642 	.strz	"MEMMAP_SW_MINOR_VERSION (11u)"
00001cbf 5f53575f4d49 
00001cc5 4e4f525f5645 
00001ccb 5253494f4e20 
00001cd1 283131752900 
00001cd7 01            11643 	.byte	1
00001cd8 1a            11644 	.byte	26
00001cd9 4d454d4d4150  11645 	.strz	"MEMMAP_SW_PATCH_VERSION (0u)"
00001cdf 5f53575f5041 
00001ce5 5443485f5645 
00001ceb 5253494f4e20 
00001cf1 2830752900 
00001cf6 01            11646 	.byte	1
00001cf7 20            11647 	.byte	32
00001cf8 4d454d5f5357  11648 	.strz	"MEM_SW_MAJOR_VERSION MEMMAP_SW_MAJOR_VERSION"
00001cfe 5f4d414a4f52 
00001d04 5f5645525349 
00001d0a 4f4e204d454d 

                                                                      Page 230
                                                              C:\Users\nhuliyap\AppData\Local\Temp\gh_0000d3s1.s
00001d10 4d41505f5357 
00001d16 5f4d414a4f52 
00001d1c 5f5645525349 
00001d22 4f4e00 
00001d25 01            11649 	.byte	1
00001d26 21            11650 	.byte	33
00001d27 4d454d5f5357  11651 	.strz	"MEM_SW_MINOR_VERSION MEMMAP_SW_MINOR_VERSION"
00001d2d 5f4d494e4f52 
00001d33 5f5645525349 
00001d39 4f4e204d454d 
00001d3f 4d41505f5357 
00001d45 5f4d494e4f52 
00001d4b 5f5645525349 
00001d51 4f4e00 
00001d54 01            11652 	.byte	1
00001d55 22            11653 	.byte	34
00001d56 4d454d5f5357  11654 	.strz	"MEM_SW_PATCH_VERSION MEMMAP_SW_PATCH_VERSION"
00001d5c 5f5041544348 
00001d62 5f5645525349 
00001d68 4f4e204d454d 
00001d6e 4d41505f5357 
00001d74 5f5041544348 
00001d7a 5f5645525349 
00001d80 4f4e00 
00001d83 01            11655 	.byte	1
00001d84 24            11656 	.byte	36
00001d85 4d454d4d4150  11657 	.strz	"MEMMAP_ERROR "
00001d8b 5f4552524f52 
00001d91 2000 
00001d93 01            11658 	.byte	1
00001d94 8401          11659 	.byte	132,1
00001d96 53544152545f  11660 	.strz	"START_SEC_CODE "
00001d9c 5345435f434f 
00001da2 44452000 
00001da6 03            11661 	.byte	3
00001da7 f403          11662 	.byte	244,3
00001da9 16            11663 	.byte	22
00001daa 01            11664 	.byte	1
00001dab f407          11665 	.byte	244,7
00001dad 434f44455f53  11666 	.strz	"CODE_SEC_OPEN "
00001db3 45435f4f5045 
00001db9 4e2000 
00001dbc 04            11667 	.byte	4
00001dbd 04            11668 	.byte	4
00001dbe 01            11669 	.byte	1
00001dbf 3d            11670 	.byte	61
00001dc0 4d454d49465f  11671 	.strz	"MEMIF_STOP_SEC_CODE "
00001dc6 53544f505f53 
00001dcc 45435f434f44 
00001dd2 452000 
00001dd5 03            11672 	.byte	3
00001dd6 3e            11673 	.byte	62
00001dd7 1b            11674 	.byte	27
00001dd8 01            11675 	.byte	1
00001dd9 02            11676 	.byte	2
00001dda 4d454d4d4150  11677 	.strz	"MEMMAP_VENDOR_ID (30u)"
00001de0 5f56454e444f 
00001de6 525f49442028 
00001dec 3330752900 
00001df1 01            11678 	.byte	1
00001df2 08            11679 	.byte	8

                                                                      Page 231
                                                              C:\Users\nhuliyap\AppData\Local\Temp\gh_0000d3s1.s
00001df3 4d454d4d4150  11680 	.strz	"MEMMAP_AR_RELEASE_MAJOR_VERSION (4u)"
00001df9 5f41525f5245 
00001dff 4c454153455f 
00001e05 4d414a4f525f 
00001e0b 56455253494f 
00001e11 4e2028347529 
00001e17 00 
00001e18 01            11681 	.byte	1
00001e19 09            11682 	.byte	9
00001e1a 4d454d4d4150  11683 	.strz	"MEMMAP_AR_RELEASE_MINOR_VERSION (0u)"
00001e20 5f41525f5245 
00001e26 4c454153455f 
00001e2c 4d494e4f525f 
00001e32 56455253494f 
00001e38 4e2028307529 
00001e3e 00 
00001e3f 01            11684 	.byte	1
00001e40 0a            11685 	.byte	10
00001e41 4d454d4d4150  11686 	.strz	"MEMMAP_AR_RELEASE_REVISION_VERSION (3u)"
00001e47 5f41525f5245 
00001e4d 4c454153455f 
00001e53 524556495349 
00001e59 4f4e5f564552 
00001e5f 53494f4e2028 
00001e65 33752900 
00001e69 01            11687 	.byte	1
00001e6a 10            11688 	.byte	16
00001e6b 4d454d5f4152  11689 	.strz	"MEM_AR_RELEASE_MAJOR_VERSION MEMMAP_AR_RELEASE_MAJOR_VERSION"
00001e71 5f52454c4541 
00001e77 53455f4d414a 
00001e7d 4f525f564552 
00001e83 53494f4e204d 
00001e89 454d4d41505f 
00001e8f 41525f52454c 
00001e95 454153455f4d 
00001e9b 414a4f525f56 
00001ea1 455253494f4e 
00001ea7 00 
00001ea8 01            11690 	.byte	1
00001ea9 11            11691 	.byte	17
00001eaa 4d454d5f4152  11692 	.strz	"MEM_AR_RELEASE_MINOR_VERSION MEMMAP_AR_RELEASE_MINOR_VERSION"
00001eb0 5f52454c4541 
00001eb6 53455f4d494e 
00001ebc 4f525f564552 
00001ec2 53494f4e204d 
00001ec8 454d4d41505f 
00001ece 41525f52454c 
00001ed4 454153455f4d 
00001eda 494e4f525f56 
00001ee0 455253494f4e 
00001ee6 00 
00001ee7 01            11693 	.byte	1
00001ee8 12            11694 	.byte	18
00001ee9 4d454d5f4152  11695 	.strz	"MEM_AR_RELEASE_PATCH_VERSION MEMMAP_AR_RELEASE_REVISION_VERSION"
00001eef 5f52454c4541 
00001ef5 53455f504154 
00001efb 43485f564552 
00001f01 53494f4e204d 
00001f07 454d4d41505f 
00001f0d 41525f52454c 
00001f13 454153455f52 

                                                                      Page 232
                                                              C:\Users\nhuliyap\AppData\Local\Temp\gh_0000d3s1.s
00001f19 45564953494f 
00001f1f 4e5f56455253 
00001f25 494f4e00 
00001f29 01            11696 	.byte	1
00001f2a 18            11697 	.byte	24
00001f2b 4d454d4d4150  11698 	.strz	"MEMMAP_SW_MAJOR_VERSION (1u)"
00001f31 5f53575f4d41 
00001f37 4a4f525f5645 
00001f3d 5253494f4e20 
00001f43 2831752900 
00001f48 01            11699 	.byte	1
00001f49 19            11700 	.byte	25
00001f4a 4d454d4d4150  11701 	.strz	"MEMMAP_SW_MINOR_VERSION (11u)"
00001f50 5f53575f4d49 
00001f56 4e4f525f5645 
00001f5c 5253494f4e20 
00001f62 283131752900 
00001f68 01            11702 	.byte	1
00001f69 1a            11703 	.byte	26
00001f6a 4d454d4d4150  11704 	.strz	"MEMMAP_SW_PATCH_VERSION (0u)"
00001f70 5f53575f5041 
00001f76 5443485f5645 
00001f7c 5253494f4e20 
00001f82 2830752900 
00001f87 01            11705 	.byte	1
00001f88 20            11706 	.byte	32
00001f89 4d454d5f5357  11707 	.strz	"MEM_SW_MAJOR_VERSION MEMMAP_SW_MAJOR_VERSION"
00001f8f 5f4d414a4f52 
00001f95 5f5645525349 
00001f9b 4f4e204d454d 
00001fa1 4d41505f5357 
00001fa7 5f4d414a4f52 
00001fad 5f5645525349 
00001fb3 4f4e00 
00001fb6 01            11708 	.byte	1
00001fb7 21            11709 	.byte	33
00001fb8 4d454d5f5357  11710 	.strz	"MEM_SW_MINOR_VERSION MEMMAP_SW_MINOR_VERSION"
00001fbe 5f4d494e4f52 
00001fc4 5f5645525349 
00001fca 4f4e204d454d 
00001fd0 4d41505f5357 
00001fd6 5f4d494e4f52 
00001fdc 5f5645525349 
00001fe2 4f4e00 
00001fe5 01            11711 	.byte	1
00001fe6 22            11712 	.byte	34
00001fe7 4d454d5f5357  11713 	.strz	"MEM_SW_PATCH_VERSION MEMMAP_SW_PATCH_VERSION"
00001fed 5f5041544348 
00001ff3 5f5645525349 
00001ff9 4f4e204d454d 
00001fff 4d41505f5357 
00002005 5f5041544348 
0000200b 5f5645525349 
00002011 4f4e00 
00002014 01            11714 	.byte	1
00002015 24            11715 	.byte	36
00002016 4d454d4d4150  11716 	.strz	"MEMMAP_ERROR "
0000201c 5f4552524f52 
00002022 2000 
00002024 01            11717 	.byte	1
00002025 8901          11718 	.byte	137,1

                                                                      Page 233
                                                              C:\Users\nhuliyap\AppData\Local\Temp\gh_0000d3s1.s
00002027 53544f505f53  11719 	.strz	"STOP_SEC_CODE "
0000202d 45435f434f44 
00002033 452000 
00002036 03            11720 	.byte	3
00002037 f403          11721 	.byte	244,3
00002039 16            11722 	.byte	22
0000203a 04            11723 	.byte	4
0000203b 04            11724 	.byte	4
0000203c 04            11725 	.byte	4
0000203d 01            11726 	.byte	1
0000203e 4c            11727 	.byte	76
0000203f 4e564d5f424c  11728 	.strz	"NVM_BLOCK_REDUNDANT 0x01u"
00002045 4f434b5f5245 
0000204b 44554e44414e 
00002051 542030783031 
00002057 7500 
00002059 01            11729 	.byte	1
0000205a 4d            11730 	.byte	77
0000205b 4e564d5f424c  11731 	.strz	"NVM_BLOCK_DATASET 0x02u"
00002061 4f434b5f4441 
00002067 544153455420 
0000206d 307830327500 
00002073 01            11732 	.byte	1
00002074 62            11733 	.byte	98
00002075 4e564d5f4341  11734 	.strz	"NVM_CALC_RAM_CRC_USED STD_OFF"
0000207b 4c435f52414d 
00002081 5f4352435f55 
00002087 534544205354 
0000208d 445f4f464600 
00002093 01            11735 	.byte	1
00002094 68            11736 	.byte	104
00002095 4e564d5f424c  11737 	.strz	"NVM_BLOCK_USE_CRC_OFF (0u)"
0000209b 4f434b5f5553 
000020a1 455f4352435f 
000020a7 4f4646202830 
000020ad 752900 
000020b0 01            11738 	.byte	1
000020b1 6f            11739 	.byte	111
000020b2 4e564d5f424c  11740 	.strz	"NVM_BLOCK_WRITE_PROT_ON (2u)"
000020b8 4f434b5f5752 
000020be 4954455f5052 
000020c4 4f545f4f4e20 
000020ca 2832752900 
000020cf 01            11741 	.byte	1
000020d0 71            11742 	.byte	113
000020d1 4e564d5f424c  11743 	.strz	"NVM_BLOCK_WRITE_BLOCK_ONCE_ON (4u)"
000020d7 4f434b5f5752 
000020dd 4954455f424c 
000020e3 4f434b5f4f4e 
000020e9 43455f4f4e20 
000020ef 2834752900 
000020f4 01            11744 	.byte	1
000020f5 73            11745 	.byte	115
000020f6 4e564d5f5245  11746 	.strz	"NVM_RESISTANT_TO_CHANGED_SW_ON (8u)"
000020fc 53495354414e 
00002102 545f544f5f43 
00002108 48414e474544 
0000210e 5f53575f4f4e 
00002114 202838752900 
0000211a 01            11747 	.byte	1
0000211b 79            11748 	.byte	121

                                                                      Page 234
                                                              C:\Users\nhuliyap\AppData\Local\Temp\gh_0000d3s1.s
0000211c 4e564d5f4342  11749 	.strz	"NVM_CBK_DURING_READALL_ON (64)"
00002122 4b5f44555249 
00002128 4e475f524541 
0000212e 44414c4c5f4f 
00002134 4e2028363429 
0000213a 00 
0000213b 01            11750 	.byte	1
0000213c 7d            11751 	.byte	125
0000213d 4e564d5f5354  11752 	.strz	"NVM_STATE_VALID_SET (0x01u)"
00002143 4154455f5641 
00002149 4c49445f5345 
0000214f 542028307830 
00002155 31752900 
00002159 01            11753 	.byte	1
0000215a 7f            11754 	.byte	127
0000215b 4e564d5f5354  11755 	.strz	"NVM_STATE_CHANGED_SET (0x02u)"
00002161 4154455f4348 
00002167 414e4745445f 
0000216d 534554202830 
00002173 783032752900 
00002179 01            11756 	.byte	1
0000217a 8001          11757 	.byte	128,1
0000217c 4e564d5f5354  11758 	.strz	"NVM_STATE_CHANGED_CL (0xFDu)"
00002182 4154455f4348 
00002188 414e4745445f 
0000218e 434c20283078 
00002194 4644752900 
00002199 01            11759 	.byte	1
0000219a 8101          11760 	.byte	129,1
0000219c 4e564d5f4e56  11761 	.strz	"NVM_NVRAM_UPTODATE_SET (0x04u)"
000021a2 52414d5f5550 
000021a8 544f44415445 
000021ae 5f5345542028 
000021b4 307830347529 
000021ba 00 
000021bb 01            11762 	.byte	1
000021bc 8201          11763 	.byte	130,1
000021be 4e564d5f4e56  11764 	.strz	"NVM_NVRAM_UPTODATE_CL (0xFBu)"
000021c4 52414d5f5550 
000021ca 544f44415445 
000021d0 5f434c202830 
000021d6 784642752900 
000021dc 01            11765 	.byte	1
000021dd 8301          11766 	.byte	131,1
000021df 4e564d5f5752  11767 	.strz	"NVM_WR_PROT_SET (0x80u)"
000021e5 5f50524f545f 
000021eb 534554202830 
000021f1 783830752900 
000021f7 01            11768 	.byte	1
000021f8 8401          11769 	.byte	132,1
000021fa 4e564d5f5752  11770 	.strz	"NVM_WR_PROT_CL (0x7Fu)"
00002200 5f50524f545f 
00002206 434c20283078 
0000220c 3746752900 
00002211 01            11771 	.byte	1
00002212 8701          11772 	.byte	135,1
00002214 4e564d5f4e56  11773 	.strz	"NVM_NVBLOCK_STATE_UPTODATE (0x00u)"
0000221a 424c4f434b5f 
00002220 53544154455f 
00002226 5550544f4441 
0000222c 544520283078 

                                                                      Page 235
                                                              C:\Users\nhuliyap\AppData\Local\Temp\gh_0000d3s1.s
00002232 3030752900 
00002237 01            11774 	.byte	1
00002238 8801          11775 	.byte	136,1
0000223a 4e564d5f4e56  11776 	.strz	"NVM_NVBLOCK_STATE_OUTDATED (0x01u)"
00002240 424c4f434b5f 
00002246 53544154455f 
0000224c 4f5554444154 
00002252 454420283078 
00002258 3031752900 
0000225d 01            11777 	.byte	1
0000225e 8901          11778 	.byte	137,1
00002260 4e564d5f4e56  11779 	.strz	"NVM_NVBLOCK_STATE_DEFECT (0x02u)"
00002266 424c4f434b5f 
0000226c 53544154455f 
00002272 444546454354 
00002278 202830783032 
0000227e 752900 
00002281 01            11780 	.byte	1
00002282 8a01          11781 	.byte	138,1
00002284 4e564d5f4e56  11782 	.strz	"NVM_NVBLOCK_STATE_UNKNOWN (0x03u)"
0000228a 424c4f434b5f 
00002290 53544154455f 
00002296 554e4b4e4f57 
0000229c 4e2028307830 
000022a2 33752900 
000022a6 01            11783 	.byte	1
000022a7 8b01          11784 	.byte	139,1
000022a9 4e564d5f4e56  11785 	.strz	"NVM_NVBLOCK_STATE_SEC_ACTIVE (0x80u)"
000022af 424c4f434b5f 
000022b5 53544154455f 
000022bb 5345435f4143 
000022c1 544956452028 
000022c7 307838307529 
000022cd 00 
000022ce 01            11786 	.byte	1
000022cf 8c01          11787 	.byte	140,1
000022d1 4e564d5f4e56  11788 	.strz	"NVM_NVBLOCK_STATE_PRI_ACTIVE (0x7Fu)"
000022d7 424c4f434b5f 
000022dd 53544154455f 
000022e3 5052495f4143 
000022e9 544956452028 
000022ef 307837467529 
000022f5 00 
000022f6 01            11789 	.byte	1
000022f7 8d01          11790 	.byte	141,1
000022f9 4e564d5f5052  11791 	.strz	"NVM_PRI_NVBLOCK_STATE_SHIFT (0x5u)"
000022ff 495f4e56424c 
00002305 4f434b5f5354 
0000230b 4154455f5348 
00002311 494654202830 
00002317 7835752900 
0000231c 01            11792 	.byte	1
0000231d 8e01          11793 	.byte	142,1
0000231f 4e564d5f5345  11794 	.strz	"NVM_SEC_NVBLOCK_STATE_SHIFT (0x3u)"
00002325 435f4e56424c 
0000232b 4f434b5f5354 
00002331 4154455f5348 
00002337 494654202830 
0000233d 7833752900 
00002342 01            11795 	.byte	1
00002343 8f01          11796 	.byte	143,1

                                                                      Page 236
                                                              C:\Users\nhuliyap\AppData\Local\Temp\gh_0000d3s1.s
00002345 4e564d5f4e56  11797 	.strz	"NVM_NVBLOCK_STATE_BIT_MASK (0x3u)"
0000234b 424c4f434b5f 
00002351 53544154455f 
00002357 4249545f4d41 
0000235d 534b20283078 
00002363 33752900 
00002367 01            11798 	.byte	1
00002368 e501          11799 	.byte	229,1
0000236a 4e564d5f5354  11800 	.strz	"NVM_START_SEC_CODE "
00002370 4152545f5345 
00002376 435f434f4445 
0000237c 2000 
0000237e 03            11801 	.byte	3
0000237f e601          11802 	.byte	230,1
00002381 1b            11803 	.byte	27
00002382 01            11804 	.byte	1
00002383 02            11805 	.byte	2
00002384 4d454d4d4150  11806 	.strz	"MEMMAP_VENDOR_ID (30u)"
0000238a 5f56454e444f 
00002390 525f49442028 
00002396 3330752900 
0000239b 01            11807 	.byte	1
0000239c 08            11808 	.byte	8
0000239d 4d454d4d4150  11809 	.strz	"MEMMAP_AR_RELEASE_MAJOR_VERSION (4u)"
000023a3 5f41525f5245 
000023a9 4c454153455f 
000023af 4d414a4f525f 
000023b5 56455253494f 
000023bb 4e2028347529 
000023c1 00 
000023c2 01            11810 	.byte	1
000023c3 09            11811 	.byte	9
000023c4 4d454d4d4150  11812 	.strz	"MEMMAP_AR_RELEASE_MINOR_VERSION (0u)"
000023ca 5f41525f5245 
000023d0 4c454153455f 
000023d6 4d494e4f525f 
000023dc 56455253494f 
000023e2 4e2028307529 
000023e8 00 
000023e9 01            11813 	.byte	1
000023ea 0a            11814 	.byte	10
000023eb 4d454d4d4150  11815 	.strz	"MEMMAP_AR_RELEASE_REVISION_VERSION (3u)"
000023f1 5f41525f5245 
000023f7 4c454153455f 
000023fd 524556495349 
00002403 4f4e5f564552 
00002409 53494f4e2028 
0000240f 33752900 
00002413 01            11816 	.byte	1
00002414 10            11817 	.byte	16
00002415 4d454d5f4152  11818 	.strz	"MEM_AR_RELEASE_MAJOR_VERSION MEMMAP_AR_RELEASE_MAJOR_VERSION"
0000241b 5f52454c4541 
00002421 53455f4d414a 
00002427 4f525f564552 
0000242d 53494f4e204d 
00002433 454d4d41505f 
00002439 41525f52454c 
0000243f 454153455f4d 
00002445 414a4f525f56 
0000244b 455253494f4e 
00002451 00 

                                                                      Page 237
                                                              C:\Users\nhuliyap\AppData\Local\Temp\gh_0000d3s1.s
00002452 01            11819 	.byte	1
00002453 11            11820 	.byte	17
00002454 4d454d5f4152  11821 	.strz	"MEM_AR_RELEASE_MINOR_VERSION MEMMAP_AR_RELEASE_MINOR_VERSION"
0000245a 5f52454c4541 
00002460 53455f4d494e 
00002466 4f525f564552 
0000246c 53494f4e204d 
00002472 454d4d41505f 
00002478 41525f52454c 
0000247e 454153455f4d 
00002484 494e4f525f56 
0000248a 455253494f4e 
00002490 00 
00002491 01            11822 	.byte	1
00002492 12            11823 	.byte	18
00002493 4d454d5f4152  11824 	.strz	"MEM_AR_RELEASE_PATCH_VERSION MEMMAP_AR_RELEASE_REVISION_VERSION"
00002499 5f52454c4541 
0000249f 53455f504154 
000024a5 43485f564552 
000024ab 53494f4e204d 
000024b1 454d4d41505f 
000024b7 41525f52454c 
000024bd 454153455f52 
000024c3 45564953494f 
000024c9 4e5f56455253 
000024cf 494f4e00 
000024d3 01            11825 	.byte	1
000024d4 18            11826 	.byte	24
000024d5 4d454d4d4150  11827 	.strz	"MEMMAP_SW_MAJOR_VERSION (1u)"
000024db 5f53575f4d41 
000024e1 4a4f525f5645 
000024e7 5253494f4e20 
000024ed 2831752900 
000024f2 01            11828 	.byte	1
000024f3 19            11829 	.byte	25
000024f4 4d454d4d4150  11830 	.strz	"MEMMAP_SW_MINOR_VERSION (11u)"
000024fa 5f53575f4d49 
00002500 4e4f525f5645 
00002506 5253494f4e20 
0000250c 283131752900 
00002512 01            11831 	.byte	1
00002513 1a            11832 	.byte	26
00002514 4d454d4d4150  11833 	.strz	"MEMMAP_SW_PATCH_VERSION (0u)"
0000251a 5f53575f5041 
00002520 5443485f5645 
00002526 5253494f4e20 
0000252c 2830752900 
00002531 01            11834 	.byte	1
00002532 20            11835 	.byte	32
00002533 4d454d5f5357  11836 	.strz	"MEM_SW_MAJOR_VERSION MEMMAP_SW_MAJOR_VERSION"
00002539 5f4d414a4f52 
0000253f 5f5645525349 
00002545 4f4e204d454d 
0000254b 4d41505f5357 
00002551 5f4d414a4f52 
00002557 5f5645525349 
0000255d 4f4e00 
00002560 01            11837 	.byte	1
00002561 21            11838 	.byte	33
00002562 4d454d5f5357  11839 	.strz	"MEM_SW_MINOR_VERSION MEMMAP_SW_MINOR_VERSION"
00002568 5f4d494e4f52 

                                                                      Page 238
                                                              C:\Users\nhuliyap\AppData\Local\Temp\gh_0000d3s1.s
0000256e 5f5645525349 
00002574 4f4e204d454d 
0000257a 4d41505f5357 
00002580 5f4d494e4f52 
00002586 5f5645525349 
0000258c 4f4e00 
0000258f 01            11840 	.byte	1
00002590 22            11841 	.byte	34
00002591 4d454d5f5357  11842 	.strz	"MEM_SW_PATCH_VERSION MEMMAP_SW_PATCH_VERSION"
00002597 5f5041544348 
0000259d 5f5645525349 
000025a3 4f4e204d454d 
000025a9 4d41505f5357 
000025af 5f5041544348 
000025b5 5f5645525349 
000025bb 4f4e00 
000025be 01            11843 	.byte	1
000025bf 24            11844 	.byte	36
000025c0 4d454d4d4150  11845 	.strz	"MEMMAP_ERROR "
000025c6 5f4552524f52 
000025cc 2000 
000025ce 01            11846 	.byte	1
000025cf 8e01          11847 	.byte	142,1
000025d1 53544152545f  11848 	.strz	"START_SEC_CODE "
000025d7 5345435f434f 
000025dd 44452000 
000025e1 03            11849 	.byte	3
000025e2 f403          11850 	.byte	244,3
000025e4 16            11851 	.byte	22
000025e5 01            11852 	.byte	1
000025e6 f407          11853 	.byte	244,7
000025e8 434f44455f53  11854 	.strz	"CODE_SEC_OPEN "
000025ee 45435f4f5045 
000025f4 4e2000 
000025f7 04            11855 	.byte	4
000025f8 04            11856 	.byte	4
000025f9 01            11857 	.byte	1
000025fa eb01          11858 	.byte	235,1
000025fc 4e564d5f5354  11859 	.strz	"NVM_STOP_SEC_CODE "
00002602 4f505f534543 
00002608 5f434f444520 
0000260e 00 
0000260f 03            11860 	.byte	3
00002610 ec01          11861 	.byte	236,1
00002612 1b            11862 	.byte	27
00002613 01            11863 	.byte	1
00002614 02            11864 	.byte	2
00002615 4d454d4d4150  11865 	.strz	"MEMMAP_VENDOR_ID (30u)"
0000261b 5f56454e444f 
00002621 525f49442028 
00002627 3330752900 
0000262c 01            11866 	.byte	1
0000262d 08            11867 	.byte	8
0000262e 4d454d4d4150  11868 	.strz	"MEMMAP_AR_RELEASE_MAJOR_VERSION (4u)"
00002634 5f41525f5245 
0000263a 4c454153455f 
00002640 4d414a4f525f 
00002646 56455253494f 
0000264c 4e2028347529 
00002652 00 
00002653 01            11869 	.byte	1

                                                                      Page 239
                                                              C:\Users\nhuliyap\AppData\Local\Temp\gh_0000d3s1.s
00002654 09            11870 	.byte	9
00002655 4d454d4d4150  11871 	.strz	"MEMMAP_AR_RELEASE_MINOR_VERSION (0u)"
0000265b 5f41525f5245 
00002661 4c454153455f 
00002667 4d494e4f525f 
0000266d 56455253494f 
00002673 4e2028307529 
00002679 00 
0000267a 01            11872 	.byte	1
0000267b 0a            11873 	.byte	10
0000267c 4d454d4d4150  11874 	.strz	"MEMMAP_AR_RELEASE_REVISION_VERSION (3u)"
00002682 5f41525f5245 
00002688 4c454153455f 
0000268e 524556495349 
00002694 4f4e5f564552 
0000269a 53494f4e2028 
000026a0 33752900 
000026a4 01            11875 	.byte	1
000026a5 10            11876 	.byte	16
000026a6 4d454d5f4152  11877 	.strz	"MEM_AR_RELEASE_MAJOR_VERSION MEMMAP_AR_RELEASE_MAJOR_VERSION"
000026ac 5f52454c4541 
000026b2 53455f4d414a 
000026b8 4f525f564552 
000026be 53494f4e204d 
000026c4 454d4d41505f 
000026ca 41525f52454c 
000026d0 454153455f4d 
000026d6 414a4f525f56 
000026dc 455253494f4e 
000026e2 00 
000026e3 01            11878 	.byte	1
000026e4 11            11879 	.byte	17
000026e5 4d454d5f4152  11880 	.strz	"MEM_AR_RELEASE_MINOR_VERSION MEMMAP_AR_RELEASE_MINOR_VERSION"
000026eb 5f52454c4541 
000026f1 53455f4d494e 
000026f7 4f525f564552 
000026fd 53494f4e204d 
00002703 454d4d41505f 
00002709 41525f52454c 
0000270f 454153455f4d 
00002715 494e4f525f56 
0000271b 455253494f4e 
00002721 00 
00002722 01            11881 	.byte	1
00002723 12            11882 	.byte	18
00002724 4d454d5f4152  11883 	.strz	"MEM_AR_RELEASE_PATCH_VERSION MEMMAP_AR_RELEASE_REVISION_VERSION"
0000272a 5f52454c4541 
00002730 53455f504154 
00002736 43485f564552 
0000273c 53494f4e204d 
00002742 454d4d41505f 
00002748 41525f52454c 
0000274e 454153455f52 
00002754 45564953494f 
0000275a 4e5f56455253 
00002760 494f4e00 
00002764 01            11884 	.byte	1
00002765 18            11885 	.byte	24
00002766 4d454d4d4150  11886 	.strz	"MEMMAP_SW_MAJOR_VERSION (1u)"
0000276c 5f53575f4d41 
00002772 4a4f525f5645 

                                                                      Page 240
                                                              C:\Users\nhuliyap\AppData\Local\Temp\gh_0000d3s1.s
00002778 5253494f4e20 
0000277e 2831752900 
00002783 01            11887 	.byte	1
00002784 19            11888 	.byte	25
00002785 4d454d4d4150  11889 	.strz	"MEMMAP_SW_MINOR_VERSION (11u)"
0000278b 5f53575f4d49 
00002791 4e4f525f5645 
00002797 5253494f4e20 
0000279d 283131752900 
000027a3 01            11890 	.byte	1
000027a4 1a            11891 	.byte	26
000027a5 4d454d4d4150  11892 	.strz	"MEMMAP_SW_PATCH_VERSION (0u)"
000027ab 5f53575f5041 
000027b1 5443485f5645 
000027b7 5253494f4e20 
000027bd 2830752900 
000027c2 01            11893 	.byte	1
000027c3 20            11894 	.byte	32
000027c4 4d454d5f5357  11895 	.strz	"MEM_SW_MAJOR_VERSION MEMMAP_SW_MAJOR_VERSION"
000027ca 5f4d414a4f52 
000027d0 5f5645525349 
000027d6 4f4e204d454d 
000027dc 4d41505f5357 
000027e2 5f4d414a4f52 
000027e8 5f5645525349 
000027ee 4f4e00 
000027f1 01            11896 	.byte	1
000027f2 21            11897 	.byte	33
000027f3 4d454d5f5357  11898 	.strz	"MEM_SW_MINOR_VERSION MEMMAP_SW_MINOR_VERSION"
000027f9 5f4d494e4f52 
000027ff 5f5645525349 
00002805 4f4e204d454d 
0000280b 4d41505f5357 
00002811 5f4d494e4f52 
00002817 5f5645525349 
0000281d 4f4e00 
00002820 01            11899 	.byte	1
00002821 22            11900 	.byte	34
00002822 4d454d5f5357  11901 	.strz	"MEM_SW_PATCH_VERSION MEMMAP_SW_PATCH_VERSION"
00002828 5f5041544348 
0000282e 5f5645525349 
00002834 4f4e204d454d 
0000283a 4d41505f5357 
00002840 5f5041544348 
00002846 5f5645525349 
0000284c 4f4e00 
0000284f 01            11902 	.byte	1
00002850 24            11903 	.byte	36
00002851 4d454d4d4150  11904 	.strz	"MEMMAP_ERROR "
00002857 5f4552524f52 
0000285d 2000 
0000285f 01            11905 	.byte	1
00002860 9201          11906 	.byte	146,1
00002862 53544f505f53  11907 	.strz	"STOP_SEC_CODE "
00002868 45435f434f44 
0000286e 452000 
00002871 03            11908 	.byte	3
00002872 f403          11909 	.byte	244,3
00002874 16            11910 	.byte	22
00002875 04            11911 	.byte	4
00002876 04            11912 	.byte	4

                                                                      Page 241
                                                              C:\Users\nhuliyap\AppData\Local\Temp\gh_0000d3s1.s
00002877 01            11913 	.byte	1
00002878 ee01          11914 	.byte	238,1
0000287a 4e564d5f5354  11915 	.strz	"NVM_START_SEC_VAR_NOINIT_8 "
00002880 4152545f5345 
00002886 435f5641525f 
0000288c 4e4f494e4954 
00002892 5f382000 
00002896 03            11916 	.byte	3
00002897 ef01          11917 	.byte	239,1
00002899 1b            11918 	.byte	27
0000289a 01            11919 	.byte	1
0000289b 02            11920 	.byte	2
0000289c 4d454d4d4150  11921 	.strz	"MEMMAP_VENDOR_ID (30u)"
000028a2 5f56454e444f 
000028a8 525f49442028 
000028ae 3330752900 
000028b3 01            11922 	.byte	1
000028b4 08            11923 	.byte	8
000028b5 4d454d4d4150  11924 	.strz	"MEMMAP_AR_RELEASE_MAJOR_VERSION (4u)"
000028bb 5f41525f5245 
000028c1 4c454153455f 
000028c7 4d414a4f525f 
000028cd 56455253494f 
000028d3 4e2028347529 
000028d9 00 
000028da 01            11925 	.byte	1
000028db 09            11926 	.byte	9
000028dc 4d454d4d4150  11927 	.strz	"MEMMAP_AR_RELEASE_MINOR_VERSION (0u)"
000028e2 5f41525f5245 
000028e8 4c454153455f 
000028ee 4d494e4f525f 
000028f4 56455253494f 
000028fa 4e2028307529 
00002900 00 
00002901 01            11928 	.byte	1
00002902 0a            11929 	.byte	10
00002903 4d454d4d4150  11930 	.strz	"MEMMAP_AR_RELEASE_REVISION_VERSION (3u)"
00002909 5f41525f5245 
0000290f 4c454153455f 
00002915 524556495349 
0000291b 4f4e5f564552 
00002921 53494f4e2028 
00002927 33752900 
0000292b 01            11931 	.byte	1
0000292c 10            11932 	.byte	16
0000292d 4d454d5f4152  11933 	.strz	"MEM_AR_RELEASE_MAJOR_VERSION MEMMAP_AR_RELEASE_MAJOR_VERSION"
00002933 5f52454c4541 
00002939 53455f4d414a 
0000293f 4f525f564552 
00002945 53494f4e204d 
0000294b 454d4d41505f 
00002951 41525f52454c 
00002957 454153455f4d 
0000295d 414a4f525f56 
00002963 455253494f4e 
00002969 00 
0000296a 01            11934 	.byte	1
0000296b 11            11935 	.byte	17
0000296c 4d454d5f4152  11936 	.strz	"MEM_AR_RELEASE_MINOR_VERSION MEMMAP_AR_RELEASE_MINOR_VERSION"
00002972 5f52454c4541 
00002978 53455f4d494e 

                                                                      Page 242
                                                              C:\Users\nhuliyap\AppData\Local\Temp\gh_0000d3s1.s
0000297e 4f525f564552 
00002984 53494f4e204d 
0000298a 454d4d41505f 
00002990 41525f52454c 
00002996 454153455f4d 
0000299c 494e4f525f56 
000029a2 455253494f4e 
000029a8 00 
000029a9 01            11937 	.byte	1
000029aa 12            11938 	.byte	18
000029ab 4d454d5f4152  11939 	.strz	"MEM_AR_RELEASE_PATCH_VERSION MEMMAP_AR_RELEASE_REVISION_VERSION"
000029b1 5f52454c4541 
000029b7 53455f504154 
000029bd 43485f564552 
000029c3 53494f4e204d 
000029c9 454d4d41505f 
000029cf 41525f52454c 
000029d5 454153455f52 
000029db 45564953494f 
000029e1 4e5f56455253 
000029e7 494f4e00 
000029eb 01            11940 	.byte	1
000029ec 18            11941 	.byte	24
000029ed 4d454d4d4150  11942 	.strz	"MEMMAP_SW_MAJOR_VERSION (1u)"
000029f3 5f53575f4d41 
000029f9 4a4f525f5645 
000029ff 5253494f4e20 
00002a05 2831752900 
00002a0a 01            11943 	.byte	1
00002a0b 19            11944 	.byte	25
00002a0c 4d454d4d4150  11945 	.strz	"MEMMAP_SW_MINOR_VERSION (11u)"
00002a12 5f53575f4d49 
00002a18 4e4f525f5645 
00002a1e 5253494f4e20 
00002a24 283131752900 
00002a2a 01            11946 	.byte	1
00002a2b 1a            11947 	.byte	26
00002a2c 4d454d4d4150  11948 	.strz	"MEMMAP_SW_PATCH_VERSION (0u)"
00002a32 5f53575f5041 
00002a38 5443485f5645 
00002a3e 5253494f4e20 
00002a44 2830752900 
00002a49 01            11949 	.byte	1
00002a4a 20            11950 	.byte	32
00002a4b 4d454d5f5357  11951 	.strz	"MEM_SW_MAJOR_VERSION MEMMAP_SW_MAJOR_VERSION"
00002a51 5f4d414a4f52 
00002a57 5f5645525349 
00002a5d 4f4e204d454d 
00002a63 4d41505f5357 
00002a69 5f4d414a4f52 
00002a6f 5f5645525349 
00002a75 4f4e00 
00002a78 01            11952 	.byte	1
00002a79 21            11953 	.byte	33
00002a7a 4d454d5f5357  11954 	.strz	"MEM_SW_MINOR_VERSION MEMMAP_SW_MINOR_VERSION"
00002a80 5f4d494e4f52 
00002a86 5f5645525349 
00002a8c 4f4e204d454d 
00002a92 4d41505f5357 
00002a98 5f4d494e4f52 
00002a9e 5f5645525349 

                                                                      Page 243
                                                              C:\Users\nhuliyap\AppData\Local\Temp\gh_0000d3s1.s
00002aa4 4f4e00 
00002aa7 01            11955 	.byte	1
00002aa8 22            11956 	.byte	34
00002aa9 4d454d5f5357  11957 	.strz	"MEM_SW_PATCH_VERSION MEMMAP_SW_PATCH_VERSION"
00002aaf 5f5041544348 
00002ab5 5f5645525349 
00002abb 4f4e204d454d 
00002ac1 4d41505f5357 
00002ac7 5f5041544348 
00002acd 5f5645525349 
00002ad3 4f4e00 
00002ad6 01            11958 	.byte	1
00002ad7 24            11959 	.byte	36
00002ad8 4d454d4d4150  11960 	.strz	"MEMMAP_ERROR "
00002ade 5f4552524f52 
00002ae4 2000 
00002ae6 01            11961 	.byte	1
00002ae7 bb01          11962 	.byte	187,1
00002ae9 53544152545f  11963 	.strz	"START_SEC_VAR_NOINIT_8BIT "
00002aef 5345435f5641 
00002af5 525f4e4f494e 
00002afb 49545f384249 
00002b01 542000 
00002b04 03            11964 	.byte	3
00002b05 f403          11965 	.byte	244,3
00002b07 16            11966 	.byte	22
00002b08 01            11967 	.byte	1
00002b09 ab09          11968 	.byte	171,9
00002b0b 5641525f5345  11969 	.strz	"VAR_SEC_OPEN "
00002b11 435f4f50454e 
00002b17 2000 
00002b19 04            11970 	.byte	4
00002b1a 04            11971 	.byte	4
00002b1b 01            11972 	.byte	1
00002b1c f401          11973 	.byte	244,1
00002b1e 4e564d5f5354  11974 	.strz	"NVM_STOP_SEC_VAR_NOINIT_8 "
00002b24 4f505f534543 
00002b2a 5f5641525f4e 
00002b30 4f494e49545f 
00002b36 382000 
00002b39 03            11975 	.byte	3
00002b3a f501          11976 	.byte	245,1
00002b3c 1b            11977 	.byte	27
00002b3d 01            11978 	.byte	1
00002b3e 02            11979 	.byte	2
00002b3f 4d454d4d4150  11980 	.strz	"MEMMAP_VENDOR_ID (30u)"
00002b45 5f56454e444f 
00002b4b 525f49442028 
00002b51 3330752900 
00002b56 01            11981 	.byte	1
00002b57 08            11982 	.byte	8
00002b58 4d454d4d4150  11983 	.strz	"MEMMAP_AR_RELEASE_MAJOR_VERSION (4u)"
00002b5e 5f41525f5245 
00002b64 4c454153455f 
00002b6a 4d414a4f525f 
00002b70 56455253494f 
00002b76 4e2028347529 
00002b7c 00 
00002b7d 01            11984 	.byte	1
00002b7e 09            11985 	.byte	9
00002b7f 4d454d4d4150  11986 	.strz	"MEMMAP_AR_RELEASE_MINOR_VERSION (0u)"

                                                                      Page 244
                                                              C:\Users\nhuliyap\AppData\Local\Temp\gh_0000d3s1.s
00002b85 5f41525f5245 
00002b8b 4c454153455f 
00002b91 4d494e4f525f 
00002b97 56455253494f 
00002b9d 4e2028307529 
00002ba3 00 
00002ba4 01            11987 	.byte	1
00002ba5 0a            11988 	.byte	10
00002ba6 4d454d4d4150  11989 	.strz	"MEMMAP_AR_RELEASE_REVISION_VERSION (3u)"
00002bac 5f41525f5245 
00002bb2 4c454153455f 
00002bb8 524556495349 
00002bbe 4f4e5f564552 
00002bc4 53494f4e2028 
00002bca 33752900 
00002bce 01            11990 	.byte	1
00002bcf 10            11991 	.byte	16
00002bd0 4d454d5f4152  11992 	.strz	"MEM_AR_RELEASE_MAJOR_VERSION MEMMAP_AR_RELEASE_MAJOR_VERSION"
00002bd6 5f52454c4541 
00002bdc 53455f4d414a 
00002be2 4f525f564552 
00002be8 53494f4e204d 
00002bee 454d4d41505f 
00002bf4 41525f52454c 
00002bfa 454153455f4d 
00002c00 414a4f525f56 
00002c06 455253494f4e 
00002c0c 00 
00002c0d 01            11993 	.byte	1
00002c0e 11            11994 	.byte	17
00002c0f 4d454d5f4152  11995 	.strz	"MEM_AR_RELEASE_MINOR_VERSION MEMMAP_AR_RELEASE_MINOR_VERSION"
00002c15 5f52454c4541 
00002c1b 53455f4d494e 
00002c21 4f525f564552 
00002c27 53494f4e204d 
00002c2d 454d4d41505f 
00002c33 41525f52454c 
00002c39 454153455f4d 
00002c3f 494e4f525f56 
00002c45 455253494f4e 
00002c4b 00 
00002c4c 01            11996 	.byte	1
00002c4d 12            11997 	.byte	18
00002c4e 4d454d5f4152  11998 	.strz	"MEM_AR_RELEASE_PATCH_VERSION MEMMAP_AR_RELEASE_REVISION_VERSION"
00002c54 5f52454c4541 
00002c5a 53455f504154 
00002c60 43485f564552 
00002c66 53494f4e204d 
00002c6c 454d4d41505f 
00002c72 41525f52454c 
00002c78 454153455f52 
00002c7e 45564953494f 
00002c84 4e5f56455253 
00002c8a 494f4e00 
00002c8e 01            11999 	.byte	1
00002c8f 18            12000 	.byte	24
00002c90 4d454d4d4150  12001 	.strz	"MEMMAP_SW_MAJOR_VERSION (1u)"
00002c96 5f53575f4d41 
00002c9c 4a4f525f5645 
00002ca2 5253494f4e20 
00002ca8 2831752900 

                                                                      Page 245
                                                              C:\Users\nhuliyap\AppData\Local\Temp\gh_0000d3s1.s
00002cad 01            12002 	.byte	1
00002cae 19            12003 	.byte	25
00002caf 4d454d4d4150  12004 	.strz	"MEMMAP_SW_MINOR_VERSION (11u)"
00002cb5 5f53575f4d49 
00002cbb 4e4f525f5645 
00002cc1 5253494f4e20 
00002cc7 283131752900 
00002ccd 01            12005 	.byte	1
00002cce 1a            12006 	.byte	26
00002ccf 4d454d4d4150  12007 	.strz	"MEMMAP_SW_PATCH_VERSION (0u)"
00002cd5 5f53575f5041 
00002cdb 5443485f5645 
00002ce1 5253494f4e20 
00002ce7 2830752900 
00002cec 01            12008 	.byte	1
00002ced 20            12009 	.byte	32
00002cee 4d454d5f5357  12010 	.strz	"MEM_SW_MAJOR_VERSION MEMMAP_SW_MAJOR_VERSION"
00002cf4 5f4d414a4f52 
00002cfa 5f5645525349 
00002d00 4f4e204d454d 
00002d06 4d41505f5357 
00002d0c 5f4d414a4f52 
00002d12 5f5645525349 
00002d18 4f4e00 
00002d1b 01            12011 	.byte	1
00002d1c 21            12012 	.byte	33
00002d1d 4d454d5f5357  12013 	.strz	"MEM_SW_MINOR_VERSION MEMMAP_SW_MINOR_VERSION"
00002d23 5f4d494e4f52 
00002d29 5f5645525349 
00002d2f 4f4e204d454d 
00002d35 4d41505f5357 
00002d3b 5f4d494e4f52 
00002d41 5f5645525349 
00002d47 4f4e00 
00002d4a 01            12014 	.byte	1
00002d4b 22            12015 	.byte	34
00002d4c 4d454d5f5357  12016 	.strz	"MEM_SW_PATCH_VERSION MEMMAP_SW_PATCH_VERSION"
00002d52 5f5041544348 
00002d58 5f5645525349 
00002d5e 4f4e204d454d 
00002d64 4d41505f5357 
00002d6a 5f5041544348 
00002d70 5f5645525349 
00002d76 4f4e00 
00002d79 01            12017 	.byte	1
00002d7a 24            12018 	.byte	36
00002d7b 4d454d4d4150  12019 	.strz	"MEMMAP_ERROR "
00002d81 5f4552524f52 
00002d87 2000 
00002d89 01            12020 	.byte	1
00002d8a bf01          12021 	.byte	191,1
00002d8c 53544f505f53  12022 	.strz	"STOP_SEC_VAR "
00002d92 45435f564152 
00002d98 2000 
00002d9a 03            12023 	.byte	3
00002d9b f403          12024 	.byte	244,3
00002d9d 16            12025 	.byte	22
00002d9e 04            12026 	.byte	4
00002d9f 04            12027 	.byte	4
00002da0 01            12028 	.byte	1
00002da1 f801          12029 	.byte	248,1

                                                                      Page 246
                                                              C:\Users\nhuliyap\AppData\Local\Temp\gh_0000d3s1.s
00002da3 4e564d5f5354  12030 	.strz	"NVM_START_SEC_VAR_NOINIT_UNSPECIFIED "
00002da9 4152545f5345 
00002daf 435f5641525f 
00002db5 4e4f494e4954 
00002dbb 5f554e535045 
00002dc1 434946494544 
00002dc7 2000 
00002dc9 03            12031 	.byte	3
00002dca f901          12032 	.byte	249,1
00002dcc 1b            12033 	.byte	27
00002dcd 01            12034 	.byte	1
00002dce 02            12035 	.byte	2
00002dcf 4d454d4d4150  12036 	.strz	"MEMMAP_VENDOR_ID (30u)"
00002dd5 5f56454e444f 
00002ddb 525f49442028 
00002de1 3330752900 
00002de6 01            12037 	.byte	1
00002de7 08            12038 	.byte	8
00002de8 4d454d4d4150  12039 	.strz	"MEMMAP_AR_RELEASE_MAJOR_VERSION (4u)"
00002dee 5f41525f5245 
00002df4 4c454153455f 
00002dfa 4d414a4f525f 
00002e00 56455253494f 
00002e06 4e2028347529 
00002e0c 00 
00002e0d 01            12040 	.byte	1
00002e0e 09            12041 	.byte	9
00002e0f 4d454d4d4150  12042 	.strz	"MEMMAP_AR_RELEASE_MINOR_VERSION (0u)"
00002e15 5f41525f5245 
00002e1b 4c454153455f 
00002e21 4d494e4f525f 
00002e27 56455253494f 
00002e2d 4e2028307529 
00002e33 00 
00002e34 01            12043 	.byte	1
00002e35 0a            12044 	.byte	10
00002e36 4d454d4d4150  12045 	.strz	"MEMMAP_AR_RELEASE_REVISION_VERSION (3u)"
00002e3c 5f41525f5245 
00002e42 4c454153455f 
00002e48 524556495349 
00002e4e 4f4e5f564552 
00002e54 53494f4e2028 
00002e5a 33752900 
00002e5e 01            12046 	.byte	1
00002e5f 10            12047 	.byte	16
00002e60 4d454d5f4152  12048 	.strz	"MEM_AR_RELEASE_MAJOR_VERSION MEMMAP_AR_RELEASE_MAJOR_VERSION"
00002e66 5f52454c4541 
00002e6c 53455f4d414a 
00002e72 4f525f564552 
00002e78 53494f4e204d 
00002e7e 454d4d41505f 
00002e84 41525f52454c 
00002e8a 454153455f4d 
00002e90 414a4f525f56 
00002e96 455253494f4e 
00002e9c 00 
00002e9d 01            12049 	.byte	1
00002e9e 11            12050 	.byte	17
00002e9f 4d454d5f4152  12051 	.strz	"MEM_AR_RELEASE_MINOR_VERSION MEMMAP_AR_RELEASE_MINOR_VERSION"
00002ea5 5f52454c4541 
00002eab 53455f4d494e 

                                                                      Page 247
                                                              C:\Users\nhuliyap\AppData\Local\Temp\gh_0000d3s1.s
00002eb1 4f525f564552 
00002eb7 53494f4e204d 
00002ebd 454d4d41505f 
00002ec3 41525f52454c 
00002ec9 454153455f4d 
00002ecf 494e4f525f56 
00002ed5 455253494f4e 
00002edb 00 
00002edc 01            12052 	.byte	1
00002edd 12            12053 	.byte	18
00002ede 4d454d5f4152  12054 	.strz	"MEM_AR_RELEASE_PATCH_VERSION MEMMAP_AR_RELEASE_REVISION_VERSION"
00002ee4 5f52454c4541 
00002eea 53455f504154 
00002ef0 43485f564552 
00002ef6 53494f4e204d 
00002efc 454d4d41505f 
00002f02 41525f52454c 
00002f08 454153455f52 
00002f0e 45564953494f 
00002f14 4e5f56455253 
00002f1a 494f4e00 
00002f1e 01            12055 	.byte	1
00002f1f 18            12056 	.byte	24
00002f20 4d454d4d4150  12057 	.strz	"MEMMAP_SW_MAJOR_VERSION (1u)"
00002f26 5f53575f4d41 
00002f2c 4a4f525f5645 
00002f32 5253494f4e20 
00002f38 2831752900 
00002f3d 01            12058 	.byte	1
00002f3e 19            12059 	.byte	25
00002f3f 4d454d4d4150  12060 	.strz	"MEMMAP_SW_MINOR_VERSION (11u)"
00002f45 5f53575f4d49 
00002f4b 4e4f525f5645 
00002f51 5253494f4e20 
00002f57 283131752900 
00002f5d 01            12061 	.byte	1
00002f5e 1a            12062 	.byte	26
00002f5f 4d454d4d4150  12063 	.strz	"MEMMAP_SW_PATCH_VERSION (0u)"
00002f65 5f53575f5041 
00002f6b 5443485f5645 
00002f71 5253494f4e20 
00002f77 2830752900 
00002f7c 01            12064 	.byte	1
00002f7d 20            12065 	.byte	32
00002f7e 4d454d5f5357  12066 	.strz	"MEM_SW_MAJOR_VERSION MEMMAP_SW_MAJOR_VERSION"
00002f84 5f4d414a4f52 
00002f8a 5f5645525349 
00002f90 4f4e204d454d 
00002f96 4d41505f5357 
00002f9c 5f4d414a4f52 
00002fa2 5f5645525349 
00002fa8 4f4e00 
00002fab 01            12067 	.byte	1
00002fac 21            12068 	.byte	33
00002fad 4d454d5f5357  12069 	.strz	"MEM_SW_MINOR_VERSION MEMMAP_SW_MINOR_VERSION"
00002fb3 5f4d494e4f52 
00002fb9 5f5645525349 
00002fbf 4f4e204d454d 
00002fc5 4d41505f5357 
00002fcb 5f4d494e4f52 
00002fd1 5f5645525349 

                                                                      Page 248
                                                              C:\Users\nhuliyap\AppData\Local\Temp\gh_0000d3s1.s
00002fd7 4f4e00 
00002fda 01            12070 	.byte	1
00002fdb 22            12071 	.byte	34
00002fdc 4d454d5f5357  12072 	.strz	"MEM_SW_PATCH_VERSION MEMMAP_SW_PATCH_VERSION"
00002fe2 5f5041544348 
00002fe8 5f5645525349 
00002fee 4f4e204d454d 
00002ff4 4d41505f5357 
00002ffa 5f5041544348 
00003000 5f5645525349 
00003006 4f4e00 
00003009 01            12073 	.byte	1
0000300a 24            12074 	.byte	36
0000300b 4d454d4d4150  12075 	.strz	"MEMMAP_ERROR "
00003011 5f4552524f52 
00003017 2000 
00003019 01            12076 	.byte	1
0000301a c401          12077 	.byte	196,1
0000301c 53544152545f  12078 	.strz	"START_SEC_VAR_NOINIT_UNSPECIFIED "
00003022 5345435f5641 
00003028 525f4e4f494e 
0000302e 49545f554e53 
00003034 504543494649 
0000303a 45442000 
0000303e 03            12079 	.byte	3
0000303f f403          12080 	.byte	244,3
00003041 16            12081 	.byte	22
00003042 01            12082 	.byte	1
00003043 cf09          12083 	.byte	207,9
00003045 5641525f5345  12084 	.strz	"VAR_SEC_OPEN "
0000304b 435f4f50454e 
00003051 2000 
00003053 04            12085 	.byte	4
00003054 04            12086 	.byte	4
00003055 01            12087 	.byte	1
00003056 fb01          12088 	.byte	251,1
00003058 4e564d5f5354  12089 	.strz	"NVM_STOP_SEC_VAR_NOINIT_UNSPECIFIED "
0000305e 4f505f534543 
00003064 5f5641525f4e 
0000306a 4f494e49545f 
00003070 554e53504543 
00003076 494649454420 
0000307c 00 
0000307d 03            12090 	.byte	3
0000307e fc01          12091 	.byte	252,1
00003080 1b            12092 	.byte	27
00003081 01            12093 	.byte	1
00003082 02            12094 	.byte	2
00003083 4d454d4d4150  12095 	.strz	"MEMMAP_VENDOR_ID (30u)"
00003089 5f56454e444f 
0000308f 525f49442028 
00003095 3330752900 
0000309a 01            12096 	.byte	1
0000309b 08            12097 	.byte	8
0000309c 4d454d4d4150  12098 	.strz	"MEMMAP_AR_RELEASE_MAJOR_VERSION (4u)"
000030a2 5f41525f5245 
000030a8 4c454153455f 
000030ae 4d414a4f525f 
000030b4 56455253494f 
000030ba 4e2028347529 
000030c0 00 

                                                                      Page 249
                                                              C:\Users\nhuliyap\AppData\Local\Temp\gh_0000d3s1.s
000030c1 01            12099 	.byte	1
000030c2 09            12100 	.byte	9
000030c3 4d454d4d4150  12101 	.strz	"MEMMAP_AR_RELEASE_MINOR_VERSION (0u)"
000030c9 5f41525f5245 
000030cf 4c454153455f 
000030d5 4d494e4f525f 
000030db 56455253494f 
000030e1 4e2028307529 
000030e7 00 
000030e8 01            12102 	.byte	1
000030e9 0a            12103 	.byte	10
000030ea 4d454d4d4150  12104 	.strz	"MEMMAP_AR_RELEASE_REVISION_VERSION (3u)"
000030f0 5f41525f5245 
000030f6 4c454153455f 
000030fc 524556495349 
00003102 4f4e5f564552 
00003108 53494f4e2028 
0000310e 33752900 
00003112 01            12105 	.byte	1
00003113 10            12106 	.byte	16
00003114 4d454d5f4152  12107 	.strz	"MEM_AR_RELEASE_MAJOR_VERSION MEMMAP_AR_RELEASE_MAJOR_VERSION"
0000311a 5f52454c4541 
00003120 53455f4d414a 
00003126 4f525f564552 
0000312c 53494f4e204d 
00003132 454d4d41505f 
00003138 41525f52454c 
0000313e 454153455f4d 
00003144 414a4f525f56 
0000314a 455253494f4e 
00003150 00 
00003151 01            12108 	.byte	1
00003152 11            12109 	.byte	17
00003153 4d454d5f4152  12110 	.strz	"MEM_AR_RELEASE_MINOR_VERSION MEMMAP_AR_RELEASE_MINOR_VERSION"
00003159 5f52454c4541 
0000315f 53455f4d494e 
00003165 4f525f564552 
0000316b 53494f4e204d 
00003171 454d4d41505f 
00003177 41525f52454c 
0000317d 454153455f4d 
00003183 494e4f525f56 
00003189 455253494f4e 
0000318f 00 
00003190 01            12111 	.byte	1
00003191 12            12112 	.byte	18
00003192 4d454d5f4152  12113 	.strz	"MEM_AR_RELEASE_PATCH_VERSION MEMMAP_AR_RELEASE_REVISION_VERSION"
00003198 5f52454c4541 
0000319e 53455f504154 
000031a4 43485f564552 
000031aa 53494f4e204d 
000031b0 454d4d41505f 
000031b6 41525f52454c 
000031bc 454153455f52 
000031c2 45564953494f 
000031c8 4e5f56455253 
000031ce 494f4e00 
000031d2 01            12114 	.byte	1
000031d3 18            12115 	.byte	24
000031d4 4d454d4d4150  12116 	.strz	"MEMMAP_SW_MAJOR_VERSION (1u)"
000031da 5f53575f4d41 

                                                                      Page 250
                                                              C:\Users\nhuliyap\AppData\Local\Temp\gh_0000d3s1.s
000031e0 4a4f525f5645 
000031e6 5253494f4e20 
000031ec 2831752900 
000031f1 01            12117 	.byte	1
000031f2 19            12118 	.byte	25
000031f3 4d454d4d4150  12119 	.strz	"MEMMAP_SW_MINOR_VERSION (11u)"
000031f9 5f53575f4d49 
000031ff 4e4f525f5645 
00003205 5253494f4e20 
0000320b 283131752900 
00003211 01            12120 	.byte	1
00003212 1a            12121 	.byte	26
00003213 4d454d4d4150  12122 	.strz	"MEMMAP_SW_PATCH_VERSION (0u)"
00003219 5f53575f5041 
0000321f 5443485f5645 
00003225 5253494f4e20 
0000322b 2830752900 
00003230 01            12123 	.byte	1
00003231 20            12124 	.byte	32
00003232 4d454d5f5357  12125 	.strz	"MEM_SW_MAJOR_VERSION MEMMAP_SW_MAJOR_VERSION"
00003238 5f4d414a4f52 
0000323e 5f5645525349 
00003244 4f4e204d454d 
0000324a 4d41505f5357 
00003250 5f4d414a4f52 
00003256 5f5645525349 
0000325c 4f4e00 
0000325f 01            12126 	.byte	1
00003260 21            12127 	.byte	33
00003261 4d454d5f5357  12128 	.strz	"MEM_SW_MINOR_VERSION MEMMAP_SW_MINOR_VERSION"
00003267 5f4d494e4f52 
0000326d 5f5645525349 
00003273 4f4e204d454d 
00003279 4d41505f5357 
0000327f 5f4d494e4f52 
00003285 5f5645525349 
0000328b 4f4e00 
0000328e 01            12129 	.byte	1
0000328f 22            12130 	.byte	34
00003290 4d454d5f5357  12131 	.strz	"MEM_SW_PATCH_VERSION MEMMAP_SW_PATCH_VERSION"
00003296 5f5041544348 
0000329c 5f5645525349 
000032a2 4f4e204d454d 
000032a8 4d41505f5357 
000032ae 5f5041544348 
000032b4 5f5645525349 
000032ba 4f4e00 
000032bd 01            12132 	.byte	1
000032be 24            12133 	.byte	36
000032bf 4d454d4d4150  12134 	.strz	"MEMMAP_ERROR "
000032c5 5f4552524f52 
000032cb 2000 
000032cd 01            12135 	.byte	1
000032ce c801          12136 	.byte	200,1
000032d0 53544f505f53  12137 	.strz	"STOP_SEC_VAR "
000032d6 45435f564152 
000032dc 2000 
000032de 03            12138 	.byte	3
000032df f403          12139 	.byte	244,3
000032e1 16            12140 	.byte	22
000032e2 04            12141 	.byte	4

                                                                      Page 251
                                                              C:\Users\nhuliyap\AppData\Local\Temp\gh_0000d3s1.s
000032e3 04            12142 	.byte	4
000032e4 01            12143 	.byte	1
000032e5 ff01          12144 	.byte	255,1
000032e7 4e564d5f5354  12145 	.strz	"NVM_START_SEC_CONST_8 "
000032ed 4152545f5345 
000032f3 435f434f4e53 
000032f9 545f382000 
000032fe 03            12146 	.byte	3
000032ff 8002          12147 	.byte	128,2
00003301 1b            12148 	.byte	27
00003302 01            12149 	.byte	1
00003303 02            12150 	.byte	2
00003304 4d454d4d4150  12151 	.strz	"MEMMAP_VENDOR_ID (30u)"
0000330a 5f56454e444f 
00003310 525f49442028 
00003316 3330752900 
0000331b 01            12152 	.byte	1
0000331c 08            12153 	.byte	8
0000331d 4d454d4d4150  12154 	.strz	"MEMMAP_AR_RELEASE_MAJOR_VERSION (4u)"
00003323 5f41525f5245 
00003329 4c454153455f 
0000332f 4d414a4f525f 
00003335 56455253494f 
0000333b 4e2028347529 
00003341 00 
00003342 01            12155 	.byte	1
00003343 09            12156 	.byte	9
00003344 4d454d4d4150  12157 	.strz	"MEMMAP_AR_RELEASE_MINOR_VERSION (0u)"
0000334a 5f41525f5245 
00003350 4c454153455f 
00003356 4d494e4f525f 
0000335c 56455253494f 
00003362 4e2028307529 
00003368 00 
00003369 01            12158 	.byte	1
0000336a 0a            12159 	.byte	10
0000336b 4d454d4d4150  12160 	.strz	"MEMMAP_AR_RELEASE_REVISION_VERSION (3u)"
00003371 5f41525f5245 
00003377 4c454153455f 
0000337d 524556495349 
00003383 4f4e5f564552 
00003389 53494f4e2028 
0000338f 33752900 
00003393 01            12161 	.byte	1
00003394 10            12162 	.byte	16
00003395 4d454d5f4152  12163 	.strz	"MEM_AR_RELEASE_MAJOR_VERSION MEMMAP_AR_RELEASE_MAJOR_VERSION"
0000339b 5f52454c4541 
000033a1 53455f4d414a 
000033a7 4f525f564552 
000033ad 53494f4e204d 
000033b3 454d4d41505f 
000033b9 41525f52454c 
000033bf 454153455f4d 
000033c5 414a4f525f56 
000033cb 455253494f4e 
000033d1 00 
000033d2 01            12164 	.byte	1
000033d3 11            12165 	.byte	17
000033d4 4d454d5f4152  12166 	.strz	"MEM_AR_RELEASE_MINOR_VERSION MEMMAP_AR_RELEASE_MINOR_VERSION"
000033da 5f52454c4541 
000033e0 53455f4d494e 

                                                                      Page 252
                                                              C:\Users\nhuliyap\AppData\Local\Temp\gh_0000d3s1.s
000033e6 4f525f564552 
000033ec 53494f4e204d 
000033f2 454d4d41505f 
000033f8 41525f52454c 
000033fe 454153455f4d 
00003404 494e4f525f56 
0000340a 455253494f4e 
00003410 00 
00003411 01            12167 	.byte	1
00003412 12            12168 	.byte	18
00003413 4d454d5f4152  12169 	.strz	"MEM_AR_RELEASE_PATCH_VERSION MEMMAP_AR_RELEASE_REVISION_VERSION"
00003419 5f52454c4541 
0000341f 53455f504154 
00003425 43485f564552 
0000342b 53494f4e204d 
00003431 454d4d41505f 
00003437 41525f52454c 
0000343d 454153455f52 
00003443 45564953494f 
00003449 4e5f56455253 
0000344f 494f4e00 
00003453 01            12170 	.byte	1
00003454 18            12171 	.byte	24
00003455 4d454d4d4150  12172 	.strz	"MEMMAP_SW_MAJOR_VERSION (1u)"
0000345b 5f53575f4d41 
00003461 4a4f525f5645 
00003467 5253494f4e20 
0000346d 2831752900 
00003472 01            12173 	.byte	1
00003473 19            12174 	.byte	25
00003474 4d454d4d4150  12175 	.strz	"MEMMAP_SW_MINOR_VERSION (11u)"
0000347a 5f53575f4d49 
00003480 4e4f525f5645 
00003486 5253494f4e20 
0000348c 283131752900 
00003492 01            12176 	.byte	1
00003493 1a            12177 	.byte	26
00003494 4d454d4d4150  12178 	.strz	"MEMMAP_SW_PATCH_VERSION (0u)"
0000349a 5f53575f5041 
000034a0 5443485f5645 
000034a6 5253494f4e20 
000034ac 2830752900 
000034b1 01            12179 	.byte	1
000034b2 20            12180 	.byte	32
000034b3 4d454d5f5357  12181 	.strz	"MEM_SW_MAJOR_VERSION MEMMAP_SW_MAJOR_VERSION"
000034b9 5f4d414a4f52 
000034bf 5f5645525349 
000034c5 4f4e204d454d 
000034cb 4d41505f5357 
000034d1 5f4d414a4f52 
000034d7 5f5645525349 
000034dd 4f4e00 
000034e0 01            12182 	.byte	1
000034e1 21            12183 	.byte	33
000034e2 4d454d5f5357  12184 	.strz	"MEM_SW_MINOR_VERSION MEMMAP_SW_MINOR_VERSION"
000034e8 5f4d494e4f52 
000034ee 5f5645525349 
000034f4 4f4e204d454d 
000034fa 4d41505f5357 
00003500 5f4d494e4f52 
00003506 5f5645525349 

                                                                      Page 253
                                                              C:\Users\nhuliyap\AppData\Local\Temp\gh_0000d3s1.s
0000350c 4f4e00 
0000350f 01            12185 	.byte	1
00003510 22            12186 	.byte	34
00003511 4d454d5f5357  12187 	.strz	"MEM_SW_PATCH_VERSION MEMMAP_SW_PATCH_VERSION"
00003517 5f5041544348 
0000351d 5f5645525349 
00003523 4f4e204d454d 
00003529 4d41505f5357 
0000352f 5f5041544348 
00003535 5f5645525349 
0000353b 4f4e00 
0000353e 01            12188 	.byte	1
0000353f 24            12189 	.byte	36
00003540 4d454d4d4150  12190 	.strz	"MEMMAP_ERROR "
00003546 5f4552524f52 
0000354c 2000 
0000354e 01            12191 	.byte	1
0000354f 9701          12192 	.byte	151,1
00003551 53544152545f  12193 	.strz	"START_SEC_CONST_8BIT "
00003557 5345435f434f 
0000355d 4e53545f3842 
00003563 49542000 
00003567 03            12194 	.byte	3
00003568 f403          12195 	.byte	244,3
0000356a 16            12196 	.byte	22
0000356b 01            12197 	.byte	1
0000356c 9008          12198 	.byte	144,8
0000356e 434f4e53545f  12199 	.strz	"CONST_SEC_OPEN "
00003574 5345435f4f50 
0000357a 454e2000 
0000357e 04            12200 	.byte	4
0000357f 04            12201 	.byte	4
00003580 01            12202 	.byte	1
00003581 8202          12203 	.byte	130,2
00003583 4e564d5f5354  12204 	.strz	"NVM_STOP_SEC_CONST_8 "
00003589 4f505f534543 
0000358f 5f434f4e5354 
00003595 5f382000 
00003599 03            12205 	.byte	3
0000359a 8302          12206 	.byte	131,2
0000359c 1b            12207 	.byte	27
0000359d 01            12208 	.byte	1
0000359e 02            12209 	.byte	2
0000359f 4d454d4d4150  12210 	.strz	"MEMMAP_VENDOR_ID (30u)"
000035a5 5f56454e444f 
000035ab 525f49442028 
000035b1 3330752900 
000035b6 01            12211 	.byte	1
000035b7 08            12212 	.byte	8
000035b8 4d454d4d4150  12213 	.strz	"MEMMAP_AR_RELEASE_MAJOR_VERSION (4u)"
000035be 5f41525f5245 
000035c4 4c454153455f 
000035ca 4d414a4f525f 
000035d0 56455253494f 
000035d6 4e2028347529 
000035dc 00 
000035dd 01            12214 	.byte	1
000035de 09            12215 	.byte	9
000035df 4d454d4d4150  12216 	.strz	"MEMMAP_AR_RELEASE_MINOR_VERSION (0u)"
000035e5 5f41525f5245 
000035eb 4c454153455f 

                                                                      Page 254
                                                              C:\Users\nhuliyap\AppData\Local\Temp\gh_0000d3s1.s
000035f1 4d494e4f525f 
000035f7 56455253494f 
000035fd 4e2028307529 
00003603 00 
00003604 01            12217 	.byte	1
00003605 0a            12218 	.byte	10
00003606 4d454d4d4150  12219 	.strz	"MEMMAP_AR_RELEASE_REVISION_VERSION (3u)"
0000360c 5f41525f5245 
00003612 4c454153455f 
00003618 524556495349 
0000361e 4f4e5f564552 
00003624 53494f4e2028 
0000362a 33752900 
0000362e 01            12220 	.byte	1
0000362f 10            12221 	.byte	16
00003630 4d454d5f4152  12222 	.strz	"MEM_AR_RELEASE_MAJOR_VERSION MEMMAP_AR_RELEASE_MAJOR_VERSION"
00003636 5f52454c4541 
0000363c 53455f4d414a 
00003642 4f525f564552 
00003648 53494f4e204d 
0000364e 454d4d41505f 
00003654 41525f52454c 
0000365a 454153455f4d 
00003660 414a4f525f56 
00003666 455253494f4e 
0000366c 00 
0000366d 01            12223 	.byte	1
0000366e 11            12224 	.byte	17
0000366f 4d454d5f4152  12225 	.strz	"MEM_AR_RELEASE_MINOR_VERSION MEMMAP_AR_RELEASE_MINOR_VERSION"
00003675 5f52454c4541 
0000367b 53455f4d494e 
00003681 4f525f564552 
00003687 53494f4e204d 
0000368d 454d4d41505f 
00003693 41525f52454c 
00003699 454153455f4d 
0000369f 494e4f525f56 
000036a5 455253494f4e 
000036ab 00 
000036ac 01            12226 	.byte	1
000036ad 12            12227 	.byte	18
000036ae 4d454d5f4152  12228 	.strz	"MEM_AR_RELEASE_PATCH_VERSION MEMMAP_AR_RELEASE_REVISION_VERSION"
000036b4 5f52454c4541 
000036ba 53455f504154 
000036c0 43485f564552 
000036c6 53494f4e204d 
000036cc 454d4d41505f 
000036d2 41525f52454c 
000036d8 454153455f52 
000036de 45564953494f 
000036e4 4e5f56455253 
000036ea 494f4e00 
000036ee 01            12229 	.byte	1
000036ef 18            12230 	.byte	24
000036f0 4d454d4d4150  12231 	.strz	"MEMMAP_SW_MAJOR_VERSION (1u)"
000036f6 5f53575f4d41 
000036fc 4a4f525f5645 
00003702 5253494f4e20 
00003708 2831752900 
0000370d 01            12232 	.byte	1
0000370e 19            12233 	.byte	25

                                                                      Page 255
                                                              C:\Users\nhuliyap\AppData\Local\Temp\gh_0000d3s1.s
0000370f 4d454d4d4150  12234 	.strz	"MEMMAP_SW_MINOR_VERSION (11u)"
00003715 5f53575f4d49 
0000371b 4e4f525f5645 
00003721 5253494f4e20 
00003727 283131752900 
0000372d 01            12235 	.byte	1
0000372e 1a            12236 	.byte	26
0000372f 4d454d4d4150  12237 	.strz	"MEMMAP_SW_PATCH_VERSION (0u)"
00003735 5f53575f5041 
0000373b 5443485f5645 
00003741 5253494f4e20 
00003747 2830752900 
0000374c 01            12238 	.byte	1
0000374d 20            12239 	.byte	32
0000374e 4d454d5f5357  12240 	.strz	"MEM_SW_MAJOR_VERSION MEMMAP_SW_MAJOR_VERSION"
00003754 5f4d414a4f52 
0000375a 5f5645525349 
00003760 4f4e204d454d 
00003766 4d41505f5357 
0000376c 5f4d414a4f52 
00003772 5f5645525349 
00003778 4f4e00 
0000377b 01            12241 	.byte	1
0000377c 21            12242 	.byte	33
0000377d 4d454d5f5357  12243 	.strz	"MEM_SW_MINOR_VERSION MEMMAP_SW_MINOR_VERSION"
00003783 5f4d494e4f52 
00003789 5f5645525349 
0000378f 4f4e204d454d 
00003795 4d41505f5357 
0000379b 5f4d494e4f52 
000037a1 5f5645525349 
000037a7 4f4e00 
000037aa 01            12244 	.byte	1
000037ab 22            12245 	.byte	34
000037ac 4d454d5f5357  12246 	.strz	"MEM_SW_PATCH_VERSION MEMMAP_SW_PATCH_VERSION"
000037b2 5f5041544348 
000037b8 5f5645525349 
000037be 4f4e204d454d 
000037c4 4d41505f5357 
000037ca 5f5041544348 
000037d0 5f5645525349 
000037d6 4f4e00 
000037d9 01            12247 	.byte	1
000037da 24            12248 	.byte	36
000037db 4d454d4d4150  12249 	.strz	"MEMMAP_ERROR "
000037e1 5f4552524f52 
000037e7 2000 
000037e9 01            12250 	.byte	1
000037ea 9b01          12251 	.byte	155,1
000037ec 53544f505f53  12252 	.strz	"STOP_SEC_CONST "
000037f2 45435f434f4e 
000037f8 53542000 
000037fc 03            12253 	.byte	3
000037fd f403          12254 	.byte	244,3
000037ff 16            12255 	.byte	22
00003800 04            12256 	.byte	4
00003801 04            12257 	.byte	4
00003802 01            12258 	.byte	1
00003803 8502          12259 	.byte	133,2
00003805 4e564d5f5354  12260 	.strz	"NVM_START_SEC_CONST_16 "
0000380b 4152545f5345 

                                                                      Page 256
                                                              C:\Users\nhuliyap\AppData\Local\Temp\gh_0000d3s1.s
00003811 435f434f4e53 
00003817 545f31362000 
0000381d 03            12261 	.byte	3
0000381e 8602          12262 	.byte	134,2
00003820 1b            12263 	.byte	27
00003821 01            12264 	.byte	1
00003822 02            12265 	.byte	2
00003823 4d454d4d4150  12266 	.strz	"MEMMAP_VENDOR_ID (30u)"
00003829 5f56454e444f 
0000382f 525f49442028 
00003835 3330752900 
0000383a 01            12267 	.byte	1
0000383b 08            12268 	.byte	8
0000383c 4d454d4d4150  12269 	.strz	"MEMMAP_AR_RELEASE_MAJOR_VERSION (4u)"
00003842 5f41525f5245 
00003848 4c454153455f 
0000384e 4d414a4f525f 
00003854 56455253494f 
0000385a 4e2028347529 
00003860 00 
00003861 01            12270 	.byte	1
00003862 09            12271 	.byte	9
00003863 4d454d4d4150  12272 	.strz	"MEMMAP_AR_RELEASE_MINOR_VERSION (0u)"
00003869 5f41525f5245 
0000386f 4c454153455f 
00003875 4d494e4f525f 
0000387b 56455253494f 
00003881 4e2028307529 
00003887 00 
00003888 01            12273 	.byte	1
00003889 0a            12274 	.byte	10
0000388a 4d454d4d4150  12275 	.strz	"MEMMAP_AR_RELEASE_REVISION_VERSION (3u)"
00003890 5f41525f5245 
00003896 4c454153455f 
0000389c 524556495349 
000038a2 4f4e5f564552 
000038a8 53494f4e2028 
000038ae 33752900 
000038b2 01            12276 	.byte	1
000038b3 10            12277 	.byte	16
000038b4 4d454d5f4152  12278 	.strz	"MEM_AR_RELEASE_MAJOR_VERSION MEMMAP_AR_RELEASE_MAJOR_VERSION"
000038ba 5f52454c4541 
000038c0 53455f4d414a 
000038c6 4f525f564552 
000038cc 53494f4e204d 
000038d2 454d4d41505f 
000038d8 41525f52454c 
000038de 454153455f4d 
000038e4 414a4f525f56 
000038ea 455253494f4e 
000038f0 00 
000038f1 01            12279 	.byte	1
000038f2 11            12280 	.byte	17
000038f3 4d454d5f4152  12281 	.strz	"MEM_AR_RELEASE_MINOR_VERSION MEMMAP_AR_RELEASE_MINOR_VERSION"
000038f9 5f52454c4541 
000038ff 53455f4d494e 
00003905 4f525f564552 
0000390b 53494f4e204d 
00003911 454d4d41505f 
00003917 41525f52454c 
0000391d 454153455f4d 

                                                                      Page 257
                                                              C:\Users\nhuliyap\AppData\Local\Temp\gh_0000d3s1.s
00003923 494e4f525f56 
00003929 455253494f4e 
0000392f 00 
00003930 01            12282 	.byte	1
00003931 12            12283 	.byte	18
00003932 4d454d5f4152  12284 	.strz	"MEM_AR_RELEASE_PATCH_VERSION MEMMAP_AR_RELEASE_REVISION_VERSION"
00003938 5f52454c4541 
0000393e 53455f504154 
00003944 43485f564552 
0000394a 53494f4e204d 
00003950 454d4d41505f 
00003956 41525f52454c 
0000395c 454153455f52 
00003962 45564953494f 
00003968 4e5f56455253 
0000396e 494f4e00 
00003972 01            12285 	.byte	1
00003973 18            12286 	.byte	24
00003974 4d454d4d4150  12287 	.strz	"MEMMAP_SW_MAJOR_VERSION (1u)"
0000397a 5f53575f4d41 
00003980 4a4f525f5645 
00003986 5253494f4e20 
0000398c 2831752900 
00003991 01            12288 	.byte	1
00003992 19            12289 	.byte	25
00003993 4d454d4d4150  12290 	.strz	"MEMMAP_SW_MINOR_VERSION (11u)"
00003999 5f53575f4d49 
0000399f 4e4f525f5645 
000039a5 5253494f4e20 
000039ab 283131752900 
000039b1 01            12291 	.byte	1
000039b2 1a            12292 	.byte	26
000039b3 4d454d4d4150  12293 	.strz	"MEMMAP_SW_PATCH_VERSION (0u)"
000039b9 5f53575f5041 
000039bf 5443485f5645 
000039c5 5253494f4e20 
000039cb 2830752900 
000039d0 01            12294 	.byte	1
000039d1 20            12295 	.byte	32
000039d2 4d454d5f5357  12296 	.strz	"MEM_SW_MAJOR_VERSION MEMMAP_SW_MAJOR_VERSION"
000039d8 5f4d414a4f52 
000039de 5f5645525349 
000039e4 4f4e204d454d 
000039ea 4d41505f5357 
000039f0 5f4d414a4f52 
000039f6 5f5645525349 
000039fc 4f4e00 
000039ff 01            12297 	.byte	1
00003a00 21            12298 	.byte	33
00003a01 4d454d5f5357  12299 	.strz	"MEM_SW_MINOR_VERSION MEMMAP_SW_MINOR_VERSION"
00003a07 5f4d494e4f52 
00003a0d 5f5645525349 
00003a13 4f4e204d454d 
00003a19 4d41505f5357 
00003a1f 5f4d494e4f52 
00003a25 5f5645525349 
00003a2b 4f4e00 
00003a2e 01            12300 	.byte	1
00003a2f 22            12301 	.byte	34
00003a30 4d454d5f5357  12302 	.strz	"MEM_SW_PATCH_VERSION MEMMAP_SW_PATCH_VERSION"
00003a36 5f5041544348 

                                                                      Page 258
                                                              C:\Users\nhuliyap\AppData\Local\Temp\gh_0000d3s1.s
00003a3c 5f5645525349 
00003a42 4f4e204d454d 
00003a48 4d41505f5357 
00003a4e 5f5041544348 
00003a54 5f5645525349 
00003a5a 4f4e00 
00003a5d 01            12303 	.byte	1
00003a5e 24            12304 	.byte	36
00003a5f 4d454d4d4150  12305 	.strz	"MEMMAP_ERROR "
00003a65 5f4552524f52 
00003a6b 2000 
00003a6d 01            12306 	.byte	1
00003a6e a001          12307 	.byte	160,1
00003a70 53544152545f  12308 	.strz	"START_SEC_CONST_16BIT "
00003a76 5345435f434f 
00003a7c 4e53545f3136 
00003a82 4249542000 
00003a87 03            12309 	.byte	3
00003a88 f403          12310 	.byte	244,3
00003a8a 16            12311 	.byte	22
00003a8b 01            12312 	.byte	1
00003a8c 9a08          12313 	.byte	154,8
00003a8e 434f4e53545f  12314 	.strz	"CONST_SEC_OPEN "
00003a94 5345435f4f50 
00003a9a 454e2000 
00003a9e 04            12315 	.byte	4
00003a9f 04            12316 	.byte	4
00003aa0 01            12317 	.byte	1
00003aa1 8902          12318 	.byte	137,2
00003aa3 4e564d5f5354  12319 	.strz	"NVM_STOP_SEC_CONST_16 "
00003aa9 4f505f534543 
00003aaf 5f434f4e5354 
00003ab5 5f31362000 
00003aba 03            12320 	.byte	3
00003abb 8a02          12321 	.byte	138,2
00003abd 1b            12322 	.byte	27
00003abe 01            12323 	.byte	1
00003abf 02            12324 	.byte	2
00003ac0 4d454d4d4150  12325 	.strz	"MEMMAP_VENDOR_ID (30u)"
00003ac6 5f56454e444f 
00003acc 525f49442028 
00003ad2 3330752900 
00003ad7 01            12326 	.byte	1
00003ad8 08            12327 	.byte	8
00003ad9 4d454d4d4150  12328 	.strz	"MEMMAP_AR_RELEASE_MAJOR_VERSION (4u)"
00003adf 5f41525f5245 
00003ae5 4c454153455f 
00003aeb 4d414a4f525f 
00003af1 56455253494f 
00003af7 4e2028347529 
00003afd 00 
00003afe 01            12329 	.byte	1
00003aff 09            12330 	.byte	9
00003b00 4d454d4d4150  12331 	.strz	"MEMMAP_AR_RELEASE_MINOR_VERSION (0u)"
00003b06 5f41525f5245 
00003b0c 4c454153455f 
00003b12 4d494e4f525f 
00003b18 56455253494f 
00003b1e 4e2028307529 
00003b24 00 
00003b25 01            12332 	.byte	1

                                                                      Page 259
                                                              C:\Users\nhuliyap\AppData\Local\Temp\gh_0000d3s1.s
00003b26 0a            12333 	.byte	10
00003b27 4d454d4d4150  12334 	.strz	"MEMMAP_AR_RELEASE_REVISION_VERSION (3u)"
00003b2d 5f41525f5245 
00003b33 4c454153455f 
00003b39 524556495349 
00003b3f 4f4e5f564552 
00003b45 53494f4e2028 
00003b4b 33752900 
00003b4f 01            12335 	.byte	1
00003b50 10            12336 	.byte	16
00003b51 4d454d5f4152  12337 	.strz	"MEM_AR_RELEASE_MAJOR_VERSION MEMMAP_AR_RELEASE_MAJOR_VERSION"
00003b57 5f52454c4541 
00003b5d 53455f4d414a 
00003b63 4f525f564552 
00003b69 53494f4e204d 
00003b6f 454d4d41505f 
00003b75 41525f52454c 
00003b7b 454153455f4d 
00003b81 414a4f525f56 
00003b87 455253494f4e 
00003b8d 00 
00003b8e 01            12338 	.byte	1
00003b8f 11            12339 	.byte	17
00003b90 4d454d5f4152  12340 	.strz	"MEM_AR_RELEASE_MINOR_VERSION MEMMAP_AR_RELEASE_MINOR_VERSION"
00003b96 5f52454c4541 
00003b9c 53455f4d494e 
00003ba2 4f525f564552 
00003ba8 53494f4e204d 
00003bae 454d4d41505f 
00003bb4 41525f52454c 
00003bba 454153455f4d 
00003bc0 494e4f525f56 
00003bc6 455253494f4e 
00003bcc 00 
00003bcd 01            12341 	.byte	1
00003bce 12            12342 	.byte	18
00003bcf 4d454d5f4152  12343 	.strz	"MEM_AR_RELEASE_PATCH_VERSION MEMMAP_AR_RELEASE_REVISION_VERSION"
00003bd5 5f52454c4541 
00003bdb 53455f504154 
00003be1 43485f564552 
00003be7 53494f4e204d 
00003bed 454d4d41505f 
00003bf3 41525f52454c 
00003bf9 454153455f52 
00003bff 45564953494f 
00003c05 4e5f56455253 
00003c0b 494f4e00 
00003c0f 01            12344 	.byte	1
00003c10 18            12345 	.byte	24
00003c11 4d454d4d4150  12346 	.strz	"MEMMAP_SW_MAJOR_VERSION (1u)"
00003c17 5f53575f4d41 
00003c1d 4a4f525f5645 
00003c23 5253494f4e20 
00003c29 2831752900 
00003c2e 01            12347 	.byte	1
00003c2f 19            12348 	.byte	25
00003c30 4d454d4d4150  12349 	.strz	"MEMMAP_SW_MINOR_VERSION (11u)"
00003c36 5f53575f4d49 
00003c3c 4e4f525f5645 
00003c42 5253494f4e20 
00003c48 283131752900 

                                                                      Page 260
                                                              C:\Users\nhuliyap\AppData\Local\Temp\gh_0000d3s1.s
00003c4e 01            12350 	.byte	1
00003c4f 1a            12351 	.byte	26
00003c50 4d454d4d4150  12352 	.strz	"MEMMAP_SW_PATCH_VERSION (0u)"
00003c56 5f53575f5041 
00003c5c 5443485f5645 
00003c62 5253494f4e20 
00003c68 2830752900 
00003c6d 01            12353 	.byte	1
00003c6e 20            12354 	.byte	32
00003c6f 4d454d5f5357  12355 	.strz	"MEM_SW_MAJOR_VERSION MEMMAP_SW_MAJOR_VERSION"
00003c75 5f4d414a4f52 
00003c7b 5f5645525349 
00003c81 4f4e204d454d 
00003c87 4d41505f5357 
00003c8d 5f4d414a4f52 
00003c93 5f5645525349 
00003c99 4f4e00 
00003c9c 01            12356 	.byte	1
00003c9d 21            12357 	.byte	33
00003c9e 4d454d5f5357  12358 	.strz	"MEM_SW_MINOR_VERSION MEMMAP_SW_MINOR_VERSION"
00003ca4 5f4d494e4f52 
00003caa 5f5645525349 
00003cb0 4f4e204d454d 
00003cb6 4d41505f5357 
00003cbc 5f4d494e4f52 
00003cc2 5f5645525349 
00003cc8 4f4e00 
00003ccb 01            12359 	.byte	1
00003ccc 22            12360 	.byte	34
00003ccd 4d454d5f5357  12361 	.strz	"MEM_SW_PATCH_VERSION MEMMAP_SW_PATCH_VERSION"
00003cd3 5f5041544348 
00003cd9 5f5645525349 
00003cdf 4f4e204d454d 
00003ce5 4d41505f5357 
00003ceb 5f5041544348 
00003cf1 5f5645525349 
00003cf7 4f4e00 
00003cfa 01            12362 	.byte	1
00003cfb 24            12363 	.byte	36
00003cfc 4d454d4d4150  12364 	.strz	"MEMMAP_ERROR "
00003d02 5f4552524f52 
00003d08 2000 
00003d0a 01            12365 	.byte	1
00003d0b a401          12366 	.byte	164,1
00003d0d 53544f505f53  12367 	.strz	"STOP_SEC_CONST "
00003d13 45435f434f4e 
00003d19 53542000 
00003d1d 03            12368 	.byte	3
00003d1e f403          12369 	.byte	244,3
00003d20 16            12370 	.byte	22
00003d21 04            12371 	.byte	4
00003d22 04            12372 	.byte	4
00003d23 03            12373 	.byte	3
00003d24 8c02          12374 	.byte	140,2
00003d26 20            12375 	.byte	32
00003d27 03            12376 	.byte	3
00003d28 08            12377 	.byte	8
00003d29 21            12378 	.byte	33
00003d2a 01            12379 	.byte	1
00003d2b 34            12380 	.byte	52
00003d2c 4352435f5441  12381 	.strz	"CRC_TABLESIZE (256U)"

                                                                      Page 261
                                                              C:\Users\nhuliyap\AppData\Local\Temp\gh_0000d3s1.s
00003d32 424c4553495a 
00003d38 452028323536 
00003d3e 552900 
00003d41 01            12382 	.byte	1
00003d42 5b            12383 	.byte	91
00003d43 4352435f5354  12384 	.strz	"CRC_START_SEC_CONST_16 "
00003d49 4152545f5345 
00003d4f 435f434f4e53 
00003d55 545f31362000 
00003d5b 03            12385 	.byte	3
00003d5c 5c            12386 	.byte	92
00003d5d 22            12387 	.byte	34
00003d5e 01            12388 	.byte	1
00003d5f 23            12389 	.byte	35
00003d60 4253575f5354  12390 	.strz	"BSW_START_SEC_CONST_16 "
00003d66 4152545f5345 
00003d6c 435f434f4e53 
00003d72 545f31362000 
00003d78 03            12391 	.byte	3
00003d79 24            12392 	.byte	36
00003d7a 15            12393 	.byte	21
00003d7b 03            12394 	.byte	3
00003d7c c509          12395 	.byte	197,9
00003d7e 16            12396 	.byte	22
00003d7f 04            12397 	.byte	4
00003d80 04            12398 	.byte	4
00003d81 04            12399 	.byte	4
00003d82 01            12400 	.byte	1
00003d83 5e            12401 	.byte	94
00003d84 4352435f5354  12402 	.strz	"CRC_STOP_SEC_CONST_16 "
00003d8a 4f505f534543 
00003d90 5f434f4e5354 
00003d96 5f31362000 
00003d9b 03            12403 	.byte	3
00003d9c 5f            12404 	.byte	95
00003d9d 22            12405 	.byte	34
00003d9e 01            12406 	.byte	1
00003d9f 27            12407 	.byte	39
00003da0 4253575f5354  12408 	.strz	"BSW_STOP_SEC_CONST_16 "
00003da6 4f505f534543 
00003dac 5f434f4e5354 
00003db2 5f31362000 
00003db7 03            12409 	.byte	3
00003db8 28            12410 	.byte	40
00003db9 15            12411 	.byte	21
00003dba 03            12412 	.byte	3
00003dbb c509          12413 	.byte	197,9
00003dbd 16            12414 	.byte	22
00003dbe 04            12415 	.byte	4
00003dbf 04            12416 	.byte	4
00003dc0 04            12417 	.byte	4
00003dc1 01            12418 	.byte	1
00003dc2 61            12419 	.byte	97
00003dc3 4352435f5354  12420 	.strz	"CRC_START_SEC_CONST_32 "
00003dc9 4152545f5345 
00003dcf 435f434f4e53 
00003dd5 545f33322000 
00003ddb 03            12421 	.byte	3
00003ddc 62            12422 	.byte	98
00003ddd 22            12423 	.byte	34
00003dde 01            12424 	.byte	1

                                                                      Page 262
                                                              C:\Users\nhuliyap\AppData\Local\Temp\gh_0000d3s1.s
00003ddf 1a            12425 	.byte	26
00003de0 4253575f5354  12426 	.strz	"BSW_START_SEC_CONST_32 "
00003de6 4152545f5345 
00003dec 435f434f4e53 
00003df2 545f33322000 
00003df8 03            12427 	.byte	3
00003df9 1b            12428 	.byte	27
00003dfa 15            12429 	.byte	21
00003dfb 03            12430 	.byte	3
00003dfc c509          12431 	.byte	197,9
00003dfe 16            12432 	.byte	22
00003dff 04            12433 	.byte	4
00003e00 04            12434 	.byte	4
00003e01 04            12435 	.byte	4
00003e02 01            12436 	.byte	1
00003e03 64            12437 	.byte	100
00003e04 4352435f5354  12438 	.strz	"CRC_STOP_SEC_CONST_32 "
00003e0a 4f505f534543 
00003e10 5f434f4e5354 
00003e16 5f33322000 
00003e1b 03            12439 	.byte	3
00003e1c 65            12440 	.byte	101
00003e1d 22            12441 	.byte	34
00003e1e 01            12442 	.byte	1
00003e1f 1e            12443 	.byte	30
00003e20 4253575f5354  12444 	.strz	"BSW_STOP_SEC_CONST_32 "
00003e26 4f505f534543 
00003e2c 5f434f4e5354 
00003e32 5f33322000 
00003e37 03            12445 	.byte	3
00003e38 1f            12446 	.byte	31
00003e39 15            12447 	.byte	21
00003e3a 03            12448 	.byte	3
00003e3b c509          12449 	.byte	197,9
00003e3d 16            12450 	.byte	22
00003e3e 04            12451 	.byte	4
00003e3f 04            12452 	.byte	4
00003e40 04            12453 	.byte	4
00003e41 01            12454 	.byte	1
00003e42 67            12455 	.byte	103
00003e43 4352435f5354  12456 	.strz	"CRC_START_SEC_CONST_32 "
00003e49 4152545f5345 
00003e4f 435f434f4e53 
00003e55 545f33322000 
00003e5b 03            12457 	.byte	3
00003e5c 68            12458 	.byte	104
00003e5d 22            12459 	.byte	34
00003e5e 01            12460 	.byte	1
00003e5f 1a            12461 	.byte	26
00003e60 4253575f5354  12462 	.strz	"BSW_START_SEC_CONST_32 "
00003e66 4152545f5345 
00003e6c 435f434f4e53 
00003e72 545f33322000 
00003e78 03            12463 	.byte	3
00003e79 1b            12464 	.byte	27
00003e7a 15            12465 	.byte	21
00003e7b 03            12466 	.byte	3
00003e7c c509          12467 	.byte	197,9
00003e7e 16            12468 	.byte	22
00003e7f 04            12469 	.byte	4
00003e80 04            12470 	.byte	4

                                                                      Page 263
                                                              C:\Users\nhuliyap\AppData\Local\Temp\gh_0000d3s1.s
00003e81 04            12471 	.byte	4
00003e82 01            12472 	.byte	1
00003e83 6a            12473 	.byte	106
00003e84 4352435f5354  12474 	.strz	"CRC_STOP_SEC_CONST_32 "
00003e8a 4f505f534543 
00003e90 5f434f4e5354 
00003e96 5f33322000 
00003e9b 03            12475 	.byte	3
00003e9c 6b            12476 	.byte	107
00003e9d 22            12477 	.byte	34
00003e9e 01            12478 	.byte	1
00003e9f 1e            12479 	.byte	30
00003ea0 4253575f5354  12480 	.strz	"BSW_STOP_SEC_CONST_32 "
00003ea6 4f505f534543 
00003eac 5f434f4e5354 
00003eb2 5f33322000 
00003eb7 03            12481 	.byte	3
00003eb8 1f            12482 	.byte	31
00003eb9 15            12483 	.byte	21
00003eba 03            12484 	.byte	3
00003ebb c509          12485 	.byte	197,9
00003ebd 16            12486 	.byte	22
00003ebe 04            12487 	.byte	4
00003ebf 04            12488 	.byte	4
00003ec0 04            12489 	.byte	4
00003ec1 04            12490 	.byte	4
00003ec2 01            12491 	.byte	1
00003ec3 0a            12492 	.byte	10
00003ec4 4352435f5354  12493 	.strz	"CRC_START_SEC_CODE "
00003eca 4152545f5345 
00003ed0 435f434f4445 
00003ed6 2000 
00003ed8 03            12494 	.byte	3
00003ed9 0b            12495 	.byte	11
00003eda 22            12496 	.byte	34
00003edb 01            12497 	.byte	1
00003edc 07            12498 	.byte	7
00003edd 4253575f5354  12499 	.strz	"BSW_START_SEC_CODE "
00003ee3 4152545f5345 
00003ee9 435f434f4445 
00003eef 2000 
00003ef1 03            12500 	.byte	3
00003ef2 08            12501 	.byte	8
00003ef3 15            12502 	.byte	21
00003ef4 01            12503 	.byte	1
00003ef5 e408          12504 	.byte	228,8
00003ef7 53544152545f  12505 	.strz	"START_SEC_CODE "
00003efd 5345435f434f 
00003f03 44452000 
00003f07 03            12506 	.byte	3
00003f08 c509          12507 	.byte	197,9
00003f0a 16            12508 	.byte	22
00003f0b 01            12509 	.byte	1
00003f0c f407          12510 	.byte	244,7
00003f0e 434f44455f53  12511 	.strz	"CODE_SEC_OPEN "
00003f14 45435f4f5045 
00003f1a 4e2000 
00003f1d 04            12512 	.byte	4
00003f1e 04            12513 	.byte	4
00003f1f 04            12514 	.byte	4
00003f20 01            12515 	.byte	1

                                                                      Page 264
                                                              C:\Users\nhuliyap\AppData\Local\Temp\gh_0000d3s1.s
00003f21 12            12516 	.byte	18
00003f22 4352435f5354  12517 	.strz	"CRC_STOP_SEC_CODE "
00003f28 4f505f534543 
00003f2e 5f434f444520 
00003f34 00 
00003f35 03            12518 	.byte	3
00003f36 13            12519 	.byte	19
00003f37 22            12520 	.byte	34
00003f38 01            12521 	.byte	1
00003f39 0c            12522 	.byte	12
00003f3a 4253575f5354  12523 	.strz	"BSW_STOP_SEC_CODE "
00003f40 4f505f534543 
00003f46 5f434f444520 
00003f4c 00 
00003f4d 03            12524 	.byte	3
00003f4e 0d            12525 	.byte	13
00003f4f 15            12526 	.byte	21
00003f50 01            12527 	.byte	1
00003f51 e808          12528 	.byte	232,8
00003f53 53544f505f53  12529 	.strz	"STOP_SEC_CODE "
00003f59 45435f434f44 
00003f5f 452000 
00003f62 03            12530 	.byte	3
00003f63 c509          12531 	.byte	197,9
00003f65 16            12532 	.byte	22
00003f66 04            12533 	.byte	4
00003f67 04            12534 	.byte	4
00003f68 04            12535 	.byte	4
00003f69 04            12536 	.byte	4
00003f6a 01            12537 	.byte	1
00003f6b 9402          12538 	.byte	148,2
00003f6d 4e564d5f5354  12539 	.strz	"NVM_START_SEC_CONST_UNSPECIFIED "
00003f73 4152545f5345 
00003f79 435f434f4e53 
00003f7f 545f554e5350 
00003f85 454349464945 
00003f8b 442000 
00003f8e 03            12540 	.byte	3
00003f8f 9502          12541 	.byte	149,2
00003f91 1b            12542 	.byte	27
00003f92 01            12543 	.byte	1
00003f93 02            12544 	.byte	2
00003f94 4d454d4d4150  12545 	.strz	"MEMMAP_VENDOR_ID (30u)"
00003f9a 5f56454e444f 
00003fa0 525f49442028 
00003fa6 3330752900 
00003fab 01            12546 	.byte	1
00003fac 08            12547 	.byte	8
00003fad 4d454d4d4150  12548 	.strz	"MEMMAP_AR_RELEASE_MAJOR_VERSION (4u)"
00003fb3 5f41525f5245 
00003fb9 4c454153455f 
00003fbf 4d414a4f525f 
00003fc5 56455253494f 
00003fcb 4e2028347529 
00003fd1 00 
00003fd2 01            12549 	.byte	1
00003fd3 09            12550 	.byte	9
00003fd4 4d454d4d4150  12551 	.strz	"MEMMAP_AR_RELEASE_MINOR_VERSION (0u)"
00003fda 5f41525f5245 
00003fe0 4c454153455f 
00003fe6 4d494e4f525f 

                                                                      Page 265
                                                              C:\Users\nhuliyap\AppData\Local\Temp\gh_0000d3s1.s
00003fec 56455253494f 
00003ff2 4e2028307529 
00003ff8 00 
00003ff9 01            12552 	.byte	1
00003ffa 0a            12553 	.byte	10
00003ffb 4d454d4d4150  12554 	.strz	"MEMMAP_AR_RELEASE_REVISION_VERSION (3u)"
00004001 5f41525f5245 
00004007 4c454153455f 
0000400d 524556495349 
00004013 4f4e5f564552 
00004019 53494f4e2028 
0000401f 33752900 
00004023 01            12555 	.byte	1
00004024 10            12556 	.byte	16
00004025 4d454d5f4152  12557 	.strz	"MEM_AR_RELEASE_MAJOR_VERSION MEMMAP_AR_RELEASE_MAJOR_VERSION"
0000402b 5f52454c4541 
00004031 53455f4d414a 
00004037 4f525f564552 
0000403d 53494f4e204d 
00004043 454d4d41505f 
00004049 41525f52454c 
0000404f 454153455f4d 
00004055 414a4f525f56 
0000405b 455253494f4e 
00004061 00 
00004062 01            12558 	.byte	1
00004063 11            12559 	.byte	17
00004064 4d454d5f4152  12560 	.strz	"MEM_AR_RELEASE_MINOR_VERSION MEMMAP_AR_RELEASE_MINOR_VERSION"
0000406a 5f52454c4541 
00004070 53455f4d494e 
00004076 4f525f564552 
0000407c 53494f4e204d 
00004082 454d4d41505f 
00004088 41525f52454c 
0000408e 454153455f4d 
00004094 494e4f525f56 
0000409a 455253494f4e 
000040a0 00 
000040a1 01            12561 	.byte	1
000040a2 12            12562 	.byte	18
000040a3 4d454d5f4152  12563 	.strz	"MEM_AR_RELEASE_PATCH_VERSION MEMMAP_AR_RELEASE_REVISION_VERSION"
000040a9 5f52454c4541 
000040af 53455f504154 
000040b5 43485f564552 
000040bb 53494f4e204d 
000040c1 454d4d41505f 
000040c7 41525f52454c 
000040cd 454153455f52 
000040d3 45564953494f 
000040d9 4e5f56455253 
000040df 494f4e00 
000040e3 01            12564 	.byte	1
000040e4 18            12565 	.byte	24
000040e5 4d454d4d4150  12566 	.strz	"MEMMAP_SW_MAJOR_VERSION (1u)"
000040eb 5f53575f4d41 
000040f1 4a4f525f5645 
000040f7 5253494f4e20 
000040fd 2831752900 
00004102 01            12567 	.byte	1
00004103 19            12568 	.byte	25
00004104 4d454d4d4150  12569 	.strz	"MEMMAP_SW_MINOR_VERSION (11u)"

                                                                      Page 266
                                                              C:\Users\nhuliyap\AppData\Local\Temp\gh_0000d3s1.s
0000410a 5f53575f4d49 
00004110 4e4f525f5645 
00004116 5253494f4e20 
0000411c 283131752900 
00004122 01            12570 	.byte	1
00004123 1a            12571 	.byte	26
00004124 4d454d4d4150  12572 	.strz	"MEMMAP_SW_PATCH_VERSION (0u)"
0000412a 5f53575f5041 
00004130 5443485f5645 
00004136 5253494f4e20 
0000413c 2830752900 
00004141 01            12573 	.byte	1
00004142 20            12574 	.byte	32
00004143 4d454d5f5357  12575 	.strz	"MEM_SW_MAJOR_VERSION MEMMAP_SW_MAJOR_VERSION"
00004149 5f4d414a4f52 
0000414f 5f5645525349 
00004155 4f4e204d454d 
0000415b 4d41505f5357 
00004161 5f4d414a4f52 
00004167 5f5645525349 
0000416d 4f4e00 
00004170 01            12576 	.byte	1
00004171 21            12577 	.byte	33
00004172 4d454d5f5357  12578 	.strz	"MEM_SW_MINOR_VERSION MEMMAP_SW_MINOR_VERSION"
00004178 5f4d494e4f52 
0000417e 5f5645525349 
00004184 4f4e204d454d 
0000418a 4d41505f5357 
00004190 5f4d494e4f52 
00004196 5f5645525349 
0000419c 4f4e00 
0000419f 01            12579 	.byte	1
000041a0 22            12580 	.byte	34
000041a1 4d454d5f5357  12581 	.strz	"MEM_SW_PATCH_VERSION MEMMAP_SW_PATCH_VERSION"
000041a7 5f5041544348 
000041ad 5f5645525349 
000041b3 4f4e204d454d 
000041b9 4d41505f5357 
000041bf 5f5041544348 
000041c5 5f5645525349 
000041cb 4f4e00 
000041ce 01            12582 	.byte	1
000041cf 24            12583 	.byte	36
000041d0 4d454d4d4150  12584 	.strz	"MEMMAP_ERROR "
000041d6 5f4552524f52 
000041dc 2000 
000041de 01            12585 	.byte	1
000041df a901          12586 	.byte	169,1
000041e1 53544152545f  12587 	.strz	"START_SEC_CONST_UNSPECIFIED "
000041e7 5345435f434f 
000041ed 4e53545f554e 
000041f3 535045434946 
000041f9 4945442000 
000041fe 03            12588 	.byte	3
000041ff f403          12589 	.byte	244,3
00004201 16            12590 	.byte	22
00004202 01            12591 	.byte	1
00004203 b508          12592 	.byte	181,8
00004205 434f4e53545f  12593 	.strz	"CONST_SEC_OPEN "
0000420b 5345435f4f50 
00004211 454e2000 

                                                                      Page 267
                                                              C:\Users\nhuliyap\AppData\Local\Temp\gh_0000d3s1.s
00004215 04            12594 	.byte	4
00004216 04            12595 	.byte	4
00004217 01            12596 	.byte	1
00004218 9702          12597 	.byte	151,2
0000421a 4e564d5f5354  12598 	.strz	"NVM_STOP_SEC_CONST_UNSPECIFIED "
00004220 4f505f534543 
00004226 5f434f4e5354 
0000422c 5f554e535045 
00004232 434946494544 
00004238 2000 
0000423a 03            12599 	.byte	3
0000423b 9802          12600 	.byte	152,2
0000423d 1b            12601 	.byte	27
0000423e 01            12602 	.byte	1
0000423f 02            12603 	.byte	2
00004240 4d454d4d4150  12604 	.strz	"MEMMAP_VENDOR_ID (30u)"
00004246 5f56454e444f 
0000424c 525f49442028 
00004252 3330752900 
00004257 01            12605 	.byte	1
00004258 08            12606 	.byte	8
00004259 4d454d4d4150  12607 	.strz	"MEMMAP_AR_RELEASE_MAJOR_VERSION (4u)"
0000425f 5f41525f5245 
00004265 4c454153455f 
0000426b 4d414a4f525f 
00004271 56455253494f 
00004277 4e2028347529 
0000427d 00 
0000427e 01            12608 	.byte	1
0000427f 09            12609 	.byte	9
00004280 4d454d4d4150  12610 	.strz	"MEMMAP_AR_RELEASE_MINOR_VERSION (0u)"
00004286 5f41525f5245 
0000428c 4c454153455f 
00004292 4d494e4f525f 
00004298 56455253494f 
0000429e 4e2028307529 
000042a4 00 
000042a5 01            12611 	.byte	1
000042a6 0a            12612 	.byte	10
000042a7 4d454d4d4150  12613 	.strz	"MEMMAP_AR_RELEASE_REVISION_VERSION (3u)"
000042ad 5f41525f5245 
000042b3 4c454153455f 
000042b9 524556495349 
000042bf 4f4e5f564552 
000042c5 53494f4e2028 
000042cb 33752900 
000042cf 01            12614 	.byte	1
000042d0 10            12615 	.byte	16
000042d1 4d454d5f4152  12616 	.strz	"MEM_AR_RELEASE_MAJOR_VERSION MEMMAP_AR_RELEASE_MAJOR_VERSION"
000042d7 5f52454c4541 
000042dd 53455f4d414a 
000042e3 4f525f564552 
000042e9 53494f4e204d 
000042ef 454d4d41505f 
000042f5 41525f52454c 
000042fb 454153455f4d 
00004301 414a4f525f56 
00004307 455253494f4e 
0000430d 00 
0000430e 01            12617 	.byte	1
0000430f 11            12618 	.byte	17

                                                                      Page 268
                                                              C:\Users\nhuliyap\AppData\Local\Temp\gh_0000d3s1.s
00004310 4d454d5f4152  12619 	.strz	"MEM_AR_RELEASE_MINOR_VERSION MEMMAP_AR_RELEASE_MINOR_VERSION"
00004316 5f52454c4541 
0000431c 53455f4d494e 
00004322 4f525f564552 
00004328 53494f4e204d 
0000432e 454d4d41505f 
00004334 41525f52454c 
0000433a 454153455f4d 
00004340 494e4f525f56 
00004346 455253494f4e 
0000434c 00 
0000434d 01            12620 	.byte	1
0000434e 12            12621 	.byte	18
0000434f 4d454d5f4152  12622 	.strz	"MEM_AR_RELEASE_PATCH_VERSION MEMMAP_AR_RELEASE_REVISION_VERSION"
00004355 5f52454c4541 
0000435b 53455f504154 
00004361 43485f564552 
00004367 53494f4e204d 
0000436d 454d4d41505f 
00004373 41525f52454c 
00004379 454153455f52 
0000437f 45564953494f 
00004385 4e5f56455253 
0000438b 494f4e00 
0000438f 01            12623 	.byte	1
00004390 18            12624 	.byte	24
00004391 4d454d4d4150  12625 	.strz	"MEMMAP_SW_MAJOR_VERSION (1u)"
00004397 5f53575f4d41 
0000439d 4a4f525f5645 
000043a3 5253494f4e20 
000043a9 2831752900 
000043ae 01            12626 	.byte	1
000043af 19            12627 	.byte	25
000043b0 4d454d4d4150  12628 	.strz	"MEMMAP_SW_MINOR_VERSION (11u)"
000043b6 5f53575f4d49 
000043bc 4e4f525f5645 
000043c2 5253494f4e20 
000043c8 283131752900 
000043ce 01            12629 	.byte	1
000043cf 1a            12630 	.byte	26
000043d0 4d454d4d4150  12631 	.strz	"MEMMAP_SW_PATCH_VERSION (0u)"
000043d6 5f53575f5041 
000043dc 5443485f5645 
000043e2 5253494f4e20 
000043e8 2830752900 
000043ed 01            12632 	.byte	1
000043ee 20            12633 	.byte	32
000043ef 4d454d5f5357  12634 	.strz	"MEM_SW_MAJOR_VERSION MEMMAP_SW_MAJOR_VERSION"
000043f5 5f4d414a4f52 
000043fb 5f5645525349 
00004401 4f4e204d454d 
00004407 4d41505f5357 
0000440d 5f4d414a4f52 
00004413 5f5645525349 
00004419 4f4e00 
0000441c 01            12635 	.byte	1
0000441d 21            12636 	.byte	33
0000441e 4d454d5f5357  12637 	.strz	"MEM_SW_MINOR_VERSION MEMMAP_SW_MINOR_VERSION"
00004424 5f4d494e4f52 
0000442a 5f5645525349 
00004430 4f4e204d454d 

                                                                      Page 269
                                                              C:\Users\nhuliyap\AppData\Local\Temp\gh_0000d3s1.s
00004436 4d41505f5357 
0000443c 5f4d494e4f52 
00004442 5f5645525349 
00004448 4f4e00 
0000444b 01            12638 	.byte	1
0000444c 22            12639 	.byte	34
0000444d 4d454d5f5357  12640 	.strz	"MEM_SW_PATCH_VERSION MEMMAP_SW_PATCH_VERSION"
00004453 5f5041544348 
00004459 5f5645525349 
0000445f 4f4e204d454d 
00004465 4d41505f5357 
0000446b 5f5041544348 
00004471 5f5645525349 
00004477 4f4e00 
0000447a 01            12641 	.byte	1
0000447b 24            12642 	.byte	36
0000447c 4d454d4d4150  12643 	.strz	"MEMMAP_ERROR "
00004482 5f4552524f52 
00004488 2000 
0000448a 01            12644 	.byte	1
0000448b ad01          12645 	.byte	173,1
0000448d 53544f505f53  12646 	.strz	"STOP_SEC_CONST "
00004493 45435f434f4e 
00004499 53542000 
0000449d 03            12647 	.byte	3
0000449e f403          12648 	.byte	244,3
000044a0 16            12649 	.byte	22
000044a1 04            12650 	.byte	4
000044a2 04            12651 	.byte	4
000044a3 01            12652 	.byte	1
000044a4 9a02          12653 	.byte	154,2
000044a6 4e564d5f5354  12654 	.strz	"NVM_START_SEC_CONST_DESCRIPTOR_TABLE "
000044ac 4152545f5345 
000044b2 435f434f4e53 
000044b8 545f44455343 
000044be 524950544f52 
000044c4 5f5441424c45 
000044ca 2000 
000044cc 03            12655 	.byte	3
000044cd 9b02          12656 	.byte	155,2
000044cf 1b            12657 	.byte	27
000044d0 01            12658 	.byte	1
000044d1 02            12659 	.byte	2
000044d2 4d454d4d4150  12660 	.strz	"MEMMAP_VENDOR_ID (30u)"
000044d8 5f56454e444f 
000044de 525f49442028 
000044e4 3330752900 
000044e9 01            12661 	.byte	1
000044ea 08            12662 	.byte	8
000044eb 4d454d4d4150  12663 	.strz	"MEMMAP_AR_RELEASE_MAJOR_VERSION (4u)"
000044f1 5f41525f5245 
000044f7 4c454153455f 
000044fd 4d414a4f525f 
00004503 56455253494f 
00004509 4e2028347529 
0000450f 00 
00004510 01            12664 	.byte	1
00004511 09            12665 	.byte	9
00004512 4d454d4d4150  12666 	.strz	"MEMMAP_AR_RELEASE_MINOR_VERSION (0u)"
00004518 5f41525f5245 
0000451e 4c454153455f 

                                                                      Page 270
                                                              C:\Users\nhuliyap\AppData\Local\Temp\gh_0000d3s1.s
00004524 4d494e4f525f 
0000452a 56455253494f 
00004530 4e2028307529 
00004536 00 
00004537 01            12667 	.byte	1
00004538 0a            12668 	.byte	10
00004539 4d454d4d4150  12669 	.strz	"MEMMAP_AR_RELEASE_REVISION_VERSION (3u)"
0000453f 5f41525f5245 
00004545 4c454153455f 
0000454b 524556495349 
00004551 4f4e5f564552 
00004557 53494f4e2028 
0000455d 33752900 
00004561 01            12670 	.byte	1
00004562 10            12671 	.byte	16
00004563 4d454d5f4152  12672 	.strz	"MEM_AR_RELEASE_MAJOR_VERSION MEMMAP_AR_RELEASE_MAJOR_VERSION"
00004569 5f52454c4541 
0000456f 53455f4d414a 
00004575 4f525f564552 
0000457b 53494f4e204d 
00004581 454d4d41505f 
00004587 41525f52454c 
0000458d 454153455f4d 
00004593 414a4f525f56 
00004599 455253494f4e 
0000459f 00 
000045a0 01            12673 	.byte	1
000045a1 11            12674 	.byte	17
000045a2 4d454d5f4152  12675 	.strz	"MEM_AR_RELEASE_MINOR_VERSION MEMMAP_AR_RELEASE_MINOR_VERSION"
000045a8 5f52454c4541 
000045ae 53455f4d494e 
000045b4 4f525f564552 
000045ba 53494f4e204d 
000045c0 454d4d41505f 
000045c6 41525f52454c 
000045cc 454153455f4d 
000045d2 494e4f525f56 
000045d8 455253494f4e 
000045de 00 
000045df 01            12676 	.byte	1
000045e0 12            12677 	.byte	18
000045e1 4d454d5f4152  12678 	.strz	"MEM_AR_RELEASE_PATCH_VERSION MEMMAP_AR_RELEASE_REVISION_VERSION"
000045e7 5f52454c4541 
000045ed 53455f504154 
000045f3 43485f564552 
000045f9 53494f4e204d 
000045ff 454d4d41505f 
00004605 41525f52454c 
0000460b 454153455f52 
00004611 45564953494f 
00004617 4e5f56455253 
0000461d 494f4e00 
00004621 01            12679 	.byte	1
00004622 18            12680 	.byte	24
00004623 4d454d4d4150  12681 	.strz	"MEMMAP_SW_MAJOR_VERSION (1u)"
00004629 5f53575f4d41 
0000462f 4a4f525f5645 
00004635 5253494f4e20 
0000463b 2831752900 
00004640 01            12682 	.byte	1
00004641 19            12683 	.byte	25

                                                                      Page 271
                                                              C:\Users\nhuliyap\AppData\Local\Temp\gh_0000d3s1.s
00004642 4d454d4d4150  12684 	.strz	"MEMMAP_SW_MINOR_VERSION (11u)"
00004648 5f53575f4d49 
0000464e 4e4f525f5645 
00004654 5253494f4e20 
0000465a 283131752900 
00004660 01            12685 	.byte	1
00004661 1a            12686 	.byte	26
00004662 4d454d4d4150  12687 	.strz	"MEMMAP_SW_PATCH_VERSION (0u)"
00004668 5f53575f5041 
0000466e 5443485f5645 
00004674 5253494f4e20 
0000467a 2830752900 
0000467f 01            12688 	.byte	1
00004680 20            12689 	.byte	32
00004681 4d454d5f5357  12690 	.strz	"MEM_SW_MAJOR_VERSION MEMMAP_SW_MAJOR_VERSION"
00004687 5f4d414a4f52 
0000468d 5f5645525349 
00004693 4f4e204d454d 
00004699 4d41505f5357 
0000469f 5f4d414a4f52 
000046a5 5f5645525349 
000046ab 4f4e00 
000046ae 01            12691 	.byte	1
000046af 21            12692 	.byte	33
000046b0 4d454d5f5357  12693 	.strz	"MEM_SW_MINOR_VERSION MEMMAP_SW_MINOR_VERSION"
000046b6 5f4d494e4f52 
000046bc 5f5645525349 
000046c2 4f4e204d454d 
000046c8 4d41505f5357 
000046ce 5f4d494e4f52 
000046d4 5f5645525349 
000046da 4f4e00 
000046dd 01            12694 	.byte	1
000046de 22            12695 	.byte	34
000046df 4d454d5f5357  12696 	.strz	"MEM_SW_PATCH_VERSION MEMMAP_SW_PATCH_VERSION"
000046e5 5f5041544348 
000046eb 5f5645525349 
000046f1 4f4e204d454d 
000046f7 4d41505f5357 
000046fd 5f5041544348 
00004703 5f5645525349 
00004709 4f4e00 
0000470c 01            12697 	.byte	1
0000470d 24            12698 	.byte	36
0000470e 4d454d4d4150  12699 	.strz	"MEMMAP_ERROR "
00004714 5f4552524f52 
0000471a 2000 
0000471c 01            12700 	.byte	1
0000471d b201          12701 	.byte	178,1
0000471f 53544152545f  12702 	.strz	"START_SEC_CONST_UNSPECIFIED "
00004725 5345435f434f 
0000472b 4e53545f554e 
00004731 535045434946 
00004737 4945442000 
0000473c 03            12703 	.byte	3
0000473d f403          12704 	.byte	244,3
0000473f 16            12705 	.byte	22
00004740 01            12706 	.byte	1
00004741 b508          12707 	.byte	181,8
00004743 434f4e53545f  12708 	.strz	"CONST_SEC_OPEN "
00004749 5345435f4f50 

                                                                      Page 272
                                                              C:\Users\nhuliyap\AppData\Local\Temp\gh_0000d3s1.s
0000474f 454e2000 
00004753 04            12709 	.byte	4
00004754 04            12710 	.byte	4
00004755 01            12711 	.byte	1
00004756 9d02          12712 	.byte	157,2
00004758 4e564d5f5354  12713 	.strz	"NVM_STOP_SEC_CONST_DESCRIPTOR_TABLE "
0000475e 4f505f534543 
00004764 5f434f4e5354 
0000476a 5f4445534352 
00004770 4950544f525f 
00004776 5441424c4520 
0000477c 00 
0000477d 03            12714 	.byte	3
0000477e 9e02          12715 	.byte	158,2
00004780 1b            12716 	.byte	27
00004781 01            12717 	.byte	1
00004782 02            12718 	.byte	2
00004783 4d454d4d4150  12719 	.strz	"MEMMAP_VENDOR_ID (30u)"
00004789 5f56454e444f 
0000478f 525f49442028 
00004795 3330752900 
0000479a 01            12720 	.byte	1
0000479b 08            12721 	.byte	8
0000479c 4d454d4d4150  12722 	.strz	"MEMMAP_AR_RELEASE_MAJOR_VERSION (4u)"
000047a2 5f41525f5245 
000047a8 4c454153455f 
000047ae 4d414a4f525f 
000047b4 56455253494f 
000047ba 4e2028347529 
000047c0 00 
000047c1 01            12723 	.byte	1
000047c2 09            12724 	.byte	9
000047c3 4d454d4d4150  12725 	.strz	"MEMMAP_AR_RELEASE_MINOR_VERSION (0u)"
000047c9 5f41525f5245 
000047cf 4c454153455f 
000047d5 4d494e4f525f 
000047db 56455253494f 
000047e1 4e2028307529 
000047e7 00 
000047e8 01            12726 	.byte	1
000047e9 0a            12727 	.byte	10
000047ea 4d454d4d4150  12728 	.strz	"MEMMAP_AR_RELEASE_REVISION_VERSION (3u)"
000047f0 5f41525f5245 
000047f6 4c454153455f 
000047fc 524556495349 
00004802 4f4e5f564552 
00004808 53494f4e2028 
0000480e 33752900 
00004812 01            12729 	.byte	1
00004813 10            12730 	.byte	16
00004814 4d454d5f4152  12731 	.strz	"MEM_AR_RELEASE_MAJOR_VERSION MEMMAP_AR_RELEASE_MAJOR_VERSION"
0000481a 5f52454c4541 
00004820 53455f4d414a 
00004826 4f525f564552 
0000482c 53494f4e204d 
00004832 454d4d41505f 
00004838 41525f52454c 
0000483e 454153455f4d 
00004844 414a4f525f56 
0000484a 455253494f4e 
00004850 00 

                                                                      Page 273
                                                              C:\Users\nhuliyap\AppData\Local\Temp\gh_0000d3s1.s
00004851 01            12732 	.byte	1
00004852 11            12733 	.byte	17
00004853 4d454d5f4152  12734 	.strz	"MEM_AR_RELEASE_MINOR_VERSION MEMMAP_AR_RELEASE_MINOR_VERSION"
00004859 5f52454c4541 
0000485f 53455f4d494e 
00004865 4f525f564552 
0000486b 53494f4e204d 
00004871 454d4d41505f 
00004877 41525f52454c 
0000487d 454153455f4d 
00004883 494e4f525f56 
00004889 455253494f4e 
0000488f 00 
00004890 01            12735 	.byte	1
00004891 12            12736 	.byte	18
00004892 4d454d5f4152  12737 	.strz	"MEM_AR_RELEASE_PATCH_VERSION MEMMAP_AR_RELEASE_REVISION_VERSION"
00004898 5f52454c4541 
0000489e 53455f504154 
000048a4 43485f564552 
000048aa 53494f4e204d 
000048b0 454d4d41505f 
000048b6 41525f52454c 
000048bc 454153455f52 
000048c2 45564953494f 
000048c8 4e5f56455253 
000048ce 494f4e00 
000048d2 01            12738 	.byte	1
000048d3 18            12739 	.byte	24
000048d4 4d454d4d4150  12740 	.strz	"MEMMAP_SW_MAJOR_VERSION (1u)"
000048da 5f53575f4d41 
000048e0 4a4f525f5645 
000048e6 5253494f4e20 
000048ec 2831752900 
000048f1 01            12741 	.byte	1
000048f2 19            12742 	.byte	25
000048f3 4d454d4d4150  12743 	.strz	"MEMMAP_SW_MINOR_VERSION (11u)"
000048f9 5f53575f4d49 
000048ff 4e4f525f5645 
00004905 5253494f4e20 
0000490b 283131752900 
00004911 01            12744 	.byte	1
00004912 1a            12745 	.byte	26
00004913 4d454d4d4150  12746 	.strz	"MEMMAP_SW_PATCH_VERSION (0u)"
00004919 5f53575f5041 
0000491f 5443485f5645 
00004925 5253494f4e20 
0000492b 2830752900 
00004930 01            12747 	.byte	1
00004931 20            12748 	.byte	32
00004932 4d454d5f5357  12749 	.strz	"MEM_SW_MAJOR_VERSION MEMMAP_SW_MAJOR_VERSION"
00004938 5f4d414a4f52 
0000493e 5f5645525349 
00004944 4f4e204d454d 
0000494a 4d41505f5357 
00004950 5f4d414a4f52 
00004956 5f5645525349 
0000495c 4f4e00 
0000495f 01            12750 	.byte	1
00004960 21            12751 	.byte	33
00004961 4d454d5f5357  12752 	.strz	"MEM_SW_MINOR_VERSION MEMMAP_SW_MINOR_VERSION"
00004967 5f4d494e4f52 

                                                                      Page 274
                                                              C:\Users\nhuliyap\AppData\Local\Temp\gh_0000d3s1.s
0000496d 5f5645525349 
00004973 4f4e204d454d 
00004979 4d41505f5357 
0000497f 5f4d494e4f52 
00004985 5f5645525349 
0000498b 4f4e00 
0000498e 01            12753 	.byte	1
0000498f 22            12754 	.byte	34
00004990 4d454d5f5357  12755 	.strz	"MEM_SW_PATCH_VERSION MEMMAP_SW_PATCH_VERSION"
00004996 5f5041544348 
0000499c 5f5645525349 
000049a2 4f4e204d454d 
000049a8 4d41505f5357 
000049ae 5f5041544348 
000049b4 5f5645525349 
000049ba 4f4e00 
000049bd 01            12756 	.byte	1
000049be 24            12757 	.byte	36
000049bf 4d454d4d4150  12758 	.strz	"MEMMAP_ERROR "
000049c5 5f4552524f52 
000049cb 2000 
000049cd 01            12759 	.byte	1
000049ce b601          12760 	.byte	182,1
000049d0 53544f505f53  12761 	.strz	"STOP_SEC_CONST "
000049d6 45435f434f4e 
000049dc 53542000 
000049e0 03            12762 	.byte	3
000049e1 f403          12763 	.byte	244,3
000049e3 16            12764 	.byte	22
000049e4 04            12765 	.byte	4
000049e5 04            12766 	.byte	4
000049e6 01            12767 	.byte	1
000049e7 a002          12768 	.byte	160,2
000049e9 4e564d5f5354  12769 	.strz	"NVM_START_SEC_VAR_POWER_ON_INIT_UNSPECIFIED "
000049ef 4152545f5345 
000049f5 435f5641525f 
000049fb 504f5745525f 
00004a01 4f4e5f494e49 
00004a07 545f554e5350 
00004a0d 454349464945 
00004a13 442000 
00004a16 03            12770 	.byte	3
00004a17 a102          12771 	.byte	161,2
00004a19 1b            12772 	.byte	27
00004a1a 01            12773 	.byte	1
00004a1b 02            12774 	.byte	2
00004a1c 4d454d4d4150  12775 	.strz	"MEMMAP_VENDOR_ID (30u)"
00004a22 5f56454e444f 
00004a28 525f49442028 
00004a2e 3330752900 
00004a33 01            12776 	.byte	1
00004a34 08            12777 	.byte	8
00004a35 4d454d4d4150  12778 	.strz	"MEMMAP_AR_RELEASE_MAJOR_VERSION (4u)"
00004a3b 5f41525f5245 
00004a41 4c454153455f 
00004a47 4d414a4f525f 
00004a4d 56455253494f 
00004a53 4e2028347529 
00004a59 00 
00004a5a 01            12779 	.byte	1
00004a5b 09            12780 	.byte	9

                                                                      Page 275
                                                              C:\Users\nhuliyap\AppData\Local\Temp\gh_0000d3s1.s
00004a5c 4d454d4d4150  12781 	.strz	"MEMMAP_AR_RELEASE_MINOR_VERSION (0u)"
00004a62 5f41525f5245 
00004a68 4c454153455f 
00004a6e 4d494e4f525f 
00004a74 56455253494f 
00004a7a 4e2028307529 
00004a80 00 
00004a81 01            12782 	.byte	1
00004a82 0a            12783 	.byte	10
00004a83 4d454d4d4150  12784 	.strz	"MEMMAP_AR_RELEASE_REVISION_VERSION (3u)"
00004a89 5f41525f5245 
00004a8f 4c454153455f 
00004a95 524556495349 
00004a9b 4f4e5f564552 
00004aa1 53494f4e2028 
00004aa7 33752900 
00004aab 01            12785 	.byte	1
00004aac 10            12786 	.byte	16
00004aad 4d454d5f4152  12787 	.strz	"MEM_AR_RELEASE_MAJOR_VERSION MEMMAP_AR_RELEASE_MAJOR_VERSION"
00004ab3 5f52454c4541 
00004ab9 53455f4d414a 
00004abf 4f525f564552 
00004ac5 53494f4e204d 
00004acb 454d4d41505f 
00004ad1 41525f52454c 
00004ad7 454153455f4d 
00004add 414a4f525f56 
00004ae3 455253494f4e 
00004ae9 00 
00004aea 01            12788 	.byte	1
00004aeb 11            12789 	.byte	17
00004aec 4d454d5f4152  12790 	.strz	"MEM_AR_RELEASE_MINOR_VERSION MEMMAP_AR_RELEASE_MINOR_VERSION"
00004af2 5f52454c4541 
00004af8 53455f4d494e 
00004afe 4f525f564552 
00004b04 53494f4e204d 
00004b0a 454d4d41505f 
00004b10 41525f52454c 
00004b16 454153455f4d 
00004b1c 494e4f525f56 
00004b22 455253494f4e 
00004b28 00 
00004b29 01            12791 	.byte	1
00004b2a 12            12792 	.byte	18
00004b2b 4d454d5f4152  12793 	.strz	"MEM_AR_RELEASE_PATCH_VERSION MEMMAP_AR_RELEASE_REVISION_VERSION"
00004b31 5f52454c4541 
00004b37 53455f504154 
00004b3d 43485f564552 
00004b43 53494f4e204d 
00004b49 454d4d41505f 
00004b4f 41525f52454c 
00004b55 454153455f52 
00004b5b 45564953494f 
00004b61 4e5f56455253 
00004b67 494f4e00 
00004b6b 01            12794 	.byte	1
00004b6c 18            12795 	.byte	24
00004b6d 4d454d4d4150  12796 	.strz	"MEMMAP_SW_MAJOR_VERSION (1u)"
00004b73 5f53575f4d41 
00004b79 4a4f525f5645 
00004b7f 5253494f4e20 

                                                                      Page 276
                                                              C:\Users\nhuliyap\AppData\Local\Temp\gh_0000d3s1.s
00004b85 2831752900 
00004b8a 01            12797 	.byte	1
00004b8b 19            12798 	.byte	25
00004b8c 4d454d4d4150  12799 	.strz	"MEMMAP_SW_MINOR_VERSION (11u)"
00004b92 5f53575f4d49 
00004b98 4e4f525f5645 
00004b9e 5253494f4e20 
00004ba4 283131752900 
00004baa 01            12800 	.byte	1
00004bab 1a            12801 	.byte	26
00004bac 4d454d4d4150  12802 	.strz	"MEMMAP_SW_PATCH_VERSION (0u)"
00004bb2 5f53575f5041 
00004bb8 5443485f5645 
00004bbe 5253494f4e20 
00004bc4 2830752900 
00004bc9 01            12803 	.byte	1
00004bca 20            12804 	.byte	32
00004bcb 4d454d5f5357  12805 	.strz	"MEM_SW_MAJOR_VERSION MEMMAP_SW_MAJOR_VERSION"
00004bd1 5f4d414a4f52 
00004bd7 5f5645525349 
00004bdd 4f4e204d454d 
00004be3 4d41505f5357 
00004be9 5f4d414a4f52 
00004bef 5f5645525349 
00004bf5 4f4e00 
00004bf8 01            12806 	.byte	1
00004bf9 21            12807 	.byte	33
00004bfa 4d454d5f5357  12808 	.strz	"MEM_SW_MINOR_VERSION MEMMAP_SW_MINOR_VERSION"
00004c00 5f4d494e4f52 
00004c06 5f5645525349 
00004c0c 4f4e204d454d 
00004c12 4d41505f5357 
00004c18 5f4d494e4f52 
00004c1e 5f5645525349 
00004c24 4f4e00 
00004c27 01            12809 	.byte	1
00004c28 22            12810 	.byte	34
00004c29 4d454d5f5357  12811 	.strz	"MEM_SW_PATCH_VERSION MEMMAP_SW_PATCH_VERSION"
00004c2f 5f5041544348 
00004c35 5f5645525349 
00004c3b 4f4e204d454d 
00004c41 4d41505f5357 
00004c47 5f5041544348 
00004c4d 5f5645525349 
00004c53 4f4e00 
00004c56 01            12812 	.byte	1
00004c57 24            12813 	.byte	36
00004c58 4d454d4d4150  12814 	.strz	"MEMMAP_ERROR "
00004c5e 5f4552524f52 
00004c64 2000 
00004c66 01            12815 	.byte	1
00004c67 df01          12816 	.byte	223,1
00004c69 53544152545f  12817 	.strz	"START_SEC_VAR_ZERO_INIT_UNSPECIFIED "
00004c6f 5345435f5641 
00004c75 525f5a45524f 
00004c7b 5f494e49545f 
00004c81 554e53504543 
00004c87 494649454420 
00004c8d 00 
00004c8e 03            12818 	.byte	3
00004c8f f403          12819 	.byte	244,3

                                                                      Page 277
                                                              C:\Users\nhuliyap\AppData\Local\Temp\gh_0000d3s1.s
00004c91 16            12820 	.byte	22
00004c92 01            12821 	.byte	1
00004c93 850a          12822 	.byte	133,10
00004c95 5641525f5345  12823 	.strz	"VAR_SEC_OPEN "
00004c9b 435f4f50454e 
00004ca1 2000 
00004ca3 04            12824 	.byte	4
00004ca4 04            12825 	.byte	4
00004ca5 01            12826 	.byte	1
00004ca6 a402          12827 	.byte	164,2
00004ca8 4e564d5f5354  12828 	.strz	"NVM_STOP_SEC_VAR_POWER_ON_INIT_UNSPECIFIED "
00004cae 4f505f534543 
00004cb4 5f5641525f50 
00004cba 4f5745525f4f 
00004cc0 4e5f494e4954 
00004cc6 5f554e535045 
00004ccc 434946494544 
00004cd2 2000 
00004cd4 03            12829 	.byte	3
00004cd5 a502          12830 	.byte	165,2
00004cd7 1b            12831 	.byte	27
00004cd8 01            12832 	.byte	1
00004cd9 02            12833 	.byte	2
00004cda 4d454d4d4150  12834 	.strz	"MEMMAP_VENDOR_ID (30u)"
00004ce0 5f56454e444f 
00004ce6 525f49442028 
00004cec 3330752900 
00004cf1 01            12835 	.byte	1
00004cf2 08            12836 	.byte	8
00004cf3 4d454d4d4150  12837 	.strz	"MEMMAP_AR_RELEASE_MAJOR_VERSION (4u)"
00004cf9 5f41525f5245 
00004cff 4c454153455f 
00004d05 4d414a4f525f 
00004d0b 56455253494f 
00004d11 4e2028347529 
00004d17 00 
00004d18 01            12838 	.byte	1
00004d19 09            12839 	.byte	9
00004d1a 4d454d4d4150  12840 	.strz	"MEMMAP_AR_RELEASE_MINOR_VERSION (0u)"
00004d20 5f41525f5245 
00004d26 4c454153455f 
00004d2c 4d494e4f525f 
00004d32 56455253494f 
00004d38 4e2028307529 
00004d3e 00 
00004d3f 01            12841 	.byte	1
00004d40 0a            12842 	.byte	10
00004d41 4d454d4d4150  12843 	.strz	"MEMMAP_AR_RELEASE_REVISION_VERSION (3u)"
00004d47 5f41525f5245 
00004d4d 4c454153455f 
00004d53 524556495349 
00004d59 4f4e5f564552 
00004d5f 53494f4e2028 
00004d65 33752900 
00004d69 01            12844 	.byte	1
00004d6a 10            12845 	.byte	16
00004d6b 4d454d5f4152  12846 	.strz	"MEM_AR_RELEASE_MAJOR_VERSION MEMMAP_AR_RELEASE_MAJOR_VERSION"
00004d71 5f52454c4541 
00004d77 53455f4d414a 
00004d7d 4f525f564552 
00004d83 53494f4e204d 

                                                                      Page 278
                                                              C:\Users\nhuliyap\AppData\Local\Temp\gh_0000d3s1.s
00004d89 454d4d41505f 
00004d8f 41525f52454c 
00004d95 454153455f4d 
00004d9b 414a4f525f56 
00004da1 455253494f4e 
00004da7 00 
00004da8 01            12847 	.byte	1
00004da9 11            12848 	.byte	17
00004daa 4d454d5f4152  12849 	.strz	"MEM_AR_RELEASE_MINOR_VERSION MEMMAP_AR_RELEASE_MINOR_VERSION"
00004db0 5f52454c4541 
00004db6 53455f4d494e 
00004dbc 4f525f564552 
00004dc2 53494f4e204d 
00004dc8 454d4d41505f 
00004dce 41525f52454c 
00004dd4 454153455f4d 
00004dda 494e4f525f56 
00004de0 455253494f4e 
00004de6 00 
00004de7 01            12850 	.byte	1
00004de8 12            12851 	.byte	18
00004de9 4d454d5f4152  12852 	.strz	"MEM_AR_RELEASE_PATCH_VERSION MEMMAP_AR_RELEASE_REVISION_VERSION"
00004def 5f52454c4541 
00004df5 53455f504154 
00004dfb 43485f564552 
00004e01 53494f4e204d 
00004e07 454d4d41505f 
00004e0d 41525f52454c 
00004e13 454153455f52 
00004e19 45564953494f 
00004e1f 4e5f56455253 
00004e25 494f4e00 
00004e29 01            12853 	.byte	1
00004e2a 18            12854 	.byte	24
00004e2b 4d454d4d4150  12855 	.strz	"MEMMAP_SW_MAJOR_VERSION (1u)"
00004e31 5f53575f4d41 
00004e37 4a4f525f5645 
00004e3d 5253494f4e20 
00004e43 2831752900 
00004e48 01            12856 	.byte	1
00004e49 19            12857 	.byte	25
00004e4a 4d454d4d4150  12858 	.strz	"MEMMAP_SW_MINOR_VERSION (11u)"
00004e50 5f53575f4d49 
00004e56 4e4f525f5645 
00004e5c 5253494f4e20 
00004e62 283131752900 
00004e68 01            12859 	.byte	1
00004e69 1a            12860 	.byte	26
00004e6a 4d454d4d4150  12861 	.strz	"MEMMAP_SW_PATCH_VERSION (0u)"
00004e70 5f53575f5041 
00004e76 5443485f5645 
00004e7c 5253494f4e20 
00004e82 2830752900 
00004e87 01            12862 	.byte	1
00004e88 20            12863 	.byte	32
00004e89 4d454d5f5357  12864 	.strz	"MEM_SW_MAJOR_VERSION MEMMAP_SW_MAJOR_VERSION"
00004e8f 5f4d414a4f52 
00004e95 5f5645525349 
00004e9b 4f4e204d454d 
00004ea1 4d41505f5357 
00004ea7 5f4d414a4f52 

                                                                      Page 279
                                                              C:\Users\nhuliyap\AppData\Local\Temp\gh_0000d3s1.s
00004ead 5f5645525349 
00004eb3 4f4e00 
00004eb6 01            12865 	.byte	1
00004eb7 21            12866 	.byte	33
00004eb8 4d454d5f5357  12867 	.strz	"MEM_SW_MINOR_VERSION MEMMAP_SW_MINOR_VERSION"
00004ebe 5f4d494e4f52 
00004ec4 5f5645525349 
00004eca 4f4e204d454d 
00004ed0 4d41505f5357 
00004ed6 5f4d494e4f52 
00004edc 5f5645525349 
00004ee2 4f4e00 
00004ee5 01            12868 	.byte	1
00004ee6 22            12869 	.byte	34
00004ee7 4d454d5f5357  12870 	.strz	"MEM_SW_PATCH_VERSION MEMMAP_SW_PATCH_VERSION"
00004eed 5f5041544348 
00004ef3 5f5645525349 
00004ef9 4f4e204d454d 
00004eff 4d41505f5357 
00004f05 5f5041544348 
00004f0b 5f5645525349 
00004f11 4f4e00 
00004f14 01            12871 	.byte	1
00004f15 24            12872 	.byte	36
00004f16 4d454d4d4150  12873 	.strz	"MEMMAP_ERROR "
00004f1c 5f4552524f52 
00004f22 2000 
00004f24 01            12874 	.byte	1
00004f25 e301          12875 	.byte	227,1
00004f27 53544f505f53  12876 	.strz	"STOP_SEC_VAR "
00004f2d 45435f564152 
00004f33 2000 
00004f35 03            12877 	.byte	3
00004f36 f403          12878 	.byte	244,3
00004f38 16            12879 	.byte	22
00004f39 04            12880 	.byte	4
00004f3a 04            12881 	.byte	4
00004f3b 04            12882 	.byte	4
00004f3c 03            12883 	.byte	3
00004f3d 0a            12884 	.byte	10
00004f3e 23            12885 	.byte	35
00004f3f 03            12886 	.byte	3
00004f40 0a            12887 	.byte	10
00004f41 24            12888 	.byte	36
00004f42 01            12889 	.byte	1
00004f43 04            12890 	.byte	4
00004f44 4e564d5f4143  12891 	.strz	"NVM_ACT_H_ "
00004f4a 545f485f2000 
00004f50 01            12892 	.byte	1
00004f51 06            12893 	.byte	6
00004f52 4e564d5f4143  12894 	.strz	"NVM_ACT_MAJOR_VERSION (5u)"
00004f58 545f4d414a4f 
00004f5e 525f56455253 
00004f64 494f4e202835 
00004f6a 752900 
00004f6d 01            12895 	.byte	1
00004f6e 07            12896 	.byte	7
00004f6f 4e564d5f4143  12897 	.strz	"NVM_ACT_MINOR_VERSION (7u)"
00004f75 545f4d494e4f 
00004f7b 525f56455253 
00004f81 494f4e202837 

                                                                      Page 280
                                                              C:\Users\nhuliyap\AppData\Local\Temp\gh_0000d3s1.s
00004f87 752900 
00004f8a 01            12898 	.byte	1
00004f8b 55            12899 	.byte	85
00004f8c 4e564d5f5354  12900 	.strz	"NVM_START_SEC_CONST_UNSPECIFIED "
00004f92 4152545f5345 
00004f98 435f434f4e53 
00004f9e 545f554e5350 
00004fa4 454349464945 
00004faa 442000 
00004fad 03            12901 	.byte	3
00004fae 56            12902 	.byte	86
00004faf 1b            12903 	.byte	27
00004fb0 01            12904 	.byte	1
00004fb1 02            12905 	.byte	2
00004fb2 4d454d4d4150  12906 	.strz	"MEMMAP_VENDOR_ID (30u)"
00004fb8 5f56454e444f 
00004fbe 525f49442028 
00004fc4 3330752900 
00004fc9 01            12907 	.byte	1
00004fca 08            12908 	.byte	8
00004fcb 4d454d4d4150  12909 	.strz	"MEMMAP_AR_RELEASE_MAJOR_VERSION (4u)"
00004fd1 5f41525f5245 
00004fd7 4c454153455f 
00004fdd 4d414a4f525f 
00004fe3 56455253494f 
00004fe9 4e2028347529 
00004fef 00 
00004ff0 01            12910 	.byte	1
00004ff1 09            12911 	.byte	9
00004ff2 4d454d4d4150  12912 	.strz	"MEMMAP_AR_RELEASE_MINOR_VERSION (0u)"
00004ff8 5f41525f5245 
00004ffe 4c454153455f 
00005004 4d494e4f525f 
0000500a 56455253494f 
00005010 4e2028307529 
00005016 00 
00005017 01            12913 	.byte	1
00005018 0a            12914 	.byte	10
00005019 4d454d4d4150  12915 	.strz	"MEMMAP_AR_RELEASE_REVISION_VERSION (3u)"
0000501f 5f41525f5245 
00005025 4c454153455f 
0000502b 524556495349 
00005031 4f4e5f564552 
00005037 53494f4e2028 
0000503d 33752900 
00005041 01            12916 	.byte	1
00005042 10            12917 	.byte	16
00005043 4d454d5f4152  12918 	.strz	"MEM_AR_RELEASE_MAJOR_VERSION MEMMAP_AR_RELEASE_MAJOR_VERSION"
00005049 5f52454c4541 
0000504f 53455f4d414a 
00005055 4f525f564552 
0000505b 53494f4e204d 
00005061 454d4d41505f 
00005067 41525f52454c 
0000506d 454153455f4d 
00005073 414a4f525f56 
00005079 455253494f4e 
0000507f 00 
00005080 01            12919 	.byte	1
00005081 11            12920 	.byte	17
00005082 4d454d5f4152  12921 	.strz	"MEM_AR_RELEASE_MINOR_VERSION MEMMAP_AR_RELEASE_MINOR_VERSION"

                                                                      Page 281
                                                              C:\Users\nhuliyap\AppData\Local\Temp\gh_0000d3s1.s
00005088 5f52454c4541 
0000508e 53455f4d494e 
00005094 4f525f564552 
0000509a 53494f4e204d 
000050a0 454d4d41505f 
000050a6 41525f52454c 
000050ac 454153455f4d 
000050b2 494e4f525f56 
000050b8 455253494f4e 
000050be 00 
000050bf 01            12922 	.byte	1
000050c0 12            12923 	.byte	18
000050c1 4d454d5f4152  12924 	.strz	"MEM_AR_RELEASE_PATCH_VERSION MEMMAP_AR_RELEASE_REVISION_VERSION"
000050c7 5f52454c4541 
000050cd 53455f504154 
000050d3 43485f564552 
000050d9 53494f4e204d 
000050df 454d4d41505f 
000050e5 41525f52454c 
000050eb 454153455f52 
000050f1 45564953494f 
000050f7 4e5f56455253 
000050fd 494f4e00 
00005101 01            12925 	.byte	1
00005102 18            12926 	.byte	24
00005103 4d454d4d4150  12927 	.strz	"MEMMAP_SW_MAJOR_VERSION (1u)"
00005109 5f53575f4d41 
0000510f 4a4f525f5645 
00005115 5253494f4e20 
0000511b 2831752900 
00005120 01            12928 	.byte	1
00005121 19            12929 	.byte	25
00005122 4d454d4d4150  12930 	.strz	"MEMMAP_SW_MINOR_VERSION (11u)"
00005128 5f53575f4d49 
0000512e 4e4f525f5645 
00005134 5253494f4e20 
0000513a 283131752900 
00005140 01            12931 	.byte	1
00005141 1a            12932 	.byte	26
00005142 4d454d4d4150  12933 	.strz	"MEMMAP_SW_PATCH_VERSION (0u)"
00005148 5f53575f5041 
0000514e 5443485f5645 
00005154 5253494f4e20 
0000515a 2830752900 
0000515f 01            12934 	.byte	1
00005160 20            12935 	.byte	32
00005161 4d454d5f5357  12936 	.strz	"MEM_SW_MAJOR_VERSION MEMMAP_SW_MAJOR_VERSION"
00005167 5f4d414a4f52 
0000516d 5f5645525349 
00005173 4f4e204d454d 
00005179 4d41505f5357 
0000517f 5f4d414a4f52 
00005185 5f5645525349 
0000518b 4f4e00 
0000518e 01            12937 	.byte	1
0000518f 21            12938 	.byte	33
00005190 4d454d5f5357  12939 	.strz	"MEM_SW_MINOR_VERSION MEMMAP_SW_MINOR_VERSION"
00005196 5f4d494e4f52 
0000519c 5f5645525349 
000051a2 4f4e204d454d 
000051a8 4d41505f5357 

                                                                      Page 282
                                                              C:\Users\nhuliyap\AppData\Local\Temp\gh_0000d3s1.s
000051ae 5f4d494e4f52 
000051b4 5f5645525349 
000051ba 4f4e00 
000051bd 01            12940 	.byte	1
000051be 22            12941 	.byte	34
000051bf 4d454d5f5357  12942 	.strz	"MEM_SW_PATCH_VERSION MEMMAP_SW_PATCH_VERSION"
000051c5 5f5041544348 
000051cb 5f5645525349 
000051d1 4f4e204d454d 
000051d7 4d41505f5357 
000051dd 5f5041544348 
000051e3 5f5645525349 
000051e9 4f4e00 
000051ec 01            12943 	.byte	1
000051ed 24            12944 	.byte	36
000051ee 4d454d4d4150  12945 	.strz	"MEMMAP_ERROR "
000051f4 5f4552524f52 
000051fa 2000 
000051fc 01            12946 	.byte	1
000051fd a901          12947 	.byte	169,1
000051ff 53544152545f  12948 	.strz	"START_SEC_CONST_UNSPECIFIED "
00005205 5345435f434f 
0000520b 4e53545f554e 
00005211 535045434946 
00005217 4945442000 
0000521c 03            12949 	.byte	3
0000521d f403          12950 	.byte	244,3
0000521f 16            12951 	.byte	22
00005220 01            12952 	.byte	1
00005221 b508          12953 	.byte	181,8
00005223 434f4e53545f  12954 	.strz	"CONST_SEC_OPEN "
00005229 5345435f4f50 
0000522f 454e2000 
00005233 04            12955 	.byte	4
00005234 04            12956 	.byte	4
00005235 01            12957 	.byte	1
00005236 5a            12958 	.byte	90
00005237 4e564d5f5354  12959 	.strz	"NVM_STOP_SEC_CONST_UNSPECIFIED "
0000523d 4f505f534543 
00005243 5f434f4e5354 
00005249 5f554e535045 
0000524f 434946494544 
00005255 2000 
00005257 03            12960 	.byte	3
00005258 5b            12961 	.byte	91
00005259 1b            12962 	.byte	27
0000525a 01            12963 	.byte	1
0000525b 02            12964 	.byte	2
0000525c 4d454d4d4150  12965 	.strz	"MEMMAP_VENDOR_ID (30u)"
00005262 5f56454e444f 
00005268 525f49442028 
0000526e 3330752900 
00005273 01            12966 	.byte	1
00005274 08            12967 	.byte	8
00005275 4d454d4d4150  12968 	.strz	"MEMMAP_AR_RELEASE_MAJOR_VERSION (4u)"
0000527b 5f41525f5245 
00005281 4c454153455f 
00005287 4d414a4f525f 
0000528d 56455253494f 
00005293 4e2028347529 
00005299 00 

                                                                      Page 283
                                                              C:\Users\nhuliyap\AppData\Local\Temp\gh_0000d3s1.s
0000529a 01            12969 	.byte	1
0000529b 09            12970 	.byte	9
0000529c 4d454d4d4150  12971 	.strz	"MEMMAP_AR_RELEASE_MINOR_VERSION (0u)"
000052a2 5f41525f5245 
000052a8 4c454153455f 
000052ae 4d494e4f525f 
000052b4 56455253494f 
000052ba 4e2028307529 
000052c0 00 
000052c1 01            12972 	.byte	1
000052c2 0a            12973 	.byte	10
000052c3 4d454d4d4150  12974 	.strz	"MEMMAP_AR_RELEASE_REVISION_VERSION (3u)"
000052c9 5f41525f5245 
000052cf 4c454153455f 
000052d5 524556495349 
000052db 4f4e5f564552 
000052e1 53494f4e2028 
000052e7 33752900 
000052eb 01            12975 	.byte	1
000052ec 10            12976 	.byte	16
000052ed 4d454d5f4152  12977 	.strz	"MEM_AR_RELEASE_MAJOR_VERSION MEMMAP_AR_RELEASE_MAJOR_VERSION"
000052f3 5f52454c4541 
000052f9 53455f4d414a 
000052ff 4f525f564552 
00005305 53494f4e204d 
0000530b 454d4d41505f 
00005311 41525f52454c 
00005317 454153455f4d 
0000531d 414a4f525f56 
00005323 455253494f4e 
00005329 00 
0000532a 01            12978 	.byte	1
0000532b 11            12979 	.byte	17
0000532c 4d454d5f4152  12980 	.strz	"MEM_AR_RELEASE_MINOR_VERSION MEMMAP_AR_RELEASE_MINOR_VERSION"
00005332 5f52454c4541 
00005338 53455f4d494e 
0000533e 4f525f564552 
00005344 53494f4e204d 
0000534a 454d4d41505f 
00005350 41525f52454c 
00005356 454153455f4d 
0000535c 494e4f525f56 
00005362 455253494f4e 
00005368 00 
00005369 01            12981 	.byte	1
0000536a 12            12982 	.byte	18
0000536b 4d454d5f4152  12983 	.strz	"MEM_AR_RELEASE_PATCH_VERSION MEMMAP_AR_RELEASE_REVISION_VERSION"
00005371 5f52454c4541 
00005377 53455f504154 
0000537d 43485f564552 
00005383 53494f4e204d 
00005389 454d4d41505f 
0000538f 41525f52454c 
00005395 454153455f52 
0000539b 45564953494f 
000053a1 4e5f56455253 
000053a7 494f4e00 
000053ab 01            12984 	.byte	1
000053ac 18            12985 	.byte	24
000053ad 4d454d4d4150  12986 	.strz	"MEMMAP_SW_MAJOR_VERSION (1u)"
000053b3 5f53575f4d41 

                                                                      Page 284
                                                              C:\Users\nhuliyap\AppData\Local\Temp\gh_0000d3s1.s
000053b9 4a4f525f5645 
000053bf 5253494f4e20 
000053c5 2831752900 
000053ca 01            12987 	.byte	1
000053cb 19            12988 	.byte	25
000053cc 4d454d4d4150  12989 	.strz	"MEMMAP_SW_MINOR_VERSION (11u)"
000053d2 5f53575f4d49 
000053d8 4e4f525f5645 
000053de 5253494f4e20 
000053e4 283131752900 
000053ea 01            12990 	.byte	1
000053eb 1a            12991 	.byte	26
000053ec 4d454d4d4150  12992 	.strz	"MEMMAP_SW_PATCH_VERSION (0u)"
000053f2 5f53575f5041 
000053f8 5443485f5645 
000053fe 5253494f4e20 
00005404 2830752900 
00005409 01            12993 	.byte	1
0000540a 20            12994 	.byte	32
0000540b 4d454d5f5357  12995 	.strz	"MEM_SW_MAJOR_VERSION MEMMAP_SW_MAJOR_VERSION"
00005411 5f4d414a4f52 
00005417 5f5645525349 
0000541d 4f4e204d454d 
00005423 4d41505f5357 
00005429 5f4d414a4f52 
0000542f 5f5645525349 
00005435 4f4e00 
00005438 01            12996 	.byte	1
00005439 21            12997 	.byte	33
0000543a 4d454d5f5357  12998 	.strz	"MEM_SW_MINOR_VERSION MEMMAP_SW_MINOR_VERSION"
00005440 5f4d494e4f52 
00005446 5f5645525349 
0000544c 4f4e204d454d 
00005452 4d41505f5357 
00005458 5f4d494e4f52 
0000545e 5f5645525349 
00005464 4f4e00 
00005467 01            12999 	.byte	1
00005468 22            13000 	.byte	34
00005469 4d454d5f5357  13001 	.strz	"MEM_SW_PATCH_VERSION MEMMAP_SW_PATCH_VERSION"
0000546f 5f5041544348 
00005475 5f5645525349 
0000547b 4f4e204d454d 
00005481 4d41505f5357 
00005487 5f5041544348 
0000548d 5f5645525349 
00005493 4f4e00 
00005496 01            13002 	.byte	1
00005497 24            13003 	.byte	36
00005498 4d454d4d4150  13004 	.strz	"MEMMAP_ERROR "
0000549e 5f4552524f52 
000054a4 2000 
000054a6 01            13005 	.byte	1
000054a7 ad01          13006 	.byte	173,1
000054a9 53544f505f53  13007 	.strz	"STOP_SEC_CONST "
000054af 45435f434f4e 
000054b5 53542000 
000054b9 03            13008 	.byte	3
000054ba f403          13009 	.byte	244,3
000054bc 16            13010 	.byte	22
000054bd 04            13011 	.byte	4

                                                                      Page 285
                                                              C:\Users\nhuliyap\AppData\Local\Temp\gh_0000d3s1.s
000054be 04            13012 	.byte	4
000054bf 04            13013 	.byte	4
000054c0 03            13014 	.byte	3
000054c1 0b            13015 	.byte	11
000054c2 25            13016 	.byte	37
000054c3 01            13017 	.byte	1
000054c4 3e            13018 	.byte	62
000054c5 4e564d5f5354  13019 	.strz	"NVM_START_SEC_CONST_UNSPECIFIED "
000054cb 4152545f5345 
000054d1 435f434f4e53 
000054d7 545f554e5350 
000054dd 454349464945 
000054e3 442000 
000054e6 03            13020 	.byte	3
000054e7 3f            13021 	.byte	63
000054e8 1b            13022 	.byte	27
000054e9 01            13023 	.byte	1
000054ea 02            13024 	.byte	2
000054eb 4d454d4d4150  13025 	.strz	"MEMMAP_VENDOR_ID (30u)"
000054f1 5f56454e444f 
000054f7 525f49442028 
000054fd 3330752900 
00005502 01            13026 	.byte	1
00005503 08            13027 	.byte	8
00005504 4d454d4d4150  13028 	.strz	"MEMMAP_AR_RELEASE_MAJOR_VERSION (4u)"
0000550a 5f41525f5245 
00005510 4c454153455f 
00005516 4d414a4f525f 
0000551c 56455253494f 
00005522 4e2028347529 
00005528 00 
00005529 01            13029 	.byte	1
0000552a 09            13030 	.byte	9
0000552b 4d454d4d4150  13031 	.strz	"MEMMAP_AR_RELEASE_MINOR_VERSION (0u)"
00005531 5f41525f5245 
00005537 4c454153455f 
0000553d 4d494e4f525f 
00005543 56455253494f 
00005549 4e2028307529 
0000554f 00 
00005550 01            13032 	.byte	1
00005551 0a            13033 	.byte	10
00005552 4d454d4d4150  13034 	.strz	"MEMMAP_AR_RELEASE_REVISION_VERSION (3u)"
00005558 5f41525f5245 
0000555e 4c454153455f 
00005564 524556495349 
0000556a 4f4e5f564552 
00005570 53494f4e2028 
00005576 33752900 
0000557a 01            13035 	.byte	1
0000557b 10            13036 	.byte	16
0000557c 4d454d5f4152  13037 	.strz	"MEM_AR_RELEASE_MAJOR_VERSION MEMMAP_AR_RELEASE_MAJOR_VERSION"
00005582 5f52454c4541 
00005588 53455f4d414a 
0000558e 4f525f564552 
00005594 53494f4e204d 
0000559a 454d4d41505f 
000055a0 41525f52454c 
000055a6 454153455f4d 
000055ac 414a4f525f56 
000055b2 455253494f4e 

                                                                      Page 286
                                                              C:\Users\nhuliyap\AppData\Local\Temp\gh_0000d3s1.s
000055b8 00 
000055b9 01            13038 	.byte	1
000055ba 11            13039 	.byte	17
000055bb 4d454d5f4152  13040 	.strz	"MEM_AR_RELEASE_MINOR_VERSION MEMMAP_AR_RELEASE_MINOR_VERSION"
000055c1 5f52454c4541 
000055c7 53455f4d494e 
000055cd 4f525f564552 
000055d3 53494f4e204d 
000055d9 454d4d41505f 
000055df 41525f52454c 
000055e5 454153455f4d 
000055eb 494e4f525f56 
000055f1 455253494f4e 
000055f7 00 
000055f8 01            13041 	.byte	1
000055f9 12            13042 	.byte	18
000055fa 4d454d5f4152  13043 	.strz	"MEM_AR_RELEASE_PATCH_VERSION MEMMAP_AR_RELEASE_REVISION_VERSION"
00005600 5f52454c4541 
00005606 53455f504154 
0000560c 43485f564552 
00005612 53494f4e204d 
00005618 454d4d41505f 
0000561e 41525f52454c 
00005624 454153455f52 
0000562a 45564953494f 
00005630 4e5f56455253 
00005636 494f4e00 
0000563a 01            13044 	.byte	1
0000563b 18            13045 	.byte	24
0000563c 4d454d4d4150  13046 	.strz	"MEMMAP_SW_MAJOR_VERSION (1u)"
00005642 5f53575f4d41 
00005648 4a4f525f5645 
0000564e 5253494f4e20 
00005654 2831752900 
00005659 01            13047 	.byte	1
0000565a 19            13048 	.byte	25
0000565b 4d454d4d4150  13049 	.strz	"MEMMAP_SW_MINOR_VERSION (11u)"
00005661 5f53575f4d49 
00005667 4e4f525f5645 
0000566d 5253494f4e20 
00005673 283131752900 
00005679 01            13050 	.byte	1
0000567a 1a            13051 	.byte	26
0000567b 4d454d4d4150  13052 	.strz	"MEMMAP_SW_PATCH_VERSION (0u)"
00005681 5f53575f5041 
00005687 5443485f5645 
0000568d 5253494f4e20 
00005693 2830752900 
00005698 01            13053 	.byte	1
00005699 20            13054 	.byte	32
0000569a 4d454d5f5357  13055 	.strz	"MEM_SW_MAJOR_VERSION MEMMAP_SW_MAJOR_VERSION"
000056a0 5f4d414a4f52 
000056a6 5f5645525349 
000056ac 4f4e204d454d 
000056b2 4d41505f5357 
000056b8 5f4d414a4f52 
000056be 5f5645525349 
000056c4 4f4e00 
000056c7 01            13056 	.byte	1
000056c8 21            13057 	.byte	33
000056c9 4d454d5f5357  13058 	.strz	"MEM_SW_MINOR_VERSION MEMMAP_SW_MINOR_VERSION"

                                                                      Page 287
                                                              C:\Users\nhuliyap\AppData\Local\Temp\gh_0000d3s1.s
000056cf 5f4d494e4f52 
000056d5 5f5645525349 
000056db 4f4e204d454d 
000056e1 4d41505f5357 
000056e7 5f4d494e4f52 
000056ed 5f5645525349 
000056f3 4f4e00 
000056f6 01            13059 	.byte	1
000056f7 22            13060 	.byte	34
000056f8 4d454d5f5357  13061 	.strz	"MEM_SW_PATCH_VERSION MEMMAP_SW_PATCH_VERSION"
000056fe 5f5041544348 
00005704 5f5645525349 
0000570a 4f4e204d454d 
00005710 4d41505f5357 
00005716 5f5041544348 
0000571c 5f5645525349 
00005722 4f4e00 
00005725 01            13062 	.byte	1
00005726 24            13063 	.byte	36
00005727 4d454d4d4150  13064 	.strz	"MEMMAP_ERROR "
0000572d 5f4552524f52 
00005733 2000 
00005735 01            13065 	.byte	1
00005736 a901          13066 	.byte	169,1
00005738 53544152545f  13067 	.strz	"START_SEC_CONST_UNSPECIFIED "
0000573e 5345435f434f 
00005744 4e53545f554e 
0000574a 535045434946 
00005750 4945442000 
00005755 03            13068 	.byte	3
00005756 f403          13069 	.byte	244,3
00005758 16            13070 	.byte	22
00005759 01            13071 	.byte	1
0000575a b508          13072 	.byte	181,8
0000575c 434f4e53545f  13073 	.strz	"CONST_SEC_OPEN "
00005762 5345435f4f50 
00005768 454e2000 
0000576c 04            13074 	.byte	4
0000576d 04            13075 	.byte	4
0000576e 01            13076 	.byte	1
0000576f 43            13077 	.byte	67
00005770 4e564d5f5354  13078 	.strz	"NVM_STOP_SEC_CONST_UNSPECIFIED "
00005776 4f505f534543 
0000577c 5f434f4e5354 
00005782 5f554e535045 
00005788 434946494544 
0000578e 2000 
00005790 03            13079 	.byte	3
00005791 44            13080 	.byte	68
00005792 1b            13081 	.byte	27
00005793 01            13082 	.byte	1
00005794 02            13083 	.byte	2
00005795 4d454d4d4150  13084 	.strz	"MEMMAP_VENDOR_ID (30u)"
0000579b 5f56454e444f 
000057a1 525f49442028 
000057a7 3330752900 
000057ac 01            13085 	.byte	1
000057ad 08            13086 	.byte	8
000057ae 4d454d4d4150  13087 	.strz	"MEMMAP_AR_RELEASE_MAJOR_VERSION (4u)"
000057b4 5f41525f5245 
000057ba 4c454153455f 

                                                                      Page 288
                                                              C:\Users\nhuliyap\AppData\Local\Temp\gh_0000d3s1.s
000057c0 4d414a4f525f 
000057c6 56455253494f 
000057cc 4e2028347529 
000057d2 00 
000057d3 01            13088 	.byte	1
000057d4 09            13089 	.byte	9
000057d5 4d454d4d4150  13090 	.strz	"MEMMAP_AR_RELEASE_MINOR_VERSION (0u)"
000057db 5f41525f5245 
000057e1 4c454153455f 
000057e7 4d494e4f525f 
000057ed 56455253494f 
000057f3 4e2028307529 
000057f9 00 
000057fa 01            13091 	.byte	1
000057fb 0a            13092 	.byte	10
000057fc 4d454d4d4150  13093 	.strz	"MEMMAP_AR_RELEASE_REVISION_VERSION (3u)"
00005802 5f41525f5245 
00005808 4c454153455f 
0000580e 524556495349 
00005814 4f4e5f564552 
0000581a 53494f4e2028 
00005820 33752900 
00005824 01            13094 	.byte	1
00005825 10            13095 	.byte	16
00005826 4d454d5f4152  13096 	.strz	"MEM_AR_RELEASE_MAJOR_VERSION MEMMAP_AR_RELEASE_MAJOR_VERSION"
0000582c 5f52454c4541 
00005832 53455f4d414a 
00005838 4f525f564552 
0000583e 53494f4e204d 
00005844 454d4d41505f 
0000584a 41525f52454c 
00005850 454153455f4d 
00005856 414a4f525f56 
0000585c 455253494f4e 
00005862 00 
00005863 01            13097 	.byte	1
00005864 11            13098 	.byte	17
00005865 4d454d5f4152  13099 	.strz	"MEM_AR_RELEASE_MINOR_VERSION MEMMAP_AR_RELEASE_MINOR_VERSION"
0000586b 5f52454c4541 
00005871 53455f4d494e 
00005877 4f525f564552 
0000587d 53494f4e204d 
00005883 454d4d41505f 
00005889 41525f52454c 
0000588f 454153455f4d 
00005895 494e4f525f56 
0000589b 455253494f4e 
000058a1 00 
000058a2 01            13100 	.byte	1
000058a3 12            13101 	.byte	18
000058a4 4d454d5f4152  13102 	.strz	"MEM_AR_RELEASE_PATCH_VERSION MEMMAP_AR_RELEASE_REVISION_VERSION"
000058aa 5f52454c4541 
000058b0 53455f504154 
000058b6 43485f564552 
000058bc 53494f4e204d 
000058c2 454d4d41505f 
000058c8 41525f52454c 
000058ce 454153455f52 
000058d4 45564953494f 
000058da 4e5f56455253 
000058e0 494f4e00 

                                                                      Page 289
                                                              C:\Users\nhuliyap\AppData\Local\Temp\gh_0000d3s1.s
000058e4 01            13103 	.byte	1
000058e5 18            13104 	.byte	24
000058e6 4d454d4d4150  13105 	.strz	"MEMMAP_SW_MAJOR_VERSION (1u)"
000058ec 5f53575f4d41 
000058f2 4a4f525f5645 
000058f8 5253494f4e20 
000058fe 2831752900 
00005903 01            13106 	.byte	1
00005904 19            13107 	.byte	25
00005905 4d454d4d4150  13108 	.strz	"MEMMAP_SW_MINOR_VERSION (11u)"
0000590b 5f53575f4d49 
00005911 4e4f525f5645 
00005917 5253494f4e20 
0000591d 283131752900 
00005923 01            13109 	.byte	1
00005924 1a            13110 	.byte	26
00005925 4d454d4d4150  13111 	.strz	"MEMMAP_SW_PATCH_VERSION (0u)"
0000592b 5f53575f5041 
00005931 5443485f5645 
00005937 5253494f4e20 
0000593d 2830752900 
00005942 01            13112 	.byte	1
00005943 20            13113 	.byte	32
00005944 4d454d5f5357  13114 	.strz	"MEM_SW_MAJOR_VERSION MEMMAP_SW_MAJOR_VERSION"
0000594a 5f4d414a4f52 
00005950 5f5645525349 
00005956 4f4e204d454d 
0000595c 4d41505f5357 
00005962 5f4d414a4f52 
00005968 5f5645525349 
0000596e 4f4e00 
00005971 01            13115 	.byte	1
00005972 21            13116 	.byte	33
00005973 4d454d5f5357  13117 	.strz	"MEM_SW_MINOR_VERSION MEMMAP_SW_MINOR_VERSION"
00005979 5f4d494e4f52 
0000597f 5f5645525349 
00005985 4f4e204d454d 
0000598b 4d41505f5357 
00005991 5f4d494e4f52 
00005997 5f5645525349 
0000599d 4f4e00 
000059a0 01            13118 	.byte	1
000059a1 22            13119 	.byte	34
000059a2 4d454d5f5357  13120 	.strz	"MEM_SW_PATCH_VERSION MEMMAP_SW_PATCH_VERSION"
000059a8 5f5041544348 
000059ae 5f5645525349 
000059b4 4f4e204d454d 
000059ba 4d41505f5357 
000059c0 5f5041544348 
000059c6 5f5645525349 
000059cc 4f4e00 
000059cf 01            13121 	.byte	1
000059d0 24            13122 	.byte	36
000059d1 4d454d4d4150  13123 	.strz	"MEMMAP_ERROR "
000059d7 5f4552524f52 
000059dd 2000 
000059df 01            13124 	.byte	1
000059e0 ad01          13125 	.byte	173,1
000059e2 53544f505f53  13126 	.strz	"STOP_SEC_CONST "
000059e8 45435f434f4e 
000059ee 53542000 

                                                                      Page 290
                                                              C:\Users\nhuliyap\AppData\Local\Temp\gh_0000d3s1.s
000059f2 03            13127 	.byte	3
000059f3 f403          13128 	.byte	244,3
000059f5 16            13129 	.byte	22
000059f6 04            13130 	.byte	4
000059f7 04            13131 	.byte	4
000059f8 04            13132 	.byte	4
000059f9 03            13133 	.byte	3
000059fa 0c            13134 	.byte	12
000059fb 26            13135 	.byte	38
000059fc 01            13136 	.byte	1
000059fd 04            13137 	.byte	4
000059fe 4e564d5f4352  13138 	.strz	"NVM_CRC_H_ "
00005a04 435f485f2000 
00005a0a 01            13139 	.byte	1
00005a0b 10            13140 	.byte	16
00005a0c 4e764d5f4372  13141 	.strz	"NvM_CrcJob_GetCrcLength(selfPtr) ((selfPtr)->HandlerInstance_pt->crcLength)"
00005a12 634a6f625f47 
00005a18 65744372634c 
00005a1e 656e67746828 
00005a24 73656c665074 
00005a2a 722920282873 
00005a30 656c66507472 
00005a36 292d3e48616e 
00005a3c 646c6572496e 
00005a42 7374616e6365 
00005a48 5f70742d3e63 
00005a4e 72634c656e67 
00005a54 74682900 
00005a58 01            13142 	.byte	1
00005a59 11            13143 	.byte	17
00005a5a 4e764d5f4372  13144 	.strz	"NvM_CrcJob_isBusy(selfPtr) ((selfPtr)->RemainingLength_u16 != 0)"
00005a60 634a6f625f69 
00005a66 734275737928 
00005a6c 73656c665074 
00005a72 722920282873 
00005a78 656c66507472 
00005a7e 292d3e52656d 
00005a84 61696e696e67 
00005a8a 4c656e677468 
00005a90 5f7531362021 
00005a96 3d20302900 
00005a9b 01            13145 	.byte	1
00005a9c 12            13146 	.byte	18
00005a9d 4e764d5f4372  13147 	.strz	"NvM_CrcJob_ReassignBuffer(selfPtr,crcPtr) ((selfPtr)->CrcBuffer = (crcPtr))"
00005aa3 634a6f625f52 
00005aa9 656173736967 
00005aaf 6e4275666665 
00005ab5 722873656c66 
00005abb 5074722c6372 
00005ac1 635074722920 
00005ac7 282873656c66 
00005acd 507472292d3e 
00005ad3 437263427566 
00005ad9 666572203d20 
00005adf 286372635074 
00005ae5 72292900 
00005ae9 01            13148 	.byte	1
00005aea 3e            13149 	.byte	62
00005aeb 4e564d5f5354  13150 	.strz	"NVM_START_SEC_VAR_NOINIT_UNSPECIFIED "
00005af1 4152545f5345 
00005af7 435f5641525f 

                                                                      Page 291
                                                              C:\Users\nhuliyap\AppData\Local\Temp\gh_0000d3s1.s
00005afd 4e4f494e4954 
00005b03 5f554e535045 
00005b09 434946494544 
00005b0f 2000 
00005b11 03            13151 	.byte	3
00005b12 3f            13152 	.byte	63
00005b13 1b            13153 	.byte	27
00005b14 01            13154 	.byte	1
00005b15 02            13155 	.byte	2
00005b16 4d454d4d4150  13156 	.strz	"MEMMAP_VENDOR_ID (30u)"
00005b1c 5f56454e444f 
00005b22 525f49442028 
00005b28 3330752900 
00005b2d 01            13157 	.byte	1
00005b2e 08            13158 	.byte	8
00005b2f 4d454d4d4150  13159 	.strz	"MEMMAP_AR_RELEASE_MAJOR_VERSION (4u)"
00005b35 5f41525f5245 
00005b3b 4c454153455f 
00005b41 4d414a4f525f 
00005b47 56455253494f 
00005b4d 4e2028347529 
00005b53 00 
00005b54 01            13160 	.byte	1
00005b55 09            13161 	.byte	9
00005b56 4d454d4d4150  13162 	.strz	"MEMMAP_AR_RELEASE_MINOR_VERSION (0u)"
00005b5c 5f41525f5245 
00005b62 4c454153455f 
00005b68 4d494e4f525f 
00005b6e 56455253494f 
00005b74 4e2028307529 
00005b7a 00 
00005b7b 01            13163 	.byte	1
00005b7c 0a            13164 	.byte	10
00005b7d 4d454d4d4150  13165 	.strz	"MEMMAP_AR_RELEASE_REVISION_VERSION (3u)"
00005b83 5f41525f5245 
00005b89 4c454153455f 
00005b8f 524556495349 
00005b95 4f4e5f564552 
00005b9b 53494f4e2028 
00005ba1 33752900 
00005ba5 01            13166 	.byte	1
00005ba6 10            13167 	.byte	16
00005ba7 4d454d5f4152  13168 	.strz	"MEM_AR_RELEASE_MAJOR_VERSION MEMMAP_AR_RELEASE_MAJOR_VERSION"
00005bad 5f52454c4541 
00005bb3 53455f4d414a 
00005bb9 4f525f564552 
00005bbf 53494f4e204d 
00005bc5 454d4d41505f 
00005bcb 41525f52454c 
00005bd1 454153455f4d 
00005bd7 414a4f525f56 
00005bdd 455253494f4e 
00005be3 00 
00005be4 01            13169 	.byte	1
00005be5 11            13170 	.byte	17
00005be6 4d454d5f4152  13171 	.strz	"MEM_AR_RELEASE_MINOR_VERSION MEMMAP_AR_RELEASE_MINOR_VERSION"
00005bec 5f52454c4541 
00005bf2 53455f4d494e 
00005bf8 4f525f564552 
00005bfe 53494f4e204d 
00005c04 454d4d41505f 

                                                                      Page 292
                                                              C:\Users\nhuliyap\AppData\Local\Temp\gh_0000d3s1.s
00005c0a 41525f52454c 
00005c10 454153455f4d 
00005c16 494e4f525f56 
00005c1c 455253494f4e 
00005c22 00 
00005c23 01            13172 	.byte	1
00005c24 12            13173 	.byte	18
00005c25 4d454d5f4152  13174 	.strz	"MEM_AR_RELEASE_PATCH_VERSION MEMMAP_AR_RELEASE_REVISION_VERSION"
00005c2b 5f52454c4541 
00005c31 53455f504154 
00005c37 43485f564552 
00005c3d 53494f4e204d 
00005c43 454d4d41505f 
00005c49 41525f52454c 
00005c4f 454153455f52 
00005c55 45564953494f 
00005c5b 4e5f56455253 
00005c61 494f4e00 
00005c65 01            13175 	.byte	1
00005c66 18            13176 	.byte	24
00005c67 4d454d4d4150  13177 	.strz	"MEMMAP_SW_MAJOR_VERSION (1u)"
00005c6d 5f53575f4d41 
00005c73 4a4f525f5645 
00005c79 5253494f4e20 
00005c7f 2831752900 
00005c84 01            13178 	.byte	1
00005c85 19            13179 	.byte	25
00005c86 4d454d4d4150  13180 	.strz	"MEMMAP_SW_MINOR_VERSION (11u)"
00005c8c 5f53575f4d49 
00005c92 4e4f525f5645 
00005c98 5253494f4e20 
00005c9e 283131752900 
00005ca4 01            13181 	.byte	1
00005ca5 1a            13182 	.byte	26
00005ca6 4d454d4d4150  13183 	.strz	"MEMMAP_SW_PATCH_VERSION (0u)"
00005cac 5f53575f5041 
00005cb2 5443485f5645 
00005cb8 5253494f4e20 
00005cbe 2830752900 
00005cc3 01            13184 	.byte	1
00005cc4 20            13185 	.byte	32
00005cc5 4d454d5f5357  13186 	.strz	"MEM_SW_MAJOR_VERSION MEMMAP_SW_MAJOR_VERSION"
00005ccb 5f4d414a4f52 
00005cd1 5f5645525349 
00005cd7 4f4e204d454d 
00005cdd 4d41505f5357 
00005ce3 5f4d414a4f52 
00005ce9 5f5645525349 
00005cef 4f4e00 
00005cf2 01            13187 	.byte	1
00005cf3 21            13188 	.byte	33
00005cf4 4d454d5f5357  13189 	.strz	"MEM_SW_MINOR_VERSION MEMMAP_SW_MINOR_VERSION"
00005cfa 5f4d494e4f52 
00005d00 5f5645525349 
00005d06 4f4e204d454d 
00005d0c 4d41505f5357 
00005d12 5f4d494e4f52 
00005d18 5f5645525349 
00005d1e 4f4e00 
00005d21 01            13190 	.byte	1
00005d22 22            13191 	.byte	34

                                                                      Page 293
                                                              C:\Users\nhuliyap\AppData\Local\Temp\gh_0000d3s1.s
00005d23 4d454d5f5357  13192 	.strz	"MEM_SW_PATCH_VERSION MEMMAP_SW_PATCH_VERSION"
00005d29 5f5041544348 
00005d2f 5f5645525349 
00005d35 4f4e204d454d 
00005d3b 4d41505f5357 
00005d41 5f5041544348 
00005d47 5f5645525349 
00005d4d 4f4e00 
00005d50 01            13193 	.byte	1
00005d51 24            13194 	.byte	36
00005d52 4d454d4d4150  13195 	.strz	"MEMMAP_ERROR "
00005d58 5f4552524f52 
00005d5e 2000 
00005d60 01            13196 	.byte	1
00005d61 c401          13197 	.byte	196,1
00005d63 53544152545f  13198 	.strz	"START_SEC_VAR_NOINIT_UNSPECIFIED "
00005d69 5345435f5641 
00005d6f 525f4e4f494e 
00005d75 49545f554e53 
00005d7b 504543494649 
00005d81 45442000 
00005d85 03            13199 	.byte	3
00005d86 f403          13200 	.byte	244,3
00005d88 16            13201 	.byte	22
00005d89 01            13202 	.byte	1
00005d8a cf09          13203 	.byte	207,9
00005d8c 5641525f5345  13204 	.strz	"VAR_SEC_OPEN "
00005d92 435f4f50454e 
00005d98 2000 
00005d9a 04            13205 	.byte	4
00005d9b 04            13206 	.byte	4
00005d9c 01            13207 	.byte	1
00005d9d 4a            13208 	.byte	74
00005d9e 4e564d5f5354  13209 	.strz	"NVM_STOP_SEC_VAR_NOINIT_UNSPECIFIED "
00005da4 4f505f534543 
00005daa 5f5641525f4e 
00005db0 4f494e49545f 
00005db6 554e53504543 
00005dbc 494649454420 
00005dc2 00 
00005dc3 03            13210 	.byte	3
00005dc4 4b            13211 	.byte	75
00005dc5 1b            13212 	.byte	27
00005dc6 01            13213 	.byte	1
00005dc7 02            13214 	.byte	2
00005dc8 4d454d4d4150  13215 	.strz	"MEMMAP_VENDOR_ID (30u)"
00005dce 5f56454e444f 
00005dd4 525f49442028 
00005dda 3330752900 
00005ddf 01            13216 	.byte	1
00005de0 08            13217 	.byte	8
00005de1 4d454d4d4150  13218 	.strz	"MEMMAP_AR_RELEASE_MAJOR_VERSION (4u)"
00005de7 5f41525f5245 
00005ded 4c454153455f 
00005df3 4d414a4f525f 
00005df9 56455253494f 
00005dff 4e2028347529 
00005e05 00 
00005e06 01            13219 	.byte	1
00005e07 09            13220 	.byte	9
00005e08 4d454d4d4150  13221 	.strz	"MEMMAP_AR_RELEASE_MINOR_VERSION (0u)"

                                                                      Page 294
                                                              C:\Users\nhuliyap\AppData\Local\Temp\gh_0000d3s1.s
00005e0e 5f41525f5245 
00005e14 4c454153455f 
00005e1a 4d494e4f525f 
00005e20 56455253494f 
00005e26 4e2028307529 
00005e2c 00 
00005e2d 01            13222 	.byte	1
00005e2e 0a            13223 	.byte	10
00005e2f 4d454d4d4150  13224 	.strz	"MEMMAP_AR_RELEASE_REVISION_VERSION (3u)"
00005e35 5f41525f5245 
00005e3b 4c454153455f 
00005e41 524556495349 
00005e47 4f4e5f564552 
00005e4d 53494f4e2028 
00005e53 33752900 
00005e57 01            13225 	.byte	1
00005e58 10            13226 	.byte	16
00005e59 4d454d5f4152  13227 	.strz	"MEM_AR_RELEASE_MAJOR_VERSION MEMMAP_AR_RELEASE_MAJOR_VERSION"
00005e5f 5f52454c4541 
00005e65 53455f4d414a 
00005e6b 4f525f564552 
00005e71 53494f4e204d 
00005e77 454d4d41505f 
00005e7d 41525f52454c 
00005e83 454153455f4d 
00005e89 414a4f525f56 
00005e8f 455253494f4e 
00005e95 00 
00005e96 01            13228 	.byte	1
00005e97 11            13229 	.byte	17
00005e98 4d454d5f4152  13230 	.strz	"MEM_AR_RELEASE_MINOR_VERSION MEMMAP_AR_RELEASE_MINOR_VERSION"
00005e9e 5f52454c4541 
00005ea4 53455f4d494e 
00005eaa 4f525f564552 
00005eb0 53494f4e204d 
00005eb6 454d4d41505f 
00005ebc 41525f52454c 
00005ec2 454153455f4d 
00005ec8 494e4f525f56 
00005ece 455253494f4e 
00005ed4 00 
00005ed5 01            13231 	.byte	1
00005ed6 12            13232 	.byte	18
00005ed7 4d454d5f4152  13233 	.strz	"MEM_AR_RELEASE_PATCH_VERSION MEMMAP_AR_RELEASE_REVISION_VERSION"
00005edd 5f52454c4541 
00005ee3 53455f504154 
00005ee9 43485f564552 
00005eef 53494f4e204d 
00005ef5 454d4d41505f 
00005efb 41525f52454c 
00005f01 454153455f52 
00005f07 45564953494f 
00005f0d 4e5f56455253 
00005f13 494f4e00 
00005f17 01            13234 	.byte	1
00005f18 18            13235 	.byte	24
00005f19 4d454d4d4150  13236 	.strz	"MEMMAP_SW_MAJOR_VERSION (1u)"
00005f1f 5f53575f4d41 
00005f25 4a4f525f5645 
00005f2b 5253494f4e20 
00005f31 2831752900 

                                                                      Page 295
                                                              C:\Users\nhuliyap\AppData\Local\Temp\gh_0000d3s1.s
00005f36 01            13237 	.byte	1
00005f37 19            13238 	.byte	25
00005f38 4d454d4d4150  13239 	.strz	"MEMMAP_SW_MINOR_VERSION (11u)"
00005f3e 5f53575f4d49 
00005f44 4e4f525f5645 
00005f4a 5253494f4e20 
00005f50 283131752900 
00005f56 01            13240 	.byte	1
00005f57 1a            13241 	.byte	26
00005f58 4d454d4d4150  13242 	.strz	"MEMMAP_SW_PATCH_VERSION (0u)"
00005f5e 5f53575f5041 
00005f64 5443485f5645 
00005f6a 5253494f4e20 
00005f70 2830752900 
00005f75 01            13243 	.byte	1
00005f76 20            13244 	.byte	32
00005f77 4d454d5f5357  13245 	.strz	"MEM_SW_MAJOR_VERSION MEMMAP_SW_MAJOR_VERSION"
00005f7d 5f4d414a4f52 
00005f83 5f5645525349 
00005f89 4f4e204d454d 
00005f8f 4d41505f5357 
00005f95 5f4d414a4f52 
00005f9b 5f5645525349 
00005fa1 4f4e00 
00005fa4 01            13246 	.byte	1
00005fa5 21            13247 	.byte	33
00005fa6 4d454d5f5357  13248 	.strz	"MEM_SW_MINOR_VERSION MEMMAP_SW_MINOR_VERSION"
00005fac 5f4d494e4f52 
00005fb2 5f5645525349 
00005fb8 4f4e204d454d 
00005fbe 4d41505f5357 
00005fc4 5f4d494e4f52 
00005fca 5f5645525349 
00005fd0 4f4e00 
00005fd3 01            13249 	.byte	1
00005fd4 22            13250 	.byte	34
00005fd5 4d454d5f5357  13251 	.strz	"MEM_SW_PATCH_VERSION MEMMAP_SW_PATCH_VERSION"
00005fdb 5f5041544348 
00005fe1 5f5645525349 
00005fe7 4f4e204d454d 
00005fed 4d41505f5357 
00005ff3 5f5041544348 
00005ff9 5f5645525349 
00005fff 4f4e00 
00006002 01            13252 	.byte	1
00006003 24            13253 	.byte	36
00006004 4d454d4d4150  13254 	.strz	"MEMMAP_ERROR "
0000600a 5f4552524f52 
00006010 2000 
00006012 01            13255 	.byte	1
00006013 c801          13256 	.byte	200,1
00006015 53544f505f53  13257 	.strz	"STOP_SEC_VAR "
0000601b 45435f564152 
00006021 2000 
00006023 03            13258 	.byte	3
00006024 f403          13259 	.byte	244,3
00006026 16            13260 	.byte	22
00006027 04            13261 	.byte	4
00006028 04            13262 	.byte	4
00006029 01            13263 	.byte	1
0000602a 4d            13264 	.byte	77

                                                                      Page 296
                                                              C:\Users\nhuliyap\AppData\Local\Temp\gh_0000d3s1.s
0000602b 4e564d5f5354  13265 	.strz	"NVM_START_SEC_CODE "
00006031 4152545f5345 
00006037 435f434f4445 
0000603d 2000 
0000603f 03            13266 	.byte	3
00006040 4e            13267 	.byte	78
00006041 1b            13268 	.byte	27
00006042 01            13269 	.byte	1
00006043 02            13270 	.byte	2
00006044 4d454d4d4150  13271 	.strz	"MEMMAP_VENDOR_ID (30u)"
0000604a 5f56454e444f 
00006050 525f49442028 
00006056 3330752900 
0000605b 01            13272 	.byte	1
0000605c 08            13273 	.byte	8
0000605d 4d454d4d4150  13274 	.strz	"MEMMAP_AR_RELEASE_MAJOR_VERSION (4u)"
00006063 5f41525f5245 
00006069 4c454153455f 
0000606f 4d414a4f525f 
00006075 56455253494f 
0000607b 4e2028347529 
00006081 00 
00006082 01            13275 	.byte	1
00006083 09            13276 	.byte	9
00006084 4d454d4d4150  13277 	.strz	"MEMMAP_AR_RELEASE_MINOR_VERSION (0u)"
0000608a 5f41525f5245 
00006090 4c454153455f 
00006096 4d494e4f525f 
0000609c 56455253494f 
000060a2 4e2028307529 
000060a8 00 
000060a9 01            13278 	.byte	1
000060aa 0a            13279 	.byte	10
000060ab 4d454d4d4150  13280 	.strz	"MEMMAP_AR_RELEASE_REVISION_VERSION (3u)"
000060b1 5f41525f5245 
000060b7 4c454153455f 
000060bd 524556495349 
000060c3 4f4e5f564552 
000060c9 53494f4e2028 
000060cf 33752900 
000060d3 01            13281 	.byte	1
000060d4 10            13282 	.byte	16
000060d5 4d454d5f4152  13283 	.strz	"MEM_AR_RELEASE_MAJOR_VERSION MEMMAP_AR_RELEASE_MAJOR_VERSION"
000060db 5f52454c4541 
000060e1 53455f4d414a 
000060e7 4f525f564552 
000060ed 53494f4e204d 
000060f3 454d4d41505f 
000060f9 41525f52454c 
000060ff 454153455f4d 
00006105 414a4f525f56 
0000610b 455253494f4e 
00006111 00 
00006112 01            13284 	.byte	1
00006113 11            13285 	.byte	17
00006114 4d454d5f4152  13286 	.strz	"MEM_AR_RELEASE_MINOR_VERSION MEMMAP_AR_RELEASE_MINOR_VERSION"
0000611a 5f52454c4541 
00006120 53455f4d494e 
00006126 4f525f564552 
0000612c 53494f4e204d 
00006132 454d4d41505f 

                                                                      Page 297
                                                              C:\Users\nhuliyap\AppData\Local\Temp\gh_0000d3s1.s
00006138 41525f52454c 
0000613e 454153455f4d 
00006144 494e4f525f56 
0000614a 455253494f4e 
00006150 00 
00006151 01            13287 	.byte	1
00006152 12            13288 	.byte	18
00006153 4d454d5f4152  13289 	.strz	"MEM_AR_RELEASE_PATCH_VERSION MEMMAP_AR_RELEASE_REVISION_VERSION"
00006159 5f52454c4541 
0000615f 53455f504154 
00006165 43485f564552 
0000616b 53494f4e204d 
00006171 454d4d41505f 
00006177 41525f52454c 
0000617d 454153455f52 
00006183 45564953494f 
00006189 4e5f56455253 
0000618f 494f4e00 
00006193 01            13290 	.byte	1
00006194 18            13291 	.byte	24
00006195 4d454d4d4150  13292 	.strz	"MEMMAP_SW_MAJOR_VERSION (1u)"
0000619b 5f53575f4d41 
000061a1 4a4f525f5645 
000061a7 5253494f4e20 
000061ad 2831752900 
000061b2 01            13293 	.byte	1
000061b3 19            13294 	.byte	25
000061b4 4d454d4d4150  13295 	.strz	"MEMMAP_SW_MINOR_VERSION (11u)"
000061ba 5f53575f4d49 
000061c0 4e4f525f5645 
000061c6 5253494f4e20 
000061cc 283131752900 
000061d2 01            13296 	.byte	1
000061d3 1a            13297 	.byte	26
000061d4 4d454d4d4150  13298 	.strz	"MEMMAP_SW_PATCH_VERSION (0u)"
000061da 5f53575f5041 
000061e0 5443485f5645 
000061e6 5253494f4e20 
000061ec 2830752900 
000061f1 01            13299 	.byte	1
000061f2 20            13300 	.byte	32
000061f3 4d454d5f5357  13301 	.strz	"MEM_SW_MAJOR_VERSION MEMMAP_SW_MAJOR_VERSION"
000061f9 5f4d414a4f52 
000061ff 5f5645525349 
00006205 4f4e204d454d 
0000620b 4d41505f5357 
00006211 5f4d414a4f52 
00006217 5f5645525349 
0000621d 4f4e00 
00006220 01            13302 	.byte	1
00006221 21            13303 	.byte	33
00006222 4d454d5f5357  13304 	.strz	"MEM_SW_MINOR_VERSION MEMMAP_SW_MINOR_VERSION"
00006228 5f4d494e4f52 
0000622e 5f5645525349 
00006234 4f4e204d454d 
0000623a 4d41505f5357 
00006240 5f4d494e4f52 
00006246 5f5645525349 
0000624c 4f4e00 
0000624f 01            13305 	.byte	1
00006250 22            13306 	.byte	34

                                                                      Page 298
                                                              C:\Users\nhuliyap\AppData\Local\Temp\gh_0000d3s1.s
00006251 4d454d5f5357  13307 	.strz	"MEM_SW_PATCH_VERSION MEMMAP_SW_PATCH_VERSION"
00006257 5f5041544348 
0000625d 5f5645525349 
00006263 4f4e204d454d 
00006269 4d41505f5357 
0000626f 5f5041544348 
00006275 5f5645525349 
0000627b 4f4e00 
0000627e 01            13308 	.byte	1
0000627f 24            13309 	.byte	36
00006280 4d454d4d4150  13310 	.strz	"MEMMAP_ERROR "
00006286 5f4552524f52 
0000628c 2000 
0000628e 01            13311 	.byte	1
0000628f 8e01          13312 	.byte	142,1
00006291 53544152545f  13313 	.strz	"START_SEC_CODE "
00006297 5345435f434f 
0000629d 44452000 
000062a1 03            13314 	.byte	3
000062a2 f403          13315 	.byte	244,3
000062a4 16            13316 	.byte	22
000062a5 01            13317 	.byte	1
000062a6 f407          13318 	.byte	244,7
000062a8 434f44455f53  13319 	.strz	"CODE_SEC_OPEN "
000062ae 45435f4f5045 
000062b4 4e2000 
000062b7 04            13320 	.byte	4
000062b8 04            13321 	.byte	4
000062b9 01            13322 	.byte	1
000062ba 68            13323 	.byte	104
000062bb 4e564d5f5354  13324 	.strz	"NVM_STOP_SEC_CODE "
000062c1 4f505f534543 
000062c7 5f434f444520 
000062cd 00 
000062ce 03            13325 	.byte	3
000062cf 69            13326 	.byte	105
000062d0 1b            13327 	.byte	27
000062d1 01            13328 	.byte	1
000062d2 02            13329 	.byte	2
000062d3 4d454d4d4150  13330 	.strz	"MEMMAP_VENDOR_ID (30u)"
000062d9 5f56454e444f 
000062df 525f49442028 
000062e5 3330752900 
000062ea 01            13331 	.byte	1
000062eb 08            13332 	.byte	8
000062ec 4d454d4d4150  13333 	.strz	"MEMMAP_AR_RELEASE_MAJOR_VERSION (4u)"
000062f2 5f41525f5245 
000062f8 4c454153455f 
000062fe 4d414a4f525f 
00006304 56455253494f 
0000630a 4e2028347529 
00006310 00 
00006311 01            13334 	.byte	1
00006312 09            13335 	.byte	9
00006313 4d454d4d4150  13336 	.strz	"MEMMAP_AR_RELEASE_MINOR_VERSION (0u)"
00006319 5f41525f5245 
0000631f 4c454153455f 
00006325 4d494e4f525f 
0000632b 56455253494f 
00006331 4e2028307529 
00006337 00 

                                                                      Page 299
                                                              C:\Users\nhuliyap\AppData\Local\Temp\gh_0000d3s1.s
00006338 01            13337 	.byte	1
00006339 0a            13338 	.byte	10
0000633a 4d454d4d4150  13339 	.strz	"MEMMAP_AR_RELEASE_REVISION_VERSION (3u)"
00006340 5f41525f5245 
00006346 4c454153455f 
0000634c 524556495349 
00006352 4f4e5f564552 
00006358 53494f4e2028 
0000635e 33752900 
00006362 01            13340 	.byte	1
00006363 10            13341 	.byte	16
00006364 4d454d5f4152  13342 	.strz	"MEM_AR_RELEASE_MAJOR_VERSION MEMMAP_AR_RELEASE_MAJOR_VERSION"
0000636a 5f52454c4541 
00006370 53455f4d414a 
00006376 4f525f564552 
0000637c 53494f4e204d 
00006382 454d4d41505f 
00006388 41525f52454c 
0000638e 454153455f4d 
00006394 414a4f525f56 
0000639a 455253494f4e 
000063a0 00 
000063a1 01            13343 	.byte	1
000063a2 11            13344 	.byte	17
000063a3 4d454d5f4152  13345 	.strz	"MEM_AR_RELEASE_MINOR_VERSION MEMMAP_AR_RELEASE_MINOR_VERSION"
000063a9 5f52454c4541 
000063af 53455f4d494e 
000063b5 4f525f564552 
000063bb 53494f4e204d 
000063c1 454d4d41505f 
000063c7 41525f52454c 
000063cd 454153455f4d 
000063d3 494e4f525f56 
000063d9 455253494f4e 
000063df 00 
000063e0 01            13346 	.byte	1
000063e1 12            13347 	.byte	18
000063e2 4d454d5f4152  13348 	.strz	"MEM_AR_RELEASE_PATCH_VERSION MEMMAP_AR_RELEASE_REVISION_VERSION"
000063e8 5f52454c4541 
000063ee 53455f504154 
000063f4 43485f564552 
000063fa 53494f4e204d 
00006400 454d4d41505f 
00006406 41525f52454c 
0000640c 454153455f52 
00006412 45564953494f 
00006418 4e5f56455253 
0000641e 494f4e00 
00006422 01            13349 	.byte	1
00006423 18            13350 	.byte	24
00006424 4d454d4d4150  13351 	.strz	"MEMMAP_SW_MAJOR_VERSION (1u)"
0000642a 5f53575f4d41 
00006430 4a4f525f5645 
00006436 5253494f4e20 
0000643c 2831752900 
00006441 01            13352 	.byte	1
00006442 19            13353 	.byte	25
00006443 4d454d4d4150  13354 	.strz	"MEMMAP_SW_MINOR_VERSION (11u)"
00006449 5f53575f4d49 
0000644f 4e4f525f5645 
00006455 5253494f4e20 

                                                                      Page 300
                                                              C:\Users\nhuliyap\AppData\Local\Temp\gh_0000d3s1.s
0000645b 283131752900 
00006461 01            13355 	.byte	1
00006462 1a            13356 	.byte	26
00006463 4d454d4d4150  13357 	.strz	"MEMMAP_SW_PATCH_VERSION (0u)"
00006469 5f53575f5041 
0000646f 5443485f5645 
00006475 5253494f4e20 
0000647b 2830752900 
00006480 01            13358 	.byte	1
00006481 20            13359 	.byte	32
00006482 4d454d5f5357  13360 	.strz	"MEM_SW_MAJOR_VERSION MEMMAP_SW_MAJOR_VERSION"
00006488 5f4d414a4f52 
0000648e 5f5645525349 
00006494 4f4e204d454d 
0000649a 4d41505f5357 
000064a0 5f4d414a4f52 
000064a6 5f5645525349 
000064ac 4f4e00 
000064af 01            13361 	.byte	1
000064b0 21            13362 	.byte	33
000064b1 4d454d5f5357  13363 	.strz	"MEM_SW_MINOR_VERSION MEMMAP_SW_MINOR_VERSION"
000064b7 5f4d494e4f52 
000064bd 5f5645525349 
000064c3 4f4e204d454d 
000064c9 4d41505f5357 
000064cf 5f4d494e4f52 
000064d5 5f5645525349 
000064db 4f4e00 
000064de 01            13364 	.byte	1
000064df 22            13365 	.byte	34
000064e0 4d454d5f5357  13366 	.strz	"MEM_SW_PATCH_VERSION MEMMAP_SW_PATCH_VERSION"
000064e6 5f5041544348 
000064ec 5f5645525349 
000064f2 4f4e204d454d 
000064f8 4d41505f5357 
000064fe 5f5041544348 
00006504 5f5645525349 
0000650a 4f4e00 
0000650d 01            13367 	.byte	1
0000650e 24            13368 	.byte	36
0000650f 4d454d4d4150  13369 	.strz	"MEMMAP_ERROR "
00006515 5f4552524f52 
0000651b 2000 
0000651d 01            13370 	.byte	1
0000651e 9201          13371 	.byte	146,1
00006520 53544f505f53  13372 	.strz	"STOP_SEC_CODE "
00006526 45435f434f44 
0000652c 452000 
0000652f 03            13373 	.byte	3
00006530 f403          13374 	.byte	244,3
00006532 16            13375 	.byte	22
00006533 04            13376 	.byte	4
00006534 04            13377 	.byte	4
00006535 04            13378 	.byte	4
00006536 01            13379 	.byte	1
00006537 8d01          13380 	.byte	141,1
00006539 4e564d5f4d41  13381 	.strz	"NVM_MAX_NUM_OF_STATE_CONDITIONS (3u)"
0000653f 585f4e554d5f 
00006545 4f465f535441 
0000654b 54455f434f4e 
00006551 444954494f4e 

                                                                      Page 301
                                                              C:\Users\nhuliyap\AppData\Local\Temp\gh_0000d3s1.s
00006557 532028337529 
0000655d 00 
0000655e 01            13382 	.byte	1
0000655f 8f01          13383 	.byte	143,1
00006561 4e564d5f4d41  13384 	.strz	"NVM_MAX_NUM_OF_QRY_AND (2u)"
00006567 585f4e554d5f 
0000656d 4f465f515259 
00006573 5f414e442028 
00006579 32752900 
0000657d 01            13385 	.byte	1
0000657e a801          13386 	.byte	168,1
00006580 4e564d5f5354  13387 	.strz	"NVM_START_SEC_VAR_FAST_8 "
00006586 4152545f5345 
0000658c 435f5641525f 
00006592 464153545f38 
00006598 2000 
0000659a 03            13388 	.byte	3
0000659b a901          13389 	.byte	169,1
0000659d 1b            13390 	.byte	27
0000659e 01            13391 	.byte	1
0000659f 02            13392 	.byte	2
000065a0 4d454d4d4150  13393 	.strz	"MEMMAP_VENDOR_ID (30u)"
000065a6 5f56454e444f 
000065ac 525f49442028 
000065b2 3330752900 
000065b7 01            13394 	.byte	1
000065b8 08            13395 	.byte	8
000065b9 4d454d4d4150  13396 	.strz	"MEMMAP_AR_RELEASE_MAJOR_VERSION (4u)"
000065bf 5f41525f5245 
000065c5 4c454153455f 
000065cb 4d414a4f525f 
000065d1 56455253494f 
000065d7 4e2028347529 
000065dd 00 
000065de 01            13397 	.byte	1
000065df 09            13398 	.byte	9
000065e0 4d454d4d4150  13399 	.strz	"MEMMAP_AR_RELEASE_MINOR_VERSION (0u)"
000065e6 5f41525f5245 
000065ec 4c454153455f 
000065f2 4d494e4f525f 
000065f8 56455253494f 
000065fe 4e2028307529 
00006604 00 
00006605 01            13400 	.byte	1
00006606 0a            13401 	.byte	10
00006607 4d454d4d4150  13402 	.strz	"MEMMAP_AR_RELEASE_REVISION_VERSION (3u)"
0000660d 5f41525f5245 
00006613 4c454153455f 
00006619 524556495349 
0000661f 4f4e5f564552 
00006625 53494f4e2028 
0000662b 33752900 
0000662f 01            13403 	.byte	1
00006630 10            13404 	.byte	16
00006631 4d454d5f4152  13405 	.strz	"MEM_AR_RELEASE_MAJOR_VERSION MEMMAP_AR_RELEASE_MAJOR_VERSION"
00006637 5f52454c4541 
0000663d 53455f4d414a 
00006643 4f525f564552 
00006649 53494f4e204d 
0000664f 454d4d41505f 
00006655 41525f52454c 

                                                                      Page 302
                                                              C:\Users\nhuliyap\AppData\Local\Temp\gh_0000d3s1.s
0000665b 454153455f4d 
00006661 414a4f525f56 
00006667 455253494f4e 
0000666d 00 
0000666e 01            13406 	.byte	1
0000666f 11            13407 	.byte	17
00006670 4d454d5f4152  13408 	.strz	"MEM_AR_RELEASE_MINOR_VERSION MEMMAP_AR_RELEASE_MINOR_VERSION"
00006676 5f52454c4541 
0000667c 53455f4d494e 
00006682 4f525f564552 
00006688 53494f4e204d 
0000668e 454d4d41505f 
00006694 41525f52454c 
0000669a 454153455f4d 
000066a0 494e4f525f56 
000066a6 455253494f4e 
000066ac 00 
000066ad 01            13409 	.byte	1
000066ae 12            13410 	.byte	18
000066af 4d454d5f4152  13411 	.strz	"MEM_AR_RELEASE_PATCH_VERSION MEMMAP_AR_RELEASE_REVISION_VERSION"
000066b5 5f52454c4541 
000066bb 53455f504154 
000066c1 43485f564552 
000066c7 53494f4e204d 
000066cd 454d4d41505f 
000066d3 41525f52454c 
000066d9 454153455f52 
000066df 45564953494f 
000066e5 4e5f56455253 
000066eb 494f4e00 
000066ef 01            13412 	.byte	1
000066f0 18            13413 	.byte	24
000066f1 4d454d4d4150  13414 	.strz	"MEMMAP_SW_MAJOR_VERSION (1u)"
000066f7 5f53575f4d41 
000066fd 4a4f525f5645 
00006703 5253494f4e20 
00006709 2831752900 
0000670e 01            13415 	.byte	1
0000670f 19            13416 	.byte	25
00006710 4d454d4d4150  13417 	.strz	"MEMMAP_SW_MINOR_VERSION (11u)"
00006716 5f53575f4d49 
0000671c 4e4f525f5645 
00006722 5253494f4e20 
00006728 283131752900 
0000672e 01            13418 	.byte	1
0000672f 1a            13419 	.byte	26
00006730 4d454d4d4150  13420 	.strz	"MEMMAP_SW_PATCH_VERSION (0u)"
00006736 5f53575f5041 
0000673c 5443485f5645 
00006742 5253494f4e20 
00006748 2830752900 
0000674d 01            13421 	.byte	1
0000674e 20            13422 	.byte	32
0000674f 4d454d5f5357  13423 	.strz	"MEM_SW_MAJOR_VERSION MEMMAP_SW_MAJOR_VERSION"
00006755 5f4d414a4f52 
0000675b 5f5645525349 
00006761 4f4e204d454d 
00006767 4d41505f5357 
0000676d 5f4d414a4f52 
00006773 5f5645525349 
00006779 4f4e00 

                                                                      Page 303
                                                              C:\Users\nhuliyap\AppData\Local\Temp\gh_0000d3s1.s
0000677c 01            13424 	.byte	1
0000677d 21            13425 	.byte	33
0000677e 4d454d5f5357  13426 	.strz	"MEM_SW_MINOR_VERSION MEMMAP_SW_MINOR_VERSION"
00006784 5f4d494e4f52 
0000678a 5f5645525349 
00006790 4f4e204d454d 
00006796 4d41505f5357 
0000679c 5f4d494e4f52 
000067a2 5f5645525349 
000067a8 4f4e00 
000067ab 01            13427 	.byte	1
000067ac 22            13428 	.byte	34
000067ad 4d454d5f5357  13429 	.strz	"MEM_SW_PATCH_VERSION MEMMAP_SW_PATCH_VERSION"
000067b3 5f5041544348 
000067b9 5f5645525349 
000067bf 4f4e204d454d 
000067c5 4d41505f5357 
000067cb 5f5041544348 
000067d1 5f5645525349 
000067d7 4f4e00 
000067da 01            13430 	.byte	1
000067db 24            13431 	.byte	36
000067dc 4d454d4d4150  13432 	.strz	"MEMMAP_ERROR "
000067e2 5f4552524f52 
000067e8 2000 
000067ea 01            13433 	.byte	1
000067eb d601          13434 	.byte	214,1
000067ed 53544152545f  13435 	.strz	"START_SEC_VAR_FAST_NOINIT_8BIT "
000067f3 5345435f5641 
000067f9 525f46415354 
000067ff 5f4e4f494e49 
00006805 545f38424954 
0000680b 2000 
0000680d 03            13436 	.byte	3
0000680e f403          13437 	.byte	244,3
00006810 16            13438 	.byte	22
00006811 01            13439 	.byte	1
00006812 bb0a          13440 	.byte	187,10
00006814 5641525f5345  13441 	.strz	"VAR_SEC_OPEN "
0000681a 435f4f50454e 
00006820 2000 
00006822 04            13442 	.byte	4
00006823 04            13443 	.byte	4
00006824 01            13444 	.byte	1
00006825 b001          13445 	.byte	176,1
00006827 4e564d5f5354  13446 	.strz	"NVM_STOP_SEC_VAR_FAST_8 "
0000682d 4f505f534543 
00006833 5f5641525f46 
00006839 4153545f3820 
0000683f 00 
00006840 03            13447 	.byte	3
00006841 b101          13448 	.byte	177,1
00006843 1b            13449 	.byte	27
00006844 01            13450 	.byte	1
00006845 02            13451 	.byte	2
00006846 4d454d4d4150  13452 	.strz	"MEMMAP_VENDOR_ID (30u)"
0000684c 5f56454e444f 
00006852 525f49442028 
00006858 3330752900 
0000685d 01            13453 	.byte	1
0000685e 08            13454 	.byte	8

                                                                      Page 304
                                                              C:\Users\nhuliyap\AppData\Local\Temp\gh_0000d3s1.s
0000685f 4d454d4d4150  13455 	.strz	"MEMMAP_AR_RELEASE_MAJOR_VERSION (4u)"
00006865 5f41525f5245 
0000686b 4c454153455f 
00006871 4d414a4f525f 
00006877 56455253494f 
0000687d 4e2028347529 
00006883 00 
00006884 01            13456 	.byte	1
00006885 09            13457 	.byte	9
00006886 4d454d4d4150  13458 	.strz	"MEMMAP_AR_RELEASE_MINOR_VERSION (0u)"
0000688c 5f41525f5245 
00006892 4c454153455f 
00006898 4d494e4f525f 
0000689e 56455253494f 
000068a4 4e2028307529 
000068aa 00 
000068ab 01            13459 	.byte	1
000068ac 0a            13460 	.byte	10
000068ad 4d454d4d4150  13461 	.strz	"MEMMAP_AR_RELEASE_REVISION_VERSION (3u)"
000068b3 5f41525f5245 
000068b9 4c454153455f 
000068bf 524556495349 
000068c5 4f4e5f564552 
000068cb 53494f4e2028 
000068d1 33752900 
000068d5 01            13462 	.byte	1
000068d6 10            13463 	.byte	16
000068d7 4d454d5f4152  13464 	.strz	"MEM_AR_RELEASE_MAJOR_VERSION MEMMAP_AR_RELEASE_MAJOR_VERSION"
000068dd 5f52454c4541 
000068e3 53455f4d414a 
000068e9 4f525f564552 
000068ef 53494f4e204d 
000068f5 454d4d41505f 
000068fb 41525f52454c 
00006901 454153455f4d 
00006907 414a4f525f56 
0000690d 455253494f4e 
00006913 00 
00006914 01            13465 	.byte	1
00006915 11            13466 	.byte	17
00006916 4d454d5f4152  13467 	.strz	"MEM_AR_RELEASE_MINOR_VERSION MEMMAP_AR_RELEASE_MINOR_VERSION"
0000691c 5f52454c4541 
00006922 53455f4d494e 
00006928 4f525f564552 
0000692e 53494f4e204d 
00006934 454d4d41505f 
0000693a 41525f52454c 
00006940 454153455f4d 
00006946 494e4f525f56 
0000694c 455253494f4e 
00006952 00 
00006953 01            13468 	.byte	1
00006954 12            13469 	.byte	18
00006955 4d454d5f4152  13470 	.strz	"MEM_AR_RELEASE_PATCH_VERSION MEMMAP_AR_RELEASE_REVISION_VERSION"
0000695b 5f52454c4541 
00006961 53455f504154 
00006967 43485f564552 
0000696d 53494f4e204d 
00006973 454d4d41505f 
00006979 41525f52454c 
0000697f 454153455f52 

                                                                      Page 305
                                                              C:\Users\nhuliyap\AppData\Local\Temp\gh_0000d3s1.s
00006985 45564953494f 
0000698b 4e5f56455253 
00006991 494f4e00 
00006995 01            13471 	.byte	1
00006996 18            13472 	.byte	24
00006997 4d454d4d4150  13473 	.strz	"MEMMAP_SW_MAJOR_VERSION (1u)"
0000699d 5f53575f4d41 
000069a3 4a4f525f5645 
000069a9 5253494f4e20 
000069af 2831752900 
000069b4 01            13474 	.byte	1
000069b5 19            13475 	.byte	25
000069b6 4d454d4d4150  13476 	.strz	"MEMMAP_SW_MINOR_VERSION (11u)"
000069bc 5f53575f4d49 
000069c2 4e4f525f5645 
000069c8 5253494f4e20 
000069ce 283131752900 
000069d4 01            13477 	.byte	1
000069d5 1a            13478 	.byte	26
000069d6 4d454d4d4150  13479 	.strz	"MEMMAP_SW_PATCH_VERSION (0u)"
000069dc 5f53575f5041 
000069e2 5443485f5645 
000069e8 5253494f4e20 
000069ee 2830752900 
000069f3 01            13480 	.byte	1
000069f4 20            13481 	.byte	32
000069f5 4d454d5f5357  13482 	.strz	"MEM_SW_MAJOR_VERSION MEMMAP_SW_MAJOR_VERSION"
000069fb 5f4d414a4f52 
00006a01 5f5645525349 
00006a07 4f4e204d454d 
00006a0d 4d41505f5357 
00006a13 5f4d414a4f52 
00006a19 5f5645525349 
00006a1f 4f4e00 
00006a22 01            13483 	.byte	1
00006a23 21            13484 	.byte	33
00006a24 4d454d5f5357  13485 	.strz	"MEM_SW_MINOR_VERSION MEMMAP_SW_MINOR_VERSION"
00006a2a 5f4d494e4f52 
00006a30 5f5645525349 
00006a36 4f4e204d454d 
00006a3c 4d41505f5357 
00006a42 5f4d494e4f52 
00006a48 5f5645525349 
00006a4e 4f4e00 
00006a51 01            13486 	.byte	1
00006a52 22            13487 	.byte	34
00006a53 4d454d5f5357  13488 	.strz	"MEM_SW_PATCH_VERSION MEMMAP_SW_PATCH_VERSION"
00006a59 5f5041544348 
00006a5f 5f5645525349 
00006a65 4f4e204d454d 
00006a6b 4d41505f5357 
00006a71 5f5041544348 
00006a77 5f5645525349 
00006a7d 4f4e00 
00006a80 01            13489 	.byte	1
00006a81 24            13490 	.byte	36
00006a82 4d454d4d4150  13491 	.strz	"MEMMAP_ERROR "
00006a88 5f4552524f52 
00006a8e 2000 
00006a90 01            13492 	.byte	1
00006a91 da01          13493 	.byte	218,1

                                                                      Page 306
                                                              C:\Users\nhuliyap\AppData\Local\Temp\gh_0000d3s1.s
00006a93 53544f505f53  13494 	.strz	"STOP_SEC_VAR "
00006a99 45435f564152 
00006a9f 2000 
00006aa1 03            13495 	.byte	3
00006aa2 f403          13496 	.byte	244,3
00006aa4 16            13497 	.byte	22
00006aa5 04            13498 	.byte	4
00006aa6 04            13499 	.byte	4
00006aa7 01            13500 	.byte	1
00006aa8 b301          13501 	.byte	179,1
00006aaa 4e564d5f5354  13502 	.strz	"NVM_START_SEC_VAR_UNSPECIFIED "
00006ab0 4152545f5345 
00006ab6 435f5641525f 
00006abc 554e53504543 
00006ac2 494649454420 
00006ac8 00 
00006ac9 03            13503 	.byte	3
00006aca b401          13504 	.byte	180,1
00006acc 1b            13505 	.byte	27
00006acd 01            13506 	.byte	1
00006ace 02            13507 	.byte	2
00006acf 4d454d4d4150  13508 	.strz	"MEMMAP_VENDOR_ID (30u)"
00006ad5 5f56454e444f 
00006adb 525f49442028 
00006ae1 3330752900 
00006ae6 01            13509 	.byte	1
00006ae7 08            13510 	.byte	8
00006ae8 4d454d4d4150  13511 	.strz	"MEMMAP_AR_RELEASE_MAJOR_VERSION (4u)"
00006aee 5f41525f5245 
00006af4 4c454153455f 
00006afa 4d414a4f525f 
00006b00 56455253494f 
00006b06 4e2028347529 
00006b0c 00 
00006b0d 01            13512 	.byte	1
00006b0e 09            13513 	.byte	9
00006b0f 4d454d4d4150  13514 	.strz	"MEMMAP_AR_RELEASE_MINOR_VERSION (0u)"
00006b15 5f41525f5245 
00006b1b 4c454153455f 
00006b21 4d494e4f525f 
00006b27 56455253494f 
00006b2d 4e2028307529 
00006b33 00 
00006b34 01            13515 	.byte	1
00006b35 0a            13516 	.byte	10
00006b36 4d454d4d4150  13517 	.strz	"MEMMAP_AR_RELEASE_REVISION_VERSION (3u)"
00006b3c 5f41525f5245 
00006b42 4c454153455f 
00006b48 524556495349 
00006b4e 4f4e5f564552 
00006b54 53494f4e2028 
00006b5a 33752900 
00006b5e 01            13518 	.byte	1
00006b5f 10            13519 	.byte	16
00006b60 4d454d5f4152  13520 	.strz	"MEM_AR_RELEASE_MAJOR_VERSION MEMMAP_AR_RELEASE_MAJOR_VERSION"
00006b66 5f52454c4541 
00006b6c 53455f4d414a 
00006b72 4f525f564552 
00006b78 53494f4e204d 
00006b7e 454d4d41505f 
00006b84 41525f52454c 

                                                                      Page 307
                                                              C:\Users\nhuliyap\AppData\Local\Temp\gh_0000d3s1.s
00006b8a 454153455f4d 
00006b90 414a4f525f56 
00006b96 455253494f4e 
00006b9c 00 
00006b9d 01            13521 	.byte	1
00006b9e 11            13522 	.byte	17
00006b9f 4d454d5f4152  13523 	.strz	"MEM_AR_RELEASE_MINOR_VERSION MEMMAP_AR_RELEASE_MINOR_VERSION"
00006ba5 5f52454c4541 
00006bab 53455f4d494e 
00006bb1 4f525f564552 
00006bb7 53494f4e204d 
00006bbd 454d4d41505f 
00006bc3 41525f52454c 
00006bc9 454153455f4d 
00006bcf 494e4f525f56 
00006bd5 455253494f4e 
00006bdb 00 
00006bdc 01            13524 	.byte	1
00006bdd 12            13525 	.byte	18
00006bde 4d454d5f4152  13526 	.strz	"MEM_AR_RELEASE_PATCH_VERSION MEMMAP_AR_RELEASE_REVISION_VERSION"
00006be4 5f52454c4541 
00006bea 53455f504154 
00006bf0 43485f564552 
00006bf6 53494f4e204d 
00006bfc 454d4d41505f 
00006c02 41525f52454c 
00006c08 454153455f52 
00006c0e 45564953494f 
00006c14 4e5f56455253 
00006c1a 494f4e00 
00006c1e 01            13527 	.byte	1
00006c1f 18            13528 	.byte	24
00006c20 4d454d4d4150  13529 	.strz	"MEMMAP_SW_MAJOR_VERSION (1u)"
00006c26 5f53575f4d41 
00006c2c 4a4f525f5645 
00006c32 5253494f4e20 
00006c38 2831752900 
00006c3d 01            13530 	.byte	1
00006c3e 19            13531 	.byte	25
00006c3f 4d454d4d4150  13532 	.strz	"MEMMAP_SW_MINOR_VERSION (11u)"
00006c45 5f53575f4d49 
00006c4b 4e4f525f5645 
00006c51 5253494f4e20 
00006c57 283131752900 
00006c5d 01            13533 	.byte	1
00006c5e 1a            13534 	.byte	26
00006c5f 4d454d4d4150  13535 	.strz	"MEMMAP_SW_PATCH_VERSION (0u)"
00006c65 5f53575f5041 
00006c6b 5443485f5645 
00006c71 5253494f4e20 
00006c77 2830752900 
00006c7c 01            13536 	.byte	1
00006c7d 20            13537 	.byte	32
00006c7e 4d454d5f5357  13538 	.strz	"MEM_SW_MAJOR_VERSION MEMMAP_SW_MAJOR_VERSION"
00006c84 5f4d414a4f52 
00006c8a 5f5645525349 
00006c90 4f4e204d454d 
00006c96 4d41505f5357 
00006c9c 5f4d414a4f52 
00006ca2 5f5645525349 
00006ca8 4f4e00 

                                                                      Page 308
                                                              C:\Users\nhuliyap\AppData\Local\Temp\gh_0000d3s1.s
00006cab 01            13539 	.byte	1
00006cac 21            13540 	.byte	33
00006cad 4d454d5f5357  13541 	.strz	"MEM_SW_MINOR_VERSION MEMMAP_SW_MINOR_VERSION"
00006cb3 5f4d494e4f52 
00006cb9 5f5645525349 
00006cbf 4f4e204d454d 
00006cc5 4d41505f5357 
00006ccb 5f4d494e4f52 
00006cd1 5f5645525349 
00006cd7 4f4e00 
00006cda 01            13542 	.byte	1
00006cdb 22            13543 	.byte	34
00006cdc 4d454d5f5357  13544 	.strz	"MEM_SW_PATCH_VERSION MEMMAP_SW_PATCH_VERSION"
00006ce2 5f5041544348 
00006ce8 5f5645525349 
00006cee 4f4e204d454d 
00006cf4 4d41505f5357 
00006cfa 5f5041544348 
00006d00 5f5645525349 
00006d06 4f4e00 
00006d09 01            13545 	.byte	1
00006d0a 24            13546 	.byte	36
00006d0b 4d454d4d4150  13547 	.strz	"MEMMAP_ERROR "
00006d11 5f4552524f52 
00006d17 2000 
00006d19 01            13548 	.byte	1
00006d1a cd01          13549 	.byte	205,1
00006d1c 53544152545f  13550 	.strz	"START_SEC_VAR_ZERO_INIT_UNSPECIFIED "
00006d22 5345435f5641 
00006d28 525f5a45524f 
00006d2e 5f494e49545f 
00006d34 554e53504543 
00006d3a 494649454420 
00006d40 00 
00006d41 03            13551 	.byte	3
00006d42 f403          13552 	.byte	244,3
00006d44 16            13553 	.byte	22
00006d45 01            13554 	.byte	1
00006d46 850a          13555 	.byte	133,10
00006d48 5641525f5345  13556 	.strz	"VAR_SEC_OPEN "
00006d4e 435f4f50454e 
00006d54 2000 
00006d56 04            13557 	.byte	4
00006d57 04            13558 	.byte	4
00006d58 01            13559 	.byte	1
00006d59 b801          13560 	.byte	184,1
00006d5b 4e564d5f5354  13561 	.strz	"NVM_STOP_SEC_VAR_UNSPECIFIED "
00006d61 4f505f534543 
00006d67 5f5641525f55 
00006d6d 4e5350454349 
00006d73 464945442000 
00006d79 03            13562 	.byte	3
00006d7a b901          13563 	.byte	185,1
00006d7c 1b            13564 	.byte	27
00006d7d 01            13565 	.byte	1
00006d7e 02            13566 	.byte	2
00006d7f 4d454d4d4150  13567 	.strz	"MEMMAP_VENDOR_ID (30u)"
00006d85 5f56454e444f 
00006d8b 525f49442028 
00006d91 3330752900 
00006d96 01            13568 	.byte	1

                                                                      Page 309
                                                              C:\Users\nhuliyap\AppData\Local\Temp\gh_0000d3s1.s
00006d97 08            13569 	.byte	8
00006d98 4d454d4d4150  13570 	.strz	"MEMMAP_AR_RELEASE_MAJOR_VERSION (4u)"
00006d9e 5f41525f5245 
00006da4 4c454153455f 
00006daa 4d414a4f525f 
00006db0 56455253494f 
00006db6 4e2028347529 
00006dbc 00 
00006dbd 01            13571 	.byte	1
00006dbe 09            13572 	.byte	9
00006dbf 4d454d4d4150  13573 	.strz	"MEMMAP_AR_RELEASE_MINOR_VERSION (0u)"
00006dc5 5f41525f5245 
00006dcb 4c454153455f 
00006dd1 4d494e4f525f 
00006dd7 56455253494f 
00006ddd 4e2028307529 
00006de3 00 
00006de4 01            13574 	.byte	1
00006de5 0a            13575 	.byte	10
00006de6 4d454d4d4150  13576 	.strz	"MEMMAP_AR_RELEASE_REVISION_VERSION (3u)"
00006dec 5f41525f5245 
00006df2 4c454153455f 
00006df8 524556495349 
00006dfe 4f4e5f564552 
00006e04 53494f4e2028 
00006e0a 33752900 
00006e0e 01            13577 	.byte	1
00006e0f 10            13578 	.byte	16
00006e10 4d454d5f4152  13579 	.strz	"MEM_AR_RELEASE_MAJOR_VERSION MEMMAP_AR_RELEASE_MAJOR_VERSION"
00006e16 5f52454c4541 
00006e1c 53455f4d414a 
00006e22 4f525f564552 
00006e28 53494f4e204d 
00006e2e 454d4d41505f 
00006e34 41525f52454c 
00006e3a 454153455f4d 
00006e40 414a4f525f56 
00006e46 455253494f4e 
00006e4c 00 
00006e4d 01            13580 	.byte	1
00006e4e 11            13581 	.byte	17
00006e4f 4d454d5f4152  13582 	.strz	"MEM_AR_RELEASE_MINOR_VERSION MEMMAP_AR_RELEASE_MINOR_VERSION"
00006e55 5f52454c4541 
00006e5b 53455f4d494e 
00006e61 4f525f564552 
00006e67 53494f4e204d 
00006e6d 454d4d41505f 
00006e73 41525f52454c 
00006e79 454153455f4d 
00006e7f 494e4f525f56 
00006e85 455253494f4e 
00006e8b 00 
00006e8c 01            13583 	.byte	1
00006e8d 12            13584 	.byte	18
00006e8e 4d454d5f4152  13585 	.strz	"MEM_AR_RELEASE_PATCH_VERSION MEMMAP_AR_RELEASE_REVISION_VERSION"
00006e94 5f52454c4541 
00006e9a 53455f504154 
00006ea0 43485f564552 
00006ea6 53494f4e204d 
00006eac 454d4d41505f 
00006eb2 41525f52454c 

                                                                      Page 310
                                                              C:\Users\nhuliyap\AppData\Local\Temp\gh_0000d3s1.s
00006eb8 454153455f52 
00006ebe 45564953494f 
00006ec4 4e5f56455253 
00006eca 494f4e00 
00006ece 01            13586 	.byte	1
00006ecf 18            13587 	.byte	24
00006ed0 4d454d4d4150  13588 	.strz	"MEMMAP_SW_MAJOR_VERSION (1u)"
00006ed6 5f53575f4d41 
00006edc 4a4f525f5645 
00006ee2 5253494f4e20 
00006ee8 2831752900 
00006eed 01            13589 	.byte	1
00006eee 19            13590 	.byte	25
00006eef 4d454d4d4150  13591 	.strz	"MEMMAP_SW_MINOR_VERSION (11u)"
00006ef5 5f53575f4d49 
00006efb 4e4f525f5645 
00006f01 5253494f4e20 
00006f07 283131752900 
00006f0d 01            13592 	.byte	1
00006f0e 1a            13593 	.byte	26
00006f0f 4d454d4d4150  13594 	.strz	"MEMMAP_SW_PATCH_VERSION (0u)"
00006f15 5f53575f5041 
00006f1b 5443485f5645 
00006f21 5253494f4e20 
00006f27 2830752900 
00006f2c 01            13595 	.byte	1
00006f2d 20            13596 	.byte	32
00006f2e 4d454d5f5357  13597 	.strz	"MEM_SW_MAJOR_VERSION MEMMAP_SW_MAJOR_VERSION"
00006f34 5f4d414a4f52 
00006f3a 5f5645525349 
00006f40 4f4e204d454d 
00006f46 4d41505f5357 
00006f4c 5f4d414a4f52 
00006f52 5f5645525349 
00006f58 4f4e00 
00006f5b 01            13598 	.byte	1
00006f5c 21            13599 	.byte	33
00006f5d 4d454d5f5357  13600 	.strz	"MEM_SW_MINOR_VERSION MEMMAP_SW_MINOR_VERSION"
00006f63 5f4d494e4f52 
00006f69 5f5645525349 
00006f6f 4f4e204d454d 
00006f75 4d41505f5357 
00006f7b 5f4d494e4f52 
00006f81 5f5645525349 
00006f87 4f4e00 
00006f8a 01            13601 	.byte	1
00006f8b 22            13602 	.byte	34
00006f8c 4d454d5f5357  13603 	.strz	"MEM_SW_PATCH_VERSION MEMMAP_SW_PATCH_VERSION"
00006f92 5f5041544348 
00006f98 5f5645525349 
00006f9e 4f4e204d454d 
00006fa4 4d41505f5357 
00006faa 5f5041544348 
00006fb0 5f5645525349 
00006fb6 4f4e00 
00006fb9 01            13604 	.byte	1
00006fba 24            13605 	.byte	36
00006fbb 4d454d4d4150  13606 	.strz	"MEMMAP_ERROR "
00006fc1 5f4552524f52 
00006fc7 2000 
00006fc9 01            13607 	.byte	1

                                                                      Page 311
                                                              C:\Users\nhuliyap\AppData\Local\Temp\gh_0000d3s1.s
00006fca d101          13608 	.byte	209,1
00006fcc 53544f505f53  13609 	.strz	"STOP_SEC_VAR "
00006fd2 45435f564152 
00006fd8 2000 
00006fda 03            13610 	.byte	3
00006fdb f403          13611 	.byte	244,3
00006fdd 16            13612 	.byte	22
00006fde 04            13613 	.byte	4
00006fdf 04            13614 	.byte	4
00006fe0 01            13615 	.byte	1
00006fe1 bb01          13616 	.byte	187,1
00006fe3 4e564d5f5354  13617 	.strz	"NVM_START_SEC_VAR_NOINIT_UNSPECIFIED "
00006fe9 4152545f5345 
00006fef 435f5641525f 
00006ff5 4e4f494e4954 
00006ffb 5f554e535045 
00007001 434946494544 
00007007 2000 
00007009 03            13618 	.byte	3
0000700a bc01          13619 	.byte	188,1
0000700c 1b            13620 	.byte	27
0000700d 01            13621 	.byte	1
0000700e 02            13622 	.byte	2
0000700f 4d454d4d4150  13623 	.strz	"MEMMAP_VENDOR_ID (30u)"
00007015 5f56454e444f 
0000701b 525f49442028 
00007021 3330752900 
00007026 01            13624 	.byte	1
00007027 08            13625 	.byte	8
00007028 4d454d4d4150  13626 	.strz	"MEMMAP_AR_RELEASE_MAJOR_VERSION (4u)"
0000702e 5f41525f5245 
00007034 4c454153455f 
0000703a 4d414a4f525f 
00007040 56455253494f 
00007046 4e2028347529 
0000704c 00 
0000704d 01            13627 	.byte	1
0000704e 09            13628 	.byte	9
0000704f 4d454d4d4150  13629 	.strz	"MEMMAP_AR_RELEASE_MINOR_VERSION (0u)"
00007055 5f41525f5245 
0000705b 4c454153455f 
00007061 4d494e4f525f 
00007067 56455253494f 
0000706d 4e2028307529 
00007073 00 
00007074 01            13630 	.byte	1
00007075 0a            13631 	.byte	10
00007076 4d454d4d4150  13632 	.strz	"MEMMAP_AR_RELEASE_REVISION_VERSION (3u)"
0000707c 5f41525f5245 
00007082 4c454153455f 
00007088 524556495349 
0000708e 4f4e5f564552 
00007094 53494f4e2028 
0000709a 33752900 
0000709e 01            13633 	.byte	1
0000709f 10            13634 	.byte	16
000070a0 4d454d5f4152  13635 	.strz	"MEM_AR_RELEASE_MAJOR_VERSION MEMMAP_AR_RELEASE_MAJOR_VERSION"
000070a6 5f52454c4541 
000070ac 53455f4d414a 
000070b2 4f525f564552 
000070b8 53494f4e204d 

                                                                      Page 312
                                                              C:\Users\nhuliyap\AppData\Local\Temp\gh_0000d3s1.s
000070be 454d4d41505f 
000070c4 41525f52454c 
000070ca 454153455f4d 
000070d0 414a4f525f56 
000070d6 455253494f4e 
000070dc 00 
000070dd 01            13636 	.byte	1
000070de 11            13637 	.byte	17
000070df 4d454d5f4152  13638 	.strz	"MEM_AR_RELEASE_MINOR_VERSION MEMMAP_AR_RELEASE_MINOR_VERSION"
000070e5 5f52454c4541 
000070eb 53455f4d494e 
000070f1 4f525f564552 
000070f7 53494f4e204d 
000070fd 454d4d41505f 
00007103 41525f52454c 
00007109 454153455f4d 
0000710f 494e4f525f56 
00007115 455253494f4e 
0000711b 00 
0000711c 01            13639 	.byte	1
0000711d 12            13640 	.byte	18
0000711e 4d454d5f4152  13641 	.strz	"MEM_AR_RELEASE_PATCH_VERSION MEMMAP_AR_RELEASE_REVISION_VERSION"
00007124 5f52454c4541 
0000712a 53455f504154 
00007130 43485f564552 
00007136 53494f4e204d 
0000713c 454d4d41505f 
00007142 41525f52454c 
00007148 454153455f52 
0000714e 45564953494f 
00007154 4e5f56455253 
0000715a 494f4e00 
0000715e 01            13642 	.byte	1
0000715f 18            13643 	.byte	24
00007160 4d454d4d4150  13644 	.strz	"MEMMAP_SW_MAJOR_VERSION (1u)"
00007166 5f53575f4d41 
0000716c 4a4f525f5645 
00007172 5253494f4e20 
00007178 2831752900 
0000717d 01            13645 	.byte	1
0000717e 19            13646 	.byte	25
0000717f 4d454d4d4150  13647 	.strz	"MEMMAP_SW_MINOR_VERSION (11u)"
00007185 5f53575f4d49 
0000718b 4e4f525f5645 
00007191 5253494f4e20 
00007197 283131752900 
0000719d 01            13648 	.byte	1
0000719e 1a            13649 	.byte	26
0000719f 4d454d4d4150  13650 	.strz	"MEMMAP_SW_PATCH_VERSION (0u)"
000071a5 5f53575f5041 
000071ab 5443485f5645 
000071b1 5253494f4e20 
000071b7 2830752900 
000071bc 01            13651 	.byte	1
000071bd 20            13652 	.byte	32
000071be 4d454d5f5357  13653 	.strz	"MEM_SW_MAJOR_VERSION MEMMAP_SW_MAJOR_VERSION"
000071c4 5f4d414a4f52 
000071ca 5f5645525349 
000071d0 4f4e204d454d 
000071d6 4d41505f5357 
000071dc 5f4d414a4f52 

                                                                      Page 313
                                                              C:\Users\nhuliyap\AppData\Local\Temp\gh_0000d3s1.s
000071e2 5f5645525349 
000071e8 4f4e00 
000071eb 01            13654 	.byte	1
000071ec 21            13655 	.byte	33
000071ed 4d454d5f5357  13656 	.strz	"MEM_SW_MINOR_VERSION MEMMAP_SW_MINOR_VERSION"
000071f3 5f4d494e4f52 
000071f9 5f5645525349 
000071ff 4f4e204d454d 
00007205 4d41505f5357 
0000720b 5f4d494e4f52 
00007211 5f5645525349 
00007217 4f4e00 
0000721a 01            13657 	.byte	1
0000721b 22            13658 	.byte	34
0000721c 4d454d5f5357  13659 	.strz	"MEM_SW_PATCH_VERSION MEMMAP_SW_PATCH_VERSION"
00007222 5f5041544348 
00007228 5f5645525349 
0000722e 4f4e204d454d 
00007234 4d41505f5357 
0000723a 5f5041544348 
00007240 5f5645525349 
00007246 4f4e00 
00007249 01            13660 	.byte	1
0000724a 24            13661 	.byte	36
0000724b 4d454d4d4150  13662 	.strz	"MEMMAP_ERROR "
00007251 5f4552524f52 
00007257 2000 
00007259 01            13663 	.byte	1
0000725a c401          13664 	.byte	196,1
0000725c 53544152545f  13665 	.strz	"START_SEC_VAR_NOINIT_UNSPECIFIED "
00007262 5345435f5641 
00007268 525f4e4f494e 
0000726e 49545f554e53 
00007274 504543494649 
0000727a 45442000 
0000727e 03            13666 	.byte	3
0000727f f403          13667 	.byte	244,3
00007281 16            13668 	.byte	22
00007282 01            13669 	.byte	1
00007283 cf09          13670 	.byte	207,9
00007285 5641525f5345  13671 	.strz	"VAR_SEC_OPEN "
0000728b 435f4f50454e 
00007291 2000 
00007293 04            13672 	.byte	4
00007294 04            13673 	.byte	4
00007295 01            13674 	.byte	1
00007296 c101          13675 	.byte	193,1
00007298 4e564d5f5354  13676 	.strz	"NVM_STOP_SEC_VAR_NOINIT_UNSPECIFIED "
0000729e 4f505f534543 
000072a4 5f5641525f4e 
000072aa 4f494e49545f 
000072b0 554e53504543 
000072b6 494649454420 
000072bc 00 
000072bd 03            13677 	.byte	3
000072be c201          13678 	.byte	194,1
000072c0 1b            13679 	.byte	27
000072c1 01            13680 	.byte	1
000072c2 02            13681 	.byte	2
000072c3 4d454d4d4150  13682 	.strz	"MEMMAP_VENDOR_ID (30u)"
000072c9 5f56454e444f 

                                                                      Page 314
                                                              C:\Users\nhuliyap\AppData\Local\Temp\gh_0000d3s1.s
000072cf 525f49442028 
000072d5 3330752900 
000072da 01            13683 	.byte	1
000072db 08            13684 	.byte	8
000072dc 4d454d4d4150  13685 	.strz	"MEMMAP_AR_RELEASE_MAJOR_VERSION (4u)"
000072e2 5f41525f5245 
000072e8 4c454153455f 
000072ee 4d414a4f525f 
000072f4 56455253494f 
000072fa 4e2028347529 
00007300 00 
00007301 01            13686 	.byte	1
00007302 09            13687 	.byte	9
00007303 4d454d4d4150  13688 	.strz	"MEMMAP_AR_RELEASE_MINOR_VERSION (0u)"
00007309 5f41525f5245 
0000730f 4c454153455f 
00007315 4d494e4f525f 
0000731b 56455253494f 
00007321 4e2028307529 
00007327 00 
00007328 01            13689 	.byte	1
00007329 0a            13690 	.byte	10
0000732a 4d454d4d4150  13691 	.strz	"MEMMAP_AR_RELEASE_REVISION_VERSION (3u)"
00007330 5f41525f5245 
00007336 4c454153455f 
0000733c 524556495349 
00007342 4f4e5f564552 
00007348 53494f4e2028 
0000734e 33752900 
00007352 01            13692 	.byte	1
00007353 10            13693 	.byte	16
00007354 4d454d5f4152  13694 	.strz	"MEM_AR_RELEASE_MAJOR_VERSION MEMMAP_AR_RELEASE_MAJOR_VERSION"
0000735a 5f52454c4541 
00007360 53455f4d414a 
00007366 4f525f564552 
0000736c 53494f4e204d 
00007372 454d4d41505f 
00007378 41525f52454c 
0000737e 454153455f4d 
00007384 414a4f525f56 
0000738a 455253494f4e 
00007390 00 
00007391 01            13695 	.byte	1
00007392 11            13696 	.byte	17
00007393 4d454d5f4152  13697 	.strz	"MEM_AR_RELEASE_MINOR_VERSION MEMMAP_AR_RELEASE_MINOR_VERSION"
00007399 5f52454c4541 
0000739f 53455f4d494e 
000073a5 4f525f564552 
000073ab 53494f4e204d 
000073b1 454d4d41505f 
000073b7 41525f52454c 
000073bd 454153455f4d 
000073c3 494e4f525f56 
000073c9 455253494f4e 
000073cf 00 
000073d0 01            13698 	.byte	1
000073d1 12            13699 	.byte	18
000073d2 4d454d5f4152  13700 	.strz	"MEM_AR_RELEASE_PATCH_VERSION MEMMAP_AR_RELEASE_REVISION_VERSION"
000073d8 5f52454c4541 
000073de 53455f504154 
000073e4 43485f564552 

                                                                      Page 315
                                                              C:\Users\nhuliyap\AppData\Local\Temp\gh_0000d3s1.s
000073ea 53494f4e204d 
000073f0 454d4d41505f 
000073f6 41525f52454c 
000073fc 454153455f52 
00007402 45564953494f 
00007408 4e5f56455253 
0000740e 494f4e00 
00007412 01            13701 	.byte	1
00007413 18            13702 	.byte	24
00007414 4d454d4d4150  13703 	.strz	"MEMMAP_SW_MAJOR_VERSION (1u)"
0000741a 5f53575f4d41 
00007420 4a4f525f5645 
00007426 5253494f4e20 
0000742c 2831752900 
00007431 01            13704 	.byte	1
00007432 19            13705 	.byte	25
00007433 4d454d4d4150  13706 	.strz	"MEMMAP_SW_MINOR_VERSION (11u)"
00007439 5f53575f4d49 
0000743f 4e4f525f5645 
00007445 5253494f4e20 
0000744b 283131752900 
00007451 01            13707 	.byte	1
00007452 1a            13708 	.byte	26
00007453 4d454d4d4150  13709 	.strz	"MEMMAP_SW_PATCH_VERSION (0u)"
00007459 5f53575f5041 
0000745f 5443485f5645 
00007465 5253494f4e20 
0000746b 2830752900 
00007470 01            13710 	.byte	1
00007471 20            13711 	.byte	32
00007472 4d454d5f5357  13712 	.strz	"MEM_SW_MAJOR_VERSION MEMMAP_SW_MAJOR_VERSION"
00007478 5f4d414a4f52 
0000747e 5f5645525349 
00007484 4f4e204d454d 
0000748a 4d41505f5357 
00007490 5f4d414a4f52 
00007496 5f5645525349 
0000749c 4f4e00 
0000749f 01            13713 	.byte	1
000074a0 21            13714 	.byte	33
000074a1 4d454d5f5357  13715 	.strz	"MEM_SW_MINOR_VERSION MEMMAP_SW_MINOR_VERSION"
000074a7 5f4d494e4f52 
000074ad 5f5645525349 
000074b3 4f4e204d454d 
000074b9 4d41505f5357 
000074bf 5f4d494e4f52 
000074c5 5f5645525349 
000074cb 4f4e00 
000074ce 01            13716 	.byte	1
000074cf 22            13717 	.byte	34
000074d0 4d454d5f5357  13718 	.strz	"MEM_SW_PATCH_VERSION MEMMAP_SW_PATCH_VERSION"
000074d6 5f5041544348 
000074dc 5f5645525349 
000074e2 4f4e204d454d 
000074e8 4d41505f5357 
000074ee 5f5041544348 
000074f4 5f5645525349 
000074fa 4f4e00 
000074fd 01            13719 	.byte	1
000074fe 24            13720 	.byte	36
000074ff 4d454d4d4150  13721 	.strz	"MEMMAP_ERROR "

                                                                      Page 316
                                                              C:\Users\nhuliyap\AppData\Local\Temp\gh_0000d3s1.s
00007505 5f4552524f52 
0000750b 2000 
0000750d 01            13722 	.byte	1
0000750e c801          13723 	.byte	200,1
00007510 53544f505f53  13724 	.strz	"STOP_SEC_VAR "
00007516 45435f564152 
0000751c 2000 
0000751e 03            13725 	.byte	3
0000751f f403          13726 	.byte	244,3
00007521 16            13727 	.byte	22
00007522 04            13728 	.byte	4
00007523 04            13729 	.byte	4
00007524 01            13730 	.byte	1
00007525 c401          13731 	.byte	196,1
00007527 4e564d5f5354  13732 	.strz	"NVM_START_SEC_CONST_UNSPECIFIED "
0000752d 4152545f5345 
00007533 435f434f4e53 
00007539 545f554e5350 
0000753f 454349464945 
00007545 442000 
00007548 03            13733 	.byte	3
00007549 c501          13734 	.byte	197,1
0000754b 1b            13735 	.byte	27
0000754c 01            13736 	.byte	1
0000754d 02            13737 	.byte	2
0000754e 4d454d4d4150  13738 	.strz	"MEMMAP_VENDOR_ID (30u)"
00007554 5f56454e444f 
0000755a 525f49442028 
00007560 3330752900 
00007565 01            13739 	.byte	1
00007566 08            13740 	.byte	8
00007567 4d454d4d4150  13741 	.strz	"MEMMAP_AR_RELEASE_MAJOR_VERSION (4u)"
0000756d 5f41525f5245 
00007573 4c454153455f 
00007579 4d414a4f525f 
0000757f 56455253494f 
00007585 4e2028347529 
0000758b 00 
0000758c 01            13742 	.byte	1
0000758d 09            13743 	.byte	9
0000758e 4d454d4d4150  13744 	.strz	"MEMMAP_AR_RELEASE_MINOR_VERSION (0u)"
00007594 5f41525f5245 
0000759a 4c454153455f 
000075a0 4d494e4f525f 
000075a6 56455253494f 
000075ac 4e2028307529 
000075b2 00 
000075b3 01            13745 	.byte	1
000075b4 0a            13746 	.byte	10
000075b5 4d454d4d4150  13747 	.strz	"MEMMAP_AR_RELEASE_REVISION_VERSION (3u)"
000075bb 5f41525f5245 
000075c1 4c454153455f 
000075c7 524556495349 
000075cd 4f4e5f564552 
000075d3 53494f4e2028 
000075d9 33752900 
000075dd 01            13748 	.byte	1
000075de 10            13749 	.byte	16
000075df 4d454d5f4152  13750 	.strz	"MEM_AR_RELEASE_MAJOR_VERSION MEMMAP_AR_RELEASE_MAJOR_VERSION"
000075e5 5f52454c4541 
000075eb 53455f4d414a 

                                                                      Page 317
                                                              C:\Users\nhuliyap\AppData\Local\Temp\gh_0000d3s1.s
000075f1 4f525f564552 
000075f7 53494f4e204d 
000075fd 454d4d41505f 
00007603 41525f52454c 
00007609 454153455f4d 
0000760f 414a4f525f56 
00007615 455253494f4e 
0000761b 00 
0000761c 01            13751 	.byte	1
0000761d 11            13752 	.byte	17
0000761e 4d454d5f4152  13753 	.strz	"MEM_AR_RELEASE_MINOR_VERSION MEMMAP_AR_RELEASE_MINOR_VERSION"
00007624 5f52454c4541 
0000762a 53455f4d494e 
00007630 4f525f564552 
00007636 53494f4e204d 
0000763c 454d4d41505f 
00007642 41525f52454c 
00007648 454153455f4d 
0000764e 494e4f525f56 
00007654 455253494f4e 
0000765a 00 
0000765b 01            13754 	.byte	1
0000765c 12            13755 	.byte	18
0000765d 4d454d5f4152  13756 	.strz	"MEM_AR_RELEASE_PATCH_VERSION MEMMAP_AR_RELEASE_REVISION_VERSION"
00007663 5f52454c4541 
00007669 53455f504154 
0000766f 43485f564552 
00007675 53494f4e204d 
0000767b 454d4d41505f 
00007681 41525f52454c 
00007687 454153455f52 
0000768d 45564953494f 
00007693 4e5f56455253 
00007699 494f4e00 
0000769d 01            13757 	.byte	1
0000769e 18            13758 	.byte	24
0000769f 4d454d4d4150  13759 	.strz	"MEMMAP_SW_MAJOR_VERSION (1u)"
000076a5 5f53575f4d41 
000076ab 4a4f525f5645 
000076b1 5253494f4e20 
000076b7 2831752900 
000076bc 01            13760 	.byte	1
000076bd 19            13761 	.byte	25
000076be 4d454d4d4150  13762 	.strz	"MEMMAP_SW_MINOR_VERSION (11u)"
000076c4 5f53575f4d49 
000076ca 4e4f525f5645 
000076d0 5253494f4e20 
000076d6 283131752900 
000076dc 01            13763 	.byte	1
000076dd 1a            13764 	.byte	26
000076de 4d454d4d4150  13765 	.strz	"MEMMAP_SW_PATCH_VERSION (0u)"
000076e4 5f53575f5041 
000076ea 5443485f5645 
000076f0 5253494f4e20 
000076f6 2830752900 
000076fb 01            13766 	.byte	1
000076fc 20            13767 	.byte	32
000076fd 4d454d5f5357  13768 	.strz	"MEM_SW_MAJOR_VERSION MEMMAP_SW_MAJOR_VERSION"
00007703 5f4d414a4f52 
00007709 5f5645525349 
0000770f 4f4e204d454d 

                                                                      Page 318
                                                              C:\Users\nhuliyap\AppData\Local\Temp\gh_0000d3s1.s
00007715 4d41505f5357 
0000771b 5f4d414a4f52 
00007721 5f5645525349 
00007727 4f4e00 
0000772a 01            13769 	.byte	1
0000772b 21            13770 	.byte	33
0000772c 4d454d5f5357  13771 	.strz	"MEM_SW_MINOR_VERSION MEMMAP_SW_MINOR_VERSION"
00007732 5f4d494e4f52 
00007738 5f5645525349 
0000773e 4f4e204d454d 
00007744 4d41505f5357 
0000774a 5f4d494e4f52 
00007750 5f5645525349 
00007756 4f4e00 
00007759 01            13772 	.byte	1
0000775a 22            13773 	.byte	34
0000775b 4d454d5f5357  13774 	.strz	"MEM_SW_PATCH_VERSION MEMMAP_SW_PATCH_VERSION"
00007761 5f5041544348 
00007767 5f5645525349 
0000776d 4f4e204d454d 
00007773 4d41505f5357 
00007779 5f5041544348 
0000777f 5f5645525349 
00007785 4f4e00 
00007788 01            13775 	.byte	1
00007789 24            13776 	.byte	36
0000778a 4d454d4d4150  13777 	.strz	"MEMMAP_ERROR "
00007790 5f4552524f52 
00007796 2000 
00007798 01            13778 	.byte	1
00007799 a901          13779 	.byte	169,1
0000779b 53544152545f  13780 	.strz	"START_SEC_CONST_UNSPECIFIED "
000077a1 5345435f434f 
000077a7 4e53545f554e 
000077ad 535045434946 
000077b3 4945442000 
000077b8 03            13781 	.byte	3
000077b9 f403          13782 	.byte	244,3
000077bb 16            13783 	.byte	22
000077bc 01            13784 	.byte	1
000077bd b508          13785 	.byte	181,8
000077bf 434f4e53545f  13786 	.strz	"CONST_SEC_OPEN "
000077c5 5345435f4f50 
000077cb 454e2000 
000077cf 04            13787 	.byte	4
000077d0 04            13788 	.byte	4
000077d1 01            13789 	.byte	1
000077d2 c901          13790 	.byte	201,1
000077d4 4e564d5f5354  13791 	.strz	"NVM_STOP_SEC_CONST_UNSPECIFIED "
000077da 4f505f534543 
000077e0 5f434f4e5354 
000077e6 5f554e535045 
000077ec 434946494544 
000077f2 2000 
000077f4 03            13792 	.byte	3
000077f5 ca01          13793 	.byte	202,1
000077f7 1b            13794 	.byte	27
000077f8 01            13795 	.byte	1
000077f9 02            13796 	.byte	2
000077fa 4d454d4d4150  13797 	.strz	"MEMMAP_VENDOR_ID (30u)"
00007800 5f56454e444f 

                                                                      Page 319
                                                              C:\Users\nhuliyap\AppData\Local\Temp\gh_0000d3s1.s
00007806 525f49442028 
0000780c 3330752900 
00007811 01            13798 	.byte	1
00007812 08            13799 	.byte	8
00007813 4d454d4d4150  13800 	.strz	"MEMMAP_AR_RELEASE_MAJOR_VERSION (4u)"
00007819 5f41525f5245 
0000781f 4c454153455f 
00007825 4d414a4f525f 
0000782b 56455253494f 
00007831 4e2028347529 
00007837 00 
00007838 01            13801 	.byte	1
00007839 09            13802 	.byte	9
0000783a 4d454d4d4150  13803 	.strz	"MEMMAP_AR_RELEASE_MINOR_VERSION (0u)"
00007840 5f41525f5245 
00007846 4c454153455f 
0000784c 4d494e4f525f 
00007852 56455253494f 
00007858 4e2028307529 
0000785e 00 
0000785f 01            13804 	.byte	1
00007860 0a            13805 	.byte	10
00007861 4d454d4d4150  13806 	.strz	"MEMMAP_AR_RELEASE_REVISION_VERSION (3u)"
00007867 5f41525f5245 
0000786d 4c454153455f 
00007873 524556495349 
00007879 4f4e5f564552 
0000787f 53494f4e2028 
00007885 33752900 
00007889 01            13807 	.byte	1
0000788a 10            13808 	.byte	16
0000788b 4d454d5f4152  13809 	.strz	"MEM_AR_RELEASE_MAJOR_VERSION MEMMAP_AR_RELEASE_MAJOR_VERSION"
00007891 5f52454c4541 
00007897 53455f4d414a 
0000789d 4f525f564552 
000078a3 53494f4e204d 
000078a9 454d4d41505f 
000078af 41525f52454c 
000078b5 454153455f4d 
000078bb 414a4f525f56 
000078c1 455253494f4e 
000078c7 00 
000078c8 01            13810 	.byte	1
000078c9 11            13811 	.byte	17
000078ca 4d454d5f4152  13812 	.strz	"MEM_AR_RELEASE_MINOR_VERSION MEMMAP_AR_RELEASE_MINOR_VERSION"
000078d0 5f52454c4541 
000078d6 53455f4d494e 
000078dc 4f525f564552 
000078e2 53494f4e204d 
000078e8 454d4d41505f 
000078ee 41525f52454c 
000078f4 454153455f4d 
000078fa 494e4f525f56 
00007900 455253494f4e 
00007906 00 
00007907 01            13813 	.byte	1
00007908 12            13814 	.byte	18
00007909 4d454d5f4152  13815 	.strz	"MEM_AR_RELEASE_PATCH_VERSION MEMMAP_AR_RELEASE_REVISION_VERSION"
0000790f 5f52454c4541 
00007915 53455f504154 
0000791b 43485f564552 

                                                                      Page 320
                                                              C:\Users\nhuliyap\AppData\Local\Temp\gh_0000d3s1.s
00007921 53494f4e204d 
00007927 454d4d41505f 
0000792d 41525f52454c 
00007933 454153455f52 
00007939 45564953494f 
0000793f 4e5f56455253 
00007945 494f4e00 
00007949 01            13816 	.byte	1
0000794a 18            13817 	.byte	24
0000794b 4d454d4d4150  13818 	.strz	"MEMMAP_SW_MAJOR_VERSION (1u)"
00007951 5f53575f4d41 
00007957 4a4f525f5645 
0000795d 5253494f4e20 
00007963 2831752900 
00007968 01            13819 	.byte	1
00007969 19            13820 	.byte	25
0000796a 4d454d4d4150  13821 	.strz	"MEMMAP_SW_MINOR_VERSION (11u)"
00007970 5f53575f4d49 
00007976 4e4f525f5645 
0000797c 5253494f4e20 
00007982 283131752900 
00007988 01            13822 	.byte	1
00007989 1a            13823 	.byte	26
0000798a 4d454d4d4150  13824 	.strz	"MEMMAP_SW_PATCH_VERSION (0u)"
00007990 5f53575f5041 
00007996 5443485f5645 
0000799c 5253494f4e20 
000079a2 2830752900 
000079a7 01            13825 	.byte	1
000079a8 20            13826 	.byte	32
000079a9 4d454d5f5357  13827 	.strz	"MEM_SW_MAJOR_VERSION MEMMAP_SW_MAJOR_VERSION"
000079af 5f4d414a4f52 
000079b5 5f5645525349 
000079bb 4f4e204d454d 
000079c1 4d41505f5357 
000079c7 5f4d414a4f52 
000079cd 5f5645525349 
000079d3 4f4e00 
000079d6 01            13828 	.byte	1
000079d7 21            13829 	.byte	33
000079d8 4d454d5f5357  13830 	.strz	"MEM_SW_MINOR_VERSION MEMMAP_SW_MINOR_VERSION"
000079de 5f4d494e4f52 
000079e4 5f5645525349 
000079ea 4f4e204d454d 
000079f0 4d41505f5357 
000079f6 5f4d494e4f52 
000079fc 5f5645525349 
00007a02 4f4e00 
00007a05 01            13831 	.byte	1
00007a06 22            13832 	.byte	34
00007a07 4d454d5f5357  13833 	.strz	"MEM_SW_PATCH_VERSION MEMMAP_SW_PATCH_VERSION"
00007a0d 5f5041544348 
00007a13 5f5645525349 
00007a19 4f4e204d454d 
00007a1f 4d41505f5357 
00007a25 5f5041544348 
00007a2b 5f5645525349 
00007a31 4f4e00 
00007a34 01            13834 	.byte	1
00007a35 24            13835 	.byte	36
00007a36 4d454d4d4150  13836 	.strz	"MEMMAP_ERROR "

                                                                      Page 321
                                                              C:\Users\nhuliyap\AppData\Local\Temp\gh_0000d3s1.s
00007a3c 5f4552524f52 
00007a42 2000 
00007a44 01            13837 	.byte	1
00007a45 ad01          13838 	.byte	173,1
00007a47 53544f505f53  13839 	.strz	"STOP_SEC_CONST "
00007a4d 45435f434f4e 
00007a53 53542000 
00007a57 03            13840 	.byte	3
00007a58 f403          13841 	.byte	244,3
00007a5a 16            13842 	.byte	22
00007a5b 04            13843 	.byte	4
00007a5c 04            13844 	.byte	4
00007a5d 01            13845 	.byte	1
00007a5e cc01          13846 	.byte	204,1
00007a60 4e564d5f5354  13847 	.strz	"NVM_START_SEC_CODE "
00007a66 4152545f5345 
00007a6c 435f434f4445 
00007a72 2000 
00007a74 03            13848 	.byte	3
00007a75 cd01          13849 	.byte	205,1
00007a77 1b            13850 	.byte	27
00007a78 01            13851 	.byte	1
00007a79 02            13852 	.byte	2
00007a7a 4d454d4d4150  13853 	.strz	"MEMMAP_VENDOR_ID (30u)"
00007a80 5f56454e444f 
00007a86 525f49442028 
00007a8c 3330752900 
00007a91 01            13854 	.byte	1
00007a92 08            13855 	.byte	8
00007a93 4d454d4d4150  13856 	.strz	"MEMMAP_AR_RELEASE_MAJOR_VERSION (4u)"
00007a99 5f41525f5245 
00007a9f 4c454153455f 
00007aa5 4d414a4f525f 
00007aab 56455253494f 
00007ab1 4e2028347529 
00007ab7 00 
00007ab8 01            13857 	.byte	1
00007ab9 09            13858 	.byte	9
00007aba 4d454d4d4150  13859 	.strz	"MEMMAP_AR_RELEASE_MINOR_VERSION (0u)"
00007ac0 5f41525f5245 
00007ac6 4c454153455f 
00007acc 4d494e4f525f 
00007ad2 56455253494f 
00007ad8 4e2028307529 
00007ade 00 
00007adf 01            13860 	.byte	1
00007ae0 0a            13861 	.byte	10
00007ae1 4d454d4d4150  13862 	.strz	"MEMMAP_AR_RELEASE_REVISION_VERSION (3u)"
00007ae7 5f41525f5245 
00007aed 4c454153455f 
00007af3 524556495349 
00007af9 4f4e5f564552 
00007aff 53494f4e2028 
00007b05 33752900 
00007b09 01            13863 	.byte	1
00007b0a 10            13864 	.byte	16
00007b0b 4d454d5f4152  13865 	.strz	"MEM_AR_RELEASE_MAJOR_VERSION MEMMAP_AR_RELEASE_MAJOR_VERSION"
00007b11 5f52454c4541 
00007b17 53455f4d414a 
00007b1d 4f525f564552 
00007b23 53494f4e204d 

                                                                      Page 322
                                                              C:\Users\nhuliyap\AppData\Local\Temp\gh_0000d3s1.s
00007b29 454d4d41505f 
00007b2f 41525f52454c 
00007b35 454153455f4d 
00007b3b 414a4f525f56 
00007b41 455253494f4e 
00007b47 00 
00007b48 01            13866 	.byte	1
00007b49 11            13867 	.byte	17
00007b4a 4d454d5f4152  13868 	.strz	"MEM_AR_RELEASE_MINOR_VERSION MEMMAP_AR_RELEASE_MINOR_VERSION"
00007b50 5f52454c4541 
00007b56 53455f4d494e 
00007b5c 4f525f564552 
00007b62 53494f4e204d 
00007b68 454d4d41505f 
00007b6e 41525f52454c 
00007b74 454153455f4d 
00007b7a 494e4f525f56 
00007b80 455253494f4e 
00007b86 00 
00007b87 01            13869 	.byte	1
00007b88 12            13870 	.byte	18
00007b89 4d454d5f4152  13871 	.strz	"MEM_AR_RELEASE_PATCH_VERSION MEMMAP_AR_RELEASE_REVISION_VERSION"
00007b8f 5f52454c4541 
00007b95 53455f504154 
00007b9b 43485f564552 
00007ba1 53494f4e204d 
00007ba7 454d4d41505f 
00007bad 41525f52454c 
00007bb3 454153455f52 
00007bb9 45564953494f 
00007bbf 4e5f56455253 
00007bc5 494f4e00 
00007bc9 01            13872 	.byte	1
00007bca 18            13873 	.byte	24
00007bcb 4d454d4d4150  13874 	.strz	"MEMMAP_SW_MAJOR_VERSION (1u)"
00007bd1 5f53575f4d41 
00007bd7 4a4f525f5645 
00007bdd 5253494f4e20 
00007be3 2831752900 
00007be8 01            13875 	.byte	1
00007be9 19            13876 	.byte	25
00007bea 4d454d4d4150  13877 	.strz	"MEMMAP_SW_MINOR_VERSION (11u)"
00007bf0 5f53575f4d49 
00007bf6 4e4f525f5645 
00007bfc 5253494f4e20 
00007c02 283131752900 
00007c08 01            13878 	.byte	1
00007c09 1a            13879 	.byte	26
00007c0a 4d454d4d4150  13880 	.strz	"MEMMAP_SW_PATCH_VERSION (0u)"
00007c10 5f53575f5041 
00007c16 5443485f5645 
00007c1c 5253494f4e20 
00007c22 2830752900 
00007c27 01            13881 	.byte	1
00007c28 20            13882 	.byte	32
00007c29 4d454d5f5357  13883 	.strz	"MEM_SW_MAJOR_VERSION MEMMAP_SW_MAJOR_VERSION"
00007c2f 5f4d414a4f52 
00007c35 5f5645525349 
00007c3b 4f4e204d454d 
00007c41 4d41505f5357 
00007c47 5f4d414a4f52 

                                                                      Page 323
                                                              C:\Users\nhuliyap\AppData\Local\Temp\gh_0000d3s1.s
00007c4d 5f5645525349 
00007c53 4f4e00 
00007c56 01            13884 	.byte	1
00007c57 21            13885 	.byte	33
00007c58 4d454d5f5357  13886 	.strz	"MEM_SW_MINOR_VERSION MEMMAP_SW_MINOR_VERSION"
00007c5e 5f4d494e4f52 
00007c64 5f5645525349 
00007c6a 4f4e204d454d 
00007c70 4d41505f5357 
00007c76 5f4d494e4f52 
00007c7c 5f5645525349 
00007c82 4f4e00 
00007c85 01            13887 	.byte	1
00007c86 22            13888 	.byte	34
00007c87 4d454d5f5357  13889 	.strz	"MEM_SW_PATCH_VERSION MEMMAP_SW_PATCH_VERSION"
00007c8d 5f5041544348 
00007c93 5f5645525349 
00007c99 4f4e204d454d 
00007c9f 4d41505f5357 
00007ca5 5f5041544348 
00007cab 5f5645525349 
00007cb1 4f4e00 
00007cb4 01            13890 	.byte	1
00007cb5 24            13891 	.byte	36
00007cb6 4d454d4d4150  13892 	.strz	"MEMMAP_ERROR "
00007cbc 5f4552524f52 
00007cc2 2000 
00007cc4 01            13893 	.byte	1
00007cc5 8e01          13894 	.byte	142,1
00007cc7 53544152545f  13895 	.strz	"START_SEC_CODE "
00007ccd 5345435f434f 
00007cd3 44452000 
00007cd7 03            13896 	.byte	3
00007cd8 f403          13897 	.byte	244,3
00007cda 16            13898 	.byte	22
00007cdb 01            13899 	.byte	1
00007cdc f407          13900 	.byte	244,7
00007cde 434f44455f53  13901 	.strz	"CODE_SEC_OPEN "
00007ce4 45435f4f5045 
00007cea 4e2000 
00007ced 04            13902 	.byte	4
00007cee 04            13903 	.byte	4
00007cef 01            13904 	.byte	1
00007cf0 d301          13905 	.byte	211,1
00007cf2 4e564d5f5354  13906 	.strz	"NVM_STOP_SEC_CODE "
00007cf8 4f505f534543 
00007cfe 5f434f444520 
00007d04 00 
00007d05 03            13907 	.byte	3
00007d06 d401          13908 	.byte	212,1
00007d08 1b            13909 	.byte	27
00007d09 01            13910 	.byte	1
00007d0a 02            13911 	.byte	2
00007d0b 4d454d4d4150  13912 	.strz	"MEMMAP_VENDOR_ID (30u)"
00007d11 5f56454e444f 
00007d17 525f49442028 
00007d1d 3330752900 
00007d22 01            13913 	.byte	1
00007d23 08            13914 	.byte	8
00007d24 4d454d4d4150  13915 	.strz	"MEMMAP_AR_RELEASE_MAJOR_VERSION (4u)"
00007d2a 5f41525f5245 

                                                                      Page 324
                                                              C:\Users\nhuliyap\AppData\Local\Temp\gh_0000d3s1.s
00007d30 4c454153455f 
00007d36 4d414a4f525f 
00007d3c 56455253494f 
00007d42 4e2028347529 
00007d48 00 
00007d49 01            13916 	.byte	1
00007d4a 09            13917 	.byte	9
00007d4b 4d454d4d4150  13918 	.strz	"MEMMAP_AR_RELEASE_MINOR_VERSION (0u)"
00007d51 5f41525f5245 
00007d57 4c454153455f 
00007d5d 4d494e4f525f 
00007d63 56455253494f 
00007d69 4e2028307529 
00007d6f 00 
00007d70 01            13919 	.byte	1
00007d71 0a            13920 	.byte	10
00007d72 4d454d4d4150  13921 	.strz	"MEMMAP_AR_RELEASE_REVISION_VERSION (3u)"
00007d78 5f41525f5245 
00007d7e 4c454153455f 
00007d84 524556495349 
00007d8a 4f4e5f564552 
00007d90 53494f4e2028 
00007d96 33752900 
00007d9a 01            13922 	.byte	1
00007d9b 10            13923 	.byte	16
00007d9c 4d454d5f4152  13924 	.strz	"MEM_AR_RELEASE_MAJOR_VERSION MEMMAP_AR_RELEASE_MAJOR_VERSION"
00007da2 5f52454c4541 
00007da8 53455f4d414a 
00007dae 4f525f564552 
00007db4 53494f4e204d 
00007dba 454d4d41505f 
00007dc0 41525f52454c 
00007dc6 454153455f4d 
00007dcc 414a4f525f56 
00007dd2 455253494f4e 
00007dd8 00 
00007dd9 01            13925 	.byte	1
00007dda 11            13926 	.byte	17
00007ddb 4d454d5f4152  13927 	.strz	"MEM_AR_RELEASE_MINOR_VERSION MEMMAP_AR_RELEASE_MINOR_VERSION"
00007de1 5f52454c4541 
00007de7 53455f4d494e 
00007ded 4f525f564552 
00007df3 53494f4e204d 
00007df9 454d4d41505f 
00007dff 41525f52454c 
00007e05 454153455f4d 
00007e0b 494e4f525f56 
00007e11 455253494f4e 
00007e17 00 
00007e18 01            13928 	.byte	1
00007e19 12            13929 	.byte	18
00007e1a 4d454d5f4152  13930 	.strz	"MEM_AR_RELEASE_PATCH_VERSION MEMMAP_AR_RELEASE_REVISION_VERSION"
00007e20 5f52454c4541 
00007e26 53455f504154 
00007e2c 43485f564552 
00007e32 53494f4e204d 
00007e38 454d4d41505f 
00007e3e 41525f52454c 
00007e44 454153455f52 
00007e4a 45564953494f 
00007e50 4e5f56455253 

                                                                      Page 325
                                                              C:\Users\nhuliyap\AppData\Local\Temp\gh_0000d3s1.s
00007e56 494f4e00 
00007e5a 01            13931 	.byte	1
00007e5b 18            13932 	.byte	24
00007e5c 4d454d4d4150  13933 	.strz	"MEMMAP_SW_MAJOR_VERSION (1u)"
00007e62 5f53575f4d41 
00007e68 4a4f525f5645 
00007e6e 5253494f4e20 
00007e74 2831752900 
00007e79 01            13934 	.byte	1
00007e7a 19            13935 	.byte	25
00007e7b 4d454d4d4150  13936 	.strz	"MEMMAP_SW_MINOR_VERSION (11u)"
00007e81 5f53575f4d49 
00007e87 4e4f525f5645 
00007e8d 5253494f4e20 
00007e93 283131752900 
00007e99 01            13937 	.byte	1
00007e9a 1a            13938 	.byte	26
00007e9b 4d454d4d4150  13939 	.strz	"MEMMAP_SW_PATCH_VERSION (0u)"
00007ea1 5f53575f5041 
00007ea7 5443485f5645 
00007ead 5253494f4e20 
00007eb3 2830752900 
00007eb8 01            13940 	.byte	1
00007eb9 20            13941 	.byte	32
00007eba 4d454d5f5357  13942 	.strz	"MEM_SW_MAJOR_VERSION MEMMAP_SW_MAJOR_VERSION"
00007ec0 5f4d414a4f52 
00007ec6 5f5645525349 
00007ecc 4f4e204d454d 
00007ed2 4d41505f5357 
00007ed8 5f4d414a4f52 
00007ede 5f5645525349 
00007ee4 4f4e00 
00007ee7 01            13943 	.byte	1
00007ee8 21            13944 	.byte	33
00007ee9 4d454d5f5357  13945 	.strz	"MEM_SW_MINOR_VERSION MEMMAP_SW_MINOR_VERSION"
00007eef 5f4d494e4f52 
00007ef5 5f5645525349 
00007efb 4f4e204d454d 
00007f01 4d41505f5357 
00007f07 5f4d494e4f52 
00007f0d 5f5645525349 
00007f13 4f4e00 
00007f16 01            13946 	.byte	1
00007f17 22            13947 	.byte	34
00007f18 4d454d5f5357  13948 	.strz	"MEM_SW_PATCH_VERSION MEMMAP_SW_PATCH_VERSION"
00007f1e 5f5041544348 
00007f24 5f5645525349 
00007f2a 4f4e204d454d 
00007f30 4d41505f5357 
00007f36 5f5041544348 
00007f3c 5f5645525349 
00007f42 4f4e00 
00007f45 01            13949 	.byte	1
00007f46 24            13950 	.byte	36
00007f47 4d454d4d4150  13951 	.strz	"MEMMAP_ERROR "
00007f4d 5f4552524f52 
00007f53 2000 
00007f55 01            13952 	.byte	1
00007f56 9201          13953 	.byte	146,1
00007f58 53544f505f53  13954 	.strz	"STOP_SEC_CODE "
00007f5e 45435f434f44 

                                                                      Page 326
                                                              C:\Users\nhuliyap\AppData\Local\Temp\gh_0000d3s1.s
00007f64 452000 
00007f67 03            13955 	.byte	3
00007f68 f403          13956 	.byte	244,3
00007f6a 16            13957 	.byte	22
00007f6b 04            13958 	.byte	4
00007f6c 04            13959 	.byte	4
00007f6d 04            13960 	.byte	4
00007f6e 03            13961 	.byte	3
00007f6f 0c            13962 	.byte	12
00007f70 24            13963 	.byte	36
00007f71 04            13964 	.byte	4
00007f72 03            13965 	.byte	3
00007f73 0e            13966 	.byte	14
00007f74 27            13967 	.byte	39
00007f75 01            13968 	.byte	1
00007f76 11            13969 	.byte	17
00007f77 4e564d5f5354  13970 	.strz	"NVM_START_SEC_CODE "
00007f7d 4152545f5345 
00007f83 435f434f4445 
00007f89 2000 
00007f8b 03            13971 	.byte	3
00007f8c 12            13972 	.byte	18
00007f8d 1b            13973 	.byte	27
00007f8e 01            13974 	.byte	1
00007f8f 02            13975 	.byte	2
00007f90 4d454d4d4150  13976 	.strz	"MEMMAP_VENDOR_ID (30u)"
00007f96 5f56454e444f 
00007f9c 525f49442028 
00007fa2 3330752900 
00007fa7 01            13977 	.byte	1
00007fa8 08            13978 	.byte	8
00007fa9 4d454d4d4150  13979 	.strz	"MEMMAP_AR_RELEASE_MAJOR_VERSION (4u)"
00007faf 5f41525f5245 
00007fb5 4c454153455f 
00007fbb 4d414a4f525f 
00007fc1 56455253494f 
00007fc7 4e2028347529 
00007fcd 00 
00007fce 01            13980 	.byte	1
00007fcf 09            13981 	.byte	9
00007fd0 4d454d4d4150  13982 	.strz	"MEMMAP_AR_RELEASE_MINOR_VERSION (0u)"
00007fd6 5f41525f5245 
00007fdc 4c454153455f 
00007fe2 4d494e4f525f 
00007fe8 56455253494f 
00007fee 4e2028307529 
00007ff4 00 
00007ff5 01            13983 	.byte	1
00007ff6 0a            13984 	.byte	10
00007ff7 4d454d4d4150  13985 	.strz	"MEMMAP_AR_RELEASE_REVISION_VERSION (3u)"
00007ffd 5f41525f5245 
00008003 4c454153455f 
00008009 524556495349 
0000800f 4f4e5f564552 
00008015 53494f4e2028 
0000801b 33752900 
0000801f 01            13986 	.byte	1
00008020 10            13987 	.byte	16
00008021 4d454d5f4152  13988 	.strz	"MEM_AR_RELEASE_MAJOR_VERSION MEMMAP_AR_RELEASE_MAJOR_VERSION"
00008027 5f52454c4541 
0000802d 53455f4d414a 

                                                                      Page 327
                                                              C:\Users\nhuliyap\AppData\Local\Temp\gh_0000d3s1.s
00008033 4f525f564552 
00008039 53494f4e204d 
0000803f 454d4d41505f 
00008045 41525f52454c 
0000804b 454153455f4d 
00008051 414a4f525f56 
00008057 455253494f4e 
0000805d 00 
0000805e 01            13989 	.byte	1
0000805f 11            13990 	.byte	17
00008060 4d454d5f4152  13991 	.strz	"MEM_AR_RELEASE_MINOR_VERSION MEMMAP_AR_RELEASE_MINOR_VERSION"
00008066 5f52454c4541 
0000806c 53455f4d494e 
00008072 4f525f564552 
00008078 53494f4e204d 
0000807e 454d4d41505f 
00008084 41525f52454c 
0000808a 454153455f4d 
00008090 494e4f525f56 
00008096 455253494f4e 
0000809c 00 
0000809d 01            13992 	.byte	1
0000809e 12            13993 	.byte	18
0000809f 4d454d5f4152  13994 	.strz	"MEM_AR_RELEASE_PATCH_VERSION MEMMAP_AR_RELEASE_REVISION_VERSION"
000080a5 5f52454c4541 
000080ab 53455f504154 
000080b1 43485f564552 
000080b7 53494f4e204d 
000080bd 454d4d41505f 
000080c3 41525f52454c 
000080c9 454153455f52 
000080cf 45564953494f 
000080d5 4e5f56455253 
000080db 494f4e00 
000080df 01            13995 	.byte	1
000080e0 18            13996 	.byte	24
000080e1 4d454d4d4150  13997 	.strz	"MEMMAP_SW_MAJOR_VERSION (1u)"
000080e7 5f53575f4d41 
000080ed 4a4f525f5645 
000080f3 5253494f4e20 
000080f9 2831752900 
000080fe 01            13998 	.byte	1
000080ff 19            13999 	.byte	25
00008100 4d454d4d4150  14000 	.strz	"MEMMAP_SW_MINOR_VERSION (11u)"
00008106 5f53575f4d49 
0000810c 4e4f525f5645 
00008112 5253494f4e20 
00008118 283131752900 
0000811e 01            14001 	.byte	1
0000811f 1a            14002 	.byte	26
00008120 4d454d4d4150  14003 	.strz	"MEMMAP_SW_PATCH_VERSION (0u)"
00008126 5f53575f5041 
0000812c 5443485f5645 
00008132 5253494f4e20 
00008138 2830752900 
0000813d 01            14004 	.byte	1
0000813e 20            14005 	.byte	32
0000813f 4d454d5f5357  14006 	.strz	"MEM_SW_MAJOR_VERSION MEMMAP_SW_MAJOR_VERSION"
00008145 5f4d414a4f52 
0000814b 5f5645525349 
00008151 4f4e204d454d 

                                                                      Page 328
                                                              C:\Users\nhuliyap\AppData\Local\Temp\gh_0000d3s1.s
00008157 4d41505f5357 
0000815d 5f4d414a4f52 
00008163 5f5645525349 
00008169 4f4e00 
0000816c 01            14007 	.byte	1
0000816d 21            14008 	.byte	33
0000816e 4d454d5f5357  14009 	.strz	"MEM_SW_MINOR_VERSION MEMMAP_SW_MINOR_VERSION"
00008174 5f4d494e4f52 
0000817a 5f5645525349 
00008180 4f4e204d454d 
00008186 4d41505f5357 
0000818c 5f4d494e4f52 
00008192 5f5645525349 
00008198 4f4e00 
0000819b 01            14010 	.byte	1
0000819c 22            14011 	.byte	34
0000819d 4d454d5f5357  14012 	.strz	"MEM_SW_PATCH_VERSION MEMMAP_SW_PATCH_VERSION"
000081a3 5f5041544348 
000081a9 5f5645525349 
000081af 4f4e204d454d 
000081b5 4d41505f5357 
000081bb 5f5041544348 
000081c1 5f5645525349 
000081c7 4f4e00 
000081ca 01            14013 	.byte	1
000081cb 24            14014 	.byte	36
000081cc 4d454d4d4150  14015 	.strz	"MEMMAP_ERROR "
000081d2 5f4552524f52 
000081d8 2000 
000081da 01            14016 	.byte	1
000081db 8e01          14017 	.byte	142,1
000081dd 53544152545f  14018 	.strz	"START_SEC_CODE "
000081e3 5345435f434f 
000081e9 44452000 
000081ed 03            14019 	.byte	3
000081ee f403          14020 	.byte	244,3
000081f0 16            14021 	.byte	22
000081f1 01            14022 	.byte	1
000081f2 f407          14023 	.byte	244,7
000081f4 434f44455f53  14024 	.strz	"CODE_SEC_OPEN "
000081fa 45435f4f5045 
00008200 4e2000 
00008203 04            14025 	.byte	4
00008204 04            14026 	.byte	4
00008205 01            14027 	.byte	1
00008206 27            14028 	.byte	39
00008207 4e564d5f5354  14029 	.strz	"NVM_STOP_SEC_CODE "
0000820d 4f505f534543 
00008213 5f434f444520 
00008219 00 
0000821a 03            14030 	.byte	3
0000821b 28            14031 	.byte	40
0000821c 1b            14032 	.byte	27
0000821d 01            14033 	.byte	1
0000821e 02            14034 	.byte	2
0000821f 4d454d4d4150  14035 	.strz	"MEMMAP_VENDOR_ID (30u)"
00008225 5f56454e444f 
0000822b 525f49442028 
00008231 3330752900 
00008236 01            14036 	.byte	1
00008237 08            14037 	.byte	8

                                                                      Page 329
                                                              C:\Users\nhuliyap\AppData\Local\Temp\gh_0000d3s1.s
00008238 4d454d4d4150  14038 	.strz	"MEMMAP_AR_RELEASE_MAJOR_VERSION (4u)"
0000823e 5f41525f5245 
00008244 4c454153455f 
0000824a 4d414a4f525f 
00008250 56455253494f 
00008256 4e2028347529 
0000825c 00 
0000825d 01            14039 	.byte	1
0000825e 09            14040 	.byte	9
0000825f 4d454d4d4150  14041 	.strz	"MEMMAP_AR_RELEASE_MINOR_VERSION (0u)"
00008265 5f41525f5245 
0000826b 4c454153455f 
00008271 4d494e4f525f 
00008277 56455253494f 
0000827d 4e2028307529 
00008283 00 
00008284 01            14042 	.byte	1
00008285 0a            14043 	.byte	10
00008286 4d454d4d4150  14044 	.strz	"MEMMAP_AR_RELEASE_REVISION_VERSION (3u)"
0000828c 5f41525f5245 
00008292 4c454153455f 
00008298 524556495349 
0000829e 4f4e5f564552 
000082a4 53494f4e2028 
000082aa 33752900 
000082ae 01            14045 	.byte	1
000082af 10            14046 	.byte	16
000082b0 4d454d5f4152  14047 	.strz	"MEM_AR_RELEASE_MAJOR_VERSION MEMMAP_AR_RELEASE_MAJOR_VERSION"
000082b6 5f52454c4541 
000082bc 53455f4d414a 
000082c2 4f525f564552 
000082c8 53494f4e204d 
000082ce 454d4d41505f 
000082d4 41525f52454c 
000082da 454153455f4d 
000082e0 414a4f525f56 
000082e6 455253494f4e 
000082ec 00 
000082ed 01            14048 	.byte	1
000082ee 11            14049 	.byte	17
000082ef 4d454d5f4152  14050 	.strz	"MEM_AR_RELEASE_MINOR_VERSION MEMMAP_AR_RELEASE_MINOR_VERSION"
000082f5 5f52454c4541 
000082fb 53455f4d494e 
00008301 4f525f564552 
00008307 53494f4e204d 
0000830d 454d4d41505f 
00008313 41525f52454c 
00008319 454153455f4d 
0000831f 494e4f525f56 
00008325 455253494f4e 
0000832b 00 
0000832c 01            14051 	.byte	1
0000832d 12            14052 	.byte	18
0000832e 4d454d5f4152  14053 	.strz	"MEM_AR_RELEASE_PATCH_VERSION MEMMAP_AR_RELEASE_REVISION_VERSION"
00008334 5f52454c4541 
0000833a 53455f504154 
00008340 43485f564552 
00008346 53494f4e204d 
0000834c 454d4d41505f 
00008352 41525f52454c 
00008358 454153455f52 

                                                                      Page 330
                                                              C:\Users\nhuliyap\AppData\Local\Temp\gh_0000d3s1.s
0000835e 45564953494f 
00008364 4e5f56455253 
0000836a 494f4e00 
0000836e 01            14054 	.byte	1
0000836f 18            14055 	.byte	24
00008370 4d454d4d4150  14056 	.strz	"MEMMAP_SW_MAJOR_VERSION (1u)"
00008376 5f53575f4d41 
0000837c 4a4f525f5645 
00008382 5253494f4e20 
00008388 2831752900 
0000838d 01            14057 	.byte	1
0000838e 19            14058 	.byte	25
0000838f 4d454d4d4150  14059 	.strz	"MEMMAP_SW_MINOR_VERSION (11u)"
00008395 5f53575f4d49 
0000839b 4e4f525f5645 
000083a1 5253494f4e20 
000083a7 283131752900 
000083ad 01            14060 	.byte	1
000083ae 1a            14061 	.byte	26
000083af 4d454d4d4150  14062 	.strz	"MEMMAP_SW_PATCH_VERSION (0u)"
000083b5 5f53575f5041 
000083bb 5443485f5645 
000083c1 5253494f4e20 
000083c7 2830752900 
000083cc 01            14063 	.byte	1
000083cd 20            14064 	.byte	32
000083ce 4d454d5f5357  14065 	.strz	"MEM_SW_MAJOR_VERSION MEMMAP_SW_MAJOR_VERSION"
000083d4 5f4d414a4f52 
000083da 5f5645525349 
000083e0 4f4e204d454d 
000083e6 4d41505f5357 
000083ec 5f4d414a4f52 
000083f2 5f5645525349 
000083f8 4f4e00 
000083fb 01            14066 	.byte	1
000083fc 21            14067 	.byte	33
000083fd 4d454d5f5357  14068 	.strz	"MEM_SW_MINOR_VERSION MEMMAP_SW_MINOR_VERSION"
00008403 5f4d494e4f52 
00008409 5f5645525349 
0000840f 4f4e204d454d 
00008415 4d41505f5357 
0000841b 5f4d494e4f52 
00008421 5f5645525349 
00008427 4f4e00 
0000842a 01            14069 	.byte	1
0000842b 22            14070 	.byte	34
0000842c 4d454d5f5357  14071 	.strz	"MEM_SW_PATCH_VERSION MEMMAP_SW_PATCH_VERSION"
00008432 5f5041544348 
00008438 5f5645525349 
0000843e 4f4e204d454d 
00008444 4d41505f5357 
0000844a 5f5041544348 
00008450 5f5645525349 
00008456 4f4e00 
00008459 01            14072 	.byte	1
0000845a 24            14073 	.byte	36
0000845b 4d454d4d4150  14074 	.strz	"MEMMAP_ERROR "
00008461 5f4552524f52 
00008467 2000 
00008469 01            14075 	.byte	1
0000846a 9201          14076 	.byte	146,1

                                                                      Page 331
                                                              C:\Users\nhuliyap\AppData\Local\Temp\gh_0000d3s1.s
0000846c 53544f505f53  14077 	.strz	"STOP_SEC_CODE "
00008472 45435f434f44 
00008478 452000 
0000847b 03            14078 	.byte	3
0000847c f403          14079 	.byte	244,3
0000847e 16            14080 	.byte	22
0000847f 04            14081 	.byte	4
00008480 04            14082 	.byte	4
00008481 04            14083 	.byte	4
00008482 03            14084 	.byte	3
00008483 10            14085 	.byte	16
00008484 26            14086 	.byte	38
00008485 04            14087 	.byte	4
00008486 01            14088 	.byte	1
00008487 1c            14089 	.byte	28
00008488 4e564d5f4d41  14090 	.strz	"NVM_MAX_DATA_COPY_BYTES (NvM_NoOfCrcBytes_u16 << 2)"
0000848e 585f44415441 
00008494 5f434f50595f 
0000849a 425954455320 
000084a0 284e764d5f4e 
000084a6 6f4f66437263 
000084ac 42797465735f 
000084b2 753136203c3c 
000084b8 20322900 
000084bc 01            14091 	.byte	1
000084bd 1e            14092 	.byte	30
000084be 4e564d5f4558  14093 	.strz	"NVM_EXTRACT_NVSTATE_PRI(NvState) (((NvState) >> NVM_PRI_NVBLOCK_STATE_SHIFT) & NVM_NVBLOCK_STATE_BIT_MASK)"
000084c4 54524143545f 
000084ca 4e5653544154 
000084d0 455f50524928 
000084d6 4e7653746174 
000084dc 652920282828 
000084e2 4e7653746174 
000084e8 6529203e3e20 
000084ee 4e564d5f5052 
000084f4 495f4e56424c 
000084fa 4f434b5f5354 
00008500 4154455f5348 
00008506 494654292026 
0000850c 204e564d5f4e 
00008512 56424c4f434b 
00008518 5f5354415445 
0000851e 5f4249545f4d 
00008524 41534b2900 
00008529 01            14094 	.byte	1
0000852a 20            14095 	.byte	32
0000852b 4e564d5f4558  14096 	.strz	"NVM_EXTRACT_NVSTATE_SEC(NvState) (((NvState) >> NVM_SEC_NVBLOCK_STATE_SHIFT) & NVM_NVBLOCK_STATE_BIT_MASK)"
00008531 54524143545f 
00008537 4e5653544154 
0000853d 455f53454328 
00008543 4e7653746174 
00008549 652920282828 
0000854f 4e7653746174 
00008555 6529203e3e20 
0000855b 4e564d5f5345 
00008561 435f4e56424c 
00008567 4f434b5f5354 
0000856d 4154455f5348 
00008573 494654292026 
00008579 204e564d5f4e 
0000857f 56424c4f434b 

                                                                      Page 332
                                                              C:\Users\nhuliyap\AppData\Local\Temp\gh_0000d3s1.s
00008585 5f5354415445 
0000858b 5f4249545f4d 
00008591 41534b2900 
00008596 01            14097 	.byte	1
00008597 23            14098 	.byte	35
00008598 4e564d5f4c4f  14099 	.strz	"NVM_LOCAL static"
0000859e 43414c207374 
000085a4 6174696300 
000085a9 01            14100 	.byte	1
000085aa 26            14101 	.byte	38
000085ab 4e564d5f5354  14102 	.strz	"NVM_START_SEC_CODE "
000085b1 4152545f5345 
000085b7 435f434f4445 
000085bd 2000 
000085bf 03            14103 	.byte	3
000085c0 27            14104 	.byte	39
000085c1 1b            14105 	.byte	27
000085c2 01            14106 	.byte	1
000085c3 02            14107 	.byte	2
000085c4 4d454d4d4150  14108 	.strz	"MEMMAP_VENDOR_ID (30u)"
000085ca 5f56454e444f 
000085d0 525f49442028 
000085d6 3330752900 
000085db 01            14109 	.byte	1
000085dc 08            14110 	.byte	8
000085dd 4d454d4d4150  14111 	.strz	"MEMMAP_AR_RELEASE_MAJOR_VERSION (4u)"
000085e3 5f41525f5245 
000085e9 4c454153455f 
000085ef 4d414a4f525f 
000085f5 56455253494f 
000085fb 4e2028347529 
00008601 00 
00008602 01            14112 	.byte	1
00008603 09            14113 	.byte	9
00008604 4d454d4d4150  14114 	.strz	"MEMMAP_AR_RELEASE_MINOR_VERSION (0u)"
0000860a 5f41525f5245 
00008610 4c454153455f 
00008616 4d494e4f525f 
0000861c 56455253494f 
00008622 4e2028307529 
00008628 00 
00008629 01            14115 	.byte	1
0000862a 0a            14116 	.byte	10
0000862b 4d454d4d4150  14117 	.strz	"MEMMAP_AR_RELEASE_REVISION_VERSION (3u)"
00008631 5f41525f5245 
00008637 4c454153455f 
0000863d 524556495349 
00008643 4f4e5f564552 
00008649 53494f4e2028 
0000864f 33752900 
00008653 01            14118 	.byte	1
00008654 10            14119 	.byte	16
00008655 4d454d5f4152  14120 	.strz	"MEM_AR_RELEASE_MAJOR_VERSION MEMMAP_AR_RELEASE_MAJOR_VERSION"
0000865b 5f52454c4541 
00008661 53455f4d414a 
00008667 4f525f564552 
0000866d 53494f4e204d 
00008673 454d4d41505f 
00008679 41525f52454c 
0000867f 454153455f4d 
00008685 414a4f525f56 

                                                                      Page 333
                                                              C:\Users\nhuliyap\AppData\Local\Temp\gh_0000d3s1.s
0000868b 455253494f4e 
00008691 00 
00008692 01            14121 	.byte	1
00008693 11            14122 	.byte	17
00008694 4d454d5f4152  14123 	.strz	"MEM_AR_RELEASE_MINOR_VERSION MEMMAP_AR_RELEASE_MINOR_VERSION"
0000869a 5f52454c4541 
000086a0 53455f4d494e 
000086a6 4f525f564552 
000086ac 53494f4e204d 
000086b2 454d4d41505f 
000086b8 41525f52454c 
000086be 454153455f4d 
000086c4 494e4f525f56 
000086ca 455253494f4e 
000086d0 00 
000086d1 01            14124 	.byte	1
000086d2 12            14125 	.byte	18
000086d3 4d454d5f4152  14126 	.strz	"MEM_AR_RELEASE_PATCH_VERSION MEMMAP_AR_RELEASE_REVISION_VERSION"
000086d9 5f52454c4541 
000086df 53455f504154 
000086e5 43485f564552 
000086eb 53494f4e204d 
000086f1 454d4d41505f 
000086f7 41525f52454c 
000086fd 454153455f52 
00008703 45564953494f 
00008709 4e5f56455253 
0000870f 494f4e00 
00008713 01            14127 	.byte	1
00008714 18            14128 	.byte	24
00008715 4d454d4d4150  14129 	.strz	"MEMMAP_SW_MAJOR_VERSION (1u)"
0000871b 5f53575f4d41 
00008721 4a4f525f5645 
00008727 5253494f4e20 
0000872d 2831752900 
00008732 01            14130 	.byte	1
00008733 19            14131 	.byte	25
00008734 4d454d4d4150  14132 	.strz	"MEMMAP_SW_MINOR_VERSION (11u)"
0000873a 5f53575f4d49 
00008740 4e4f525f5645 
00008746 5253494f4e20 
0000874c 283131752900 
00008752 01            14133 	.byte	1
00008753 1a            14134 	.byte	26
00008754 4d454d4d4150  14135 	.strz	"MEMMAP_SW_PATCH_VERSION (0u)"
0000875a 5f53575f5041 
00008760 5443485f5645 
00008766 5253494f4e20 
0000876c 2830752900 
00008771 01            14136 	.byte	1
00008772 20            14137 	.byte	32
00008773 4d454d5f5357  14138 	.strz	"MEM_SW_MAJOR_VERSION MEMMAP_SW_MAJOR_VERSION"
00008779 5f4d414a4f52 
0000877f 5f5645525349 
00008785 4f4e204d454d 
0000878b 4d41505f5357 
00008791 5f4d414a4f52 
00008797 5f5645525349 
0000879d 4f4e00 
000087a0 01            14139 	.byte	1
000087a1 21            14140 	.byte	33

                                                                      Page 334
                                                              C:\Users\nhuliyap\AppData\Local\Temp\gh_0000d3s1.s
000087a2 4d454d5f5357  14141 	.strz	"MEM_SW_MINOR_VERSION MEMMAP_SW_MINOR_VERSION"
000087a8 5f4d494e4f52 
000087ae 5f5645525349 
000087b4 4f4e204d454d 
000087ba 4d41505f5357 
000087c0 5f4d494e4f52 
000087c6 5f5645525349 
000087cc 4f4e00 
000087cf 01            14142 	.byte	1
000087d0 22            14143 	.byte	34
000087d1 4d454d5f5357  14144 	.strz	"MEM_SW_PATCH_VERSION MEMMAP_SW_PATCH_VERSION"
000087d7 5f5041544348 
000087dd 5f5645525349 
000087e3 4f4e204d454d 
000087e9 4d41505f5357 
000087ef 5f5041544348 
000087f5 5f5645525349 
000087fb 4f4e00 
000087fe 01            14145 	.byte	1
000087ff 24            14146 	.byte	36
00008800 4d454d4d4150  14147 	.strz	"MEMMAP_ERROR "
00008806 5f4552524f52 
0000880c 2000 
0000880e 01            14148 	.byte	1
0000880f 8e01          14149 	.byte	142,1
00008811 53544152545f  14150 	.strz	"START_SEC_CODE "
00008817 5345435f434f 
0000881d 44452000 
00008821 03            14151 	.byte	3
00008822 f403          14152 	.byte	244,3
00008824 16            14153 	.byte	22
00008825 01            14154 	.byte	1
00008826 f407          14155 	.byte	244,7
00008828 434f44455f53  14156 	.strz	"CODE_SEC_OPEN "
0000882e 45435f4f5045 
00008834 4e2000 
00008837 04            14157 	.byte	4
00008838 04            14158 	.byte	4
00008839 01            14159 	.byte	1
0000883a a201          14160 	.byte	162,1
0000883c 4e564d5f5354  14161 	.strz	"NVM_STOP_SEC_CODE "
00008842 4f505f534543 
00008848 5f434f444520 
0000884e 00 
0000884f 03            14162 	.byte	3
00008850 a301          14163 	.byte	163,1
00008852 1b            14164 	.byte	27
00008853 01            14165 	.byte	1
00008854 02            14166 	.byte	2
00008855 4d454d4d4150  14167 	.strz	"MEMMAP_VENDOR_ID (30u)"
0000885b 5f56454e444f 
00008861 525f49442028 
00008867 3330752900 
0000886c 01            14168 	.byte	1
0000886d 08            14169 	.byte	8
0000886e 4d454d4d4150  14170 	.strz	"MEMMAP_AR_RELEASE_MAJOR_VERSION (4u)"
00008874 5f41525f5245 
0000887a 4c454153455f 
00008880 4d414a4f525f 
00008886 56455253494f 
0000888c 4e2028347529 

                                                                      Page 335
                                                              C:\Users\nhuliyap\AppData\Local\Temp\gh_0000d3s1.s
00008892 00 
00008893 01            14171 	.byte	1
00008894 09            14172 	.byte	9
00008895 4d454d4d4150  14173 	.strz	"MEMMAP_AR_RELEASE_MINOR_VERSION (0u)"
0000889b 5f41525f5245 
000088a1 4c454153455f 
000088a7 4d494e4f525f 
000088ad 56455253494f 
000088b3 4e2028307529 
000088b9 00 
000088ba 01            14174 	.byte	1
000088bb 0a            14175 	.byte	10
000088bc 4d454d4d4150  14176 	.strz	"MEMMAP_AR_RELEASE_REVISION_VERSION (3u)"
000088c2 5f41525f5245 
000088c8 4c454153455f 
000088ce 524556495349 
000088d4 4f4e5f564552 
000088da 53494f4e2028 
000088e0 33752900 
000088e4 01            14177 	.byte	1
000088e5 10            14178 	.byte	16
000088e6 4d454d5f4152  14179 	.strz	"MEM_AR_RELEASE_MAJOR_VERSION MEMMAP_AR_RELEASE_MAJOR_VERSION"
000088ec 5f52454c4541 
000088f2 53455f4d414a 
000088f8 4f525f564552 
000088fe 53494f4e204d 
00008904 454d4d41505f 
0000890a 41525f52454c 
00008910 454153455f4d 
00008916 414a4f525f56 
0000891c 455253494f4e 
00008922 00 
00008923 01            14180 	.byte	1
00008924 11            14181 	.byte	17
00008925 4d454d5f4152  14182 	.strz	"MEM_AR_RELEASE_MINOR_VERSION MEMMAP_AR_RELEASE_MINOR_VERSION"
0000892b 5f52454c4541 
00008931 53455f4d494e 
00008937 4f525f564552 
0000893d 53494f4e204d 
00008943 454d4d41505f 
00008949 41525f52454c 
0000894f 454153455f4d 
00008955 494e4f525f56 
0000895b 455253494f4e 
00008961 00 
00008962 01            14183 	.byte	1
00008963 12            14184 	.byte	18
00008964 4d454d5f4152  14185 	.strz	"MEM_AR_RELEASE_PATCH_VERSION MEMMAP_AR_RELEASE_REVISION_VERSION"
0000896a 5f52454c4541 
00008970 53455f504154 
00008976 43485f564552 
0000897c 53494f4e204d 
00008982 454d4d41505f 
00008988 41525f52454c 
0000898e 454153455f52 
00008994 45564953494f 
0000899a 4e5f56455253 
000089a0 494f4e00 
000089a4 01            14186 	.byte	1
000089a5 18            14187 	.byte	24
000089a6 4d454d4d4150  14188 	.strz	"MEMMAP_SW_MAJOR_VERSION (1u)"

                                                                      Page 336
                                                              C:\Users\nhuliyap\AppData\Local\Temp\gh_0000d3s1.s
000089ac 5f53575f4d41 
000089b2 4a4f525f5645 
000089b8 5253494f4e20 
000089be 2831752900 
000089c3 01            14189 	.byte	1
000089c4 19            14190 	.byte	25
000089c5 4d454d4d4150  14191 	.strz	"MEMMAP_SW_MINOR_VERSION (11u)"
000089cb 5f53575f4d49 
000089d1 4e4f525f5645 
000089d7 5253494f4e20 
000089dd 283131752900 
000089e3 01            14192 	.byte	1
000089e4 1a            14193 	.byte	26
000089e5 4d454d4d4150  14194 	.strz	"MEMMAP_SW_PATCH_VERSION (0u)"
000089eb 5f53575f5041 
000089f1 5443485f5645 
000089f7 5253494f4e20 
000089fd 2830752900 
00008a02 01            14195 	.byte	1
00008a03 20            14196 	.byte	32
00008a04 4d454d5f5357  14197 	.strz	"MEM_SW_MAJOR_VERSION MEMMAP_SW_MAJOR_VERSION"
00008a0a 5f4d414a4f52 
00008a10 5f5645525349 
00008a16 4f4e204d454d 
00008a1c 4d41505f5357 
00008a22 5f4d414a4f52 
00008a28 5f5645525349 
00008a2e 4f4e00 
00008a31 01            14198 	.byte	1
00008a32 21            14199 	.byte	33
00008a33 4d454d5f5357  14200 	.strz	"MEM_SW_MINOR_VERSION MEMMAP_SW_MINOR_VERSION"
00008a39 5f4d494e4f52 
00008a3f 5f5645525349 
00008a45 4f4e204d454d 
00008a4b 4d41505f5357 
00008a51 5f4d494e4f52 
00008a57 5f5645525349 
00008a5d 4f4e00 
00008a60 01            14201 	.byte	1
00008a61 22            14202 	.byte	34
00008a62 4d454d5f5357  14203 	.strz	"MEM_SW_PATCH_VERSION MEMMAP_SW_PATCH_VERSION"
00008a68 5f5041544348 
00008a6e 5f5645525349 
00008a74 4f4e204d454d 
00008a7a 4d41505f5357 
00008a80 5f5041544348 
00008a86 5f5645525349 
00008a8c 4f4e00 
00008a8f 01            14204 	.byte	1
00008a90 24            14205 	.byte	36
00008a91 4d454d4d4150  14206 	.strz	"MEMMAP_ERROR "
00008a97 5f4552524f52 
00008a9d 2000 
00008a9f 01            14207 	.byte	1
00008aa0 9201          14208 	.byte	146,1
00008aa2 53544f505f53  14209 	.strz	"STOP_SEC_CODE "
00008aa8 45435f434f44 
00008aae 452000 
00008ab1 03            14210 	.byte	3
00008ab2 f403          14211 	.byte	244,3
00008ab4 16            14212 	.byte	22

                                                                      Page 337
                                                              C:\Users\nhuliyap\AppData\Local\Temp\gh_0000d3s1.s
00008ab5 04            14213 	.byte	4
00008ab6 04            14214 	.byte	4
00008ab7 01            14215 	.byte	1
00008ab8 a501          14216 	.byte	165,1
00008aba 4e564d5f5354  14217 	.strz	"NVM_START_SEC_CONST_UNSPECIFIED "
00008ac0 4152545f5345 
00008ac6 435f434f4e53 
00008acc 545f554e5350 
00008ad2 454349464945 
00008ad8 442000 
00008adb 03            14218 	.byte	3
00008adc a601          14219 	.byte	166,1
00008ade 1b            14220 	.byte	27
00008adf 01            14221 	.byte	1
00008ae0 02            14222 	.byte	2
00008ae1 4d454d4d4150  14223 	.strz	"MEMMAP_VENDOR_ID (30u)"
00008ae7 5f56454e444f 
00008aed 525f49442028 
00008af3 3330752900 
00008af8 01            14224 	.byte	1
00008af9 08            14225 	.byte	8
00008afa 4d454d4d4150  14226 	.strz	"MEMMAP_AR_RELEASE_MAJOR_VERSION (4u)"
00008b00 5f41525f5245 
00008b06 4c454153455f 
00008b0c 4d414a4f525f 
00008b12 56455253494f 
00008b18 4e2028347529 
00008b1e 00 
00008b1f 01            14227 	.byte	1
00008b20 09            14228 	.byte	9
00008b21 4d454d4d4150  14229 	.strz	"MEMMAP_AR_RELEASE_MINOR_VERSION (0u)"
00008b27 5f41525f5245 
00008b2d 4c454153455f 
00008b33 4d494e4f525f 
00008b39 56455253494f 
00008b3f 4e2028307529 
00008b45 00 
00008b46 01            14230 	.byte	1
00008b47 0a            14231 	.byte	10
00008b48 4d454d4d4150  14232 	.strz	"MEMMAP_AR_RELEASE_REVISION_VERSION (3u)"
00008b4e 5f41525f5245 
00008b54 4c454153455f 
00008b5a 524556495349 
00008b60 4f4e5f564552 
00008b66 53494f4e2028 
00008b6c 33752900 
00008b70 01            14233 	.byte	1
00008b71 10            14234 	.byte	16
00008b72 4d454d5f4152  14235 	.strz	"MEM_AR_RELEASE_MAJOR_VERSION MEMMAP_AR_RELEASE_MAJOR_VERSION"
00008b78 5f52454c4541 
00008b7e 53455f4d414a 
00008b84 4f525f564552 
00008b8a 53494f4e204d 
00008b90 454d4d41505f 
00008b96 41525f52454c 
00008b9c 454153455f4d 
00008ba2 414a4f525f56 
00008ba8 455253494f4e 
00008bae 00 
00008baf 01            14236 	.byte	1
00008bb0 11            14237 	.byte	17

                                                                      Page 338
                                                              C:\Users\nhuliyap\AppData\Local\Temp\gh_0000d3s1.s
00008bb1 4d454d5f4152  14238 	.strz	"MEM_AR_RELEASE_MINOR_VERSION MEMMAP_AR_RELEASE_MINOR_VERSION"
00008bb7 5f52454c4541 
00008bbd 53455f4d494e 
00008bc3 4f525f564552 
00008bc9 53494f4e204d 
00008bcf 454d4d41505f 
00008bd5 41525f52454c 
00008bdb 454153455f4d 
00008be1 494e4f525f56 
00008be7 455253494f4e 
00008bed 00 
00008bee 01            14239 	.byte	1
00008bef 12            14240 	.byte	18
00008bf0 4d454d5f4152  14241 	.strz	"MEM_AR_RELEASE_PATCH_VERSION MEMMAP_AR_RELEASE_REVISION_VERSION"
00008bf6 5f52454c4541 
00008bfc 53455f504154 
00008c02 43485f564552 
00008c08 53494f4e204d 
00008c0e 454d4d41505f 
00008c14 41525f52454c 
00008c1a 454153455f52 
00008c20 45564953494f 
00008c26 4e5f56455253 
00008c2c 494f4e00 
00008c30 01            14242 	.byte	1
00008c31 18            14243 	.byte	24
00008c32 4d454d4d4150  14244 	.strz	"MEMMAP_SW_MAJOR_VERSION (1u)"
00008c38 5f53575f4d41 
00008c3e 4a4f525f5645 
00008c44 5253494f4e20 
00008c4a 2831752900 
00008c4f 01            14245 	.byte	1
00008c50 19            14246 	.byte	25
00008c51 4d454d4d4150  14247 	.strz	"MEMMAP_SW_MINOR_VERSION (11u)"
00008c57 5f53575f4d49 
00008c5d 4e4f525f5645 
00008c63 5253494f4e20 
00008c69 283131752900 
00008c6f 01            14248 	.byte	1
00008c70 1a            14249 	.byte	26
00008c71 4d454d4d4150  14250 	.strz	"MEMMAP_SW_PATCH_VERSION (0u)"
00008c77 5f53575f5041 
00008c7d 5443485f5645 
00008c83 5253494f4e20 
00008c89 2830752900 
00008c8e 01            14251 	.byte	1
00008c8f 20            14252 	.byte	32
00008c90 4d454d5f5357  14253 	.strz	"MEM_SW_MAJOR_VERSION MEMMAP_SW_MAJOR_VERSION"
00008c96 5f4d414a4f52 
00008c9c 5f5645525349 
00008ca2 4f4e204d454d 
00008ca8 4d41505f5357 
00008cae 5f4d414a4f52 
00008cb4 5f5645525349 
00008cba 4f4e00 
00008cbd 01            14254 	.byte	1
00008cbe 21            14255 	.byte	33
00008cbf 4d454d5f5357  14256 	.strz	"MEM_SW_MINOR_VERSION MEMMAP_SW_MINOR_VERSION"
00008cc5 5f4d494e4f52 
00008ccb 5f5645525349 
00008cd1 4f4e204d454d 

                                                                      Page 339
                                                              C:\Users\nhuliyap\AppData\Local\Temp\gh_0000d3s1.s
00008cd7 4d41505f5357 
00008cdd 5f4d494e4f52 
00008ce3 5f5645525349 
00008ce9 4f4e00 
00008cec 01            14257 	.byte	1
00008ced 22            14258 	.byte	34
00008cee 4d454d5f5357  14259 	.strz	"MEM_SW_PATCH_VERSION MEMMAP_SW_PATCH_VERSION"
00008cf4 5f5041544348 
00008cfa 5f5645525349 
00008d00 4f4e204d454d 
00008d06 4d41505f5357 
00008d0c 5f5041544348 
00008d12 5f5645525349 
00008d18 4f4e00 
00008d1b 01            14260 	.byte	1
00008d1c 24            14261 	.byte	36
00008d1d 4d454d4d4150  14262 	.strz	"MEMMAP_ERROR "
00008d23 5f4552524f52 
00008d29 2000 
00008d2b 01            14263 	.byte	1
00008d2c a901          14264 	.byte	169,1
00008d2e 53544152545f  14265 	.strz	"START_SEC_CONST_UNSPECIFIED "
00008d34 5345435f434f 
00008d3a 4e53545f554e 
00008d40 535045434946 
00008d46 4945442000 
00008d4b 03            14266 	.byte	3
00008d4c f403          14267 	.byte	244,3
00008d4e 16            14268 	.byte	22
00008d4f 01            14269 	.byte	1
00008d50 b508          14270 	.byte	181,8
00008d52 434f4e53545f  14271 	.strz	"CONST_SEC_OPEN "
00008d58 5345435f4f50 
00008d5e 454e2000 
00008d62 04            14272 	.byte	4
00008d63 04            14273 	.byte	4
00008d64 01            14274 	.byte	1
00008d65 ea01          14275 	.byte	234,1
00008d67 4e564d5f5354  14276 	.strz	"NVM_STOP_SEC_CONST_UNSPECIFIED "
00008d6d 4f505f534543 
00008d73 5f434f4e5354 
00008d79 5f554e535045 
00008d7f 434946494544 
00008d85 2000 
00008d87 03            14277 	.byte	3
00008d88 eb01          14278 	.byte	235,1
00008d8a 1b            14279 	.byte	27
00008d8b 01            14280 	.byte	1
00008d8c 02            14281 	.byte	2
00008d8d 4d454d4d4150  14282 	.strz	"MEMMAP_VENDOR_ID (30u)"
00008d93 5f56454e444f 
00008d99 525f49442028 
00008d9f 3330752900 
00008da4 01            14283 	.byte	1
00008da5 08            14284 	.byte	8
00008da6 4d454d4d4150  14285 	.strz	"MEMMAP_AR_RELEASE_MAJOR_VERSION (4u)"
00008dac 5f41525f5245 
00008db2 4c454153455f 
00008db8 4d414a4f525f 
00008dbe 56455253494f 
00008dc4 4e2028347529 

                                                                      Page 340
                                                              C:\Users\nhuliyap\AppData\Local\Temp\gh_0000d3s1.s
00008dca 00 
00008dcb 01            14286 	.byte	1
00008dcc 09            14287 	.byte	9
00008dcd 4d454d4d4150  14288 	.strz	"MEMMAP_AR_RELEASE_MINOR_VERSION (0u)"
00008dd3 5f41525f5245 
00008dd9 4c454153455f 
00008ddf 4d494e4f525f 
00008de5 56455253494f 
00008deb 4e2028307529 
00008df1 00 
00008df2 01            14289 	.byte	1
00008df3 0a            14290 	.byte	10
00008df4 4d454d4d4150  14291 	.strz	"MEMMAP_AR_RELEASE_REVISION_VERSION (3u)"
00008dfa 5f41525f5245 
00008e00 4c454153455f 
00008e06 524556495349 
00008e0c 4f4e5f564552 
00008e12 53494f4e2028 
00008e18 33752900 
00008e1c 01            14292 	.byte	1
00008e1d 10            14293 	.byte	16
00008e1e 4d454d5f4152  14294 	.strz	"MEM_AR_RELEASE_MAJOR_VERSION MEMMAP_AR_RELEASE_MAJOR_VERSION"
00008e24 5f52454c4541 
00008e2a 53455f4d414a 
00008e30 4f525f564552 
00008e36 53494f4e204d 
00008e3c 454d4d41505f 
00008e42 41525f52454c 
00008e48 454153455f4d 
00008e4e 414a4f525f56 
00008e54 455253494f4e 
00008e5a 00 
00008e5b 01            14295 	.byte	1
00008e5c 11            14296 	.byte	17
00008e5d 4d454d5f4152  14297 	.strz	"MEM_AR_RELEASE_MINOR_VERSION MEMMAP_AR_RELEASE_MINOR_VERSION"
00008e63 5f52454c4541 
00008e69 53455f4d494e 
00008e6f 4f525f564552 
00008e75 53494f4e204d 
00008e7b 454d4d41505f 
00008e81 41525f52454c 
00008e87 454153455f4d 
00008e8d 494e4f525f56 
00008e93 455253494f4e 
00008e99 00 
00008e9a 01            14298 	.byte	1
00008e9b 12            14299 	.byte	18
00008e9c 4d454d5f4152  14300 	.strz	"MEM_AR_RELEASE_PATCH_VERSION MEMMAP_AR_RELEASE_REVISION_VERSION"
00008ea2 5f52454c4541 
00008ea8 53455f504154 
00008eae 43485f564552 
00008eb4 53494f4e204d 
00008eba 454d4d41505f 
00008ec0 41525f52454c 
00008ec6 454153455f52 
00008ecc 45564953494f 
00008ed2 4e5f56455253 
00008ed8 494f4e00 
00008edc 01            14301 	.byte	1
00008edd 18            14302 	.byte	24
00008ede 4d454d4d4150  14303 	.strz	"MEMMAP_SW_MAJOR_VERSION (1u)"

                                                                      Page 341
                                                              C:\Users\nhuliyap\AppData\Local\Temp\gh_0000d3s1.s
00008ee4 5f53575f4d41 
00008eea 4a4f525f5645 
00008ef0 5253494f4e20 
00008ef6 2831752900 
00008efb 01            14304 	.byte	1
00008efc 19            14305 	.byte	25
00008efd 4d454d4d4150  14306 	.strz	"MEMMAP_SW_MINOR_VERSION (11u)"
00008f03 5f53575f4d49 
00008f09 4e4f525f5645 
00008f0f 5253494f4e20 
00008f15 283131752900 
00008f1b 01            14307 	.byte	1
00008f1c 1a            14308 	.byte	26
00008f1d 4d454d4d4150  14309 	.strz	"MEMMAP_SW_PATCH_VERSION (0u)"
00008f23 5f53575f5041 
00008f29 5443485f5645 
00008f2f 5253494f4e20 
00008f35 2830752900 
00008f3a 01            14310 	.byte	1
00008f3b 20            14311 	.byte	32
00008f3c 4d454d5f5357  14312 	.strz	"MEM_SW_MAJOR_VERSION MEMMAP_SW_MAJOR_VERSION"
00008f42 5f4d414a4f52 
00008f48 5f5645525349 
00008f4e 4f4e204d454d 
00008f54 4d41505f5357 
00008f5a 5f4d414a4f52 
00008f60 5f5645525349 
00008f66 4f4e00 
00008f69 01            14313 	.byte	1
00008f6a 21            14314 	.byte	33
00008f6b 4d454d5f5357  14315 	.strz	"MEM_SW_MINOR_VERSION MEMMAP_SW_MINOR_VERSION"
00008f71 5f4d494e4f52 
00008f77 5f5645525349 
00008f7d 4f4e204d454d 
00008f83 4d41505f5357 
00008f89 5f4d494e4f52 
00008f8f 5f5645525349 
00008f95 4f4e00 
00008f98 01            14316 	.byte	1
00008f99 22            14317 	.byte	34
00008f9a 4d454d5f5357  14318 	.strz	"MEM_SW_PATCH_VERSION MEMMAP_SW_PATCH_VERSION"
00008fa0 5f5041544348 
00008fa6 5f5645525349 
00008fac 4f4e204d454d 
00008fb2 4d41505f5357 
00008fb8 5f5041544348 
00008fbe 5f5645525349 
00008fc4 4f4e00 
00008fc7 01            14319 	.byte	1
00008fc8 24            14320 	.byte	36
00008fc9 4d454d4d4150  14321 	.strz	"MEMMAP_ERROR "
00008fcf 5f4552524f52 
00008fd5 2000 
00008fd7 01            14322 	.byte	1
00008fd8 ad01          14323 	.byte	173,1
00008fda 53544f505f53  14324 	.strz	"STOP_SEC_CONST "
00008fe0 45435f434f4e 
00008fe6 53542000 
00008fea 03            14325 	.byte	3
00008feb f403          14326 	.byte	244,3
00008fed 16            14327 	.byte	22

                                                                      Page 342
                                                              C:\Users\nhuliyap\AppData\Local\Temp\gh_0000d3s1.s
00008fee 04            14328 	.byte	4
00008fef 04            14329 	.byte	4
00008ff0 01            14330 	.byte	1
00008ff1 ed01          14331 	.byte	237,1
00008ff3 4e564d5f5354  14332 	.strz	"NVM_START_SEC_CODE "
00008ff9 4152545f5345 
00008fff 435f434f4445 
00009005 2000 
00009007 03            14333 	.byte	3
00009008 ee01          14334 	.byte	238,1
0000900a 1b            14335 	.byte	27
0000900b 01            14336 	.byte	1
0000900c 02            14337 	.byte	2
0000900d 4d454d4d4150  14338 	.strz	"MEMMAP_VENDOR_ID (30u)"
00009013 5f56454e444f 
00009019 525f49442028 
0000901f 3330752900 
00009024 01            14339 	.byte	1
00009025 08            14340 	.byte	8
00009026 4d454d4d4150  14341 	.strz	"MEMMAP_AR_RELEASE_MAJOR_VERSION (4u)"
0000902c 5f41525f5245 
00009032 4c454153455f 
00009038 4d414a4f525f 
0000903e 56455253494f 
00009044 4e2028347529 
0000904a 00 
0000904b 01            14342 	.byte	1
0000904c 09            14343 	.byte	9
0000904d 4d454d4d4150  14344 	.strz	"MEMMAP_AR_RELEASE_MINOR_VERSION (0u)"
00009053 5f41525f5245 
00009059 4c454153455f 
0000905f 4d494e4f525f 
00009065 56455253494f 
0000906b 4e2028307529 
00009071 00 
00009072 01            14345 	.byte	1
00009073 0a            14346 	.byte	10
00009074 4d454d4d4150  14347 	.strz	"MEMMAP_AR_RELEASE_REVISION_VERSION (3u)"
0000907a 5f41525f5245 
00009080 4c454153455f 
00009086 524556495349 
0000908c 4f4e5f564552 
00009092 53494f4e2028 
00009098 33752900 
0000909c 01            14348 	.byte	1
0000909d 10            14349 	.byte	16
0000909e 4d454d5f4152  14350 	.strz	"MEM_AR_RELEASE_MAJOR_VERSION MEMMAP_AR_RELEASE_MAJOR_VERSION"
000090a4 5f52454c4541 
000090aa 53455f4d414a 
000090b0 4f525f564552 
000090b6 53494f4e204d 
000090bc 454d4d41505f 
000090c2 41525f52454c 
000090c8 454153455f4d 
000090ce 414a4f525f56 
000090d4 455253494f4e 
000090da 00 
000090db 01            14351 	.byte	1
000090dc 11            14352 	.byte	17
000090dd 4d454d5f4152  14353 	.strz	"MEM_AR_RELEASE_MINOR_VERSION MEMMAP_AR_RELEASE_MINOR_VERSION"
000090e3 5f52454c4541 

                                                                      Page 343
                                                              C:\Users\nhuliyap\AppData\Local\Temp\gh_0000d3s1.s
000090e9 53455f4d494e 
000090ef 4f525f564552 
000090f5 53494f4e204d 
000090fb 454d4d41505f 
00009101 41525f52454c 
00009107 454153455f4d 
0000910d 494e4f525f56 
00009113 455253494f4e 
00009119 00 
0000911a 01            14354 	.byte	1
0000911b 12            14355 	.byte	18
0000911c 4d454d5f4152  14356 	.strz	"MEM_AR_RELEASE_PATCH_VERSION MEMMAP_AR_RELEASE_REVISION_VERSION"
00009122 5f52454c4541 
00009128 53455f504154 
0000912e 43485f564552 
00009134 53494f4e204d 
0000913a 454d4d41505f 
00009140 41525f52454c 
00009146 454153455f52 
0000914c 45564953494f 
00009152 4e5f56455253 
00009158 494f4e00 
0000915c 01            14357 	.byte	1
0000915d 18            14358 	.byte	24
0000915e 4d454d4d4150  14359 	.strz	"MEMMAP_SW_MAJOR_VERSION (1u)"
00009164 5f53575f4d41 
0000916a 4a4f525f5645 
00009170 5253494f4e20 
00009176 2831752900 
0000917b 01            14360 	.byte	1
0000917c 19            14361 	.byte	25
0000917d 4d454d4d4150  14362 	.strz	"MEMMAP_SW_MINOR_VERSION (11u)"
00009183 5f53575f4d49 
00009189 4e4f525f5645 
0000918f 5253494f4e20 
00009195 283131752900 
0000919b 01            14363 	.byte	1
0000919c 1a            14364 	.byte	26
0000919d 4d454d4d4150  14365 	.strz	"MEMMAP_SW_PATCH_VERSION (0u)"
000091a3 5f53575f5041 
000091a9 5443485f5645 
000091af 5253494f4e20 
000091b5 2830752900 
000091ba 01            14366 	.byte	1
000091bb 20            14367 	.byte	32
000091bc 4d454d5f5357  14368 	.strz	"MEM_SW_MAJOR_VERSION MEMMAP_SW_MAJOR_VERSION"
000091c2 5f4d414a4f52 
000091c8 5f5645525349 
000091ce 4f4e204d454d 
000091d4 4d41505f5357 
000091da 5f4d414a4f52 
000091e0 5f5645525349 
000091e6 4f4e00 
000091e9 01            14369 	.byte	1
000091ea 21            14370 	.byte	33
000091eb 4d454d5f5357  14371 	.strz	"MEM_SW_MINOR_VERSION MEMMAP_SW_MINOR_VERSION"
000091f1 5f4d494e4f52 
000091f7 5f5645525349 
000091fd 4f4e204d454d 
00009203 4d41505f5357 
00009209 5f4d494e4f52 

                                                                      Page 344
                                                              C:\Users\nhuliyap\AppData\Local\Temp\gh_0000d3s1.s
0000920f 5f5645525349 
00009215 4f4e00 
00009218 01            14372 	.byte	1
00009219 22            14373 	.byte	34
0000921a 4d454d5f5357  14374 	.strz	"MEM_SW_PATCH_VERSION MEMMAP_SW_PATCH_VERSION"
00009220 5f5041544348 
00009226 5f5645525349 
0000922c 4f4e204d454d 
00009232 4d41505f5357 
00009238 5f5041544348 
0000923e 5f5645525349 
00009244 4f4e00 
00009247 01            14375 	.byte	1
00009248 24            14376 	.byte	36
00009249 4d454d4d4150  14377 	.strz	"MEMMAP_ERROR "
0000924f 5f4552524f52 
00009255 2000 
00009257 01            14378 	.byte	1
00009258 8e01          14379 	.byte	142,1
0000925a 53544152545f  14380 	.strz	"START_SEC_CODE "
00009260 5345435f434f 
00009266 44452000 
0000926a 03            14381 	.byte	3
0000926b f403          14382 	.byte	244,3
0000926d 16            14383 	.byte	22
0000926e 01            14384 	.byte	1
0000926f f407          14385 	.byte	244,7
00009271 434f44455f53  14386 	.strz	"CODE_SEC_OPEN "
00009277 45435f4f5045 
0000927d 4e2000 
00009280 04            14387 	.byte	4
00009281 04            14388 	.byte	4
00009282 01            14389 	.byte	1
00009283 ee09          14390 	.byte	238,9
00009285 4e564d5f5354  14391 	.strz	"NVM_STOP_SEC_CODE "
0000928b 4f505f534543 
00009291 5f434f444520 
00009297 00 
00009298 03            14392 	.byte	3
00009299 ef09          14393 	.byte	239,9
0000929b 1b            14394 	.byte	27
0000929c 01            14395 	.byte	1
0000929d 24            14396 	.byte	36
0000929e 4d454d4d4150  14397 	.strz	"MEMMAP_ERROR "
000092a4 5f4552524f52 
000092aa 2000 
000092ac 01            14398 	.byte	1
000092ad 9201          14399 	.byte	146,1
000092af 53544f505f53  14400 	.strz	"STOP_SEC_CODE "
000092b5 45435f434f44 
000092bb 452000 
000092be 03            14401 	.byte	3
000092bf f403          14402 	.byte	244,3
000092c1 16            14403 	.byte	22
000092c2 04            14404 	.byte	4
000092c3 04            14405 	.byte	4
000092c4 04            14406 	.byte	4
000092c5 00            14407 	.byte	0
                       14408 	.section	.debug_abbrev
000001cf 00            14409 	.byte	0
                       14410 	.section	.debug_info

                                                                      Page 345
                                                              C:\Users\nhuliyap\AppData\Local\Temp\gh_0000d3s1.s
                       14411 .Ldw_end:
                       14412 .rh850_flags REGMODE32,DATA_ALIGN8,GP_FIX,EP_NONFIX,TP_FIX,REG2_RESERVE,G3K,GHS_MISALIGN,SDA_EXTRA_REGS_0
