                                                                      Page 1
                                                              C:\Users\nhuliyap\AppData\Local\Temp\gh_00008uc1.s
Command Line: C:\ghs\comp_201517\ease850.exe -w -elf -b0 -I../source/common -I../source/ProjectCompiler -I../source/ProjectCfg -I../source/SwcApplTpms -I../source/SwcApplTpms/Intface -I../source/SwcApplEcuM -I../source/SwcServiceEcuM -I../source/SwcServiceNvM -I../source/SwcServiceOs -I../source/SwcServiceStartUp -I../source/McalAdc -I../source/McalDio -I../source/McalGpt -I../source/McalMcu -I../source/McalWdg -I../source/wrappers -I../source/wrappers/McalAta -I../source/McalLin -I../source/McalCan -I../source/wrappers/OS -I../source/McalFls -I../source/EcuabFee -I../source/EcuabMemIf -I../source/wrappers/VStdLib -I../source/wrappers/Crc -I../source/wrappers/FBL_APPL -I../source/wrappers/CAN_MANAGER -I../source/wrappers/NVM_MANAGER -I../source/wrappers/DEM_MANAGER -I../source/wrappers/RDC_MANAGER -I../source/wrappers/ENV_MANAGER -I../source/wrappers/SYS_MANAGER -I../source/wrappers/EcuabCanIf -I../source/wrappers/SwcServiceCanSM -I../source/wrappers/SwcServiceCanTp -I../source/wrappers/SwcServiceCanTp_PreCompile -I../source/wrappers/SwcServiceCom -I../source/wrappers/SwcServiceComM -I../source/wrappers/SwcServiceComStack -I../source/wrappers/SwcServiceDcm -I../source/wrappers/SwcServicePduR -I../source/wrappers/SwcServiceEcuM -I../source/wrappers/Bfx -I../source/wrappers/SwcServiceDem -I../source/SwcServiceDet -I../source/SwcServiceFiM -I../source/wrappers/LibAutosarDiag -I../source/wrappers/rba_BswSrv -I../source/SwcServiceSchM -I../source/wrappers/SwcServiceComM/Integration -I../source/wrappers/SwcServicePduR/Integration -I../source/wrappers/EcuabCanIf/Integration -I../source/wrappers/SwcServiceCom/Integration -I../source/wrappers/SwcServiceCanTp/Integration -I../source/wrappers/SwcServiceEcuM/Integration -I../source/SwcServiceDet/Integration -I../source/wrappers/SwcServiceDcm/Integration -I../source/wrappers/SwcServiceDem/Integration -I../source/SwcServiceFiM/Integration -I../source/wrappers/EcuabCanIf/api -I../source/wrappers/SwcServiceCom/api -I../source/wrappers/SwcServiceComM/api -I../source/wrappers/SwcServicePduR/api -I../source/wrappers/Bfx/api -I../source/SwcServiceDet/api -I../source/SwcServiceFiM/api -I../source/wrappers/LibAutosarDiag/api -I../source/wrappers/rba_BswSrv/api -IC:\ghs\comp_201517\lib\rh850 -cg_underscore -cpu=rh850g3k -no_v850_simd -rh850_fpsimd=none -nomacro -patch_dbo=C:\_ECU2\ECU_Rivian_A1\Target\repo_projects\pRealEcu\cL_LATEST\make\output\objects\procdat.dbo -source=procdat.c -o output\objects\gh_00008uc1.o -list=output\list\procdat.lst C:\Users\nhuliyap\AppData\Local\Temp\gh_00008uc1.s 
Original File: C:\Users\nhuliyap\AppData\Local\Temp\gh_00008uc1.s
Source File: procdat.c
Directory: C:\_ECU2\ECU_Rivian_A1\Target\repo_projects\pRealEcu\cL_LATEST\make
Host OS: Windows
EASE: Copyright (C) 1983-2015 Green Hills Software.  All Rights Reserved.
Release: Compiler v2015.1.7
Build Directory: [Directory] BTOWORKER6:c:/build_2015_1_bto/2015-10-21.2100-2015_1_bto/win32-comp-ecom
Revision: [VCInfo] http://toolsvc/branches/release-branch-70-bto/src@544153 (built by build)
Revision Date: Thu Oct 22 07:50:13 2015

Release Date: Thu Oct 22 09:32:32 2015

                           1 --Driver Command: ccv850 ../source/SwcApplTpms/procdat.c -cpu=rh850 -fhard
                           2 --		-ignore_callt_state_in_interrupts -large_sda -misalign_pack
                           3 --		-nofarcalls -nofloatio -no_callt -Ogeneral -Onounroll
                           4 --		-prepare_dispose -registermode=32 -reserve_r2 -sda=0
                           5 --		-shorten_loads -Wshadow --brief_diagnostics --no_commons
                           6 --		--no_wrap_diagnostics --prototype_errors --short_enum -list -G
                           7 --		-dual_debug -dwarf -X5523 -lnk=-no_xda_modifications -D
                           8 --		NOT_READY_FOR_TESTING_OR_DEPLOYMENT -D IBTCM_SW_ANPASSUNGEN -D
                           9 --		BUILD_LORDSTOWN -c -inline_prologue -I../source/common
                          10 --		-I../source/ProjectCompiler -I../source/ProjectCfg
                          11 --		-I../source/SwcApplTpms -I../source/SwcApplTpms/Intface
                          12 --		-I../source/SwcApplEcuM -I../source/SwcServiceEcuM
                          13 --		-I../source/SwcServiceNvM -I../source/SwcServiceOs
                          14 --		-I../source/SwcServiceStartUp -I../source/McalAdc
                          15 --		-I../source/McalDio -I../source/McalGpt -I../source/McalMcu
                          16 --		-I../source/McalWdg -I../source/wrappers
                          17 --		-I../source/wrappers/McalAta -I../source/McalLin
                          18 --		-I../source/McalCan -I../source/wrappers/OS -I../source/McalFls
                          19 --		-I../source/EcuabFee -I../source/EcuabMemIf
                          20 --		-I../source/wrappers/VStdLib -I../source/wrappers
                          21 --		-I../source/wrappers/Crc -I../source/wrappers/FBL_APPL
                          22 --		-I../source/wrappers/CAN_MANAGER -I../source/wrappers/NVM_MANAGER
                          23 --		-I../source/wrappers/DEM_MANAGER -I../source/wrappers/RDC_MANAGER
                          24 --		-I../source/wrappers/ENV_MANAGER -I../source/wrappers/SYS_MANAGER
                          25 --		-I../source/wrappers/EcuabCanIf
                          26 --		-I../source/wrappers/SwcServiceCanSM
                          27 --		-I../source/wrappers/SwcServiceCanTp
                          28 --		-I../source/wrappers/SwcServiceCanTp_PreCompile
                          29 --		-I../source/wrappers/SwcServiceCom
                          30 --		-I../source/wrappers/SwcServiceComM
                          31 --		-I../source/wrappers/SwcServiceComStack
                          32 --		-I../source/wrappers/SwcServiceDcm
                          33 --		-I../source/wrappers/SwcServicePduR
                          34 --		-I../source/wrappers/SwcServiceEcuM -I../source/wrappers/Bfx
                          35 --		-I../source/wrappers/SwcServiceDem -I../source/SwcServiceDet
                          36 --		-I../source/SwcServiceFiM -I../source/wrappers/LibAutosarDiag
                          37 --		-I../source/wrappers/rba_BswSrv -I../source/SwcServiceSchM
                          38 --		-I../source/wrappers/SwcServiceComM/Integration
                          39 --		-I../source/wrappers/SwcServicePduR/Integration
                          40 --		-I../source/wrappers/EcuabCanIf/Integration
                          41 --		-I../source/wrappers/SwcServiceCom/Integration
                          42 --		-I../source/wrappers/SwcServiceCanTp/Integration
                          43 --		-I../source/wrappers/SwcServiceEcuM/Integration
                          44 --		-I../source/SwcServiceDet/Integration
                          45 --		-I../source/wrappers/SwcServiceDcm/Integration
                          46 --		-I../source/wrappers/SwcServiceDem/Integration
                          47 --		-I../source/SwcServiceFiM/Integration
                          48 --		-I../source/wrappers/EcuabCanIf/api
                          49 --		-I../source/wrappers/SwcServiceCom/api
                          50 --		-I../source/wrappers/SwcServiceComM/api

                                                                      Page 2
                                                              C:\Users\nhuliyap\AppData\Local\Temp\gh_00008uc1.s
                          51 --		-I../source/wrappers/SwcServicePduR/api
                          52 --		-I../source/wrappers/Bfx/api -I../source/SwcServiceDet/api
                          53 --		-I../source/SwcServiceFiM/api
                          54 --		-I../source/wrappers/LibAutosarDiag/api
                          55 --		-I../source/wrappers/rba_BswSrv/api -object_dir=output/objects
                          56 --		-list_dir=output/list
                          57 --Source File:   ../source/SwcApplTpms/procdat.c
                          58 --Directory:     
                          59 --		C:\_ECU2\ECU_Rivian_A1\Target\repo_projects\pRealEcu\cL_LATEST\make
                          60 --Compile Date:  Wed Sep 06 09:44:40 2023
                          61 --Host OS:       Win32
                          62 --Version:       C-RH850 2015.1.7 RELEASE VERSION
                          63 --Release:       Compiler v2015.1.7
                          64 --Revision Date: Thu Oct 22 08:06:12 2015
                          65 --Release Date:  Thu Oct 22 09:34:32 2015
                          66 -- ecom  -g -w -OM
                          67 	.text
                          68 ..bof.C.3A.5C_ECU2.5CECU_Rivian_A1.5CTarget.5Crepo_projects.5CpRealEcu.5CcL_LATEST.5Cmake.5Coutput.5Cobjects.5Cprocdat...43.3A.5C_ECU2.5CECU_Rivian_A1.5CTarget.5Crepo_projects.5CpRealEcu.5CcL_LATEST.5Cmake..64F82DE8..0::
                          69 	.align	2
                          70 ..gh.f.f.1.e.0:
                          71 	.type	..gh.f.f.1.e.0,@object
                          72 	.size	..gh.f.f.1.e.0,0
                          73 	.global	_PUTucPatmoPD
                          74 _PUTucPatmoPD:
                          75 --	    .bf
                          76 .LDW01:
00000000 405e0000*        77 	movhi	hi(_ucPatmoPD),zero,r11
00000004 4b370000*        78 	st.b	r6,lo(_ucPatmoPD)[r11]
                          79 --	    .ef
                          80 .LDW11:
                          81 --line1204
                          82 ..lin.C.3A.5C_ECU2.5CECU_Rivian_A1.5CTarget.5Crepo_projects.5CpRealEcu.5CcL_LATEST.5Cmake.5Coutput.5Cobjects.5Cprocdat.1::
                          83 .LDWlin1:
00000008 7f00             84 	jmp	[lp]
                          85 	.global	___ghs_eofn_PUTucPatmoPD
                          86 ___ghs_eofn_PUTucPatmoPD:
                          87 	.type	_PUTucPatmoPD,@function
                          88 	.size	_PUTucPatmoPD,.-_PUTucPatmoPD
                          89 	.align	2
                          90 
                          91 --_ucInData	r6	param
                          92 
                          93 	.section ".bss","awb"
                          94 	.align	4
                          95 .L33:
                          96 	.type	.L33,@object
                          97 	.size	.L33,0
                          98 	.global	_ushSensorDefectPD..C.3A.5C_ECU2.5CECU_Rivian_A1.5CTarget.5Crepo_projects.5CpRealEcu.5CcL_LATEST.5Cmake.5Coutput.5Cobjects.5Cprocdat.
                          99 _ushSensorDefectPD..C.3A.5C_ECU2.5CECU_Rivian_A1.5CTarget.5Crepo_projects.5CpRealEcu.5CcL_LATEST.5Cmake.5Coutput.5Cobjects.5Cprocdat.:
00000000 000000000000    100 _ushSensorDefectPD:	.space	8
00000006 0000 
                         101 	.type	_ushSensorDefectPD..C.3A.5C_ECU2.5CECU_Rivian_A1.5CTarget.5Crepo_projects.5CpRealEcu.5CcL_LATEST.5Cmake.5Coutput.5Cobjects.5Cprocdat.,@object
                         102 	.size	_ushSensorDefectPD..C.3A.5C_ECU2.5CECU_Rivian_A1.5CTarget.5Crepo_projects.5CpRealEcu.5CcL_LATEST.5Cmake.5Coutput.5Cobjects.5Cprocdat.,8
                         103 	.type	_ushSensorDefectPD,@object
                         104 	.size	_ushSensorDefectPD,8
                         105 	.global	_ucReifendruckPD..C.3A.5C_ECU2.5CECU_Rivian_A1.5CTarget.5Crepo_projects.5CpRealEcu.5CcL_LATEST.5Cmake.5Coutput.5Cobjects.5Cprocdat.
                         106 _ucReifendruckPD..C.3A.5C_ECU2.5CECU_Rivian_A1.5CTarget.5Crepo_projects.5CpRealEcu.5CcL_LATEST.5Cmake.5Coutput.5Cobjects.5Cprocdat.:
00000008 00000000        107 _ucReifendruckPD:	.space	4
                         108 	.type	_ucReifendruckPD..C.3A.5C_ECU2.5CECU_Rivian_A1.5CTarget.5Crepo_projects.5CpRealEcu.5CcL_LATEST.5Cmake.5Coutput.5Cobjects.5Cprocdat.,@object
                         109 	.size	_ucReifendruckPD..C.3A.5C_ECU2.5CECU_Rivian_A1.5CTarget.5Crepo_projects.5CpRealEcu.5CcL_LATEST.5Cmake.5Coutput.5Cobjects.5Cprocdat.,4
                         110 	.type	_ucReifendruckPD,@object

                                                                      Page 3
                                                              C:\Users\nhuliyap\AppData\Local\Temp\gh_00008uc1.s
                         111 	.size	_ucReifendruckPD,4
                         112 	.global	_scTemperaturPD..C.3A.5C_ECU2.5CECU_Rivian_A1.5CTarget.5Crepo_projects.5CpRealEcu.5CcL_LATEST.5Cmake.5Coutput.5Cobjects.5Cprocdat.
                         113 _scTemperaturPD..C.3A.5C_ECU2.5CECU_Rivian_A1.5CTarget.5Crepo_projects.5CpRealEcu.5CcL_LATEST.5Cmake.5Coutput.5Cobjects.5Cprocdat.:
0000000c 00000000        114 _scTemperaturPD:	.space	4
                         115 	.type	_scTemperaturPD..C.3A.5C_ECU2.5CECU_Rivian_A1.5CTarget.5Crepo_projects.5CpRealEcu.5CcL_LATEST.5Cmake.5Coutput.5Cobjects.5Cprocdat.,@object
                         116 	.size	_scTemperaturPD..C.3A.5C_ECU2.5CECU_Rivian_A1.5CTarget.5Crepo_projects.5CpRealEcu.5CcL_LATEST.5Cmake.5Coutput.5Cobjects.5Cprocdat.,4
                         117 	.type	_scTemperaturPD,@object
                         118 	.size	_scTemperaturPD,4
                         119 	.global	_ucRestlebensdauerPD..C.3A.5C_ECU2.5CECU_Rivian_A1.5CTarget.5Crepo_projects.5CpRealEcu.5CcL_LATEST.5Cmake.5Coutput.5Cobjects.5Cprocdat.
                         120 _ucRestlebensdauerPD..C.3A.5C_ECU2.5CECU_Rivian_A1.5CTarget.5Crepo_projects.5CpRealEcu.5CcL_LATEST.5Cmake.5Coutput.5Cobjects.5Cprocdat.:
00000010 00000000        121 _ucRestlebensdauerPD:	.space	4
                         122 	.type	_ucRestlebensdauerPD..C.3A.5C_ECU2.5CECU_Rivian_A1.5CTarget.5Crepo_projects.5CpRealEcu.5CcL_LATEST.5Cmake.5Coutput.5Cobjects.5Cprocdat.,@object
                         123 	.size	_ucRestlebensdauerPD..C.3A.5C_ECU2.5CECU_Rivian_A1.5CTarget.5Crepo_projects.5CpRealEcu.5CcL_LATEST.5Cmake.5Coutput.5Cobjects.5Cprocdat.,4
                         124 	.type	_ucRestlebensdauerPD,@object
                         125 	.size	_ucRestlebensdauerPD,4
                         126 	.global	_ucRSSIsumPD..C.3A.5C_ECU2.5CECU_Rivian_A1.5CTarget.5Crepo_projects.5CpRealEcu.5CcL_LATEST.5Cmake.5Coutput.5Cobjects.5Cprocdat.
                         127 _ucRSSIsumPD..C.3A.5C_ECU2.5CECU_Rivian_A1.5CTarget.5Crepo_projects.5CpRealEcu.5CcL_LATEST.5Cmake.5Coutput.5Cobjects.5Cprocdat.:
00000014 00000000        128 _ucRSSIsumPD:	.space	4
                         129 	.type	_ucRSSIsumPD..C.3A.5C_ECU2.5CECU_Rivian_A1.5CTarget.5Crepo_projects.5CpRealEcu.5CcL_LATEST.5Cmake.5Coutput.5Cobjects.5Cprocdat.,@object
                         130 	.size	_ucRSSIsumPD..C.3A.5C_ECU2.5CECU_Rivian_A1.5CTarget.5Crepo_projects.5CpRealEcu.5CcL_LATEST.5Cmake.5Coutput.5Cobjects.5Cprocdat.,4
                         131 	.type	_ucRSSIsumPD,@object
                         132 	.size	_ucRSSIsumPD,4
                         133 	.global	_ucTelTypePD..C.3A.5C_ECU2.5CECU_Rivian_A1.5CTarget.5Crepo_projects.5CpRealEcu.5CcL_LATEST.5Cmake.5Coutput.5Cobjects.5Cprocdat.
                         134 _ucTelTypePD..C.3A.5C_ECU2.5CECU_Rivian_A1.5CTarget.5Crepo_projects.5CpRealEcu.5CcL_LATEST.5Cmake.5Coutput.5Cobjects.5Cprocdat.:
00000018 00000000        135 _ucTelTypePD:	.space	4
                         136 	.type	_ucTelTypePD..C.3A.5C_ECU2.5CECU_Rivian_A1.5CTarget.5Crepo_projects.5CpRealEcu.5CcL_LATEST.5Cmake.5Coutput.5Cobjects.5Cprocdat.,@object
                         137 	.size	_ucTelTypePD..C.3A.5C_ECU2.5CECU_Rivian_A1.5CTarget.5Crepo_projects.5CpRealEcu.5CcL_LATEST.5Cmake.5Coutput.5Cobjects.5Cprocdat.,4
                         138 	.type	_ucTelTypePD,@object
                         139 	.size	_ucTelTypePD,4
                         140 	.global	_ucTransModePD..C.3A.5C_ECU2.5CECU_Rivian_A1.5CTarget.5Crepo_projects.5CpRealEcu.5CcL_LATEST.5Cmake.5Coutput.5Cobjects.5Cprocdat.
                         141 _ucTransModePD..C.3A.5C_ECU2.5CECU_Rivian_A1.5CTarget.5Crepo_projects.5CpRealEcu.5CcL_LATEST.5Cmake.5Coutput.5Cobjects.5Cprocdat.:
0000001c 00000000        142 _ucTransModePD:	.space	4
                         143 	.type	_ucTransModePD..C.3A.5C_ECU2.5CECU_Rivian_A1.5CTarget.5Crepo_projects.5CpRealEcu.5CcL_LATEST.5Cmake.5Coutput.5Cobjects.5Cprocdat.,@object
                         144 	.size	_ucTransModePD..C.3A.5C_ECU2.5CECU_Rivian_A1.5CTarget.5Crepo_projects.5CpRealEcu.5CcL_LATEST.5Cmake.5Coutput.5Cobjects.5Cprocdat.,4
                         145 	.type	_ucTransModePD,@object
                         146 	.size	_ucTransModePD,4
                         147 	.global	_ucRotatSTelIndexPut..C.3A.5C_ECU2.5CECU_Rivian_A1.5CTarget.5Crepo_projects.5CpRealEcu.5CcL_LATEST.5Cmake.5Coutput.5Cobjects.5Cprocdat.
                         148 _ucRotatSTelIndexPut..C.3A.5C_ECU2.5CECU_Rivian_A1.5CTarget.5Crepo_projects.5CpRealEcu.5CcL_LATEST.5Cmake.5Coutput.5Cobjects.5Cprocdat.:
00000020 00              149 _ucRotatSTelIndexPut:	.space	1
                         150 	.type	_ucRotatSTelIndexPut..C.3A.5C_ECU2.5CECU_Rivian_A1.5CTarget.5Crepo_projects.5CpRealEcu.5CcL_LATEST.5Cmake.5Coutput.5Cobjects.5Cprocdat.,@object
                         151 	.size	_ucRotatSTelIndexPut..C.3A.5C_ECU2.5CECU_Rivian_A1.5CTarget.5Crepo_projects.5CpRealEcu.5CcL_LATEST.5Cmake.5Coutput.5Cobjects.5Cprocdat.,1
                         152 	.type	_ucRotatSTelIndexPut,@object
                         153 	.size	_ucRotatSTelIndexPut,1
                         154 	.global	_ucRotL..C.3A.5C_ECU2.5CECU_Rivian_A1.5CTarget.5Crepo_projects.5CpRealEcu.5CcL_LATEST.5Cmake.5Coutput.5Cobjects.5Cprocdat.
                         155 _ucRotL..C.3A.5C_ECU2.5CECU_Rivian_A1.5CTarget.5Crepo_projects.5CpRealEcu.5CcL_LATEST.5Cmake.5Coutput.5Cobjects.5Cprocdat.:
00000021 00              156 _ucRotL:	.space	1
                         157 	.type	_ucRotL..C.3A.5C_ECU2.5CECU_Rivian_A1.5CTarget.5Crepo_projects.5CpRealEcu.5CcL_LATEST.5Cmake.5Coutput.5Cobjects.5Cprocdat.,@object
                         158 	.size	_ucRotL..C.3A.5C_ECU2.5CECU_Rivian_A1.5CTarget.5Crepo_projects.5CpRealEcu.5CcL_LATEST.5Cmake.5Coutput.5Cobjects.5Cprocdat.,1
                         159 	.type	_ucRotL,@object
                         160 	.size	_ucRotL,1
                         161 	.global	_ucSnRotH..C.3A.5C_ECU2.5CECU_Rivian_A1.5CTarget.5Crepo_projects.5CpRealEcu.5CcL_LATEST.5Cmake.5Coutput.5Cobjects.5Cprocdat.
                         162 _ucSnRotH..C.3A.5C_ECU2.5CECU_Rivian_A1.5CTarget.5Crepo_projects.5CpRealEcu.5CcL_LATEST.5Cmake.5Coutput.5Cobjects.5Cprocdat.:
00000022 00              163 _ucSnRotH:	.space	1
                         164 	.type	_ucSnRotH..C.3A.5C_ECU2.5CECU_Rivian_A1.5CTarget.5Crepo_projects.5CpRealEcu.5CcL_LATEST.5Cmake.5Coutput.5Cobjects.5Cprocdat.,@object
                         165 	.size	_ucSnRotH..C.3A.5C_ECU2.5CECU_Rivian_A1.5CTarget.5Crepo_projects.5CpRealEcu.5CcL_LATEST.5Cmake.5Coutput.5Cobjects.5Cprocdat.,1
                         166 	.type	_ucSnRotH,@object
                         167 	.size	_ucSnRotH,1
                         168 	.global	_ucRecEventPD..C.3A.5C_ECU2.5CECU_Rivian_A1.5CTarget.5Crepo_projects.5CpRealEcu.5CcL_LATEST.5Cmake.5Coutput.5Cobjects.5Cprocdat.
                         169 _ucRecEventPD..C.3A.5C_ECU2.5CECU_Rivian_A1.5CTarget.5Crepo_projects.5CpRealEcu.5CcL_LATEST.5Cmake.5Coutput.5Cobjects.5Cprocdat.:
00000023 00              170 _ucRecEventPD:	.space	1
                         171 	.type	_ucRecEventPD..C.3A.5C_ECU2.5CECU_Rivian_A1.5CTarget.5Crepo_projects.5CpRealEcu.5CcL_LATEST.5Cmake.5Coutput.5Cobjects.5Cprocdat.,@object

                                                                      Page 4
                                                              C:\Users\nhuliyap\AppData\Local\Temp\gh_00008uc1.s
                         172 	.size	_ucRecEventPD..C.3A.5C_ECU2.5CECU_Rivian_A1.5CTarget.5Crepo_projects.5CpRealEcu.5CcL_LATEST.5Cmake.5Coutput.5Cobjects.5Cprocdat.,1
                         173 	.type	_ucRecEventPD,@object
                         174 	.size	_ucRecEventPD,1
                         175 	.global	_U8_AllReceivedTelegCnt..C.3A.5C_ECU2.5CECU_Rivian_A1.5CTarget.5Crepo_projects.5CpRealEcu.5CcL_LATEST.5Cmake.5Coutput.5Cobjects.5Cprocdat.
                         176 _U8_AllReceivedTelegCnt..C.3A.5C_ECU2.5CECU_Rivian_A1.5CTarget.5Crepo_projects.5CpRealEcu.5CcL_LATEST.5Cmake.5Coutput.5Cobjects.5Cprocdat.:
00000024 00              177 _U8_AllReceivedTelegCnt:	.space	1
                         178 	.type	_U8_AllReceivedTelegCnt..C.3A.5C_ECU2.5CECU_Rivian_A1.5CTarget.5Crepo_projects.5CpRealEcu.5CcL_LATEST.5Cmake.5Coutput.5Cobjects.5Cprocdat.,@object
                         179 	.size	_U8_AllReceivedTelegCnt..C.3A.5C_ECU2.5CECU_Rivian_A1.5CTarget.5Crepo_projects.5CpRealEcu.5CcL_LATEST.5Cmake.5Coutput.5Cobjects.5Cprocdat.,1
                         180 	.type	_U8_AllReceivedTelegCnt,@object
                         181 	.size	_U8_AllReceivedTelegCnt,1
                         182 	.global	_ucPatmoPD..C.3A.5C_ECU2.5CECU_Rivian_A1.5CTarget.5Crepo_projects.5CpRealEcu.5CcL_LATEST.5Cmake.5Coutput.5Cobjects.5Cprocdat.
                         183 _ucPatmoPD..C.3A.5C_ECU2.5CECU_Rivian_A1.5CTarget.5Crepo_projects.5CpRealEcu.5CcL_LATEST.5Cmake.5Coutput.5Cobjects.5Cprocdat.:
00000025 00              184 _ucPatmoPD:	.space	1
                         185 	.type	_ucPatmoPD..C.3A.5C_ECU2.5CECU_Rivian_A1.5CTarget.5Crepo_projects.5CpRealEcu.5CcL_LATEST.5Cmake.5Coutput.5Cobjects.5Cprocdat.,@object
                         186 	.size	_ucPatmoPD..C.3A.5C_ECU2.5CECU_Rivian_A1.5CTarget.5Crepo_projects.5CpRealEcu.5CcL_LATEST.5Cmake.5Coutput.5Cobjects.5Cprocdat.,1
                         187 	.type	_ucPatmoPD,@object
                         188 	.size	_ucPatmoPD,1
00000026 0000            189 	.space	2
                         190 	.global	_tReDataPD..C.3A.5C_ECU2.5CECU_Rivian_A1.5CTarget.5Crepo_projects.5CpRealEcu.5CcL_LATEST.5Cmake.5Coutput.5Cobjects.5Cprocdat.
                         191 _tReDataPD..C.3A.5C_ECU2.5CECU_Rivian_A1.5CTarget.5Crepo_projects.5CpRealEcu.5CcL_LATEST.5Cmake.5Coutput.5Cobjects.5Cprocdat.:
00000028 000000000000    192 _tReDataPD:	.space	24
0000002e 000000000000 
00000034 000000000000 
0000003a 000000000000 
                         193 	.type	_tReDataPD..C.3A.5C_ECU2.5CECU_Rivian_A1.5CTarget.5Crepo_projects.5CpRealEcu.5CcL_LATEST.5Cmake.5Coutput.5Cobjects.5Cprocdat.,@object
                         194 	.size	_tReDataPD..C.3A.5C_ECU2.5CECU_Rivian_A1.5CTarget.5Crepo_projects.5CpRealEcu.5CcL_LATEST.5Cmake.5Coutput.5Cobjects.5Cprocdat.,24
                         195 	.type	_tReDataPD,@object
                         196 	.size	_tReDataPD,24
                         197 	.data
                         198 	.align	4
                         199 	.global	_tReDataPreProcPD..C.3A.5C_ECU2.5CECU_Rivian_A1.5CTarget.5Crepo_projects.5CpRealEcu.5CcL_LATEST.5Cmake.5Coutput.5Cobjects.5Cprocdat.
                         200 _tReDataPreProcPD..C.3A.5C_ECU2.5CECU_Rivian_A1.5CTarget.5Crepo_projects.5CpRealEcu.5CcL_LATEST.5Cmake.5Coutput.5Cobjects.5Cprocdat.:
00000000 00000000        201 _tReDataPreProcPD:	.space	4
00000004 ff7f            202 	.byte	255,127
00000006 0f              203 	.byte	15
00000007 00              204 	.space	1
00000008 0000            205 	.space	2
0000000a 0000            206 	.space	2
                         207 	.type	_tReDataPreProcPD..C.3A.5C_ECU2.5CECU_Rivian_A1.5CTarget.5Crepo_projects.5CpRealEcu.5CcL_LATEST.5Cmake.5Coutput.5Cobjects.5Cprocdat.,@object
                         208 	.size	_tReDataPreProcPD..C.3A.5C_ECU2.5CECU_Rivian_A1.5CTarget.5Crepo_projects.5CpRealEcu.5CcL_LATEST.5Cmake.5Coutput.5Cobjects.5Cprocdat.,12
                         209 	.type	_tReDataPreProcPD,@object
                         210 	.size	_tReDataPreProcPD,12
                         211 	.section ".bss","awb"
                         212 	.global	_ucTyreInvalidPressSurpressionCnt..C.3A.5C_ECU2.5CECU_Rivian_A1.5CTarget.5Crepo_projects.5CpRealEcu.5CcL_LATEST.5Cmake.5Coutput.5Cobjects.5Cprocdat.
                         213 _ucTyreInvalidPressSurpressionCnt..C.3A.5C_ECU2.5CECU_Rivian_A1.5CTarget.5Crepo_projects.5CpRealEcu.5CcL_LATEST.5Cmake.5Coutput.5Cobjects.5Cprocdat.:
00000040 000000000000    214 _ucTyreInvalidPressSurpressionCnt:	.space	10
00000046 00000000 
0000004a 0000            215 	.space	2
                         216 	.type	_ucTyreInvalidPressSurpressionCnt..C.3A.5C_ECU2.5CECU_Rivian_A1.5CTarget.5Crepo_projects.5CpRealEcu.5CcL_LATEST.5Cmake.5Coutput.5Cobjects.5Cprocdat.,@object
                         217 	.size	_ucTyreInvalidPressSurpressionCnt..C.3A.5C_ECU2.5CECU_Rivian_A1.5CTarget.5Crepo_projects.5CpRealEcu.5CcL_LATEST.5Cmake.5Coutput.5Cobjects.5Cprocdat.,12
                         218 	.type	_ucTyreInvalidPressSurpressionCnt,@object
                         219 	.size	_ucTyreInvalidPressSurpressionCnt,12
                         220 	.global	_tWs_RxRotatSBuf..C.3A.5C_ECU2.5CECU_Rivian_A1.5CTarget.5Crepo_projects.5CpRealEcu.5CcL_LATEST.5Cmake.5Coutput.5Cobjects.5Cprocdat.
                         221 _tWs_RxRotatSBuf..C.3A.5C_ECU2.5CECU_Rivian_A1.5CTarget.5Crepo_projects.5CpRealEcu.5CcL_LATEST.5Cmake.5Coutput.5Cobjects.5Cprocdat.:
0000004c 000000000000    222 _tWs_RxRotatSBuf:	.space	336
00000052 000000000000 
00000058 000000000000 
0000005e 000000000000 
00000064 000000000000 
0000006a 000000000000 
00000070 000000000000 

                                                                      Page 5
                                                              C:\Users\nhuliyap\AppData\Local\Temp\gh_00008uc1.s
00000076 000000000000 
0000007c 000000000000 
00000082 000000000000 
00000088 000000000000 
0000008e 000000000000 
00000094 000000000000 
0000009a 000000000000 
000000a0 000000000000 
000000a6 000000000000 
000000ac 000000000000 
000000b2 000000000000 
000000b8 000000000000 
000000be 000000000000 
000000c4 000000000000 
000000ca 000000000000 
000000d0 000000000000 
000000d6 000000000000 
000000dc 000000000000 
000000e2 000000000000 
000000e8 000000000000 
000000ee 000000000000 
000000f4 000000000000 
000000fa 000000000000 
00000100 000000000000 
00000106 000000000000 
0000010c 000000000000 
00000112 000000000000 
00000118 000000000000 
0000011e 000000000000 
00000124 000000000000 
0000012a 000000000000 
00000130 000000000000 
00000136 000000000000 
0000013c 000000000000 
00000142 000000000000 
00000148 00000000 
                         223 	.type	_tWs_RxRotatSBuf..C.3A.5C_ECU2.5CECU_Rivian_A1.5CTarget.5Crepo_projects.5CpRealEcu.5CcL_LATEST.5Cmake.5Coutput.5Cobjects.5Cprocdat.,@object
                         224 	.size	_tWs_RxRotatSBuf..C.3A.5C_ECU2.5CECU_Rivian_A1.5CTarget.5Crepo_projects.5CpRealEcu.5CcL_LATEST.5Cmake.5Coutput.5Cobjects.5Cprocdat.,336
                         225 	.type	_tWs_RxRotatSBuf,@object
                         226 	.size	_tWs_RxRotatSBuf,336
                         227 	.data
                         228 	.text
                         229 	.align	2
                         230 	.align	2
                         231 ..gh.f.f.1.e.1:
                         232 	.type	..gh.f.f.1.e.1,@object
                         233 	.size	..gh.f.f.1.e.1,0
                         234 	.global	_InitPD
                         235 _InitPD:
0000000a 80076100        236 	prepare	{r29,r31},0
0000000e 3d0600000000*   237 	mov	_ushSensorDefectPD,r29
                         238 --	    .bf
                         239 .LDW21:
                         240 --line127
                         241 ..lin.C.3A.5C_ECU2.5CECU_Rivian_A1.5CTarget.5Crepo_projects.5CpRealEcu.5CcL_LATEST.5Cmake.5Coutput.5Cobjects.5Cprocdat.2::
                         242 .LDWlin2:
                         243 	jarl	_ReloadSTATISTICS,lp
                         243 <EXPANSION BEGIN>
                         243 jarl22 _ReloadSTATISTICS , lp 
00000014 80ff0000*       243 <EXPANSION END>
                         244 --line128

                                                                      Page 6
                                                              C:\Users\nhuliyap\AppData\Local\Temp\gh_00008uc1.s
                         245 ..lin.C.3A.5C_ECU2.5CECU_Rivian_A1.5CTarget.5Crepo_projects.5CpRealEcu.5CcL_LATEST.5Cmake.5Coutput.5Cobjects.5Cprocdat.3::
                         246 .LDWlin3:
00000018 1df0            247 	mov	r29,ep
0000001a 405e0000*       248 	movhi	hi(_ucRotatSTelIndexGet),zero,r11
0000001e a303            249 	sst.b	zero,35[ep]
                         250 --line129
                         251 ..lin.C.3A.5C_ECU2.5CECU_Rivian_A1.5CTarget.5Crepo_projects.5CpRealEcu.5CcL_LATEST.5Cmake.5Coutput.5Cobjects.5Cprocdat.4::
                         252 .LDWlin4:
00000020 a403            253 	sst.b	zero,36[ep]
00000022 a003            254 	sst.b	zero,32[ep]
00000024 4b070000*       255 	st.b	zero,lo(_ucRotatSTelIndexGet)[r11]
00000028 0092            256 	mov	0,r18
                         257 .L55:
0000002a 12f0            258 	mov	r18,ep
0000002c ddf1            259 	add	r29,ep
0000002e 1f82            260 	mov	-1,r16
00000030 206e7f00        261 	movea	127,zero,r13
00000034 0f5a            262 	mov	15,r11
00000036 8883            263 	sst.b	r16,8[ep]
00000038 8c6b            264 	sst.b	r13,12[ep]
0000003a 905b            265 	sst.b	r11,16[ep]
0000003c 9403            266 	sst.b	zero,20[ep]
0000003e 9883            267 	sst.b	r16,24[ep]
00000040 9c03            268 	sst.b	zero,28[ep]
00000042 1288            269 	mov	r18,r17
00000044 c18a            270 	shl	1,r17
00000046 1df0            271 	mov	r29,ep
00000048 d1f1            272 	add	r17,ep
0000004a 8004            273 	sst.h	zero,0[ep]
0000004c dd89            274 	add	r29,r17
0000004e 4192            275 	add	1,r18
00000050 71074000        276 	st.h	zero,64[r17]
00000054 6492            277 	cmp	4,r18
00000056 a1ed*           278 	bl	.L55
                         279 --line154
                         280 ..lin.C.3A.5C_ECU2.5CECU_Rivian_A1.5CTarget.5Crepo_projects.5CpRealEcu.5CcL_LATEST.5Cmake.5Coutput.5Cobjects.5Cprocdat.5::
                         281 .LDWlin5:
                         282 	jarl	_GETucPatmoEE,lp
                         282 <EXPANSION BEGIN>
                         282 jarl22 _GETucPatmoEE , lp 
00000058 80ff0000*       282 <EXPANSION END>
0000005c 0a30            283 	mov	r10,r6
                         284 	jarl	_PUTucPatmoPD,lp
                         284 <EXPANSION BEGIN>
                         284 jarl22 _PUTucPatmoPD , lp 
0000005e bfffa2ff*       284 <EXPANSION END>
                         285 --	    .ef
                         286 .LDW31:
                         287 --line155
                         288 ..lin.C.3A.5C_ECU2.5CECU_Rivian_A1.5CTarget.5Crepo_projects.5CpRealEcu.5CcL_LATEST.5Cmake.5Coutput.5Cobjects.5Cprocdat.6::
                         289 .LDWlin6:
00000062 40067f00        290 	dispose	0,{r29,r31},[lp]
                         291 	.global	___ghs_eofn_InitPD
                         292 ___ghs_eofn_InitPD:
                         293 	.type	_InitPD,@function
                         294 	.size	_InitPD,.-_InitPD
                         295 	.align	2
                         296 --_ucLoop	r18	local
                         297 
                         298 	.data
                         299 	.text

                                                                      Page 7
                                                              C:\Users\nhuliyap\AppData\Local\Temp\gh_00008uc1.s
                         300 	.align	2
                         301 	.align	2
                         302 ..gh.f.f.1.e.2:
                         303 	.type	..gh.f.f.1.e.2,@object
                         304 	.size	..gh.f.f.1.e.2,0
                         305 	.global	_IncrementAllReceivedTelegCnt
                         306 _IncrementAllReceivedTelegCnt:
                         307 --	    .bf
                         308 .LDW41:
00000066 3e0600000000*   309 	mov	_U8_AllReceivedTelegCnt,ep
0000006c 6090            310 	sld.bu	0[ep],r18
0000006e 4192            311 	add	1,r18
00000070 8093            312 	sst.b	r18,0[ep]
                         313 --	    .ef
                         314 .LDW51:
                         315 --line159
                         316 ..lin.C.3A.5C_ECU2.5CECU_Rivian_A1.5CTarget.5Crepo_projects.5CpRealEcu.5CcL_LATEST.5Cmake.5Coutput.5Cobjects.5Cprocdat.7::
                         317 .LDWlin7:
00000072 7f00            318 	jmp	[lp]
                         319 	.global	___ghs_eofn_IncrementAllReceivedTelegCnt
                         320 ___ghs_eofn_IncrementAllReceivedTelegCnt:
                         321 	.type	_IncrementAllReceivedTelegCnt,@function
                         322 	.size	_IncrementAllReceivedTelegCnt,.-_IncrementAllReceivedTelegCnt
                         323 	.align	2
                         324 
                         325 	.data
                         326 	.text
                         327 	.align	2
                         328 	.align	2
                         329 ..gh.f.f.1.e.3:
                         330 	.type	..gh.f.f.1.e.3,@object
                         331 	.size	..gh.f.f.1.e.3,0
                         332 	.global	_ulGetReDataIdPD
                         333 _ulGetReDataIdPD:
00000074 3e0600000000*   334 	mov	_tReDataPD,ep
                         335 --	    .bf
                         336 .LDW61:
                         337 --line169
                         338 ..lin.C.3A.5C_ECU2.5CECU_Rivian_A1.5CTarget.5Crepo_projects.5CpRealEcu.5CcL_LATEST.5Cmake.5Coutput.5Cobjects.5Cprocdat.8::
                         339 .LDWlin8:
0000007a 6378            340 	sld.bu	3[ep],r15
0000007c 6488            341 	sld.bu	4[ep],r17
0000007e 6580            342 	sld.bu	5[ep],r16
00000080 6650            343 	sld.bu	6[ep],r10
00000082 d87a            344 	shl	24,r15
00000084 d08a            345 	shl	16,r17
00000086 0f89            346 	or	r15,r17
00000088 c882            347 	shl	8,r16
0000008a 1181            348 	or	r17,r16
0000008c 1051            349 	or	r16,r10
                         350 --	    .ef
                         351 .LDW71:
0000008e 7f00            352 	jmp	[lp]
                         353 	.global	___ghs_eofn_ulGetReDataIdPD
                         354 ___ghs_eofn_ulGetReDataIdPD:
                         355 	.type	_ulGetReDataIdPD,@function
                         356 	.size	_ulGetReDataIdPD,.-_ulGetReDataIdPD
                         357 	.align	2
                         358 
                         359 	.data
                         360 	.text

                                                                      Page 8
                                                              C:\Users\nhuliyap\AppData\Local\Temp\gh_00008uc1.s
                         361 	.align	2
                         362 	.align	2
                         363 ..gh.f.f.1.e.4:
                         364 	.type	..gh.f.f.1.e.4,@object
                         365 	.size	..gh.f.f.1.e.4,0
                         366 	.global	_ucGetReDataPressurePD
                         367 _ucGetReDataPressurePD:
00000090 320600000000*   368 	mov	_tReDataPD,r18
                         369 --	    .bf
                         370 .LDW81:
                         371 --line176
                         372 ..lin.C.3A.5C_ECU2.5CECU_Rivian_A1.5CTarget.5Crepo_projects.5CpRealEcu.5CcL_LATEST.5Cmake.5Coutput.5Cobjects.5Cprocdat.9::
                         373 .LDWlin9:
00000096 928f0300        374 	ld.bu	2[r18],r17
0000009a 11067dff        375 	addi	-131,r17,zero
0000009e 910d*           376 	bl	.L285
000000a0 e089            377 	cmp	zero,r17
000000a2 c205*           378 	be	.L213
000000a4 1106e0ff        379 	addi	-32,r17,zero
000000a8 da0d*           380 	bne	.L212
                         381 .L213:
                         382 --line184
                         383 ..lin.C.3A.5C_ECU2.5CECU_Rivian_A1.5CTarget.5Crepo_projects.5CpRealEcu.5CcL_LATEST.5Cmake.5Coutput.5Cobjects.5Cprocdat.10::
                         384 .LDWlin10:
000000aa b2570700        385 	ld.bu	7[r18],r10
000000ae 7f00            386 	jmp	[lp]
                         387 .L285:
000000b0 11067dff        388 	addi	-131,r17,zero
000000b4 b2fd*           389 	be	.L213
000000b6 110670ff        390 	addi	-144,r17,zero
000000ba 82fd*           391 	be	.L213
000000bc 11065dff        392 	addi	-163,r17,zero
000000c0 d2f5*           393 	be	.L213
                         394 .L212:
                         395 --line187
                         396 ..lin.C.3A.5C_ECU2.5CECU_Rivian_A1.5CTarget.5Crepo_projects.5CpRealEcu.5CcL_LATEST.5Cmake.5Coutput.5Cobjects.5Cprocdat.11::
                         397 .LDWlin11:
000000c2 0052            398 	mov	0,r10
                         399 --	    .ef
                         400 .LDW91:
000000c4 7f00            401 	jmp	[lp]
                         402 	.global	___ghs_eofn_ucGetReDataPressurePD
                         403 ___ghs_eofn_ucGetReDataPressurePD:
                         404 	.type	_ucGetReDataPressurePD,@function
                         405 	.size	_ucGetReDataPressurePD,.-_ucGetReDataPressurePD
                         406 	.align	2
                         407 --_ucHelp	r10	local
                         408 
                         409 	.data
                         410 	.text
                         411 	.align	2
                         412 	.align	2
                         413 ..gh.f.f.1.e.5:
                         414 	.type	..gh.f.f.1.e.5,@object
                         415 	.size	..gh.f.f.1.e.5,0
                         416 	.global	_ucGetReDataTemperaturePD
                         417 _ucGetReDataTemperaturePD:
000000c6 320600000000*   418 	mov	_tReDataPD,r18
                         419 --	    .bf
                         420 .LDW02:
                         421 --line196

                                                                      Page 9
                                                              C:\Users\nhuliyap\AppData\Local\Temp\gh_00008uc1.s
                         422 ..lin.C.3A.5C_ECU2.5CECU_Rivian_A1.5CTarget.5Crepo_projects.5CpRealEcu.5CcL_LATEST.5Cmake.5Coutput.5Cobjects.5Cprocdat.12::
                         423 .LDWlin12:
000000cc 928f0300        424 	ld.bu	2[r18],r17
000000d0 11067dff        425 	addi	-131,r17,zero
000000d4 910d*           426 	bl	.L477
000000d6 e089            427 	cmp	zero,r17
000000d8 c205*           428 	be	.L398
000000da 1106e0ff        429 	addi	-32,r17,zero
000000de da0d*           430 	bne	.L397
                         431 .L398:
                         432 --line204
                         433 ..lin.C.3A.5C_ECU2.5CECU_Rivian_A1.5CTarget.5Crepo_projects.5CpRealEcu.5CcL_LATEST.5Cmake.5Coutput.5Cobjects.5Cprocdat.13::
                         434 .LDWlin13:
000000e0 92570900        435 	ld.bu	8[r18],r10
000000e4 7f00            436 	jmp	[lp]
                         437 .L477:
000000e6 11067dff        438 	addi	-131,r17,zero
000000ea b2fd*           439 	be	.L398
000000ec 110670ff        440 	addi	-144,r17,zero
000000f0 82fd*           441 	be	.L398
000000f2 11065dff        442 	addi	-163,r17,zero
000000f6 d2f5*           443 	be	.L398
                         444 .L397:
                         445 --line207
                         446 ..lin.C.3A.5C_ECU2.5CECU_Rivian_A1.5CTarget.5Crepo_projects.5CpRealEcu.5CcL_LATEST.5Cmake.5Coutput.5Cobjects.5Cprocdat.14::
                         447 .LDWlin14:
000000f8 0052            448 	mov	0,r10
                         449 --	    .ef
                         450 .LDW12:
000000fa 7f00            451 	jmp	[lp]
                         452 	.global	___ghs_eofn_ucGetReDataTemperaturePD
                         453 ___ghs_eofn_ucGetReDataTemperaturePD:
                         454 	.type	_ucGetReDataTemperaturePD,@function
                         455 	.size	_ucGetReDataTemperaturePD,.-_ucGetReDataTemperaturePD
                         456 	.align	2
                         457 --_ucHelp	r10	local
                         458 
                         459 	.data
                         460 	.text
                         461 	.align	2
                         462 	.align	2
                         463 ..gh.f.f.1.e.6:
                         464 	.type	..gh.f.f.1.e.6,@object
                         465 	.size	..gh.f.f.1.e.6,0
                         466 	.global	_ucGetReDataRemainingLifeTimePD
                         467 _ucGetReDataRemainingLifeTimePD:
000000fc 320600000000*   468 	mov	_tReDataPD,r18
                         469 --	    .bf
                         470 .LDW22:
                         471 --line216
                         472 ..lin.C.3A.5C_ECU2.5CECU_Rivian_A1.5CTarget.5Crepo_projects.5CpRealEcu.5CcL_LATEST.5Cmake.5Coutput.5Cobjects.5Cprocdat.15::
                         473 .LDWlin15:
00000102 924f0300        474 	ld.bu	2[r18],r9
00000106 09067dff        475 	addi	-131,r9,zero
0000010a c205*           476 	be	.L590
0000010c 09065dff        477 	addi	-163,r9,zero
00000110 fa05*           478 	bne	.L589
                         479 .L590:
                         480 --line221
                         481 ..lin.C.3A.5C_ECU2.5CECU_Rivian_A1.5CTarget.5Crepo_projects.5CpRealEcu.5CcL_LATEST.5Cmake.5Coutput.5Cobjects.5Cprocdat.16::
                         482 .LDWlin16:

                                                                      Page 10
                                                              C:\Users\nhuliyap\AppData\Local\Temp\gh_00008uc1.s
00000112 92470b00        483 	ld.bu	10[r18],r8
00000116 c8563c00        484 	andi	60,r8,r10
0000011a a252            485 	sar	2,r10
0000011c 7f00            486 	jmp	[lp]
                         487 .L589:
                         488 --line224
                         489 ..lin.C.3A.5C_ECU2.5CECU_Rivian_A1.5CTarget.5Crepo_projects.5CpRealEcu.5CcL_LATEST.5Cmake.5Coutput.5Cobjects.5Cprocdat.17::
                         490 .LDWlin17:
0000011e 0f52            491 	mov	15,r10
                         492 --	    .ef
                         493 .LDW32:
00000120 7f00            494 	jmp	[lp]
                         495 	.global	___ghs_eofn_ucGetReDataRemainingLifeTimePD
                         496 ___ghs_eofn_ucGetReDataRemainingLifeTimePD:
                         497 	.type	_ucGetReDataRemainingLifeTimePD,@function
                         498 	.size	_ucGetReDataRemainingLifeTimePD,.-_ucGetReDataRemainingLifeTimePD
                         499 	.align	2
                         500 --_ucHelp	r10	local
                         501 
                         502 	.data
                         503 	.text
                         504 	.align	2
                         505 	.align	2
                         506 ..gh.f.f.1.e.7:
                         507 	.type	..gh.f.f.1.e.7,@object
                         508 	.size	..gh.f.f.1.e.7,0
                         509 	.global	_ucGetReDataStatePD
                         510 _ucGetReDataStatePD:
00000122 320600000000*   511 	mov	_tReDataPD,r18
                         512 --	    .bf
                         513 .LDW42:
                         514 --line233
                         515 ..lin.C.3A.5C_ECU2.5CECU_Rivian_A1.5CTarget.5Crepo_projects.5CpRealEcu.5CcL_LATEST.5Cmake.5Coutput.5Cobjects.5Cprocdat.18::
                         516 .LDWlin18:
00000128 924f0300        517 	ld.bu	2[r18],r9
0000012c 0152            518 	mov	1,r10
0000012e e049            519 	cmp	zero,r9
00000130 e225*           520 	be	.L689
                         521 --line237
                         522 ..lin.C.3A.5C_ECU2.5CECU_Rivian_A1.5CTarget.5Crepo_projects.5CpRealEcu.5CcL_LATEST.5Cmake.5Coutput.5Cobjects.5Cprocdat.19::
                         523 .LDWlin19:
00000132 090619ff        524 	addi	-231,r9,zero
00000136 0252            525 	mov	2,r10
00000138 a225*           526 	be	.L689
                         527 --line241
                         528 ..lin.C.3A.5C_ECU2.5CECU_Rivian_A1.5CTarget.5Crepo_projects.5CpRealEcu.5CcL_LATEST.5Cmake.5Coutput.5Cobjects.5Cprocdat.20::
                         529 .LDWlin20:
0000013a 09067dff        530 	addi	-131,r9,zero
0000013e c205*           531 	be	.L698
00000140 09065dff        532 	addi	-163,r9,zero
00000144 aa1d*           533 	bne	.L697
                         534 .L698:
                         535 --line246
                         536 ..lin.C.3A.5C_ECU2.5CECU_Rivian_A1.5CTarget.5Crepo_projects.5CpRealEcu.5CcL_LATEST.5Cmake.5Coutput.5Cobjects.5Cprocdat.21::
                         537 .LDWlin21:
00000146 92370900        538 	ld.bu	8[r18],r6
0000014a 0452            539 	mov	4,r10
0000014c 060609ff        540 	addi	-247,r6,zero
00000150 e215*           541 	be	.L689
                         542 --line251
                         543 ..lin.C.3A.5C_ECU2.5CECU_Rivian_A1.5CTarget.5Crepo_projects.5CpRealEcu.5CcL_LATEST.5Cmake.5Coutput.5Cobjects.5Cprocdat.22::

                                                                      Page 11
                                                              C:\Users\nhuliyap\AppData\Local\Temp\gh_00008uc1.s
                         544 .LDWlin22:
00000152 b2470900        545 	ld.bu	9[r18],r8
00000156 8542            546 	shr	5,r8
00000158 6342            547 	cmp	3,r8
0000015a e205*           548 	be	.L705
0000015c 6542            549 	cmp	5,r8
                         550 --line265
                         551 ..lin.C.3A.5C_ECU2.5CECU_Rivian_A1.5CTarget.5Crepo_projects.5CpRealEcu.5CcL_LATEST.5Cmake.5Coutput.5Cobjects.5Cprocdat.23::
                         552 .LDWlin23:
0000015e 0052            553 	mov	0,r10
00000160 ca05*           554 	bne	.L706
                         555 --line260
                         556 ..lin.C.3A.5C_ECU2.5CECU_Rivian_A1.5CTarget.5Crepo_projects.5CpRealEcu.5CcL_LATEST.5Cmake.5Coutput.5Cobjects.5Cprocdat.24::
                         557 .LDWlin24:
00000162 0152            558 	mov	1,r10
00000164 a505*           559 	br	.L706
                         560 .L705:
                         561 --line255
                         562 ..lin.C.3A.5C_ECU2.5CECU_Rivian_A1.5CTarget.5Crepo_projects.5CpRealEcu.5CcL_LATEST.5Cmake.5Coutput.5Cobjects.5Cprocdat.25::
                         563 .LDWlin25:
00000166 0252            564 	mov	2,r10
                         565 .L706:
00000168 92870b00        566 	ld.bu	10[r18],r16
0000016c 8682            567 	shr	6,r16
0000016e 6182            568 	cmp	1,r16
00000170 ea05*           569 	bne	.L689
                         570 --line272
                         571 ..lin.C.3A.5C_ECU2.5CECU_Rivian_A1.5CTarget.5Crepo_projects.5CpRealEcu.5CcL_LATEST.5Cmake.5Coutput.5Cobjects.5Cprocdat.26::
                         572 .LDWlin26:
00000172 20561000        573 	movea	16,zero,r10
00000176 7f00            574 	jmp	[lp]
                         575 .L697:
                         576 --line278
                         577 ..lin.C.3A.5C_ECU2.5CECU_Rivian_A1.5CTarget.5Crepo_projects.5CpRealEcu.5CcL_LATEST.5Cmake.5Coutput.5Cobjects.5Cprocdat.27::
                         578 .LDWlin27:
00000178 0052            579 	mov	0,r10
0000017a 7f00            580 	jmp	[lp]
                         581 .L689:
                         582 --	    .ef
                         583 .LDW52:
                         584 --line280
                         585 ..lin.C.3A.5C_ECU2.5CECU_Rivian_A1.5CTarget.5Crepo_projects.5CpRealEcu.5CcL_LATEST.5Cmake.5Coutput.5Cobjects.5Cprocdat.28::
                         586 .LDWlin28:
0000017c 7f00            587 	jmp	[lp]
                         588 	.global	___ghs_eofn_ucGetReDataStatePD
                         589 ___ghs_eofn_ucGetReDataStatePD:
                         590 	.type	_ucGetReDataStatePD,@function
                         591 	.size	_ucGetReDataStatePD,.-_ucGetReDataStatePD
                         592 	.align	2
                         593 --_ucHelp	r10	local
                         594 
                         595 	.data
                         596 	.text
                         597 	.align	2
                         598 	.align	2
                         599 ..gh.f.f.1.e.8:
                         600 	.type	..gh.f.f.1.e.8,@object
                         601 	.size	..gh.f.f.1.e.8,0
                         602 	.global	_ucGetReDataRssiAvgPD
                         603 _ucGetReDataRssiAvgPD:
                         604 --	    .bf

                                                                      Page 12
                                                              C:\Users\nhuliyap\AppData\Local\Temp\gh_00008uc1.s
                         605 .LDW62:
0000017e 40560000*       606 	movhi	hi(_tReDataPD+16),zero,r10
00000182 8a570100*       607 	ld.bu	lo(_tReDataPD+16)[r10],r10
                         608 --	    .ef
                         609 .LDW72:
                         610 --line312
                         611 ..lin.C.3A.5C_ECU2.5CECU_Rivian_A1.5CTarget.5Crepo_projects.5CpRealEcu.5CcL_LATEST.5Cmake.5Coutput.5Cobjects.5Cprocdat.29::
                         612 .LDWlin29:
00000186 7f00            613 	jmp	[lp]
                         614 	.global	___ghs_eofn_ucGetReDataRssiAvgPD
                         615 ___ghs_eofn_ucGetReDataRssiAvgPD:
                         616 	.type	_ucGetReDataRssiAvgPD,@function
                         617 	.size	_ucGetReDataRssiAvgPD,.-_ucGetReDataRssiAvgPD
                         618 	.align	2
                         619 
                         620 	.data
                         621 	.text
                         622 	.align	2
                         623 	.align	2
                         624 ..gh.f.f.1.e.9:
                         625 	.type	..gh.f.f.1.e.9,@object
                         626 	.size	..gh.f.f.1.e.9,0
                         627 	.global	_ucGetReDataTelTypePD
                         628 _ucGetReDataTelTypePD:
                         629 --	    .bf
                         630 .LDW82:
00000188 40560000*       631 	movhi	hi(_tReDataPD+2),zero,r10
0000018c 8a570100*       632 	ld.bu	lo(_tReDataPD+2)[r10],r10
                         633 --	    .ef
                         634 .LDW92:
                         635 --line316
                         636 ..lin.C.3A.5C_ECU2.5CECU_Rivian_A1.5CTarget.5Crepo_projects.5CpRealEcu.5CcL_LATEST.5Cmake.5Coutput.5Cobjects.5Cprocdat.30::
                         637 .LDWlin30:
00000190 7f00            638 	jmp	[lp]
                         639 	.global	___ghs_eofn_ucGetReDataTelTypePD
                         640 ___ghs_eofn_ucGetReDataTelTypePD:
                         641 	.type	_ucGetReDataTelTypePD,@function
                         642 	.size	_ucGetReDataTelTypePD,.-_ucGetReDataTelTypePD
                         643 	.align	2
                         644 
                         645 	.data
                         646 	.text
                         647 	.align	2
                         648 	.align	2
                         649 ..gh.f.f.1.e.10:
                         650 	.type	..gh.f.f.1.e.10,@object
                         651 	.size	..gh.f.f.1.e.10,0
                         652 	.global	_ucGetReDataTGCounter
                         653 _ucGetReDataTGCounter:
00000192 320600000000*   654 	mov	_tReDataPD,r18
                         655 --	    .bf
                         656 .LDW03:
                         657 --line330
                         658 ..lin.C.3A.5C_ECU2.5CECU_Rivian_A1.5CTarget.5Crepo_projects.5CpRealEcu.5CcL_LATEST.5Cmake.5Coutput.5Cobjects.5Cprocdat.31::
                         659 .LDWlin31:
00000198 924f0300        660 	ld.bu	2[r18],r9
0000019c 09067dff        661 	addi	-131,r9,zero
000001a0 c205*           662 	be	.L1080
000001a2 09065dff        663 	addi	-163,r9,zero
000001a6 ea05*           664 	bne	.L1079
                         665 .L1080:

                                                                      Page 13
                                                              C:\Users\nhuliyap\AppData\Local\Temp\gh_00008uc1.s
                         666 --line335
                         667 ..lin.C.3A.5C_ECU2.5CECU_Rivian_A1.5CTarget.5Crepo_projects.5CpRealEcu.5CcL_LATEST.5Cmake.5Coutput.5Cobjects.5Cprocdat.32::
                         668 .LDWlin32:
000001a8 b23f0900        669 	ld.bu	9[r18],r7
000001ac c7561f00        670 	andi	31,r7,r10
000001b0 7f00            671 	jmp	[lp]
                         672 .L1079:
                         673 --line338
                         674 ..lin.C.3A.5C_ECU2.5CECU_Rivian_A1.5CTarget.5Crepo_projects.5CpRealEcu.5CcL_LATEST.5Cmake.5Coutput.5Cobjects.5Cprocdat.33::
                         675 .LDWlin33:
000001b2 0052            676 	mov	0,r10
                         677 --	    .ef
                         678 .LDW13:
000001b4 7f00            679 	jmp	[lp]
                         680 	.global	___ghs_eofn_ucGetReDataTGCounter
                         681 ___ghs_eofn_ucGetReDataTGCounter:
                         682 	.type	_ucGetReDataTGCounter,@function
                         683 	.size	_ucGetReDataTGCounter,.-_ucGetReDataTGCounter
                         684 	.align	2
                         685 --_ucHelp	r10	local
                         686 
                         687 	.data
                         688 	.text
                         689 	.align	2
                         690 	.align	2
                         691 ..gh.f.f.1.e.11:
                         692 	.type	..gh.f.f.1.e.11,@object
                         693 	.size	..gh.f.f.1.e.11,0
                         694 	.global	_pGetCurTel
                         695 _pGetCurTel:
                         696 --	    .bf
                         697 .LDW23:
000001b6 2a0600000000*   698 	mov	_tReDataPD,r10
                         699 --	    .ef
                         700 .LDW33:
                         701 --line344
                         702 ..lin.C.3A.5C_ECU2.5CECU_Rivian_A1.5CTarget.5Crepo_projects.5CpRealEcu.5CcL_LATEST.5Cmake.5Coutput.5Cobjects.5Cprocdat.34::
                         703 .LDWlin34:
000001bc 7f00            704 	jmp	[lp]
                         705 	.global	___ghs_eofn_pGetCurTel
                         706 ___ghs_eofn_pGetCurTel:
                         707 	.type	_pGetCurTel,@function
                         708 	.size	_pGetCurTel,.-_pGetCurTel
                         709 	.align	2
                         710 
                         711 	.data
                         712 	.text
                         713 	.align	2
                         714 	.align	2
                         715 ..gh.f.f.1.e.12:
                         716 	.type	..gh.f.f.1.e.12,@object
                         717 	.size	..gh.f.f.1.e.12,0
                         718 	.global	_ulGetReDataPreProcIdPD
                         719 _ulGetReDataPreProcIdPD:
000001be 40560000*       720 	movhi	hi(_tReDataPreProcPD),zero,r10
                         721 --	    .bf
                         722 .LDW43:
                         723 --line350
                         724 ..lin.C.3A.5C_ECU2.5CECU_Rivian_A1.5CTarget.5Crepo_projects.5CpRealEcu.5CcL_LATEST.5Cmake.5Coutput.5Cobjects.5Cprocdat.35::
                         725 .LDWlin35:
000001c2 2a570100*       726 	ld.w	lo(_tReDataPreProcPD)[r10],r10

                                                                      Page 14
                                                              C:\Users\nhuliyap\AppData\Local\Temp\gh_00008uc1.s
                         727 --	    .ef
                         728 .LDW53:
000001c6 7f00            729 	jmp	[lp]
                         730 	.global	___ghs_eofn_ulGetReDataPreProcIdPD
                         731 ___ghs_eofn_ulGetReDataPreProcIdPD:
                         732 	.type	_ulGetReDataPreProcIdPD,@function
                         733 	.size	_ulGetReDataPreProcIdPD,.-_ulGetReDataPreProcIdPD
                         734 	.align	2
                         735 
                         736 	.data
                         737 	.text
                         738 	.align	2
                         739 	.align	2
                         740 ..gh.f.f.1.e.13:
                         741 	.type	..gh.f.f.1.e.13,@object
                         742 	.size	..gh.f.f.1.e.13,0
                         743 	.global	_PutReDataPreProcIdPD
                         744 _PutReDataPreProcIdPD:
000001c8 40960000*       745 	movhi	hi(_tReDataPreProcPD),zero,r18
                         746 --	    .bf
                         747 .LDW63:
                         748 --line355
                         749 ..lin.C.3A.5C_ECU2.5CECU_Rivian_A1.5CTarget.5Crepo_projects.5CpRealEcu.5CcL_LATEST.5Cmake.5Coutput.5Cobjects.5Cprocdat.36::
                         750 .LDWlin36:
000001cc 72370100*       751 	st.w	r6,lo(_tReDataPreProcPD)[r18]
                         752 --	    .ef
                         753 .LDW73:
000001d0 7f00            754 	jmp	[lp]
                         755 	.global	___ghs_eofn_PutReDataPreProcIdPD
                         756 ___ghs_eofn_PutReDataPreProcIdPD:
                         757 	.type	_PutReDataPreProcIdPD,@function
                         758 	.size	_PutReDataPreProcIdPD,.-_PutReDataPreProcIdPD
                         759 	.align	2
                         760 
                         761 --_ulID	r6	param
                         762 
                         763 	.data
                         764 	.text
                         765 	.align	2
                         766 	.align	2
                         767 ..gh.f.f.1.e.14:
                         768 	.type	..gh.f.f.1.e.14,@object
                         769 	.size	..gh.f.f.1.e.14,0
                         770 	.global	_ucGetReDataPreProcPressurePD
                         771 _ucGetReDataPreProcPressurePD:
000001d2 2a0600000000*   772 	mov	_tReDataPreProcPD,r10
                         773 --	    .bf
                         774 .LDW83:
                         775 --line360
                         776 ..lin.C.3A.5C_ECU2.5CECU_Rivian_A1.5CTarget.5Crepo_projects.5CpRealEcu.5CcL_LATEST.5Cmake.5Coutput.5Cobjects.5Cprocdat.37::
                         777 .LDWlin37:
000001d8 8a570500        778 	ld.bu	4[r10],r10
                         779 --	    .ef
                         780 .LDW93:
000001dc 7f00            781 	jmp	[lp]
                         782 	.global	___ghs_eofn_ucGetReDataPreProcPressurePD
                         783 ___ghs_eofn_ucGetReDataPreProcPressurePD:
                         784 	.type	_ucGetReDataPreProcPressurePD,@function
                         785 	.size	_ucGetReDataPreProcPressurePD,.-_ucGetReDataPreProcPressurePD
                         786 	.align	2
                         787 

                                                                      Page 15
                                                              C:\Users\nhuliyap\AppData\Local\Temp\gh_00008uc1.s
                         788 	.data
                         789 	.text
                         790 	.align	2
                         791 	.align	2
                         792 ..gh.f.f.1.e.15:
                         793 	.type	..gh.f.f.1.e.15,@object
                         794 	.size	..gh.f.f.1.e.15,0
                         795 	.global	_PutReDataPreProcPressurePD
                         796 _PutReDataPreProcPressurePD:
000001de 320600000000*   797 	mov	_tReDataPreProcPD,r18
                         798 --	    .bf
                         799 .LDW04:
                         800 --line365
                         801 ..lin.C.3A.5C_ECU2.5CECU_Rivian_A1.5CTarget.5Crepo_projects.5CpRealEcu.5CcL_LATEST.5Cmake.5Coutput.5Cobjects.5Cprocdat.38::
                         802 .LDWlin38:
000001e4 52370400        803 	st.b	r6,4[r18]
                         804 --	    .ef
                         805 .LDW14:
000001e8 7f00            806 	jmp	[lp]
                         807 	.global	___ghs_eofn_PutReDataPreProcPressurePD
                         808 ___ghs_eofn_PutReDataPreProcPressurePD:
                         809 	.type	_PutReDataPreProcPressurePD,@function
                         810 	.size	_PutReDataPreProcPressurePD,.-_PutReDataPreProcPressurePD
                         811 	.align	2
                         812 
                         813 --_ucPressure	r6	param
                         814 
                         815 	.data
                         816 	.text
                         817 	.align	2
                         818 	.align	2
                         819 ..gh.f.f.1.e.16:
                         820 	.type	..gh.f.f.1.e.16,@object
                         821 	.size	..gh.f.f.1.e.16,0
                         822 	.global	_scGetReDataPreProcTemperaturePD
                         823 _scGetReDataPreProcTemperaturePD:
000001ea 2a0600000000*   824 	mov	_tReDataPreProcPD,r10
                         825 --	    .bf
                         826 .LDW24:
                         827 --line370
                         828 ..lin.C.3A.5C_ECU2.5CECU_Rivian_A1.5CTarget.5Crepo_projects.5CpRealEcu.5CcL_LATEST.5Cmake.5Coutput.5Cobjects.5Cprocdat.39::
                         829 .LDWlin39:
000001f0 0a570500        830 	ld.b	5[r10],r10
                         831 --	    .ef
                         832 .LDW34:
000001f4 7f00            833 	jmp	[lp]
                         834 	.global	___ghs_eofn_scGetReDataPreProcTemperaturePD
                         835 ___ghs_eofn_scGetReDataPreProcTemperaturePD:
                         836 	.type	_scGetReDataPreProcTemperaturePD,@function
                         837 	.size	_scGetReDataPreProcTemperaturePD,.-_scGetReDataPreProcTemperaturePD
                         838 	.align	2
                         839 
                         840 	.data
                         841 	.text
                         842 	.align	2
                         843 	.align	2
                         844 ..gh.f.f.1.e.17:
                         845 	.type	..gh.f.f.1.e.17,@object
                         846 	.size	..gh.f.f.1.e.17,0
                         847 	.global	_PutReDataPreProcTemperaturePD
                         848 _PutReDataPreProcTemperaturePD:

                                                                      Page 16
                                                              C:\Users\nhuliyap\AppData\Local\Temp\gh_00008uc1.s
000001f6 320600000000*   849 	mov	_tReDataPreProcPD,r18
                         850 --	    .bf
                         851 .LDW44:
                         852 --line375
                         853 ..lin.C.3A.5C_ECU2.5CECU_Rivian_A1.5CTarget.5Crepo_projects.5CpRealEcu.5CcL_LATEST.5Cmake.5Coutput.5Cobjects.5Cprocdat.40::
                         854 .LDWlin40:
000001fc 52370500        855 	st.b	r6,5[r18]
                         856 --	    .ef
                         857 .LDW54:
00000200 7f00            858 	jmp	[lp]
                         859 	.global	___ghs_eofn_PutReDataPreProcTemperaturePD
                         860 ___ghs_eofn_PutReDataPreProcTemperaturePD:
                         861 	.type	_PutReDataPreProcTemperaturePD,@function
                         862 	.size	_PutReDataPreProcTemperaturePD,.-_PutReDataPreProcTemperaturePD
                         863 	.align	2
                         864 
                         865 --_scTemperature	r6	param
                         866 
                         867 	.data
                         868 	.text
                         869 	.align	2
                         870 	.align	2
                         871 ..gh.f.f.1.e.18:
                         872 	.type	..gh.f.f.1.e.18,@object
                         873 	.size	..gh.f.f.1.e.18,0
                         874 	.global	_ucGetReDataPreProcRemainingLifeTimePD
                         875 _ucGetReDataPreProcRemainingLifeTimePD:
00000202 2a0600000000*   876 	mov	_tReDataPreProcPD,r10
                         877 --	    .bf
                         878 .LDW64:
                         879 --line380
                         880 ..lin.C.3A.5C_ECU2.5CECU_Rivian_A1.5CTarget.5Crepo_projects.5CpRealEcu.5CcL_LATEST.5Cmake.5Coutput.5Cobjects.5Cprocdat.41::
                         881 .LDWlin41:
00000208 8a570700        882 	ld.bu	6[r10],r10
                         883 --	    .ef
                         884 .LDW74:
0000020c 7f00            885 	jmp	[lp]
                         886 	.global	___ghs_eofn_ucGetReDataPreProcRemainingLifeTimePD
                         887 ___ghs_eofn_ucGetReDataPreProcRemainingLifeTimePD:
                         888 	.type	_ucGetReDataPreProcRemainingLifeTimePD,@function
                         889 	.size	_ucGetReDataPreProcRemainingLifeTimePD,.-_ucGetReDataPreProcRemainingLifeTimePD
                         890 	.align	2
                         891 
                         892 	.data
                         893 	.text
                         894 	.align	2
                         895 	.align	2
                         896 ..gh.f.f.1.e.19:
                         897 	.type	..gh.f.f.1.e.19,@object
                         898 	.size	..gh.f.f.1.e.19,0
                         899 	.global	_PutReDataPreProcRemainingLifeTimePD
                         900 _PutReDataPreProcRemainingLifeTimePD:
0000020e 320600000000*   901 	mov	_tReDataPreProcPD,r18
                         902 --	    .bf
                         903 .LDW84:
                         904 --line385
                         905 ..lin.C.3A.5C_ECU2.5CECU_Rivian_A1.5CTarget.5Crepo_projects.5CpRealEcu.5CcL_LATEST.5Cmake.5Coutput.5Cobjects.5Cprocdat.42::
                         906 .LDWlin42:
00000214 52370600        907 	st.b	r6,6[r18]
                         908 --	    .ef
                         909 .LDW94:

                                                                      Page 17
                                                              C:\Users\nhuliyap\AppData\Local\Temp\gh_00008uc1.s
00000218 7f00            910 	jmp	[lp]
                         911 	.global	___ghs_eofn_PutReDataPreProcRemainingLifeTimePD
                         912 ___ghs_eofn_PutReDataPreProcRemainingLifeTimePD:
                         913 	.type	_PutReDataPreProcRemainingLifeTimePD,@function
                         914 	.size	_PutReDataPreProcRemainingLifeTimePD,.-_PutReDataPreProcRemainingLifeTimePD
                         915 	.align	2
                         916 
                         917 --_ucRemainingLifeTime	r6	param
                         918 
                         919 	.data
                         920 	.text
                         921 	.align	2
                         922 	.align	2
                         923 ..gh.f.f.1.e.20:
                         924 	.type	..gh.f.f.1.e.20,@object
                         925 	.size	..gh.f.f.1.e.20,0
                         926 	.global	_ucGetReDataPreProcTransModePD
                         927 _ucGetReDataPreProcTransModePD:
0000021a 2a0600000000*   928 	mov	_tReDataPreProcPD,r10
                         929 --	    .bf
                         930 .LDW05:
                         931 --line390
                         932 ..lin.C.3A.5C_ECU2.5CECU_Rivian_A1.5CTarget.5Crepo_projects.5CpRealEcu.5CcL_LATEST.5Cmake.5Coutput.5Cobjects.5Cprocdat.43::
                         933 .LDWlin43:
00000220 aa570700        934 	ld.bu	7[r10],r10
                         935 --	    .ef
                         936 .LDW15:
00000224 7f00            937 	jmp	[lp]
                         938 	.global	___ghs_eofn_ucGetReDataPreProcTransModePD
                         939 ___ghs_eofn_ucGetReDataPreProcTransModePD:
                         940 	.type	_ucGetReDataPreProcTransModePD,@function
                         941 	.size	_ucGetReDataPreProcTransModePD,.-_ucGetReDataPreProcTransModePD
                         942 	.align	2
                         943 
                         944 	.data
                         945 	.text
                         946 	.align	2
                         947 	.align	2
                         948 ..gh.f.f.1.e.21:
                         949 	.type	..gh.f.f.1.e.21,@object
                         950 	.size	..gh.f.f.1.e.21,0
                         951 	.global	_PutReDataPreProcTransModePD
                         952 _PutReDataPreProcTransModePD:
00000226 320600000000*   953 	mov	_tReDataPreProcPD,r18
                         954 --	    .bf
                         955 .LDW25:
                         956 --line395
                         957 ..lin.C.3A.5C_ECU2.5CECU_Rivian_A1.5CTarget.5Crepo_projects.5CpRealEcu.5CcL_LATEST.5Cmake.5Coutput.5Cobjects.5Cprocdat.44::
                         958 .LDWlin44:
0000022c 52370700        959 	st.b	r6,7[r18]
                         960 --	    .ef
                         961 .LDW35:
00000230 7f00            962 	jmp	[lp]
                         963 	.global	___ghs_eofn_PutReDataPreProcTransModePD
                         964 ___ghs_eofn_PutReDataPreProcTransModePD:
                         965 	.type	_PutReDataPreProcTransModePD,@function
                         966 	.size	_PutReDataPreProcTransModePD,.-_PutReDataPreProcTransModePD
                         967 	.align	2
                         968 
                         969 --_ucTransMode	r6	param
                         970 

                                                                      Page 18
                                                              C:\Users\nhuliyap\AppData\Local\Temp\gh_00008uc1.s
                         971 	.data
                         972 	.text
                         973 	.align	2
                         974 	.align	2
                         975 ..gh.f.f.1.e.22:
                         976 	.type	..gh.f.f.1.e.22,@object
                         977 	.size	..gh.f.f.1.e.22,0
                         978 	.global	_ushGetReDataPreProcSensorDefectPD
                         979 _ushGetReDataPreProcSensorDefectPD:
00000232 2a0600000000*   980 	mov	_tReDataPreProcPD,r10
                         981 --	    .bf
                         982 .LDW45:
                         983 --line400
                         984 ..lin.C.3A.5C_ECU2.5CECU_Rivian_A1.5CTarget.5Crepo_projects.5CpRealEcu.5CcL_LATEST.5Cmake.5Coutput.5Cobjects.5Cprocdat.45::
                         985 .LDWlin45:
00000238 ea570900        986 	ld.hu	8[r10],r10
                         987 --	    .ef
                         988 .LDW55:
0000023c 7f00            989 	jmp	[lp]
                         990 	.global	___ghs_eofn_ushGetReDataPreProcSensorDefectPD
                         991 ___ghs_eofn_ushGetReDataPreProcSensorDefectPD:
                         992 	.type	_ushGetReDataPreProcSensorDefectPD,@function
                         993 	.size	_ushGetReDataPreProcSensorDefectPD,.-_ushGetReDataPreProcSensorDefectPD
                         994 	.align	2
                         995 
                         996 	.data
                         997 	.text
                         998 	.align	2
                         999 	.align	2
                        1000 ..gh.f.f.1.e.23:
                        1001 	.type	..gh.f.f.1.e.23,@object
                        1002 	.size	..gh.f.f.1.e.23,0
                        1003 	.global	_PutReDataPreProcSensorDefectPD
                        1004 _PutReDataPreProcSensorDefectPD:
0000023e 320600000000*  1005 	mov	_tReDataPreProcPD,r18
                        1006 --	    .bf
                        1007 .LDW65:
                        1008 --line405
                        1009 ..lin.C.3A.5C_ECU2.5CECU_Rivian_A1.5CTarget.5Crepo_projects.5CpRealEcu.5CcL_LATEST.5Cmake.5Coutput.5Cobjects.5Cprocdat.46::
                        1010 .LDWlin46:
00000244 72370800       1011 	st.h	r6,8[r18]
                        1012 --	    .ef
                        1013 .LDW75:
00000248 7f00           1014 	jmp	[lp]
                        1015 	.global	___ghs_eofn_PutReDataPreProcSensorDefectPD
                        1016 ___ghs_eofn_PutReDataPreProcSensorDefectPD:
                        1017 	.type	_PutReDataPreProcSensorDefectPD,@function
                        1018 	.size	_PutReDataPreProcSensorDefectPD,.-_PutReDataPreProcSensorDefectPD
                        1019 	.align	2
                        1020 
                        1021 --_ushSensorDefect	r6	param
                        1022 
                        1023 	.data
                        1024 	.text
                        1025 	.align	2
                        1026 	.align	2
                        1027 ..gh.f.f.1.e.24:
                        1028 	.type	..gh.f.f.1.e.24,@object
                        1029 	.size	..gh.f.f.1.e.24,0
                        1030 	.global	_ucGetSlotNoAtPosPD
                        1031 _ucGetSlotNoAtPosPD:

                                                                      Page 19
                                                              C:\Users\nhuliyap\AppData\Local\Temp\gh_00008uc1.s
0000024a 8007e110       1032 	prepare	{r27,r28,r29,r31},0
0000024e 06d8           1033 	mov	r6,r27
00000250 9b00           1034 	zxb	r27
                        1035 --	    .bf
                        1036 .LDW85:
00000252 20361000       1037 	movea	16,zero,r6
                        1038 	jarl	_bGetBitBetriebszustandBZ,lp
                        1038 <EXPANSION BEGIN>
                        1038 jarl22 _bGetBitBetriebszustandBZ , lp 
00000256 80ff0000*      1038 <EXPANSION END>
                        1039 --line484
                        1040 ..lin.C.3A.5C_ECU2.5CECU_Rivian_A1.5CTarget.5Crepo_projects.5CpRealEcu.5CcL_LATEST.5Cmake.5Coutput.5Cobjects.5Cprocdat.47::
                        1041 .LDWlin47:
0000025a 04e2           1042 	mov	4,r28
0000025c 6152           1043 	cmp	1,r10
0000025e 8a0d*          1044 	bne	.L1821
00000260 00ea           1045 	mov	0,r29
                        1046 .L1816:
                        1047 --line493
                        1048 ..lin.C.3A.5C_ECU2.5CECU_Rivian_A1.5CTarget.5Crepo_projects.5CpRealEcu.5CcL_LATEST.5Cmake.5Coutput.5Cobjects.5Cprocdat.48::
                        1049 .LDWlin48:
00000262 1d30           1050 	mov	r29,r6
                        1051 	jarl	_ucGetRadPosAtSlotPDIF,lp
                        1051 <EXPANSION BEGIN>
                        1051 jarl22 _ucGetRadPosAtSlotPDIF , lp 
00000264 80ff0000*      1051 <EXPANSION END>
00000268 fb51           1052 	cmp	r27,r10
                        1053 --line496
                        1054 ..lin.C.3A.5C_ECU2.5CECU_Rivian_A1.5CTarget.5Crepo_projects.5CpRealEcu.5CcL_LATEST.5Cmake.5Coutput.5Cobjects.5Cprocdat.49::
                        1055 .LDWlin49:
0000026a da05*          1056 	bne	.L1817
0000026c 1de0           1057 	mov	r29,r28
                        1058 .L1821:
                        1059 --line504
                        1060 ..lin.C.3A.5C_ECU2.5CECU_Rivian_A1.5CTarget.5Crepo_projects.5CpRealEcu.5CcL_LATEST.5Cmake.5Coutput.5Cobjects.5Cprocdat.50::
                        1061 .LDWlin50:
0000026e 1c50           1062 	mov	r28,r10
                        1063 --	    .ef
                        1064 .LDW95:
00000270 4006ff10       1065 	dispose	0,{r27,r28,r29,r31},[lp]
                        1066 .L1817:
                        1067 --line491
                        1068 ..lin.C.3A.5C_ECU2.5CECU_Rivian_A1.5CTarget.5Crepo_projects.5CpRealEcu.5CcL_LATEST.5Cmake.5Coutput.5Cobjects.5Cprocdat.51::
                        1069 .LDWlin51:
00000274 41ea           1070 	add	1,r29
00000276 64ea           1071 	cmp	4,r29
00000278 d1f5*          1072 	bl	.L1816
0000027a a5fd*          1073 	br	.L1821
                        1074 	.global	___ghs_eofn_ucGetSlotNoAtPosPD
                        1075 ___ghs_eofn_ucGetSlotNoAtPosPD:
                        1076 	.type	_ucGetSlotNoAtPosPD,@function
                        1077 	.size	_ucGetSlotNoAtPosPD,.-_ucGetSlotNoAtPosPD
                        1078 	.align	2
                        1079 --_ucLoop	r29	local
                        1080 --_ucRet	r28	local
                        1081 
                        1082 --_ucRadPos	r27	param
                        1083 
                        1084 	.section ".bss","awb"
                        1085 .L2470:
                        1086 	.type	.L2470,@object

                                                                      Page 20
                                                              C:\Users\nhuliyap\AppData\Local\Temp\gh_00008uc1.s
                        1087 	.size	.L2470,0
                        1088 	.data
                        1089 	.text
                        1090 	.align	2
                        1091 	.align	2
                        1092 ..gh.f.f.1.e.25:
                        1093 	.type	..gh.f.f.1.e.25,@object
                        1094 	.size	..gh.f.f.1.e.25,0
                        1095 	.global	_ucGetValidTyrePressureRelAtPosPD
                        1096 _ucGetValidTyrePressureRelAtPosPD:
0000027c 80072100       1097 	prepare	{r31},0
00000280 8600           1098 	zxb	r6
                        1099 --	    .bf
                        1100 .LDW06:
                        1101 	jarl	_ucGetSlotNoAtPosPD,lp
                        1101 <EXPANSION BEGIN>
                        1101 jarl22 _ucGetSlotNoAtPosPD , lp 
00000282 bfffc8ff*      1101 <EXPANSION END>
00000286 0af0           1102 	mov	r10,ep
                        1103 --line442
                        1104 ..lin.C.3A.5C_ECU2.5CECU_Rivian_A1.5CTarget.5Crepo_projects.5CpRealEcu.5CcL_LATEST.5Cmake.5Coutput.5Cobjects.5Cprocdat.52::
                        1105 .LDWlin52:
00000288 6452           1106 	cmp	4,r10
0000028a a90d*          1107 	bnl	.L2532
                        1108 --line444
                        1109 ..lin.C.3A.5C_ECU2.5CECU_Rivian_A1.5CTarget.5Crepo_projects.5CpRealEcu.5CcL_LATEST.5Cmake.5Coutput.5Cobjects.5Cprocdat.53::
                        1110 .LDWlin53:
0000028c 330600000000*  1111 	mov	_ucReifendruckPD,r19
00000292 d3f1           1112 	add	r19,ep
00000294 6090           1113 	sld.bu	0[ep],r18
00000296 120601ff       1114 	addi	-255,r18,zero
                        1115 --line449
                        1116 ..lin.C.3A.5C_ECU2.5CECU_Rivian_A1.5CTarget.5Crepo_projects.5CpRealEcu.5CcL_LATEST.5Cmake.5Coutput.5Cobjects.5Cprocdat.54::
                        1117 .LDWlin54:
0000029a 1250           1118 	mov	r18,r10
0000029c ba05*          1119 	bne	.L2530
                        1120 .L2532:
                        1121 --line453
                        1122 ..lin.C.3A.5C_ECU2.5CECU_Rivian_A1.5CTarget.5Crepo_projects.5CpRealEcu.5CcL_LATEST.5Cmake.5Coutput.5Cobjects.5Cprocdat.55::
                        1123 .LDWlin55:
0000029e 2056ff00       1124 	movea	255,zero,r10
                        1125 .L2530:
                        1126 --	    .ef
                        1127 .LDW16:
000002a2 40063f00       1128 	dispose	0,{r31},[lp]
                        1129 	.global	___ghs_eofn_ucGetValidTyrePressureRelAtPosPD
                        1130 ___ghs_eofn_ucGetValidTyrePressureRelAtPosPD:
                        1131 	.type	_ucGetValidTyrePressureRelAtPosPD,@function
                        1132 	.size	_ucGetValidTyrePressureRelAtPosPD,.-_ucGetValidTyrePressureRelAtPosPD
                        1133 	.align	2
                        1134 --_ucRet	r10	local
                        1135 --_ucZomPos	ep	local
                        1136 
                        1137 --_ucRadPos	r6	param
                        1138 
                        1139 	.data
                        1140 	.text
                        1141 	.align	2
                        1142 	.align	2
                        1143 ..gh.f.f.1.e.26:
                        1144 	.type	..gh.f.f.1.e.26,@object

                                                                      Page 21
                                                              C:\Users\nhuliyap\AppData\Local\Temp\gh_00008uc1.s
                        1145 	.size	..gh.f.f.1.e.26,0
                        1146 	.global	_ucGetValidTemperatureRelAtPosPD
                        1147 _ucGetValidTemperatureRelAtPosPD:
000002a6 80072100       1148 	prepare	{r31},0
000002aa 8600           1149 	zxb	r6
                        1150 --	    .bf
                        1151 .LDW26:
                        1152 	jarl	_ucGetSlotNoAtPosPD,lp
                        1152 <EXPANSION BEGIN>
                        1152 jarl22 _ucGetSlotNoAtPosPD , lp 
000002ac bfff9eff*      1152 <EXPANSION END>
000002b0 0af0           1153 	mov	r10,ep
                        1154 --line466
                        1155 ..lin.C.3A.5C_ECU2.5CECU_Rivian_A1.5CTarget.5Crepo_projects.5CpRealEcu.5CcL_LATEST.5Cmake.5Coutput.5Cobjects.5Cprocdat.56::
                        1156 .LDWlin56:
000002b2 6452           1157 	cmp	4,r10
000002b4 e90d*          1158 	bnl	.L2648
                        1159 --line468
                        1160 ..lin.C.3A.5C_ECU2.5CECU_Rivian_A1.5CTarget.5Crepo_projects.5CpRealEcu.5CcL_LATEST.5Cmake.5Coutput.5Cobjects.5Cprocdat.57::
                        1161 .LDWlin57:
000002b6 330600000000*  1162 	mov	_scTemperaturPD,r19
000002bc d3f1           1163 	add	r19,ep
000002be 004b           1164 	sld.b	0[ep],r9
000002c0 090681ff       1165 	addi	-127,r9,zero
000002c4 e205*          1166 	be	.L2648
                        1167 --line473
                        1168 ..lin.C.3A.5C_ECU2.5CECU_Rivian_A1.5CTarget.5Crepo_projects.5CpRealEcu.5CcL_LATEST.5Cmake.5Coutput.5Cobjects.5Cprocdat.58::
                        1169 .LDWlin58:
000002c6 09563200       1170 	addi	50,r9,r10
000002ca 8a00           1171 	zxb	r10
000002cc 40063f00       1172 	dispose	0,{r31},[lp]
                        1173 .L2648:
                        1174 --line477
                        1175 ..lin.C.3A.5C_ECU2.5CECU_Rivian_A1.5CTarget.5Crepo_projects.5CpRealEcu.5CcL_LATEST.5Cmake.5Coutput.5Cobjects.5Cprocdat.59::
                        1176 .LDWlin59:
000002d0 2056ff00       1177 	movea	255,zero,r10
                        1178 --	    .ef
                        1179 .LDW36:
000002d4 40063f00       1180 	dispose	0,{r31},[lp]
                        1181 	.global	___ghs_eofn_ucGetValidTemperatureRelAtPosPD
                        1182 ___ghs_eofn_ucGetValidTemperatureRelAtPosPD:
                        1183 	.type	_ucGetValidTemperatureRelAtPosPD,@function
                        1184 	.size	_ucGetValidTemperatureRelAtPosPD,.-_ucGetValidTemperatureRelAtPosPD
                        1185 	.align	2
                        1186 --_ucRet	r10	local
                        1187 --_ucZomPos	ep	local
                        1188 
                        1189 --_ucRadPos	r6	param
                        1190 
                        1191 	.data
                        1192 	.text
                        1193 	.align	2
                        1194 	.align	2
                        1195 ..gh.f.f.1.e.27:
                        1196 	.type	..gh.f.f.1.e.27,@object
                        1197 	.size	..gh.f.f.1.e.27,0
                        1198 	.global	_ReadReDataFromRingBuffer_iBTCM
                        1199 _ReadReDataFromRingBuffer_iBTCM:
000002d8 8007e130       1200 	prepare	{r26,r27,r28,r29,r31},0
000002dc 06e0           1201 	mov	r6,r28
000002de 3d0600000000*  1202 	mov	_ucRecEventPD-3,r29

                                                                      Page 22
                                                              C:\Users\nhuliyap\AppData\Local\Temp\gh_00008uc1.s
                        1203 --	    .bf
                        1204 .LDW46:
                        1205 --line518
                        1206 ..lin.C.3A.5C_ECU2.5CECU_Rivian_A1.5CTarget.5Crepo_projects.5CpRealEcu.5CcL_LATEST.5Cmake.5Coutput.5Cobjects.5Cprocdat.60::
                        1207 .LDWlin60:
000002e4 86df0900       1208 	ld.bu	8[r6],r27
000002e8 01d2           1209 	mov	1,r26
000002ea 1b30           1210 	mov	r27,r6
                        1211 	jarl	_ucTelOfInterest,lp
                        1211 <EXPANSION BEGIN>
                        1211 jarl22 _ucTelOfInterest , lp 
000002ec 80ff0000*      1211 <EXPANSION END>
000002f0 e051           1212 	cmp	zero,r10
000002f2 e2076301*      1213 	be	.L2762
                        1214 --line528
                        1215 ..lin.C.3A.5C_ECU2.5CECU_Rivian_A1.5CTarget.5Crepo_projects.5CpRealEcu.5CcL_LATEST.5Cmake.5Coutput.5Cobjects.5Cprocdat.61::
                        1216 .LDWlin61:
000002f6 1cf0           1217 	mov	r28,ep
000002f8 004d           1218 	sld.w	0[ep],r9
000002fa 1b067dff       1219 	addi	-131,r27,zero
000002fe 7d4f1d00       1220 	st.w	r9,28[r29]
00000302 6440           1221 	sld.bu	4[ep],r8
00000304 5d471800       1222 	st.b	r8,24[r29]
00000308 f135*          1223 	bl	.L2886
0000030a e0d9           1224 	cmp	zero,r27
0000030c 9245*          1225 	be	.L2770
0000030e 63da           1226 	cmp	3,r27
00000310 d275*          1227 	be	.L2771
00000312 1b06e0ff       1228 	addi	-32,r27,zero
00000316 c23d*          1229 	be	.L2770
00000318 1b0680ff       1230 	addi	-128,r27,zero
0000031c ea073901*      1231 	bne	.L2762
                        1232 --line583
                        1233 ..lin.C.3A.5C_ECU2.5CECU_Rivian_A1.5CTarget.5Crepo_projects.5CpRealEcu.5CcL_LATEST.5Cmake.5Coutput.5Cobjects.5Cprocdat.62::
                        1234 .LDWlin62:
00000320 1df0           1235 	mov	r29,ep
00000322 8adb           1236 	sst.b	r27,10[ep]
00000324 bc4f0900       1237 	ld.bu	9[r28],r9
00000328 00d2           1238 	mov	0,r26
0000032a 8b4b           1239 	sst.b	r9,11[ep]
0000032c 9c470b00       1240 	ld.bu	10[r28],r8
00000330 8c43           1241 	sst.b	r8,12[ep]
00000332 bc3f0b00       1242 	ld.bu	11[r28],r7
00000336 8d3b           1243 	sst.b	r7,13[ep]
00000338 9c370d00       1244 	ld.bu	12[r28],r6
0000033c 8e33           1245 	sst.b	r6,14[ep]
0000033e bc9f0d00       1246 	ld.bu	13[r28],r19
00000342 8f9b           1247 	sst.b	r19,15[ep]
00000344 9c970f00       1248 	ld.bu	14[r28],r18
00000348 9093           1249 	sst.b	r18,16[ep]
0000034a bc8f0f00       1250 	ld.bu	15[r28],r17
0000034e 918b           1251 	sst.b	r17,17[ep]
00000350 9c871100       1252 	ld.bu	16[r28],r16
00000354 9283           1253 	sst.b	r16,18[ep]
00000356 bc7f1100       1254 	ld.bu	17[r28],r15
0000035a 937b           1255 	sst.b	r15,19[ep]
0000035c 9c771300       1256 	ld.bu	18[r28],r14
00000360 9473           1257 	sst.b	r14,20[ep]
00000362 bc6f1300       1258 	ld.bu	19[r28],r13
00000366 956b           1259 	sst.b	r13,21[ep]
00000368 9c671500       1260 	ld.bu	20[r28],r12

                                                                      Page 23
                                                              C:\Users\nhuliyap\AppData\Local\Temp\gh_00008uc1.s
0000036c 9663           1261 	sst.b	r12,22[ep]
0000036e bc5f1500       1262 	ld.bu	21[r28],r11
00000372 975b           1263 	sst.b	r11,23[ep]
00000374 c565*          1264 	br	.L2776
                        1265 .L2886:
00000376 1b067dff       1266 	addi	-131,r27,zero
0000037a a225*          1267 	be	.L2769
0000037c 1b0670ff       1268 	addi	-144,r27,zero
00000380 f205*          1269 	be	.L2770
00000382 1b065dff       1270 	addi	-163,r27,zero
00000386 c21d*          1271 	be	.L2769
00000388 1b0619ff       1272 	addi	-231,r27,zero
0000038c ca65*          1273 	bne	.L2762
                        1274 .L2770:
                        1275 --line559
                        1276 ..lin.C.3A.5C_ECU2.5CECU_Rivian_A1.5CTarget.5Crepo_projects.5CpRealEcu.5CcL_LATEST.5Cmake.5Coutput.5Cobjects.5Cprocdat.63::
                        1277 .LDWlin63:
0000038e 1df0           1278 	mov	r29,ep
00000390 8adb           1279 	sst.b	r27,10[ep]
00000392 bc670900       1280 	ld.bu	9[r28],r12
00000396 8b63           1281 	sst.b	r12,11[ep]
00000398 9c5f0b00       1282 	ld.bu	10[r28],r11
0000039c 8c5b           1283 	sst.b	r11,12[ep]
0000039e bc570b00       1284 	ld.bu	11[r28],r10
000003a2 8d53           1285 	sst.b	r10,13[ep]
000003a4 9c4f0d00       1286 	ld.bu	12[r28],r9
000003a8 8e4b           1287 	sst.b	r9,14[ep]
000003aa bc470d00       1288 	ld.bu	13[r28],r8
000003ae 8f43           1289 	sst.b	r8,15[ep]
000003b0 9c3f0f00       1290 	ld.bu	14[r28],r7
000003b4 903b           1291 	sst.b	r7,16[ep]
000003b6 bc370f00       1292 	ld.bu	15[r28],r6
000003ba 9133           1293 	sst.b	r6,17[ep]
000003bc 8545*          1294 	br	.L2776
                        1295 .L2769:
                        1296 --line547
                        1297 ..lin.C.3A.5C_ECU2.5CECU_Rivian_A1.5CTarget.5Crepo_projects.5CpRealEcu.5CcL_LATEST.5Cmake.5Coutput.5Cobjects.5Cprocdat.64::
                        1298 .LDWlin64:
000003be 1df0           1299 	mov	r29,ep
000003c0 8adb           1300 	sst.b	r27,10[ep]
000003c2 bc3f0900       1301 	ld.bu	9[r28],r7
000003c6 8b3b           1302 	sst.b	r7,11[ep]
000003c8 9c370b00       1303 	ld.bu	10[r28],r6
000003cc 8c33           1304 	sst.b	r6,12[ep]
000003ce bc9f0b00       1305 	ld.bu	11[r28],r19
000003d2 8d9b           1306 	sst.b	r19,13[ep]
000003d4 9c970d00       1307 	ld.bu	12[r28],r18
000003d8 8e93           1308 	sst.b	r18,14[ep]
000003da bc8f0d00       1309 	ld.bu	13[r28],r17
000003de 8f8b           1310 	sst.b	r17,15[ep]
000003e0 9c870f00       1311 	ld.bu	14[r28],r16
000003e4 9083           1312 	sst.b	r16,16[ep]
000003e6 bc7f0f00       1313 	ld.bu	15[r28],r15
000003ea 917b           1314 	sst.b	r15,17[ep]
000003ec 9c771100       1315 	ld.bu	16[r28],r14
000003f0 9273           1316 	sst.b	r14,18[ep]
000003f2 bc6f1100       1317 	ld.bu	17[r28],r13
000003f6 936b           1318 	sst.b	r13,19[ep]
000003f8 a525*          1319 	br	.L2776
                        1320 .L2771:
                        1321 --line569

                                                                      Page 24
                                                              C:\Users\nhuliyap\AppData\Local\Temp\gh_00008uc1.s
                        1322 ..lin.C.3A.5C_ECU2.5CECU_Rivian_A1.5CTarget.5Crepo_projects.5CpRealEcu.5CcL_LATEST.5Cmake.5Coutput.5Cobjects.5Cprocdat.65::
                        1323 .LDWlin65:
000003fa 1df0           1324 	mov	r29,ep
000003fc 8adb           1325 	sst.b	r27,10[ep]
000003fe bc9f0900       1326 	ld.bu	9[r28],r19
00000402 00d2           1327 	mov	0,r26
00000404 8b9b           1328 	sst.b	r19,11[ep]
00000406 9c970b00       1329 	ld.bu	10[r28],r18
0000040a 8c93           1330 	sst.b	r18,12[ep]
0000040c bc8f0b00       1331 	ld.bu	11[r28],r17
00000410 8d8b           1332 	sst.b	r17,13[ep]
00000412 9c870d00       1333 	ld.bu	12[r28],r16
00000416 8e83           1334 	sst.b	r16,14[ep]
00000418 bc7f0d00       1335 	ld.bu	13[r28],r15
0000041c 8f7b           1336 	sst.b	r15,15[ep]
0000041e 9c770f00       1337 	ld.bu	14[r28],r14
00000422 9073           1338 	sst.b	r14,16[ep]
00000424 bc6f0f00       1339 	ld.bu	15[r28],r13
00000428 916b           1340 	sst.b	r13,17[ep]
0000042a 9c671100       1341 	ld.bu	16[r28],r12
0000042e 9263           1342 	sst.b	r12,18[ep]
00000430 bc5f1100       1343 	ld.bu	17[r28],r11
00000434 935b           1344 	sst.b	r11,19[ep]
00000436 9c571300       1345 	ld.bu	18[r28],r10
0000043a 9453           1346 	sst.b	r10,20[ep]
                        1347 .L2776:
0000043c 3e0600000000*  1348 	mov	_ucRecEventPD,ep
00000442 6088           1349 	sld.bu	0[ep],r17
00000444 418a           1350 	add	1,r17
00000446 808b           1351 	sst.b	r17,0[ep]
                        1352 --line620
                        1353 ..lin.C.3A.5C_ECU2.5CECU_Rivian_A1.5CTarget.5Crepo_projects.5CpRealEcu.5CcL_LATEST.5Cmake.5Coutput.5Cobjects.5Cprocdat.66::
                        1354 .LDWlin66:
00000448 61d2           1355 	cmp	1,r26
0000044a ba05*          1356 	bne	.L2777
                        1357 --line622
                        1358 ..lin.C.3A.5C_ECU2.5CECU_Rivian_A1.5CTarget.5Crepo_projects.5CpRealEcu.5CcL_LATEST.5Cmake.5Coutput.5Cobjects.5Cprocdat.67::
                        1359 .LDWlin67:
                        1360 	jarl	_EvReDataSM,lp
                        1360 <EXPANSION BEGIN>
                        1360 jarl22 _EvReDataSM , lp 
0000044c 80ff0000*      1360 <EXPANSION END>
                        1361 .L2777:
                        1362 --line624
                        1363 ..lin.C.3A.5C_ECU2.5CECU_Rivian_A1.5CTarget.5Crepo_projects.5CpRealEcu.5CcL_LATEST.5Cmake.5Coutput.5Cobjects.5Cprocdat.68::
                        1364 .LDWlin68:
                        1365 	jarl	_DCM_EventDataUpdateOnRx,lp
                        1365 <EXPANSION BEGIN>
                        1365 jarl22 _DCM_EventDataUpdateOnRx , lp 
00000450 80ff0000*      1365 <EXPANSION END>
                        1366 .L2762:
                        1367 --	    .ef
                        1368 .LDW56:
                        1369 --line626
                        1370 ..lin.C.3A.5C_ECU2.5CECU_Rivian_A1.5CTarget.5Crepo_projects.5CpRealEcu.5CcL_LATEST.5Cmake.5Coutput.5Cobjects.5Cprocdat.69::
                        1371 .LDWlin69:
00000454 4006ff30       1372 	dispose	0,{r26,r27,r28,r29,r31},[lp]
                        1373 	.global	___ghs_eofn_ReadReDataFromRingBuffer_iBTCM
                        1374 ___ghs_eofn_ReadReDataFromRingBuffer_iBTCM:
                        1375 	.type	_ReadReDataFromRingBuffer_iBTCM,@function
                        1376 	.size	_ReadReDataFromRingBuffer_iBTCM,.-_ReadReDataFromRingBuffer_iBTCM

                                                                      Page 25
                                                              C:\Users\nhuliyap\AppData\Local\Temp\gh_00008uc1.s
                        1377 	.align	2
                        1378 --_l_bAnalyseTelegram	r26	local
                        1379 --_l_ucTelType	r27	local
                        1380 
                        1381 --_spRxDataIn	r28	param
                        1382 
                        1383 	.data
                        1384 	.text
                        1385 	.align	2
                        1386 	.align	2
                        1387 ..gh.f.f.1.e.28:
                        1388 	.type	..gh.f.f.1.e.28,@object
                        1389 	.size	..gh.f.f.1.e.28,0
                        1390 	.global	_RSSIBalancePD
                        1391 _RSSIBalancePD:
00000458 8600           1392 	zxb	r6
0000045a 3e0600000000*  1393 	mov	_tReDataPD+16,ep
                        1394 --	    .bf
                        1395 .LDW66:
                        1396 --line686
                        1397 ..lin.C.3A.5C_ECU2.5CECU_Rivian_A1.5CTarget.5Crepo_projects.5CpRealEcu.5CcL_LATEST.5Cmake.5Coutput.5Cobjects.5Cprocdat.70::
                        1398 .LDWlin70:
00000460 6080           1399 	sld.bu	0[ep],r16
00000462 1088           1400 	mov	r16,r17
00000464 a689           1401 	sub	r6,r17
00000466 9100           1402 	zxb	r17
00000468 e681           1403 	cmp	r6,r16
0000046a e08f068b       1404 	cmovnh	0,r17,r17
0000046e 808b           1405 	sst.b	r17,0[ep]
                        1406 --	    .ef
                        1407 .LDW76:
00000470 7f00           1408 	jmp	[lp]
                        1409 	.global	___ghs_eofn_RSSIBalancePD
                        1410 ___ghs_eofn_RSSIBalancePD:
                        1411 	.type	_RSSIBalancePD,@function
                        1412 	.size	_RSSIBalancePD,.-_RSSIBalancePD
                        1413 	.align	2
                        1414 
                        1415 --_ucOffsetVal	r6	param
                        1416 
                        1417 	.data
                        1418 	.text
                        1419 	.align	2
                        1420 	.align	2
                        1421 ..gh.f.f.1.e.29:
                        1422 	.type	..gh.f.f.1.e.29,@object
                        1423 	.size	..gh.f.f.1.e.29,0
                        1424 	.global	_ClearReDataInSlotPD
                        1425 _ClearReDataInSlotPD:
00000472 8600           1426 	zxb	r6
00000474 320600000000*  1427 	mov	_ushSensorDefectPD,r18
                        1428 --	    .bf
                        1429 .LDW86:
                        1430 --line697
                        1431 ..lin.C.3A.5C_ECU2.5CECU_Rivian_A1.5CTarget.5Crepo_projects.5CpRealEcu.5CcL_LATEST.5Cmake.5Coutput.5Cobjects.5Cprocdat.71::
                        1432 .LDWlin71:
0000047a 06f0           1433 	mov	r6,ep
0000047c d2f1           1434 	add	r18,ep
0000047e 1f9a           1435 	mov	-1,r19
00000480 207e7f00       1436 	movea	127,zero,r15
00000484 0f6a           1437 	mov	15,r13

                                                                      Page 26
                                                              C:\Users\nhuliyap\AppData\Local\Temp\gh_00008uc1.s
00000486 889b           1438 	sst.b	r19,8[ep]
00000488 8c7b           1439 	sst.b	r15,12[ep]
0000048a 906b           1440 	sst.b	r13,16[ep]
0000048c 9403           1441 	sst.b	zero,20[ep]
0000048e 989b           1442 	sst.b	r19,24[ep]
00000490 9c03           1443 	sst.b	zero,28[ep]
00000492 06f0           1444 	mov	r6,ep
00000494 c1f2           1445 	shl	1,ep
00000496 d2f1           1446 	add	r18,ep
00000498 8004           1447 	sst.h	zero,0[ep]
                        1448 --	    .ef
                        1449 .LDW96:
0000049a 7f00           1450 	jmp	[lp]
                        1451 	.global	___ghs_eofn_ClearReDataInSlotPD
                        1452 ___ghs_eofn_ClearReDataInSlotPD:
                        1453 	.type	_ClearReDataInSlotPD,@function
                        1454 	.size	_ClearReDataInSlotPD,.-_ClearReDataInSlotPD
                        1455 	.align	2
                        1456 
                        1457 --_ucZomSlot	r6	param
                        1458 
                        1459 	.data
                        1460 	.text
                        1461 	.align	2
                        1462 	.align	2
                        1463 ..gh.f.f.1.e.30:
                        1464 	.type	..gh.f.f.1.e.30,@object
                        1465 	.size	..gh.f.f.1.e.30,0
                        1466 	.global	_GETucReifendruckPD
                        1467 _GETucReifendruckPD:
0000049c 06f0           1468 	mov	r6,ep
0000049e 9e00           1469 	zxb	ep
                        1470 --	    .bf
                        1471 .LDW07:
000004a0 330600000000*  1472 	mov	_ucReifendruckPD,r19
000004a6 d3f1           1473 	add	r19,ep
000004a8 6050           1474 	sld.bu	0[ep],r10
                        1475 --	    .ef
                        1476 .LDW17:
                        1477 --line717
                        1478 ..lin.C.3A.5C_ECU2.5CECU_Rivian_A1.5CTarget.5Crepo_projects.5CpRealEcu.5CcL_LATEST.5Cmake.5Coutput.5Cobjects.5Cprocdat.72::
                        1479 .LDWlin72:
000004aa 7f00           1480 	jmp	[lp]
                        1481 	.global	___ghs_eofn_GETucReifendruckPD
                        1482 ___ghs_eofn_GETucReifendruckPD:
                        1483 	.type	_GETucReifendruckPD,@function
                        1484 	.size	_GETucReifendruckPD,.-_GETucReifendruckPD
                        1485 	.align	2
                        1486 
                        1487 --_ucZomSlot	r6	param
                        1488 
                        1489 	.data
                        1490 	.text
                        1491 	.align	2
                        1492 	.align	2
                        1493 ..gh.f.f.1.e.31:
                        1494 	.type	..gh.f.f.1.e.31,@object
                        1495 	.size	..gh.f.f.1.e.31,0
                        1496 	.global	_PUTucReifendruckPD
                        1497 _PUTucReifendruckPD:
000004ac 80077b000000*  1498 	prepare	{r29,r31},0,_ucReifendruckPD

                                                                      Page 27
                                                              C:\Users\nhuliyap\AppData\Local\Temp\gh_00008uc1.s
000004b2 0000*
000004b4 06e8           1499 	mov	r6,r29
000004b6 9d00           1500 	zxb	r29
000004b8 c736ff00       1501 	andi	255,r7,r6
                        1502 --	    .bf
                        1503 .LDW27:
000004bc c6f1           1504 	add	r6,ep
000004be 80eb           1505 	sst.b	r29,0[ep]
                        1506 	jarl	_ucGetWPOfCol,lp
                        1506 <EXPANSION BEGIN>
                        1506 jarl22 _ucGetWPOfCol , lp 
000004c0 80ff0000*      1506 <EXPANSION END>
                        1507 --line728
                        1508 ..lin.C.3A.5C_ECU2.5CECU_Rivian_A1.5CTarget.5Crepo_projects.5CpRealEcu.5CcL_LATEST.5Cmake.5Coutput.5Cobjects.5Cprocdat.73::
                        1509 .LDWlin73:
000004c4 6152           1510 	cmp	1,r10
000004c6 a10d*          1511 	bl	.L3241
000004c8 e20d*          1512 	be	.L3242
000004ca 6352           1513 	cmp	3,r10
000004cc 9115*          1514 	bl	.L3243
000004ce ba15*          1515 	bne	.L3237
                        1516 --line743
                        1517 ..lin.C.3A.5C_ECU2.5CECU_Rivian_A1.5CTarget.5Crepo_projects.5CpRealEcu.5CcL_LATEST.5Cmake.5Coutput.5Cobjects.5Cprocdat.74::
                        1518 .LDWlin74:
000004d0 1d30           1519 	mov	r29,r6
                        1520 	jarl	_NvM_WriteData_PressureRR,lp
                        1520 <EXPANSION BEGIN>
                        1520 jarl22 _NvM_WriteData_PressureRR , lp 
000004d2 80ff0000*      1520 <EXPANSION END>
                        1521 --line744
                        1522 ..lin.C.3A.5C_ECU2.5CECU_Rivian_A1.5CTarget.5Crepo_projects.5CpRealEcu.5CcL_LATEST.5Cmake.5Coutput.5Cobjects.5Cprocdat.75::
                        1523 .LDWlin75:
000004d6 40067f00       1524 	dispose	0,{r29,r31},[lp]
                        1525 .L3241:
                        1526 --line731
                        1527 ..lin.C.3A.5C_ECU2.5CECU_Rivian_A1.5CTarget.5Crepo_projects.5CpRealEcu.5CcL_LATEST.5Cmake.5Coutput.5Cobjects.5Cprocdat.76::
                        1528 .LDWlin76:
000004da 1d30           1529 	mov	r29,r6
                        1530 	jarl	_NvM_WriteData_PressureFL,lp
                        1530 <EXPANSION BEGIN>
                        1530 jarl22 _NvM_WriteData_PressureFL , lp 
000004dc 80ff0000*      1530 <EXPANSION END>
                        1531 --line732
                        1532 ..lin.C.3A.5C_ECU2.5CECU_Rivian_A1.5CTarget.5Crepo_projects.5CpRealEcu.5CcL_LATEST.5Cmake.5Coutput.5Cobjects.5Cprocdat.77::
                        1533 .LDWlin77:
000004e0 40067f00       1534 	dispose	0,{r29,r31},[lp]
                        1535 .L3242:
                        1536 --line735
                        1537 ..lin.C.3A.5C_ECU2.5CECU_Rivian_A1.5CTarget.5Crepo_projects.5CpRealEcu.5CcL_LATEST.5Cmake.5Coutput.5Cobjects.5Cprocdat.78::
                        1538 .LDWlin78:
000004e4 1d30           1539 	mov	r29,r6
                        1540 	jarl	_NvM_WriteData_PressureFR,lp
                        1540 <EXPANSION BEGIN>
                        1540 jarl22 _NvM_WriteData_PressureFR , lp 
000004e6 80ff0000*      1540 <EXPANSION END>
                        1541 --line736
                        1542 ..lin.C.3A.5C_ECU2.5CECU_Rivian_A1.5CTarget.5Crepo_projects.5CpRealEcu.5CcL_LATEST.5Cmake.5Coutput.5Cobjects.5Cprocdat.79::
                        1543 .LDWlin79:
000004ea 40067f00       1544 	dispose	0,{r29,r31},[lp]
                        1545 .L3243:
                        1546 --line739

                                                                      Page 28
                                                              C:\Users\nhuliyap\AppData\Local\Temp\gh_00008uc1.s
                        1547 ..lin.C.3A.5C_ECU2.5CECU_Rivian_A1.5CTarget.5Crepo_projects.5CpRealEcu.5CcL_LATEST.5Cmake.5Coutput.5Cobjects.5Cprocdat.80::
                        1548 .LDWlin80:
000004ee 1d30           1549 	mov	r29,r6
                        1550 	jarl	_NvM_WriteData_PressureRL,lp
                        1550 <EXPANSION BEGIN>
                        1550 jarl22 _NvM_WriteData_PressureRL , lp 
000004f0 80ff0000*      1550 <EXPANSION END>
                        1551 .L3237:
                        1552 --	    .ef
                        1553 .LDW37:
                        1554 --line749
                        1555 ..lin.C.3A.5C_ECU2.5CECU_Rivian_A1.5CTarget.5Crepo_projects.5CpRealEcu.5CcL_LATEST.5Cmake.5Coutput.5Cobjects.5Cprocdat.81::
                        1556 .LDWlin81:
000004f4 40067f00       1557 	dispose	0,{r29,r31},[lp]
                        1558 	.global	___ghs_eofn_PUTucReifendruckPD
                        1559 ___ghs_eofn_PUTucReifendruckPD:
                        1560 	.type	_PUTucReifendruckPD,@function
                        1561 	.size	_PUTucReifendruckPD,.-_PUTucReifendruckPD
                        1562 	.align	2
                        1563 
                        1564 --_ucInData	r29	param
                        1565 --_ucZomSlot	r7	param
                        1566 
                        1567 	.data
                        1568 	.text
                        1569 	.align	2
                        1570 	.align	2
                        1571 ..gh.f.f.1.e.32:
                        1572 	.type	..gh.f.f.1.e.32,@object
                        1573 	.size	..gh.f.f.1.e.32,0
                        1574 	.global	_GETscTemperaturPD
                        1575 _GETscTemperaturPD:
000004f8 06f0           1576 	mov	r6,ep
000004fa 9e00           1577 	zxb	ep
                        1578 --	    .bf
                        1579 .LDW47:
000004fc 330600000000*  1580 	mov	_scTemperaturPD,r19
00000502 d3f1           1581 	add	r19,ep
00000504 0053           1582 	sld.b	0[ep],r10
                        1583 --	    .ef
                        1584 .LDW57:
                        1585 --line752
                        1586 ..lin.C.3A.5C_ECU2.5CECU_Rivian_A1.5CTarget.5Crepo_projects.5CpRealEcu.5CcL_LATEST.5Cmake.5Coutput.5Cobjects.5Cprocdat.82::
                        1587 .LDWlin82:
00000506 7f00           1588 	jmp	[lp]
                        1589 	.global	___ghs_eofn_GETscTemperaturPD
                        1590 ___ghs_eofn_GETscTemperaturPD:
                        1591 	.type	_GETscTemperaturPD,@function
                        1592 	.size	_GETscTemperaturPD,.-_GETscTemperaturPD
                        1593 	.align	2
                        1594 
                        1595 --_ucZomSlot	r6	param
                        1596 
                        1597 	.data
                        1598 	.text
                        1599 	.align	2
                        1600 	.align	2
                        1601 ..gh.f.f.1.e.33:
                        1602 	.type	..gh.f.f.1.e.33,@object
                        1603 	.size	..gh.f.f.1.e.33,0
                        1604 	.global	_PUTscTemperaturPD

                                                                      Page 29
                                                              C:\Users\nhuliyap\AppData\Local\Temp\gh_00008uc1.s
                        1605 _PUTscTemperaturPD:
00000508 80077b000000*  1606 	prepare	{r29,r31},0,_scTemperaturPD
0000050e 0000*
00000510 06e8           1607 	mov	r6,r29
00000512 0730           1608 	mov	r7,r6
00000514 8600           1609 	zxb	r6
                        1610 --	    .bf
                        1611 .LDW67:
00000516 c6f1           1612 	add	r6,ep
00000518 80eb           1613 	sst.b	r29,0[ep]
                        1614 	jarl	_ucGetWPOfCol,lp
                        1614 <EXPANSION BEGIN>
                        1614 jarl22 _ucGetWPOfCol , lp 
0000051a 80ff0000*      1614 <EXPANSION END>
                        1615 --line763
                        1616 ..lin.C.3A.5C_ECU2.5CECU_Rivian_A1.5CTarget.5Crepo_projects.5CpRealEcu.5CcL_LATEST.5Cmake.5Coutput.5Cobjects.5Cprocdat.83::
                        1617 .LDWlin83:
0000051e 6152           1618 	cmp	1,r10
00000520 b10d*          1619 	bl	.L3417
00000522 8215*          1620 	be	.L3418
00000524 6352           1621 	cmp	3,r10
00000526 c115*          1622 	bl	.L3419
00000528 fa15*          1623 	bne	.L3413
                        1624 --line778
                        1625 ..lin.C.3A.5C_ECU2.5CECU_Rivian_A1.5CTarget.5Crepo_projects.5CpRealEcu.5CcL_LATEST.5Cmake.5Coutput.5Cobjects.5Cprocdat.84::
                        1626 .LDWlin84:
0000052a 1d30           1627 	mov	r29,r6
0000052c 8600           1628 	zxb	r6
                        1629 	jarl	_NvM_WriteData_TemperatureRR,lp
                        1629 <EXPANSION BEGIN>
                        1629 jarl22 _NvM_WriteData_TemperatureRR , lp 
0000052e 80ff0000*      1629 <EXPANSION END>
                        1630 --line779
                        1631 ..lin.C.3A.5C_ECU2.5CECU_Rivian_A1.5CTarget.5Crepo_projects.5CpRealEcu.5CcL_LATEST.5Cmake.5Coutput.5Cobjects.5Cprocdat.85::
                        1632 .LDWlin85:
00000532 40067f00       1633 	dispose	0,{r29,r31},[lp]
                        1634 .L3417:
                        1635 --line766
                        1636 ..lin.C.3A.5C_ECU2.5CECU_Rivian_A1.5CTarget.5Crepo_projects.5CpRealEcu.5CcL_LATEST.5Cmake.5Coutput.5Cobjects.5Cprocdat.86::
                        1637 .LDWlin86:
00000536 1d30           1638 	mov	r29,r6
00000538 8600           1639 	zxb	r6
                        1640 	jarl	_NvM_WriteData_TemperatureFL,lp
                        1640 <EXPANSION BEGIN>
                        1640 jarl22 _NvM_WriteData_TemperatureFL , lp 
0000053a 80ff0000*      1640 <EXPANSION END>
                        1641 --line767
                        1642 ..lin.C.3A.5C_ECU2.5CECU_Rivian_A1.5CTarget.5Crepo_projects.5CpRealEcu.5CcL_LATEST.5Cmake.5Coutput.5Cobjects.5Cprocdat.87::
                        1643 .LDWlin87:
0000053e 40067f00       1644 	dispose	0,{r29,r31},[lp]
                        1645 .L3418:
                        1646 --line770
                        1647 ..lin.C.3A.5C_ECU2.5CECU_Rivian_A1.5CTarget.5Crepo_projects.5CpRealEcu.5CcL_LATEST.5Cmake.5Coutput.5Cobjects.5Cprocdat.88::
                        1648 .LDWlin88:
00000542 1d30           1649 	mov	r29,r6
00000544 8600           1650 	zxb	r6
                        1651 	jarl	_NvM_WriteData_TemperatureFR,lp
                        1651 <EXPANSION BEGIN>
                        1651 jarl22 _NvM_WriteData_TemperatureFR , lp 
00000546 80ff0000*      1651 <EXPANSION END>
                        1652 --line771

                                                                      Page 30
                                                              C:\Users\nhuliyap\AppData\Local\Temp\gh_00008uc1.s
                        1653 ..lin.C.3A.5C_ECU2.5CECU_Rivian_A1.5CTarget.5Crepo_projects.5CpRealEcu.5CcL_LATEST.5Cmake.5Coutput.5Cobjects.5Cprocdat.89::
                        1654 .LDWlin89:
0000054a 40067f00       1655 	dispose	0,{r29,r31},[lp]
                        1656 .L3419:
                        1657 --line774
                        1658 ..lin.C.3A.5C_ECU2.5CECU_Rivian_A1.5CTarget.5Crepo_projects.5CpRealEcu.5CcL_LATEST.5Cmake.5Coutput.5Cobjects.5Cprocdat.90::
                        1659 .LDWlin90:
0000054e 1d30           1660 	mov	r29,r6
00000550 8600           1661 	zxb	r6
                        1662 	jarl	_NvM_WriteData_TemperatureRL,lp
                        1662 <EXPANSION BEGIN>
                        1662 jarl22 _NvM_WriteData_TemperatureRL , lp 
00000552 80ff0000*      1662 <EXPANSION END>
                        1663 .L3413:
                        1664 --	    .ef
                        1665 .LDW77:
                        1666 --line784
                        1667 ..lin.C.3A.5C_ECU2.5CECU_Rivian_A1.5CTarget.5Crepo_projects.5CpRealEcu.5CcL_LATEST.5Cmake.5Coutput.5Cobjects.5Cprocdat.91::
                        1668 .LDWlin91:
00000556 40067f00       1669 	dispose	0,{r29,r31},[lp]
                        1670 	.global	___ghs_eofn_PUTscTemperaturPD
                        1671 ___ghs_eofn_PUTscTemperaturPD:
                        1672 	.type	_PUTscTemperaturPD,@function
                        1673 	.size	_PUTscTemperaturPD,.-_PUTscTemperaturPD
                        1674 	.align	2
                        1675 
                        1676 --_scInData	r29	param
                        1677 --_ucZomSlot	r7	param
                        1678 
                        1679 	.data
                        1680 	.text
                        1681 	.align	2
                        1682 	.align	2
                        1683 ..gh.f.f.1.e.34:
                        1684 	.type	..gh.f.f.1.e.34,@object
                        1685 	.size	..gh.f.f.1.e.34,0
                        1686 	.global	_GETucRestlebensdauerPD
                        1687 _GETucRestlebensdauerPD:
0000055a 06f0           1688 	mov	r6,ep
0000055c 9e00           1689 	zxb	ep
                        1690 --	    .bf
                        1691 .LDW87:
0000055e 330600000000*  1692 	mov	_ucRestlebensdauerPD,r19
00000564 d3f1           1693 	add	r19,ep
00000566 6050           1694 	sld.bu	0[ep],r10
                        1695 --	    .ef
                        1696 .LDW97:
                        1697 --line787
                        1698 ..lin.C.3A.5C_ECU2.5CECU_Rivian_A1.5CTarget.5Crepo_projects.5CpRealEcu.5CcL_LATEST.5Cmake.5Coutput.5Cobjects.5Cprocdat.92::
                        1699 .LDWlin92:
00000568 7f00           1700 	jmp	[lp]
                        1701 	.global	___ghs_eofn_GETucRestlebensdauerPD
                        1702 ___ghs_eofn_GETucRestlebensdauerPD:
                        1703 	.type	_GETucRestlebensdauerPD,@function
                        1704 	.size	_GETucRestlebensdauerPD,.-_GETucRestlebensdauerPD
                        1705 	.align	2
                        1706 
                        1707 --_ucZomSlot	r6	param
                        1708 
                        1709 	.data
                        1710 	.text

                                                                      Page 31
                                                              C:\Users\nhuliyap\AppData\Local\Temp\gh_00008uc1.s
                        1711 	.align	2
                        1712 	.align	2
                        1713 ..gh.f.f.1.e.35:
                        1714 	.type	..gh.f.f.1.e.35,@object
                        1715 	.size	..gh.f.f.1.e.35,0
                        1716 	.global	_PUTucRestlebensdauerPD
                        1717 _PUTucRestlebensdauerPD:
0000056a 07f0           1718 	mov	r7,ep
0000056c 9e00           1719 	zxb	ep
                        1720 --	    .bf
                        1721 .LDW08:
0000056e 330600000000*  1722 	mov	_ucRestlebensdauerPD,r19
00000574 d3f1           1723 	add	r19,ep
00000576 8033           1724 	sst.b	r6,0[ep]
                        1725 --	    .ef
                        1726 .LDW18:
                        1727 --line794
                        1728 ..lin.C.3A.5C_ECU2.5CECU_Rivian_A1.5CTarget.5Crepo_projects.5CpRealEcu.5CcL_LATEST.5Cmake.5Coutput.5Cobjects.5Cprocdat.93::
                        1729 .LDWlin93:
00000578 7f00           1730 	jmp	[lp]
                        1731 	.global	___ghs_eofn_PUTucRestlebensdauerPD
                        1732 ___ghs_eofn_PUTucRestlebensdauerPD:
                        1733 	.type	_PUTucRestlebensdauerPD,@function
                        1734 	.size	_PUTucRestlebensdauerPD,.-_PUTucRestlebensdauerPD
                        1735 	.align	2
                        1736 
                        1737 --_ucInData	r6	param
                        1738 --_ucZomSlot	r7	param
                        1739 
                        1740 	.data
                        1741 	.text
                        1742 	.align	2
                        1743 	.align	2
                        1744 ..gh.f.f.1.e.36:
                        1745 	.type	..gh.f.f.1.e.36,@object
                        1746 	.size	..gh.f.f.1.e.36,0
                        1747 	.global	_PUTucRSSIsumPD
                        1748 _PUTucRSSIsumPD:
0000057a 07f0           1749 	mov	r7,ep
0000057c 9e00           1750 	zxb	ep
                        1751 --	    .bf
                        1752 .LDW28:
0000057e 330600000000*  1753 	mov	_ucRSSIsumPD,r19
00000584 d3f1           1754 	add	r19,ep
00000586 8033           1755 	sst.b	r6,0[ep]
                        1756 --	    .ef
                        1757 .LDW38:
                        1758 --line807
                        1759 ..lin.C.3A.5C_ECU2.5CECU_Rivian_A1.5CTarget.5Crepo_projects.5CpRealEcu.5CcL_LATEST.5Cmake.5Coutput.5Cobjects.5Cprocdat.94::
                        1760 .LDWlin94:
00000588 7f00           1761 	jmp	[lp]
                        1762 	.global	___ghs_eofn_PUTucRSSIsumPD
                        1763 ___ghs_eofn_PUTucRSSIsumPD:
                        1764 	.type	_PUTucRSSIsumPD,@function
                        1765 	.size	_PUTucRSSIsumPD,.-_PUTucRSSIsumPD
                        1766 	.align	2
                        1767 
                        1768 --_ucInData	r6	param
                        1769 --_ucZomSlot	r7	param
                        1770 
                        1771 	.data

                                                                      Page 32
                                                              C:\Users\nhuliyap\AppData\Local\Temp\gh_00008uc1.s
                        1772 	.text
                        1773 	.align	2
                        1774 	.align	2
                        1775 ..gh.f.f.1.e.37:
                        1776 	.type	..gh.f.f.1.e.37,@object
                        1777 	.size	..gh.f.f.1.e.37,0
                        1778 	.global	_PUTucTelTypePD
                        1779 _PUTucTelTypePD:
0000058a 07f0           1780 	mov	r7,ep
0000058c 9e00           1781 	zxb	ep
                        1782 --	    .bf
                        1783 .LDW48:
0000058e 330600000000*  1784 	mov	_ucTelTypePD,r19
00000594 d3f1           1785 	add	r19,ep
00000596 8033           1786 	sst.b	r6,0[ep]
                        1787 --	    .ef
                        1788 .LDW58:
                        1789 --line832
                        1790 ..lin.C.3A.5C_ECU2.5CECU_Rivian_A1.5CTarget.5Crepo_projects.5CpRealEcu.5CcL_LATEST.5Cmake.5Coutput.5Cobjects.5Cprocdat.95::
                        1791 .LDWlin95:
00000598 7f00           1792 	jmp	[lp]
                        1793 	.global	___ghs_eofn_PUTucTelTypePD
                        1794 ___ghs_eofn_PUTucTelTypePD:
                        1795 	.type	_PUTucTelTypePD,@function
                        1796 	.size	_PUTucTelTypePD,.-_PUTucTelTypePD
                        1797 	.align	2
                        1798 
                        1799 --_ucInData	r6	param
                        1800 --_ucZomSlot	r7	param
                        1801 
                        1802 	.data
                        1803 	.text
                        1804 	.align	2
                        1805 	.align	2
                        1806 ..gh.f.f.1.e.38:
                        1807 	.type	..gh.f.f.1.e.38,@object
                        1808 	.size	..gh.f.f.1.e.38,0
                        1809 	.global	_GETucTransModePD
                        1810 _GETucTransModePD:
0000059a 06f0           1811 	mov	r6,ep
0000059c 9e00           1812 	zxb	ep
                        1813 --	    .bf
                        1814 .LDW68:
0000059e 330600000000*  1815 	mov	_ucTransModePD,r19
000005a4 d3f1           1816 	add	r19,ep
000005a6 6050           1817 	sld.bu	0[ep],r10
                        1818 --	    .ef
                        1819 .LDW78:
                        1820 --line835
                        1821 ..lin.C.3A.5C_ECU2.5CECU_Rivian_A1.5CTarget.5Crepo_projects.5CpRealEcu.5CcL_LATEST.5Cmake.5Coutput.5Cobjects.5Cprocdat.96::
                        1822 .LDWlin96:
000005a8 7f00           1823 	jmp	[lp]
                        1824 	.global	___ghs_eofn_GETucTransModePD
                        1825 ___ghs_eofn_GETucTransModePD:
                        1826 	.type	_GETucTransModePD,@function
                        1827 	.size	_GETucTransModePD,.-_GETucTransModePD
                        1828 	.align	2
                        1829 
                        1830 --_ucZomSlot	r6	param
                        1831 
                        1832 	.data

                                                                      Page 33
                                                              C:\Users\nhuliyap\AppData\Local\Temp\gh_00008uc1.s
                        1833 	.text
                        1834 	.align	2
                        1835 	.align	2
                        1836 ..gh.f.f.1.e.39:
                        1837 	.type	..gh.f.f.1.e.39,@object
                        1838 	.size	..gh.f.f.1.e.39,0
                        1839 	.global	_PUTucTransModePD
                        1840 _PUTucTransModePD:
000005aa 07f0           1841 	mov	r7,ep
000005ac 9e00           1842 	zxb	ep
                        1843 --	    .bf
                        1844 .LDW88:
000005ae 330600000000*  1845 	mov	_ucTransModePD,r19
000005b4 d3f1           1846 	add	r19,ep
000005b6 8033           1847 	sst.b	r6,0[ep]
                        1848 --	    .ef
                        1849 .LDW98:
                        1850 --line842
                        1851 ..lin.C.3A.5C_ECU2.5CECU_Rivian_A1.5CTarget.5Crepo_projects.5CpRealEcu.5CcL_LATEST.5Cmake.5Coutput.5Cobjects.5Cprocdat.97::
                        1852 .LDWlin97:
000005b8 7f00           1853 	jmp	[lp]
                        1854 	.global	___ghs_eofn_PUTucTransModePD
                        1855 ___ghs_eofn_PUTucTransModePD:
                        1856 	.type	_PUTucTransModePD,@function
                        1857 	.size	_PUTucTransModePD,.-_PUTucTransModePD
                        1858 	.align	2
                        1859 
                        1860 --_ucInData	r6	param
                        1861 --_ucZomSlot	r7	param
                        1862 
                        1863 	.data
                        1864 	.text
                        1865 	.align	2
                        1866 	.align	2
                        1867 ..gh.f.f.1.e.40:
                        1868 	.type	..gh.f.f.1.e.40,@object
                        1869 	.size	..gh.f.f.1.e.40,0
                        1870 	.global	_GETushSensorDefectPD
                        1871 _GETushSensorDefectPD:
000005ba 06f0           1872 	mov	r6,ep
000005bc 9e00           1873 	zxb	ep
                        1874 --	    .bf
                        1875 .LDW09:
000005be c1f2           1876 	shl	1,ep
000005c0 330600000000*  1877 	mov	_ushSensorDefectPD,r19
000005c6 d3f1           1878 	add	r19,ep
000005c8 7050           1879 	sld.hu	0[ep],r10
                        1880 --	    .ef
                        1881 .LDW19:
                        1882 --line845
                        1883 ..lin.C.3A.5C_ECU2.5CECU_Rivian_A1.5CTarget.5Crepo_projects.5CpRealEcu.5CcL_LATEST.5Cmake.5Coutput.5Cobjects.5Cprocdat.98::
                        1884 .LDWlin98:
000005ca 7f00           1885 	jmp	[lp]
                        1886 	.global	___ghs_eofn_GETushSensorDefectPD
                        1887 ___ghs_eofn_GETushSensorDefectPD:
                        1888 	.type	_GETushSensorDefectPD,@function
                        1889 	.size	_GETushSensorDefectPD,.-_GETushSensorDefectPD
                        1890 	.align	2
                        1891 
                        1892 --_ucZomSlot	r6	param
                        1893 

                                                                      Page 34
                                                              C:\Users\nhuliyap\AppData\Local\Temp\gh_00008uc1.s
                        1894 	.data
                        1895 	.text
                        1896 	.align	2
                        1897 	.align	2
                        1898 ..gh.f.f.1.e.41:
                        1899 	.type	..gh.f.f.1.e.41,@object
                        1900 	.size	..gh.f.f.1.e.41,0
                        1901 	.global	_PUTushSensorDefectPD
                        1902 _PUTushSensorDefectPD:
000005cc 07f0           1903 	mov	r7,ep
000005ce 9e00           1904 	zxb	ep
                        1905 --	    .bf
                        1906 .LDW29:
000005d0 c1f2           1907 	shl	1,ep
000005d2 330600000000*  1908 	mov	_ushSensorDefectPD,r19
000005d8 d3f1           1909 	add	r19,ep
000005da 8034           1910 	sst.h	r6,0[ep]
                        1911 --	    .ef
                        1912 .LDW39:
                        1913 --line852
                        1914 ..lin.C.3A.5C_ECU2.5CECU_Rivian_A1.5CTarget.5Crepo_projects.5CpRealEcu.5CcL_LATEST.5Cmake.5Coutput.5Cobjects.5Cprocdat.99::
                        1915 .LDWlin99:
000005dc 7f00           1916 	jmp	[lp]
                        1917 	.global	___ghs_eofn_PUTushSensorDefectPD
                        1918 ___ghs_eofn_PUTushSensorDefectPD:
                        1919 	.type	_PUTushSensorDefectPD,@function
                        1920 	.size	_PUTushSensorDefectPD,.-_PUTushSensorDefectPD
                        1921 	.align	2
                        1922 
                        1923 --_ushInData	r6	param
                        1924 --_ucZomSlot	r7	param
                        1925 
                        1926 	.data
                        1927 	.text
                        1928 	.align	2
                        1929 	.align	2
                        1930 ..gh.f.f.1.e.42:
                        1931 	.type	..gh.f.f.1.e.42,@object
                        1932 	.size	..gh.f.f.1.e.42,0
                        1933 	.global	_GETucRadpositionPD
                        1934 _GETucRadpositionPD:
000005de 8600           1935 	zxb	r6
                        1936 --	    .bf
                        1937 .LDW49:
000005e0 80070000*      1938 	jr	_ucGetRadPosAtSlotPDIF
                        1939 --	    .ef
                        1940 .LDW59:
                        1941 	.global	___ghs_eofn_GETucRadpositionPD
                        1942 ___ghs_eofn_GETucRadpositionPD:
                        1943 	.type	_GETucRadpositionPD,@function
                        1944 	.size	_GETucRadpositionPD,.-_GETucRadpositionPD
                        1945 	.align	2
                        1946 
                        1947 --_ucZomSlot	r6	param
                        1948 
                        1949 	.section ".bss","awb"
                        1950 .L3956:
                        1951 	.type	.L3956,@object
                        1952 	.size	.L3956,0
                        1953 	.data
                        1954 	.text

                                                                      Page 35
                                                              C:\Users\nhuliyap\AppData\Local\Temp\gh_00008uc1.s
                        1955 	.align	2
                        1956 	.align	2
                        1957 ..gh.f.f.1.e.43:
                        1958 	.type	..gh.f.f.1.e.43,@object
                        1959 	.size	..gh.f.f.1.e.43,0
                        1960 	.global	_GETucPatmoPD
                        1961 _GETucPatmoPD:
                        1962 --	    .bf
                        1963 .LDW69:
000005e4 40960000*      1964 	movhi	hi(_ucPatmoPD),zero,r18
000005e8 92970100*      1965 	ld.bu	lo(_ucPatmoPD)[r18],r18
000005ec 204e2800       1966 	movea	40,zero,r9
000005f0 128eeaff       1967 	addi	-22,r18,r17
000005f4 1106e9ff       1968 	addi	-23,r17,zero
000005f8 f24f3253       1969 	cmovnl	r18,r9,r10
                        1970 --	    .ef
                        1971 .LDW79:
                        1972 --line1198
                        1973 ..lin.C.3A.5C_ECU2.5CECU_Rivian_A1.5CTarget.5Crepo_projects.5CpRealEcu.5CcL_LATEST.5Cmake.5Coutput.5Cobjects.5Cprocdat.100::
                        1974 .LDWlin100:
000005fc 7f00           1975 	jmp	[lp]
                        1976 	.global	___ghs_eofn_GETucPatmoPD
                        1977 ___ghs_eofn_GETucPatmoPD:
                        1978 	.type	_GETucPatmoPD,@function
                        1979 	.size	_GETucPatmoPD,.-_GETucPatmoPD
                        1980 	.align	2
                        1981 --_ret	r10	local
                        1982 
                        1983 	.data
                        1984 	.text
                        1985 	.align	2
                        1986 	.align	2
                        1987 ..gh.f.f.1.e.44:
                        1988 	.type	..gh.f.f.1.e.44,@object
                        1989 	.size	..gh.f.f.1.e.44,0
                        1990 	.global	_ushCalcAKPressurePD..C.3A.5C_ECU2.5CECU_Rivian_A1.5CTarget.5Crepo_projects.5CpRealEcu.5CcL_LATEST.5Cmake.5Coutput.5Cobjects.5Cprocdat.
                        1991 _ushCalcAKPressurePD..C.3A.5C_ECU2.5CECU_Rivian_A1.5CTarget.5Crepo_projects.5CpRealEcu.5CcL_LATEST.5Cmake.5Coutput.5Cobjects.5Cprocdat.:
                        1992 _ushCalcAKPressurePD:
000005fe 8007a100       1993 	prepare	{r28,r31},0
00000602 8600           1994 	zxb	r6
                        1995 --	    .bf
                        1996 .LDW89:
00000604 6132           1997 	cmp	1,r6
00000606 f10d*          1998 	bl	.L4052
00000608 a215*          1999 	be	.L4053
0000060a 060601ff       2000 	addi	-255,r6,zero
0000060e b215*          2001 	be	.L4054
                        2002 --line921
                        2003 ..lin.C.3A.5C_ECU2.5CECU_Rivian_A1.5CTarget.5Crepo_projects.5CpRealEcu.5CcL_LATEST.5Cmake.5Coutput.5Cobjects.5Cprocdat.101::
                        2004 .LDWlin101:
00000610 06e62600       2005 	addi	38,r6,r28
                        2006 	jarl	_GETucPatmoPD,lp
                        2006 <EXPANSION BEGIN>
                        2006 jarl22 _GETucPatmoPD , lp 
00000614 bfffd0ff*      2006 <EXPANSION END>
00000618 eae1           2007 	cmp	r10,r28
0000061a 9b15*          2008 	bh	.L4057
                        2009 --line929
                        2010 ..lin.C.3A.5C_ECU2.5CECU_Rivian_A1.5CTarget.5Crepo_projects.5CpRealEcu.5CcL_LATEST.5Cmake.5Coutput.5Cobjects.5Cprocdat.102::
                        2011 .LDWlin102:
0000061c 00e2           2012 	mov	0,r28

                                                                      Page 36
                                                              C:\Users\nhuliyap\AppData\Local\Temp\gh_00008uc1.s
0000061e 20564000       2013 	movea	64,zero,r10
00000622 f50d*          2014 	br	.L4048
                        2015 .L4052:
                        2016 --line904
                        2017 ..lin.C.3A.5C_ECU2.5CECU_Rivian_A1.5CTarget.5Crepo_projects.5CpRealEcu.5CcL_LATEST.5Cmake.5Coutput.5Cobjects.5Cprocdat.103::
                        2018 .LDWlin103:
00000624 20561000       2019 	movea	16,zero,r10
00000628 1fe2           2020 	mov	-1,r28
0000062a b50d*          2021 	br	.L4048
                        2022 .L4053:
                        2023 --line910
                        2024 ..lin.C.3A.5C_ECU2.5CECU_Rivian_A1.5CTarget.5Crepo_projects.5CpRealEcu.5CcL_LATEST.5Cmake.5Coutput.5Cobjects.5Cprocdat.104::
                        2025 .LDWlin104:
0000062c 20564000       2026 	movea	64,zero,r10
00000630 00e2           2027 	mov	0,r28
00000632 f505*          2028 	br	.L4048
                        2029 .L4054:
                        2030 --line916
                        2031 ..lin.C.3A.5C_ECU2.5CECU_Rivian_A1.5CTarget.5Crepo_projects.5CpRealEcu.5CcL_LATEST.5Cmake.5Coutput.5Cobjects.5Cprocdat.105::
                        2032 .LDWlin105:
00000634 20568000       2033 	movea	128,zero,r10
00000638 1ee2           2034 	mov	-2,r28
0000063a b505*          2035 	br	.L4048
                        2036 .L4057:
                        2037 --line924
                        2038 ..lin.C.3A.5C_ECU2.5CECU_Rivian_A1.5CTarget.5Crepo_projects.5CpRealEcu.5CcL_LATEST.5Cmake.5Coutput.5Cobjects.5Cprocdat.106::
                        2039 .LDWlin106:
0000063c aae1           2040 	sub	r10,r28
0000063e 0052           2041 	mov	0,r10
                        2042 .L4048:
00000640 47e70000       2043 	st.b	r28,0[r7]
                        2044 --	    .ef
                        2045 .LDW99:
00000644 4006bf00       2046 	dispose	0,{r28,r31},[lp]
                        2047 ___ghs_eofn_ushCalcAKPressurePD:
                        2048 	.type	_ushCalcAKPressurePD,@function
                        2049 	.size	_ushCalcAKPressurePD,.-_ushCalcAKPressurePD
                        2050 	.type	_ushCalcAKPressurePD..C.3A.5C_ECU2.5CECU_Rivian_A1.5CTarget.5Crepo_projects.5CpRealEcu.5CcL_LATEST.5Cmake.5Coutput.5Cobjects.5Cprocdat.,@function
                        2051 	.size	_ushCalcAKPressurePD..C.3A.5C_ECU2.5CECU_Rivian_A1.5CTarget.5Crepo_projects.5CpRealEcu.5CcL_LATEST.5Cmake.5Coutput.5Cobjects.5Cprocdat.,.-_ushCalcAKPressurePD..C.3A.5C_ECU2.5CECU_Rivian_A1.5CTarget.5Crepo_projects.5CpRealEcu.5CcL_LATEST.5Cmake.5Coutput.5Cobjects.5Cprocdat.
                        2052 	.align	2
                        2053 --_ushError	r10	local
                        2054 --_ushPsensorAbs	r28	local
                        2055 
                        2056 --_ucRawPres	r6	param
                        2057 --_pucPhyPres	r29	param
                        2058 
                        2059 	.section ".bss","awb"
                        2060 .L4126:
                        2061 	.type	.L4126,@object
                        2062 	.size	.L4126,0
                        2063 	.data
                        2064 	.text
                        2065 	.align	2
                        2066 	.align	2
                        2067 ..gh.f.f.1.e.45:
                        2068 	.type	..gh.f.f.1.e.45,@object
                        2069 	.size	..gh.f.f.1.e.45,0
                        2070 	.global	_ushCalcAKTemperaturePD..C.3A.5C_ECU2.5CECU_Rivian_A1.5CTarget.5Crepo_projects.5CpRealEcu.5CcL_LATEST.5Cmake.5Coutput.5Cobjects.5Cprocdat.
                        2071 _ushCalcAKTemperaturePD..C.3A.5C_ECU2.5CECU_Rivian_A1.5CTarget.5Crepo_projects.5CpRealEcu.5CcL_LATEST.5Cmake.5Coutput.5Cobjects.5Cprocdat.:
                        2072 _ushCalcAKTemperaturePD:
00000648 8600           2073 	zxb	r6

                                                                      Page 37
                                                              C:\Users\nhuliyap\AppData\Local\Temp\gh_00008uc1.s
0000064a 07f0           2074 	mov	r7,ep
                        2075 --	    .bf
                        2076 .LDW001:
0000064c 0052           2077 	mov	0,r10
0000064e 6132           2078 	cmp	1,r6
00000650 a10d*          2079 	bl	.L4225
00000652 e20d*          2080 	be	.L4226
                        2081 --line955
                        2082 ..lin.C.3A.5C_ECU2.5CECU_Rivian_A1.5CTarget.5Crepo_projects.5CpRealEcu.5CcL_LATEST.5Cmake.5Coutput.5Cobjects.5Cprocdat.107::
                        2083 .LDWlin107:
00000654 204e7800       2084 	movea	120,zero,r9
00000658 060610ff       2085 	addi	-240,r6,zero
0000065c e90d*          2086 	bnl	.L4229
                        2087 --line968
                        2088 ..lin.C.3A.5C_ECU2.5CECU_Rivian_A1.5CTarget.5Crepo_projects.5CpRealEcu.5CcL_LATEST.5Cmake.5Coutput.5Cobjects.5Cprocdat.108::
                        2089 .LDWlin108:
0000065e 20560004       2090 	movea	1024,zero,r10
00000662 a515*          2091 	br	.L4223
                        2092 .L4225:
                        2093 --line944
                        2094 ..lin.C.3A.5C_ECU2.5CECU_Rivian_A1.5CTarget.5Crepo_projects.5CpRealEcu.5CcL_LATEST.5Cmake.5Coutput.5Cobjects.5Cprocdat.109::
                        2095 .LDWlin109:
00000664 20560008       2096 	movea	2048,zero,r10
00000668 204e7f00       2097 	movea	127,zero,r9
0000066c d50d*          2098 	br	.L4223
                        2099 .L4226:
                        2100 --line950
                        2101 ..lin.C.3A.5C_ECU2.5CECU_Rivian_A1.5CTarget.5Crepo_projects.5CpRealEcu.5CcL_LATEST.5Cmake.5Coutput.5Cobjects.5Cprocdat.110::
                        2102 .LDWlin110:
0000066e 20560002       2103 	movea	512,zero,r10
00000672 204ed8ff       2104 	movea	-40,zero,r9
00000676 850d*          2105 	br	.L4223
                        2106 .L4229:
                        2107 --line957
                        2108 ..lin.C.3A.5C_ECU2.5CECU_Rivian_A1.5CTarget.5Crepo_projects.5CpRealEcu.5CcL_LATEST.5Cmake.5Coutput.5Cobjects.5Cprocdat.111::
                        2109 .LDWlin111:
00000678 063eccff       2110 	addi	-52,r6,r7
0000067c a700           2111 	sxb	r7
0000067e 060653ff       2112 	addi	-173,r6,zero
00000682 e93f224b       2113 	cmovl	r9,r7,r9
                        2114 .L4223:
00000686 804b           2115 	sst.b	r9,0[ep]
                        2116 --	    .ef
                        2117 .LDW101:
00000688 7f00           2118 	jmp	[lp]
                        2119 ___ghs_eofn_ushCalcAKTemperaturePD:
                        2120 	.type	_ushCalcAKTemperaturePD,@function
                        2121 	.size	_ushCalcAKTemperaturePD,.-_ushCalcAKTemperaturePD
                        2122 	.type	_ushCalcAKTemperaturePD..C.3A.5C_ECU2.5CECU_Rivian_A1.5CTarget.5Crepo_projects.5CpRealEcu.5CcL_LATEST.5Cmake.5Coutput.5Cobjects.5Cprocdat.,@function
                        2123 	.size	_ushCalcAKTemperaturePD..C.3A.5C_ECU2.5CECU_Rivian_A1.5CTarget.5Crepo_projects.5CpRealEcu.5CcL_LATEST.5Cmake.5Coutput.5Cobjects.5Cprocdat.,.-_ushCalcAKTemperaturePD..C.3A.5C_ECU2.5CECU_Rivian_A1.5CTarget.5Crepo_projects.5CpRealEcu.5CcL_LATEST.5Cmake.5Coutput.5Cobjects.5Cprocdat.
                        2124 	.align	2
                        2125 --_ushError	r10	local
                        2126 
                        2127 --_ucRawTemp	r6	param
                        2128 --_pscPhyTemp	ep	param
                        2129 
                        2130 	.section ".bss","awb"
                        2131 .L4313:
                        2132 	.type	.L4313,@object
                        2133 	.size	.L4313,0
                        2134 	.data

                                                                      Page 38
                                                              C:\Users\nhuliyap\AppData\Local\Temp\gh_00008uc1.s
                        2135 	.text
                        2136 	.align	2
                        2137 	.align	2
                        2138 ..gh.f.f.1.e.46:
                        2139 	.type	..gh.f.f.1.e.46,@object
                        2140 	.size	..gh.f.f.1.e.46,0
                        2141 	.global	_PreProcPressAndTempPD
                        2142 _PreProcPressAndTempPD:
0000068a 82076100       2143 	prepare	{r29,r31},1
                        2144 --	    .bf
                        2145 .LDW201:
                        2146 	jarl	_ucGetReDataPressurePD,lp
                        2146 <EXPANSION BEGIN>
                        2146 jarl22 _ucGetReDataPressurePD , lp 
0000068e bfff02fa*      2146 <EXPANSION END>
00000692 0a30           2147 	mov	r10,r6
00000694 233e0200       2148 	movea	2,sp,r7
                        2149 	jarl	_ushCalcAKPressurePD,lp
                        2149 <EXPANSION BEGIN>
                        2149 jarl22 _ushCalcAKPressurePD , lp 
00000698 bfff66ff*      2149 <EXPANSION END>
0000069c 0ae8           2150 	mov	r10,r29
                        2151 --line890
                        2152 ..lin.C.3A.5C_ECU2.5CECU_Rivian_A1.5CTarget.5Crepo_projects.5CpRealEcu.5CcL_LATEST.5Cmake.5Coutput.5Cobjects.5Cprocdat.112::
                        2153 .LDWlin112:
                        2154 	jarl	_ucGetReDataTemperaturePD,lp
                        2154 <EXPANSION BEGIN>
                        2154 jarl22 _ucGetReDataTemperaturePD , lp 
0000069e bfff28fa*      2154 <EXPANSION END>
000006a2 0a30           2155 	mov	r10,r6
000006a4 413a           2156 	add	1,r7
                        2157 	jarl	_ushCalcAKTemperaturePD,lp
                        2157 <EXPANSION BEGIN>
                        2157 jarl22 _ushCalcAKTemperaturePD , lp 
000006a6 bfffa2ff*      2157 <EXPANSION END>
                        2158 --line891
                        2159 ..lin.C.3A.5C_ECU2.5CECU_Rivian_A1.5CTarget.5Crepo_projects.5CpRealEcu.5CcL_LATEST.5Cmake.5Coutput.5Cobjects.5Cprocdat.113::
                        2160 .LDWlin113:
000006aa 83370300       2161 	ld.bu	2[sp],r6
000006ae 1d51           2162 	or	r29,r10
                        2163 	jarl	_PutReDataPreProcPressurePD,lp
                        2163 <EXPANSION BEGIN>
                        2163 jarl22 _PutReDataPreProcPressurePD , lp 
000006b0 bfff2efb*      2163 <EXPANSION END>
                        2164 --line892
                        2165 ..lin.C.3A.5C_ECU2.5CECU_Rivian_A1.5CTarget.5Crepo_projects.5CpRealEcu.5CcL_LATEST.5Cmake.5Coutput.5Cobjects.5Cprocdat.114::
                        2166 .LDWlin114:
000006b4 03370300       2167 	ld.b	3[sp],r6
                        2168 	jarl	_PutReDataPreProcTemperaturePD,lp
                        2168 <EXPANSION BEGIN>
                        2168 jarl22 _PutReDataPreProcTemperaturePD , lp 
000006b8 bfff3efb*      2168 <EXPANSION END>
                        2169 --	    .ef
                        2170 .LDW301:
                        2171 --line893
                        2172 ..lin.C.3A.5C_ECU2.5CECU_Rivian_A1.5CTarget.5Crepo_projects.5CpRealEcu.5CcL_LATEST.5Cmake.5Coutput.5Cobjects.5Cprocdat.115::
                        2173 .LDWlin115:
000006bc 42067f00       2174 	dispose	1,{r29,r31},[lp]
                        2175 	.global	___ghs_eofn_PreProcPressAndTempPD
                        2176 ___ghs_eofn_PreProcPressAndTempPD:
                        2177 	.type	_PreProcPressAndTempPD,@function

                                                                      Page 39
                                                              C:\Users\nhuliyap\AppData\Local\Temp\gh_00008uc1.s
                        2178 	.size	_PreProcPressAndTempPD,.-_PreProcPressAndTempPD
                        2179 	.align	2
                        2180 --_ucPres	2[sp]	local
                        2181 --_scTemp	3[sp]	local
                        2182 --_ushSensorfehler	r29	local
                        2183 
                        2184 	.section ".bss","awb"
                        2185 .L4420:
                        2186 	.type	.L4420,@object
                        2187 	.size	.L4420,0
                        2188 	.data
                        2189 	.text
                        2190 	.align	2
                        2191 	.align	2
                        2192 ..gh.f.f.1.e.47:
                        2193 	.type	..gh.f.f.1.e.47,@object
                        2194 	.size	..gh.f.f.1.e.47,0
                        2195 	.global	_SaveReDataAtBufferPD
                        2196 _SaveReDataAtBufferPD:
000006c0 8007e130       2197 	prepare	{r26,r27,r28,r29,r31},0
000006c4 06e0           2198 	mov	r6,r28
000006c6 9c00           2199 	zxb	r28
                        2200 --	    .bf
                        2201 .LDW401:
                        2202 	jarl	_ulGetReDataIdPD,lp
                        2202 <EXPANSION BEGIN>
                        2202 jarl22 _ulGetReDataIdPD , lp 
000006c8 bfffacf9*      2202 <EXPANSION END>
000006cc 0a30           2203 	mov	r10,r6
                        2204 	jarl	_PutReDataPreProcIdPD,lp
                        2204 <EXPANSION BEGIN>
                        2204 jarl22 _PutReDataPreProcIdPD , lp 
000006ce bffffafa*      2204 <EXPANSION END>
                        2205 --line983
                        2206 ..lin.C.3A.5C_ECU2.5CECU_Rivian_A1.5CTarget.5Crepo_projects.5CpRealEcu.5CcL_LATEST.5Cmake.5Coutput.5Cobjects.5Cprocdat.116::
                        2207 .LDWlin116:
                        2208 	jarl	_ucGetReDataTelTypePD,lp
                        2208 <EXPANSION BEGIN>
                        2208 jarl22 _ucGetReDataTelTypePD , lp 
000006d2 bfffb6fa*      2208 <EXPANSION END>
                        2209 --line985
                        2210 ..lin.C.3A.5C_ECU2.5CECU_Rivian_A1.5CTarget.5Crepo_projects.5CpRealEcu.5CcL_LATEST.5Cmake.5Coutput.5Cobjects.5Cprocdat.117::
                        2211 .LDWlin117:
000006d6 0a0619ff       2212 	addi	-231,r10,zero
000006da b235*          2213 	be	.L4440
000006dc 3d0600000000*  2214 	mov	_ucTyreInvalidPressSurpressionCnt,r29
000006e2 0ad8           2215 	mov	r10,r27
                        2216 --line987
                        2217 ..lin.C.3A.5C_ECU2.5CECU_Rivian_A1.5CTarget.5Crepo_projects.5CpRealEcu.5CcL_LATEST.5Cmake.5Coutput.5Cobjects.5Cprocdat.118::
                        2218 .LDWlin118:
                        2219 	jarl	_PreProcPressAndTempPD,lp
                        2219 <EXPANSION BEGIN>
                        2219 jarl22 _PreProcPressAndTempPD , lp 
000006e4 bfffa6ff*      2219 <EXPANSION END>
000006e8 0ad0           2220 	mov	r10,r26
                        2221 --line988
                        2222 ..lin.C.3A.5C_ECU2.5CECU_Rivian_A1.5CTarget.5Crepo_projects.5CpRealEcu.5CcL_LATEST.5Cmake.5Coutput.5Cobjects.5Cprocdat.119::
                        2223 .LDWlin119:
                        2224 	jarl	_ucGetReDataPreProcPressurePD,lp
                        2224 <EXPANSION BEGIN>
                        2224 jarl22 _ucGetReDataPreProcPressurePD , lp 

                                                                      Page 40
                                                              C:\Users\nhuliyap\AppData\Local\Temp\gh_00008uc1.s
000006ea bfffe8fa*      2224 <EXPANSION END>
000006ee 1cf0           2225 	mov	r28,ep
000006f0 c1f2           2226 	shl	1,ep
000006f2 ddf1           2227 	add	r29,ep
000006f4 0a0601ff       2228 	addi	-255,r10,zero
000006f8 fa15*          2229 	bne	.L4442
                        2230 --line990
                        2231 ..lin.C.3A.5C_ECU2.5CECU_Rivian_A1.5CTarget.5Crepo_projects.5CpRealEcu.5CcL_LATEST.5Cmake.5Coutput.5Cobjects.5Cprocdat.120::
                        2232 .LDWlin120:
000006fa 7090           2233 	sld.hu	0[ep],r18
000006fc 1206ceff       2234 	addi	-50,r18,zero
00000700 c115*          2235 	bl	.L4453
                        2236 --line992
                        2237 ..lin.C.3A.5C_ECU2.5CECU_Rivian_A1.5CTarget.5Crepo_projects.5CpRealEcu.5CcL_LATEST.5Cmake.5Coutput.5Cobjects.5Cprocdat.121::
                        2238 .LDWlin121:
00000702 4192           2239 	add	1,r18
00000704 d200           2240 	zxh	r18
00000706 8094           2241 	sst.h	r18,0[ep]
00000708 6592           2242 	cmp	5,r18
0000070a fb0d*          2243 	bh	.L4453
                        2244 --line997
                        2245 ..lin.C.3A.5C_ECU2.5CECU_Rivian_A1.5CTarget.5Crepo_projects.5CpRealEcu.5CcL_LATEST.5Cmake.5Coutput.5Cobjects.5Cprocdat.122::
                        2246 .LDWlin122:
0000070c 64e2           2247 	cmp	4,r28
0000070e 890d*          2248 	bnl	.L4448
                        2249 --line999
                        2250 ..lin.C.3A.5C_ECU2.5CECU_Rivian_A1.5CTarget.5Crepo_projects.5CpRealEcu.5CcL_LATEST.5Cmake.5Coutput.5Cobjects.5Cprocdat.123::
                        2251 .LDWlin123:
00000710 1c30           2252 	mov	r28,r6
                        2253 	jarl	_GETucReifendruckPD,lp
                        2253 <EXPANSION BEGIN>
                        2253 jarl22 _GETucReifendruckPD , lp 
00000712 bfff8afd*      2253 <EXPANSION END>
00000716 0a30           2254 	mov	r10,r6
                        2255 	jarl	_PutReDataPreProcPressurePD,lp
                        2255 <EXPANSION BEGIN>
                        2255 jarl22 _PutReDataPreProcPressurePD , lp 
00000718 bfffc6fa*      2255 <EXPANSION END>
0000071c e505*          2256 	br	.L4453
                        2257 .L4448:
                        2258 --line1002
                        2259 ..lin.C.3A.5C_ECU2.5CECU_Rivian_A1.5CTarget.5Crepo_projects.5CpRealEcu.5CcL_LATEST.5Cmake.5Coutput.5Cobjects.5Cprocdat.124::
                        2260 .LDWlin124:
0000071e 0a30           2261 	mov	r10,r6
                        2262 	jarl	_PutReDataPreProcPressurePD,lp
                        2262 <EXPANSION BEGIN>
                        2262 jarl22 _PutReDataPreProcPressurePD , lp 
00000720 bfffbefa*      2262 <EXPANSION END>
00000724 a505*          2263 	br	.L4453
                        2264 .L4442:
                        2265 --line1010
                        2266 ..lin.C.3A.5C_ECU2.5CECU_Rivian_A1.5CTarget.5Crepo_projects.5CpRealEcu.5CcL_LATEST.5Cmake.5Coutput.5Cobjects.5Cprocdat.125::
                        2267 .LDWlin125:
00000726 8004           2268 	sst.h	zero,0[ep]
                        2269 .L4453:
00000728 1b067dff       2270 	addi	-131,r27,zero
0000072c c205*          2271 	be	.L4458
0000072e 1b065dff       2272 	addi	-163,r27,zero
00000732 aa25*          2273 	bne	.L4457
                        2274 .L4458:
                        2275 --line1035

                                                                      Page 41
                                                              C:\Users\nhuliyap\AppData\Local\Temp\gh_00008uc1.s
                        2276 ..lin.C.3A.5C_ECU2.5CECU_Rivian_A1.5CTarget.5Crepo_projects.5CpRealEcu.5CcL_LATEST.5Cmake.5Coutput.5Cobjects.5Cprocdat.126::
                        2277 .LDWlin126:
                        2278 	jarl	_ucGetReDataRemainingLifeTimePD,lp
                        2278 <EXPANSION BEGIN>
                        2278 jarl22 _ucGetReDataRemainingLifeTimePD , lp 
00000734 bfffc8f9*      2278 <EXPANSION END>
00000738 0a30           2279 	mov	r10,r6
                        2280 	jarl	_PutReDataPreProcRemainingLifeTimePD,lp
                        2280 <EXPANSION BEGIN>
                        2280 jarl22 _PutReDataPreProcRemainingLifeTimePD , lp 
0000073a bfffd4fa*      2280 <EXPANSION END>
0000073e e525*          2281 	br	.L4460
                        2282 .L4440:
                        2283 --line1014
                        2284 ..lin.C.3A.5C_ECU2.5CECU_Rivian_A1.5CTarget.5Crepo_projects.5CpRealEcu.5CcL_LATEST.5Cmake.5Coutput.5Cobjects.5Cprocdat.127::
                        2285 .LDWlin127:
00000740 20d60030       2286 	movea	12288,zero,r26
00000744 64e2           2287 	cmp	4,r28
00000746 e90d*          2288 	bnl	.L4454
                        2289 --line1019
                        2290 ..lin.C.3A.5C_ECU2.5CECU_Rivian_A1.5CTarget.5Crepo_projects.5CpRealEcu.5CcL_LATEST.5Cmake.5Coutput.5Cobjects.5Cprocdat.128::
                        2291 .LDWlin128:
00000748 1c30           2292 	mov	r28,r6
                        2293 	jarl	_GETucReifendruckPD,lp
                        2293 <EXPANSION BEGIN>
                        2293 jarl22 _GETucReifendruckPD , lp 
0000074a bfff52fd*      2293 <EXPANSION END>
0000074e 0a30           2294 	mov	r10,r6
                        2295 	jarl	_PutReDataPreProcPressurePD,lp
                        2295 <EXPANSION BEGIN>
                        2295 jarl22 _PutReDataPreProcPressurePD , lp 
00000750 bfff8efa*      2295 <EXPANSION END>
                        2296 --line1020
                        2297 ..lin.C.3A.5C_ECU2.5CECU_Rivian_A1.5CTarget.5Crepo_projects.5CpRealEcu.5CcL_LATEST.5Cmake.5Coutput.5Cobjects.5Cprocdat.129::
                        2298 .LDWlin129:
00000754 1c30           2299 	mov	r28,r6
                        2300 	jarl	_GETscTemperaturPD,lp
                        2300 <EXPANSION BEGIN>
                        2300 jarl22 _GETscTemperaturPD , lp 
00000756 bfffa2fd*      2300 <EXPANSION END>
0000075a 0a30           2301 	mov	r10,r6
                        2302 	jarl	_PutReDataPreProcTemperaturePD,lp
                        2302 <EXPANSION BEGIN>
                        2302 jarl22 _PutReDataPreProcTemperaturePD , lp 
0000075c bfff9afa*      2302 <EXPANSION END>
00000760 d50d*          2303 	br	.L4462
                        2304 .L4454:
                        2305 --line1024
                        2306 ..lin.C.3A.5C_ECU2.5CECU_Rivian_A1.5CTarget.5Crepo_projects.5CpRealEcu.5CcL_LATEST.5Cmake.5Coutput.5Cobjects.5Cprocdat.130::
                        2307 .LDWlin130:
00000762 2036ff00       2308 	movea	255,zero,r6
                        2309 	jarl	_PutReDataPreProcPressurePD,lp
                        2309 <EXPANSION BEGIN>
                        2309 jarl22 _PutReDataPreProcPressurePD , lp 
00000766 bfff78fa*      2309 <EXPANSION END>
                        2310 --line1025
                        2311 ..lin.C.3A.5C_ECU2.5CECU_Rivian_A1.5CTarget.5Crepo_projects.5CpRealEcu.5CcL_LATEST.5Cmake.5Coutput.5Cobjects.5Cprocdat.131::
                        2312 .LDWlin131:
0000076a 20367f00       2313 	movea	127,zero,r6
                        2314 	jarl	_PutReDataPreProcTemperaturePD,lp
                        2314 <EXPANSION BEGIN>

                                                                      Page 42
                                                              C:\Users\nhuliyap\AppData\Local\Temp\gh_00008uc1.s
                        2314 jarl22 _PutReDataPreProcTemperaturePD , lp 
0000076e bfff88fa*      2314 <EXPANSION END>
                        2315 .L4461:
                        2316 --line1047
                        2317 ..lin.C.3A.5C_ECU2.5CECU_Rivian_A1.5CTarget.5Crepo_projects.5CpRealEcu.5CcL_LATEST.5Cmake.5Coutput.5Cobjects.5Cprocdat.132::
                        2318 .LDWlin132:
00000772 0f52           2319 	mov	15,r10
00000774 e505*          2320 	br	.L4463
                        2321 .L4457:
                        2322 --line1040
                        2323 ..lin.C.3A.5C_ECU2.5CECU_Rivian_A1.5CTarget.5Crepo_projects.5CpRealEcu.5CcL_LATEST.5Cmake.5Coutput.5Cobjects.5Cprocdat.133::
                        2324 .LDWlin133:
00000776 64e2           2325 	cmp	4,r28
00000778 d9fd*          2326 	bnl	.L4461
                        2327 .L4462:
                        2328 --line1043
                        2329 ..lin.C.3A.5C_ECU2.5CECU_Rivian_A1.5CTarget.5Crepo_projects.5CpRealEcu.5CcL_LATEST.5Cmake.5Coutput.5Cobjects.5Cprocdat.134::
                        2330 .LDWlin134:
0000077a 1c30           2331 	mov	r28,r6
                        2332 	jarl	_GETucRestlebensdauerPD,lp
                        2332 <EXPANSION BEGIN>
                        2332 jarl22 _GETucRestlebensdauerPD , lp 
0000077c bfffdefd*      2332 <EXPANSION END>
                        2333 .L4463:
00000780 0a30           2334 	mov	r10,r6
                        2335 --line1050
                        2336 ..lin.C.3A.5C_ECU2.5CECU_Rivian_A1.5CTarget.5Crepo_projects.5CpRealEcu.5CcL_LATEST.5Cmake.5Coutput.5Cobjects.5Cprocdat.135::
                        2337 .LDWlin135:
                        2338 	jarl	_PutReDataPreProcRemainingLifeTimePD,lp
                        2338 <EXPANSION BEGIN>
                        2338 jarl22 _PutReDataPreProcRemainingLifeTimePD , lp 
00000782 bfff8cfa*      2338 <EXPANSION END>
00000786 9ad60040       2339 	ori	16384,r26,r26
                        2340 .L4460:
                        2341 --line1053
                        2342 ..lin.C.3A.5C_ECU2.5CECU_Rivian_A1.5CTarget.5Crepo_projects.5CpRealEcu.5CcL_LATEST.5Cmake.5Coutput.5Cobjects.5Cprocdat.136::
                        2343 .LDWlin136:
                        2344 	jarl	_ucGetReDataStatePD,lp
                        2344 <EXPANSION BEGIN>
                        2344 jarl22 _ucGetReDataStatePD , lp 
0000078a bfff98f9*      2344 <EXPANSION END>
0000078e 0a30           2345 	mov	r10,r6
                        2346 	jarl	_PutReDataPreProcTransModePD,lp
                        2346 <EXPANSION BEGIN>
                        2346 jarl22 _PutReDataPreProcTransModePD , lp 
00000790 bfff96fa*      2346 <EXPANSION END>
                        2347 --line1085
                        2348 ..lin.C.3A.5C_ECU2.5CECU_Rivian_A1.5CTarget.5Crepo_projects.5CpRealEcu.5CcL_LATEST.5Cmake.5Coutput.5Cobjects.5Cprocdat.137::
                        2349 .LDWlin137:
00000794 1a30           2350 	mov	r26,r6
                        2351 	jarl	_PutReDataPreProcSensorDefectPD,lp
                        2351 <EXPANSION BEGIN>
                        2351 jarl22 _PutReDataPreProcSensorDefectPD , lp 
00000796 bfffa8fa*      2351 <EXPANSION END>
                        2352 --	    .ef
                        2353 .LDW501:
                        2354 --line1086
                        2355 ..lin.C.3A.5C_ECU2.5CECU_Rivian_A1.5CTarget.5Crepo_projects.5CpRealEcu.5CcL_LATEST.5Cmake.5Coutput.5Cobjects.5Cprocdat.138::
                        2356 .LDWlin138:
0000079a 4006ff30       2357 	dispose	0,{r26,r27,r28,r29,r31},[lp]
                        2358 	.global	___ghs_eofn_SaveReDataAtBufferPD

                                                                      Page 43
                                                              C:\Users\nhuliyap\AppData\Local\Temp\gh_00008uc1.s
                        2359 ___ghs_eofn_SaveReDataAtBufferPD:
                        2360 	.type	_SaveReDataAtBufferPD,@function
                        2361 	.size	_SaveReDataAtBufferPD,.-_SaveReDataAtBufferPD
                        2362 	.align	2
                        2363 --_ushSensorDefect	r26	local
                        2364 --_ucLocalReDataTelType	r27	local
                        2365 
                        2366 --_ucZomSlot	r28	param
                        2367 
                        2368 	.data
                        2369 	.text
                        2370 	.align	2
                        2371 	.align	2
                        2372 ..gh.f.f.1.e.48:
                        2373 	.type	..gh.f.f.1.e.48,@object
                        2374 	.size	..gh.f.f.1.e.48,0
                        2375 	.global	_ucIsReHwDefectPD
                        2376 _ucIsReHwDefectPD:
0000079e 80076100       2377 	prepare	{r29,r31},0
000007a2 8600           2378 	zxb	r6
                        2379 --	    .bf
                        2380 .LDW601:
                        2381 	jarl	_GETushSensorDefectPD,lp
                        2381 <EXPANSION BEGIN>
                        2381 jarl22 _GETushSensorDefectPD , lp 
000007a4 bfff16fe*      2381 <EXPANSION END>
000007a8 ca061008       2382 	andi	2064,r10,zero
000007ac ea05*          2383 	bne	.L4826
                        2384 --line1095
                        2385 ..lin.C.3A.5C_ECU2.5CECU_Rivian_A1.5CTarget.5Crepo_projects.5CpRealEcu.5CcL_LATEST.5Cmake.5Coutput.5Cobjects.5Cprocdat.139::
                        2386 .LDWlin139:
000007ae ca9600b0       2387 	andi	45056,r10,r18
000007b2 e39714eb       2388 	cmovne	3,r18,r29
000007b6 a505*          2389 	br	.L4830
                        2390 .L4826:
                        2391 --line1101
                        2392 ..lin.C.3A.5C_ECU2.5CECU_Rivian_A1.5CTarget.5Crepo_projects.5CpRealEcu.5CcL_LATEST.5Cmake.5Coutput.5Cobjects.5Cprocdat.140::
                        2393 .LDWlin140:
000007b8 01ea           2394 	mov	1,r29
                        2395 .L4830:
000007ba 1d50           2396 	mov	r29,r10
                        2397 --	    .ef
                        2398 .LDW701:
000007bc 40067f00       2399 	dispose	0,{r29,r31},[lp]
                        2400 	.global	___ghs_eofn_ucIsReHwDefectPD
                        2401 ___ghs_eofn_ucIsReHwDefectPD:
                        2402 	.type	_ucIsReHwDefectPD,@function
                        2403 	.size	_ucIsReHwDefectPD,.-_ucIsReHwDefectPD
                        2404 	.align	2
                        2405 --_ucRet	r29	local
                        2406 
                        2407 --_ZomSlot	r6	param
                        2408 
                        2409 	.section ".bss","awb"
                        2410 .L5086:
                        2411 	.type	.L5086,@object
                        2412 	.size	.L5086,0
                        2413 	.data
                        2414 	.text
                        2415 	.align	2
                        2416 	.align	2

                                                                      Page 44
                                                              C:\Users\nhuliyap\AppData\Local\Temp\gh_00008uc1.s
                        2417 ..gh.f.f.1.e.49:
                        2418 	.type	..gh.f.f.1.e.49,@object
                        2419 	.size	..gh.f.f.1.e.49,0
                        2420 	.global	_bIsReOverTempPD
                        2421 _bIsReOverTempPD:
000007c0 80072100       2422 	prepare	{r31},0
000007c4 8600           2423 	zxb	r6
                        2424 --	    .bf
                        2425 .LDW801:
                        2426 	jarl	_GETucTransModePD,lp
                        2426 <EXPANSION BEGIN>
                        2426 jarl22 _GETucTransModePD , lp 
000007c6 bfffd4fd*      2426 <EXPANSION END>
000007ca ca4e0400       2427 	andi	4,r10,r9
000007ce 644a           2428 	cmp	4,r9
000007d0 e2570000       2429 	setfe	r10
                        2430 --	    .ef
                        2431 .LDW901:
                        2432 --line1119
                        2433 ..lin.C.3A.5C_ECU2.5CECU_Rivian_A1.5CTarget.5Crepo_projects.5CpRealEcu.5CcL_LATEST.5Cmake.5Coutput.5Cobjects.5Cprocdat.141::
                        2434 .LDWlin141:
000007d4 40063f00       2435 	dispose	0,{r31},[lp]
                        2436 	.global	___ghs_eofn_bIsReOverTempPD
                        2437 ___ghs_eofn_bIsReOverTempPD:
                        2438 	.type	_bIsReOverTempPD,@function
                        2439 	.size	_bIsReOverTempPD,.-_bIsReOverTempPD
                        2440 	.align	2
                        2441 --_bRet	r10	local
                        2442 
                        2443 --_ZomSlot	r6	param
                        2444 
                        2445 	.section ".bss","awb"
                        2446 .L5186:
                        2447 	.type	.L5186,@object
                        2448 	.size	.L5186,0
                        2449 	.data
                        2450 	.text
                        2451 	.align	2
                        2452 	.align	2
                        2453 ..gh.f.f.1.e.50:
                        2454 	.type	..gh.f.f.1.e.50,@object
                        2455 	.size	..gh.f.f.1.e.50,0
                        2456 	.global	_bIsReLowLifeTimePD
                        2457 _bIsReLowLifeTimePD:
000007d8 80072100       2458 	prepare	{r31},0
000007dc 8600           2459 	zxb	r6
                        2460 --	    .bf
                        2461 .LDW011:
                        2462 	jarl	_GETucRestlebensdauerPD,lp
                        2462 <EXPANSION BEGIN>
                        2462 jarl22 _GETucRestlebensdauerPD , lp 
000007de bfff7cfd*      2462 <EXPANSION END>
000007e2 6152           2463 	cmp	1,r10
000007e4 e2570000       2464 	setfe	r10
                        2465 --	    .ef
                        2466 .LDW111:
                        2467 --line1135
                        2468 ..lin.C.3A.5C_ECU2.5CECU_Rivian_A1.5CTarget.5Crepo_projects.5CpRealEcu.5CcL_LATEST.5Cmake.5Coutput.5Cobjects.5Cprocdat.142::
                        2469 .LDWlin142:
000007e8 40063f00       2470 	dispose	0,{r31},[lp]
                        2471 	.global	___ghs_eofn_bIsReLowLifeTimePD

                                                                      Page 45
                                                              C:\Users\nhuliyap\AppData\Local\Temp\gh_00008uc1.s
                        2472 ___ghs_eofn_bIsReLowLifeTimePD:
                        2473 	.type	_bIsReLowLifeTimePD,@function
                        2474 	.size	_bIsReLowLifeTimePD,.-_bIsReLowLifeTimePD
                        2475 	.align	2
                        2476 --_bRet	r10	local
                        2477 
                        2478 --_ZomSlot	r6	param
                        2479 
                        2480 	.section ".bss","awb"
                        2481 .L5250:
                        2482 	.type	.L5250,@object
                        2483 	.size	.L5250,0
                        2484 	.data
                        2485 	.text
                        2486 	.align	2
                        2487 	.align	2
                        2488 ..gh.f.f.1.e.51:
                        2489 	.type	..gh.f.f.1.e.51,@object
                        2490 	.size	..gh.f.f.1.e.51,0
                        2491 	.global	_CalcPatmo
                        2492 _CalcPatmo:
000007ec 8207e110       2493 	prepare	{r27,r28,r29,r31},1
000007f0 3d0600000000*  2494 	mov	.L5356,r29
                        2495 --	    .bf
                        2496 .LDW211:
                        2497 --line1213
                        2498 ..lin.C.3A.5C_ECU2.5CECU_Rivian_A1.5CTarget.5Crepo_projects.5CpRealEcu.5CcL_LATEST.5Cmake.5Coutput.5Cobjects.5Cprocdat.143::
                        2499 .LDWlin143:
000007f6 3c0600000000*  2500 	mov	.L5384,r28
000007fc 1cf0           2501 	mov	r28,ep
000007fe 6098           2502 	sld.bu	0[ep],r19
                        2503 --line1212
                        2504 ..lin.C.3A.5C_ECU2.5CECU_Rivian_A1.5CTarget.5Crepo_projects.5CpRealEcu.5CcL_LATEST.5Cmake.5Coutput.5Cobjects.5Cprocdat.144::
                        2505 .LDWlin144:
00000800 43070300       2506 	st.b	zero,3[sp]
00000804 419a           2507 	add	1,r19
00000806 809b           2508 	sst.b	r19,0[ep]
00000808 d89a           2509 	shl	24,r19
0000080a b235*          2510 	be	.L5271
                        2511 --line1217
                        2512 ..lin.C.3A.5C_ECU2.5CECU_Rivian_A1.5CTarget.5Crepo_projects.5CpRealEcu.5CcL_LATEST.5Cmake.5Coutput.5Cobjects.5Cprocdat.145::
                        2513 .LDWlin145:
0000080c 23360300       2514 	movea	3,sp,r6
                        2515 	jarl	_ReceiveGetFmmotmax,lp
                        2515 <EXPANSION BEGIN>
                        2515 jarl22 _ReceiveGetFmmotmax , lp 
00000810 80ff0000*      2515 <EXPANSION END>
                        2516 --line1219
                        2517 ..lin.C.3A.5C_ECU2.5CECU_Rivian_A1.5CTarget.5Crepo_projects.5CpRealEcu.5CcL_LATEST.5Cmake.5Coutput.5Cobjects.5Cprocdat.146::
                        2518 .LDWlin146:
00000814 a3df0300       2519 	ld.bu	3[sp],r27
00000818 e0d9           2520 	cmp	zero,r27
0000081a 922d*          2521 	be	.L5275
                        2522 --line1222
                        2523 ..lin.C.3A.5C_ECU2.5CECU_Rivian_A1.5CTarget.5Crepo_projects.5CpRealEcu.5CcL_LATEST.5Cmake.5Coutput.5Cobjects.5Cprocdat.147::
                        2524 .LDWlin147:
0000081c 3d570100       2525 	ld.w	0[r29],r10
00000820 0a8e5eea       2526 	addi	-5538,r10,r17
00000824 1106abea       2527 	addi	-5461,r17,zero
00000828 d905*          2528 	bnl	.L5277
                        2529 --line1225

                                                                      Page 46
                                                              C:\Users\nhuliyap\AppData\Local\Temp\gh_00008uc1.s
                        2530 ..lin.C.3A.5C_ECU2.5CECU_Rivian_A1.5CTarget.5Crepo_projects.5CpRealEcu.5CcL_LATEST.5Cmake.5Coutput.5Cobjects.5Cprocdat.148::
                        2531 .LDWlin148:
                        2532 	jarl	_GETucPatmoPD,lp
                        2532 <EXPANSION BEGIN>
                        2532 jarl22 _GETucPatmoPD , lp 
0000082a bfffbafd*      2532 <EXPANSION END>
0000082e fa575e02       2533 	mulu	250,r10,zero
                        2534 .L5277:
                        2535 --line1228
                        2536 ..lin.C.3A.5C_ECU2.5CECU_Rivian_A1.5CTarget.5Crepo_projects.5CpRealEcu.5CcL_LATEST.5Cmake.5Coutput.5Cobjects.5Cprocdat.149::
                        2537 .LDWlin149:
00000832 fb364e00       2538 	mulhi	78,r27,r6
00000836 e9574202       2539 	mulu	9,r10,zero
0000083a 3106cdcccccc   2540 	mov	-858993459,r17
00000840 1180           2541 	mov	r17,r16
00000842 c600           2542 	zxh	r6
00000844 ca31           2543 	add	r10,r6
00000846 e687228a       2544 	mulu	r6,r16,r17
                        2545 --line1232
                        2546 ..lin.C.3A.5C_ECU2.5CECU_Rivian_A1.5CTarget.5Crepo_projects.5CpRealEcu.5CcL_LATEST.5Cmake.5Coutput.5Cobjects.5Cprocdat.150::
                        2547 .LDWlin150:
0000084a 2f06d34d6210   2548 	mov	274877907,r15
00000850 0f90           2549 	mov	r15,r18
00000852 838a           2550 	shr	3,r17
00000854 11862700       2551 	addi	39,r17,r16
00000858 d000           2552 	zxh	r16
0000085a f097229a       2553 	mulu	r16,r18,r19
0000085e 7d8f0100       2554 	st.w	r17,0[r29]
00000862 849a           2555 	shr	4,r19
                        2556 --line1235
                        2557 ..lin.C.3A.5C_ECU2.5CECU_Rivian_A1.5CTarget.5Crepo_projects.5CpRealEcu.5CcL_LATEST.5Cmake.5Coutput.5Cobjects.5Cprocdat.151::
                        2558 .LDWlin151:
00000864 d336ff00       2559 	andi	255,r19,r6
                        2560 	jarl	_PUTucPatmoPD,lp
                        2560 <EXPANSION BEGIN>
                        2560 jarl22 _PUTucPatmoPD , lp 
00000868 bfff98f7*      2560 <EXPANSION END>
                        2561 .L5275:
                        2562 --line1238
                        2563 ..lin.C.3A.5C_ECU2.5CECU_Rivian_A1.5CTarget.5Crepo_projects.5CpRealEcu.5CcL_LATEST.5Cmake.5Coutput.5Cobjects.5Cprocdat.152::
                        2564 .LDWlin152:
0000086c 5c070000       2565 	st.b	zero,0[r28]
                        2566 .L5271:
                        2567 --	    .ef
                        2568 .LDW311:
00000870 4206ff10       2569 	dispose	1,{r27,r28,r29,r31},[lp]
                        2570 	.global	___ghs_eofn_CalcPatmo
                        2571 ___ghs_eofn_CalcPatmo:
                        2572 	.type	_CalcPatmo,@function
                        2573 	.size	_CalcPatmo,.-_CalcPatmo
                        2574 	.align	2
                        2575 --_uc1secTimer	.L5384	static
                        2576 --_ulMeanValue	.L5383	static
                        2577 --_ucFmmotmax	3[sp]	local
                        2578 --_ushCalcValue	r6	local
                        2579 
                        2580 	.section ".bss","awb"
                        2581 .L5356:
                        2582 	.type	.L5356,@object
                        2583 	.size	.L5356,0
                        2584 	.global	_ulMeanValue.CalcPatmo.C.3A.5C_ECU2.5CECU_Rivian_A1.5CTarget.5Crepo_projects.5CpRealEcu.5CcL_LATEST.5Cmake.5Coutput.5Cobjects.5Cprocdat..18

                                                                      Page 47
                                                              C:\Users\nhuliyap\AppData\Local\Temp\gh_00008uc1.s
                        2585 _ulMeanValue.CalcPatmo.C.3A.5C_ECU2.5CECU_Rivian_A1.5CTarget.5Crepo_projects.5CpRealEcu.5CcL_LATEST.5Cmake.5Coutput.5Cobjects.5Cprocdat..18:
0000019c 00000000       2586 .L5383:	.space	4
                        2587 	.type	_ulMeanValue.CalcPatmo.C.3A.5C_ECU2.5CECU_Rivian_A1.5CTarget.5Crepo_projects.5CpRealEcu.5CcL_LATEST.5Cmake.5Coutput.5Cobjects.5Cprocdat..18,@object
                        2588 	.size	_ulMeanValue.CalcPatmo.C.3A.5C_ECU2.5CECU_Rivian_A1.5CTarget.5Crepo_projects.5CpRealEcu.5CcL_LATEST.5Cmake.5Coutput.5Cobjects.5Cprocdat..18,4
                        2589 	.type	.L5383,@object
                        2590 	.size	.L5383,4
                        2591 	.data
                        2592 .L5384:
                        2593 	.global	_uc1secTimer.CalcPatmo.C.3A.5C_ECU2.5CECU_Rivian_A1.5CTarget.5Crepo_projects.5CpRealEcu.5CcL_LATEST.5Cmake.5Coutput.5Cobjects.5Cprocdat..17
                        2594 _uc1secTimer.CalcPatmo.C.3A.5C_ECU2.5CECU_Rivian_A1.5CTarget.5Crepo_projects.5CpRealEcu.5CcL_LATEST.5Cmake.5Coutput.5Cobjects.5Cprocdat..17:
0000000c 00             2595 	.byte	0
                        2596 	.type	_uc1secTimer.CalcPatmo.C.3A.5C_ECU2.5CECU_Rivian_A1.5CTarget.5Crepo_projects.5CpRealEcu.5CcL_LATEST.5Cmake.5Coutput.5Cobjects.5Cprocdat..17,@object
                        2597 	.size	_uc1secTimer.CalcPatmo.C.3A.5C_ECU2.5CECU_Rivian_A1.5CTarget.5Crepo_projects.5CpRealEcu.5CcL_LATEST.5Cmake.5Coutput.5Cobjects.5Cprocdat..17,1
                        2598 	.type	.L5384,@object
                        2599 	.size	.L5384,1
                        2600 	.text
                        2601 	.align	2
                        2602 	.align	2
                        2603 ..gh.f.f.1.e.52:
                        2604 	.type	..gh.f.f.1.e.52,@object
                        2605 	.size	..gh.f.f.1.e.52,0
                        2606 	.global	_SaveRotatS
                        2607 _SaveRotatS:
00000874 3e0600000000*  2608 	mov	_ucRotL-1,ep
                        2609 --	    .bf
                        2610 .LDW411:
                        2611 --line1246
                        2612 ..lin.C.3A.5C_ECU2.5CECU_Rivian_A1.5CTarget.5Crepo_projects.5CpRealEcu.5CcL_LATEST.5Cmake.5Coutput.5Cobjects.5Cprocdat.153::
                        2613 .LDWlin153:
0000087a 9e871100       2614 	ld.bu	16[ep],r16
0000087e 6f78           2615 	sld.bu	15[ep],r15
00000880 8183           2616 	sst.b	r16,1[ep]
00000882 827b           2617 	sst.b	r15,2[ep]
                        2618 --	    .ef
                        2619 .LDW511:
00000884 7f00           2620 	jmp	[lp]
                        2621 	.global	___ghs_eofn_SaveRotatS
                        2622 ___ghs_eofn_SaveRotatS:
                        2623 	.type	_SaveRotatS,@function
                        2624 	.size	_SaveRotatS,.-_SaveRotatS
                        2625 	.align	2
                        2626 
                        2627 	.data
                        2628 	.text
                        2629 	.align	2
                        2630 	.align	2
                        2631 ..gh.f.f.1.e.53:
                        2632 	.type	..gh.f.f.1.e.53,@object
                        2633 	.size	..gh.f.f.1.e.53,0
                        2634 	.global	_PutRotatSDataInBuffer
                        2635 _PutRotatSDataInBuffer:
00000886 80076100       2636 	prepare	{r29,r31},0
0000088a 3d0600000000*  2637 	mov	_ucRotatSTelIndexPut,r29
                        2638 --	    .bf
                        2639 .LDW611:
                        2640 --line1269
                        2641 ..lin.C.3A.5C_ECU2.5CECU_Rivian_A1.5CTarget.5Crepo_projects.5CpRealEcu.5CcL_LATEST.5Cmake.5Coutput.5Cobjects.5Cprocdat.154::
                        2642 .LDWlin154:
00000890 9d970100       2643 	ld.bu	0[r29],r18
00000894 6c92           2644 	cmp	12,r18
00000896 d91d*          2645 	bnl	.L5476

                                                                      Page 48
                                                              C:\Users\nhuliyap\AppData\Local\Temp\gh_00008uc1.s
                        2646 --line1272
                        2647 ..lin.C.3A.5C_ECU2.5CECU_Rivian_A1.5CTarget.5Crepo_projects.5CpRealEcu.5CcL_LATEST.5Cmake.5Coutput.5Cobjects.5Cprocdat.155::
                        2648 .LDWlin155:
00000898 f2961c00       2649 	mulhi	28,r18,r18
0000089c 06f0           2650 	mov	r6,ep
0000089e 006d           2651 	sld.w	0[ep],r13
000008a0 008a           2652 	mov	0,r17
000008a2 dd91           2653 	add	r29,r18
000008a4 726f2d00       2654 	st.w	r13,44[r18]
000008a8 7260           2655 	sld.hu	4[ep],r12
000008aa 72673000       2656 	st.h	r12,48[r18]
000008ae 12962c00       2657 	addi	44,r18,r18
                        2658 .L5480:
000008b2 1198           2659 	mov	r17,r19
000008b4 c699           2660 	add	r6,r19
000008b6 935f0700       2661 	ld.bu	6[r19],r11
000008ba 11f0           2662 	mov	r17,ep
000008bc d2f1           2663 	add	r18,ep
000008be 418a           2664 	add	1,r17
000008c0 865b           2665 	sst.b	r11,6[ep]
000008c2 1106f0ff       2666 	addi	-16,r17,zero
000008c6 e9f5*          2667 	bnl	.L5480
                        2668 --line1278
                        2669 ..lin.C.3A.5C_ECU2.5CECU_Rivian_A1.5CTarget.5Crepo_projects.5CpRealEcu.5CcL_LATEST.5Cmake.5Coutput.5Cobjects.5Cprocdat.156::
                        2670 .LDWlin156:
000008c8 12361800       2671 	addi	24,r18,r6
                        2672 	jarl	_ReceiveGetVehicleSpeed,lp
                        2672 <EXPANSION BEGIN>
                        2672 jarl22 _ReceiveGetVehicleSpeed , lp 
000008cc 80ff0000*      2672 <EXPANSION END>
                        2673 .L5476:
                        2674 --line1281
                        2675 ..lin.C.3A.5C_ECU2.5CECU_Rivian_A1.5CTarget.5Crepo_projects.5CpRealEcu.5CcL_LATEST.5Cmake.5Coutput.5Cobjects.5Cprocdat.157::
                        2676 .LDWlin157:
000008d0 1df0           2677 	mov	r29,ep
000008d2 6088           2678 	sld.bu	0[ep],r17
000008d4 0c72           2679 	mov	12,r14
000008d6 11860100       2680 	addi	1,r17,r16
000008da 9000           2681 	zxb	r16
000008dc ee87fe7a       2682 	divqu	r14,r16,r15
000008e0 807b           2683 	sst.b	r15,0[ep]
                        2684 --	    .ef
                        2685 .LDW711:
000008e2 40067f00       2686 	dispose	0,{r29,r31},[lp]
                        2687 	.global	___ghs_eofn_PutRotatSDataInBuffer
                        2688 ___ghs_eofn_PutRotatSDataInBuffer:
                        2689 	.type	_PutRotatSDataInBuffer,@function
                        2690 	.size	_PutRotatSDataInBuffer,.-_PutRotatSDataInBuffer
                        2691 	.align	2
                        2692 --_i	r17	local
                        2693 
                        2694 --_spRxDataIn	r6	param
                        2695 
                        2696 	.data
                        2697 	.text
                        2698 	.align	2
                        2699 	.align	2
                        2700 ..gh.f.f.1.e.54:
                        2701 	.type	..gh.f.f.1.e.54,@object
                        2702 	.size	..gh.f.f.1.e.54,0
                        2703 	.global	_pGetRotatSDataTFromBuffer

                                                                      Page 49
                                                              C:\Users\nhuliyap\AppData\Local\Temp\gh_00008uc1.s
                        2704 _pGetRotatSDataTFromBuffer:
000008e6 8600           2705 	zxb	r6
                        2706 --	    .bf
                        2707 .LDW811:
000008e8 e6561c00       2708 	mulhi	28,r6,r10
000008ec 330600000000*  2709 	mov	_tWs_RxRotatSBuf,r19
000008f2 d351           2710 	add	r19,r10
                        2711 --	    .ef
                        2712 .LDW911:
                        2713 --line1286
                        2714 ..lin.C.3A.5C_ECU2.5CECU_Rivian_A1.5CTarget.5Crepo_projects.5CpRealEcu.5CcL_LATEST.5Cmake.5Coutput.5Cobjects.5Cprocdat.158::
                        2715 .LDWlin158:
000008f4 7f00           2716 	jmp	[lp]
                        2717 	.global	___ghs_eofn_pGetRotatSDataTFromBuffer
                        2718 ___ghs_eofn_pGetRotatSDataTFromBuffer:
                        2719 	.type	_pGetRotatSDataTFromBuffer,@function
                        2720 	.size	_pGetRotatSDataTFromBuffer,.-_pGetRotatSDataTFromBuffer
                        2721 	.align	2
                        2722 
                        2723 --_ucBufferIndex	r6	param
                        2724 
                        2725 	.data
                        2726 	.text
                        2727 	.align	2
                        2728 	.align	2
                        2729 ..gh.f.f.1.e.55:
                        2730 	.type	..gh.f.f.1.e.55,@object
                        2731 	.size	..gh.f.f.1.e.55,0
                        2732 	.global	_ucGetRotatSDataBufferIndex
                        2733 _ucGetRotatSDataBufferIndex:
                        2734 --	    .bf
                        2735 .LDW021:
000008f6 40560000*      2736 	movhi	hi(_ucRotatSTelIndexPut),zero,r10
000008fa 8a570100*      2737 	ld.bu	lo(_ucRotatSTelIndexPut)[r10],r10
                        2738 --	    .ef
                        2739 .LDW121:
                        2740 --line1290
                        2741 ..lin.C.3A.5C_ECU2.5CECU_Rivian_A1.5CTarget.5Crepo_projects.5CpRealEcu.5CcL_LATEST.5Cmake.5Coutput.5Cobjects.5Cprocdat.159::
                        2742 .LDWlin159:
000008fe 7f00           2743 	jmp	[lp]
                        2744 	.global	___ghs_eofn_ucGetRotatSDataBufferIndex
                        2745 ___ghs_eofn_ucGetRotatSDataBufferIndex:
                        2746 	.type	_ucGetRotatSDataBufferIndex,@function
                        2747 	.size	_ucGetRotatSDataBufferIndex,.-_ucGetRotatSDataBufferIndex
                        2748 	.align	2
                        2749 
                        2750 	.data
                        2751 	.text
                        2752 	.align	2
                        2753 	.align	2
                        2754 ..gh.f.f.1.e.56:
                        2755 	.type	..gh.f.f.1.e.56,@object
                        2756 	.size	..gh.f.f.1.e.56,0
                        2757 	.global	_ushGetRotatSVehSpeed
                        2758 _ushGetRotatSVehSpeed:
                        2759 --	    .bf
                        2760 .LDW221:
00000900 404e0000*      2761 	movhi	hi(_ucRotatSTelIndexGet),zero,r9
00000904 894f0100*      2762 	ld.bu	lo(_ucRotatSTelIndexGet)[r9],r9
00000908 6c4a           2763 	cmp	12,r9
0000090a 990d*          2764 	bnl	.L5689

                                                                      Page 50
                                                              C:\Users\nhuliyap\AppData\Local\Temp\gh_00008uc1.s
                        2765 --line1298
                        2766 ..lin.C.3A.5C_ECU2.5CECU_Rivian_A1.5CTarget.5Crepo_projects.5CpRealEcu.5CcL_LATEST.5Cmake.5Coutput.5Cobjects.5Cprocdat.160::
                        2767 .LDWlin160:
0000090c e9f61c00       2768 	mulhi	28,r9,ep
00000910 280600000000*  2769 	mov	_tWs_RxRotatSBuf,r8
00000916 c8f1           2770 	add	r8,ep
00000918 7c50           2771 	sld.hu	24[ep],r10
0000091a 7f00           2772 	jmp	[lp]
                        2773 .L5689:
0000091c 0052           2774 	mov	0,r10
                        2775 --	    .ef
                        2776 .LDW321:
                        2777 --line1303
                        2778 ..lin.C.3A.5C_ECU2.5CECU_Rivian_A1.5CTarget.5Crepo_projects.5CpRealEcu.5CcL_LATEST.5Cmake.5Coutput.5Cobjects.5Cprocdat.161::
                        2779 .LDWlin161:
0000091e 7f00           2780 	jmp	[lp]
                        2781 	.global	___ghs_eofn_ushGetRotatSVehSpeed
                        2782 ___ghs_eofn_ushGetRotatSVehSpeed:
                        2783 	.type	_ushGetRotatSVehSpeed,@function
                        2784 	.size	_ushGetRotatSVehSpeed,.-_ushGetRotatSVehSpeed
                        2785 	.align	2
                        2786 --_VehicleSpeedValue	r10	local
                        2787 
                        2788 	.data
                        2789 	.text
                        2790 	.align	2
                        2791 	.align	2
                        2792 ..gh.f.f.1.e.57:
                        2793 	.type	..gh.f.f.1.e.57,@object
                        2794 	.size	..gh.f.f.1.e.57,0
                        2795 	.global	_DCM_InvIf_RxStatusFieldGetValue
                        2796 _DCM_InvIf_RxStatusFieldGetValue:
00000920 06f0           2797 	mov	r6,ep
00000922 320600000000*  2798 	mov	_tReDataPD,r18
                        2799 --	    .bf
                        2800 .LDW421:
                        2801 --line1308
                        2802 ..lin.C.3A.5C_ECU2.5CECU_Rivian_A1.5CTarget.5Crepo_projects.5CpRealEcu.5CcL_LATEST.5Cmake.5Coutput.5Cobjects.5Cprocdat.162::
                        2803 .LDWlin162:
00000928 928f0300       2804 	ld.bu	2[r18],r17
0000092c 11065dff       2805 	addi	-163,r17,zero
00000930 c205*          2806 	be	.L5784
00000932 11067dff       2807 	addi	-131,r17,zero
00000936 fa05*          2808 	bne	.L5783
                        2809 .L5784:
                        2810 --line1310
                        2811 ..lin.C.3A.5C_ECU2.5CECU_Rivian_A1.5CTarget.5Crepo_projects.5CpRealEcu.5CcL_LATEST.5Cmake.5Coutput.5Cobjects.5Cprocdat.163::
                        2812 .LDWlin163:
00000938 b2770900       2813 	ld.bu	9[r18],r14
0000093c 8073           2814 	sst.b	r14,0[ep]
0000093e 92870b00       2815 	ld.bu	10[r18],r16
00000942 b505*          2816 	br	.L5806
                        2817 .L5783:
                        2818 --line1314
                        2819 ..lin.C.3A.5C_ECU2.5CECU_Rivian_A1.5CTarget.5Crepo_projects.5CpRealEcu.5CcL_LATEST.5Cmake.5Coutput.5Cobjects.5Cprocdat.164::
                        2820 .LDWlin164:
00000944 8003           2821 	sst.b	zero,0[ep]
00000946 0082           2822 	mov	0,r16
                        2823 .L5806:
00000948 8183           2824 	sst.b	r16,1[ep]
                        2825 --	    .ef

                                                                      Page 51
                                                              C:\Users\nhuliyap\AppData\Local\Temp\gh_00008uc1.s
                        2826 .LDW521:
0000094a 7f00           2827 	jmp	[lp]
                        2828 	.global	___ghs_eofn_DCM_InvIf_RxStatusFieldGetValue
                        2829 ___ghs_eofn_DCM_InvIf_RxStatusFieldGetValue:
                        2830 	.type	_DCM_InvIf_RxStatusFieldGetValue,@function
                        2831 	.size	_DCM_InvIf_RxStatusFieldGetValue,.-_DCM_InvIf_RxStatusFieldGetValue
                        2832 	.align	2
                        2833 
                        2834 --_u8_StatusFieldValue	ep	param
                        2835 
                        2836 	.data
                        2837 	.text
                        2838 	.align	2
                        2839 	.align	2
                        2840 ..gh.f.f.1.e.58:
                        2841 	.type	..gh.f.f.1.e.58,@object
                        2842 	.size	..gh.f.f.1.e.58,0
                        2843 	.global	_DCM_InvIf_PressLastRxIDGetValue
                        2844 _DCM_InvIf_PressLastRxIDGetValue:
                        2845 --	    .bf
                        2846 .LDW621:
0000094c bf0786f8*      2847 	jr	_ucGetReDataPreProcPressurePD
                        2848 --	    .ef
                        2849 .LDW721:
                        2850 	.global	___ghs_eofn_DCM_InvIf_PressLastRxIDGetValue
                        2851 ___ghs_eofn_DCM_InvIf_PressLastRxIDGetValue:
                        2852 	.type	_DCM_InvIf_PressLastRxIDGetValue,@function
                        2853 	.size	_DCM_InvIf_PressLastRxIDGetValue,.-_DCM_InvIf_PressLastRxIDGetValue
                        2854 	.align	2
                        2855 
                        2856 	.section ".bss","awb"
                        2857 .L5924:
                        2858 	.type	.L5924,@object
                        2859 	.size	.L5924,0
                        2860 	.data
                        2861 	.text
                        2862 	.align	2
                        2863 	.align	2
                        2864 ..gh.f.f.1.e.59:
                        2865 	.type	..gh.f.f.1.e.59,@object
                        2866 	.size	..gh.f.f.1.e.59,0
                        2867 	.global	_DCM_InvIf_TempLastRxIDGetValue
                        2868 _DCM_InvIf_TempLastRxIDGetValue:
                        2869 --	    .bf
                        2870 .LDW821:
00000950 bf079af8*      2871 	jr	_scGetReDataPreProcTemperaturePD
                        2872 --	    .ef
                        2873 .LDW921:
                        2874 	.global	___ghs_eofn_DCM_InvIf_TempLastRxIDGetValue
                        2875 ___ghs_eofn_DCM_InvIf_TempLastRxIDGetValue:
                        2876 	.type	_DCM_InvIf_TempLastRxIDGetValue,@function
                        2877 	.size	_DCM_InvIf_TempLastRxIDGetValue,.-_DCM_InvIf_TempLastRxIDGetValue
                        2878 	.align	2
                        2879 
                        2880 	.section ".bss","awb"
                        2881 .L5972:
                        2882 	.type	.L5972,@object
                        2883 	.size	.L5972,0
                        2884 	.data
                        2885 	.text
                        2886 	.align	2

                                                                      Page 52
                                                              C:\Users\nhuliyap\AppData\Local\Temp\gh_00008uc1.s
                        2887 	.align	2
                        2888 ..gh.f.f.1.e.60:
                        2889 	.type	..gh.f.f.1.e.60,@object
                        2890 	.size	..gh.f.f.1.e.60,0
                        2891 	.global	_DCM_InvIf_LastRxIDGetValue
                        2892 _DCM_InvIf_LastRxIDGetValue:
00000954 06f0           2893 	mov	r6,ep
00000956 320600000000*  2894 	mov	_tReDataPD,r18
                        2895 --	    .bf
                        2896 .LDW031:
                        2897 --line1335
                        2898 ..lin.C.3A.5C_ECU2.5CECU_Rivian_A1.5CTarget.5Crepo_projects.5CpRealEcu.5CcL_LATEST.5Cmake.5Coutput.5Cobjects.5Cprocdat.165::
                        2899 .LDWlin165:
0000095c b2870300       2900 	ld.bu	3[r18],r16
00000960 8083           2901 	sst.b	r16,0[ep]
00000962 927f0500       2902 	ld.bu	4[r18],r15
00000966 817b           2903 	sst.b	r15,1[ep]
00000968 b2770500       2904 	ld.bu	5[r18],r14
0000096c 8273           2905 	sst.b	r14,2[ep]
0000096e 926f0700       2906 	ld.bu	6[r18],r13
00000972 836b           2907 	sst.b	r13,3[ep]
                        2908 --	    .ef
                        2909 .LDW131:
00000974 7f00           2910 	jmp	[lp]
                        2911 	.global	___ghs_eofn_DCM_InvIf_LastRxIDGetValue
                        2912 ___ghs_eofn_DCM_InvIf_LastRxIDGetValue:
                        2913 	.type	_DCM_InvIf_LastRxIDGetValue,@function
                        2914 	.size	_DCM_InvIf_LastRxIDGetValue,.-_DCM_InvIf_LastRxIDGetValue
                        2915 	.align	2
                        2916 
                        2917 --_u8_LastIdReceived	ep	param
                        2918 
                        2919 	.data
                        2920 	.text
                        2921 	.align	2
                        2922 	.align	2
                        2923 ..gh.f.f.1.e.61:
                        2924 	.type	..gh.f.f.1.e.61,@object
                        2925 	.size	..gh.f.f.1.e.61,0
                        2926 	.global	_DCM_InvIf_TelTypeCurrIDGetValue
                        2927 _DCM_InvIf_TelTypeCurrIDGetValue:
                        2928 --	    .bf
                        2929 .LDW231:
00000976 bf0712f8*      2930 	jr	_ucGetReDataTelTypePD
                        2931 --	    .ef
                        2932 .LDW331:
                        2933 	.global	___ghs_eofn_DCM_InvIf_TelTypeCurrIDGetValue
                        2934 ___ghs_eofn_DCM_InvIf_TelTypeCurrIDGetValue:
                        2935 	.type	_DCM_InvIf_TelTypeCurrIDGetValue,@function
                        2936 	.size	_DCM_InvIf_TelTypeCurrIDGetValue,.-_DCM_InvIf_TelTypeCurrIDGetValue
                        2937 	.align	2
                        2938 
                        2939 	.section ".bss","awb"
                        2940 .L6068:
                        2941 	.type	.L6068,@object
                        2942 	.size	.L6068,0
                        2943 	.data
                        2944 	.text
                        2945 	.align	2
                        2946 	.align	2
                        2947 ..gh.f.f.1.e.62:

                                                                      Page 53
                                                              C:\Users\nhuliyap\AppData\Local\Temp\gh_00008uc1.s
                        2948 	.type	..gh.f.f.1.e.62,@object
                        2949 	.size	..gh.f.f.1.e.62,0
                        2950 	.global	_DCM_InvIf_RFTimeStampGetValue
                        2951 _DCM_InvIf_RFTimeStampGetValue:
0000097a 06f0           2952 	mov	r6,ep
0000097c 320600000000*  2953 	mov	_tReDataPD,r18
                        2954 --	    .bf
                        2955 .LDW431:
                        2956 --line1354
                        2957 ..lin.C.3A.5C_ECU2.5CECU_Rivian_A1.5CTarget.5Crepo_projects.5CpRealEcu.5CcL_LATEST.5Cmake.5Coutput.5Cobjects.5Cprocdat.166::
                        2958 .LDWlin166:
00000982 328f1500       2959 	ld.w	20[r18],r17
00000986 908a           2960 	shr	16,r17
00000988 808b           2961 	sst.b	r17,0[ep]
0000098a 32871500       2962 	ld.w	20[r18],r16
0000098e 8882           2963 	shr	8,r16
00000990 8183           2964 	sst.b	r16,1[ep]
00000992 926f1500       2965 	ld.bu	20[r18],r13
00000996 826b           2966 	sst.b	r13,2[ep]
                        2967 --	    .ef
                        2968 .LDW531:
00000998 7f00           2969 	jmp	[lp]
                        2970 	.global	___ghs_eofn_DCM_InvIf_RFTimeStampGetValue
                        2971 ___ghs_eofn_DCM_InvIf_RFTimeStampGetValue:
                        2972 	.type	_DCM_InvIf_RFTimeStampGetValue,@function
                        2973 	.size	_DCM_InvIf_RFTimeStampGetValue,.-_DCM_InvIf_RFTimeStampGetValue
                        2974 	.align	2
                        2975 
                        2976 --_u8_TimeStampValue	ep	param
                        2977 
                        2978 	.data
                        2979 	.text
                        2980 	.align	2
                        2981 	.align	2
                        2982 ..gh.f.f.1.e.63:
                        2983 	.type	..gh.f.f.1.e.63,@object
                        2984 	.size	..gh.f.f.1.e.63,0
                        2985 	.global	_DCM_InvIf_RawRSSIGetValue
                        2986 _DCM_InvIf_RawRSSIGetValue:
                        2987 --	    .bf
                        2988 .LDW631:
0000099a 40560000*      2989 	movhi	hi(_tReDataPD+16),zero,r10
0000099e 8a570100*      2990 	ld.bu	lo(_tReDataPD+16)[r10],r10
                        2991 --	    .ef
                        2992 .LDW731:
                        2993 --line1359
                        2994 ..lin.C.3A.5C_ECU2.5CECU_Rivian_A1.5CTarget.5Crepo_projects.5CpRealEcu.5CcL_LATEST.5Cmake.5Coutput.5Cobjects.5Cprocdat.167::
                        2995 .LDWlin167:
000009a2 7f00           2996 	jmp	[lp]
                        2997 	.global	___ghs_eofn_DCM_InvIf_RawRSSIGetValue
                        2998 ___ghs_eofn_DCM_InvIf_RawRSSIGetValue:
                        2999 	.type	_DCM_InvIf_RawRSSIGetValue,@function
                        3000 	.size	_DCM_InvIf_RawRSSIGetValue,.-_DCM_InvIf_RawRSSIGetValue
                        3001 	.align	2
                        3002 
                        3003 	.data
                        3004 	.text
                        3005 	.align	2
                        3006 	.align	2
                        3007 ..gh.f.f.1.e.64:
                        3008 	.type	..gh.f.f.1.e.64,@object

                                                                      Page 54
                                                              C:\Users\nhuliyap\AppData\Local\Temp\gh_00008uc1.s
                        3009 	.size	..gh.f.f.1.e.64,0
                        3010 	.global	_DCM_InvIf_RecEventGetCntValue
                        3011 _DCM_InvIf_RecEventGetCntValue:
                        3012 --	    .bf
                        3013 .LDW831:
000009a4 40560000*      3014 	movhi	hi(_ucRecEventPD),zero,r10
000009a8 8a570100*      3015 	ld.bu	lo(_ucRecEventPD)[r10],r10
                        3016 --	    .ef
                        3017 .LDW931:
                        3018 --line1363
                        3019 ..lin.C.3A.5C_ECU2.5CECU_Rivian_A1.5CTarget.5Crepo_projects.5CpRealEcu.5CcL_LATEST.5Cmake.5Coutput.5Cobjects.5Cprocdat.168::
                        3020 .LDWlin168:
000009ac 7f00           3021 	jmp	[lp]
                        3022 	.global	___ghs_eofn_DCM_InvIf_RecEventGetCntValue
                        3023 ___ghs_eofn_DCM_InvIf_RecEventGetCntValue:
                        3024 	.type	_DCM_InvIf_RecEventGetCntValue,@function
                        3025 	.size	_DCM_InvIf_RecEventGetCntValue,.-_DCM_InvIf_RecEventGetCntValue
                        3026 	.align	2
                        3027 
                        3028 	.data
                        3029 	.text
                        3030 	.align	2
                        3031 	.align	2
                        3032 ..gh.f.f.1.e.65:
                        3033 	.type	..gh.f.f.1.e.65,@object
                        3034 	.size	..gh.f.f.1.e.65,0
                        3035 	.global	_DCM_InvIf_RawRfTelGetValue
                        3036 _DCM_InvIf_RawRfTelGetValue:
000009ae 8007e160       3037 	prepare	{r25,r26,r28,r29,r31},0
000009b2 06e0           3038 	mov	r6,r28
000009b4 07d0           3039 	mov	r7,r26
000009b6 9c00           3040 	zxb	r28
000009b8 9a00           3041 	zxb	r26
000009ba 08c8           3042 	mov	r8,r25
000009bc 3d0600000000*  3043 	mov	_tReDataPD,r29
                        3044 --	    .bf
                        3045 .LDW041:
                        3046 --line1371
                        3047 ..lin.C.3A.5C_ECU2.5CECU_Rivian_A1.5CTarget.5Crepo_projects.5CpRealEcu.5CcL_LATEST.5Cmake.5Coutput.5Cobjects.5Cprocdat.169::
                        3048 .LDWlin169:
000009c2 9d370300       3049 	ld.bu	2[r29],r6
                        3050 	jarl	_ucGetLen4Cmd,lp
                        3050 <EXPANSION BEGIN>
                        3050 jarl22 _ucGetLen4Cmd , lp 
000009c6 80ff0000*      3050 <EXPANSION END>
                        3051 --line1373
                        3052 ..lin.C.3A.5C_ECU2.5CECU_Rivian_A1.5CTarget.5Crepo_projects.5CpRealEcu.5CcL_LATEST.5Cmake.5Coutput.5Cobjects.5Cprocdat.170::
                        3053 .LDWlin170:
000009ca e051           3054 	cmp	zero,r10
000009cc e205*          3055 	be	.L6231
000009ce 0a0601ff       3056 	addi	-255,r10,zero
000009d2 b205*          3057 	be	.L6231
                        3058 --line1375
                        3059 ..lin.C.3A.5C_ECU2.5CECU_Rivian_A1.5CTarget.5Crepo_projects.5CpRealEcu.5CcL_LATEST.5Cmake.5Coutput.5Cobjects.5Cprocdat.171::
                        3060 .LDWlin171:
000009d4 4152           3061 	add	1,r10
000009d6 8a00           3062 	zxb	r10
                        3063 .L6231:
000009d8 1c90           3064 	mov	r28,r18
000009da d50d*          3065 	br	.L6237
                        3066 .L6236:

                                                                      Page 55
                                                              C:\Users\nhuliyap\AppData\Local\Temp\gh_00008uc1.s
                        3067 --line1379
                        3068 ..lin.C.3A.5C_ECU2.5CECU_Rivian_A1.5CTarget.5Crepo_projects.5CpRealEcu.5CcL_LATEST.5Cmake.5Coutput.5Cobjects.5Cprocdat.172::
                        3069 .LDWlin172:
000009dc 0042           3070 	mov	0,r8
000009de ea91           3071 	cmp	r10,r18
000009e0 c905*          3072 	bnl	.L6235
                        3073 --line1384
                        3074 ..lin.C.3A.5C_ECU2.5CECU_Rivian_A1.5CTarget.5Crepo_projects.5CpRealEcu.5CcL_LATEST.5Cmake.5Coutput.5Cobjects.5Cprocdat.173::
                        3075 .LDWlin173:
000009e2 12f0           3076 	mov	r18,ep
000009e4 ddf1           3077 	add	r29,ep
000009e6 6240           3078 	sld.bu	2[ep],r8
                        3079 .L6235:
000009e8 12f0           3080 	mov	r18,ep
000009ea bcf1           3081 	sub	r28,ep
000009ec d9f1           3082 	add	r25,ep
000009ee 4192           3083 	add	1,r18
000009f0 8043           3084 	sst.b	r8,0[ep]
000009f2 9200           3085 	zxb	r18
                        3086 .L6237:
000009f4 1a48           3087 	mov	r26,r9
000009f6 dc49           3088 	add	r28,r9
000009f8 e991           3089 	cmp	r9,r18
000009fa 96f5*          3090 	blt	.L6236
                        3091 --	    .ef
                        3092 .LDW141:
                        3093 --line1391
                        3094 ..lin.C.3A.5C_ECU2.5CECU_Rivian_A1.5CTarget.5Crepo_projects.5CpRealEcu.5CcL_LATEST.5Cmake.5Coutput.5Cobjects.5Cprocdat.174::
                        3095 .LDWlin174:
000009fc 4006ff60       3096 	dispose	0,{r25,r26,r28,r29,r31},[lp]
                        3097 	.global	___ghs_eofn_DCM_InvIf_RawRfTelGetValue
                        3098 ___ghs_eofn_DCM_InvIf_RawRfTelGetValue:
                        3099 	.type	_DCM_InvIf_RawRfTelGetValue,@function
                        3100 	.size	_DCM_InvIf_RawRfTelGetValue,.-_DCM_InvIf_RawRfTelGetValue
                        3101 	.align	2
                        3102 --_u8_LocalCnt	r18	local
                        3103 --_u8TGSize	r10	local
                        3104 
                        3105 --_u8_StartPosition	r28	param
                        3106 --_u8_NumberOfBytesToCopy	r26	param
                        3107 --_u8_RxTelegBytesValues	r25	param
                        3108 
                        3109 	.data
                        3110 	.text
                        3111 	.align	2
                        3112 	.align	2
                        3113 ..gh.f.f.1.e.66:
                        3114 	.type	..gh.f.f.1.e.66,@object
                        3115 	.size	..gh.f.f.1.e.66,0
                        3116 	.global	_DCM_InvIf_AllReceivedTelegGetValue
                        3117 _DCM_InvIf_AllReceivedTelegGetValue:
                        3118 --	    .bf
                        3119 .LDW241:
00000a00 40560000*      3120 	movhi	hi(_U8_AllReceivedTelegCnt),zero,r10
00000a04 8a570100*      3121 	ld.bu	lo(_U8_AllReceivedTelegCnt)[r10],r10
                        3122 --	    .ef
                        3123 .LDW341:
                        3124 --line1393
                        3125 ..lin.C.3A.5C_ECU2.5CECU_Rivian_A1.5CTarget.5Crepo_projects.5CpRealEcu.5CcL_LATEST.5Cmake.5Coutput.5Cobjects.5Cprocdat.175::
                        3126 .LDWlin175:
00000a08 7f00           3127 	jmp	[lp]

                                                                      Page 56
                                                              C:\Users\nhuliyap\AppData\Local\Temp\gh_00008uc1.s
                        3128 	.global	___ghs_eofn_DCM_InvIf_AllReceivedTelegGetValue
                        3129 ___ghs_eofn_DCM_InvIf_AllReceivedTelegGetValue:
                        3130 	.type	_DCM_InvIf_AllReceivedTelegGetValue,@function
                        3131 	.size	_DCM_InvIf_AllReceivedTelegGetValue,.-_DCM_InvIf_AllReceivedTelegGetValue
                        3132 	.align	2
                        3133 
                        3134 	.data
                        3135 	.text
                        3136 	.align	2
                        3137 --_tReDataPD	_tReDataPD	static
                        3138 --_tWs_RxRotatSBuf	_tWs_RxRotatSBuf	static
                        3139 --_ucRotatSTelIndexPut	_ucRotatSTelIndexPut	static
                        3140 --_ucTyreInvalidPressSurpressionCnt	_ucTyreInvalidPressSurpressionCnt	static
                        3141 --_ucRotL	_ucRotL	static
                        3142 --_ucSnRotH	_ucSnRotH	static
                        3143 --_ucRecEventPD	_ucRecEventPD	static
                        3144 --_U8_AllReceivedTelegCnt	_U8_AllReceivedTelegCnt	static
                        3145 --_ucReifendruckPD	_ucReifendruckPD	static
                        3146 --_scTemperaturPD	_scTemperaturPD	static
                        3147 --_ucRestlebensdauerPD	_ucRestlebensdauerPD	static
                        3148 --_ucRSSIsumPD	_ucRSSIsumPD	static
                        3149 --_ucTelTypePD	_ucTelTypePD	static
                        3150 --_ucTransModePD	_ucTransModePD	static
                        3151 --_ushSensorDefectPD	_ushSensorDefectPD	static
                        3152 --_ucPatmoPD	_ucPatmoPD	static
                        3153 --_tReDataPreProcPD	_tReDataPreProcPD	static
                        3154 
                        3155 	.data
                        3156 	.section ".bss","awb"
                        3157 	.global	_ucRotatSTelIndexGet
000001a0 00             3158 _ucRotatSTelIndexGet:	.space	1
                        3159 	.type	_ucRotatSTelIndexGet,@object
                        3160 	.size	_ucRotatSTelIndexGet,1
                        3161 	.data
                        3162 	.ghsnote version,17
                        3163 	.ghsnote tools,3
                        3164 	.ghsnote options,144
                        3165 	.text
                        3166 	.align	2
                        3167 ..eof.C.3A.5C_ECU2.5CECU_Rivian_A1.5CTarget.5Crepo_projects.5CpRealEcu.5CcL_LATEST.5Cmake.5Coutput.5Cobjects.5Cprocdat...43.3A.5C_ECU2.5CECU_Rivian_A1.5CTarget.5Crepo_projects.5CpRealEcu.5CcL_LATEST.5Cmake..64F82DE8..0::
                        3168 	.section	.debug_info
                        3169 .Ldw_begin:
00000000 272c0000       3170 	.word	.Ldw_end-.Ldw_begin-4
00000004 0200           3171 	.byte	2,0
00000006 00000000*      3172 	.word	.Ldw_abbr_begin
0000000a 04             3173 	.byte	4
                        3174 	.section	.debug_abbrev
                        3175 .Ldw_abbr_begin:
                        3176 	.section	.debug_info
0000000b 01             3177 	.byte	1
0000000c 00000000*      3178 	.word	..bof.C.3A.5C_ECU2.5CECU_Rivian_A1.5CTarget.5Crepo_projects.5CpRealEcu.5CcL_LATEST.5Cmake.5Coutput.5Cobjects.5Cprocdat...43.3A.5C_ECU2.5CECU_Rivian_A1.5CTarget.5Crepo_projects.5CpRealEcu.5CcL_LATEST.5Cmake..64F82DE8..0
00000010 00000000*      3179 	.word	..eof.C.3A.5C_ECU2.5CECU_Rivian_A1.5CTarget.5Crepo_projects.5CpRealEcu.5CcL_LATEST.5Cmake.5Coutput.5Cobjects.5Cprocdat...43.3A.5C_ECU2.5CECU_Rivian_A1.5CTarget.5Crepo_projects.5CpRealEcu.5CcL_LATEST.5Cmake..64F82DE8..0
00000014 2e2e2f736f75   3180 	.strz	"../source/SwcApplTpms/procdat.c"
0000001a 7263652f5377 
00000020 634170706c54 
00000026 706d732f7072 
0000002c 6f636461742e 
00000032 6300 
00000034 433a5c5f4543   3181 	.strz	"C:\\_ECU2\\ECU_Rivian_A1\\Target\\repo_projects\\pRealEcu\\cL_LATEST\\make"
0000003a 55325c454355 
00000040 5f5269766961 

                                                                      Page 57
                                                              C:\Users\nhuliyap\AppData\Local\Temp\gh_00008uc1.s
00000046 6e5f41315c54 
0000004c 61726765745c 
00000052 7265706f5f70 
00000058 726f6a656374 
0000005e 735c70526561 
00000064 6c4563755c63 
0000006a 4c5f4c415445 
00000070 53545c6d616b 
00000076 6500 
00000078 474853204320   3182 	.strz	"GHS C 2015.1.7 [dual]"
0000007e 323031352e31 
00000084 2e37205b6475 
0000008a 616c5d00 
0000008e 0100           3183 	.byte	1,0
00000090 00000000*      3184 	.word	.Ldw_line_begin
00000094 00000000*      3185 	.word	.Ldw_macinfo_begin
00000098 00             3186 	.byte	0
                        3187 
                        3188 	.section	.debug_abbrev
00000000 01             3189 	.byte	1
00000001 11             3190 	.byte	17
00000002 01             3191 	.byte	1
00000003 1101           3192 	.byte	17,1
00000005 1201           3193 	.byte	18,1
00000007 0308           3194 	.byte	3,8
00000009 1b08           3195 	.byte	27,8
0000000b 2508           3196 	.byte	37,8
0000000d 1305           3197 	.byte	19,5
0000000f 1006           3198 	.byte	16,6
00000011 4306           3199 	.byte	67,6
00000013 420b           3200 	.byte	66,11
00000015 0000           3201 	.byte	0,0
                        3202 
                        3203 	.section	.debug_line
                        3204 .Ldw_line_begin:
00000000 8b120000       3205 	.word	.Ldw_line_end-.Ldw_line_begin-4
00000004 0200           3206 	.byte	2,0
00000006 00000000*      3207 	.word	.Ldw_lpro_end-.Ldw_lpro_begin
                        3208 .Ldw_lpro_begin:
0000000a 01             3209 	.byte	1
0000000b 00             3210 	.byte	0
0000000c 00             3211 	.byte	0
0000000d 04             3212 	.byte	4
0000000e 0a             3213 	.byte	10
0000000f 000101         3214 	.byte	0,1,1
00000012 010100         3215 	.byte	1,1,0
00000015 000001         3216 	.byte	0,0,1
00000018 00             3217 	.byte	0
00000019 2e2e2f736f75   3218 	.strz	"../source/SwcApplTpms/procdat.c"
0000001f 7263652f5377 
00000025 634170706c54 
0000002b 706d732f7072 
00000031 6f636461742e 
00000037 6300 
00000039 000000         3219 	.byte	0,0,0
0000003c 2e2e2f736f75   3220 	.strz	"../source/SwcApplTpms/global.hpp"
00000042 7263652f5377 
00000048 634170706c54 
0000004e 706d732f676c 
00000054 6f62616c2e68 
0000005a 707000 

                                                                      Page 58
                                                              C:\Users\nhuliyap\AppData\Local\Temp\gh_00008uc1.s
0000005d 000000         3221 	.byte	0,0,0
00000060 2e2e2f736f75   3222 	.strz	"../source/SwcApplTpms/Tpms_Rte_Data_Type.hpp"
00000066 7263652f5377 
0000006c 634170706c54 
00000072 706d732f5470 
00000078 6d735f527465 
0000007e 5f446174615f 
00000084 547970652e68 
0000008a 707000 
0000008d 000000         3223 	.byte	0,0,0
00000090 2e2e2f736f75   3224 	.strz	"../source/McalMcu/Types.hpp"
00000096 7263652f4d63 
0000009c 616c4d63752f 
000000a2 54797065732e 
000000a8 68707000 
000000ac 000000         3225 	.byte	0,0,0
000000af 2e2e2f736f75   3226 	.strz	"../source/common/Std_Types.hpp"
000000b5 7263652f636f 
000000bb 6d6d6f6e2f53 
000000c1 74645f547970 
000000c7 65732e687070 
000000cd 00 
000000ce 000000         3227 	.byte	0,0,0
000000d1 2e2e2f736f75   3228 	.strz	"../source/common/Platform_Types.hpp"
000000d7 7263652f636f 
000000dd 6d6d6f6e2f50 
000000e3 6c6174666f72 
000000e9 6d5f54797065 
000000ef 732e68707000 
000000f5 000000         3229 	.byte	0,0,0
000000f8 2e2e2f736f75   3230 	.strz	"../source/common/Compiler.hpp"
000000fe 7263652f636f 
00000104 6d6d6f6e2f43 
0000010a 6f6d70696c65 
00000110 722e68707000 
00000116 000000         3231 	.byte	0,0,0
00000119 2e2e2f736f75   3232 	.strz	"../source/ProjectCompiler/Compiler_Cfg.hpp"
0000011f 7263652f5072 
00000125 6f6a65637443 
0000012b 6f6d70696c65 
00000131 722f436f6d70 
00000137 696c65725f43 
0000013d 66672e687070 
00000143 00 
00000144 000000         3233 	.byte	0,0,0
00000147 2e2e2f736f75   3234 	.strz	"../source/ProjectCompiler/CompilerCfg_SwcServiceOs.hpp"
0000014d 7263652f5072 
00000153 6f6a65637443 
00000159 6f6d70696c65 
0000015f 722f436f6d70 
00000165 696c65724366 
0000016b 675f53776353 
00000171 657276696365 
00000177 4f732e687070 
0000017d 00 
0000017e 000000         3235 	.byte	0,0,0
00000181 2e2e2f736f75   3236 	.strz	"../source/SwcApplTpms/iTpms_Interface.hpp"
00000187 7263652f5377 
0000018d 634170706c54 
00000193 706d732f6954 
00000199 706d735f496e 

                                                                      Page 59
                                                              C:\Users\nhuliyap\AppData\Local\Temp\gh_00008uc1.s
0000019f 746572666163 
000001a5 652e68707000 
000001ab 000000         3237 	.byte	0,0,0
000001ae 2e2e2f736f75   3238 	.strz	"../source/SwcApplTpms/SwcApplTpms_Rte.hpp"
000001b4 7263652f5377 
000001ba 634170706c54 
000001c0 706d732f5377 
000001c6 634170706c54 
000001cc 706d735f5274 
000001d2 652e68707000 
000001d8 000000         3239 	.byte	0,0,0
000001db 2e2e2f736f75   3240 	.strz	"../source/SwcApplTpms/SwcApplTpms_Rte_Type.hpp"
000001e1 7263652f5377 
000001e7 634170706c54 
000001ed 706d732f5377 
000001f3 634170706c54 
000001f9 706d735f5274 
000001ff 655f54797065 
00000205 2e68707000 
0000020a 000000         3241 	.byte	0,0,0
0000020d 2e2e2f736f75   3242 	.strz	"../source/ProjectCfg/SwcApplTpms_NvM_If.hpp"
00000213 7263652f5072 
00000219 6f6a65637443 
0000021f 66672f537763 
00000225 4170706c5470 
0000022b 6d735f4e764d 
00000231 5f49662e6870 
00000237 7000 
00000239 000000         3243 	.byte	0,0,0
0000023c 2e2e2f736f75   3244 	.strz	"../source/SwcApplTpms/WallocX.hpp"
00000242 7263652f5377 
00000248 634170706c54 
0000024e 706d732f5761 
00000254 6c6c6f63582e 
0000025a 68707000 
0000025e 000000         3245 	.byte	0,0,0
00000261 2e2e2f736f75   3246 	.strz	"../source/SwcApplTpms/procdatX.hpp"
00000267 7263652f5377 
0000026d 634170706c54 
00000273 706d732f7072 
00000279 6f6364617458 
0000027f 2e68707000 
00000284 000000         3247 	.byte	0,0,0
00000287 2e2e2f736f75   3248 	.strz	"../source/SwcApplTpms/Intface/tss_stdx.hpp"
0000028d 7263652f5377 
00000293 634170706c54 
00000299 706d732f496e 
0000029f 74666163652f 
000002a5 7473735f7374 
000002ab 64782e687070 
000002b1 00 
000002b2 000000         3249 	.byte	0,0,0
000002b5 2e2e2f736f75   3250 	.strz	"../source/ProjectCfg/CfgSwcApplTpms.hpp"
000002bb 7263652f5072 
000002c1 6f6a65637443 
000002c7 66672f436667 
000002cd 537763417070 
000002d3 6c54706d732e 
000002d9 68707000 
000002dd 000000         3251 	.byte	0,0,0
000002e0 2e2e2f736f75   3252 	.strz	"../source/SwcApplTpms/cd_decoder_x.hpp"

                                                                      Page 60
                                                              C:\Users\nhuliyap\AppData\Local\Temp\gh_00008uc1.s
000002e6 7263652f5377 
000002ec 634170706c54 
000002f2 706d732f6364 
000002f8 5f6465636f64 
000002fe 65725f782e68 
00000304 707000 
00000307 000000         3253 	.byte	0,0,0
0000030a 2e2e2f736f75   3254 	.strz	"../source/SwcApplTpms/procdat.hpp"
00000310 7263652f5377 
00000316 634170706c54 
0000031c 706d732f7072 
00000322 6f636461742e 
00000328 68707000 
0000032c 000000         3255 	.byte	0,0,0
0000032f 2e2e2f736f75   3256 	.strz	"../source/SwcApplTpms/statisticsX.hpp"
00000335 7263652f5377 
0000033b 634170706c54 
00000341 706d732f7374 
00000347 617469737469 
0000034d 6373582e6870 
00000353 7000 
00000355 000000         3257 	.byte	0,0,0
00000358 2e2e2f736f75   3258 	.strz	"../source/SwcApplTpms/statemanagerX.hpp"
0000035e 7263652f5377 
00000364 634170706c54 
0000036a 706d732f7374 
00000370 6174656d616e 
00000376 61676572582e 
0000037c 68707000 
00000380 000000         3259 	.byte	0,0,0
00000383 2e2e2f736f75   3260 	.strz	"../source/SwcApplTpms/state_bzX.hpp"
00000389 7263652f5377 
0000038f 634170706c54 
00000395 706d732f7374 
0000039b 6174655f627a 
000003a1 582e68707000 
000003a7 000000         3261 	.byte	0,0,0
000003aa 2e2e2f736f75   3262 	.strz	"../source/SwcApplTpms/SwcApplTpms_CAN_If.hpp"
000003b0 7263652f5377 
000003b6 634170706c54 
000003bc 706d732f5377 
000003c2 634170706c54 
000003c8 706d735f4341 
000003ce 4e5f49662e68 
000003d4 707000 
000003d7 000000         3263 	.byte	0,0,0
000003da 2e2e2f736f75   3264 	.strz	"../source/SwcApplTpms/SwcApplTpms_DevCanMessages.hpp"
000003e0 7263652f5377 
000003e6 634170706c54 
000003ec 706d732f5377 
000003f2 634170706c54 
000003f8 706d735f4465 
000003fe 7643616e4d65 
00000404 737361676573 
0000040a 2e68707000 
0000040f 000000         3265 	.byte	0,0,0
00000412 2e2e2f736f75   3266 	.strz	"../source/SwcApplTpms/SwcApplTpms_DevCanMesReqInterfaces.hpp"
00000418 7263652f5377 
0000041e 634170706c54 
00000424 706d732f5377 
0000042a 634170706c54 

                                                                      Page 61
                                                              C:\Users\nhuliyap\AppData\Local\Temp\gh_00008uc1.s
00000430 706d735f4465 
00000436 7643616e4d65 
0000043c 73526571496e 
00000442 746572666163 
00000448 65732e687070 
0000044e 00 
0000044f 000000         3267 	.byte	0,0,0
00000452 2e2e2f736f75   3268 	.strz	"../source/SwcApplTpms/Intface/busmsgX.hpp"
00000458 7263652f5377 
0000045e 634170706c54 
00000464 706d732f496e 
0000046a 74666163652f 
00000470 6275736d7367 
00000476 582e68707000 
0000047c 000000         3269 	.byte	0,0,0
0000047f 00             3270 	.byte	0
                        3271 .Ldw_lpro_end:
                        3272 	.section	.debug_macinfo
                        3273 .Ldw_macinfo_begin:
                        3274 	.section	.debug_frame
                        3275 .LDW_4d1b500:
00000000 00000000*      3276 	.word	.LDW_unq_2-.LDW_unq_1
                        3277 .LDW_unq_1:
00000004 ffffffff       3278 	.byte	255,255,255,255
00000008 01             3279 	.byte	1
00000009 00             3280 	.byte	0
0000000a 01             3281 	.byte	1
0000000b 01             3282 	.byte	1
0000000c 1f             3283 	.byte	31
0000000d 0c             3284 	.byte	12
0000000e 03             3285 	.byte	3
0000000f 00             3286 	.byte	0
00000010 07             3287 	.byte	7
00000011 00             3288 	.byte	0
00000012 07             3289 	.byte	7
00000013 01             3290 	.byte	1
00000014 07             3291 	.byte	7
00000015 02             3292 	.byte	2
00000016 07             3293 	.byte	7
00000017 03             3294 	.byte	3
00000018 07             3295 	.byte	7
00000019 04             3296 	.byte	4
0000001a 07             3297 	.byte	7
0000001b 05             3298 	.byte	5
0000001c 07             3299 	.byte	7
0000001d 06             3300 	.byte	6
0000001e 07             3301 	.byte	7
0000001f 07             3302 	.byte	7
00000020 07             3303 	.byte	7
00000021 08             3304 	.byte	8
00000022 07             3305 	.byte	7
00000023 09             3306 	.byte	9
00000024 07             3307 	.byte	7
00000025 0a             3308 	.byte	10
00000026 07             3309 	.byte	7
00000027 0b             3310 	.byte	11
00000028 07             3311 	.byte	7
00000029 0c             3312 	.byte	12
0000002a 07             3313 	.byte	7
0000002b 0d             3314 	.byte	13
0000002c 07             3315 	.byte	7

                                                                      Page 62
                                                              C:\Users\nhuliyap\AppData\Local\Temp\gh_00008uc1.s
0000002d 0e             3316 	.byte	14
0000002e 07             3317 	.byte	7
0000002f 0f             3318 	.byte	15
00000030 07             3319 	.byte	7
00000031 10             3320 	.byte	16
00000032 07             3321 	.byte	7
00000033 11             3322 	.byte	17
00000034 07             3323 	.byte	7
00000035 12             3324 	.byte	18
00000036 07             3325 	.byte	7
00000037 13             3326 	.byte	19
00000038 08             3327 	.byte	8
00000039 14             3328 	.byte	20
0000003a 08             3329 	.byte	8
0000003b 15             3330 	.byte	21
0000003c 08             3331 	.byte	8
0000003d 16             3332 	.byte	22
0000003e 08             3333 	.byte	8
0000003f 17             3334 	.byte	23
00000040 08             3335 	.byte	8
00000041 18             3336 	.byte	24
00000042 08             3337 	.byte	8
00000043 19             3338 	.byte	25
00000044 08             3339 	.byte	8
00000045 1a             3340 	.byte	26
00000046 08             3341 	.byte	8
00000047 1b             3342 	.byte	27
00000048 08             3343 	.byte	8
00000049 1c             3344 	.byte	28
0000004a 08             3345 	.byte	8
0000004b 1d             3346 	.byte	29
0000004c 07             3347 	.byte	7
0000004d 1e             3348 	.byte	30
0000004e 08             3349 	.byte	8
0000004f 1f             3350 	.byte	31
00000050 07             3351 	.byte	7
00000051 20             3352 	.byte	32
00000052 07             3353 	.byte	7
00000053 21             3354 	.byte	33
00000054 07             3355 	.byte	7
00000055 22             3356 	.byte	34
00000056 07             3357 	.byte	7
00000057 23             3358 	.byte	35
00000058 07             3359 	.byte	7
00000059 24             3360 	.byte	36
0000005a 07             3361 	.byte	7
0000005b 25             3362 	.byte	37
0000005c 07             3363 	.byte	7
0000005d 26             3364 	.byte	38
0000005e 07             3365 	.byte	7
0000005f 27             3366 	.byte	39
00000060 07             3367 	.byte	7
00000061 28             3368 	.byte	40
00000062 07             3369 	.byte	7
00000063 29             3370 	.byte	41
00000064 07             3371 	.byte	7
00000065 2a             3372 	.byte	42
00000066 07             3373 	.byte	7
00000067 2b             3374 	.byte	43
00000068 07             3375 	.byte	7
00000069 2c             3376 	.byte	44

                                                                      Page 63
                                                              C:\Users\nhuliyap\AppData\Local\Temp\gh_00008uc1.s
0000006a 07             3377 	.byte	7
0000006b 2d             3378 	.byte	45
0000006c 07             3379 	.byte	7
0000006d 2e             3380 	.byte	46
0000006e 07             3381 	.byte	7
0000006f 2f             3382 	.byte	47
00000070 07             3383 	.byte	7
00000071 30             3384 	.byte	48
00000072 07             3385 	.byte	7
00000073 31             3386 	.byte	49
00000074 07             3387 	.byte	7
00000075 32             3388 	.byte	50
00000076 07             3389 	.byte	7
00000077 33             3390 	.byte	51
00000078 07             3391 	.byte	7
00000079 34             3392 	.byte	52
0000007a 07             3393 	.byte	7
0000007b 35             3394 	.byte	53
0000007c 07             3395 	.byte	7
0000007d 36             3396 	.byte	54
0000007e 07             3397 	.byte	7
0000007f 37             3398 	.byte	55
00000080 07             3399 	.byte	7
00000081 38             3400 	.byte	56
00000082 07             3401 	.byte	7
00000083 39             3402 	.byte	57
00000084 07             3403 	.byte	7
00000085 3a             3404 	.byte	58
00000086 07             3405 	.byte	7
00000087 3b             3406 	.byte	59
00000088 07             3407 	.byte	7
00000089 3c             3408 	.byte	60
0000008a 07             3409 	.byte	7
0000008b 3d             3410 	.byte	61
0000008c 07             3411 	.byte	7
0000008d 3e             3412 	.byte	62
0000008e 07             3413 	.byte	7
0000008f 3f             3414 	.byte	63
                        3415 .LDW_unq_2:
                        3416 	.section	.debug_info
                        3417 .LDW_48a6dc8:
00000099 45             3418 	.byte	69
0000009a 01             3419 	.byte	1
                        3420 
                        3421 	.section	.debug_abbrev
00000017 45             3422 	.byte	69
00000018 15             3423 	.byte	21
00000019 01             3424 	.byte	1
0000001a 270c           3425 	.byte	39,12
0000001c 0000           3426 	.byte	0,0
                        3427 
                        3428 	.section	.debug_info
0000009b 00             3429 	.byte	0
                        3430 
                        3431 .LDW_48a7180:
0000009c 25             3432 	.byte	37
0000009d 756e7369676e   3433 	.strz	"unsigned char"
000000a3 656420636861 
000000a9 7200 
000000ab 08             3434 	.byte	8
000000ac 01             3435 	.byte	1

                                                                      Page 64
                                                              C:\Users\nhuliyap\AppData\Local\Temp\gh_00008uc1.s
                        3436 
                        3437 	.section	.debug_abbrev
0000001e 25             3438 	.byte	37
0000001f 24             3439 	.byte	36
00000020 00             3440 	.byte	0
00000021 0308           3441 	.byte	3,8
00000023 3e0b           3442 	.byte	62,11
00000025 0b0b           3443 	.byte	11,11
00000027 0000           3444 	.byte	0,0
                        3445 
                        3446 	.section	.debug_info
                        3447 .LDW_48a7030:
000000ad 45             3448 	.byte	69
000000ae 01             3449 	.byte	1
                        3450 
000000af 00             3451 	.byte	0
                        3452 
                        3453 .LDW_48a6e70:
000000b0 25             3454 	.byte	37
000000b1 756e7369676e   3455 	.strz	"unsigned long"
000000b7 6564206c6f6e 
000000bd 6700 
000000bf 07             3456 	.byte	7
000000c0 04             3457 	.byte	4
                        3458 
                        3459 .LDW_48a7228:
000000c1 44             3460 	.byte	68
000000c2 00000000*      3461 	.word	.LDW_48eea30
000000c6 01             3462 	.byte	1
                        3463 
                        3464 	.section	.debug_abbrev
00000029 44             3465 	.byte	68
0000002a 15             3466 	.byte	21
0000002b 01             3467 	.byte	1
0000002c 4910           3468 	.byte	73,16
0000002e 270c           3469 	.byte	39,12
00000030 0000           3470 	.byte	0,0
                        3471 
                        3472 	.section	.debug_info
000000c7 00             3473 	.byte	0
                        3474 
                        3475 .LDW_48a7260:
000000c8 44             3476 	.byte	68
000000c9 00000000*      3477 	.word	.LDW_48ee8e8
000000cd 01             3478 	.byte	1
                        3479 
000000ce 00             3480 	.byte	0
                        3481 
                        3482 .LDW_48a6e00:
000000cf 44             3483 	.byte	68
000000d0 00000000*      3484 	.word	.LDW_48ee8e8
000000d4 01             3485 	.byte	1
                        3486 
000000d5 00             3487 	.byte	0
                        3488 
                        3489 .LDW_48a6e38:
000000d6 44             3490 	.byte	68
000000d7 00000000*      3491 	.word	.LDW_48ee8e8
000000db 01             3492 	.byte	1
                        3493 
000000dc 00             3494 	.byte	0

                                                                      Page 65
                                                              C:\Users\nhuliyap\AppData\Local\Temp\gh_00008uc1.s
                        3495 
                        3496 .LDW_48a7458:
000000dd 44             3497 	.byte	68
000000de 00000000*      3498 	.word	.LDW_48ee8e8
000000e2 01             3499 	.byte	1
                        3500 
000000e3 00             3501 	.byte	0
                        3502 
                        3503 .LDW_48a7490:
000000e4 44             3504 	.byte	68
000000e5 00000000*      3505 	.word	.LDW_48ee8e8
000000e9 01             3506 	.byte	1
                        3507 
000000ea 00             3508 	.byte	0
                        3509 
                        3510 .LDW_48a7420:
000000eb 44             3511 	.byte	68
000000ec 00000000*      3512 	.word	.LDW_48ee8e8
000000f0 01             3513 	.byte	1
                        3514 
000000f1 00             3515 	.byte	0
                        3516 
                        3517 .LDW_4d74460:
000000f2 44             3518 	.byte	68
000000f3 00000000*      3519 	.word	.LDW_48ee8e8
000000f7 01             3520 	.byte	1
                        3521 
000000f8 00             3522 	.byte	0
                        3523 
                        3524 .LDW_4d74930:
000000f9 2f             3525 	.byte	47
000000fa 00000000*      3526 	.word	.LDW_4d74c48
                        3527 
                        3528 	.section	.debug_abbrev
00000032 2f             3529 	.byte	47
00000033 0f             3530 	.byte	15
00000034 00             3531 	.byte	0
00000035 4910           3532 	.byte	73,16
00000037 0000           3533 	.byte	0,0
                        3534 
                        3535 	.section	.debug_info
                        3536 .LDW_4d749d8:
000000fe 44             3537 	.byte	68
000000ff 00000000*      3538 	.word	.LDW_4d74930
00000103 01             3539 	.byte	1
                        3540 
00000104 00             3541 	.byte	0
                        3542 
                        3543 .LDW_4d748f8:
00000105 44             3544 	.byte	68
00000106 00000000*      3545 	.word	.LDW_48eea30
0000010a 01             3546 	.byte	1
                        3547 
0000010b 00             3548 	.byte	0
                        3549 
                        3550 .LDW_4d74968:
0000010c 45             3551 	.byte	69
0000010d 01             3552 	.byte	1
                        3553 
                        3554 .LDW_48ea410:
0000010e 12             3555 	.byte	18

                                                                      Page 66
                                                              C:\Users\nhuliyap\AppData\Local\Temp\gh_00008uc1.s
0000010f 00000000*      3556 	.word	.LDW_48eea30
00000113 00             3557 	.byte	0
                        3558 
                        3559 	.section	.debug_abbrev
00000039 12             3560 	.byte	18
0000003a 05             3561 	.byte	5
0000003b 00             3562 	.byte	0
0000003c 4910           3563 	.byte	73,16
0000003e 4b0c           3564 	.byte	75,12
00000040 0000           3565 	.byte	0,0
                        3566 
                        3567 	.section	.debug_info
00000114 00             3568 	.byte	0
                        3569 
                        3570 .LDW_4d74850:
00000115 44             3571 	.byte	68
00000116 00000000*      3572 	.word	.LDW_48ee8e8
0000011a 01             3573 	.byte	1
                        3574 
0000011b 00             3575 	.byte	0
                        3576 
                        3577 .LDW_4d746c8:
0000011c 45             3578 	.byte	69
0000011d 01             3579 	.byte	1
                        3580 
                        3581 .LDW_48ea4d0:
0000011e 12             3582 	.byte	18
0000011f 00000000*      3583 	.word	.LDW_48ee8e8
00000123 00             3584 	.byte	0
                        3585 
00000124 00             3586 	.byte	0
                        3587 
                        3588 .LDW_4d74700:
00000125 25             3589 	.byte	37
00000126 7369676e6564   3590 	.strz	"signed char"
0000012c 206368617200 
00000132 06             3591 	.byte	6
00000133 01             3592 	.byte	1
                        3593 
                        3594 .LDW_4d749a0:
00000134 44             3595 	.byte	68
00000135 00000000*      3596 	.word	.LDW_4d75048
00000139 01             3597 	.byte	1
                        3598 
0000013a 00             3599 	.byte	0
                        3600 
                        3601 .LDW_4d74428:
0000013b 45             3602 	.byte	69
0000013c 01             3603 	.byte	1
                        3604 
                        3605 .LDW_48eaa70:
0000013d 12             3606 	.byte	18
0000013e 00000000*      3607 	.word	.LDW_4d75048
00000142 00             3608 	.byte	0
                        3609 
00000143 00             3610 	.byte	0
                        3611 
                        3612 .LDW_4d74a10:
00000144 44             3613 	.byte	68
00000145 00000000*      3614 	.word	.LDW_48ee8e8
00000149 01             3615 	.byte	1

                                                                      Page 67
                                                              C:\Users\nhuliyap\AppData\Local\Temp\gh_00008uc1.s
                        3616 
0000014a 00             3617 	.byte	0
                        3618 
                        3619 .LDW_4d745e8:
0000014b 45             3620 	.byte	69
0000014c 01             3621 	.byte	1
                        3622 
                        3623 .LDW_48eaa10:
0000014d 12             3624 	.byte	18
0000014e 00000000*      3625 	.word	.LDW_48ee8e8
00000152 00             3626 	.byte	0
                        3627 
00000153 00             3628 	.byte	0
                        3629 
                        3630 .LDW_4d743b8:
00000154 44             3631 	.byte	68
00000155 00000000*      3632 	.word	.LDW_48ee8e8
00000159 01             3633 	.byte	1
                        3634 
0000015a 00             3635 	.byte	0
                        3636 
                        3637 .LDW_4d74a48:
0000015b 45             3638 	.byte	69
0000015c 01             3639 	.byte	1
                        3640 
                        3641 .LDW_48eab00:
0000015d 12             3642 	.byte	18
0000015e 00000000*      3643 	.word	.LDW_48ee8e8
00000162 00             3644 	.byte	0
                        3645 
00000163 00             3646 	.byte	0
                        3647 
                        3648 .LDW_4d74770:
00000164 25             3649 	.byte	37
00000165 756e7369676e   3650 	.strz	"unsigned short"
0000016b 65642073686f 
00000171 727400 
00000174 07             3651 	.byte	7
00000175 02             3652 	.byte	2
                        3653 
                        3654 .LDW_4d747a8:
00000176 44             3655 	.byte	68
00000177 00000000*      3656 	.word	.LDW_4d76468
0000017b 01             3657 	.byte	1
                        3658 
0000017c 00             3659 	.byte	0
                        3660 
                        3661 .LDW_4d743f0:
0000017d 45             3662 	.byte	69
0000017e 01             3663 	.byte	1
                        3664 
                        3665 .LDW_4d76e80:
0000017f 12             3666 	.byte	18
00000180 00000000*      3667 	.word	.LDW_4d76468
00000184 00             3668 	.byte	0
                        3669 
00000185 00             3670 	.byte	0
                        3671 
                        3672 .LDW_4d74380:
00000186 44             3673 	.byte	68
00000187 00000000*      3674 	.word	.LDW_48ee8e8

                                                                      Page 68
                                                              C:\Users\nhuliyap\AppData\Local\Temp\gh_00008uc1.s
0000018b 01             3675 	.byte	1
                        3676 
                        3677 .LDW_4d76d30:
0000018c 12             3678 	.byte	18
0000018d 00000000*      3679 	.word	.LDW_48ee8e8
00000191 00             3680 	.byte	0
                        3681 
00000192 00             3682 	.byte	0
                        3683 
                        3684 .LDW_4d74620:
00000193 44             3685 	.byte	68
00000194 00000000*      3686 	.word	.LDW_48ee8e8
00000198 01             3687 	.byte	1
                        3688 
                        3689 .LDW_4d76ee0:
00000199 12             3690 	.byte	18
0000019a 00000000*      3691 	.word	.LDW_48ee8e8
0000019e 00             3692 	.byte	0
                        3693 
0000019f 00             3694 	.byte	0
                        3695 
                        3696 .LDW_4d74888:
000001a0 44             3697 	.byte	68
000001a1 00000000*      3698 	.word	.LDW_48ee8e8
000001a5 01             3699 	.byte	1
                        3700 
                        3701 .LDW_4d77000:
000001a6 12             3702 	.byte	18
000001a7 00000000*      3703 	.word	.LDW_48ee8e8
000001ab 00             3704 	.byte	0
                        3705 
000001ac 00             3706 	.byte	0
                        3707 
                        3708 .LDW_4d76570:
000001ad 29             3709 	.byte	41
000001ae 00000000*      3710 	.word	.LDW_4d76518
                        3711 
                        3712 	.section	.debug_abbrev
00000042 29             3713 	.byte	41
00000043 26             3714 	.byte	38
00000044 00             3715 	.byte	0
00000045 4910           3716 	.byte	73,16
00000047 0000           3717 	.byte	0,0
                        3718 
                        3719 	.section	.debug_info
                        3720 .LDW_4d747e0:
000001b2 2f             3721 	.byte	47
000001b3 00000000*      3722 	.word	.LDW_4d76570
                        3723 
                        3724 .LDW_4d74498:
000001b7 45             3725 	.byte	69
000001b8 01             3726 	.byte	1
                        3727 
                        3728 .LDW_4d76f40:
000001b9 12             3729 	.byte	18
000001ba 00000000*      3730 	.word	.LDW_4d747e0
000001be 00             3731 	.byte	0
                        3732 
000001bf 00             3733 	.byte	0
                        3734 
                        3735 .LDW_4d744d0:

                                                                      Page 69
                                                              C:\Users\nhuliyap\AppData\Local\Temp\gh_00008uc1.s
000001c0 45             3736 	.byte	69
000001c1 01             3737 	.byte	1
                        3738 
                        3739 .LDW_4d76e20:
000001c2 12             3740 	.byte	18
000001c3 00000000*      3741 	.word	.LDW_48ee8e8
000001c7 00             3742 	.byte	0
                        3743 
000001c8 00             3744 	.byte	0
                        3745 
                        3746 .LDW_4d74658:
000001c9 45             3747 	.byte	69
000001ca 01             3748 	.byte	1
                        3749 
                        3750 .LDW_4d76b50:
000001cb 12             3751 	.byte	18
000001cc 00000000*      3752 	.word	.LDW_48ee8e8
000001d0 00             3753 	.byte	0
                        3754 
000001d1 00             3755 	.byte	0
                        3756 
                        3757 .LDW_4d74508:
000001d2 44             3758 	.byte	68
000001d3 00000000*      3759 	.word	.LDW_48ee8e8
000001d7 01             3760 	.byte	1
                        3761 
                        3762 .LDW_4d76cd0:
000001d8 12             3763 	.byte	18
000001d9 00000000*      3764 	.word	.LDW_48ee8e8
000001dd 00             3765 	.byte	0
                        3766 
000001de 00             3767 	.byte	0
                        3768 
                        3769 .LDW_4d74540:
000001df 45             3770 	.byte	69
000001e0 01             3771 	.byte	1
                        3772 
                        3773 .LDW_4d76fd0:
000001e1 12             3774 	.byte	18
000001e2 00000000*      3775 	.word	.LDW_48ee8e8
000001e6 00             3776 	.byte	0
                        3777 
                        3778 .LDW_4d76f10:
000001e7 12             3779 	.byte	18
000001e8 00000000*      3780 	.word	.LDW_48ee8e8
000001ec 00             3781 	.byte	0
                        3782 
000001ed 00             3783 	.byte	0
                        3784 
                        3785 .LDW_4d74578:
000001ee 44             3786 	.byte	68
000001ef 00000000*      3787 	.word	.LDW_4d75048
000001f3 01             3788 	.byte	1
                        3789 
                        3790 .LDW_4d76d60:
000001f4 12             3791 	.byte	18
000001f5 00000000*      3792 	.word	.LDW_48ee8e8
000001f9 00             3793 	.byte	0
                        3794 
000001fa 00             3795 	.byte	0
                        3796 

                                                                      Page 70
                                                              C:\Users\nhuliyap\AppData\Local\Temp\gh_00008uc1.s
                        3797 .LDW_4d748c0:
000001fb 45             3798 	.byte	69
000001fc 01             3799 	.byte	1
                        3800 
                        3801 .LDW_4d76f70:
000001fd 12             3802 	.byte	18
000001fe 00000000*      3803 	.word	.LDW_4d75048
00000202 00             3804 	.byte	0
                        3805 
                        3806 .LDW_4d77060:
00000203 12             3807 	.byte	18
00000204 00000000*      3808 	.word	.LDW_48ee8e8
00000208 00             3809 	.byte	0
                        3810 
00000209 00             3811 	.byte	0
                        3812 
                        3813 .LDW_4d74738:
0000020a 44             3814 	.byte	68
0000020b 00000000*      3815 	.word	.LDW_48ee8e8
0000020f 01             3816 	.byte	1
                        3817 
                        3818 .LDW_4d76ac0:
00000210 12             3819 	.byte	18
00000211 00000000*      3820 	.word	.LDW_48ee8e8
00000215 00             3821 	.byte	0
                        3822 
00000216 00             3823 	.byte	0
                        3824 
                        3825 .LDW_4d745b0:
00000217 45             3826 	.byte	69
00000218 01             3827 	.byte	1
                        3828 
                        3829 .LDW_4d76b80:
00000219 12             3830 	.byte	18
0000021a 00000000*      3831 	.word	.LDW_48ee8e8
0000021e 00             3832 	.byte	0
                        3833 
                        3834 .LDW_4d76bb0:
0000021f 12             3835 	.byte	18
00000220 00000000*      3836 	.word	.LDW_48ee8e8
00000224 00             3837 	.byte	0
                        3838 
00000225 00             3839 	.byte	0
                        3840 
                        3841 .LDW_4d74690:
00000226 45             3842 	.byte	69
00000227 01             3843 	.byte	1
                        3844 
                        3845 .LDW_4d76c10:
00000228 12             3846 	.byte	18
00000229 00000000*      3847 	.word	.LDW_48ee8e8
0000022d 00             3848 	.byte	0
                        3849 
                        3850 .LDW_4d76c70:
0000022e 12             3851 	.byte	18
0000022f 00000000*      3852 	.word	.LDW_48ee8e8
00000233 00             3853 	.byte	0
                        3854 
00000234 00             3855 	.byte	0
                        3856 
                        3857 .LDW_4d74818:

                                                                      Page 71
                                                              C:\Users\nhuliyap\AppData\Local\Temp\gh_00008uc1.s
00000235 45             3858 	.byte	69
00000236 01             3859 	.byte	1
                        3860 
                        3861 .LDW_4d77690:
00000237 12             3862 	.byte	18
00000238 00000000*      3863 	.word	.LDW_48ee8e8
0000023c 00             3864 	.byte	0
                        3865 
                        3866 .LDW_4d772d0:
0000023d 12             3867 	.byte	18
0000023e 00000000*      3868 	.word	.LDW_48ee8e8
00000242 00             3869 	.byte	0
                        3870 
00000243 00             3871 	.byte	0
                        3872 
                        3873 .LDW_4d74a80:
00000244 44             3874 	.byte	68
00000245 00000000*      3875 	.word	.LDW_48ee8e8
00000249 01             3876 	.byte	1
                        3877 
                        3878 .LDW_4d77180:
0000024a 12             3879 	.byte	18
0000024b 00000000*      3880 	.word	.LDW_48ee8e8
0000024f 00             3881 	.byte	0
                        3882 
00000250 00             3883 	.byte	0
                        3884 
                        3885 .LDW_4d74ab8:
00000251 45             3886 	.byte	69
00000252 01             3887 	.byte	1
                        3888 
                        3889 .LDW_4d773f0:
00000253 12             3890 	.byte	18
00000254 00000000*      3891 	.word	.LDW_48ee8e8
00000258 00             3892 	.byte	0
                        3893 
                        3894 .LDW_4d770c0:
00000259 12             3895 	.byte	18
0000025a 00000000*      3896 	.word	.LDW_48ee8e8
0000025e 00             3897 	.byte	0
                        3898 
0000025f 00             3899 	.byte	0
                        3900 
                        3901 .LDW_4d74af0:
00000260 44             3902 	.byte	68
00000261 00000000*      3903 	.word	.LDW_4d76468
00000265 01             3904 	.byte	1
                        3905 
                        3906 .LDW_4d77480:
00000266 12             3907 	.byte	18
00000267 00000000*      3908 	.word	.LDW_48ee8e8
0000026b 00             3909 	.byte	0
                        3910 
0000026c 00             3911 	.byte	0
                        3912 
                        3913 .LDW_4da91e8:
0000026d 45             3914 	.byte	69
0000026e 01             3915 	.byte	1
                        3916 
                        3917 .LDW_4d77210:
0000026f 12             3918 	.byte	18

                                                                      Page 72
                                                              C:\Users\nhuliyap\AppData\Local\Temp\gh_00008uc1.s
00000270 00000000*      3919 	.word	.LDW_4d76468
00000274 00             3920 	.byte	0
                        3921 
                        3922 .LDW_4d774e0:
00000275 12             3923 	.byte	18
00000276 00000000*      3924 	.word	.LDW_48ee8e8
0000027a 00             3925 	.byte	0
                        3926 
0000027b 00             3927 	.byte	0
                        3928 
                        3929 .LDW_4da9220:
0000027c 44             3930 	.byte	68
0000027d 00000000*      3931 	.word	.LDW_48ee8e8
00000281 01             3932 	.byte	1
                        3933 
                        3934 .LDW_4d77360:
00000282 12             3935 	.byte	18
00000283 00000000*      3936 	.word	.LDW_48ee8e8
00000287 00             3937 	.byte	0
                        3938 
00000288 00             3939 	.byte	0
                        3940 
                        3941 .LDW_4da9258:
00000289 44             3942 	.byte	68
0000028a 00000000*      3943 	.word	.LDW_4d76468
0000028e 01             3944 	.byte	1
                        3945 
0000028f 00             3946 	.byte	0
                        3947 
                        3948 .LDW_4da8ed8:
00000290 2f             3949 	.byte	47
00000291 00000000*      3950 	.word	.LDW_48ee8e8
                        3951 
                        3952 .LDW_4da8e68:
00000295 44             3953 	.byte	68
00000296 00000000*      3954 	.word	.LDW_4d76468
0000029a 01             3955 	.byte	1
                        3956 
                        3957 .LDW_4d77300:
0000029b 12             3958 	.byte	18
0000029c 00000000*      3959 	.word	.LDW_48ee8e8
000002a0 00             3960 	.byte	0
                        3961 
                        3962 .LDW_4d772a0:
000002a1 12             3963 	.byte	18
000002a2 00000000*      3964 	.word	.LDW_4da8ed8
000002a6 00             3965 	.byte	0
                        3966 
000002a7 00             3967 	.byte	0
                        3968 
                        3969 .LDW_4da8ff0:
000002a8 2f             3970 	.byte	47
000002a9 00000000*      3971 	.word	.LDW_4d75048
                        3972 
                        3973 .LDW_4da8f10:
000002ad 44             3974 	.byte	68
000002ae 00000000*      3975 	.word	.LDW_4d76468
000002b2 01             3976 	.byte	1
                        3977 
                        3978 .LDW_4d77330:
000002b3 12             3979 	.byte	18

                                                                      Page 73
                                                              C:\Users\nhuliyap\AppData\Local\Temp\gh_00008uc1.s
000002b4 00000000*      3980 	.word	.LDW_48ee8e8
000002b8 00             3981 	.byte	0
                        3982 
                        3983 .LDW_4d77540:
000002b9 12             3984 	.byte	18
000002ba 00000000*      3985 	.word	.LDW_4da8ff0
000002be 00             3986 	.byte	0
                        3987 
000002bf 00             3988 	.byte	0
                        3989 
                        3990 .LDW_4da91b0:
000002c0 45             3991 	.byte	69
000002c1 01             3992 	.byte	1
                        3993 
                        3994 .LDW_4d773c0:
000002c2 12             3995 	.byte	18
000002c3 00000000*      3996 	.word	.LDW_48ee8e8
000002c7 00             3997 	.byte	0
                        3998 
000002c8 00             3999 	.byte	0
                        4000 
                        4001 .LDW_4da9140:
000002c9 44             4002 	.byte	68
000002ca 00000000*      4003 	.word	.LDW_48ee8e8
000002ce 01             4004 	.byte	1
                        4005 
                        4006 .LDW_4d775d0:
000002cf 12             4007 	.byte	18
000002d0 00000000*      4008 	.word	.LDW_48ee8e8
000002d4 00             4009 	.byte	0
                        4010 
000002d5 00             4011 	.byte	0
                        4012 
                        4013 .LDW_4da8c00:
000002d6 44             4014 	.byte	68
000002d7 00000000*      4015 	.word	.LDW_4d76620
000002db 01             4016 	.byte	1
                        4017 
                        4018 .LDW_4d77630:
000002dc 12             4019 	.byte	18
000002dd 00000000*      4020 	.word	.LDW_48ee8e8
000002e1 00             4021 	.byte	0
                        4022 
000002e2 00             4023 	.byte	0
                        4024 
                        4025 .LDW_4da9028:
000002e3 44             4026 	.byte	68
000002e4 00000000*      4027 	.word	.LDW_4d76620
000002e8 01             4028 	.byte	1
                        4029 
                        4030 .LDW_4d770f0:
000002e9 12             4031 	.byte	18
000002ea 00000000*      4032 	.word	.LDW_48ee8e8
000002ee 00             4033 	.byte	0
                        4034 
000002ef 00             4035 	.byte	0
                        4036 
                        4037 .LDW_4da8b58:
000002f0 44             4038 	.byte	68
000002f1 00000000*      4039 	.word	.LDW_48ee8e8
000002f5 01             4040 	.byte	1

                                                                      Page 74
                                                              C:\Users\nhuliyap\AppData\Local\Temp\gh_00008uc1.s
                        4041 
000002f6 00             4042 	.byte	0
                        4043 
                        4044 .LDW_4da8d88:
000002f7 45             4045 	.byte	69
000002f8 01             4046 	.byte	1
                        4047 
                        4048 .LDW_4d776f0:
000002f9 12             4049 	.byte	18
000002fa 00000000*      4050 	.word	.LDW_48ee8e8
000002fe 00             4051 	.byte	0
                        4052 
000002ff 00             4053 	.byte	0
                        4054 
                        4055 .LDW_4da8dc0:
00000300 45             4056 	.byte	69
00000301 01             4057 	.byte	1
                        4058 
00000302 00             4059 	.byte	0
                        4060 
                        4061 .LDW_4da8ea0:
00000303 45             4062 	.byte	69
00000304 01             4063 	.byte	1
                        4064 
00000305 00             4065 	.byte	0
                        4066 
                        4067 .LDW_4da8f48:
00000306 45             4068 	.byte	69
00000307 01             4069 	.byte	1
                        4070 
                        4071 .LDW_4d77a20:
00000308 12             4072 	.byte	18
00000309 00000000*      4073 	.word	.LDW_4d747e0
0000030d 00             4074 	.byte	0
                        4075 
0000030e 00             4076 	.byte	0
                        4077 
                        4078 .LDW_4da9108:
0000030f 25             4079 	.byte	37
00000310 696e7400       4080 	.strz	"int"
00000314 05             4081 	.byte	5
00000315 04             4082 	.byte	4
                        4083 
                        4084 .LDW_4da8ae8:
00000316 2f             4085 	.byte	47
00000317 00000000*      4086 	.word	.LDW_4dabb90
                        4087 
                        4088 .LDW_4da8df8:
0000031b 44             4089 	.byte	68
0000031c 00000000*      4090 	.word	.LDW_4da8ae8
00000320 01             4091 	.byte	1
                        4092 
                        4093 .LDW_4d77a50:
00000321 12             4094 	.byte	18
00000322 00000000*      4095 	.word	.LDW_48ee8e8
00000326 00             4096 	.byte	0
                        4097 
00000327 00             4098 	.byte	0
                        4099 
                        4100 .LDW_4da9178:
00000328 44             4101 	.byte	68

                                                                      Page 75
                                                              C:\Users\nhuliyap\AppData\Local\Temp\gh_00008uc1.s
00000329 00000000*      4102 	.word	.LDW_48ee8e8
0000032d 01             4103 	.byte	1
                        4104 
0000032e 00             4105 	.byte	0
                        4106 
                        4107 .LDW_4da8d18:
0000032f 44             4108 	.byte	68
00000330 00000000*      4109 	.word	.LDW_4d76468
00000334 01             4110 	.byte	1
                        4111 
00000335 00             4112 	.byte	0
                        4113 
                        4114 .LDW_4da8b20:
00000336 45             4115 	.byte	69
00000337 01             4116 	.byte	1
                        4117 
                        4118 .LDW_4d77780:
00000338 12             4119 	.byte	18
00000339 00000000*      4120 	.word	.LDW_4da8ed8
0000033d 00             4121 	.byte	0
                        4122 
0000033e 00             4123 	.byte	0
                        4124 
                        4125 .LDW_4da8b90:
0000033f 44             4126 	.byte	68
00000340 00000000*      4127 	.word	.LDW_48ee8e8
00000344 01             4128 	.byte	1
                        4129 
00000345 00             4130 	.byte	0
                        4131 
                        4132 .LDW_4da90d0:
00000346 44             4133 	.byte	68
00000347 00000000*      4134 	.word	.LDW_4d75048
0000034b 01             4135 	.byte	1
                        4136 
0000034c 00             4137 	.byte	0
                        4138 
                        4139 .LDW_4da8fb8:
0000034d 45             4140 	.byte	69
0000034e 01             4141 	.byte	1
                        4142 
                        4143 .LDW_4d77840:
0000034f 12             4144 	.byte	18
00000350 00000000*      4145 	.word	.LDW_4da8ed8
00000354 00             4146 	.byte	0
                        4147 
00000355 00             4148 	.byte	0
                        4149 
                        4150 .LDW_4da8bc8:
00000356 44             4151 	.byte	68
00000357 00000000*      4152 	.word	.LDW_48ee8e8
0000035b 01             4153 	.byte	1
                        4154 
0000035c 00             4155 	.byte	0
                        4156 
                        4157 .LDW_4da8c38:
0000035d 45             4158 	.byte	69
0000035e 01             4159 	.byte	1
                        4160 
                        4161 .LDW_4d77870:
0000035f 12             4162 	.byte	18

                                                                      Page 76
                                                              C:\Users\nhuliyap\AppData\Local\Temp\gh_00008uc1.s
00000360 00000000*      4163 	.word	.LDW_4da8ed8
00000364 00             4164 	.byte	0
                        4165 
00000365 00             4166 	.byte	0
                        4167 
                        4168 .LDW_4da8c70:
00000366 44             4169 	.byte	68
00000367 00000000*      4170 	.word	.LDW_48ee8e8
0000036b 01             4171 	.byte	1
                        4172 
0000036c 00             4173 	.byte	0
                        4174 
                        4175 .LDW_4da8f80:
0000036d 44             4176 	.byte	68
0000036e 00000000*      4177 	.word	.LDW_48ee8e8
00000372 01             4178 	.byte	1
                        4179 
00000373 00             4180 	.byte	0
                        4181 
                        4182 .LDW_4da9060:
00000374 45             4183 	.byte	69
00000375 01             4184 	.byte	1
                        4185 
                        4186 .LDW_4dbd268:
00000376 12             4187 	.byte	18
00000377 00000000*      4188 	.word	.LDW_48ee8e8
0000037b 00             4189 	.byte	0
                        4190 
                        4191 .LDW_4dbcff8:
0000037c 12             4192 	.byte	18
0000037d 00000000*      4193 	.word	.LDW_48ee8e8
00000381 00             4194 	.byte	0
                        4195 
                        4196 .LDW_4dbd208:
00000382 12             4197 	.byte	18
00000383 00000000*      4198 	.word	.LDW_4da8ed8
00000387 00             4199 	.byte	0
                        4200 
00000388 00             4201 	.byte	0
                        4202 
                        4203 .LDW_4da8ca8:
00000389 44             4204 	.byte	68
0000038a 00000000*      4205 	.word	.LDW_48ee8e8
0000038e 01             4206 	.byte	1
                        4207 
0000038f 00             4208 	.byte	0
                        4209 
                        4210 .LDW_4da8e30:
00000390 25             4211 	.byte	37
00000391 756e7369676e   4212 	.strz	"unsigned int"
00000397 656420696e74 
0000039d 00 
0000039e 07             4213 	.byte	7
0000039f 04             4214 	.byte	4
                        4215 
                        4216 .LDW_4c10f70:
000003a0 3a             4217 	.byte	58
000003a1 00             4218 	.byte	0
000003a2 10             4219 	.byte	16
000003a3 00000000*      4220 	.word	.LDW_48ee8e8
                        4221 

                                                                      Page 77
                                                              C:\Users\nhuliyap\AppData\Local\Temp\gh_00008uc1.s
                        4222 	.section	.debug_abbrev
00000049 3a             4223 	.byte	58
0000004a 01             4224 	.byte	1
0000004b 01             4225 	.byte	1
0000004c 090b           4226 	.byte	9,11
0000004e 0b0f           4227 	.byte	11,15
00000050 4910           4228 	.byte	73,16
00000052 0000           4229 	.byte	0,0
                        4230 
                        4231 	.section	.debug_info
000003a7 32             4232 	.byte	50
000003a8 00000000*      4233 	.word	.LDW_4da9108
000003ac 04             4234 	.byte	4
000003ad 00             4235 	.byte	0
000003ae 0f             4236 	.byte	15
                        4237 
                        4238 	.section	.debug_abbrev
00000054 32             4239 	.byte	50
00000055 21             4240 	.byte	33
00000056 00             4241 	.byte	0
00000057 4910           4242 	.byte	73,16
00000059 0b0f           4243 	.byte	11,15
0000005b 220d           4244 	.byte	34,13
0000005d 2f0d           4245 	.byte	47,13
0000005f 0000           4246 	.byte	0,0
                        4247 
                        4248 	.section	.debug_info
000003af 00             4249 	.byte	0
                        4250 
                        4251 .LDW_4c10820:
000003b0 2f             4252 	.byte	47
000003b1 00000000*      4253 	.word	.LDW_4d76468
                        4254 
                        4255 .LDW_4dc2128:
000003b5 3a             4256 	.byte	58
000003b6 00             4257 	.byte	0
000003b7 02             4258 	.byte	2
000003b8 00000000*      4259 	.word	.LDW_48a7180
                        4260 
000003bc 32             4261 	.byte	50
000003bd 00000000*      4262 	.word	.LDW_4da9108
000003c1 04             4263 	.byte	4
000003c2 00             4264 	.byte	0
000003c3 01             4265 	.byte	1
                        4266 
000003c4 00             4267 	.byte	0
                        4268 
                        4269 .LDW_4dc21b0:
000003c5 3a             4270 	.byte	58
000003c6 00             4271 	.byte	0
000003c7 02             4272 	.byte	2
000003c8 00000000*      4273 	.word	.LDW_48a7180
                        4274 
000003cc 32             4275 	.byte	50
000003cd 00000000*      4276 	.word	.LDW_4da9108
000003d1 04             4277 	.byte	4
000003d2 00             4278 	.byte	0
000003d3 01             4279 	.byte	1
                        4280 
000003d4 00             4281 	.byte	0
                        4282 

                                                                      Page 78
                                                              C:\Users\nhuliyap\AppData\Local\Temp\gh_00008uc1.s
                        4283 .LDW_4dc3140:
000003d5 3a             4284 	.byte	58
000003d6 00             4285 	.byte	0
000003d7 04             4286 	.byte	4
000003d8 00000000*      4287 	.word	.LDW_48a7180
                        4288 
000003dc 32             4289 	.byte	50
000003dd 00000000*      4290 	.word	.LDW_4da9108
000003e1 04             4291 	.byte	4
000003e2 00             4292 	.byte	0
000003e3 03             4293 	.byte	3
                        4294 
000003e4 00             4295 	.byte	0
                        4296 
                        4297 .LDW_4dc2d88:
000003e5 3a             4298 	.byte	58
000003e6 00             4299 	.byte	0
000003e7 02             4300 	.byte	2
000003e8 00000000*      4301 	.word	.LDW_48a7180
                        4302 
000003ec 32             4303 	.byte	50
000003ed 00000000*      4304 	.word	.LDW_4da9108
000003f1 04             4305 	.byte	4
000003f2 00             4306 	.byte	0
000003f3 01             4307 	.byte	1
                        4308 
000003f4 00             4309 	.byte	0
                        4310 
                        4311 .LDW_4dc2260:
000003f5 3a             4312 	.byte	58
000003f6 00             4313 	.byte	0
000003f7 04             4314 	.byte	4
000003f8 00000000*      4315 	.word	.LDW_48a7180
                        4316 
000003fc 32             4317 	.byte	50
000003fd 00000000*      4318 	.word	.LDW_4da9108
00000401 04             4319 	.byte	4
00000402 00             4320 	.byte	0
00000403 03             4321 	.byte	3
                        4322 
00000404 00             4323 	.byte	0
                        4324 
                        4325 .LDW_4dc2838:
00000405 3a             4326 	.byte	58
00000406 00             4327 	.byte	0
00000407 02             4328 	.byte	2
00000408 00000000*      4329 	.word	.LDW_48a7180
                        4330 
0000040c 32             4331 	.byte	50
0000040d 00000000*      4332 	.word	.LDW_4da9108
00000411 04             4333 	.byte	4
00000412 00             4334 	.byte	0
00000413 01             4335 	.byte	1
                        4336 
00000414 00             4337 	.byte	0
                        4338 
                        4339 .LDW_4dc30b8:
00000415 3a             4340 	.byte	58
00000416 00             4341 	.byte	0
00000417 04             4342 	.byte	4
00000418 00000000*      4343 	.word	.LDW_48a7180

                                                                      Page 79
                                                              C:\Users\nhuliyap\AppData\Local\Temp\gh_00008uc1.s
                        4344 
0000041c 32             4345 	.byte	50
0000041d 00000000*      4346 	.word	.LDW_4da9108
00000421 04             4347 	.byte	4
00000422 00             4348 	.byte	0
00000423 03             4349 	.byte	3
                        4350 
00000424 00             4351 	.byte	0
                        4352 
                        4353 .LDW_4dc2370:
00000425 3a             4354 	.byte	58
00000426 00             4355 	.byte	0
00000427 02             4356 	.byte	2
00000428 00000000*      4357 	.word	.LDW_48a7180
                        4358 
0000042c 32             4359 	.byte	50
0000042d 00000000*      4360 	.word	.LDW_4da9108
00000431 04             4361 	.byte	4
00000432 00             4362 	.byte	0
00000433 01             4363 	.byte	1
                        4364 
00000434 00             4365 	.byte	0
                        4366 
                        4367 .LDW_4dc2a58:
00000435 3a             4368 	.byte	58
00000436 00             4369 	.byte	0
00000437 04             4370 	.byte	4
00000438 00000000*      4371 	.word	.LDW_48a7180
                        4372 
0000043c 32             4373 	.byte	50
0000043d 00000000*      4374 	.word	.LDW_4da9108
00000441 04             4375 	.byte	4
00000442 00             4376 	.byte	0
00000443 03             4377 	.byte	3
                        4378 
00000444 00             4379 	.byte	0
                        4380 
                        4381 .LDW_4dc2e10:
00000445 3a             4382 	.byte	58
00000446 00             4383 	.byte	0
00000447 02             4384 	.byte	2
00000448 00000000*      4385 	.word	.LDW_48a7180
                        4386 
0000044c 32             4387 	.byte	50
0000044d 00000000*      4388 	.word	.LDW_4da9108
00000451 04             4389 	.byte	4
00000452 00             4390 	.byte	0
00000453 01             4391 	.byte	1
                        4392 
00000454 00             4393 	.byte	0
                        4394 
                        4395 .LDW_4dc22e8:
00000455 3a             4396 	.byte	58
00000456 00             4397 	.byte	0
00000457 04             4398 	.byte	4
00000458 00000000*      4399 	.word	.LDW_48a7180
                        4400 
0000045c 32             4401 	.byte	50
0000045d 00000000*      4402 	.word	.LDW_4da9108
00000461 04             4403 	.byte	4
00000462 00             4404 	.byte	0

                                                                      Page 80
                                                              C:\Users\nhuliyap\AppData\Local\Temp\gh_00008uc1.s
00000463 03             4405 	.byte	3
                        4406 
00000464 00             4407 	.byte	0
                        4408 
                        4409 .LDW_4dc23f8:
00000465 3a             4410 	.byte	58
00000466 00             4411 	.byte	0
00000467 02             4412 	.byte	2
00000468 00000000*      4413 	.word	.LDW_48a7180
                        4414 
0000046c 32             4415 	.byte	50
0000046d 00000000*      4416 	.word	.LDW_4da9108
00000471 04             4417 	.byte	4
00000472 00             4418 	.byte	0
00000473 01             4419 	.byte	1
                        4420 
00000474 00             4421 	.byte	0
                        4422 
                        4423 .LDW_4dc2bf0:
00000475 3a             4424 	.byte	58
00000476 00             4425 	.byte	0
00000477 04             4426 	.byte	4
00000478 00000000*      4427 	.word	.LDW_48a7180
                        4428 
0000047c 32             4429 	.byte	50
0000047d 00000000*      4430 	.word	.LDW_4da9108
00000481 04             4431 	.byte	4
00000482 00             4432 	.byte	0
00000483 03             4433 	.byte	3
                        4434 
00000484 00             4435 	.byte	0
                        4436 
                        4437 .LDW_4dc29d0:
00000485 3a             4438 	.byte	58
00000486 00             4439 	.byte	0
00000487 02             4440 	.byte	2
00000488 00000000*      4441 	.word	.LDW_48a7180
                        4442 
0000048c 32             4443 	.byte	50
0000048d 00000000*      4444 	.word	.LDW_4da9108
00000491 04             4445 	.byte	4
00000492 00             4446 	.byte	0
00000493 01             4447 	.byte	1
                        4448 
00000494 00             4449 	.byte	0
                        4450 
                        4451 .LDW_4dc2b68:
00000495 3a             4452 	.byte	58
00000496 00             4453 	.byte	0
00000497 04             4454 	.byte	4
00000498 00000000*      4455 	.word	.LDW_48a7180
                        4456 
0000049c 32             4457 	.byte	50
0000049d 00000000*      4458 	.word	.LDW_4da9108
000004a1 04             4459 	.byte	4
000004a2 00             4460 	.byte	0
000004a3 03             4461 	.byte	3
                        4462 
000004a4 00             4463 	.byte	0
                        4464 
                        4465 .LDW_4dc2480:

                                                                      Page 81
                                                              C:\Users\nhuliyap\AppData\Local\Temp\gh_00008uc1.s
000004a5 3a             4466 	.byte	58
000004a6 00             4467 	.byte	0
000004a7 02             4468 	.byte	2
000004a8 00000000*      4469 	.word	.LDW_48a7180
                        4470 
000004ac 32             4471 	.byte	50
000004ad 00000000*      4472 	.word	.LDW_4da9108
000004b1 04             4473 	.byte	4
000004b2 00             4474 	.byte	0
000004b3 01             4475 	.byte	1
                        4476 
000004b4 00             4477 	.byte	0
                        4478 
                        4479 .LDW_4dc2508:
000004b5 3a             4480 	.byte	58
000004b6 00             4481 	.byte	0
000004b7 0e             4482 	.byte	14
000004b8 00000000*      4483 	.word	.LDW_48a7180
                        4484 
000004bc 32             4485 	.byte	50
000004bd 00000000*      4486 	.word	.LDW_4da9108
000004c1 04             4487 	.byte	4
000004c2 00             4488 	.byte	0
000004c3 0d             4489 	.byte	13
                        4490 
000004c4 00             4491 	.byte	0
                        4492 
                        4493 .LDW_4dc8cb0:
000004c5 3a             4494 	.byte	58
000004c6 00             4495 	.byte	0
000004c7 d002           4496 	.byte	208,2
000004c9 00000000*      4497 	.word	.LDW_4dabb90
                        4498 
000004cd 32             4499 	.byte	50
000004ce 00000000*      4500 	.word	.LDW_4da9108
000004d2 04             4501 	.byte	4
000004d3 00             4502 	.byte	0
000004d4 0b             4503 	.byte	11
                        4504 
000004d5 00             4505 	.byte	0
                        4506 
                        4507 .LDW_4dc8c28:
000004d6 3a             4508 	.byte	58
000004d7 00             4509 	.byte	0
000004d8 0a             4510 	.byte	10
000004d9 00000000*      4511 	.word	.LDW_4d76468
                        4512 
000004dd 32             4513 	.byte	50
000004de 00000000*      4514 	.word	.LDW_4da9108
000004e2 04             4515 	.byte	4
000004e3 00             4516 	.byte	0
000004e4 04             4517 	.byte	4
                        4518 
000004e5 00             4519 	.byte	0
                        4520 
                        4521 .LDW_4dc8980:
000004e6 3a             4522 	.byte	58
000004e7 00             4523 	.byte	0
000004e8 04             4524 	.byte	4
000004e9 00000000*      4525 	.word	.LDW_48ee8e8
                        4526 

                                                                      Page 82
                                                              C:\Users\nhuliyap\AppData\Local\Temp\gh_00008uc1.s
000004ed 32             4527 	.byte	50
000004ee 00000000*      4528 	.word	.LDW_4da9108
000004f2 04             4529 	.byte	4
000004f3 00             4530 	.byte	0
000004f4 03             4531 	.byte	3
                        4532 
000004f5 00             4533 	.byte	0
                        4534 
                        4535 .LDW_4dc9068:
000004f6 3a             4536 	.byte	58
000004f7 00             4537 	.byte	0
000004f8 04             4538 	.byte	4
000004f9 00000000*      4539 	.word	.LDW_4d75048
                        4540 
000004fd 32             4541 	.byte	50
000004fe 00000000*      4542 	.word	.LDW_4da9108
00000502 04             4543 	.byte	4
00000503 00             4544 	.byte	0
00000504 03             4545 	.byte	3
                        4546 
00000505 00             4547 	.byte	0
                        4548 
                        4549 .LDW_4dc9288:
00000506 3a             4550 	.byte	58
00000507 00             4551 	.byte	0
00000508 04             4552 	.byte	4
00000509 00000000*      4553 	.word	.LDW_48ee8e8
                        4554 
0000050d 32             4555 	.byte	50
0000050e 00000000*      4556 	.word	.LDW_4da9108
00000512 04             4557 	.byte	4
00000513 00             4558 	.byte	0
00000514 03             4559 	.byte	3
                        4560 
00000515 00             4561 	.byte	0
                        4562 
                        4563 .LDW_4dc8e48:
00000516 3a             4564 	.byte	58
00000517 00             4565 	.byte	0
00000518 04             4566 	.byte	4
00000519 00000000*      4567 	.word	.LDW_48ee8e8
                        4568 
0000051d 32             4569 	.byte	50
0000051e 00000000*      4570 	.word	.LDW_4da9108
00000522 04             4571 	.byte	4
00000523 00             4572 	.byte	0
00000524 03             4573 	.byte	3
                        4574 
00000525 00             4575 	.byte	0
                        4576 
                        4577 .LDW_4dc90f0:
00000526 3a             4578 	.byte	58
00000527 00             4579 	.byte	0
00000528 04             4580 	.byte	4
00000529 00000000*      4581 	.word	.LDW_48ee8e8
                        4582 
0000052d 32             4583 	.byte	50
0000052e 00000000*      4584 	.word	.LDW_4da9108
00000532 04             4585 	.byte	4
00000533 00             4586 	.byte	0
00000534 03             4587 	.byte	3

                                                                      Page 83
                                                              C:\Users\nhuliyap\AppData\Local\Temp\gh_00008uc1.s
                        4588 
00000535 00             4589 	.byte	0
                        4590 
                        4591 .LDW_4dc8430:
00000536 3a             4592 	.byte	58
00000537 00             4593 	.byte	0
00000538 04             4594 	.byte	4
00000539 00000000*      4595 	.word	.LDW_48ee8e8
                        4596 
0000053d 32             4597 	.byte	50
0000053e 00000000*      4598 	.word	.LDW_4da9108
00000542 04             4599 	.byte	4
00000543 00             4600 	.byte	0
00000544 03             4601 	.byte	3
                        4602 
00000545 00             4603 	.byte	0
                        4604 
                        4605 .LDW_4dc9178:
00000546 3a             4606 	.byte	58
00000547 00             4607 	.byte	0
00000548 08             4608 	.byte	8
00000549 00000000*      4609 	.word	.LDW_4d76468
                        4610 
0000054d 32             4611 	.byte	50
0000054e 00000000*      4612 	.word	.LDW_4da9108
00000552 04             4613 	.byte	4
00000553 00             4614 	.byte	0
00000554 03             4615 	.byte	3
                        4616 
00000555 00             4617 	.byte	0
                        4618 
                        4619 .LDW_4dcc8e0:
00000556 29             4620 	.byte	41
00000557 00000000*      4621 	.word	.LDW_48ee8e8
                        4622 
                        4623 .LDW_4c10510:
0000055b 2f             4624 	.byte	47
0000055c 00000000*      4625 	.word	.LDW_4dcc8e0
                        4626 
                        4627 .LDW_4dcc938:
00000560 29             4628 	.byte	41
00000561 00000000*      4629 	.word	.LDW_48eea30
                        4630 
                        4631 .LDW_4dcfdd8:
00000565 44             4632 	.byte	68
00000566 00000000*      4633 	.word	.LDW_48a7180
0000056a 01             4634 	.byte	1
                        4635 
                        4636 .LDW_4dbc9c8:
0000056b 12             4637 	.byte	18
0000056c 00000000*      4638 	.word	.LDW_48a7180
00000570 00             4639 	.byte	0
                        4640 
00000571 00             4641 	.byte	0
                        4642 
                        4643 .LDW_4dd0008:
00000572 2f             4644 	.byte	47
00000573 00000000*      4645 	.word	.LDW_48a7180
                        4646 
                        4647 .LDW_4dd35b8:
00000577 44             4648 	.byte	68

                                                                      Page 84
                                                              C:\Users\nhuliyap\AppData\Local\Temp\gh_00008uc1.s
00000578 00000000*      4649 	.word	.LDW_48ee8e8
0000057c 01             4650 	.byte	1
                        4651 
0000057d 00             4652 	.byte	0
                        4653 
                        4654 .LDW_4dd42c8:
0000057e 45             4655 	.byte	69
0000057f 01             4656 	.byte	1
                        4657 
                        4658 .LDW_4dd0cf0:
00000580 12             4659 	.byte	18
00000581 00000000*      4660 	.word	.LDW_48ee8e8
00000585 00             4661 	.byte	0
                        4662 
00000586 00             4663 	.byte	0
                        4664 
                        4665 .LDW_4dd4300:
00000587 45             4666 	.byte	69
00000588 01             4667 	.byte	1
                        4668 
                        4669 .LDW_4dd0e10:
00000589 12             4670 	.byte	18
0000058a 00000000*      4671 	.word	.LDW_48ee8e8
0000058e 00             4672 	.byte	0
                        4673 
0000058f 00             4674 	.byte	0
                        4675 
                        4676 .LDW_4dd4840:
00000590 45             4677 	.byte	69
00000591 01             4678 	.byte	1
                        4679 
                        4680 .LDW_4dd0e40:
00000592 12             4681 	.byte	18
00000593 00000000*      4682 	.word	.LDW_48ee8e8
00000597 00             4683 	.byte	0
                        4684 
00000598 00             4685 	.byte	0
                        4686 
                        4687 .LDW_4dd48b0:
00000599 45             4688 	.byte	69
0000059a 01             4689 	.byte	1
                        4690 
                        4691 .LDW_4dd0f90:
0000059b 12             4692 	.byte	18
0000059c 00000000*      4693 	.word	.LDW_48ee8e8
000005a0 00             4694 	.byte	0
                        4695 
000005a1 00             4696 	.byte	0
                        4697 
                        4698 .LDW_4dd44f8:
000005a2 45             4699 	.byte	69
000005a3 01             4700 	.byte	1
                        4701 
                        4702 .LDW_4dd0f30:
000005a4 12             4703 	.byte	18
000005a5 00000000*      4704 	.word	.LDW_48ee8e8
000005a9 00             4705 	.byte	0
                        4706 
000005aa 00             4707 	.byte	0
                        4708 
                        4709 .LDW_4dd4728:

                                                                      Page 85
                                                              C:\Users\nhuliyap\AppData\Local\Temp\gh_00008uc1.s
000005ab 45             4710 	.byte	69
000005ac 01             4711 	.byte	1
                        4712 
                        4713 .LDW_4dd1020:
000005ad 12             4714 	.byte	18
000005ae 00000000*      4715 	.word	.LDW_48ee8e8
000005b2 00             4716 	.byte	0
                        4717 
000005b3 00             4718 	.byte	0
                        4719 
                        4720 .LDW_4dd43a8:
000005b4 45             4721 	.byte	69
000005b5 01             4722 	.byte	1
                        4723 
                        4724 .LDW_4dd1230:
000005b6 12             4725 	.byte	18
000005b7 00000000*      4726 	.word	.LDW_48ee8e8
000005bb 00             4727 	.byte	0
                        4728 
000005bc 00             4729 	.byte	0
                        4730 
                        4731 .LDW_4dd4530:
000005bd 45             4732 	.byte	69
000005be 01             4733 	.byte	1
                        4734 
                        4735 .LDW_4dd1080:
000005bf 12             4736 	.byte	18
000005c0 00000000*      4737 	.word	.LDW_48ee8e8
000005c4 00             4738 	.byte	0
                        4739 
000005c5 00             4740 	.byte	0
                        4741 
                        4742 .LDW_4dd45d8:
000005c6 44             4743 	.byte	68
000005c7 00000000*      4744 	.word	.LDW_48a7180
000005cb 01             4745 	.byte	1
                        4746 
                        4747 .LDW_4dd11a0:
000005cc 12             4748 	.byte	18
000005cd 00000000*      4749 	.word	.LDW_48a7180
000005d1 00             4750 	.byte	0
                        4751 
000005d2 00             4752 	.byte	0
                        4753 
                        4754 .LDW_4dd4958:
000005d3 44             4755 	.byte	68
000005d4 00000000*      4756 	.word	.LDW_48a7180
000005d8 01             4757 	.byte	1
                        4758 
                        4759 .LDW_4dd0ff0:
000005d9 12             4760 	.byte	18
000005da 00000000*      4761 	.word	.LDW_48a7180
000005de 00             4762 	.byte	0
                        4763 
000005df 00             4764 	.byte	0
                        4765 
                        4766 .LDW_4dd4990:
000005e0 44             4767 	.byte	68
000005e1 00000000*      4768 	.word	.LDW_48ee8e8
000005e5 01             4769 	.byte	1
                        4770 

                                                                      Page 86
                                                              C:\Users\nhuliyap\AppData\Local\Temp\gh_00008uc1.s
                        4771 .LDW_4dd10e0:
000005e6 12             4772 	.byte	18
000005e7 00000000*      4773 	.word	.LDW_48ee8e8
000005eb 00             4774 	.byte	0
                        4775 
000005ec 00             4776 	.byte	0
                        4777 
                        4778 .LDW_4dd8b00:
000005ed 45             4779 	.byte	69
000005ee 01             4780 	.byte	1
                        4781 
000005ef 00             4782 	.byte	0
                        4783 
                        4784 .LDW_4dd9190:
000005f0 45             4785 	.byte	69
000005f1 01             4786 	.byte	1
                        4787 
000005f2 00             4788 	.byte	0
                        4789 
                        4790 .LDW_4dd94d8:
000005f3 44             4791 	.byte	68
000005f4 00000000*      4792 	.word	.LDW_4d76620
000005f8 01             4793 	.byte	1
                        4794 
                        4795 .LDW_4dda288:
000005f9 12             4796 	.byte	18
000005fa 00000000*      4797 	.word	.LDW_4d76468
000005fe 00             4798 	.byte	0
                        4799 
000005ff 00             4800 	.byte	0
                        4801 
                        4802 .LDW_4dd9318:
00000600 44             4803 	.byte	68
00000601 00000000*      4804 	.word	.LDW_48ee8e8
00000605 01             4805 	.byte	1
                        4806 
                        4807 .LDW_4dda198:
00000606 12             4808 	.byte	18
00000607 00000000*      4809 	.word	.LDW_4c10820
0000060b 00             4810 	.byte	0
                        4811 
0000060c 00             4812 	.byte	0
                        4813 
                        4814 .LDW_4dd9970:
0000060d 44             4815 	.byte	68
0000060e 00000000*      4816 	.word	.LDW_48ee8e8
00000612 01             4817 	.byte	1
                        4818 
                        4819 .LDW_4dda378:
00000613 12             4820 	.byte	18
00000614 00000000*      4821 	.word	.LDW_4da8ed8
00000618 00             4822 	.byte	0
                        4823 
00000619 00             4824 	.byte	0
                        4825 
                        4826 .LDW_4dd9a50:
0000061a 45             4827 	.byte	69
0000061b 01             4828 	.byte	1
                        4829 
0000061c 00             4830 	.byte	0
                        4831 

                                                                      Page 87
                                                              C:\Users\nhuliyap\AppData\Local\Temp\gh_00008uc1.s
                        4832 .LDW_4d76620:
0000061d 28             4833 	.byte	40
0000061e 626f6f6c6561   4834 	.strz	"boolean"
00000624 6e00 
00000626 4e             4835 	.byte	78
00000627 49             4836 	.byte	73
00000628 06             4837 	.byte	6
00000629 00000000*      4838 	.word	.LDW_48a7180
                        4839 
                        4840 	.section	.debug_abbrev
00000061 28             4841 	.byte	40
00000062 16             4842 	.byte	22
00000063 00             4843 	.byte	0
00000064 0308           4844 	.byte	3,8
00000066 3b0f           4845 	.byte	59,15
00000068 390f           4846 	.byte	57,15
0000006a 3a0f           4847 	.byte	58,15
0000006c 4910           4848 	.byte	73,16
0000006e 0000           4849 	.byte	0,0
                        4850 
                        4851 	.section	.debug_info
                        4852 .LDW_4d75048:
0000062d 28             4853 	.byte	40
0000062e 73696e743800   4854 	.strz	"sint8"
00000634 4f             4855 	.byte	79
00000635 4b             4856 	.byte	75
00000636 06             4857 	.byte	6
00000637 00000000*      4858 	.word	.LDW_4d74700
                        4859 
                        4860 .LDW_48ee8e8:
0000063b 28             4861 	.byte	40
0000063c 75696e743800   4862 	.strz	"uint8"
00000642 50             4863 	.byte	80
00000643 4b             4864 	.byte	75
00000644 06             4865 	.byte	6
00000645 00000000*      4866 	.word	.LDW_48a7180
                        4867 
                        4868 .LDW_4d76468:
00000649 28             4869 	.byte	40
0000064a 75696e743136   4870 	.strz	"uint16"
00000650 00 
00000651 52             4871 	.byte	82
00000652 4a             4872 	.byte	74
00000653 06             4873 	.byte	6
00000654 00000000*      4874 	.word	.LDW_4d74770
                        4875 
                        4876 .LDW_48eea30:
00000658 28             4877 	.byte	40
00000659 75696e743332   4878 	.strz	"uint32"
0000065f 00 
00000660 54             4879 	.byte	84
00000661 4a             4880 	.byte	74
00000662 06             4881 	.byte	6
00000663 00000000*      4882 	.word	.LDW_48a6e70
                        4883 
                        4884 .LDW_4d769e8:
00000667 41             4885 	.byte	65
00000668 65             4886 	.byte	101
00000669 0f             4887 	.byte	15
0000066a 0a             4888 	.byte	10
0000066b 18             4889 	.byte	24

                                                                      Page 88
                                                              C:\Users\nhuliyap\AppData\Local\Temp\gh_00008uc1.s
0000066c 01             4890 	.byte	1
                        4891 
                        4892 	.section	.debug_abbrev
00000070 41             4893 	.byte	65
00000071 13             4894 	.byte	19
00000072 01             4895 	.byte	1
00000073 3b0f           4896 	.byte	59,15
00000075 390f           4897 	.byte	57,15
00000077 3a0f           4898 	.byte	58,15
00000079 0b0f           4899 	.byte	11,15
0000007b 320b           4900 	.byte	50,11
0000007d 0000           4901 	.byte	0,0
                        4902 
                        4903 	.section	.debug_info
                        4904 .LDW_4c37020:
0000066d 23             4905 	.byte	35
0000066e 756c52785469   4906 	.strz	"ulRxTimeStamp"
00000674 6d655374616d 
0000067a 7000 
0000067c 66             4907 	.byte	102
0000067d 0a             4908 	.byte	10
0000067e 0a             4909 	.byte	10
0000067f 00000000*      4910 	.word	.LDW_48eea30
00000683 0223           4911 	.byte	2,35
00000685 00             4912 	.byte	0
00000686 01             4913 	.byte	1
                        4914 
                        4915 	.section	.debug_abbrev
0000007f 23             4916 	.byte	35
00000080 0d             4917 	.byte	13
00000081 00             4918 	.byte	0
00000082 0308           4919 	.byte	3,8
00000084 3b0f           4920 	.byte	59,15
00000086 390f           4921 	.byte	57,15
00000088 3a0f           4922 	.byte	58,15
0000008a 4910           4923 	.byte	73,16
0000008c 380a           4924 	.byte	56,10
0000008e 320b           4925 	.byte	50,11
00000090 0000           4926 	.byte	0,0
                        4927 
                        4928 	.section	.debug_info
                        4929 .LDW_4c36d98:
00000687 23             4930 	.byte	35
00000688 756952785253   4931 	.strz	"uiRxRSSI"
0000068e 534900 
00000691 67             4932 	.byte	103
00000692 0a             4933 	.byte	10
00000693 0a             4934 	.byte	10
00000694 00000000*      4935 	.word	.LDW_4d76468
00000698 0223           4936 	.byte	2,35
0000069a 04             4937 	.byte	4
0000069b 01             4938 	.byte	1
                        4939 
                        4940 .LDW_4c36fd8:
0000069c 23             4941 	.byte	35
0000069d 75636154656c   4942 	.strz	"ucaTelegram"
000006a3 656772616d00 
000006a9 68             4943 	.byte	104
000006aa 0a             4944 	.byte	10
000006ab 0a             4945 	.byte	10
000006ac 00000000*      4946 	.word	.LDW_4c10f70

                                                                      Page 89
                                                              C:\Users\nhuliyap\AppData\Local\Temp\gh_00008uc1.s
000006b0 0223           4947 	.byte	2,35
000006b2 06             4948 	.byte	6
000006b3 01             4949 	.byte	1
                        4950 
000006b4 00             4951 	.byte	0
                        4952 
                        4953 .LDW_4d76518:
000006b5 28             4954 	.byte	40
000006b6 747357535f52   4955 	.strz	"tsWS_RxDataIn"
000006bc 784461746149 
000006c2 6e00 
000006c4 69             4956 	.byte	105
000006c5 02             4957 	.byte	2
000006c6 0a             4958 	.byte	10
000006c7 00000000*      4959 	.word	.LDW_4d769e8
                        4960 
                        4961 .LDW_4dbeb20:
000006cb 41             4962 	.byte	65
000006cc 18             4963 	.byte	24
000006cd 0f             4964 	.byte	15
000006ce 12             4965 	.byte	18
000006cf 02             4966 	.byte	2
000006d0 01             4967 	.byte	1
                        4968 
                        4969 .LDW_4dc1198:
000006d1 23             4970 	.byte	35
000006d2 756354547970   4971 	.strz	"ucTType"
000006d8 6500 
000006da 19             4972 	.byte	25
000006db 12             4973 	.byte	18
000006dc 12             4974 	.byte	18
000006dd 00000000*      4975 	.word	.LDW_4dc2128
000006e1 0223           4976 	.byte	2,35
000006e3 00             4977 	.byte	0
000006e4 01             4978 	.byte	1
                        4979 
000006e5 00             4980 	.byte	0
                        4981 
                        4982 .LDW_4dbebd0:
000006e6 28             4983 	.byte	40
000006e7 507265427566   4984 	.strz	"PreBufHeader"
000006ed 486561646572 
000006f3 00 
000006f4 1a             4985 	.byte	26
000006f5 02             4986 	.byte	2
000006f6 12             4987 	.byte	18
000006f7 00000000*      4988 	.word	.LDW_4dbeb20
                        4989 
                        4990 .LDW_4dbf570:
000006fb 41             4991 	.byte	65
000006fc 1d             4992 	.byte	29
000006fd 0f             4993 	.byte	15
000006fe 12             4994 	.byte	18
000006ff 0a             4995 	.byte	10
00000700 01             4996 	.byte	1
                        4997 
                        4998 .LDW_4dc1078:
00000701 23             4999 	.byte	35
00000702 756348656164   5000 	.strz	"ucHeader"
00000708 657200 
0000070b 1e             5001 	.byte	30

                                                                      Page 90
                                                              C:\Users\nhuliyap\AppData\Local\Temp\gh_00008uc1.s
0000070c 12             5002 	.byte	18
0000070d 12             5003 	.byte	18
0000070e 00000000*      5004 	.word	.LDW_4dc21b0
00000712 0223           5005 	.byte	2,35
00000714 00             5006 	.byte	0
00000715 01             5007 	.byte	1
                        5008 
                        5009 .LDW_4dc1228:
00000716 23             5010 	.byte	35
00000717 7563436d6449   5011 	.strz	"ucCmdID"
0000071d 4400 
0000071f 1f             5012 	.byte	31
00000720 12             5013 	.byte	18
00000721 12             5014 	.byte	18
00000722 00000000*      5015 	.word	.LDW_48a7180
00000726 0223           5016 	.byte	2,35
00000728 02             5017 	.byte	2
00000729 01             5018 	.byte	1
                        5019 
                        5020 .LDW_4dc0ec8:
0000072a 23             5021 	.byte	35
0000072b 7563494400     5022 	.strz	"ucID"
00000730 20             5023 	.byte	32
00000731 12             5024 	.byte	18
00000732 12             5025 	.byte	18
00000733 00000000*      5026 	.word	.LDW_4dc3140
00000737 0223           5027 	.byte	2,35
00000739 03             5028 	.byte	3
0000073a 01             5029 	.byte	1
                        5030 
                        5031 .LDW_4dc0df0:
0000073b 23             5032 	.byte	35
0000073c 756350726573   5033 	.strz	"ucPressure"
00000742 7375726500 
00000747 21             5034 	.byte	33
00000748 12             5035 	.byte	18
00000749 12             5036 	.byte	18
0000074a 00000000*      5037 	.word	.LDW_48a7180
0000074e 0223           5038 	.byte	2,35
00000750 07             5039 	.byte	7
00000751 01             5040 	.byte	1
                        5041 
                        5042 .LDW_4dc0e80:
00000752 23             5043 	.byte	35
00000753 756354656d70   5044 	.strz	"ucTemperature"
00000759 657261747572 
0000075f 6500 
00000761 22             5045 	.byte	34
00000762 12             5046 	.byte	18
00000763 12             5047 	.byte	18
00000764 00000000*      5048 	.word	.LDW_48a7180
00000768 0223           5049 	.byte	2,35
0000076a 08             5050 	.byte	8
0000076b 01             5051 	.byte	1
                        5052 
                        5053 .LDW_4dc0e38:
0000076c 23             5054 	.byte	35
0000076d 756343524338   5055 	.strz	"ucCRC8"
00000773 00 
00000774 23             5056 	.byte	35
00000775 12             5057 	.byte	18

                                                                      Page 91
                                                              C:\Users\nhuliyap\AppData\Local\Temp\gh_00008uc1.s
00000776 12             5058 	.byte	18
00000777 00000000*      5059 	.word	.LDW_48a7180
0000077b 0223           5060 	.byte	2,35
0000077d 09             5061 	.byte	9
0000077e 01             5062 	.byte	1
                        5063 
0000077f 00             5064 	.byte	0
                        5065 
                        5066 .LDW_4dbf1a8:
00000780 28             5067 	.byte	40
00000781 507265427566   5068 	.strz	"PreBufAK35def"
00000787 414b33356465 
0000078d 6600 
0000078f 24             5069 	.byte	36
00000790 02             5070 	.byte	2
00000791 12             5071 	.byte	18
00000792 00000000*      5072 	.word	.LDW_4dbf570
                        5073 
                        5074 .LDW_4dbf200:
00000796 41             5075 	.byte	65
00000797 26             5076 	.byte	38
00000798 0f             5077 	.byte	15
00000799 12             5078 	.byte	18
0000079a 0c             5079 	.byte	12
0000079b 01             5080 	.byte	1
                        5081 
                        5082 .LDW_4dc1420:
0000079c 23             5083 	.byte	35
0000079d 756348656164   5084 	.strz	"ucHeader"
000007a3 657200 
000007a6 27             5085 	.byte	39
000007a7 12             5086 	.byte	18
000007a8 12             5087 	.byte	18
000007a9 00000000*      5088 	.word	.LDW_4dc2d88
000007ad 0223           5089 	.byte	2,35
000007af 00             5090 	.byte	0
000007b0 01             5091 	.byte	1
                        5092 
                        5093 .LDW_4dc12b8:
000007b1 23             5094 	.byte	35
000007b2 7563436d6449   5095 	.strz	"ucCmdID"
000007b8 4400 
000007ba 28             5096 	.byte	40
000007bb 12             5097 	.byte	18
000007bc 12             5098 	.byte	18
000007bd 00000000*      5099 	.word	.LDW_48a7180
000007c1 0223           5100 	.byte	2,35
000007c3 02             5101 	.byte	2
000007c4 01             5102 	.byte	1
                        5103 
                        5104 .LDW_4dc0fe8:
000007c5 23             5105 	.byte	35
000007c6 7563494400     5106 	.strz	"ucID"
000007cb 29             5107 	.byte	41
000007cc 12             5108 	.byte	18
000007cd 12             5109 	.byte	18
000007ce 00000000*      5110 	.word	.LDW_4dc2260
000007d2 0223           5111 	.byte	2,35
000007d4 03             5112 	.byte	3
000007d5 01             5113 	.byte	1
                        5114 

                                                                      Page 92
                                                              C:\Users\nhuliyap\AppData\Local\Temp\gh_00008uc1.s
                        5115 .LDW_4dc0f10:
000007d6 23             5116 	.byte	35
000007d7 756350726573   5117 	.strz	"ucPressure"
000007dd 7375726500 
000007e2 2a             5118 	.byte	42
000007e3 12             5119 	.byte	18
000007e4 12             5120 	.byte	18
000007e5 00000000*      5121 	.word	.LDW_48a7180
000007e9 0223           5122 	.byte	2,35
000007eb 07             5123 	.byte	7
000007ec 01             5124 	.byte	1
                        5125 
                        5126 .LDW_4dc10c0:
000007ed 23             5127 	.byte	35
000007ee 756354656d70   5128 	.strz	"ucTemperature"
000007f4 657261747572 
000007fa 6500 
000007fc 2b             5129 	.byte	43
000007fd 12             5130 	.byte	18
000007fe 12             5131 	.byte	18
000007ff 00000000*      5132 	.word	.LDW_48a7180
00000803 0223           5133 	.byte	2,35
00000805 08             5134 	.byte	8
00000806 01             5135 	.byte	1
                        5136 
                        5137 .LDW_4dc1348:
00000807 23             5138 	.byte	35
00000808 756342797465   5139 	.strz	"ucByte1Status"
0000080e 315374617475 
00000814 7300 
00000816 2c             5140 	.byte	44
00000817 12             5141 	.byte	18
00000818 12             5142 	.byte	18
00000819 00000000*      5143 	.word	.LDW_48a7180
0000081d 0223           5144 	.byte	2,35
0000081f 09             5145 	.byte	9
00000820 01             5146 	.byte	1
                        5147 
                        5148 .LDW_4dc0c88:
00000821 23             5149 	.byte	35
00000822 756342797465   5150 	.strz	"ucByte2Status"
00000828 325374617475 
0000082e 7300 
00000830 2d             5151 	.byte	45
00000831 12             5152 	.byte	18
00000832 12             5153 	.byte	18
00000833 00000000*      5154 	.word	.LDW_48a7180
00000837 0223           5155 	.byte	2,35
00000839 0a             5156 	.byte	10
0000083a 01             5157 	.byte	1
                        5158 
                        5159 .LDW_4dc1300:
0000083b 23             5160 	.byte	35
0000083c 756343524338   5161 	.strz	"ucCRC8"
00000842 00 
00000843 2e             5162 	.byte	46
00000844 12             5163 	.byte	18
00000845 12             5164 	.byte	18
00000846 00000000*      5165 	.word	.LDW_48a7180
0000084a 0223           5166 	.byte	2,35
0000084c 0b             5167 	.byte	11

                                                                      Page 93
                                                              C:\Users\nhuliyap\AppData\Local\Temp\gh_00008uc1.s
0000084d 01             5168 	.byte	1
                        5169 
0000084e 00             5170 	.byte	0
                        5171 
                        5172 .LDW_4dbec28:
0000084f 28             5173 	.byte	40
00000850 507265427566   5174 	.strz	"PreBufHufStatus"
00000856 487566537461 
0000085c 74757300 
00000860 2f             5175 	.byte	47
00000861 02             5176 	.byte	2
00000862 12             5177 	.byte	18
00000863 00000000*      5178 	.word	.LDW_4dbf200
                        5179 
                        5180 .LDW_4dbf258:
00000867 41             5181 	.byte	65
00000868 31             5182 	.byte	49
00000869 0f             5183 	.byte	15
0000086a 12             5184 	.byte	18
0000086b 0b             5185 	.byte	11
0000086c 01             5186 	.byte	1
                        5187 
                        5188 .LDW_4dc0d60:
0000086d 23             5189 	.byte	35
0000086e 756348656164   5190 	.strz	"ucHeader"
00000874 657200 
00000877 32             5191 	.byte	50
00000878 12             5192 	.byte	18
00000879 12             5193 	.byte	18
0000087a 00000000*      5194 	.word	.LDW_4dc2838
0000087e 0223           5195 	.byte	2,35
00000880 00             5196 	.byte	0
00000881 01             5197 	.byte	1
                        5198 
                        5199 .LDW_4dc1390:
00000882 23             5200 	.byte	35
00000883 7563436d6449   5201 	.strz	"ucCmdID"
00000889 4400 
0000088b 33             5202 	.byte	51
0000088c 12             5203 	.byte	18
0000088d 12             5204 	.byte	18
0000088e 00000000*      5205 	.word	.LDW_48a7180
00000892 0223           5206 	.byte	2,35
00000894 02             5207 	.byte	2
00000895 01             5208 	.byte	1
                        5209 
                        5210 .LDW_4dc1108:
00000896 23             5211 	.byte	35
00000897 7563494400     5212 	.strz	"ucID"
0000089c 34             5213 	.byte	52
0000089d 12             5214 	.byte	18
0000089e 12             5215 	.byte	18
0000089f 00000000*      5216 	.word	.LDW_4dc30b8
000008a3 0223           5217 	.byte	2,35
000008a5 03             5218 	.byte	3
000008a6 01             5219 	.byte	1
                        5220 
                        5221 .LDW_4dc1150:
000008a7 23             5222 	.byte	35
000008a8 75635000       5223 	.strz	"ucP"
000008ac 35             5224 	.byte	53

                                                                      Page 94
                                                              C:\Users\nhuliyap\AppData\Local\Temp\gh_00008uc1.s
000008ad 12             5225 	.byte	18
000008ae 12             5226 	.byte	18
000008af 00000000*      5227 	.word	.LDW_48a7180
000008b3 0223           5228 	.byte	2,35
000008b5 07             5229 	.byte	7
000008b6 01             5230 	.byte	1
                        5231 
                        5232 .LDW_4dc14b0:
000008b7 23             5233 	.byte	35
000008b8 75635400       5234 	.strz	"ucT"
000008bc 36             5235 	.byte	54
000008bd 12             5236 	.byte	18
000008be 12             5237 	.byte	18
000008bf 00000000*      5238 	.word	.LDW_48a7180
000008c3 0223           5239 	.byte	2,35
000008c5 08             5240 	.byte	8
000008c6 01             5241 	.byte	1
                        5242 
                        5243 .LDW_4dc13d8:
000008c7 23             5244 	.byte	35
000008c8 756354656c53   5245 	.strz	"ucTelSentnEnergy"
000008ce 656e746e456e 
000008d4 6572677900 
000008d9 37             5246 	.byte	55
000008da 12             5247 	.byte	18
000008db 12             5248 	.byte	18
000008dc 00000000*      5249 	.word	.LDW_48a7180
000008e0 0223           5250 	.byte	2,35
000008e2 09             5251 	.byte	9
000008e3 01             5252 	.byte	1
                        5253 
                        5254 .LDW_4dc1468:
000008e4 23             5255 	.byte	35
000008e5 756343524338   5256 	.strz	"ucCRC8"
000008eb 00 
000008ec 38             5257 	.byte	56
000008ed 12             5258 	.byte	18
000008ee 12             5259 	.byte	18
000008ef 00000000*      5260 	.word	.LDW_48a7180
000008f3 0223           5261 	.byte	2,35
000008f5 0a             5262 	.byte	10
000008f6 01             5263 	.byte	1
                        5264 
000008f7 00             5265 	.byte	0
                        5266 
                        5267 .LDW_4dbf2b0:
000008f8 28             5268 	.byte	40
000008f9 507265427566   5269 	.strz	"PreBufG4Std"
000008ff 473453746400 
00000905 39             5270 	.byte	57
00000906 02             5271 	.byte	2
00000907 12             5272 	.byte	18
00000908 00000000*      5273 	.word	.LDW_4dbf258
                        5274 
                        5275 .LDW_4dbf830:
0000090c 41             5276 	.byte	65
0000090d 3b             5277 	.byte	59
0000090e 0f             5278 	.byte	15
0000090f 12             5279 	.byte	18
00000910 0a             5280 	.byte	10
00000911 01             5281 	.byte	1

                                                                      Page 95
                                                              C:\Users\nhuliyap\AppData\Local\Temp\gh_00008uc1.s
                        5282 
                        5283 .LDW_4dc14f8:
00000912 23             5284 	.byte	35
00000913 756348656164   5285 	.strz	"ucHeader"
00000919 657200 
0000091c 3c             5286 	.byte	60
0000091d 12             5287 	.byte	18
0000091e 12             5288 	.byte	18
0000091f 00000000*      5289 	.word	.LDW_4dc2370
00000923 0223           5290 	.byte	2,35
00000925 00             5291 	.byte	0
00000926 01             5292 	.byte	1
                        5293 
                        5294 .LDW_4dc0c40:
00000927 23             5295 	.byte	35
00000928 7563436d6449   5296 	.strz	"ucCmdID"
0000092e 4400 
00000930 3d             5297 	.byte	61
00000931 12             5298 	.byte	18
00000932 12             5299 	.byte	18
00000933 00000000*      5300 	.word	.LDW_48a7180
00000937 0223           5301 	.byte	2,35
00000939 02             5302 	.byte	2
0000093a 01             5303 	.byte	1
                        5304 
                        5305 .LDW_4dc0d18:
0000093b 23             5306 	.byte	35
0000093c 7563494400     5307 	.strz	"ucID"
00000941 3e             5308 	.byte	62
00000942 12             5309 	.byte	18
00000943 12             5310 	.byte	18
00000944 00000000*      5311 	.word	.LDW_4dc2a58
00000948 0223           5312 	.byte	2,35
0000094a 03             5313 	.byte	3
0000094b 01             5314 	.byte	1
                        5315 
                        5316 .LDW_4dc1a08:
0000094c 23             5317 	.byte	35
0000094d 7563536e5248   5318 	.strz	"ucSnRH"
00000953 00 
00000954 3f             5319 	.byte	63
00000955 12             5320 	.byte	18
00000956 12             5321 	.byte	18
00000957 00000000*      5322 	.word	.LDW_48a7180
0000095b 0223           5323 	.byte	2,35
0000095d 07             5324 	.byte	7
0000095e 01             5325 	.byte	1
                        5326 
                        5327 .LDW_4dc1b70:
0000095f 23             5328 	.byte	35
00000960 7563524c00     5329 	.strz	"ucRL"
00000965 40             5330 	.byte	64
00000966 12             5331 	.byte	18
00000967 12             5332 	.byte	18
00000968 00000000*      5333 	.word	.LDW_48a7180
0000096c 0223           5334 	.byte	2,35
0000096e 08             5335 	.byte	8
0000096f 01             5336 	.byte	1
                        5337 
                        5338 .LDW_4dc1a50:
00000970 23             5339 	.byte	35

                                                                      Page 96
                                                              C:\Users\nhuliyap\AppData\Local\Temp\gh_00008uc1.s
00000971 756343524338   5340 	.strz	"ucCRC8"
00000977 00 
00000978 41             5341 	.byte	65
00000979 12             5342 	.byte	18
0000097a 12             5343 	.byte	18
0000097b 00000000*      5344 	.word	.LDW_48a7180
0000097f 0223           5345 	.byte	2,35
00000981 09             5346 	.byte	9
00000982 01             5347 	.byte	1
                        5348 
00000983 00             5349 	.byte	0
                        5350 
                        5351 .LDW_4dbfa40:
00000984 28             5352 	.byte	40
00000985 507265427566   5353 	.strz	"PreBufRotatS"
0000098b 526f74617453 
00000991 00 
00000992 42             5354 	.byte	66
00000993 02             5355 	.byte	2
00000994 12             5356 	.byte	18
00000995 00000000*      5357 	.word	.LDW_4dbf830
                        5358 
                        5359 .LDW_4dbf6d0:
00000999 41             5360 	.byte	65
0000099a 44             5361 	.byte	68
0000099b 0f             5362 	.byte	15
0000099c 12             5363 	.byte	18
0000099d 0d             5364 	.byte	13
0000099e 01             5365 	.byte	1
                        5366 
                        5367 .LDW_4dc1780:
0000099f 23             5368 	.byte	35
000009a0 756348656164   5369 	.strz	"ucHeader"
000009a6 657200 
000009a9 45             5370 	.byte	69
000009aa 11             5371 	.byte	17
000009ab 12             5372 	.byte	18
000009ac 00000000*      5373 	.word	.LDW_4dc2e10
000009b0 0223           5374 	.byte	2,35
000009b2 00             5375 	.byte	0
000009b3 01             5376 	.byte	1
                        5377 
                        5378 .LDW_4dc1ae0:
000009b4 23             5379 	.byte	35
000009b5 7563436d6449   5380 	.strz	"ucCmdID"
000009bb 4400 
000009bd 46             5381 	.byte	70
000009be 11             5382 	.byte	17
000009bf 12             5383 	.byte	18
000009c0 00000000*      5384 	.word	.LDW_48a7180
000009c4 0223           5385 	.byte	2,35
000009c6 02             5386 	.byte	2
000009c7 01             5387 	.byte	1
                        5388 
                        5389 .LDW_4dc1660:
000009c8 23             5390 	.byte	35
000009c9 7563494400     5391 	.strz	"ucID"
000009ce 47             5392 	.byte	71
000009cf 11             5393 	.byte	17
000009d0 12             5394 	.byte	18
000009d1 00000000*      5395 	.word	.LDW_4dc22e8

                                                                      Page 97
                                                              C:\Users\nhuliyap\AppData\Local\Temp\gh_00008uc1.s
000009d5 0223           5396 	.byte	2,35
000009d7 03             5397 	.byte	3
000009d8 01             5398 	.byte	1
                        5399 
                        5400 .LDW_4dc1618:
000009d9 23             5401 	.byte	35
000009da 756350726573   5402 	.strz	"ucPressure"
000009e0 7375726500 
000009e5 48             5403 	.byte	72
000009e6 11             5404 	.byte	17
000009e7 12             5405 	.byte	18
000009e8 00000000*      5406 	.word	.LDW_48a7180
000009ec 0223           5407 	.byte	2,35
000009ee 07             5408 	.byte	7
000009ef 01             5409 	.byte	1
                        5410 
                        5411 .LDW_4dc1a98:
000009f0 23             5412 	.byte	35
000009f1 756354656d70   5413 	.strz	"ucTemperature"
000009f7 657261747572 
000009fd 6500 
000009ff 49             5414 	.byte	73
00000a00 11             5415 	.byte	17
00000a01 12             5416 	.byte	18
00000a02 00000000*      5417 	.word	.LDW_48a7180
00000a06 0223           5418 	.byte	2,35
00000a08 08             5419 	.byte	8
00000a09 01             5420 	.byte	1
                        5421 
                        5422 .LDW_4dc17c8:
00000a0a 23             5423 	.byte	35
00000a0b 756352657365   5424 	.strz	"ucReserved"
00000a11 7276656400 
00000a16 4a             5425 	.byte	74
00000a17 11             5426 	.byte	17
00000a18 12             5427 	.byte	18
00000a19 00000000*      5428 	.word	.LDW_48a7180
00000a1d 0223           5429 	.byte	2,35
00000a1f 09             5430 	.byte	9
00000a20 01             5431 	.byte	1
                        5432 
                        5433 .LDW_4dc1810:
00000a21 23             5434 	.byte	35
00000a22 756342797465   5435 	.strz	"ucByte1Status"
00000a28 315374617475 
00000a2e 7300 
00000a30 4b             5436 	.byte	75
00000a31 11             5437 	.byte	17
00000a32 12             5438 	.byte	18
00000a33 00000000*      5439 	.word	.LDW_48a7180
00000a37 0223           5440 	.byte	2,35
00000a39 0a             5441 	.byte	10
00000a3a 01             5442 	.byte	1
                        5443 
                        5444 .LDW_4dc1b28:
00000a3b 23             5445 	.byte	35
00000a3c 756342797465   5446 	.strz	"ucByte2Status"
00000a42 325374617475 
00000a48 7300 
00000a4a 4c             5447 	.byte	76
00000a4b 11             5448 	.byte	17

                                                                      Page 98
                                                              C:\Users\nhuliyap\AppData\Local\Temp\gh_00008uc1.s
00000a4c 12             5449 	.byte	18
00000a4d 00000000*      5450 	.word	.LDW_48a7180
00000a51 0223           5451 	.byte	2,35
00000a53 0b             5452 	.byte	11
00000a54 01             5453 	.byte	1
                        5454 
                        5455 .LDW_4dc1bb8:
00000a55 23             5456 	.byte	35
00000a56 756343524338   5457 	.strz	"ucCRC8"
00000a5c 00 
00000a5d 4d             5458 	.byte	77
00000a5e 11             5459 	.byte	17
00000a5f 12             5460 	.byte	18
00000a60 00000000*      5461 	.word	.LDW_48a7180
00000a64 0223           5462 	.byte	2,35
00000a66 0c             5463 	.byte	12
00000a67 01             5464 	.byte	1
                        5465 
00000a68 00             5466 	.byte	0
                        5467 
                        5468 .LDW_4dbf938:
00000a69 28             5469 	.byte	40
00000a6a 507265427566   5470 	.strz	"PreBufHufLfResponse"
00000a70 4875664c6652 
00000a76 6573706f6e73 
00000a7c 6500 
00000a7e 4e             5471 	.byte	78
00000a7f 02             5472 	.byte	2
00000a80 12             5473 	.byte	18
00000a81 00000000*      5474 	.word	.LDW_4dbf6d0
                        5475 
                        5476 .LDW_4dbf620:
00000a85 41             5477 	.byte	65
00000a86 50             5478 	.byte	80
00000a87 0f             5479 	.byte	15
00000a88 12             5480 	.byte	18
00000a89 0d             5481 	.byte	13
00000a8a 01             5482 	.byte	1
                        5483 
                        5484 .LDW_4dc1540:
00000a8b 23             5485 	.byte	35
00000a8c 756348656164   5486 	.strz	"ucHeader"
00000a92 657200 
00000a95 51             5487 	.byte	81
00000a96 12             5488 	.byte	18
00000a97 12             5489 	.byte	18
00000a98 00000000*      5490 	.word	.LDW_4dc23f8
00000a9c 0223           5491 	.byte	2,35
00000a9e 00             5492 	.byte	0
00000a9f 01             5493 	.byte	1
                        5494 
                        5495 .LDW_4dc16a8:
00000aa0 23             5496 	.byte	35
00000aa1 7563436d6449   5497 	.strz	"ucCmdID"
00000aa7 4400 
00000aa9 52             5498 	.byte	82
00000aaa 12             5499 	.byte	18
00000aab 12             5500 	.byte	18
00000aac 00000000*      5501 	.word	.LDW_48a7180
00000ab0 0223           5502 	.byte	2,35
00000ab2 02             5503 	.byte	2

                                                                      Page 99
                                                              C:\Users\nhuliyap\AppData\Local\Temp\gh_00008uc1.s
00000ab3 01             5504 	.byte	1
                        5505 
                        5506 .LDW_4dc15d0:
00000ab4 23             5507 	.byte	35
00000ab5 7563494400     5508 	.strz	"ucID"
00000aba 53             5509 	.byte	83
00000abb 12             5510 	.byte	18
00000abc 12             5511 	.byte	18
00000abd 00000000*      5512 	.word	.LDW_4dc2bf0
00000ac1 0223           5513 	.byte	2,35
00000ac3 03             5514 	.byte	3
00000ac4 01             5515 	.byte	1
                        5516 
                        5517 .LDW_4dc1738:
00000ac5 23             5518 	.byte	35
00000ac6 75635000       5519 	.strz	"ucP"
00000aca 54             5520 	.byte	84
00000acb 12             5521 	.byte	18
00000acc 12             5522 	.byte	18
00000acd 00000000*      5523 	.word	.LDW_48a7180
00000ad1 0223           5524 	.byte	2,35
00000ad3 07             5525 	.byte	7
00000ad4 01             5526 	.byte	1
                        5527 
                        5528 .LDW_4dc18e8:
00000ad5 23             5529 	.byte	35
00000ad6 75635400       5530 	.strz	"ucT"
00000ada 55             5531 	.byte	85
00000adb 12             5532 	.byte	18
00000adc 12             5533 	.byte	18
00000add 00000000*      5534 	.word	.LDW_48a7180
00000ae1 0223           5535 	.byte	2,35
00000ae3 08             5536 	.byte	8
00000ae4 01             5537 	.byte	1
                        5538 
                        5539 .LDW_4dc1588:
00000ae5 23             5540 	.byte	35
00000ae6 756342617400   5541 	.strz	"ucBat"
00000aec 56             5542 	.byte	86
00000aed 12             5543 	.byte	18
00000aee 12             5544 	.byte	18
00000aef 00000000*      5545 	.word	.LDW_48a7180
00000af3 0223           5546 	.byte	2,35
00000af5 09             5547 	.byte	9
00000af6 01             5548 	.byte	1
                        5549 
                        5550 .LDW_4dc16f0:
00000af7 23             5551 	.byte	35
00000af8 756341636300   5552 	.strz	"ucAcc"
00000afe 57             5553 	.byte	87
00000aff 12             5554 	.byte	18
00000b00 12             5555 	.byte	18
00000b01 00000000*      5556 	.word	.LDW_48a7180
00000b05 0223           5557 	.byte	2,35
00000b07 0a             5558 	.byte	10
00000b08 01             5559 	.byte	1
                        5560 
                        5561 .LDW_4dc1978:
00000b09 23             5562 	.byte	35
00000b0a 75634d6f6465   5563 	.strz	"ucModeNCode"
00000b10 4e436f646500 

                                                                      Page 100
                                                              C:\Users\nhuliyap\AppData\Local\Temp\gh_00008uc1.s
00000b16 58             5564 	.byte	88
00000b17 12             5565 	.byte	18
00000b18 12             5566 	.byte	18
00000b19 00000000*      5567 	.word	.LDW_48a7180
00000b1d 0223           5568 	.byte	2,35
00000b1f 0b             5569 	.byte	11
00000b20 01             5570 	.byte	1
                        5571 
                        5572 .LDW_4dc1858:
00000b21 23             5573 	.byte	35
00000b22 756343524338   5574 	.strz	"ucCRC8"
00000b28 00 
00000b29 59             5575 	.byte	89
00000b2a 12             5576 	.byte	18
00000b2b 12             5577 	.byte	18
00000b2c 00000000*      5578 	.word	.LDW_48a7180
00000b30 0223           5579 	.byte	2,35
00000b32 0c             5580 	.byte	12
00000b33 01             5581 	.byte	1
                        5582 
00000b34 00             5583 	.byte	0
                        5584 
                        5585 .LDW_4dbfa98:
00000b35 28             5586 	.byte	40
00000b36 507265427566   5587 	.strz	"PreBufContiFP"
00000b3c 436f6e746946 
00000b42 5000 
00000b44 5a             5588 	.byte	90
00000b45 02             5589 	.byte	2
00000b46 12             5590 	.byte	18
00000b47 00000000*      5591 	.word	.LDW_4dbf620
                        5592 
                        5593 .LDW_4dbf990:
00000b4b 41             5594 	.byte	65
00000b4c 5c             5595 	.byte	92
00000b4d 0f             5596 	.byte	15
00000b4e 12             5597 	.byte	18
00000b4f 10             5598 	.byte	16
00000b50 01             5599 	.byte	1
                        5600 
                        5601 .LDW_4dc1930:
00000b51 23             5602 	.byte	35
00000b52 756348656164   5603 	.strz	"ucHeader"
00000b58 657200 
00000b5b 5d             5604 	.byte	93
00000b5c 11             5605 	.byte	17
00000b5d 12             5606 	.byte	18
00000b5e 00000000*      5607 	.word	.LDW_4dc29d0
00000b62 0223           5608 	.byte	2,35
00000b64 00             5609 	.byte	0
00000b65 01             5610 	.byte	1
                        5611 
                        5612 .LDW_4dc18a0:
00000b66 23             5613 	.byte	35
00000b67 7563436d6449   5614 	.strz	"ucCmdID"
00000b6d 4400 
00000b6f 5e             5615 	.byte	94
00000b70 11             5616 	.byte	17
00000b71 12             5617 	.byte	18
00000b72 00000000*      5618 	.word	.LDW_48a7180
00000b76 0223           5619 	.byte	2,35

                                                                      Page 101
                                                              C:\Users\nhuliyap\AppData\Local\Temp\gh_00008uc1.s
00000b78 02             5620 	.byte	2
00000b79 01             5621 	.byte	1
                        5622 
                        5623 .LDW_4dc19c0:
00000b7a 23             5624 	.byte	35
00000b7b 7563494400     5625 	.strz	"ucID"
00000b80 5f             5626 	.byte	95
00000b81 11             5627 	.byte	17
00000b82 12             5628 	.byte	18
00000b83 00000000*      5629 	.word	.LDW_4dc2b68
00000b87 0223           5630 	.byte	2,35
00000b89 03             5631 	.byte	3
00000b8a 01             5632 	.byte	1
                        5633 
                        5634 .LDW_4dc3420:
00000b8b 23             5635 	.byte	35
00000b8c 756352657365   5636 	.strz	"ucReserved1"
00000b92 727665643100 
00000b98 60             5637 	.byte	96
00000b99 11             5638 	.byte	17
00000b9a 12             5639 	.byte	18
00000b9b 00000000*      5640 	.word	.LDW_48a7180
00000b9f 0223           5641 	.byte	2,35
00000ba1 07             5642 	.byte	7
00000ba2 01             5643 	.byte	1
                        5644 
                        5645 .LDW_4dc3810:
00000ba3 23             5646 	.byte	35
00000ba4 756352657365   5647 	.strz	"ucReserved2"
00000baa 727665643200 
00000bb0 61             5648 	.byte	97
00000bb1 11             5649 	.byte	17
00000bb2 12             5650 	.byte	18
00000bb3 00000000*      5651 	.word	.LDW_48a7180
00000bb7 0223           5652 	.byte	2,35
00000bb9 08             5653 	.byte	8
00000bba 01             5654 	.byte	1
                        5655 
                        5656 .LDW_4dc34f8:
00000bbb 23             5657 	.byte	35
00000bbc 756352657365   5658 	.strz	"ucReserved3"
00000bc2 727665643300 
00000bc8 62             5659 	.byte	98
00000bc9 11             5660 	.byte	17
00000bca 12             5661 	.byte	18
00000bcb 00000000*      5662 	.word	.LDW_48a7180
00000bcf 0223           5663 	.byte	2,35
00000bd1 09             5664 	.byte	9
00000bd2 01             5665 	.byte	1
                        5666 
                        5667 .LDW_4dc3978:
00000bd3 23             5668 	.byte	35
00000bd4 756352657365   5669 	.strz	"ucReserved4"
00000bda 727665643400 
00000be0 63             5670 	.byte	99
00000be1 11             5671 	.byte	17
00000be2 12             5672 	.byte	18
00000be3 00000000*      5673 	.word	.LDW_48a7180
00000be7 0223           5674 	.byte	2,35
00000be9 0a             5675 	.byte	10
00000bea 01             5676 	.byte	1

                                                                      Page 102
                                                              C:\Users\nhuliyap\AppData\Local\Temp\gh_00008uc1.s
                        5677 
                        5678 .LDW_4dc3b28:
00000beb 23             5679 	.byte	35
00000bec 756352657365   5680 	.strz	"ucReserved5"
00000bf2 727665643500 
00000bf8 64             5681 	.byte	100
00000bf9 11             5682 	.byte	17
00000bfa 12             5683 	.byte	18
00000bfb 00000000*      5684 	.word	.LDW_48a7180
00000bff 0223           5685 	.byte	2,35
00000c01 0b             5686 	.byte	11
00000c02 01             5687 	.byte	1
                        5688 
                        5689 .LDW_4dc3540:
00000c03 23             5690 	.byte	35
00000c04 756352657365   5691 	.strz	"ucReserved6"
00000c0a 727665643600 
00000c10 65             5692 	.byte	101
00000c11 11             5693 	.byte	17
00000c12 12             5694 	.byte	18
00000c13 00000000*      5695 	.word	.LDW_48a7180
00000c17 0223           5696 	.byte	2,35
00000c19 0c             5697 	.byte	12
00000c1a 01             5698 	.byte	1
                        5699 
                        5700 .LDW_4dc3468:
00000c1b 23             5701 	.byte	35
00000c1c 756352657365   5702 	.strz	"ucReserved7"
00000c22 727665643700 
00000c28 66             5703 	.byte	102
00000c29 11             5704 	.byte	17
00000c2a 12             5705 	.byte	18
00000c2b 00000000*      5706 	.word	.LDW_48a7180
00000c2f 0223           5707 	.byte	2,35
00000c31 0d             5708 	.byte	13
00000c32 01             5709 	.byte	1
                        5710 
                        5711 .LDW_4dc3858:
00000c33 23             5712 	.byte	35
00000c34 756352657365   5713 	.strz	"ucReserved8"
00000c3a 727665643800 
00000c40 67             5714 	.byte	103
00000c41 11             5715 	.byte	17
00000c42 12             5716 	.byte	18
00000c43 00000000*      5717 	.word	.LDW_48a7180
00000c47 0223           5718 	.byte	2,35
00000c49 0e             5719 	.byte	14
00000c4a 01             5720 	.byte	1
                        5721 
                        5722 .LDW_4dc36f0:
00000c4b 23             5723 	.byte	35
00000c4c 756343524338   5724 	.strz	"ucCRC8"
00000c52 00 
00000c53 68             5725 	.byte	104
00000c54 11             5726 	.byte	17
00000c55 12             5727 	.byte	18
00000c56 00000000*      5728 	.word	.LDW_48a7180
00000c5a 0223           5729 	.byte	2,35
00000c5c 0f             5730 	.byte	15
00000c5d 01             5731 	.byte	1
                        5732 

                                                                      Page 103
                                                              C:\Users\nhuliyap\AppData\Local\Temp\gh_00008uc1.s
00000c5e 00             5733 	.byte	0
                        5734 
                        5735 .LDW_4dbf8e0:
00000c5f 28             5736 	.byte	40
00000c60 507265427566   5737 	.strz	"PreBufSchraderFp"
00000c66 536368726164 
00000c6c 6572467000 
00000c71 69             5738 	.byte	105
00000c72 02             5739 	.byte	2
00000c73 12             5740 	.byte	18
00000c74 00000000*      5741 	.word	.LDW_4dbf990
                        5742 
                        5743 .LDW_4dbf9e8:
00000c78 41             5744 	.byte	65
00000c79 6b             5745 	.byte	107
00000c7a 01             5746 	.byte	1
00000c7b 12             5747 	.byte	18
00000c7c 18             5748 	.byte	24
00000c7d 01             5749 	.byte	1
                        5750 
                        5751 .LDW_4dc34b0:
00000c7e 23             5752 	.byte	35
00000c7f 617563486561   5753 	.strz	"aucHeader"
00000c85 64657200 
00000c89 6c             5754 	.byte	108
00000c8a 11             5755 	.byte	17
00000c8b 12             5756 	.byte	18
00000c8c 00000000*      5757 	.word	.LDW_4dc2480
00000c90 0223           5758 	.byte	2,35
00000c92 00             5759 	.byte	0
00000c93 01             5760 	.byte	1
                        5761 
                        5762 .LDW_4dc3a08:
00000c94 23             5763 	.byte	35
00000c95 61756354656c   5764 	.strz	"aucTelDat"
00000c9b 44617400 
00000c9f 6d             5765 	.byte	109
00000ca0 11             5766 	.byte	17
00000ca1 12             5767 	.byte	18
00000ca2 00000000*      5768 	.word	.LDW_4dc2508
00000ca6 0223           5769 	.byte	2,35
00000ca8 02             5770 	.byte	2
00000ca9 01             5771 	.byte	1
                        5772 
                        5773 .LDW_4dc32b8:
00000caa 23             5774 	.byte	35
00000cab 756341766700   5775 	.strz	"ucAvg"
00000cb1 73             5776 	.byte	115
00000cb2 11             5777 	.byte	17
00000cb3 12             5778 	.byte	18
00000cb4 00000000*      5779 	.word	.LDW_48a7180
00000cb8 0223           5780 	.byte	2,35
00000cba 10             5781 	.byte	16
00000cbb 01             5782 	.byte	1
                        5783 
                        5784 .LDW_4dc39c0:
00000cbc 23             5785 	.byte	35
00000cbd 756c54696d65   5786 	.strz	"ulTimeStamp"
00000cc3 5374616d7000 
00000cc9 74             5787 	.byte	116
00000cca 11             5788 	.byte	17

                                                                      Page 104
                                                              C:\Users\nhuliyap\AppData\Local\Temp\gh_00008uc1.s
00000ccb 12             5789 	.byte	18
00000ccc 00000000*      5790 	.word	.LDW_48a6e70
00000cd0 0223           5791 	.byte	2,35
00000cd2 14             5792 	.byte	20
00000cd3 01             5793 	.byte	1
                        5794 
00000cd4 00             5795 	.byte	0
                        5796 
                        5797 .LDW_4dbf678:
00000cd5 28             5798 	.byte	40
00000cd6 507265427566   5799 	.strz	"PreBufStructure"
00000cdc 537472756374 
00000ce2 75726500 
00000ce6 75             5800 	.byte	117
00000ce7 02             5801 	.byte	2
00000ce8 12             5802 	.byte	18
00000ce9 00000000*      5803 	.word	.LDW_4dbf9e8
                        5804 
                        5805 .LDW_4d74bf0:
00000ced 42             5806 	.byte	66
00000cee 707265627566   5807 	.strz	"prebuffer"
00000cf4 66657200 
00000cf8 78             5808 	.byte	120
00000cf9 0f             5809 	.byte	15
00000cfa 12             5810 	.byte	18
00000cfb 18             5811 	.byte	24
00000cfc 01             5812 	.byte	1
                        5813 
                        5814 	.section	.debug_abbrev
00000092 42             5815 	.byte	66
00000093 17             5816 	.byte	23
00000094 01             5817 	.byte	1
00000095 0308           5818 	.byte	3,8
00000097 3b0f           5819 	.byte	59,15
00000099 390f           5820 	.byte	57,15
0000009b 3a0f           5821 	.byte	58,15
0000009d 0b0f           5822 	.byte	11,15
0000009f 320b           5823 	.byte	50,11
000000a1 0000           5824 	.byte	0,0
                        5825 
                        5826 	.section	.debug_info
                        5827 .LDW_4dc3588:
00000cfd 23             5828 	.byte	35
00000cfe 486561646572   5829 	.strz	"Header"
00000d04 00 
00000d05 7a             5830 	.byte	122
00000d06 10             5831 	.byte	16
00000d07 12             5832 	.byte	18
00000d08 00000000*      5833 	.word	.LDW_4dbebd0
00000d0c 0223           5834 	.byte	2,35
00000d0e 00             5835 	.byte	0
00000d0f 01             5836 	.byte	1
                        5837 
                        5838 .LDW_4dc3390:
00000d10 23             5839 	.byte	35
00000d11 537472756300   5840 	.strz	"Struc"
00000d17 7b             5841 	.byte	123
00000d18 13             5842 	.byte	19
00000d19 12             5843 	.byte	18
00000d1a 00000000*      5844 	.word	.LDW_4dbf678
00000d1e 0223           5845 	.byte	2,35

                                                                      Page 105
                                                              C:\Users\nhuliyap\AppData\Local\Temp\gh_00008uc1.s
00000d20 00             5846 	.byte	0
00000d21 01             5847 	.byte	1
                        5848 
                        5849 .LDW_4dc38a0:
00000d22 23             5850 	.byte	35
00000d23 414b33356465   5851 	.strz	"AK35def"
00000d29 6600 
00000d2b 7c             5852 	.byte	124
00000d2c 11             5853 	.byte	17
00000d2d 12             5854 	.byte	18
00000d2e 00000000*      5855 	.word	.LDW_4dbf1a8
00000d32 0223           5856 	.byte	2,35
00000d34 00             5857 	.byte	0
00000d35 01             5858 	.byte	1
                        5859 
                        5860 .LDW_4dc3738:
00000d36 23             5861 	.byte	35
00000d37 487566537461   5862 	.strz	"HufStatus"
00000d3d 74757300 
00000d41 7d             5863 	.byte	125
00000d42 13             5864 	.byte	19
00000d43 12             5865 	.byte	18
00000d44 00000000*      5866 	.word	.LDW_4dbec28
00000d48 0223           5867 	.byte	2,35
00000d4a 00             5868 	.byte	0
00000d4b 01             5869 	.byte	1
                        5870 
                        5871 .LDW_4dc35d0:
00000d4c 23             5872 	.byte	35
00000d4d 473453746400   5873 	.strz	"G4Std"
00000d53 7e             5874 	.byte	126
00000d54 0f             5875 	.byte	15
00000d55 12             5876 	.byte	18
00000d56 00000000*      5877 	.word	.LDW_4dbf2b0
00000d5a 0223           5878 	.byte	2,35
00000d5c 00             5879 	.byte	0
00000d5d 01             5880 	.byte	1
                        5881 
                        5882 .LDW_4dc3780:
00000d5e 23             5883 	.byte	35
00000d5f 436f6e746946   5884 	.strz	"ContiFP"
00000d65 5000 
00000d67 7f             5885 	.byte	127
00000d68 11             5886 	.byte	17
00000d69 12             5887 	.byte	18
00000d6a 00000000*      5888 	.word	.LDW_4dbfa98
00000d6e 0223           5889 	.byte	2,35
00000d70 00             5890 	.byte	0
00000d71 01             5891 	.byte	1
                        5892 
                        5893 .LDW_4dc3a50:
00000d72 23             5894 	.byte	35
00000d73 526f74617453   5895 	.strz	"RotatS"
00000d79 00 
00000d7a 8001           5896 	.byte	128,1
00000d7c 10             5897 	.byte	16
00000d7d 12             5898 	.byte	18
00000d7e 00000000*      5899 	.word	.LDW_4dbfa40
00000d82 0223           5900 	.byte	2,35
00000d84 00             5901 	.byte	0
00000d85 01             5902 	.byte	1

                                                                      Page 106
                                                              C:\Users\nhuliyap\AppData\Local\Temp\gh_00008uc1.s
                        5903 
                        5904 .LDW_4dc3618:
00000d86 23             5905 	.byte	35
00000d87 4c6652657370   5906 	.strz	"LfResponse"
00000d8d 6f6e736500 
00000d92 8101           5907 	.byte	129,1
00000d94 17             5908 	.byte	23
00000d95 12             5909 	.byte	18
00000d96 00000000*      5910 	.word	.LDW_4dbf938
00000d9a 0223           5911 	.byte	2,35
00000d9c 00             5912 	.byte	0
00000d9d 01             5913 	.byte	1
                        5914 
                        5915 .LDW_4dc3a98:
00000d9e 23             5916 	.byte	35
00000d9f 536368726164   5917 	.strz	"SchraderType"
00000da5 657254797065 
00000dab 00 
00000dac 8201           5918 	.byte	130,1
00000dae 14             5919 	.byte	20
00000daf 12             5920 	.byte	18
00000db0 00000000*      5921 	.word	.LDW_4dbf8e0
00000db4 0223           5922 	.byte	2,35
00000db6 00             5923 	.byte	0
00000db7 01             5924 	.byte	1
                        5925 
00000db8 00             5926 	.byte	0
                        5927 
                        5928 .LDW_4d74c48:
00000db9 28             5929 	.byte	40
00000dba 745072654275   5930 	.strz	"tPreBuf"
00000dc0 6600 
00000dc2 8801           5931 	.byte	136,1
00000dc4 02             5932 	.byte	2
00000dc5 12             5933 	.byte	18
00000dc6 00000000*      5934 	.word	.LDW_4d74bf0
                        5935 
                        5936 .LDW_4daba30:
00000dca 41             5937 	.byte	65
00000dcb 8a01           5938 	.byte	138,1
00000dcd 0f             5939 	.byte	15
00000dce 12             5940 	.byte	18
00000dcf 1c             5941 	.byte	28
00000dd0 01             5942 	.byte	1
                        5943 
                        5944 .LDW_4dc3300:
00000dd1 23             5945 	.byte	35
00000dd2 527844617461   5946 	.strz	"RxDataIn"
00000dd8 496e00 
00000ddb 8b01           5947 	.byte	139,1
00000ddd 11             5948 	.byte	17
00000dde 12             5949 	.byte	18
00000ddf 00000000*      5950 	.word	.LDW_4d76518
00000de3 0223           5951 	.byte	2,35
00000de5 00             5952 	.byte	0
00000de6 01             5953 	.byte	1
                        5954 
                        5955 .LDW_4dc3660:
00000de7 23             5956 	.byte	35
00000de8 757368566568   5957 	.strz	"ushVehSpeed"
00000dee 537065656400 

                                                                      Page 107
                                                              C:\Users\nhuliyap\AppData\Local\Temp\gh_00008uc1.s
00000df4 8c01           5958 	.byte	140,1
00000df6 12             5959 	.byte	18
00000df7 12             5960 	.byte	18
00000df8 00000000*      5961 	.word	.LDW_4d74770
00000dfc 0223           5962 	.byte	2,35
00000dfe 18             5963 	.byte	24
00000dff 01             5964 	.byte	1
                        5965 
00000e00 00             5966 	.byte	0
                        5967 
                        5968 .LDW_4dabb90:
00000e01 28             5969 	.byte	40
00000e02 745278526f74   5970 	.strz	"tRxRotatSBuf"
00000e08 617453427566 
00000e0e 00 
00000e0f 8d01           5971 	.byte	141,1
00000e11 02             5972 	.byte	2
00000e12 12             5973 	.byte	18
00000e13 00000000*      5974 	.word	.LDW_4daba30
                        5975 
                        5976 .LDW_4dc78c0:
00000e17 41             5977 	.byte	65
00000e18 2b             5978 	.byte	43
00000e19 0f             5979 	.byte	15
00000e1a 01             5980 	.byte	1
00000e1b 0c             5981 	.byte	12
00000e1c 01             5982 	.byte	1
                        5983 
                        5984 .LDW_4dcbd58:
00000e1d 23             5985 	.byte	35
00000e1e 756c494400     5986 	.strz	"ulID"
00000e23 2c             5987 	.byte	44
00000e24 0a             5988 	.byte	10
00000e25 01             5989 	.byte	1
00000e26 00000000*      5990 	.word	.LDW_48eea30
00000e2a 0223           5991 	.byte	2,35
00000e2c 00             5992 	.byte	0
00000e2d 01             5993 	.byte	1
                        5994 
                        5995 .LDW_4dcbde8:
00000e2e 23             5996 	.byte	35
00000e2f 756350726573   5997 	.strz	"ucPressure"
00000e35 7375726500 
00000e3a 2d             5998 	.byte	45
00000e3b 0a             5999 	.byte	10
00000e3c 01             6000 	.byte	1
00000e3d 00000000*      6001 	.word	.LDW_48ee8e8
00000e41 0223           6002 	.byte	2,35
00000e43 04             6003 	.byte	4
00000e44 01             6004 	.byte	1
                        6005 
                        6006 .LDW_4dcbe78:
00000e45 23             6007 	.byte	35
00000e46 736354656d70   6008 	.strz	"scTemperature"
00000e4c 657261747572 
00000e52 6500 
00000e54 2e             6009 	.byte	46
00000e55 0a             6010 	.byte	10
00000e56 01             6011 	.byte	1
00000e57 00000000*      6012 	.word	.LDW_4d75048
00000e5b 0223           6013 	.byte	2,35

                                                                      Page 108
                                                              C:\Users\nhuliyap\AppData\Local\Temp\gh_00008uc1.s
00000e5d 05             6014 	.byte	5
00000e5e 01             6015 	.byte	1
                        6016 
                        6017 .LDW_4dcc070:
00000e5f 23             6018 	.byte	35
00000e60 756352656d61   6019 	.strz	"ucRemainingLifeTime"
00000e66 696e696e674c 
00000e6c 69666554696d 
00000e72 6500 
00000e74 2f             6020 	.byte	47
00000e75 0a             6021 	.byte	10
00000e76 01             6022 	.byte	1
00000e77 00000000*      6023 	.word	.LDW_48ee8e8
00000e7b 0223           6024 	.byte	2,35
00000e7d 06             6025 	.byte	6
00000e7e 01             6026 	.byte	1
                        6027 
                        6028 .LDW_4dcbf50:
00000e7f 23             6029 	.byte	35
00000e80 75635472616e   6030 	.strz	"ucTransMode"
00000e86 734d6f646500 
00000e8c 30             6031 	.byte	48
00000e8d 0a             6032 	.byte	10
00000e8e 01             6033 	.byte	1
00000e8f 00000000*      6034 	.word	.LDW_48ee8e8
00000e93 0223           6035 	.byte	2,35
00000e95 07             6036 	.byte	7
00000e96 01             6037 	.byte	1
                        6038 
                        6039 .LDW_4dcc100:
00000e97 23             6040 	.byte	35
00000e98 75736853656e   6041 	.strz	"ushSensorDefect"
00000e9e 736f72446566 
00000ea4 65637400 
00000ea8 31             6042 	.byte	49
00000ea9 0a             6043 	.byte	10
00000eaa 01             6044 	.byte	1
00000eab 00000000*      6045 	.word	.LDW_4d76468
00000eaf 0223           6046 	.byte	2,35
00000eb1 08             6047 	.byte	8
00000eb2 01             6048 	.byte	1
                        6049 
00000eb3 00             6050 	.byte	0
                        6051 
                        6052 .LDW_4dc7c30:
00000eb4 28             6053 	.byte	40
00000eb5 745245444154   6054 	.strz	"tREDATAPREPROC_DECL"
00000ebb 415052455052 
00000ec1 4f435f444543 
00000ec7 4c00 
00000ec9 38             6055 	.byte	56
00000eca 02             6056 	.byte	2
00000ecb 01             6057 	.byte	1
00000ecc 00000000*      6058 	.word	.LDW_4dc78c0
                        6059 
                        6060 .LDW_4dc7de8:
00000ed0 04             6061 	.byte	4
00000ed1 745265446174   6062 	.strz	"tReDataPD"
00000ed7 61504400 
00000edb 3a             6063 	.byte	58
00000edc 11             6064 	.byte	17

                                                                      Page 109
                                                              C:\Users\nhuliyap\AppData\Local\Temp\gh_00008uc1.s
00000edd 01             6065 	.byte	1
00000ede 00000000*      6066 	.word	.LDW_4d74c48
00000ee2 00             6067 	.byte	0
00000ee3 00             6068 	.byte	0
00000ee4 0503           6069 	.byte	5,3
00000ee6 00000000*      6070 	.word	_tReDataPD..C.3A.5C_ECU2.5CECU_Rivian_A1.5CTarget.5Crepo_projects.5CpRealEcu.5CcL_LATEST.5Cmake.5Coutput.5Cobjects.5Cprocdat.
                        6071 
                        6072 	.section	.debug_abbrev
000000a3 04             6073 	.byte	4
000000a4 34             6074 	.byte	52
000000a5 00             6075 	.byte	0
000000a6 0308           6076 	.byte	3,8
000000a8 3b0f           6077 	.byte	59,15
000000aa 390f           6078 	.byte	57,15
000000ac 3a0f           6079 	.byte	58,15
000000ae 4910           6080 	.byte	73,16
000000b0 3f0c           6081 	.byte	63,12
000000b2 3c0c           6082 	.byte	60,12
000000b4 020a           6083 	.byte	2,10
000000b6 0000           6084 	.byte	0,0
                        6085 
                        6086 	.section	.debug_info
                        6087 .LDW_4dc8208:
00000eea 04             6088 	.byte	4
00000eeb 7457735f5278   6089 	.strz	"tWs_RxRotatSBuf"
00000ef1 526f74617453 
00000ef7 42756600 
00000efb 40             6090 	.byte	64
00000efc 16             6091 	.byte	22
00000efd 01             6092 	.byte	1
00000efe 00000000*      6093 	.word	.LDW_4dc8cb0
00000f02 00             6094 	.byte	0
00000f03 00             6095 	.byte	0
00000f04 0503           6096 	.byte	5,3
00000f06 00000000*      6097 	.word	_tWs_RxRotatSBuf..C.3A.5C_ECU2.5CECU_Rivian_A1.5CTarget.5Crepo_projects.5CpRealEcu.5CcL_LATEST.5Cmake.5Coutput.5Cobjects.5Cprocdat.
                        6098 
                        6099 .LDW_4dc7fa0:
00000f0a 04             6100 	.byte	4
00000f0b 7563526f7461   6101 	.strz	"ucRotatSTelIndexPut"
00000f11 745354656c49 
00000f17 6e6465785075 
00000f1d 7400 
00000f1f 42             6102 	.byte	66
00000f20 0f             6103 	.byte	15
00000f21 01             6104 	.byte	1
00000f22 00000000*      6105 	.word	.LDW_48ee8e8
00000f26 00             6106 	.byte	0
00000f27 00             6107 	.byte	0
00000f28 0503           6108 	.byte	5,3
00000f2a 00000000*      6109 	.word	_ucRotatSTelIndexPut..C.3A.5C_ECU2.5CECU_Rivian_A1.5CTarget.5Crepo_projects.5CpRealEcu.5CcL_LATEST.5Cmake.5Coutput.5Cobjects.5Cprocdat.
                        6110 
                        6111 .LDW_4dc7f48:
00000f2e 04             6112 	.byte	4
00000f2f 756354797265   6113 	.strz	"ucTyreInvalidPressSurpressionCnt"
00000f35 496e76616c69 
00000f3b 645072657373 
00000f41 537572707265 
00000f47 7373696f6e43 
00000f4d 6e7400 
00000f50 44             6114 	.byte	68
00000f51 10             6115 	.byte	16

                                                                      Page 110
                                                              C:\Users\nhuliyap\AppData\Local\Temp\gh_00008uc1.s
00000f52 01             6116 	.byte	1
00000f53 00000000*      6117 	.word	.LDW_4dc8c28
00000f57 00             6118 	.byte	0
00000f58 00             6119 	.byte	0
00000f59 0503           6120 	.byte	5,3
00000f5b 00000000*      6121 	.word	_ucTyreInvalidPressSurpressionCnt..C.3A.5C_ECU2.5CECU_Rivian_A1.5CTarget.5Crepo_projects.5CpRealEcu.5CcL_LATEST.5Cmake.5Coutput.5Cobjects.5Cprocdat.
                        6122 
                        6123 .LDW_4dc7ef0:
00000f5f 04             6124 	.byte	4
00000f60 7563526f744c   6125 	.strz	"ucRotL"
00000f66 00 
00000f67 46             6126 	.byte	70
00000f68 0f             6127 	.byte	15
00000f69 01             6128 	.byte	1
00000f6a 00000000*      6129 	.word	.LDW_48ee8e8
00000f6e 00             6130 	.byte	0
00000f6f 00             6131 	.byte	0
00000f70 0503           6132 	.byte	5,3
00000f72 00000000*      6133 	.word	_ucRotL..C.3A.5C_ECU2.5CECU_Rivian_A1.5CTarget.5Crepo_projects.5CpRealEcu.5CcL_LATEST.5Cmake.5Coutput.5Cobjects.5Cprocdat.
                        6134 
                        6135 .LDW_4dc7ff8:
00000f76 04             6136 	.byte	4
00000f77 7563536e526f   6137 	.strz	"ucSnRotH"
00000f7d 744800 
00000f80 47             6138 	.byte	71
00000f81 0f             6139 	.byte	15
00000f82 01             6140 	.byte	1
00000f83 00000000*      6141 	.word	.LDW_48ee8e8
00000f87 00             6142 	.byte	0
00000f88 00             6143 	.byte	0
00000f89 0503           6144 	.byte	5,3
00000f8b 00000000*      6145 	.word	_ucSnRotH..C.3A.5C_ECU2.5CECU_Rivian_A1.5CTarget.5Crepo_projects.5CpRealEcu.5CcL_LATEST.5Cmake.5Coutput.5Cobjects.5Cprocdat.
                        6146 
                        6147 .LDW_4dc7d90:
00000f8f 04             6148 	.byte	4
00000f90 756352656345   6149 	.strz	"ucRecEventPD"
00000f96 76656e745044 
00000f9c 00 
00000f9d 49             6150 	.byte	73
00000f9e 0f             6151 	.byte	15
00000f9f 01             6152 	.byte	1
00000fa0 00000000*      6153 	.word	.LDW_48ee8e8
00000fa4 00             6154 	.byte	0
00000fa5 00             6155 	.byte	0
00000fa6 0503           6156 	.byte	5,3
00000fa8 00000000*      6157 	.word	_ucRecEventPD..C.3A.5C_ECU2.5CECU_Rivian_A1.5CTarget.5Crepo_projects.5CpRealEcu.5CcL_LATEST.5Cmake.5Coutput.5Cobjects.5Cprocdat.
                        6158 
                        6159 .LDW_4dc7e40:
00000fac 04             6160 	.byte	4
00000fad 55385f416c6c   6161 	.strz	"U8_AllReceivedTelegCnt"
00000fb3 526563656976 
00000fb9 656454656c65 
00000fbf 67436e7400 
00000fc4 4b             6162 	.byte	75
00000fc5 0f             6163 	.byte	15
00000fc6 01             6164 	.byte	1
00000fc7 00000000*      6165 	.word	.LDW_48ee8e8
00000fcb 00             6166 	.byte	0
00000fcc 00             6167 	.byte	0
00000fcd 0503           6168 	.byte	5,3
00000fcf 00000000*      6169 	.word	_U8_AllReceivedTelegCnt..C.3A.5C_ECU2.5CECU_Rivian_A1.5CTarget.5Crepo_projects.5CpRealEcu.5CcL_LATEST.5Cmake.5Coutput.5Cobjects.5Cprocdat.

                                                                      Page 111
                                                              C:\Users\nhuliyap\AppData\Local\Temp\gh_00008uc1.s
                        6170 
                        6171 .LDW_4dc8100:
00000fd3 04             6172 	.byte	4
00000fd4 756352656966   6173 	.strz	"ucReifendruckPD"
00000fda 656e64727563 
00000fe0 6b504400 
00000fe4 4d             6174 	.byte	77
00000fe5 10             6175 	.byte	16
00000fe6 01             6176 	.byte	1
00000fe7 00000000*      6177 	.word	.LDW_4dc8980
00000feb 00             6178 	.byte	0
00000fec 00             6179 	.byte	0
00000fed 0503           6180 	.byte	5,3
00000fef 00000000*      6181 	.word	_ucReifendruckPD..C.3A.5C_ECU2.5CECU_Rivian_A1.5CTarget.5Crepo_projects.5CpRealEcu.5CcL_LATEST.5Cmake.5Coutput.5Cobjects.5Cprocdat.
                        6182 
                        6183 .LDW_4dc7e98:
00000ff3 04             6184 	.byte	4
00000ff4 736354656d70   6185 	.strz	"scTemperaturPD"
00000ffa 657261747572 
00001000 504400 
00001003 4e             6186 	.byte	78
00001004 10             6187 	.byte	16
00001005 01             6188 	.byte	1
00001006 00000000*      6189 	.word	.LDW_4dc9068
0000100a 00             6190 	.byte	0
0000100b 00             6191 	.byte	0
0000100c 0503           6192 	.byte	5,3
0000100e 00000000*      6193 	.word	_scTemperaturPD..C.3A.5C_ECU2.5CECU_Rivian_A1.5CTarget.5Crepo_projects.5CpRealEcu.5CcL_LATEST.5Cmake.5Coutput.5Cobjects.5Cprocdat.
                        6194 
                        6195 .LDW_4dc8050:
00001012 04             6196 	.byte	4
00001013 756352657374   6197 	.strz	"ucRestlebensdauerPD"
00001019 6c6562656e73 
0000101f 646175657250 
00001025 4400 
00001027 4f             6198 	.byte	79
00001028 10             6199 	.byte	16
00001029 01             6200 	.byte	1
0000102a 00000000*      6201 	.word	.LDW_4dc9288
0000102e 00             6202 	.byte	0
0000102f 00             6203 	.byte	0
00001030 0503           6204 	.byte	5,3
00001032 00000000*      6205 	.word	_ucRestlebensdauerPD..C.3A.5C_ECU2.5CECU_Rivian_A1.5CTarget.5Crepo_projects.5CpRealEcu.5CcL_LATEST.5Cmake.5Coutput.5Cobjects.5Cprocdat.
                        6206 
                        6207 .LDW_4dc80a8:
00001036 04             6208 	.byte	4
00001037 756352535349   6209 	.strz	"ucRSSIsumPD"
0000103d 73756d504400 
00001043 50             6210 	.byte	80
00001044 10             6211 	.byte	16
00001045 01             6212 	.byte	1
00001046 00000000*      6213 	.word	.LDW_4dc8e48
0000104a 00             6214 	.byte	0
0000104b 00             6215 	.byte	0
0000104c 0503           6216 	.byte	5,3
0000104e 00000000*      6217 	.word	_ucRSSIsumPD..C.3A.5C_ECU2.5CECU_Rivian_A1.5CTarget.5Crepo_projects.5CpRealEcu.5CcL_LATEST.5Cmake.5Coutput.5Cobjects.5Cprocdat.
                        6218 
                        6219 .LDW_4dcc888:
00001052 04             6220 	.byte	4
00001053 756354656c54   6221 	.strz	"ucTelTypePD"
00001059 797065504400 

                                                                      Page 112
                                                              C:\Users\nhuliyap\AppData\Local\Temp\gh_00008uc1.s
0000105f 51             6222 	.byte	81
00001060 10             6223 	.byte	16
00001061 01             6224 	.byte	1
00001062 00000000*      6225 	.word	.LDW_4dc90f0
00001066 00             6226 	.byte	0
00001067 00             6227 	.byte	0
00001068 0503           6228 	.byte	5,3
0000106a 00000000*      6229 	.word	_ucTelTypePD..C.3A.5C_ECU2.5CECU_Rivian_A1.5CTarget.5Crepo_projects.5CpRealEcu.5CcL_LATEST.5Cmake.5Coutput.5Cobjects.5Cprocdat.
                        6230 
                        6231 .LDW_4dcca98:
0000106e 04             6232 	.byte	4
0000106f 75635472616e   6233 	.strz	"ucTransModePD"
00001075 734d6f646550 
0000107b 4400 
0000107d 52             6234 	.byte	82
0000107e 10             6235 	.byte	16
0000107f 01             6236 	.byte	1
00001080 00000000*      6237 	.word	.LDW_4dc8430
00001084 00             6238 	.byte	0
00001085 00             6239 	.byte	0
00001086 0503           6240 	.byte	5,3
00001088 00000000*      6241 	.word	_ucTransModePD..C.3A.5C_ECU2.5CECU_Rivian_A1.5CTarget.5Crepo_projects.5CpRealEcu.5CcL_LATEST.5Cmake.5Coutput.5Cobjects.5Cprocdat.
                        6242 
                        6243 .LDW_4dcc360:
0000108c 04             6244 	.byte	4
0000108d 75736853656e   6245 	.strz	"ushSensorDefectPD"
00001093 736f72446566 
00001099 656374504400 
0000109f 53             6246 	.byte	83
000010a0 10             6247 	.byte	16
000010a1 01             6248 	.byte	1
000010a2 00000000*      6249 	.word	.LDW_4dc9178
000010a6 00             6250 	.byte	0
000010a7 00             6251 	.byte	0
000010a8 0503           6252 	.byte	5,3
000010aa 00000000*      6253 	.word	_ushSensorDefectPD..C.3A.5C_ECU2.5CECU_Rivian_A1.5CTarget.5Crepo_projects.5CpRealEcu.5CcL_LATEST.5Cmake.5Coutput.5Cobjects.5Cprocdat.
                        6254 
                        6255 .LDW_4dccd00:
000010ae 04             6256 	.byte	4
000010af 75635061746d   6257 	.strz	"ucPatmoPD"
000010b5 6f504400 
000010b9 54             6258 	.byte	84
000010ba 10             6259 	.byte	16
000010bb 01             6260 	.byte	1
000010bc 00000000*      6261 	.word	.LDW_48ee8e8
000010c0 00             6262 	.byte	0
000010c1 00             6263 	.byte	0
000010c2 0503           6264 	.byte	5,3
000010c4 00000000*      6265 	.word	_ucPatmoPD..C.3A.5C_ECU2.5CECU_Rivian_A1.5CTarget.5Crepo_projects.5CpRealEcu.5CcL_LATEST.5Cmake.5Coutput.5Cobjects.5Cprocdat.
                        6266 
                        6267 .LDW_4dccca8:
000010c8 04             6268 	.byte	4
000010c9 745265446174   6269 	.strz	"tReDataPreProcPD"
000010cf 615072655072 
000010d5 6f63504400 
000010da 5f             6270 	.byte	95
000010db 1d             6271 	.byte	29
000010dc 01             6272 	.byte	1
000010dd 00000000*      6273 	.word	.LDW_4dc7c30
000010e1 00             6274 	.byte	0
000010e2 00             6275 	.byte	0

                                                                      Page 113
                                                              C:\Users\nhuliyap\AppData\Local\Temp\gh_00008uc1.s
000010e3 0503           6276 	.byte	5,3
000010e5 00000000*      6277 	.word	_tReDataPreProcPD..C.3A.5C_ECU2.5CECU_Rivian_A1.5CTarget.5Crepo_projects.5CpRealEcu.5CcL_LATEST.5Cmake.5Coutput.5Cobjects.5Cprocdat.
                        6278 
                        6279 .LDW_4dcc518:
000010e9 04             6280 	.byte	4
000010ea 7563526f7461   6281 	.strz	"ucRotatSTelIndexGet"
000010f0 745354656c49 
000010f6 6e6465784765 
000010fc 7400 
000010fe 76             6282 	.byte	118
000010ff 08             6283 	.byte	8
00001100 01             6284 	.byte	1
00001101 00000000*      6285 	.word	.LDW_48ee8e8
00001105 01             6286 	.byte	1
00001106 00             6287 	.byte	0
00001107 0503           6288 	.byte	5,3
00001109 00000000*      6289 	.word	_ucRotatSTelIndexGet
                        6290 
                        6291 .LDW_4dcea30:
0000110d 16             6292 	.byte	22
0000110e 756347657457   6293 	.strz	"ucGetWPOfCol"
00001114 504f66436f6c 
0000111a 00 
0000111b a701           6294 	.byte	167,1
0000111d 16             6295 	.byte	22
0000111e 0e             6296 	.byte	14
0000111f 00000000*      6297 	.word	.LDW_48a7180
00001123 01             6298 	.byte	1
00001124 00             6299 	.byte	0
00001125 01             6300 	.byte	1
00001126 01             6301 	.byte	1
00001127 00             6302 	.byte	0
00001128 01             6303 	.byte	1
                        6304 
                        6305 	.section	.debug_abbrev
000000b8 16             6306 	.byte	22
000000b9 2e             6307 	.byte	46
000000ba 01             6308 	.byte	1
000000bb 0308           6309 	.byte	3,8
000000bd 3b0f           6310 	.byte	59,15
000000bf 390f           6311 	.byte	57,15
000000c1 3a0f           6312 	.byte	58,15
000000c3 4910           6313 	.byte	73,16
000000c5 3c0c           6314 	.byte	60,12
000000c7 200b           6315 	.byte	32,11
000000c9 3f0c           6316 	.byte	63,12
000000cb 320b           6317 	.byte	50,11
000000cd 4c0b           6318 	.byte	76,11
000000cf 270c           6319 	.byte	39,12
000000d1 0000           6320 	.byte	0,0
                        6321 
                        6322 	.section	.debug_info
00001129 00             6323 	.byte	0
                        6324 
                        6325 .LDW_4dd15d0:
0000112a 16             6326 	.byte	22
0000112b 474554756350   6327 	.strz	"GETucPatmoEE"
00001131 61746d6f4545 
00001137 00 
00001138 6c             6328 	.byte	108
00001139 10             6329 	.byte	16

                                                                      Page 114
                                                              C:\Users\nhuliyap\AppData\Local\Temp\gh_00008uc1.s
0000113a 0d             6330 	.byte	13
0000113b 00000000*      6331 	.word	.LDW_48ee8e8
0000113f 01             6332 	.byte	1
00001140 00             6333 	.byte	0
00001141 01             6334 	.byte	1
00001142 01             6335 	.byte	1
00001143 00             6336 	.byte	0
00001144 01             6337 	.byte	1
                        6338 
00001145 00             6339 	.byte	0
                        6340 
                        6341 .LDW_4dd4cb8:
00001146 15             6342 	.byte	21
00001147 4e764d5f5772   6343 	.strz	"NvM_WriteData_PressureFL"
0000114d 697465446174 
00001153 615f50726573 
00001159 73757265464c 
0000115f 00 
00001160 b501           6344 	.byte	181,1
00001162 0d             6345 	.byte	13
00001163 0d             6346 	.byte	13
00001164 01             6347 	.byte	1
00001165 00             6348 	.byte	0
00001166 01             6349 	.byte	1
00001167 01             6350 	.byte	1
00001168 00             6351 	.byte	0
00001169 01             6352 	.byte	1
                        6353 
                        6354 	.section	.debug_abbrev
000000d3 15             6355 	.byte	21
000000d4 2e             6356 	.byte	46
000000d5 01             6357 	.byte	1
000000d6 0308           6358 	.byte	3,8
000000d8 3b0f           6359 	.byte	59,15
000000da 390f           6360 	.byte	57,15
000000dc 3a0f           6361 	.byte	58,15
000000de 3c0c           6362 	.byte	60,12
000000e0 200b           6363 	.byte	32,11
000000e2 3f0c           6364 	.byte	63,12
000000e4 320b           6365 	.byte	50,11
000000e6 4c0b           6366 	.byte	76,11
000000e8 270c           6367 	.byte	39,12
000000ea 0000           6368 	.byte	0,0
                        6369 
                        6370 	.section	.debug_info
0000116a 00             6371 	.byte	0
                        6372 
                        6373 .LDW_4dd5c28:
0000116b 15             6374 	.byte	21
0000116c 4e764d5f5772   6375 	.strz	"NvM_WriteData_PressureFR"
00001172 697465446174 
00001178 615f50726573 
0000117e 737572654652 
00001184 00 
00001185 b701           6376 	.byte	183,1
00001187 0d             6377 	.byte	13
00001188 0d             6378 	.byte	13
00001189 01             6379 	.byte	1
0000118a 00             6380 	.byte	0
0000118b 01             6381 	.byte	1
0000118c 01             6382 	.byte	1

                                                                      Page 115
                                                              C:\Users\nhuliyap\AppData\Local\Temp\gh_00008uc1.s
0000118d 00             6383 	.byte	0
0000118e 01             6384 	.byte	1
                        6385 
0000118f 00             6386 	.byte	0
                        6387 
                        6388 .LDW_4dd56d0:
00001190 15             6389 	.byte	21
00001191 4e764d5f5772   6390 	.strz	"NvM_WriteData_PressureRL"
00001197 697465446174 
0000119d 615f50726573 
000011a3 73757265524c 
000011a9 00 
000011aa b901           6391 	.byte	185,1
000011ac 0d             6392 	.byte	13
000011ad 0d             6393 	.byte	13
000011ae 01             6394 	.byte	1
000011af 00             6395 	.byte	0
000011b0 01             6396 	.byte	1
000011b1 01             6397 	.byte	1
000011b2 00             6398 	.byte	0
000011b3 01             6399 	.byte	1
                        6400 
000011b4 00             6401 	.byte	0
                        6402 
                        6403 .LDW_4dd4e80:
000011b5 15             6404 	.byte	21
000011b6 4e764d5f5772   6405 	.strz	"NvM_WriteData_PressureRR"
000011bc 697465446174 
000011c2 615f50726573 
000011c8 737572655252 
000011ce 00 
000011cf bb01           6406 	.byte	187,1
000011d1 0d             6407 	.byte	13
000011d2 0d             6408 	.byte	13
000011d3 01             6409 	.byte	1
000011d4 00             6410 	.byte	0
000011d5 01             6411 	.byte	1
000011d6 01             6412 	.byte	1
000011d7 00             6413 	.byte	0
000011d8 01             6414 	.byte	1
                        6415 
000011d9 00             6416 	.byte	0
                        6417 
                        6418 .LDW_4dd52a8:
000011da 15             6419 	.byte	21
000011db 4e764d5f5772   6420 	.strz	"NvM_WriteData_TemperatureFL"
000011e1 697465446174 
000011e7 615f54656d70 
000011ed 657261747572 
000011f3 65464c00 
000011f7 bd01           6421 	.byte	189,1
000011f9 0d             6422 	.byte	13
000011fa 0d             6423 	.byte	13
000011fb 01             6424 	.byte	1
000011fc 00             6425 	.byte	0
000011fd 01             6426 	.byte	1
000011fe 01             6427 	.byte	1
000011ff 00             6428 	.byte	0
00001200 01             6429 	.byte	1
                        6430 
00001201 00             6431 	.byte	0

                                                                      Page 116
                                                              C:\Users\nhuliyap\AppData\Local\Temp\gh_00008uc1.s
                        6432 
                        6433 .LDW_4dd4d50:
00001202 15             6434 	.byte	21
00001203 4e764d5f5772   6435 	.strz	"NvM_WriteData_TemperatureFR"
00001209 697465446174 
0000120f 615f54656d70 
00001215 657261747572 
0000121b 65465200 
0000121f bf01           6436 	.byte	191,1
00001221 0d             6437 	.byte	13
00001222 0d             6438 	.byte	13
00001223 01             6439 	.byte	1
00001224 00             6440 	.byte	0
00001225 01             6441 	.byte	1
00001226 01             6442 	.byte	1
00001227 00             6443 	.byte	0
00001228 01             6444 	.byte	1
                        6445 
00001229 00             6446 	.byte	0
                        6447 
                        6448 .LDW_4dd5768:
0000122a 15             6449 	.byte	21
0000122b 4e764d5f5772   6450 	.strz	"NvM_WriteData_TemperatureRL"
00001231 697465446174 
00001237 615f54656d70 
0000123d 657261747572 
00001243 65524c00 
00001247 c101           6451 	.byte	193,1
00001249 0d             6452 	.byte	13
0000124a 0d             6453 	.byte	13
0000124b 01             6454 	.byte	1
0000124c 00             6455 	.byte	0
0000124d 01             6456 	.byte	1
0000124e 01             6457 	.byte	1
0000124f 00             6458 	.byte	0
00001250 01             6459 	.byte	1
                        6460 
00001251 00             6461 	.byte	0
                        6462 
                        6463 .LDW_4dd4f18:
00001252 15             6464 	.byte	21
00001253 4e764d5f5772   6465 	.strz	"NvM_WriteData_TemperatureRR"
00001259 697465446174 
0000125f 615f54656d70 
00001265 657261747572 
0000126b 65525200 
0000126f c301           6466 	.byte	195,1
00001271 0d             6467 	.byte	13
00001272 0d             6468 	.byte	13
00001273 01             6469 	.byte	1
00001274 00             6470 	.byte	0
00001275 01             6471 	.byte	1
00001276 01             6472 	.byte	1
00001277 00             6473 	.byte	0
00001278 01             6474 	.byte	1
                        6475 
00001279 00             6476 	.byte	0
                        6477 
                        6478 .LDW_4dd5470:
0000127a 16             6479 	.byte	22
0000127b 75634765744c   6480 	.strz	"ucGetLen4Cmd"

                                                                      Page 117
                                                              C:\Users\nhuliyap\AppData\Local\Temp\gh_00008uc1.s
00001281 656e34436d64 
00001287 00 
00001288 9501           6481 	.byte	149,1
0000128a 16             6482 	.byte	22
0000128b 12             6483 	.byte	18
0000128c 00000000*      6484 	.word	.LDW_48a7180
00001290 01             6485 	.byte	1
00001291 00             6486 	.byte	0
00001292 01             6487 	.byte	1
00001293 01             6488 	.byte	1
00001294 00             6489 	.byte	0
00001295 01             6490 	.byte	1
                        6491 
00001296 00             6492 	.byte	0
                        6493 
                        6494 .LDW_4dd5508:
00001297 16             6495 	.byte	22
00001298 756354656c4f   6496 	.strz	"ucTelOfInterest"
0000129e 66496e746572 
000012a4 65737400 
000012a8 9701           6497 	.byte	151,1
000012aa 16             6498 	.byte	22
000012ab 12             6499 	.byte	18
000012ac 00000000*      6500 	.word	.LDW_48a7180
000012b0 01             6501 	.byte	1
000012b1 00             6502 	.byte	0
000012b2 01             6503 	.byte	1
000012b3 01             6504 	.byte	1
000012b4 00             6505 	.byte	0
000012b5 01             6506 	.byte	1
                        6507 
000012b6 00             6508 	.byte	0
                        6509 
                        6510 .LDW_4dd5af8:
000012b7 16             6511 	.byte	22
000012b8 756347657452   6512 	.strz	"ucGetRadPosAtSlotPDIF"
000012be 6164506f7341 
000012c4 74536c6f7450 
000012ca 44494600 
000012ce 0d             6513 	.byte	13
000012cf 0e             6514 	.byte	14
000012d0 13             6515 	.byte	19
000012d1 00000000*      6516 	.word	.LDW_48ee8e8
000012d5 01             6517 	.byte	1
000012d6 00             6518 	.byte	0
000012d7 01             6519 	.byte	1
000012d8 01             6520 	.byte	1
000012d9 00             6521 	.byte	0
000012da 01             6522 	.byte	1
                        6523 
000012db 00             6524 	.byte	0
                        6525 
                        6526 .LDW_4dd80f0:
000012dc 15             6527 	.byte	21
000012dd 52656c6f6164   6528 	.strz	"ReloadSTATISTICS"
000012e3 535441544953 
000012e9 5449435300 
000012ee 0e             6529 	.byte	14
000012ef 0d             6530 	.byte	13
000012f0 14             6531 	.byte	20
000012f1 01             6532 	.byte	1

                                                                      Page 118
                                                              C:\Users\nhuliyap\AppData\Local\Temp\gh_00008uc1.s
000012f2 00             6533 	.byte	0
000012f3 01             6534 	.byte	1
000012f4 01             6535 	.byte	1
000012f5 00             6536 	.byte	0
000012f6 01             6537 	.byte	1
                        6538 
000012f7 00             6539 	.byte	0
                        6540 
                        6541 .LDW_4dd79d0:
000012f8 15             6542 	.byte	21
000012f9 457652654461   6543 	.strz	"EvReDataSM"
000012ff 7461534d00 
00001304 11             6544 	.byte	17
00001305 0d             6545 	.byte	13
00001306 15             6546 	.byte	21
00001307 01             6547 	.byte	1
00001308 00             6548 	.byte	0
00001309 01             6549 	.byte	1
0000130a 01             6550 	.byte	1
0000130b 00             6551 	.byte	0
0000130c 01             6552 	.byte	1
                        6553 
0000130d 00             6554 	.byte	0
                        6555 
                        6556 .LDW_4dd6b90:
0000130e 16             6557 	.byte	22
0000130f 624765744269   6558 	.strz	"bGetBitBetriebszustandBZ"
00001315 744265747269 
0000131b 6562737a7573 
00001321 74616e64425a 
00001327 00 
00001328 27             6559 	.byte	39
00001329 10             6560 	.byte	16
0000132a 16             6561 	.byte	22
0000132b 00000000*      6562 	.word	.LDW_4d76620
0000132f 01             6563 	.byte	1
00001330 00             6564 	.byte	0
00001331 01             6565 	.byte	1
00001332 01             6566 	.byte	1
00001333 00             6567 	.byte	0
00001334 01             6568 	.byte	1
                        6569 
00001335 00             6570 	.byte	0
                        6571 
                        6572 .LDW_4ddb198:
00001336 16             6573 	.byte	22
00001337 526563656976   6574 	.strz	"ReceiveGetVehicleSpeed"
0000133d 654765745665 
00001343 6869636c6553 
00001349 7065656400 
0000134e 6a             6575 	.byte	106
0000134f 10             6576 	.byte	16
00001350 17             6577 	.byte	23
00001351 00000000*      6578 	.word	.LDW_48ee8e8
00001355 01             6579 	.byte	1
00001356 00             6580 	.byte	0
00001357 01             6581 	.byte	1
00001358 01             6582 	.byte	1
00001359 00             6583 	.byte	0
0000135a 01             6584 	.byte	1
                        6585 

                                                                      Page 119
                                                              C:\Users\nhuliyap\AppData\Local\Temp\gh_00008uc1.s
0000135b 00             6586 	.byte	0
                        6587 
                        6588 .LDW_4ddad70:
0000135c 16             6589 	.byte	22
0000135d 526563656976   6590 	.strz	"ReceiveGetFmmotmax"
00001363 65476574466d 
00001369 6d6f746d6178 
0000136f 00 
00001370 6f             6591 	.byte	111
00001371 10             6592 	.byte	16
00001372 17             6593 	.byte	23
00001373 00000000*      6594 	.word	.LDW_48ee8e8
00001377 01             6595 	.byte	1
00001378 00             6596 	.byte	0
00001379 01             6597 	.byte	1
0000137a 01             6598 	.byte	1
0000137b 00             6599 	.byte	0
0000137c 01             6600 	.byte	1
                        6601 
0000137d 00             6602 	.byte	0
                        6603 
                        6604 .LDW_4ddaea0:
0000137e 15             6605 	.byte	21
0000137f 44434d5f4576   6606 	.strz	"DCM_EventDataUpdateOnRx"
00001385 656e74446174 
0000138b 615570646174 
00001391 654f6e527800 
00001397 9505           6607 	.byte	149,5
00001399 0d             6608 	.byte	13
0000139a 18             6609 	.byte	24
0000139b 01             6610 	.byte	1
0000139c 00             6611 	.byte	0
0000139d 01             6612 	.byte	1
0000139e 01             6613 	.byte	1
0000139f 00             6614 	.byte	0
000013a0 01             6615 	.byte	1
                        6616 
000013a1 00             6617 	.byte	0
                        6618 
                        6619 .LDW_48ee850:
000013a2 13             6620 	.byte	19
000013a3 496e69745044   6621 	.strz	"InitPD"
000013a9 00 
000013aa 7b             6622 	.byte	123
000013ab 06             6623 	.byte	6
000013ac 01             6624 	.byte	1
000013ad 00000000*      6625 	.word	_InitPD
000013b1 00000000*      6626 	.word	___ghs_eofn_InitPD
000013b5 0153           6627 	.byte	1,83
000013b7 828080800a     6628 	.byte	130,128,128,128,10
000013bc 08             6629 	.byte	8
000013bd 03             6630 	.byte	3
000013be 08             6631 	.byte	8
000013bf 00             6632 	.byte	0
000013c0 00             6633 	.byte	0
000013c1 00             6634 	.byte	0
000013c2 01             6635 	.byte	1
000013c3 01             6636 	.byte	1
000013c4 00             6637 	.byte	0
000013c5 01             6638 	.byte	1
                        6639 

                                                                      Page 120
                                                              C:\Users\nhuliyap\AppData\Local\Temp\gh_00008uc1.s
                        6640 	.section	.debug_abbrev
000000ec 13             6641 	.byte	19
000000ed 2e             6642 	.byte	46
000000ee 01             6643 	.byte	1
000000ef 0308           6644 	.byte	3,8
000000f1 3b0f           6645 	.byte	59,15
000000f3 390f           6646 	.byte	57,15
000000f5 3a0f           6647 	.byte	58,15
000000f7 1101           6648 	.byte	17,1
000000f9 1201           6649 	.byte	18,1
000000fb 400a           6650 	.byte	64,10
000000fd 8341           6651 	.byte	131,65
000000ff 0f             6652 	.byte	15
00000100 8741           6653 	.byte	135,65
00000102 0d             6654 	.byte	13
00000103 8541           6655 	.byte	133,65
00000105 0f             6656 	.byte	15
00000106 8641           6657 	.byte	134,65
00000108 0d             6658 	.byte	13
00000109 9241           6659 	.byte	146,65
0000010b 0f             6660 	.byte	15
0000010c 3c0c           6661 	.byte	60,12
0000010e 200b           6662 	.byte	32,11
00000110 3f0c           6663 	.byte	63,12
00000112 320b           6664 	.byte	50,11
00000114 4c0b           6665 	.byte	76,11
00000116 270c           6666 	.byte	39,12
00000118 0000           6667 	.byte	0,0
                        6668 
                        6669 	.section	.debug_frame
                        6670 .LDW_4dbdc18:
00000090 00000000*      6671 	.word	.LDW_unq_4-.LDW_unq_3
                        6672 .LDW_unq_3:
00000094 00000000*      6673 	.word	.LDW_4d1b500
00000098 00000000*      6674 	.word	_InitPD
0000009c 00000000*      6675 	.word	___ghs_eofn_InitPD-_InitPD
000000a0 44             6676 	.byte	68
000000a1 9f             6677 	.byte	159
000000a2 00             6678 	.byte	0
000000a3 40             6679 	.byte	64
000000a4 9d             6680 	.byte	157
000000a5 04             6681 	.byte	4
000000a6 01             6682 	.byte	1
000000a7 00000000*      6683 	.word	.LDW31
000000ab 00             6684 	.byte	0
                        6685 .LDW_unq_4:
                        6686 	.section	.debug_line
00000480 000502         6687 	.byte	0,5,2
00000483 00000000*      6688 	.word	_InitPD
00000487 03             6689 	.byte	3
00000488 fb00           6690 	.byte	251,0
0000048a 02             6691 	.byte	2
0000048b 00             6692 	.byte	0
0000048c 01             6693 	.byte	1
0000048d 06             6694 	.byte	6
0000048e 000502         6695 	.byte	0,5,2
00000491 00000000*      6696 	.word	.LDWlin2
00000495 0d             6697 	.byte	13
00000496 000502         6698 	.byte	0,5,2
00000499 00000000*      6699 	.word	.LDWlin3
0000049d 0b             6700 	.byte	11

                                                                      Page 121
                                                              C:\Users\nhuliyap\AppData\Local\Temp\gh_00008uc1.s
0000049e 15             6701 	.byte	21
0000049f 000502         6702 	.byte	0,5,2
000004a2 00000000*      6703 	.word	.LDWlin4
000004a6 03             6704 	.byte	3
000004a7 7e             6705 	.byte	126
000004a8 02             6706 	.byte	2
000004a9 00             6707 	.byte	0
000004aa 01             6708 	.byte	1
000004ab 13             6709 	.byte	19
000004ac 25             6710 	.byte	37
000004ad 02             6711 	.byte	2
000004ae 02             6712 	.byte	2
000004af 0c             6713 	.byte	12
000004b0 23             6714 	.byte	35
000004b1 1b             6715 	.byte	27
000004b2 2b             6716 	.byte	43
000004b3 03             6717 	.byte	3
000004b4 06             6718 	.byte	6
000004b5 02             6719 	.byte	2
000004b6 02             6720 	.byte	2
000004b7 01             6721 	.byte	1
000004b8 13             6722 	.byte	19
000004b9 13             6723 	.byte	19
000004ba 03             6724 	.byte	3
000004bb 05             6725 	.byte	5
000004bc 02             6726 	.byte	2
000004bd 0a             6727 	.byte	10
000004be 01             6728 	.byte	1
000004bf 03             6729 	.byte	3
000004c0 6e             6730 	.byte	110
000004c1 02             6731 	.byte	2
000004c2 02             6732 	.byte	2
000004c3 01             6733 	.byte	1
000004c4 000502         6734 	.byte	0,5,2
000004c7 00000000*      6735 	.word	.LDWlin5
000004cb 03             6736 	.byte	3
000004cc 13             6737 	.byte	19
000004cd 02             6738 	.byte	2
000004ce 00             6739 	.byte	0
000004cf 01             6740 	.byte	1
000004d0 0c             6741 	.byte	12
000004d1 000502         6742 	.byte	0,5,2
000004d4 00000000*      6743 	.word	.LDWlin6
000004d8 0b             6744 	.byte	11
000004d9 02             6745 	.byte	2
000004da 04             6746 	.byte	4
000004db 000101         6747 	.byte	0,1,1
                        6748 	.section	.debug_info
                        6749 .LDW_48ea800:
000013c6 1d             6750 	.byte	29
000013c7 00000000*      6751 	.word	.LDW21
000013cb 00000000*      6752 	.word	.LDW31
                        6753 
                        6754 	.section	.debug_abbrev
0000011a 1d             6755 	.byte	29
0000011b 0b             6756 	.byte	11
0000011c 01             6757 	.byte	1
0000011d 1101           6758 	.byte	17,1
0000011f 1201           6759 	.byte	18,1
00000121 0000           6760 	.byte	0,0
                        6761 

                                                                      Page 122
                                                              C:\Users\nhuliyap\AppData\Local\Temp\gh_00008uc1.s
                        6762 	.section	.debug_info
                        6763 .LDW_48ee940:
000013cf 04             6764 	.byte	4
000013d0 75634c6f6f70   6765 	.strz	"ucLoop"
000013d6 00 
000013d7 7d             6766 	.byte	125
000013d8 09             6767 	.byte	9
000013d9 01             6768 	.byte	1
000013da 00000000*      6769 	.word	.LDW_48ee8e8
000013de 00             6770 	.byte	0
000013df 00             6771 	.byte	0
000013e0 0162           6772 	.byte	1,98
                        6773 
000013e2 00             6774 	.byte	0
                        6775 
000013e3 00             6776 	.byte	0
                        6777 
                        6778 .LDW_48ee998:
000013e4 13             6779 	.byte	19
000013e5 496e6372656d   6780 	.strz	"IncrementAllReceivedTelegCnt"
000013eb 656e74416c6c 
000013f1 526563656976 
000013f7 656454656c65 
000013fd 67436e7400 
00001402 9d01           6781 	.byte	157,1
00001404 06             6782 	.byte	6
00001405 01             6783 	.byte	1
00001406 00000000*      6784 	.word	_IncrementAllReceivedTelegCnt
0000140a 00000000*      6785 	.word	___ghs_eofn_IncrementAllReceivedTelegCnt
0000140e 0153           6786 	.byte	1,83
00001410 02             6787 	.byte	2
00001411 00             6788 	.byte	0
00001412 02             6789 	.byte	2
00001413 00             6790 	.byte	0
00001414 00             6791 	.byte	0
00001415 00             6792 	.byte	0
00001416 00             6793 	.byte	0
00001417 01             6794 	.byte	1
00001418 01             6795 	.byte	1
00001419 00             6796 	.byte	0
0000141a 01             6797 	.byte	1
                        6798 
                        6799 	.section	.debug_frame
                        6800 .LDW_4dbdfd8:
000000ac 00000000*      6801 	.word	.LDW_unq_6-.LDW_unq_5
                        6802 .LDW_unq_5:
000000b0 00000000*      6803 	.word	.LDW_4d1b500
000000b4 00000000*      6804 	.word	_IncrementAllReceivedTelegCnt
000000b8 00000000*      6805 	.word	___ghs_eofn_IncrementAllReceivedTelegCnt-_IncrementAllReceivedTelegCnt
000000bc 01             6806 	.byte	1
000000bd 00000000*      6807 	.word	.LDW51
000000c1 00             6808 	.byte	0
000000c2 00             6809 	.byte	0
000000c3 00             6810 	.byte	0
                        6811 .LDW_unq_6:
                        6812 	.section	.debug_line
000004de 000502         6813 	.byte	0,5,2
000004e1 00000000*      6814 	.word	_IncrementAllReceivedTelegCnt
000004e5 06             6815 	.byte	6
000004e6 03             6816 	.byte	3
000004e7 9d01           6817 	.byte	157,1

                                                                      Page 123
                                                              C:\Users\nhuliyap\AppData\Local\Temp\gh_00008uc1.s
000004e9 02             6818 	.byte	2
000004ea 00             6819 	.byte	0
000004eb 01             6820 	.byte	1
000004ec 000502         6821 	.byte	0,5,2
000004ef 00000000*      6822 	.word	.LDWlin7
000004f3 0b             6823 	.byte	11
000004f4 02             6824 	.byte	2
000004f5 02             6825 	.byte	2
000004f6 000101         6826 	.byte	0,1,1
                        6827 	.section	.debug_info
                        6828 .LDW_48ea830:
0000141b 1d             6829 	.byte	29
0000141c 00000000*      6830 	.word	.LDW41
00001420 00000000*      6831 	.word	.LDW51
                        6832 
00001424 00             6833 	.byte	0
                        6834 
00001425 00             6835 	.byte	0
                        6836 
                        6837 .LDW_48eea88:
00001426 14             6838 	.byte	20
00001427 756c47657452   6839 	.strz	"ulGetReDataIdPD"
0000142d 654461746149 
00001433 64504400 
00001437 a101           6840 	.byte	161,1
00001439 08             6841 	.byte	8
0000143a 01             6842 	.byte	1
0000143b 00000000*      6843 	.word	.LDW_48eea30
0000143f 00000000*      6844 	.word	_ulGetReDataIdPD
00001443 00000000*      6845 	.word	___ghs_eofn_ulGetReDataIdPD
00001447 0153           6846 	.byte	1,83
00001449 02             6847 	.byte	2
0000144a 00             6848 	.byte	0
0000144b 02             6849 	.byte	2
0000144c 00             6850 	.byte	0
0000144d 00             6851 	.byte	0
0000144e 00             6852 	.byte	0
0000144f 00             6853 	.byte	0
00001450 01             6854 	.byte	1
00001451 01             6855 	.byte	1
00001452 00             6856 	.byte	0
00001453 01             6857 	.byte	1
                        6858 
                        6859 	.section	.debug_abbrev
00000123 14             6860 	.byte	20
00000124 2e             6861 	.byte	46
00000125 01             6862 	.byte	1
00000126 0308           6863 	.byte	3,8
00000128 3b0f           6864 	.byte	59,15
0000012a 390f           6865 	.byte	57,15
0000012c 3a0f           6866 	.byte	58,15
0000012e 4910           6867 	.byte	73,16
00000130 1101           6868 	.byte	17,1
00000132 1201           6869 	.byte	18,1
00000134 400a           6870 	.byte	64,10
00000136 8341           6871 	.byte	131,65
00000138 0f             6872 	.byte	15
00000139 8741           6873 	.byte	135,65
0000013b 0d             6874 	.byte	13
0000013c 8541           6875 	.byte	133,65
0000013e 0f             6876 	.byte	15

                                                                      Page 124
                                                              C:\Users\nhuliyap\AppData\Local\Temp\gh_00008uc1.s
0000013f 8641           6877 	.byte	134,65
00000141 0d             6878 	.byte	13
00000142 9241           6879 	.byte	146,65
00000144 0f             6880 	.byte	15
00000145 3c0c           6881 	.byte	60,12
00000147 200b           6882 	.byte	32,11
00000149 3f0c           6883 	.byte	63,12
0000014b 320b           6884 	.byte	50,11
0000014d 4c0b           6885 	.byte	76,11
0000014f 270c           6886 	.byte	39,12
00000151 0000           6887 	.byte	0,0
                        6888 
                        6889 	.section	.debug_frame
                        6890 .LDW_4dbdc98:
000000c4 00000000*      6891 	.word	.LDW_unq_8-.LDW_unq_7
                        6892 .LDW_unq_7:
000000c8 00000000*      6893 	.word	.LDW_4d1b500
000000cc 00000000*      6894 	.word	_ulGetReDataIdPD
000000d0 00000000*      6895 	.word	___ghs_eofn_ulGetReDataIdPD-_ulGetReDataIdPD
000000d4 01             6896 	.byte	1
000000d5 00000000*      6897 	.word	.LDW71
000000d9 00             6898 	.byte	0
000000da 00             6899 	.byte	0
000000db 00             6900 	.byte	0
                        6901 .LDW_unq_8:
                        6902 	.section	.debug_line
000004f9 000502         6903 	.byte	0,5,2
000004fc 00000000*      6904 	.word	_ulGetReDataIdPD
00000500 03             6905 	.byte	3
00000501 a101           6906 	.byte	161,1
00000503 02             6907 	.byte	2
00000504 00             6908 	.byte	0
00000505 01             6909 	.byte	1
00000506 06             6910 	.byte	6
00000507 000502         6911 	.byte	0,5,2
0000050a 00000000*      6912 	.word	.LDWlin8
0000050e 03             6913 	.byte	3
0000050f 07             6914 	.byte	7
00000510 02             6915 	.byte	2
00000511 00             6916 	.byte	0
00000512 01             6917 	.byte	1
00000513 06             6918 	.byte	6
00000514 02             6919 	.byte	2
00000515 14             6920 	.byte	20
00000516 02             6921 	.byte	2
00000517 02             6922 	.byte	2
00000518 000101         6923 	.byte	0,1,1
                        6924 	.section	.debug_info
                        6925 .LDW_48ea6e0:
00001454 1d             6926 	.byte	29
00001455 00000000*      6927 	.word	.LDW61
00001459 00000000*      6928 	.word	.LDW71
                        6929 
                        6930 .LDW_48eeb20:
0000145d 05             6931 	.byte	5
0000145e 756c5f4c6f63   6932 	.strz	"ul_LocalID"
00001464 616c494400 
00001469 a301           6933 	.byte	163,1
0000146b 0a             6934 	.byte	10
0000146c 01             6935 	.byte	1
0000146d 00000000*      6936 	.word	.LDW_48eea30

                                                                      Page 125
                                                              C:\Users\nhuliyap\AppData\Local\Temp\gh_00008uc1.s
00001471 00             6937 	.byte	0
00001472 00             6938 	.byte	0
                        6939 
                        6940 	.section	.debug_abbrev
00000153 05             6941 	.byte	5
00000154 34             6942 	.byte	52
00000155 00             6943 	.byte	0
00000156 0308           6944 	.byte	3,8
00000158 3b0f           6945 	.byte	59,15
0000015a 390f           6946 	.byte	57,15
0000015c 3a0f           6947 	.byte	58,15
0000015e 4910           6948 	.byte	73,16
00000160 3f0c           6949 	.byte	63,12
00000162 3c0c           6950 	.byte	60,12
00000164 0000           6951 	.byte	0,0
                        6952 
                        6953 	.section	.debug_info
00001473 00             6954 	.byte	0
                        6955 
00001474 00             6956 	.byte	0
                        6957 
                        6958 .LDW_48e9e90:
00001475 14             6959 	.byte	20
00001476 756347657452   6960 	.strz	"ucGetReDataPressurePD"
0000147c 654461746150 
00001482 726573737572 
00001488 65504400 
0000148c ac01           6961 	.byte	172,1
0000148e 07             6962 	.byte	7
0000148f 01             6963 	.byte	1
00001490 00000000*      6964 	.word	.LDW_48ee8e8
00001494 00000000*      6965 	.word	_ucGetReDataPressurePD
00001498 00000000*      6966 	.word	___ghs_eofn_ucGetReDataPressurePD
0000149c 0153           6967 	.byte	1,83
0000149e 02             6968 	.byte	2
0000149f 00             6969 	.byte	0
000014a0 02             6970 	.byte	2
000014a1 00             6971 	.byte	0
000014a2 00             6972 	.byte	0
000014a3 00             6973 	.byte	0
000014a4 00             6974 	.byte	0
000014a5 01             6975 	.byte	1
000014a6 01             6976 	.byte	1
000014a7 00             6977 	.byte	0
000014a8 01             6978 	.byte	1
                        6979 
                        6980 	.section	.debug_frame
                        6981 .LDW_4dbe618:
000000dc 00000000*      6982 	.word	.LDW_unq_a-.LDW_unq_9
                        6983 .LDW_unq_9:
000000e0 00000000*      6984 	.word	.LDW_4d1b500
000000e4 00000000*      6985 	.word	_ucGetReDataPressurePD
000000e8 00000000*      6986 	.word	___ghs_eofn_ucGetReDataPressurePD-_ucGetReDataPressurePD
000000ec 01             6987 	.byte	1
000000ed 00000000*      6988 	.word	.LDW91
000000f1 00             6989 	.byte	0
000000f2 00             6990 	.byte	0
000000f3 00             6991 	.byte	0
                        6992 .LDW_unq_a:
                        6993 	.section	.debug_line
0000051b 000502         6994 	.byte	0,5,2

                                                                      Page 126
                                                              C:\Users\nhuliyap\AppData\Local\Temp\gh_00008uc1.s
0000051e 00000000*      6995 	.word	_ucGetReDataPressurePD
00000522 03             6996 	.byte	3
00000523 ac01           6997 	.byte	172,1
00000525 02             6998 	.byte	2
00000526 00             6999 	.byte	0
00000527 01             7000 	.byte	1
00000528 06             7001 	.byte	6
00000529 000502         7002 	.byte	0,5,2
0000052c 00000000*      7003 	.word	.LDWlin9
00000530 0d             7004 	.byte	13
00000531 000502         7005 	.byte	0,5,2
00000534 00000000*      7006 	.word	.LDWlin10
00000538 03             7007 	.byte	3
00000539 07             7008 	.byte	7
0000053a 02             7009 	.byte	2
0000053b 00             7010 	.byte	0
0000053c 01             7011 	.byte	1
0000053d 0b             7012 	.byte	11
0000053e 000502         7013 	.byte	0,5,2
00000541 00000000*      7014 	.word	.LDWlin11
00000545 0b             7015 	.byte	11
00000546 0b             7016 	.byte	11
00000547 0b             7017 	.byte	11
00000548 13             7018 	.byte	19
00000549 02             7019 	.byte	2
0000054a 00             7020 	.byte	0
0000054b 0b             7021 	.byte	11
0000054c 02             7022 	.byte	2
0000054d 02             7023 	.byte	2
0000054e 000101         7024 	.byte	0,1,1
                        7025 	.section	.debug_info
                        7026 .LDW_48ea950:
000014a9 1d             7027 	.byte	29
000014aa 00000000*      7028 	.word	.LDW81
000014ae 00000000*      7029 	.word	.LDW91
                        7030 
                        7031 .LDW_48e9f28:
000014b2 04             7032 	.byte	4
000014b3 756348656c70   7033 	.strz	"ucHelp"
000014b9 00 
000014ba ae01           7034 	.byte	174,1
000014bc 09             7035 	.byte	9
000014bd 01             7036 	.byte	1
000014be 00000000*      7037 	.word	.LDW_48ee8e8
000014c2 00             7038 	.byte	0
000014c3 00             7039 	.byte	0
000014c4 015a           7040 	.byte	1,90
                        7041 
000014c6 00             7042 	.byte	0
                        7043 
000014c7 00             7044 	.byte	0
                        7045 
                        7046 .LDW_48e9f80:
000014c8 14             7047 	.byte	20
000014c9 756347657452   7048 	.strz	"ucGetReDataTemperaturePD"
000014cf 654461746154 
000014d5 656d70657261 
000014db 747572655044 
000014e1 00 
000014e2 c001           7049 	.byte	192,1
000014e4 07             7050 	.byte	7

                                                                      Page 127
                                                              C:\Users\nhuliyap\AppData\Local\Temp\gh_00008uc1.s
000014e5 01             7051 	.byte	1
000014e6 00000000*      7052 	.word	.LDW_48ee8e8
000014ea 00000000*      7053 	.word	_ucGetReDataTemperaturePD
000014ee 00000000*      7054 	.word	___ghs_eofn_ucGetReDataTemperaturePD
000014f2 0153           7055 	.byte	1,83
000014f4 02             7056 	.byte	2
000014f5 00             7057 	.byte	0
000014f6 02             7058 	.byte	2
000014f7 00             7059 	.byte	0
000014f8 00             7060 	.byte	0
000014f9 00             7061 	.byte	0
000014fa 00             7062 	.byte	0
000014fb 01             7063 	.byte	1
000014fc 01             7064 	.byte	1
000014fd 00             7065 	.byte	0
000014fe 01             7066 	.byte	1
                        7067 
                        7068 	.section	.debug_frame
                        7069 .LDW_4dbe518:
000000f4 00000000*      7070 	.word	.LDW_unq_c-.LDW_unq_b
                        7071 .LDW_unq_b:
000000f8 00000000*      7072 	.word	.LDW_4d1b500
000000fc 00000000*      7073 	.word	_ucGetReDataTemperaturePD
00000100 00000000*      7074 	.word	___ghs_eofn_ucGetReDataTemperaturePD-_ucGetReDataTemperaturePD
00000104 01             7075 	.byte	1
00000105 00000000*      7076 	.word	.LDW12
00000109 00             7077 	.byte	0
0000010a 00             7078 	.byte	0
0000010b 00             7079 	.byte	0
                        7080 .LDW_unq_c:
                        7081 	.section	.debug_line
00000551 000502         7082 	.byte	0,5,2
00000554 00000000*      7083 	.word	_ucGetReDataTemperaturePD
00000558 03             7084 	.byte	3
00000559 c001           7085 	.byte	192,1
0000055b 02             7086 	.byte	2
0000055c 00             7087 	.byte	0
0000055d 01             7088 	.byte	1
0000055e 06             7089 	.byte	6
0000055f 000502         7090 	.byte	0,5,2
00000562 00000000*      7091 	.word	.LDWlin12
00000566 0d             7092 	.byte	13
00000567 000502         7093 	.byte	0,5,2
0000056a 00000000*      7094 	.word	.LDWlin13
0000056e 03             7095 	.byte	3
0000056f 07             7096 	.byte	7
00000570 02             7097 	.byte	2
00000571 00             7098 	.byte	0
00000572 01             7099 	.byte	1
00000573 0b             7100 	.byte	11
00000574 000502         7101 	.byte	0,5,2
00000577 00000000*      7102 	.word	.LDWlin14
0000057b 0b             7103 	.byte	11
0000057c 0b             7104 	.byte	11
0000057d 0b             7105 	.byte	11
0000057e 13             7106 	.byte	19
0000057f 02             7107 	.byte	2
00000580 00             7108 	.byte	0
00000581 0b             7109 	.byte	11
00000582 02             7110 	.byte	2
00000583 02             7111 	.byte	2

                                                                      Page 128
                                                              C:\Users\nhuliyap\AppData\Local\Temp\gh_00008uc1.s
00000584 000101         7112 	.byte	0,1,1
                        7113 	.section	.debug_info
                        7114 .LDW_48ea8c0:
000014ff 1d             7115 	.byte	29
00001500 00000000*      7116 	.word	.LDW02
00001504 00000000*      7117 	.word	.LDW12
                        7118 
                        7119 .LDW_48ea018:
00001508 04             7120 	.byte	4
00001509 756348656c70   7121 	.strz	"ucHelp"
0000150f 00 
00001510 c201           7122 	.byte	194,1
00001512 09             7123 	.byte	9
00001513 01             7124 	.byte	1
00001514 00000000*      7125 	.word	.LDW_48ee8e8
00001518 00             7126 	.byte	0
00001519 00             7127 	.byte	0
0000151a 015a           7128 	.byte	1,90
                        7129 
0000151c 00             7130 	.byte	0
                        7131 
0000151d 00             7132 	.byte	0
                        7133 
                        7134 .LDW_48ea070:
0000151e 14             7135 	.byte	20
0000151f 756347657452   7136 	.strz	"ucGetReDataRemainingLifeTimePD"
00001525 654461746152 
0000152b 656d61696e69 
00001531 6e674c696665 
00001537 54696d655044 
0000153d 00 
0000153e d401           7137 	.byte	212,1
00001540 07             7138 	.byte	7
00001541 01             7139 	.byte	1
00001542 00000000*      7140 	.word	.LDW_48ee8e8
00001546 00000000*      7141 	.word	_ucGetReDataRemainingLifeTimePD
0000154a 00000000*      7142 	.word	___ghs_eofn_ucGetReDataRemainingLifeTimePD
0000154e 0153           7143 	.byte	1,83
00001550 02             7144 	.byte	2
00001551 00             7145 	.byte	0
00001552 02             7146 	.byte	2
00001553 00             7147 	.byte	0
00001554 00             7148 	.byte	0
00001555 00             7149 	.byte	0
00001556 00             7150 	.byte	0
00001557 01             7151 	.byte	1
00001558 01             7152 	.byte	1
00001559 00             7153 	.byte	0
0000155a 01             7154 	.byte	1
                        7155 
                        7156 	.section	.debug_frame
                        7157 .LDW_4dbe5d8:
0000010c 00000000*      7158 	.word	.LDW_unq_e-.LDW_unq_d
                        7159 .LDW_unq_d:
00000110 00000000*      7160 	.word	.LDW_4d1b500
00000114 00000000*      7161 	.word	_ucGetReDataRemainingLifeTimePD
00000118 00000000*      7162 	.word	___ghs_eofn_ucGetReDataRemainingLifeTimePD-_ucGetReDataRemainingLifeTimePD
0000011c 01             7163 	.byte	1
0000011d 00000000*      7164 	.word	.LDW32
00000121 00             7165 	.byte	0
00000122 00             7166 	.byte	0

                                                                      Page 129
                                                              C:\Users\nhuliyap\AppData\Local\Temp\gh_00008uc1.s
00000123 00             7167 	.byte	0
                        7168 .LDW_unq_e:
                        7169 	.section	.debug_line
00000587 000502         7170 	.byte	0,5,2
0000058a 00000000*      7171 	.word	_ucGetReDataRemainingLifeTimePD
0000058e 03             7172 	.byte	3
0000058f d401           7173 	.byte	212,1
00000591 02             7174 	.byte	2
00000592 00             7175 	.byte	0
00000593 01             7176 	.byte	1
00000594 06             7177 	.byte	6
00000595 000502         7178 	.byte	0,5,2
00000598 00000000*      7179 	.word	.LDWlin15
0000059c 0d             7180 	.byte	13
0000059d 000502         7181 	.byte	0,5,2
000005a0 00000000*      7182 	.word	.LDWlin16
000005a4 03             7183 	.byte	3
000005a5 04             7184 	.byte	4
000005a6 02             7185 	.byte	2
000005a7 00             7186 	.byte	0
000005a8 01             7187 	.byte	1
000005a9 0b             7188 	.byte	11
000005aa 000502         7189 	.byte	0,5,2
000005ad 00000000*      7190 	.word	.LDWlin17
000005b1 0b             7191 	.byte	11
000005b2 0b             7192 	.byte	11
000005b3 0b             7193 	.byte	11
000005b4 13             7194 	.byte	19
000005b5 02             7195 	.byte	2
000005b6 00             7196 	.byte	0
000005b7 0b             7197 	.byte	11
000005b8 02             7198 	.byte	2
000005b9 02             7199 	.byte	2
000005ba 000101         7200 	.byte	0,1,1
                        7201 	.section	.debug_info
                        7202 .LDW_48ea380:
0000155b 1d             7203 	.byte	29
0000155c 00000000*      7204 	.word	.LDW22
00001560 00000000*      7205 	.word	.LDW32
                        7206 
                        7207 .LDW_48ea108:
00001564 04             7208 	.byte	4
00001565 756348656c70   7209 	.strz	"ucHelp"
0000156b 00 
0000156c d601           7210 	.byte	214,1
0000156e 09             7211 	.byte	9
0000156f 01             7212 	.byte	1
00001570 00000000*      7213 	.word	.LDW_48ee8e8
00001574 00             7214 	.byte	0
00001575 00             7215 	.byte	0
00001576 015a           7216 	.byte	1,90
                        7217 
00001578 00             7218 	.byte	0
                        7219 
00001579 00             7220 	.byte	0
                        7221 
                        7222 .LDW_48ea160:
0000157a 14             7223 	.byte	20
0000157b 756347657452   7224 	.strz	"ucGetReDataStatePD"
00001581 654461746153 
00001587 746174655044 

                                                                      Page 130
                                                              C:\Users\nhuliyap\AppData\Local\Temp\gh_00008uc1.s
0000158d 00 
0000158e e501           7225 	.byte	229,1
00001590 07             7226 	.byte	7
00001591 01             7227 	.byte	1
00001592 00000000*      7228 	.word	.LDW_48ee8e8
00001596 00000000*      7229 	.word	_ucGetReDataStatePD
0000159a 00000000*      7230 	.word	___ghs_eofn_ucGetReDataStatePD
0000159e 0153           7231 	.byte	1,83
000015a0 02             7232 	.byte	2
000015a1 00             7233 	.byte	0
000015a2 02             7234 	.byte	2
000015a3 00             7235 	.byte	0
000015a4 00             7236 	.byte	0
000015a5 00             7237 	.byte	0
000015a6 00             7238 	.byte	0
000015a7 01             7239 	.byte	1
000015a8 01             7240 	.byte	1
000015a9 00             7241 	.byte	0
000015aa 01             7242 	.byte	1
                        7243 
                        7244 	.section	.debug_frame
                        7245 .LDW_4dbe958:
00000124 00000000*      7246 	.word	.LDW_unq_10-.LDW_unq_f
                        7247 .LDW_unq_f:
00000128 00000000*      7248 	.word	.LDW_4d1b500
0000012c 00000000*      7249 	.word	_ucGetReDataStatePD
00000130 00000000*      7250 	.word	___ghs_eofn_ucGetReDataStatePD-_ucGetReDataStatePD
00000134 01             7251 	.byte	1
00000135 00000000*      7252 	.word	.LDW52
00000139 00             7253 	.byte	0
0000013a 00             7254 	.byte	0
0000013b 00             7255 	.byte	0
                        7256 .LDW_unq_10:
                        7257 	.section	.debug_line
000005bd 000502         7258 	.byte	0,5,2
000005c0 00000000*      7259 	.word	_ucGetReDataStatePD
000005c4 03             7260 	.byte	3
000005c5 e501           7261 	.byte	229,1
000005c7 02             7262 	.byte	2
000005c8 00             7263 	.byte	0
000005c9 01             7264 	.byte	1
000005ca 06             7265 	.byte	6
000005cb 000502         7266 	.byte	0,5,2
000005ce 00000000*      7267 	.word	.LDWlin18
000005d2 0d             7268 	.byte	13
000005d3 1b             7269 	.byte	27
000005d4 0b             7270 	.byte	11
000005d5 000502         7271 	.byte	0,5,2
000005d8 00000000*      7272 	.word	.LDWlin19
000005dc 0b             7273 	.byte	11
000005dd 0b             7274 	.byte	11
000005de 02             7275 	.byte	2
000005df 00             7276 	.byte	0
000005e0 1b             7277 	.byte	27
000005e1 0b             7278 	.byte	11
000005e2 000502         7279 	.byte	0,5,2
000005e5 00000000*      7280 	.word	.LDWlin20
000005e9 0b             7281 	.byte	11
000005ea 0b             7282 	.byte	11
000005eb 02             7283 	.byte	2
000005ec 00             7284 	.byte	0

                                                                      Page 131
                                                              C:\Users\nhuliyap\AppData\Local\Temp\gh_00008uc1.s
000005ed 000502         7285 	.byte	0,5,2
000005f0 00000000*      7286 	.word	.LDWlin21
000005f4 03             7287 	.byte	3
000005f5 04             7288 	.byte	4
000005f6 02             7289 	.byte	2
000005f7 00             7290 	.byte	0
000005f8 01             7291 	.byte	1
000005f9 0b             7292 	.byte	11
000005fa 1b             7293 	.byte	27
000005fb 0b             7294 	.byte	11
000005fc 000502         7295 	.byte	0,5,2
000005ff 00000000*      7296 	.word	.LDWlin22
00000603 0b             7297 	.byte	11
00000604 0b             7298 	.byte	11
00000605 0b             7299 	.byte	11
00000606 000502         7300 	.byte	0,5,2
00000609 00000000*      7301 	.word	.LDWlin23
0000060d 03             7302 	.byte	3
0000060e 0a             7303 	.byte	10
0000060f 02             7304 	.byte	2
00000610 00             7305 	.byte	0
00000611 01             7306 	.byte	1
00000612 0c             7307 	.byte	12
00000613 0c             7308 	.byte	12
00000614 13             7309 	.byte	19
00000615 000502         7310 	.byte	0,5,2
00000618 00000000*      7311 	.word	.LDWlin24
0000061c 03             7312 	.byte	3
0000061d 76             7313 	.byte	118
0000061e 02             7314 	.byte	2
0000061f 00             7315 	.byte	0
00000620 01             7316 	.byte	1
00000621 0d             7317 	.byte	13
00000622 0b             7318 	.byte	11
00000623 13             7319 	.byte	19
00000624 000502         7320 	.byte	0,5,2
00000627 00000000*      7321 	.word	.LDWlin25
0000062b 03             7322 	.byte	3
0000062c 79             7323 	.byte	121
0000062d 02             7324 	.byte	2
0000062e 00             7325 	.byte	0
0000062f 01             7326 	.byte	1
00000630 0b             7327 	.byte	11
00000631 03             7328 	.byte	3
00000632 0b             7329 	.byte	11
00000633 02             7330 	.byte	2
00000634 02             7331 	.byte	2
00000635 01             7332 	.byte	1
00000636 0c             7333 	.byte	12
00000637 0c             7334 	.byte	12
00000638 000502         7335 	.byte	0,5,2
0000063b 00000000*      7336 	.word	.LDWlin26
0000063f 0b             7337 	.byte	11
00000640 0b             7338 	.byte	11
00000641 000502         7339 	.byte	0,5,2
00000644 00000000*      7340 	.word	.LDWlin27
00000648 0b             7341 	.byte	11
00000649 02             7342 	.byte	2
0000064a 00             7343 	.byte	0
0000064b 0c             7344 	.byte	12
0000064c 02             7345 	.byte	2

                                                                      Page 132
                                                              C:\Users\nhuliyap\AppData\Local\Temp\gh_00008uc1.s
0000064d 00             7346 	.byte	0
0000064e 0b             7347 	.byte	11
0000064f 0b             7348 	.byte	11
00000650 0b             7349 	.byte	11
00000651 000502         7350 	.byte	0,5,2
00000654 00000000*      7351 	.word	.LDWlin28
00000658 0b             7352 	.byte	11
00000659 02             7353 	.byte	2
0000065a 00             7354 	.byte	0
0000065b 02             7355 	.byte	2
0000065c 00             7356 	.byte	0
0000065d 02             7357 	.byte	2
0000065e 00             7358 	.byte	0
0000065f 02             7359 	.byte	2
00000660 00             7360 	.byte	0
00000661 02             7361 	.byte	2
00000662 00             7362 	.byte	0
00000663 0b             7363 	.byte	11
00000664 02             7364 	.byte	2
00000665 02             7365 	.byte	2
00000666 000101         7366 	.byte	0,1,1
                        7367 	.section	.debug_info
                        7368 .LDW_48ea860:
000015ab 1d             7369 	.byte	29
000015ac 00000000*      7370 	.word	.LDW42
000015b0 00000000*      7371 	.word	.LDW52
                        7372 
                        7373 .LDW_48ea1f8:
000015b4 04             7374 	.byte	4
000015b5 756348656c70   7375 	.strz	"ucHelp"
000015bb 00 
000015bc e701           7376 	.byte	231,1
000015be 09             7377 	.byte	9
000015bf 01             7378 	.byte	1
000015c0 00000000*      7379 	.word	.LDW_48ee8e8
000015c4 00             7380 	.byte	0
000015c5 00             7381 	.byte	0
000015c6 015a           7382 	.byte	1,90
                        7383 
000015c8 00             7384 	.byte	0
                        7385 
000015c9 00             7386 	.byte	0
                        7387 
                        7388 .LDW_48ea250:
000015ca 14             7389 	.byte	20
000015cb 756347657452   7390 	.strz	"ucGetReDataRssiAvgPD"
000015d1 654461746152 
000015d7 737369417667 
000015dd 504400 
000015e0 b702           7391 	.byte	183,2
000015e2 07             7392 	.byte	7
000015e3 01             7393 	.byte	1
000015e4 00000000*      7394 	.word	.LDW_48ee8e8
000015e8 00000000*      7395 	.word	_ucGetReDataRssiAvgPD
000015ec 00000000*      7396 	.word	___ghs_eofn_ucGetReDataRssiAvgPD
000015f0 0153           7397 	.byte	1,83
000015f2 02             7398 	.byte	2
000015f3 00             7399 	.byte	0
000015f4 02             7400 	.byte	2
000015f5 00             7401 	.byte	0
000015f6 00             7402 	.byte	0

                                                                      Page 133
                                                              C:\Users\nhuliyap\AppData\Local\Temp\gh_00008uc1.s
000015f7 00             7403 	.byte	0
000015f8 00             7404 	.byte	0
000015f9 01             7405 	.byte	1
000015fa 01             7406 	.byte	1
000015fb 00             7407 	.byte	0
000015fc 01             7408 	.byte	1
                        7409 
                        7410 	.section	.debug_frame
                        7411 .LDW_4dbe498:
0000013c 00000000*      7412 	.word	.LDW_unq_12-.LDW_unq_11
                        7413 .LDW_unq_11:
00000140 00000000*      7414 	.word	.LDW_4d1b500
00000144 00000000*      7415 	.word	_ucGetReDataRssiAvgPD
00000148 00000000*      7416 	.word	___ghs_eofn_ucGetReDataRssiAvgPD-_ucGetReDataRssiAvgPD
0000014c 01             7417 	.byte	1
0000014d 00000000*      7418 	.word	.LDW72
00000151 00             7419 	.byte	0
00000152 00             7420 	.byte	0
00000153 00             7421 	.byte	0
                        7422 .LDW_unq_12:
                        7423 	.section	.debug_line
00000669 000502         7424 	.byte	0,5,2
0000066c 00000000*      7425 	.word	_ucGetReDataRssiAvgPD
00000670 06             7426 	.byte	6
00000671 03             7427 	.byte	3
00000672 b802           7428 	.byte	184,2
00000674 02             7429 	.byte	2
00000675 00             7430 	.byte	0
00000676 01             7431 	.byte	1
00000677 06             7432 	.byte	6
00000678 000502         7433 	.byte	0,5,2
0000067b 00000000*      7434 	.word	.LDWlin29
0000067f 02             7435 	.byte	2
00000680 00             7436 	.byte	0
00000681 02             7437 	.byte	2
00000682 02             7438 	.byte	2
00000683 000101         7439 	.byte	0,1,1
                        7440 	.section	.debug_info
                        7441 .LDW_48ea3b0:
000015fd 1d             7442 	.byte	29
000015fe 00000000*      7443 	.word	.LDW62
00001602 00000000*      7444 	.word	.LDW72
                        7445 
00001606 00             7446 	.byte	0
                        7447 
00001607 00             7448 	.byte	0
                        7449 
                        7450 .LDW_4d742b8:
00001608 14             7451 	.byte	20
00001609 756347657452   7452 	.strz	"ucGetReDataTelTypePD"
0000160f 654461746154 
00001615 656c54797065 
0000161b 504400 
0000161e bc02           7453 	.byte	188,2
00001620 07             7454 	.byte	7
00001621 01             7455 	.byte	1
00001622 00000000*      7456 	.word	.LDW_48ee8e8
00001626 00000000*      7457 	.word	_ucGetReDataTelTypePD
0000162a 00000000*      7458 	.word	___ghs_eofn_ucGetReDataTelTypePD
0000162e 0153           7459 	.byte	1,83
00001630 02             7460 	.byte	2

                                                                      Page 134
                                                              C:\Users\nhuliyap\AppData\Local\Temp\gh_00008uc1.s
00001631 00             7461 	.byte	0
00001632 02             7462 	.byte	2
00001633 00             7463 	.byte	0
00001634 00             7464 	.byte	0
00001635 00             7465 	.byte	0
00001636 00             7466 	.byte	0
00001637 01             7467 	.byte	1
00001638 01             7468 	.byte	1
00001639 00             7469 	.byte	0
0000163a 01             7470 	.byte	1
                        7471 
                        7472 	.section	.debug_frame
                        7473 .LDW_4dbe9d8:
00000154 00000000*      7474 	.word	.LDW_unq_14-.LDW_unq_13
                        7475 .LDW_unq_13:
00000158 00000000*      7476 	.word	.LDW_4d1b500
0000015c 00000000*      7477 	.word	_ucGetReDataTelTypePD
00000160 00000000*      7478 	.word	___ghs_eofn_ucGetReDataTelTypePD-_ucGetReDataTelTypePD
00000164 01             7479 	.byte	1
00000165 00000000*      7480 	.word	.LDW92
00000169 00             7481 	.byte	0
0000016a 00             7482 	.byte	0
0000016b 00             7483 	.byte	0
                        7484 .LDW_unq_14:
                        7485 	.section	.debug_line
00000686 000502         7486 	.byte	0,5,2
00000689 00000000*      7487 	.word	_ucGetReDataTelTypePD
0000068d 06             7488 	.byte	6
0000068e 03             7489 	.byte	3
0000068f bc02           7490 	.byte	188,2
00000691 02             7491 	.byte	2
00000692 00             7492 	.byte	0
00000693 01             7493 	.byte	1
00000694 06             7494 	.byte	6
00000695 000502         7495 	.byte	0,5,2
00000698 00000000*      7496 	.word	.LDWlin30
0000069c 02             7497 	.byte	2
0000069d 00             7498 	.byte	0
0000069e 02             7499 	.byte	2
0000069f 02             7500 	.byte	2
000006a0 000101         7501 	.byte	0,1,1
                        7502 	.section	.debug_info
                        7503 .LDW_48ea890:
0000163b 1d             7504 	.byte	29
0000163c 00000000*      7505 	.word	.LDW82
00001640 00000000*      7506 	.word	.LDW92
                        7507 
00001644 00             7508 	.byte	0
                        7509 
00001645 00             7510 	.byte	0
                        7511 
                        7512 .LDW_4d74b58:
00001646 14             7513 	.byte	20
00001647 756347657452   7514 	.strz	"ucGetReDataTGCounter"
0000164d 654461746154 
00001653 47436f756e74 
00001659 657200 
0000165c c702           7515 	.byte	199,2
0000165e 07             7516 	.byte	7
0000165f 01             7517 	.byte	1
00001660 00000000*      7518 	.word	.LDW_48ee8e8

                                                                      Page 135
                                                              C:\Users\nhuliyap\AppData\Local\Temp\gh_00008uc1.s
00001664 00000000*      7519 	.word	_ucGetReDataTGCounter
00001668 00000000*      7520 	.word	___ghs_eofn_ucGetReDataTGCounter
0000166c 0153           7521 	.byte	1,83
0000166e 02             7522 	.byte	2
0000166f 00             7523 	.byte	0
00001670 02             7524 	.byte	2
00001671 00             7525 	.byte	0
00001672 00             7526 	.byte	0
00001673 00             7527 	.byte	0
00001674 00             7528 	.byte	0
00001675 01             7529 	.byte	1
00001676 01             7530 	.byte	1
00001677 00             7531 	.byte	0
00001678 01             7532 	.byte	1
                        7533 
                        7534 	.section	.debug_frame
                        7535 .LDW_4dbea98:
0000016c 00000000*      7536 	.word	.LDW_unq_16-.LDW_unq_15
                        7537 .LDW_unq_15:
00000170 00000000*      7538 	.word	.LDW_4d1b500
00000174 00000000*      7539 	.word	_ucGetReDataTGCounter
00000178 00000000*      7540 	.word	___ghs_eofn_ucGetReDataTGCounter-_ucGetReDataTGCounter
0000017c 01             7541 	.byte	1
0000017d 00000000*      7542 	.word	.LDW13
00000181 00             7543 	.byte	0
00000182 00             7544 	.byte	0
00000183 00             7545 	.byte	0
                        7546 .LDW_unq_16:
                        7547 	.section	.debug_line
000006a3 000502         7548 	.byte	0,5,2
000006a6 00000000*      7549 	.word	_ucGetReDataTGCounter
000006aa 03             7550 	.byte	3
000006ab c602           7551 	.byte	198,2
000006ad 02             7552 	.byte	2
000006ae 00             7553 	.byte	0
000006af 01             7554 	.byte	1
000006b0 06             7555 	.byte	6
000006b1 000502         7556 	.byte	0,5,2
000006b4 00000000*      7557 	.word	.LDWlin31
000006b8 0d             7558 	.byte	13
000006b9 000502         7559 	.byte	0,5,2
000006bc 00000000*      7560 	.word	.LDWlin32
000006c0 03             7561 	.byte	3
000006c1 04             7562 	.byte	4
000006c2 02             7563 	.byte	2
000006c3 00             7564 	.byte	0
000006c4 01             7565 	.byte	1
000006c5 0b             7566 	.byte	11
000006c6 000502         7567 	.byte	0,5,2
000006c9 00000000*      7568 	.word	.LDWlin33
000006cd 0b             7569 	.byte	11
000006ce 0b             7570 	.byte	11
000006cf 0b             7571 	.byte	11
000006d0 13             7572 	.byte	19
000006d1 02             7573 	.byte	2
000006d2 00             7574 	.byte	0
000006d3 0c             7575 	.byte	12
000006d4 02             7576 	.byte	2
000006d5 02             7577 	.byte	2
000006d6 000101         7578 	.byte	0,1,1
                        7579 	.section	.debug_info

                                                                      Page 136
                                                              C:\Users\nhuliyap\AppData\Local\Temp\gh_00008uc1.s
                        7580 .LDW_48ea8f0:
00001679 1d             7581 	.byte	29
0000167a 00000000*      7582 	.word	.LDW03
0000167e 00000000*      7583 	.word	.LDW13
                        7584 
                        7585 .LDW_48ea2e8:
00001682 04             7586 	.byte	4
00001683 756348656c70   7587 	.strz	"ucHelp"
00001689 00 
0000168a c802           7588 	.byte	200,2
0000168c 09             7589 	.byte	9
0000168d 01             7590 	.byte	1
0000168e 00000000*      7591 	.word	.LDW_48ee8e8
00001692 00             7592 	.byte	0
00001693 00             7593 	.byte	0
00001694 015a           7594 	.byte	1,90
                        7595 
00001696 00             7596 	.byte	0
                        7597 
00001697 00             7598 	.byte	0
                        7599 
                        7600 .LDW_4d74ca0:
00001698 14             7601 	.byte	20
00001699 704765744375   7602 	.strz	"pGetCurTel"
0000169f 7254656c00 
000016a4 d802           7603 	.byte	216,2
000016a6 0a             7604 	.byte	10
000016a7 01             7605 	.byte	1
000016a8 00000000*      7606 	.word	.LDW_4d74930
000016ac 00000000*      7607 	.word	_pGetCurTel
000016b0 00000000*      7608 	.word	___ghs_eofn_pGetCurTel
000016b4 0153           7609 	.byte	1,83
000016b6 02             7610 	.byte	2
000016b7 00             7611 	.byte	0
000016b8 02             7612 	.byte	2
000016b9 00             7613 	.byte	0
000016ba 00             7614 	.byte	0
000016bb 00             7615 	.byte	0
000016bc 00             7616 	.byte	0
000016bd 01             7617 	.byte	1
000016be 01             7618 	.byte	1
000016bf 00             7619 	.byte	0
000016c0 01             7620 	.byte	1
                        7621 
                        7622 	.section	.debug_frame
                        7623 .LDW_4dbe658:
00000184 00000000*      7624 	.word	.LDW_unq_18-.LDW_unq_17
                        7625 .LDW_unq_17:
00000188 00000000*      7626 	.word	.LDW_4d1b500
0000018c 00000000*      7627 	.word	_pGetCurTel
00000190 00000000*      7628 	.word	___ghs_eofn_pGetCurTel-_pGetCurTel
00000194 01             7629 	.byte	1
00000195 00000000*      7630 	.word	.LDW33
00000199 00             7631 	.byte	0
0000019a 00             7632 	.byte	0
0000019b 00             7633 	.byte	0
                        7634 .LDW_unq_18:
                        7635 	.section	.debug_line
000006d9 000502         7636 	.byte	0,5,2
000006dc 00000000*      7637 	.word	_pGetCurTel
000006e0 06             7638 	.byte	6

                                                                      Page 137
                                                              C:\Users\nhuliyap\AppData\Local\Temp\gh_00008uc1.s
000006e1 03             7639 	.byte	3
000006e2 d802           7640 	.byte	216,2
000006e4 02             7641 	.byte	2
000006e5 00             7642 	.byte	0
000006e6 01             7643 	.byte	1
000006e7 06             7644 	.byte	6
000006e8 000502         7645 	.byte	0,5,2
000006eb 00000000*      7646 	.word	.LDWlin34
000006ef 02             7647 	.byte	2
000006f0 00             7648 	.byte	0
000006f1 02             7649 	.byte	2
000006f2 02             7650 	.byte	2
000006f3 000101         7651 	.byte	0,1,1
                        7652 	.section	.debug_info
                        7653 .LDW_48ea920:
000016c1 1d             7654 	.byte	29
000016c2 00000000*      7655 	.word	.LDW23
000016c6 00000000*      7656 	.word	.LDW33
                        7657 
000016ca 00             7658 	.byte	0
                        7659 
000016cb 00             7660 	.byte	0
                        7661 
                        7662 .LDW_4d74d38:
000016cc 14             7663 	.byte	20
000016cd 756c47657452   7664 	.strz	"ulGetReDataPreProcIdPD"
000016d3 654461746150 
000016d9 726550726f63 
000016df 4964504400 
000016e4 dc02           7665 	.byte	220,2
000016e6 08             7666 	.byte	8
000016e7 01             7667 	.byte	1
000016e8 00000000*      7668 	.word	.LDW_48eea30
000016ec 00000000*      7669 	.word	_ulGetReDataPreProcIdPD
000016f0 00000000*      7670 	.word	___ghs_eofn_ulGetReDataPreProcIdPD
000016f4 0153           7671 	.byte	1,83
000016f6 02             7672 	.byte	2
000016f7 00             7673 	.byte	0
000016f8 02             7674 	.byte	2
000016f9 00             7675 	.byte	0
000016fa 00             7676 	.byte	0
000016fb 00             7677 	.byte	0
000016fc 00             7678 	.byte	0
000016fd 01             7679 	.byte	1
000016fe 01             7680 	.byte	1
000016ff 00             7681 	.byte	0
00001700 01             7682 	.byte	1
                        7683 
                        7684 	.section	.debug_frame
                        7685 .LDW_4dbea18:
0000019c 00000000*      7686 	.word	.LDW_unq_1a-.LDW_unq_19
                        7687 .LDW_unq_19:
000001a0 00000000*      7688 	.word	.LDW_4d1b500
000001a4 00000000*      7689 	.word	_ulGetReDataPreProcIdPD
000001a8 00000000*      7690 	.word	___ghs_eofn_ulGetReDataPreProcIdPD-_ulGetReDataPreProcIdPD
000001ac 01             7691 	.byte	1
000001ad 00000000*      7692 	.word	.LDW53
000001b1 00             7693 	.byte	0
000001b2 00             7694 	.byte	0
000001b3 00             7695 	.byte	0
                        7696 .LDW_unq_1a:

                                                                      Page 138
                                                              C:\Users\nhuliyap\AppData\Local\Temp\gh_00008uc1.s
                        7697 	.section	.debug_line
000006f6 000502         7698 	.byte	0,5,2
000006f9 00000000*      7699 	.word	_ulGetReDataPreProcIdPD
000006fd 03             7700 	.byte	3
000006fe dc02           7701 	.byte	220,2
00000700 02             7702 	.byte	2
00000701 00             7703 	.byte	0
00000702 01             7704 	.byte	1
00000703 06             7705 	.byte	6
00000704 000502         7706 	.byte	0,5,2
00000707 00000000*      7707 	.word	.LDWlin35
0000070b 0b             7708 	.byte	11
0000070c 06             7709 	.byte	6
0000070d 02             7710 	.byte	2
0000070e 04             7711 	.byte	4
0000070f 02             7712 	.byte	2
00000710 02             7713 	.byte	2
00000711 000101         7714 	.byte	0,1,1
                        7715 	.section	.debug_info
                        7716 .LDW_48ea3e0:
00001701 1d             7717 	.byte	29
00001702 00000000*      7718 	.word	.LDW43
00001706 00000000*      7719 	.word	.LDW53
                        7720 
0000170a 00             7721 	.byte	0
                        7722 
0000170b 00             7723 	.byte	0
                        7724 
                        7725 .LDW_4d74dd0:
0000170c 13             7726 	.byte	19
0000170d 507574526544   7727 	.strz	"PutReDataPreProcIdPD"
00001713 617461507265 
00001719 50726f634964 
0000171f 504400 
00001722 e102           7728 	.byte	225,2
00001724 06             7729 	.byte	6
00001725 01             7730 	.byte	1
00001726 00000000*      7731 	.word	_PutReDataPreProcIdPD
0000172a 00000000*      7732 	.word	___ghs_eofn_PutReDataPreProcIdPD
0000172e 0153           7733 	.byte	1,83
00001730 02             7734 	.byte	2
00001731 00             7735 	.byte	0
00001732 02             7736 	.byte	2
00001733 00             7737 	.byte	0
00001734 00             7738 	.byte	0
00001735 00             7739 	.byte	0
00001736 00             7740 	.byte	0
00001737 01             7741 	.byte	1
00001738 01             7742 	.byte	1
00001739 00             7743 	.byte	0
0000173a 01             7744 	.byte	1
                        7745 
                        7746 	.section	.debug_frame
                        7747 .LDW_4dbe598:
000001b4 00000000*      7748 	.word	.LDW_unq_1c-.LDW_unq_1b
                        7749 .LDW_unq_1b:
000001b8 00000000*      7750 	.word	.LDW_4d1b500
000001bc 00000000*      7751 	.word	_PutReDataPreProcIdPD
000001c0 00000000*      7752 	.word	___ghs_eofn_PutReDataPreProcIdPD-_PutReDataPreProcIdPD
000001c4 01             7753 	.byte	1
000001c5 00000000*      7754 	.word	.LDW73

                                                                      Page 139
                                                              C:\Users\nhuliyap\AppData\Local\Temp\gh_00008uc1.s
000001c9 00             7755 	.byte	0
000001ca 00             7756 	.byte	0
000001cb 00             7757 	.byte	0
                        7758 .LDW_unq_1c:
                        7759 	.section	.debug_line
00000714 000502         7760 	.byte	0,5,2
00000717 00000000*      7761 	.word	_PutReDataPreProcIdPD
0000071b 03             7762 	.byte	3
0000071c e102           7763 	.byte	225,2
0000071e 02             7764 	.byte	2
0000071f 00             7765 	.byte	0
00000720 01             7766 	.byte	1
00000721 06             7767 	.byte	6
00000722 000502         7768 	.byte	0,5,2
00000725 00000000*      7769 	.word	.LDWlin36
00000729 0b             7770 	.byte	11
0000072a 1b             7771 	.byte	27
0000072b 02             7772 	.byte	2
0000072c 02             7773 	.byte	2
0000072d 000101         7774 	.byte	0,1,1
                        7775 	.section	.debug_info
                        7776 .LDW_4d74e68:
0000173b 0f             7777 	.byte	15
0000173c 756c494400     7778 	.strz	"ulID"
00001741 e102           7779 	.byte	225,2
00001743 23             7780 	.byte	35
00001744 01             7781 	.byte	1
00001745 00000000*      7782 	.word	.LDW_48eea30
00001749 00             7783 	.byte	0
0000174a 0156           7784 	.byte	1,86
                        7785 
                        7786 	.section	.debug_abbrev
00000166 0f             7787 	.byte	15
00000167 05             7788 	.byte	5
00000168 00             7789 	.byte	0
00000169 0308           7790 	.byte	3,8
0000016b 3b0f           7791 	.byte	59,15
0000016d 390f           7792 	.byte	57,15
0000016f 3a0f           7793 	.byte	58,15
00000171 4910           7794 	.byte	73,16
00000173 4b0c           7795 	.byte	75,12
00000175 020a           7796 	.byte	2,10
00000177 0000           7797 	.byte	0,0
                        7798 
                        7799 	.section	.debug_info
                        7800 .LDW_48ea470:
0000174c 1d             7801 	.byte	29
0000174d 00000000*      7802 	.word	.LDW63
00001751 00000000*      7803 	.word	.LDW73
                        7804 
00001755 00             7805 	.byte	0
                        7806 
00001756 00             7807 	.byte	0
                        7808 
                        7809 .LDW_4d74ec0:
00001757 14             7810 	.byte	20
00001758 756347657452   7811 	.strz	"ucGetReDataPreProcPressurePD"
0000175e 654461746150 
00001764 726550726f63 
0000176a 507265737375 
00001770 7265504400 

                                                                      Page 140
                                                              C:\Users\nhuliyap\AppData\Local\Temp\gh_00008uc1.s
00001775 e602           7812 	.byte	230,2
00001777 07             7813 	.byte	7
00001778 01             7814 	.byte	1
00001779 00000000*      7815 	.word	.LDW_48ee8e8
0000177d 00000000*      7816 	.word	_ucGetReDataPreProcPressurePD
00001781 00000000*      7817 	.word	___ghs_eofn_ucGetReDataPreProcPressurePD
00001785 0153           7818 	.byte	1,83
00001787 02             7819 	.byte	2
00001788 00             7820 	.byte	0
00001789 02             7821 	.byte	2
0000178a 00             7822 	.byte	0
0000178b 00             7823 	.byte	0
0000178c 00             7824 	.byte	0
0000178d 00             7825 	.byte	0
0000178e 01             7826 	.byte	1
0000178f 01             7827 	.byte	1
00001790 00             7828 	.byte	0
00001791 01             7829 	.byte	1
                        7830 
                        7831 	.section	.debug_frame
                        7832 .LDW_4dbe358:
000001cc 00000000*      7833 	.word	.LDW_unq_1e-.LDW_unq_1d
                        7834 .LDW_unq_1d:
000001d0 00000000*      7835 	.word	.LDW_4d1b500
000001d4 00000000*      7836 	.word	_ucGetReDataPreProcPressurePD
000001d8 00000000*      7837 	.word	___ghs_eofn_ucGetReDataPreProcPressurePD-_ucGetReDataPreProcPressurePD
000001dc 01             7838 	.byte	1
000001dd 00000000*      7839 	.word	.LDW93
000001e1 00             7840 	.byte	0
000001e2 00             7841 	.byte	0
000001e3 00             7842 	.byte	0
                        7843 .LDW_unq_1e:
                        7844 	.section	.debug_line
00000730 000502         7845 	.byte	0,5,2
00000733 00000000*      7846 	.word	_ucGetReDataPreProcPressurePD
00000737 03             7847 	.byte	3
00000738 e602           7848 	.byte	230,2
0000073a 02             7849 	.byte	2
0000073b 00             7850 	.byte	0
0000073c 01             7851 	.byte	1
0000073d 06             7852 	.byte	6
0000073e 000502         7853 	.byte	0,5,2
00000741 00000000*      7854 	.word	.LDWlin37
00000745 0b             7855 	.byte	11
00000746 06             7856 	.byte	6
00000747 02             7857 	.byte	2
00000748 04             7858 	.byte	4
00000749 02             7859 	.byte	2
0000074a 02             7860 	.byte	2
0000074b 000101         7861 	.byte	0,1,1
                        7862 	.section	.debug_info
                        7863 .LDW_48ea4a0:
00001792 1d             7864 	.byte	29
00001793 00000000*      7865 	.word	.LDW83
00001797 00000000*      7866 	.word	.LDW93
                        7867 
0000179b 00             7868 	.byte	0
                        7869 
0000179c 00             7870 	.byte	0
                        7871 
                        7872 .LDW_4d74f58:

                                                                      Page 141
                                                              C:\Users\nhuliyap\AppData\Local\Temp\gh_00008uc1.s
0000179d 13             7873 	.byte	19
0000179e 507574526544   7874 	.strz	"PutReDataPreProcPressurePD"
000017a4 617461507265 
000017aa 50726f635072 
000017b0 657373757265 
000017b6 504400 
000017b9 eb02           7875 	.byte	235,2
000017bb 06             7876 	.byte	6
000017bc 01             7877 	.byte	1
000017bd 00000000*      7878 	.word	_PutReDataPreProcPressurePD
000017c1 00000000*      7879 	.word	___ghs_eofn_PutReDataPreProcPressurePD
000017c5 0153           7880 	.byte	1,83
000017c7 02             7881 	.byte	2
000017c8 00             7882 	.byte	0
000017c9 02             7883 	.byte	2
000017ca 00             7884 	.byte	0
000017cb 00             7885 	.byte	0
000017cc 00             7886 	.byte	0
000017cd 00             7887 	.byte	0
000017ce 01             7888 	.byte	1
000017cf 01             7889 	.byte	1
000017d0 00             7890 	.byte	0
000017d1 01             7891 	.byte	1
                        7892 
                        7893 	.section	.debug_frame
                        7894 .LDW_4dbe458:
000001e4 00000000*      7895 	.word	.LDW_unq_20-.LDW_unq_1f
                        7896 .LDW_unq_1f:
000001e8 00000000*      7897 	.word	.LDW_4d1b500
000001ec 00000000*      7898 	.word	_PutReDataPreProcPressurePD
000001f0 00000000*      7899 	.word	___ghs_eofn_PutReDataPreProcPressurePD-_PutReDataPreProcPressurePD
000001f4 01             7900 	.byte	1
000001f5 00000000*      7901 	.word	.LDW14
000001f9 00             7902 	.byte	0
000001fa 00             7903 	.byte	0
000001fb 00             7904 	.byte	0
                        7905 .LDW_unq_20:
                        7906 	.section	.debug_line
0000074e 000502         7907 	.byte	0,5,2
00000751 00000000*      7908 	.word	_PutReDataPreProcPressurePD
00000755 03             7909 	.byte	3
00000756 eb02           7910 	.byte	235,2
00000758 02             7911 	.byte	2
00000759 00             7912 	.byte	0
0000075a 01             7913 	.byte	1
0000075b 06             7914 	.byte	6
0000075c 000502         7915 	.byte	0,5,2
0000075f 00000000*      7916 	.word	.LDWlin38
00000763 0b             7917 	.byte	11
00000764 1b             7918 	.byte	27
00000765 02             7919 	.byte	2
00000766 02             7920 	.byte	2
00000767 000101         7921 	.byte	0,1,1
                        7922 	.section	.debug_info
                        7923 .LDW_4d74ff0:
000017d2 0f             7924 	.byte	15
000017d3 756350726573   7925 	.strz	"ucPressure"
000017d9 7375726500 
000017de eb02           7926 	.byte	235,2
000017e0 28             7927 	.byte	40
000017e1 01             7928 	.byte	1

                                                                      Page 142
                                                              C:\Users\nhuliyap\AppData\Local\Temp\gh_00008uc1.s
000017e2 00000000*      7929 	.word	.LDW_48ee8e8
000017e6 00             7930 	.byte	0
000017e7 0156           7931 	.byte	1,86
                        7932 
                        7933 .LDW_48ea530:
000017e9 1d             7934 	.byte	29
000017ea 00000000*      7935 	.word	.LDW04
000017ee 00000000*      7936 	.word	.LDW14
                        7937 
000017f2 00             7938 	.byte	0
                        7939 
000017f3 00             7940 	.byte	0
                        7941 
                        7942 .LDW_4d750a0:
000017f4 14             7943 	.byte	20
000017f5 736347657452   7944 	.strz	"scGetReDataPreProcTemperaturePD"
000017fb 654461746150 
00001801 726550726f63 
00001807 54656d706572 
0000180d 617475726550 
00001813 4400 
00001815 f002           7945 	.byte	240,2
00001817 07             7946 	.byte	7
00001818 01             7947 	.byte	1
00001819 00000000*      7948 	.word	.LDW_4d75048
0000181d 00000000*      7949 	.word	_scGetReDataPreProcTemperaturePD
00001821 00000000*      7950 	.word	___ghs_eofn_scGetReDataPreProcTemperaturePD
00001825 0153           7951 	.byte	1,83
00001827 02             7952 	.byte	2
00001828 00             7953 	.byte	0
00001829 02             7954 	.byte	2
0000182a 00             7955 	.byte	0
0000182b 00             7956 	.byte	0
0000182c 00             7957 	.byte	0
0000182d 00             7958 	.byte	0
0000182e 01             7959 	.byte	1
0000182f 01             7960 	.byte	1
00001830 00             7961 	.byte	0
00001831 01             7962 	.byte	1
                        7963 
                        7964 	.section	.debug_frame
                        7965 .LDW_4dbe698:
000001fc 00000000*      7966 	.word	.LDW_unq_22-.LDW_unq_21
                        7967 .LDW_unq_21:
00000200 00000000*      7968 	.word	.LDW_4d1b500
00000204 00000000*      7969 	.word	_scGetReDataPreProcTemperaturePD
00000208 00000000*      7970 	.word	___ghs_eofn_scGetReDataPreProcTemperaturePD-_scGetReDataPreProcTemperaturePD
0000020c 01             7971 	.byte	1
0000020d 00000000*      7972 	.word	.LDW34
00000211 00             7973 	.byte	0
00000212 00             7974 	.byte	0
00000213 00             7975 	.byte	0
                        7976 .LDW_unq_22:
                        7977 	.section	.debug_line
0000076a 000502         7978 	.byte	0,5,2
0000076d 00000000*      7979 	.word	_scGetReDataPreProcTemperaturePD
00000771 03             7980 	.byte	3
00000772 f002           7981 	.byte	240,2
00000774 02             7982 	.byte	2
00000775 00             7983 	.byte	0
00000776 01             7984 	.byte	1

                                                                      Page 143
                                                              C:\Users\nhuliyap\AppData\Local\Temp\gh_00008uc1.s
00000777 06             7985 	.byte	6
00000778 000502         7986 	.byte	0,5,2
0000077b 00000000*      7987 	.word	.LDWlin39
0000077f 0b             7988 	.byte	11
00000780 06             7989 	.byte	6
00000781 02             7990 	.byte	2
00000782 04             7991 	.byte	4
00000783 02             7992 	.byte	2
00000784 02             7993 	.byte	2
00000785 000101         7994 	.byte	0,1,1
                        7995 	.section	.debug_info
                        7996 .LDW_48ea980:
00001832 1d             7997 	.byte	29
00001833 00000000*      7998 	.word	.LDW24
00001837 00000000*      7999 	.word	.LDW34
                        8000 
0000183b 00             8001 	.byte	0
                        8002 
0000183c 00             8003 	.byte	0
                        8004 
                        8005 .LDW_4d75138:
0000183d 13             8006 	.byte	19
0000183e 507574526544   8007 	.strz	"PutReDataPreProcTemperaturePD"
00001844 617461507265 
0000184a 50726f635465 
00001850 6d7065726174 
00001856 757265504400 
0000185c f502           8008 	.byte	245,2
0000185e 06             8009 	.byte	6
0000185f 01             8010 	.byte	1
00001860 00000000*      8011 	.word	_PutReDataPreProcTemperaturePD
00001864 00000000*      8012 	.word	___ghs_eofn_PutReDataPreProcTemperaturePD
00001868 0153           8013 	.byte	1,83
0000186a 02             8014 	.byte	2
0000186b 00             8015 	.byte	0
0000186c 02             8016 	.byte	2
0000186d 00             8017 	.byte	0
0000186e 00             8018 	.byte	0
0000186f 00             8019 	.byte	0
00001870 00             8020 	.byte	0
00001871 01             8021 	.byte	1
00001872 01             8022 	.byte	1
00001873 00             8023 	.byte	0
00001874 01             8024 	.byte	1
                        8025 
                        8026 	.section	.debug_frame
                        8027 .LDW_4dbe7d8:
00000214 00000000*      8028 	.word	.LDW_unq_24-.LDW_unq_23
                        8029 .LDW_unq_23:
00000218 00000000*      8030 	.word	.LDW_4d1b500
0000021c 00000000*      8031 	.word	_PutReDataPreProcTemperaturePD
00000220 00000000*      8032 	.word	___ghs_eofn_PutReDataPreProcTemperaturePD-_PutReDataPreProcTemperaturePD
00000224 01             8033 	.byte	1
00000225 00000000*      8034 	.word	.LDW54
00000229 00             8035 	.byte	0
0000022a 00             8036 	.byte	0
0000022b 00             8037 	.byte	0
                        8038 .LDW_unq_24:
                        8039 	.section	.debug_line
00000788 000502         8040 	.byte	0,5,2
0000078b 00000000*      8041 	.word	_PutReDataPreProcTemperaturePD

                                                                      Page 144
                                                              C:\Users\nhuliyap\AppData\Local\Temp\gh_00008uc1.s
0000078f 03             8042 	.byte	3
00000790 f502           8043 	.byte	245,2
00000792 02             8044 	.byte	2
00000793 00             8045 	.byte	0
00000794 01             8046 	.byte	1
00000795 06             8047 	.byte	6
00000796 000502         8048 	.byte	0,5,2
00000799 00000000*      8049 	.word	.LDWlin40
0000079d 0b             8050 	.byte	11
0000079e 1b             8051 	.byte	27
0000079f 02             8052 	.byte	2
000007a0 02             8053 	.byte	2
000007a1 000101         8054 	.byte	0,1,1
                        8055 	.section	.debug_info
                        8056 .LDW_4d751d0:
00001875 0f             8057 	.byte	15
00001876 736354656d70   8058 	.strz	"scTemperature"
0000187c 657261747572 
00001882 6500 
00001884 f502           8059 	.byte	245,2
00001886 2b             8060 	.byte	43
00001887 01             8061 	.byte	1
00001888 00000000*      8062 	.word	.LDW_4d75048
0000188c 00             8063 	.byte	0
0000188d 0156           8064 	.byte	1,86
                        8065 
                        8066 .LDW_48ea9b0:
0000188f 1d             8067 	.byte	29
00001890 00000000*      8068 	.word	.LDW44
00001894 00000000*      8069 	.word	.LDW54
                        8070 
00001898 00             8071 	.byte	0
                        8072 
00001899 00             8073 	.byte	0
                        8074 
                        8075 .LDW_4d75a08:
0000189a 14             8076 	.byte	20
0000189b 756347657452   8077 	.strz	"ucGetReDataPreProcRemainingLifeTimePD"
000018a1 654461746150 
000018a7 726550726f63 
000018ad 52656d61696e 
000018b3 696e674c6966 
000018b9 6554696d6550 
000018bf 4400 
000018c1 fa02           8078 	.byte	250,2
000018c3 07             8079 	.byte	7
000018c4 01             8080 	.byte	1
000018c5 00000000*      8081 	.word	.LDW_48ee8e8
000018c9 00000000*      8082 	.word	_ucGetReDataPreProcRemainingLifeTimePD
000018cd 00000000*      8083 	.word	___ghs_eofn_ucGetReDataPreProcRemainingLifeTimePD
000018d1 0153           8084 	.byte	1,83
000018d3 02             8085 	.byte	2
000018d4 00             8086 	.byte	0
000018d5 02             8087 	.byte	2
000018d6 00             8088 	.byte	0
000018d7 00             8089 	.byte	0
000018d8 00             8090 	.byte	0
000018d9 00             8091 	.byte	0
000018da 01             8092 	.byte	1
000018db 01             8093 	.byte	1
000018dc 00             8094 	.byte	0

                                                                      Page 145
                                                              C:\Users\nhuliyap\AppData\Local\Temp\gh_00008uc1.s
000018dd 01             8095 	.byte	1
                        8096 
                        8097 	.section	.debug_frame
                        8098 .LDW_4dbea58:
0000022c 00000000*      8099 	.word	.LDW_unq_26-.LDW_unq_25
                        8100 .LDW_unq_25:
00000230 00000000*      8101 	.word	.LDW_4d1b500
00000234 00000000*      8102 	.word	_ucGetReDataPreProcRemainingLifeTimePD
00000238 00000000*      8103 	.word	___ghs_eofn_ucGetReDataPreProcRemainingLifeTimePD-_ucGetReDataPreProcRemainingLifeTimePD
0000023c 01             8104 	.byte	1
0000023d 00000000*      8105 	.word	.LDW74
00000241 00             8106 	.byte	0
00000242 00             8107 	.byte	0
00000243 00             8108 	.byte	0
                        8109 .LDW_unq_26:
                        8110 	.section	.debug_line
000007a4 000502         8111 	.byte	0,5,2
000007a7 00000000*      8112 	.word	_ucGetReDataPreProcRemainingLifeTimePD
000007ab 03             8113 	.byte	3
000007ac fa02           8114 	.byte	250,2
000007ae 02             8115 	.byte	2
000007af 00             8116 	.byte	0
000007b0 01             8117 	.byte	1
000007b1 06             8118 	.byte	6
000007b2 000502         8119 	.byte	0,5,2
000007b5 00000000*      8120 	.word	.LDWlin41
000007b9 0b             8121 	.byte	11
000007ba 06             8122 	.byte	6
000007bb 02             8123 	.byte	2
000007bc 04             8124 	.byte	4
000007bd 02             8125 	.byte	2
000007be 02             8126 	.byte	2
000007bf 000101         8127 	.byte	0,1,1
                        8128 	.section	.debug_info
                        8129 .LDW_48ea9e0:
000018de 1d             8130 	.byte	29
000018df 00000000*      8131 	.word	.LDW64
000018e3 00000000*      8132 	.word	.LDW74
                        8133 
000018e7 00             8134 	.byte	0
                        8135 
000018e8 00             8136 	.byte	0
                        8137 
                        8138 .LDW_4d755e0:
000018e9 13             8139 	.byte	19
000018ea 507574526544   8140 	.strz	"PutReDataPreProcRemainingLifeTimePD"
000018f0 617461507265 
000018f6 50726f635265 
000018fc 6d61696e696e 
00001902 674c69666554 
00001908 696d65504400 
0000190e ff02           8141 	.byte	255,2
00001910 06             8142 	.byte	6
00001911 01             8143 	.byte	1
00001912 00000000*      8144 	.word	_PutReDataPreProcRemainingLifeTimePD
00001916 00000000*      8145 	.word	___ghs_eofn_PutReDataPreProcRemainingLifeTimePD
0000191a 0153           8146 	.byte	1,83
0000191c 02             8147 	.byte	2
0000191d 00             8148 	.byte	0
0000191e 02             8149 	.byte	2
0000191f 00             8150 	.byte	0

                                                                      Page 146
                                                              C:\Users\nhuliyap\AppData\Local\Temp\gh_00008uc1.s
00001920 00             8151 	.byte	0
00001921 00             8152 	.byte	0
00001922 00             8153 	.byte	0
00001923 01             8154 	.byte	1
00001924 01             8155 	.byte	1
00001925 00             8156 	.byte	0
00001926 01             8157 	.byte	1
                        8158 
                        8159 	.section	.debug_frame
                        8160 .LDW_4c21458:
00000244 00000000*      8161 	.word	.LDW_unq_28-.LDW_unq_27
                        8162 .LDW_unq_27:
00000248 00000000*      8163 	.word	.LDW_4d1b500
0000024c 00000000*      8164 	.word	_PutReDataPreProcRemainingLifeTimePD
00000250 00000000*      8165 	.word	___ghs_eofn_PutReDataPreProcRemainingLifeTimePD-_PutReDataPreProcRemainingLifeTimePD
00000254 01             8166 	.byte	1
00000255 00000000*      8167 	.word	.LDW94
00000259 00             8168 	.byte	0
0000025a 00             8169 	.byte	0
0000025b 00             8170 	.byte	0
                        8171 .LDW_unq_28:
                        8172 	.section	.debug_line
000007c2 000502         8173 	.byte	0,5,2
000007c5 00000000*      8174 	.word	_PutReDataPreProcRemainingLifeTimePD
000007c9 03             8175 	.byte	3
000007ca ff02           8176 	.byte	255,2
000007cc 02             8177 	.byte	2
000007cd 00             8178 	.byte	0
000007ce 01             8179 	.byte	1
000007cf 06             8180 	.byte	6
000007d0 000502         8181 	.byte	0,5,2
000007d3 00000000*      8182 	.word	.LDWlin42
000007d7 0b             8183 	.byte	11
000007d8 1b             8184 	.byte	27
000007d9 02             8185 	.byte	2
000007da 02             8186 	.byte	2
000007db 000101         8187 	.byte	0,1,1
                        8188 	.section	.debug_info
                        8189 .LDW_4d76230:
00001927 0f             8190 	.byte	15
00001928 756352656d61   8191 	.strz	"ucRemainingLifeTime"
0000192e 696e696e674c 
00001934 69666554696d 
0000193a 6500 
0000193c ff02           8192 	.byte	255,2
0000193e 31             8193 	.byte	49
0000193f 01             8194 	.byte	1
00001940 00000000*      8195 	.word	.LDW_48ee8e8
00001944 00             8196 	.byte	0
00001945 0156           8197 	.byte	1,86
                        8198 
                        8199 .LDW_48eaad0:
00001947 1d             8200 	.byte	29
00001948 00000000*      8201 	.word	.LDW84
0000194c 00000000*      8202 	.word	.LDW94
                        8203 
00001950 00             8204 	.byte	0
                        8205 
00001951 00             8206 	.byte	0
                        8207 
                        8208 .LDW_4d75b38:

                                                                      Page 147
                                                              C:\Users\nhuliyap\AppData\Local\Temp\gh_00008uc1.s
00001952 14             8209 	.byte	20
00001953 756347657452   8210 	.strz	"ucGetReDataPreProcTransModePD"
00001959 654461746150 
0000195f 726550726f63 
00001965 5472616e734d 
0000196b 6f6465504400 
00001971 8403           8211 	.byte	132,3
00001973 08             8212 	.byte	8
00001974 01             8213 	.byte	1
00001975 00000000*      8214 	.word	.LDW_48ee8e8
00001979 00000000*      8215 	.word	_ucGetReDataPreProcTransModePD
0000197d 00000000*      8216 	.word	___ghs_eofn_ucGetReDataPreProcTransModePD
00001981 0153           8217 	.byte	1,83
00001983 02             8218 	.byte	2
00001984 00             8219 	.byte	0
00001985 02             8220 	.byte	2
00001986 00             8221 	.byte	0
00001987 00             8222 	.byte	0
00001988 00             8223 	.byte	0
00001989 00             8224 	.byte	0
0000198a 01             8225 	.byte	1
0000198b 01             8226 	.byte	1
0000198c 00             8227 	.byte	0
0000198d 01             8228 	.byte	1
                        8229 
                        8230 	.section	.debug_frame
                        8231 .LDW_4c21898:
0000025c 00000000*      8232 	.word	.LDW_unq_2a-.LDW_unq_29
                        8233 .LDW_unq_29:
00000260 00000000*      8234 	.word	.LDW_4d1b500
00000264 00000000*      8235 	.word	_ucGetReDataPreProcTransModePD
00000268 00000000*      8236 	.word	___ghs_eofn_ucGetReDataPreProcTransModePD-_ucGetReDataPreProcTransModePD
0000026c 01             8237 	.byte	1
0000026d 00000000*      8238 	.word	.LDW15
00000271 00             8239 	.byte	0
00000272 00             8240 	.byte	0
00000273 00             8241 	.byte	0
                        8242 .LDW_unq_2a:
                        8243 	.section	.debug_line
000007de 000502         8244 	.byte	0,5,2
000007e1 00000000*      8245 	.word	_ucGetReDataPreProcTransModePD
000007e5 03             8246 	.byte	3
000007e6 8403           8247 	.byte	132,3
000007e8 02             8248 	.byte	2
000007e9 00             8249 	.byte	0
000007ea 01             8250 	.byte	1
000007eb 06             8251 	.byte	6
000007ec 000502         8252 	.byte	0,5,2
000007ef 00000000*      8253 	.word	.LDWlin43
000007f3 0b             8254 	.byte	11
000007f4 06             8255 	.byte	6
000007f5 02             8256 	.byte	2
000007f6 04             8257 	.byte	4
000007f7 02             8258 	.byte	2
000007f8 02             8259 	.byte	2
000007f9 000101         8260 	.byte	0,1,1
                        8261 	.section	.debug_info
                        8262 .LDW_48eaaa0:
0000198e 1d             8263 	.byte	29
0000198f 00000000*      8264 	.word	.LDW05
00001993 00000000*      8265 	.word	.LDW15

                                                                      Page 148
                                                              C:\Users\nhuliyap\AppData\Local\Temp\gh_00008uc1.s
                        8266 
00001997 00             8267 	.byte	0
                        8268 
00001998 00             8269 	.byte	0
                        8270 
                        8271 .LDW_4d75ff8:
00001999 13             8272 	.byte	19
0000199a 507574526544   8273 	.strz	"PutReDataPreProcTransModePD"
000019a0 617461507265 
000019a6 50726f635472 
000019ac 616e734d6f64 
000019b2 65504400 
000019b6 8903           8274 	.byte	137,3
000019b8 06             8275 	.byte	6
000019b9 01             8276 	.byte	1
000019ba 00000000*      8277 	.word	_PutReDataPreProcTransModePD
000019be 00000000*      8278 	.word	___ghs_eofn_PutReDataPreProcTransModePD
000019c2 0153           8279 	.byte	1,83
000019c4 02             8280 	.byte	2
000019c5 00             8281 	.byte	0
000019c6 02             8282 	.byte	2
000019c7 00             8283 	.byte	0
000019c8 00             8284 	.byte	0
000019c9 00             8285 	.byte	0
000019ca 00             8286 	.byte	0
000019cb 01             8287 	.byte	1
000019cc 01             8288 	.byte	1
000019cd 00             8289 	.byte	0
000019ce 01             8290 	.byte	1
                        8291 
                        8292 	.section	.debug_frame
                        8293 .LDW_4c21918:
00000274 00000000*      8294 	.word	.LDW_unq_2c-.LDW_unq_2b
                        8295 .LDW_unq_2b:
00000278 00000000*      8296 	.word	.LDW_4d1b500
0000027c 00000000*      8297 	.word	_PutReDataPreProcTransModePD
00000280 00000000*      8298 	.word	___ghs_eofn_PutReDataPreProcTransModePD-_PutReDataPreProcTransModePD
00000284 01             8299 	.byte	1
00000285 00000000*      8300 	.word	.LDW35
00000289 00             8301 	.byte	0
0000028a 00             8302 	.byte	0
0000028b 00             8303 	.byte	0
                        8304 .LDW_unq_2c:
                        8305 	.section	.debug_line
000007fc 000502         8306 	.byte	0,5,2
000007ff 00000000*      8307 	.word	_PutReDataPreProcTransModePD
00000803 03             8308 	.byte	3
00000804 8903           8309 	.byte	137,3
00000806 02             8310 	.byte	2
00000807 00             8311 	.byte	0
00000808 01             8312 	.byte	1
00000809 06             8313 	.byte	6
0000080a 000502         8314 	.byte	0,5,2
0000080d 00000000*      8315 	.word	.LDWlin44
00000811 0b             8316 	.byte	11
00000812 1b             8317 	.byte	27
00000813 02             8318 	.byte	2
00000814 02             8319 	.byte	2
00000815 000101         8320 	.byte	0,1,1
                        8321 	.section	.debug_info
                        8322 .LDW_4d762b0:

                                                                      Page 149
                                                              C:\Users\nhuliyap\AppData\Local\Temp\gh_00008uc1.s
000019cf 0f             8323 	.byte	15
000019d0 75635472616e   8324 	.strz	"ucTransMode"
000019d6 734d6f646500 
000019dc 8903           8325 	.byte	137,3
000019de 29             8326 	.byte	41
000019df 01             8327 	.byte	1
000019e0 00000000*      8328 	.word	.LDW_48ee8e8
000019e4 00             8329 	.byte	0
000019e5 0156           8330 	.byte	1,86
                        8331 
                        8332 .LDW_48eaa40:
000019e7 1d             8333 	.byte	29
000019e8 00000000*      8334 	.word	.LDW25
000019ec 00000000*      8335 	.word	.LDW35
                        8336 
000019f0 00             8337 	.byte	0
                        8338 
000019f1 00             8339 	.byte	0
                        8340 
                        8341 .LDW_4d75bd0:
000019f2 14             8342 	.byte	20
000019f3 757368476574   8343 	.strz	"ushGetReDataPreProcSensorDefectPD"
000019f9 526544617461 
000019ff 50726550726f 
00001a05 6353656e736f 
00001a0b 724465666563 
00001a11 74504400 
00001a15 8e03           8344 	.byte	142,3
00001a17 08             8345 	.byte	8
00001a18 01             8346 	.byte	1
00001a19 00000000*      8347 	.word	.LDW_4d76468
00001a1d 00000000*      8348 	.word	_ushGetReDataPreProcSensorDefectPD
00001a21 00000000*      8349 	.word	___ghs_eofn_ushGetReDataPreProcSensorDefectPD
00001a25 0153           8350 	.byte	1,83
00001a27 02             8351 	.byte	2
00001a28 00             8352 	.byte	0
00001a29 02             8353 	.byte	2
00001a2a 00             8354 	.byte	0
00001a2b 00             8355 	.byte	0
00001a2c 00             8356 	.byte	0
00001a2d 00             8357 	.byte	0
00001a2e 01             8358 	.byte	1
00001a2f 01             8359 	.byte	1
00001a30 00             8360 	.byte	0
00001a31 01             8361 	.byte	1
                        8362 
                        8363 	.section	.debug_frame
                        8364 .LDW_4c214d8:
0000028c 00000000*      8365 	.word	.LDW_unq_2e-.LDW_unq_2d
                        8366 .LDW_unq_2d:
00000290 00000000*      8367 	.word	.LDW_4d1b500
00000294 00000000*      8368 	.word	_ushGetReDataPreProcSensorDefectPD
00000298 00000000*      8369 	.word	___ghs_eofn_ushGetReDataPreProcSensorDefectPD-_ushGetReDataPreProcSensorDefectPD
0000029c 01             8370 	.byte	1
0000029d 00000000*      8371 	.word	.LDW55
000002a1 00             8372 	.byte	0
000002a2 00             8373 	.byte	0
000002a3 00             8374 	.byte	0
                        8375 .LDW_unq_2e:
                        8376 	.section	.debug_line
00000818 000502         8377 	.byte	0,5,2

                                                                      Page 150
                                                              C:\Users\nhuliyap\AppData\Local\Temp\gh_00008uc1.s
0000081b 00000000*      8378 	.word	_ushGetReDataPreProcSensorDefectPD
0000081f 03             8379 	.byte	3
00000820 8e03           8380 	.byte	142,3
00000822 02             8381 	.byte	2
00000823 00             8382 	.byte	0
00000824 01             8383 	.byte	1
00000825 06             8384 	.byte	6
00000826 000502         8385 	.byte	0,5,2
00000829 00000000*      8386 	.word	.LDWlin45
0000082d 0b             8387 	.byte	11
0000082e 06             8388 	.byte	6
0000082f 02             8389 	.byte	2
00000830 04             8390 	.byte	4
00000831 02             8391 	.byte	2
00000832 02             8392 	.byte	2
00000833 000101         8393 	.byte	0,1,1
                        8394 	.section	.debug_info
                        8395 .LDW_4d76d90:
00001a32 1d             8396 	.byte	29
00001a33 00000000*      8397 	.word	.LDW45
00001a37 00000000*      8398 	.word	.LDW55
                        8399 
00001a3b 00             8400 	.byte	0
                        8401 
00001a3c 00             8402 	.byte	0
                        8403 
                        8404 .LDW_4d75e30:
00001a3d 13             8405 	.byte	19
00001a3e 507574526544   8406 	.strz	"PutReDataPreProcSensorDefectPD"
00001a44 617461507265 
00001a4a 50726f635365 
00001a50 6e736f724465 
00001a56 666563745044 
00001a5c 00 
00001a5d 9303           8407 	.byte	147,3
00001a5f 06             8408 	.byte	6
00001a60 01             8409 	.byte	1
00001a61 00000000*      8410 	.word	_PutReDataPreProcSensorDefectPD
00001a65 00000000*      8411 	.word	___ghs_eofn_PutReDataPreProcSensorDefectPD
00001a69 0153           8412 	.byte	1,83
00001a6b 02             8413 	.byte	2
00001a6c 00             8414 	.byte	0
00001a6d 02             8415 	.byte	2
00001a6e 00             8416 	.byte	0
00001a6f 00             8417 	.byte	0
00001a70 00             8418 	.byte	0
00001a71 00             8419 	.byte	0
00001a72 01             8420 	.byte	1
00001a73 01             8421 	.byte	1
00001a74 00             8422 	.byte	0
00001a75 01             8423 	.byte	1
                        8424 
                        8425 	.section	.debug_frame
                        8426 .LDW_4c215d8:
000002a4 00000000*      8427 	.word	.LDW_unq_30-.LDW_unq_2f
                        8428 .LDW_unq_2f:
000002a8 00000000*      8429 	.word	.LDW_4d1b500
000002ac 00000000*      8430 	.word	_PutReDataPreProcSensorDefectPD
000002b0 00000000*      8431 	.word	___ghs_eofn_PutReDataPreProcSensorDefectPD-_PutReDataPreProcSensorDefectPD
000002b4 01             8432 	.byte	1
000002b5 00000000*      8433 	.word	.LDW75

                                                                      Page 151
                                                              C:\Users\nhuliyap\AppData\Local\Temp\gh_00008uc1.s
000002b9 00             8434 	.byte	0
000002ba 00             8435 	.byte	0
000002bb 00             8436 	.byte	0
                        8437 .LDW_unq_30:
                        8438 	.section	.debug_line
00000836 000502         8439 	.byte	0,5,2
00000839 00000000*      8440 	.word	_PutReDataPreProcSensorDefectPD
0000083d 03             8441 	.byte	3
0000083e 9303           8442 	.byte	147,3
00000840 02             8443 	.byte	2
00000841 00             8444 	.byte	0
00000842 01             8445 	.byte	1
00000843 06             8446 	.byte	6
00000844 000502         8447 	.byte	0,5,2
00000847 00000000*      8448 	.word	.LDWlin46
0000084b 0b             8449 	.byte	11
0000084c 1b             8450 	.byte	27
0000084d 02             8451 	.byte	2
0000084e 02             8452 	.byte	2
0000084f 000101         8453 	.byte	0,1,1
                        8454 	.section	.debug_info
                        8455 .LDW_4d76308:
00001a76 0f             8456 	.byte	15
00001a77 75736853656e   8457 	.strz	"ushSensorDefect"
00001a7d 736f72446566 
00001a83 65637400 
00001a87 9303           8458 	.byte	147,3
00001a89 2d             8459 	.byte	45
00001a8a 01             8460 	.byte	1
00001a8b 00000000*      8461 	.word	.LDW_4d76468
00001a8f 00             8462 	.byte	0
00001a90 0156           8463 	.byte	1,86
                        8464 
                        8465 .LDW_4d76d00:
00001a92 1d             8466 	.byte	29
00001a93 00000000*      8467 	.word	.LDW65
00001a97 00000000*      8468 	.word	.LDW75
                        8469 
00001a9b 00             8470 	.byte	0
                        8471 
00001a9c 00             8472 	.byte	0
                        8473 
                        8474 .LDW_4d75418:
00001a9d 14             8475 	.byte	20
00001a9e 756347657456   8476 	.strz	"ucGetValidTyrePressureRelAtPosPD"
00001aa4 616c69645479 
00001aaa 726550726573 
00001ab0 737572655265 
00001ab6 6c4174506f73 
00001abc 504400 
00001abf b303           8477 	.byte	179,3
00001ac1 07             8478 	.byte	7
00001ac2 01             8479 	.byte	1
00001ac3 00000000*      8480 	.word	.LDW_48ee8e8
00001ac7 00000000*      8481 	.word	_ucGetValidTyrePressureRelAtPosPD
00001acb 00000000*      8482 	.word	___ghs_eofn_ucGetValidTyrePressureRelAtPosPD
00001acf 0153           8483 	.byte	1,83
00001ad1 8280808008     8484 	.byte	130,128,128,128,8
00001ad6 04             8485 	.byte	4
00001ad7 03             8486 	.byte	3
00001ad8 04             8487 	.byte	4

                                                                      Page 152
                                                              C:\Users\nhuliyap\AppData\Local\Temp\gh_00008uc1.s
00001ad9 00             8488 	.byte	0
00001ada 00             8489 	.byte	0
00001adb 00             8490 	.byte	0
00001adc 01             8491 	.byte	1
00001add 01             8492 	.byte	1
00001ade 00             8493 	.byte	0
00001adf 01             8494 	.byte	1
                        8495 
                        8496 	.section	.debug_frame
                        8497 .LDW_4c21b58:
000002bc 00000000*      8498 	.word	.LDW_unq_32-.LDW_unq_31
                        8499 .LDW_unq_31:
000002c0 00000000*      8500 	.word	.LDW_4d1b500
000002c4 00000000*      8501 	.word	_ucGetValidTyrePressureRelAtPosPD
000002c8 00000000*      8502 	.word	___ghs_eofn_ucGetValidTyrePressureRelAtPosPD-_ucGetValidTyrePressureRelAtPosPD
000002cc 44             8503 	.byte	68
000002cd 9f             8504 	.byte	159
000002ce 00             8505 	.byte	0
000002cf 01             8506 	.byte	1
000002d0 00000000*      8507 	.word	.LDW16
                        8508 .LDW_unq_32:
                        8509 	.section	.debug_line
00000852 000502         8510 	.byte	0,5,2
00000855 00000000*      8511 	.word	_ucGetValidTyrePressureRelAtPosPD
00000859 03             8512 	.byte	3
0000085a b303           8513 	.byte	179,3
0000085c 02             8514 	.byte	2
0000085d 00             8515 	.byte	0
0000085e 01             8516 	.byte	1
0000085f 06             8517 	.byte	6
00000860 03             8518 	.byte	3
00000861 04             8519 	.byte	4
00000862 02             8520 	.byte	2
00000863 06             8521 	.byte	6
00000864 01             8522 	.byte	1
00000865 000502         8523 	.byte	0,5,2
00000868 00000000*      8524 	.word	.LDWlin52
0000086c 0c             8525 	.byte	12
0000086d 000502         8526 	.byte	0,5,2
00000870 00000000*      8527 	.word	.LDWlin53
00000874 0b             8528 	.byte	11
00000875 0b             8529 	.byte	11
00000876 000502         8530 	.byte	0,5,2
00000879 00000000*      8531 	.word	.LDWlin54
0000087d 0d             8532 	.byte	13
0000087e 0b             8533 	.byte	11
0000087f 0b             8534 	.byte	11
00000880 06             8535 	.byte	6
00000881 000502         8536 	.byte	0,5,2
00000884 00000000*      8537 	.word	.LDWlin55
00000888 03             8538 	.byte	3
00000889 7d             8539 	.byte	125
0000088a 02             8540 	.byte	2
0000088b 00             8541 	.byte	0
0000088c 01             8542 	.byte	1
0000088d 06             8543 	.byte	6
0000088e 03             8544 	.byte	3
0000088f 04             8545 	.byte	4
00000890 02             8546 	.byte	2
00000891 00             8547 	.byte	0
00000892 01             8548 	.byte	1

                                                                      Page 153
                                                              C:\Users\nhuliyap\AppData\Local\Temp\gh_00008uc1.s
00000893 02             8549 	.byte	2
00000894 00             8550 	.byte	0
00000895 0b             8551 	.byte	11
00000896 0b             8552 	.byte	11
00000897 0b             8553 	.byte	11
00000898 1b             8554 	.byte	27
00000899 02             8555 	.byte	2
0000089a 00             8556 	.byte	0
0000089b 0c             8557 	.byte	12
0000089c 02             8558 	.byte	2
0000089d 04             8559 	.byte	4
0000089e 000101         8560 	.byte	0,1,1
                        8561 	.section	.debug_info
                        8562 .LDW_4d764c0:
00001ae0 0f             8563 	.byte	15
00001ae1 756352616450   8564 	.strz	"ucRadPos"
00001ae7 6f7300 
00001aea b303           8565 	.byte	179,3
00001aec 2f             8566 	.byte	47
00001aed 01             8567 	.byte	1
00001aee 00000000*      8568 	.word	.LDW_48ee8e8
00001af2 00             8569 	.byte	0
00001af3 0156           8570 	.byte	1,86
                        8571 
                        8572 .LDW_4d76dc0:
00001af5 1d             8573 	.byte	29
00001af6 00000000*      8574 	.word	.LDW06
00001afa 00000000*      8575 	.word	.LDW16
                        8576 
                        8577 .LDW_4d76938:
00001afe 04             8578 	.byte	4
00001aff 756352657400   8579 	.strz	"ucRet"
00001b05 b503           8580 	.byte	181,3
00001b07 09             8581 	.byte	9
00001b08 01             8582 	.byte	1
00001b09 00000000*      8583 	.word	.LDW_48ee8e8
00001b0d 00             8584 	.byte	0
00001b0e 00             8585 	.byte	0
00001b0f 015a           8586 	.byte	1,90
                        8587 
                        8588 .LDW_4d768e0:
00001b11 04             8589 	.byte	4
00001b12 75635a6f6d50   8590 	.strz	"ucZomPos"
00001b18 6f7300 
00001b1b b603           8591 	.byte	182,3
00001b1d 09             8592 	.byte	9
00001b1e 01             8593 	.byte	1
00001b1f 00000000*      8594 	.word	.LDW_48ee8e8
00001b23 00             8595 	.byte	0
00001b24 00             8596 	.byte	0
00001b25 016e           8597 	.byte	1,110
                        8598 
00001b27 00             8599 	.byte	0
                        8600 
00001b28 00             8601 	.byte	0
                        8602 
                        8603 .LDW_4d75ec8:
00001b29 14             8604 	.byte	20
00001b2a 756347657456   8605 	.strz	"ucGetValidTemperatureRelAtPosPD"
00001b30 616c69645465 
00001b36 6d7065726174 

                                                                      Page 154
                                                              C:\Users\nhuliyap\AppData\Local\Temp\gh_00008uc1.s
00001b3c 75726552656c 
00001b42 4174506f7350 
00001b48 4400 
00001b4a cb03           8606 	.byte	203,3
00001b4c 07             8607 	.byte	7
00001b4d 01             8608 	.byte	1
00001b4e 00000000*      8609 	.word	.LDW_48ee8e8
00001b52 00000000*      8610 	.word	_ucGetValidTemperatureRelAtPosPD
00001b56 00000000*      8611 	.word	___ghs_eofn_ucGetValidTemperatureRelAtPosPD
00001b5a 0153           8612 	.byte	1,83
00001b5c 8280808008     8613 	.byte	130,128,128,128,8
00001b61 04             8614 	.byte	4
00001b62 03             8615 	.byte	3
00001b63 04             8616 	.byte	4
00001b64 00             8617 	.byte	0
00001b65 00             8618 	.byte	0
00001b66 00             8619 	.byte	0
00001b67 01             8620 	.byte	1
00001b68 01             8621 	.byte	1
00001b69 00             8622 	.byte	0
00001b6a 01             8623 	.byte	1
                        8624 
                        8625 	.section	.debug_frame
                        8626 .LDW_4c21998:
000002d4 00000000*      8627 	.word	.LDW_unq_34-.LDW_unq_33
                        8628 .LDW_unq_33:
000002d8 00000000*      8629 	.word	.LDW_4d1b500
000002dc 00000000*      8630 	.word	_ucGetValidTemperatureRelAtPosPD
000002e0 00000000*      8631 	.word	___ghs_eofn_ucGetValidTemperatureRelAtPosPD-_ucGetValidTemperatureRelAtPosPD
000002e4 44             8632 	.byte	68
000002e5 9f             8633 	.byte	159
000002e6 00             8634 	.byte	0
000002e7 01             8635 	.byte	1
000002e8 00000000*      8636 	.word	.LDW36
                        8637 .LDW_unq_34:
                        8638 	.section	.debug_line
000008a1 000502         8639 	.byte	0,5,2
000008a4 00000000*      8640 	.word	_ucGetValidTemperatureRelAtPosPD
000008a8 03             8641 	.byte	3
000008a9 cb03           8642 	.byte	203,3
000008ab 02             8643 	.byte	2
000008ac 00             8644 	.byte	0
000008ad 01             8645 	.byte	1
000008ae 06             8646 	.byte	6
000008af 03             8647 	.byte	3
000008b0 04             8648 	.byte	4
000008b1 02             8649 	.byte	2
000008b2 06             8650 	.byte	6
000008b3 01             8651 	.byte	1
000008b4 000502         8652 	.byte	0,5,2
000008b7 00000000*      8653 	.word	.LDWlin56
000008bb 0c             8654 	.byte	12
000008bc 000502         8655 	.byte	0,5,2
000008bf 00000000*      8656 	.word	.LDWlin57
000008c3 0b             8657 	.byte	11
000008c4 0b             8658 	.byte	11
000008c5 000502         8659 	.byte	0,5,2
000008c8 00000000*      8660 	.word	.LDWlin58
000008cc 0d             8661 	.byte	13
000008cd 0b             8662 	.byte	11
000008ce 0b             8663 	.byte	11

                                                                      Page 155
                                                              C:\Users\nhuliyap\AppData\Local\Temp\gh_00008uc1.s
000008cf 06             8664 	.byte	6
000008d0 000502         8665 	.byte	0,5,2
000008d3 00000000*      8666 	.word	.LDWlin59
000008d7 03             8667 	.byte	3
000008d8 7d             8668 	.byte	125
000008d9 02             8669 	.byte	2
000008da 00             8670 	.byte	0
000008db 01             8671 	.byte	1
000008dc 06             8672 	.byte	6
000008dd 03             8673 	.byte	3
000008de 04             8674 	.byte	4
000008df 02             8675 	.byte	2
000008e0 00             8676 	.byte	0
000008e1 01             8677 	.byte	1
000008e2 02             8678 	.byte	2
000008e3 00             8679 	.byte	0
000008e4 0b             8680 	.byte	11
000008e5 0b             8681 	.byte	11
000008e6 0b             8682 	.byte	11
000008e7 1b             8683 	.byte	27
000008e8 02             8684 	.byte	2
000008e9 00             8685 	.byte	0
000008ea 0c             8686 	.byte	12
000008eb 02             8687 	.byte	2
000008ec 04             8688 	.byte	4
000008ed 000101         8689 	.byte	0,1,1
                        8690 	.section	.debug_info
                        8691 .LDW_4d76888:
00001b6b 0f             8692 	.byte	15
00001b6c 756352616450   8693 	.strz	"ucRadPos"
00001b72 6f7300 
00001b75 cb03           8694 	.byte	203,3
00001b77 2e             8695 	.byte	46
00001b78 01             8696 	.byte	1
00001b79 00000000*      8697 	.word	.LDW_48ee8e8
00001b7d 00             8698 	.byte	0
00001b7e 0156           8699 	.byte	1,86
                        8700 
                        8701 .LDW_4d76b20:
00001b80 1d             8702 	.byte	29
00001b81 00000000*      8703 	.word	.LDW26
00001b85 00000000*      8704 	.word	.LDW36
                        8705 
                        8706 .LDW_4d76360:
00001b89 04             8707 	.byte	4
00001b8a 756352657400   8708 	.strz	"ucRet"
00001b90 cd03           8709 	.byte	205,3
00001b92 09             8710 	.byte	9
00001b93 01             8711 	.byte	1
00001b94 00000000*      8712 	.word	.LDW_48ee8e8
00001b98 00             8713 	.byte	0
00001b99 00             8714 	.byte	0
00001b9a 015a           8715 	.byte	1,90
                        8716 
                        8717 .LDW_4d763b8:
00001b9c 04             8718 	.byte	4
00001b9d 75635a6f6d50   8719 	.strz	"ucZomPos"
00001ba3 6f7300 
00001ba6 ce03           8720 	.byte	206,3
00001ba8 09             8721 	.byte	9
00001ba9 01             8722 	.byte	1

                                                                      Page 156
                                                              C:\Users\nhuliyap\AppData\Local\Temp\gh_00008uc1.s
00001baa 00000000*      8723 	.word	.LDW_48ee8e8
00001bae 00             8724 	.byte	0
00001baf 00             8725 	.byte	0
00001bb0 016e           8726 	.byte	1,110
                        8727 
00001bb2 00             8728 	.byte	0
                        8729 
00001bb3 00             8730 	.byte	0
                        8731 
                        8732 .LDW_4d75c68:
00001bb4 14             8733 	.byte	20
00001bb5 756347657453   8734 	.strz	"ucGetSlotNoAtPosPD"
00001bbb 6c6f744e6f41 
00001bc1 74506f735044 
00001bc7 00 
00001bc8 e303           8735 	.byte	227,3
00001bca 07             8736 	.byte	7
00001bcb 01             8737 	.byte	1
00001bcc 00000000*      8738 	.word	.LDW_48ee8e8
00001bd0 00000000*      8739 	.word	_ucGetSlotNoAtPosPD
00001bd4 00000000*      8740 	.word	___ghs_eofn_ucGetSlotNoAtPosPD
00001bd8 0153           8741 	.byte	1,83
00001bda 828080c00b     8742 	.byte	130,128,128,192,11
00001bdf 10             8743 	.byte	16
00001be0 03             8744 	.byte	3
00001be1 10             8745 	.byte	16
00001be2 00             8746 	.byte	0
00001be3 00             8747 	.byte	0
00001be4 00             8748 	.byte	0
00001be5 01             8749 	.byte	1
00001be6 01             8750 	.byte	1
00001be7 00             8751 	.byte	0
00001be8 01             8752 	.byte	1
                        8753 
                        8754 	.section	.debug_frame
                        8755 .LDW_4c21a18:
000002ec 00000000*      8756 	.word	.LDW_unq_36-.LDW_unq_35
                        8757 .LDW_unq_35:
000002f0 00000000*      8758 	.word	.LDW_4d1b500
000002f4 00000000*      8759 	.word	_ucGetSlotNoAtPosPD
000002f8 00000000*      8760 	.word	___ghs_eofn_ucGetSlotNoAtPosPD-_ucGetSlotNoAtPosPD
000002fc 44             8761 	.byte	68
000002fd 9f             8762 	.byte	159
000002fe 00             8763 	.byte	0
000002ff 40             8764 	.byte	64
00000300 9d             8765 	.byte	157
00000301 04             8766 	.byte	4
00000302 40             8767 	.byte	64
00000303 9c             8768 	.byte	156
00000304 08             8769 	.byte	8
00000305 40             8770 	.byte	64
00000306 9b             8771 	.byte	155
00000307 0c             8772 	.byte	12
00000308 01             8773 	.byte	1
00000309 00000000*      8774 	.word	.LDW95
0000030d 00             8775 	.byte	0
0000030e 00             8776 	.byte	0
0000030f 00             8777 	.byte	0
                        8778 .LDW_unq_36:
                        8779 	.section	.debug_line
000008f0 000502         8780 	.byte	0,5,2

                                                                      Page 157
                                                              C:\Users\nhuliyap\AppData\Local\Temp\gh_00008uc1.s
000008f3 00000000*      8781 	.word	_ucGetSlotNoAtPosPD
000008f7 03             8782 	.byte	3
000008f8 e303           8783 	.byte	227,3
000008fa 02             8784 	.byte	2
000008fb 00             8785 	.byte	0
000008fc 01             8786 	.byte	1
000008fd 06             8787 	.byte	6
000008fe 03             8788 	.byte	3
000008ff 04             8789 	.byte	4
00000900 02             8790 	.byte	2
00000901 08             8791 	.byte	8
00000902 01             8792 	.byte	1
00000903 06             8793 	.byte	6
00000904 000502         8794 	.byte	0,5,2
00000907 00000000*      8795 	.word	.LDWlin47
0000090b 03             8796 	.byte	3
0000090c 0d             8797 	.byte	13
0000090d 02             8798 	.byte	2
0000090e 00             8799 	.byte	0
0000090f 01             8800 	.byte	1
00000910 03             8801 	.byte	3
00000911 75             8802 	.byte	117
00000912 02             8803 	.byte	2
00000913 00             8804 	.byte	0
00000914 01             8805 	.byte	1
00000915 03             8806 	.byte	3
00000916 7e             8807 	.byte	126
00000917 02             8808 	.byte	2
00000918 00             8809 	.byte	0
00000919 01             8810 	.byte	1
0000091a 06             8811 	.byte	6
0000091b 1d             8812 	.byte	29
0000091c 000502         8813 	.byte	0,5,2
0000091f 00000000*      8814 	.word	.LDWlin48
00000923 0c             8815 	.byte	12
00000924 000502         8816 	.byte	0,5,2
00000927 00000000*      8817 	.word	.LDWlin49
0000092b 0b             8818 	.byte	11
0000092c 0c             8819 	.byte	12
0000092d 000502         8820 	.byte	0,5,2
00000930 00000000*      8821 	.word	.LDWlin50
00000934 03             8822 	.byte	3
00000935 06             8823 	.byte	6
00000936 02             8824 	.byte	2
00000937 00             8825 	.byte	0
00000938 01             8826 	.byte	1
00000939 02             8827 	.byte	2
0000093a 00             8828 	.byte	0
0000093b 0c             8829 	.byte	12
0000093c 06             8830 	.byte	6
0000093d 02             8831 	.byte	2
0000093e 02             8832 	.byte	2
0000093f 06             8833 	.byte	6
00000940 000502         8834 	.byte	0,5,2
00000943 00000000*      8835 	.word	.LDWlin51
00000947 03             8836 	.byte	3
00000948 79             8837 	.byte	121
00000949 02             8838 	.byte	2
0000094a 00             8839 	.byte	0
0000094b 01             8840 	.byte	1
0000094c 02             8841 	.byte	2

                                                                      Page 158
                                                              C:\Users\nhuliyap\AppData\Local\Temp\gh_00008uc1.s
0000094d 00             8842 	.byte	0
0000094e 03             8843 	.byte	3
0000094f 7a             8844 	.byte	122
00000950 02             8845 	.byte	2
00000951 00             8846 	.byte	0
00000952 01             8847 	.byte	1
00000953 02             8848 	.byte	2
00000954 08             8849 	.byte	8
00000955 000101         8850 	.byte	0,1,1
                        8851 	.section	.debug_info
                        8852 .LDW_4d76410:
00001be9 0f             8853 	.byte	15
00001bea 756352616450   8854 	.strz	"ucRadPos"
00001bf0 6f7300 
00001bf3 e303           8855 	.byte	227,3
00001bf5 21             8856 	.byte	33
00001bf6 01             8857 	.byte	1
00001bf7 00000000*      8858 	.word	.LDW_48ee8e8
00001bfb 00             8859 	.byte	0
00001bfc 016b           8860 	.byte	1,107
                        8861 
                        8862 .LDW_4d76e50:
00001bfe 1d             8863 	.byte	29
00001bff 00000000*      8864 	.word	.LDW85
00001c03 00000000*      8865 	.word	.LDW95
                        8866 
                        8867 .LDW_4d76990:
00001c07 04             8868 	.byte	4
00001c08 75634c6f6f70   8869 	.strz	"ucLoop"
00001c0e 00 
00001c0f e503           8870 	.byte	229,3
00001c11 09             8871 	.byte	9
00001c12 01             8872 	.byte	1
00001c13 00000000*      8873 	.word	.LDW_48ee8e8
00001c17 00             8874 	.byte	0
00001c18 00             8875 	.byte	0
00001c19 016d           8876 	.byte	1,109
                        8877 
                        8878 .LDW_4d76678:
00001c1b 04             8879 	.byte	4
00001c1c 756352657400   8880 	.strz	"ucRet"
00001c22 e603           8881 	.byte	230,3
00001c24 09             8882 	.byte	9
00001c25 01             8883 	.byte	1
00001c26 00000000*      8884 	.word	.LDW_48ee8e8
00001c2a 00             8885 	.byte	0
00001c2b 00             8886 	.byte	0
00001c2c 016c           8887 	.byte	1,108
                        8888 
00001c2e 00             8889 	.byte	0
                        8890 
00001c2f 00             8891 	.byte	0
                        8892 
                        8893 .LDW_4d76128:
00001c30 13             8894 	.byte	19
00001c31 526561645265   8895 	.strz	"ReadReDataFromRingBuffer_iBTCM"
00001c37 446174614672 
00001c3d 6f6d52696e67 
00001c43 427566666572 
00001c49 5f694254434d 
00001c4f 00 

                                                                      Page 159
                                                              C:\Users\nhuliyap\AppData\Local\Temp\gh_00008uc1.s
00001c50 fc03           8896 	.byte	252,3
00001c52 06             8897 	.byte	6
00001c53 01             8898 	.byte	1
00001c54 00000000*      8899 	.word	_ReadReDataFromRingBuffer_iBTCM
00001c58 00000000*      8900 	.word	___ghs_eofn_ReadReDataFromRingBuffer_iBTCM
00001c5c 0153           8901 	.byte	1,83
00001c5e 828080e00b     8902 	.byte	130,128,128,224,11
00001c63 14             8903 	.byte	20
00001c64 03             8904 	.byte	3
00001c65 14             8905 	.byte	20
00001c66 00             8906 	.byte	0
00001c67 00             8907 	.byte	0
00001c68 00             8908 	.byte	0
00001c69 01             8909 	.byte	1
00001c6a 01             8910 	.byte	1
00001c6b 00             8911 	.byte	0
00001c6c 01             8912 	.byte	1
                        8913 
                        8914 	.section	.debug_frame
                        8915 .LDW_4c21418:
00000310 00000000*      8916 	.word	.LDW_unq_38-.LDW_unq_37
                        8917 .LDW_unq_37:
00000314 00000000*      8918 	.word	.LDW_4d1b500
00000318 00000000*      8919 	.word	_ReadReDataFromRingBuffer_iBTCM
0000031c 00000000*      8920 	.word	___ghs_eofn_ReadReDataFromRingBuffer_iBTCM-_ReadReDataFromRingBuffer_iBTCM
00000320 44             8921 	.byte	68
00000321 9f             8922 	.byte	159
00000322 00             8923 	.byte	0
00000323 40             8924 	.byte	64
00000324 9d             8925 	.byte	157
00000325 04             8926 	.byte	4
00000326 40             8927 	.byte	64
00000327 9c             8928 	.byte	156
00000328 08             8929 	.byte	8
00000329 40             8930 	.byte	64
0000032a 9b             8931 	.byte	155
0000032b 0c             8932 	.byte	12
0000032c 40             8933 	.byte	64
0000032d 9a             8934 	.byte	154
0000032e 10             8935 	.byte	16
0000032f 01             8936 	.byte	1
00000330 00000000*      8937 	.word	.LDW56
                        8938 .LDW_unq_38:
                        8939 	.section	.debug_line
00000958 000502         8940 	.byte	0,5,2
0000095b 00000000*      8941 	.word	_ReadReDataFromRingBuffer_iBTCM
0000095f 03             8942 	.byte	3
00000960 fc03           8943 	.byte	252,3
00000962 02             8944 	.byte	2
00000963 00             8945 	.byte	0
00000964 01             8946 	.byte	1
00000965 06             8947 	.byte	6
00000966 000502         8948 	.byte	0,5,2
00000969 00000000*      8949 	.word	.LDWlin60
0000096d 03             8950 	.byte	3
0000096e 09             8951 	.byte	9
0000096f 02             8952 	.byte	2
00000970 00             8953 	.byte	0
00000971 01             8954 	.byte	1
00000972 03             8955 	.byte	3
00000973 7e             8956 	.byte	126

                                                                      Page 160
                                                              C:\Users\nhuliyap\AppData\Local\Temp\gh_00008uc1.s
00000974 02             8957 	.byte	2
00000975 04             8958 	.byte	4
00000976 01             8959 	.byte	1
00000977 03             8960 	.byte	3
00000978 04             8961 	.byte	4
00000979 02             8962 	.byte	2
0000097a 02             8963 	.byte	2
0000097b 01             8964 	.byte	1
0000097c 000502         8965 	.byte	0,5,2
0000097f 00000000*      8966 	.word	.LDWlin61
00000983 0b             8967 	.byte	11
00000984 03             8968 	.byte	3
00000985 07             8969 	.byte	7
00000986 02             8970 	.byte	2
00000987 00             8971 	.byte	0
00000988 01             8972 	.byte	1
00000989 1d             8973 	.byte	29
0000098a 03             8974 	.byte	3
0000098b 7e             8975 	.byte	126
0000098c 02             8976 	.byte	2
0000098d 08             8977 	.byte	8
0000098e 01             8978 	.byte	1
0000098f 000502         8979 	.byte	0,5,2
00000992 00000000*      8980 	.word	.LDWlin62
00000996 03             8981 	.byte	3
00000997 36             8982 	.byte	54
00000998 02             8983 	.byte	2
00000999 00             8984 	.byte	0
0000099a 01             8985 	.byte	1
0000099b 1b             8986 	.byte	27
0000099c 03             8987 	.byte	3
0000099d 0d             8988 	.byte	13
0000099e 02             8989 	.byte	2
0000099f 04             8990 	.byte	4
000009a0 01             8991 	.byte	1
000009a1 03             8992 	.byte	3
000009a2 74             8993 	.byte	116
000009a3 02             8994 	.byte	2
000009a4 04             8995 	.byte	4
000009a5 01             8996 	.byte	1
000009a6 23             8997 	.byte	35
000009a7 23             8998 	.byte	35
000009a8 23             8999 	.byte	35
000009a9 23             9000 	.byte	35
000009aa 23             9001 	.byte	35
000009ab 23             9002 	.byte	35
000009ac 23             9003 	.byte	35
000009ad 23             9004 	.byte	35
000009ae 23             9005 	.byte	35
000009af 23             9006 	.byte	35
000009b0 23             9007 	.byte	35
000009b1 24             9008 	.byte	36
000009b2 06             9009 	.byte	6
000009b3 000502         9010 	.byte	0,5,2
000009b6 00000000*      9011 	.word	.LDWlin63
000009ba 03             9012 	.byte	3
000009bb 42             9013 	.byte	66
000009bc 02             9014 	.byte	2
000009bd 00             9015 	.byte	0
000009be 01             9016 	.byte	1
000009bf 06             9017 	.byte	6

                                                                      Page 161
                                                              C:\Users\nhuliyap\AppData\Local\Temp\gh_00008uc1.s
000009c0 03             9018 	.byte	3
000009c1 17             9019 	.byte	23
000009c2 02             9020 	.byte	2
000009c3 00             9021 	.byte	0
000009c4 01             9022 	.byte	1
000009c5 06             9023 	.byte	6
000009c6 03             9024 	.byte	3
000009c7 6a             9025 	.byte	106
000009c8 02             9026 	.byte	2
000009c9 04             9027 	.byte	4
000009ca 01             9028 	.byte	1
000009cb 06             9029 	.byte	6
000009cc 03             9030 	.byte	3
000009cd 17             9031 	.byte	23
000009ce 02             9032 	.byte	2
000009cf 00             9033 	.byte	0
000009d0 01             9034 	.byte	1
000009d1 06             9035 	.byte	6
000009d2 03             9036 	.byte	3
000009d3 6a             9037 	.byte	106
000009d4 02             9038 	.byte	2
000009d5 06             9039 	.byte	6
000009d6 01             9040 	.byte	1
000009d7 06             9041 	.byte	6
000009d8 03             9042 	.byte	3
000009d9 17             9043 	.byte	23
000009da 02             9044 	.byte	2
000009db 00             9045 	.byte	0
000009dc 01             9046 	.byte	1
000009dd 06             9047 	.byte	6
000009de 03             9048 	.byte	3
000009df 6a             9049 	.byte	106
000009e0 02             9050 	.byte	2
000009e1 06             9051 	.byte	6
000009e2 01             9052 	.byte	1
000009e3 06             9053 	.byte	6
000009e4 03             9054 	.byte	3
000009e5 17             9055 	.byte	23
000009e6 02             9056 	.byte	2
000009e7 00             9057 	.byte	0
000009e8 01             9058 	.byte	1
000009e9 06             9059 	.byte	6
000009ea 03             9060 	.byte	3
000009eb 6a             9061 	.byte	106
000009ec 02             9062 	.byte	2
000009ed 06             9063 	.byte	6
000009ee 01             9064 	.byte	1
000009ef 06             9065 	.byte	6
000009f0 03             9066 	.byte	3
000009f1 17             9067 	.byte	23
000009f2 02             9068 	.byte	2
000009f3 00             9069 	.byte	0
000009f4 01             9070 	.byte	1
000009f5 06             9071 	.byte	6
000009f6 03             9072 	.byte	3
000009f7 6a             9073 	.byte	106
000009f8 02             9074 	.byte	2
000009f9 06             9075 	.byte	6
000009fa 01             9076 	.byte	1
000009fb 06             9077 	.byte	6
000009fc 03             9078 	.byte	3

                                                                      Page 162
                                                              C:\Users\nhuliyap\AppData\Local\Temp\gh_00008uc1.s
000009fd 17             9079 	.byte	23
000009fe 02             9080 	.byte	2
000009ff 00             9081 	.byte	0
00000a00 01             9082 	.byte	1
00000a01 06             9083 	.byte	6
00000a02 03             9084 	.byte	3
00000a03 6a             9085 	.byte	106
00000a04 02             9086 	.byte	2
00000a05 06             9087 	.byte	6
00000a06 01             9088 	.byte	1
00000a07 06             9089 	.byte	6
00000a08 03             9090 	.byte	3
00000a09 17             9091 	.byte	23
00000a0a 02             9092 	.byte	2
00000a0b 00             9093 	.byte	0
00000a0c 01             9094 	.byte	1
00000a0d 06             9095 	.byte	6
00000a0e 03             9096 	.byte	3
00000a0f 6a             9097 	.byte	106
00000a10 02             9098 	.byte	2
00000a11 06             9099 	.byte	6
00000a12 01             9100 	.byte	1
00000a13 06             9101 	.byte	6
00000a14 03             9102 	.byte	3
00000a15 17             9103 	.byte	23
00000a16 02             9104 	.byte	2
00000a17 00             9105 	.byte	0
00000a18 01             9106 	.byte	1
00000a19 23             9107 	.byte	35
00000a1a 000502         9108 	.byte	0,5,2
00000a1d 00000000*      9109 	.word	.LDWlin64
00000a21 03             9110 	.byte	3
00000a22 69             9111 	.byte	105
00000a23 02             9112 	.byte	2
00000a24 00             9113 	.byte	0
00000a25 01             9114 	.byte	1
00000a26 0d             9115 	.byte	13
00000a27 1b             9116 	.byte	27
00000a28 23             9117 	.byte	35
00000a29 23             9118 	.byte	35
00000a2a 23             9119 	.byte	35
00000a2b 23             9120 	.byte	35
00000a2c 23             9121 	.byte	35
00000a2d 23             9122 	.byte	35
00000a2e 23             9123 	.byte	35
00000a2f 23             9124 	.byte	35
00000a30 23             9125 	.byte	35
00000a31 000502         9126 	.byte	0,5,2
00000a34 00000000*      9127 	.word	.LDWlin65
00000a38 03             9128 	.byte	3
00000a39 0c             9129 	.byte	12
00000a3a 02             9130 	.byte	2
00000a3b 00             9131 	.byte	0
00000a3c 01             9132 	.byte	1
00000a3d 1b             9133 	.byte	27
00000a3e 03             9134 	.byte	3
00000a3f 0a             9135 	.byte	10
00000a40 02             9136 	.byte	2
00000a41 04             9137 	.byte	4
00000a42 01             9138 	.byte	1
00000a43 03             9139 	.byte	3

                                                                      Page 163
                                                              C:\Users\nhuliyap\AppData\Local\Temp\gh_00008uc1.s
00000a44 77             9140 	.byte	119
00000a45 02             9141 	.byte	2
00000a46 04             9142 	.byte	4
00000a47 01             9143 	.byte	1
00000a48 23             9144 	.byte	35
00000a49 23             9145 	.byte	35
00000a4a 23             9146 	.byte	35
00000a4b 23             9147 	.byte	35
00000a4c 23             9148 	.byte	35
00000a4d 23             9149 	.byte	35
00000a4e 23             9150 	.byte	35
00000a4f 23             9151 	.byte	35
00000a50 24             9152 	.byte	36
00000a51 03             9153 	.byte	3
00000a52 14             9154 	.byte	20
00000a53 02             9155 	.byte	2
00000a54 00             9156 	.byte	0
00000a55 01             9157 	.byte	1
00000a56 06             9158 	.byte	6
00000a57 03             9159 	.byte	3
00000a58 7f             9160 	.byte	127
00000a59 02             9161 	.byte	2
00000a5a 00             9162 	.byte	0
00000a5b 01             9163 	.byte	1
00000a5c 06             9164 	.byte	6
00000a5d 0c             9165 	.byte	12
00000a5e 03             9166 	.byte	3
00000a5f 09             9167 	.byte	9
00000a60 02             9168 	.byte	2
00000a61 00             9169 	.byte	0
00000a62 01             9170 	.byte	1
00000a63 0b             9171 	.byte	11
00000a64 0d             9172 	.byte	13
00000a65 02             9173 	.byte	2
00000a66 00             9174 	.byte	0
00000a67 0c             9175 	.byte	12
00000a68 0b             9176 	.byte	11
00000a69 0b             9177 	.byte	11
00000a6a 000502         9178 	.byte	0,5,2
00000a6d 00000000*      9179 	.word	.LDWlin66
00000a71 0b             9180 	.byte	11
00000a72 000502         9181 	.byte	0,5,2
00000a75 00000000*      9182 	.word	.LDWlin67
00000a79 0b             9183 	.byte	11
00000a7a 0b             9184 	.byte	11
00000a7b 000502         9185 	.byte	0,5,2
00000a7e 00000000*      9186 	.word	.LDWlin68
00000a82 0b             9187 	.byte	11
00000a83 02             9188 	.byte	2
00000a84 00             9189 	.byte	0
00000a85 0b             9190 	.byte	11
00000a86 000502         9191 	.byte	0,5,2
00000a89 00000000*      9192 	.word	.LDWlin69
00000a8d 0b             9193 	.byte	11
00000a8e 02             9194 	.byte	2
00000a8f 00             9195 	.byte	0
00000a90 0b             9196 	.byte	11
00000a91 02             9197 	.byte	2
00000a92 04             9198 	.byte	4
00000a93 000101         9199 	.byte	0,1,1
                        9200 	.section	.debug_info

                                                                      Page 164
                                                              C:\Users\nhuliyap\AppData\Local\Temp\gh_00008uc1.s
                        9201 .LDW_4d765c8:
00001c6d 0f             9202 	.byte	15
00001c6e 737052784461   9203 	.strz	"spRxDataIn"
00001c74 7461496e00 
00001c79 fc03           9204 	.byte	252,3
00001c7b 3a             9205 	.byte	58
00001c7c 01             9206 	.byte	1
00001c7d 00000000*      9207 	.word	.LDW_4d747e0
00001c81 00             9208 	.byte	0
00001c82 016c           9209 	.byte	1,108
                        9210 
                        9211 .LDW_4d76fa0:
00001c84 1d             9212 	.byte	29
00001c85 00000000*      9213 	.word	.LDW46
00001c89 00000000*      9214 	.word	.LDW56
                        9215 
                        9216 .LDW_4d766d0:
00001c8d 05             9217 	.byte	5
00001c8e 6c5f62446f49   9218 	.strz	"l_bDoIt"
00001c94 7400 
00001c96 fe03           9219 	.byte	254,3
00001c98 0b             9220 	.byte	11
00001c99 01             9221 	.byte	1
00001c9a 00000000*      9222 	.word	.LDW_4d76620
00001c9e 00             9223 	.byte	0
00001c9f 00             9224 	.byte	0
                        9225 
                        9226 .LDW_4d767d8:
00001ca0 04             9227 	.byte	4
00001ca1 6c5f62416e61   9228 	.strz	"l_bAnalyseTelegram"
00001ca7 6c7973655465 
00001cad 6c656772616d 
00001cb3 00 
00001cb4 ff03           9229 	.byte	255,3
00001cb6 0b             9230 	.byte	11
00001cb7 01             9231 	.byte	1
00001cb8 00000000*      9232 	.word	.LDW_4d76620
00001cbc 00             9233 	.byte	0
00001cbd 00             9234 	.byte	0
00001cbe 016a           9235 	.byte	1,106
                        9236 
                        9237 .LDW_4d76728:
00001cc0 04             9238 	.byte	4
00001cc1 6c5f75635465   9239 	.strz	"l_ucTelType"
00001cc7 6c5479706500 
00001ccd 8004           9240 	.byte	128,4
00001ccf 0a             9241 	.byte	10
00001cd0 01             9242 	.byte	1
00001cd1 00000000*      9243 	.word	.LDW_48ee8e8
00001cd5 00             9244 	.byte	0
00001cd6 00             9245 	.byte	0
00001cd7 016b           9246 	.byte	1,107
                        9247 
00001cd9 00             9248 	.byte	0
                        9249 
00001cda 00             9250 	.byte	0
                        9251 
                        9252 .LDW_4d75710:
00001cdb 13             9253 	.byte	19
00001cdc 525353494261   9254 	.strz	"RSSIBalancePD"
00001ce2 6c616e636550 

                                                                      Page 165
                                                              C:\Users\nhuliyap\AppData\Local\Temp\gh_00008uc1.s
00001ce8 4400 
00001cea 9b05           9255 	.byte	155,5
00001cec 06             9256 	.byte	6
00001ced 01             9257 	.byte	1
00001cee 00000000*      9258 	.word	_RSSIBalancePD
00001cf2 00000000*      9259 	.word	___ghs_eofn_RSSIBalancePD
00001cf6 0153           9260 	.byte	1,83
00001cf8 02             9261 	.byte	2
00001cf9 00             9262 	.byte	0
00001cfa 02             9263 	.byte	2
00001cfb 00             9264 	.byte	0
00001cfc 00             9265 	.byte	0
00001cfd 00             9266 	.byte	0
00001cfe 00             9267 	.byte	0
00001cff 01             9268 	.byte	1
00001d00 01             9269 	.byte	1
00001d01 00             9270 	.byte	0
00001d02 01             9271 	.byte	1
                        9272 
                        9273 	.section	.debug_frame
                        9274 .LDW_4c21498:
00000334 00000000*      9275 	.word	.LDW_unq_3a-.LDW_unq_39
                        9276 .LDW_unq_39:
00000338 00000000*      9277 	.word	.LDW_4d1b500
0000033c 00000000*      9278 	.word	_RSSIBalancePD
00000340 00000000*      9279 	.word	___ghs_eofn_RSSIBalancePD-_RSSIBalancePD
00000344 01             9280 	.byte	1
00000345 00000000*      9281 	.word	.LDW76
00000349 00             9282 	.byte	0
0000034a 00             9283 	.byte	0
0000034b 00             9284 	.byte	0
                        9285 .LDW_unq_3a:
                        9286 	.section	.debug_line
00000a96 000502         9287 	.byte	0,5,2
00000a99 00000000*      9288 	.word	_RSSIBalancePD
00000a9d 03             9289 	.byte	3
00000a9e 9b05           9290 	.byte	155,5
00000aa0 02             9291 	.byte	2
00000aa1 00             9292 	.byte	0
00000aa2 01             9293 	.byte	1
00000aa3 06             9294 	.byte	6
00000aa4 000502         9295 	.byte	0,5,2
00000aa7 00000000*      9296 	.word	.LDWlin70
00000aab 03             9297 	.byte	3
00000aac 12             9298 	.byte	18
00000aad 02             9299 	.byte	2
00000aae 00             9300 	.byte	0
00000aaf 01             9301 	.byte	1
00000ab0 43             9302 	.byte	67
00000ab1 0c             9303 	.byte	12
00000ab2 0b             9304 	.byte	11
00000ab3 0b             9305 	.byte	11
00000ab4 13             9306 	.byte	19
00000ab5 02             9307 	.byte	2
00000ab6 00             9308 	.byte	0
00000ab7 0b             9309 	.byte	11
00000ab8 02             9310 	.byte	2
00000ab9 02             9311 	.byte	2
00000aba 000101         9312 	.byte	0,1,1
                        9313 	.section	.debug_info
                        9314 .LDW_4d76780:

                                                                      Page 166
                                                              C:\Users\nhuliyap\AppData\Local\Temp\gh_00008uc1.s
00001d03 0f             9315 	.byte	15
00001d04 75634f666673   9316 	.strz	"ucOffsetVal"
00001d0a 657456616c00 
00001d10 9b05           9317 	.byte	155,5
00001d12 1b             9318 	.byte	27
00001d13 01             9319 	.byte	1
00001d14 00000000*      9320 	.word	.LDW_48ee8e8
00001d18 00             9321 	.byte	0
00001d19 0156           9322 	.byte	1,86
                        9323 
                        9324 .LDW_4d76df0:
00001d1b 1d             9325 	.byte	29
00001d1c 00000000*      9326 	.word	.LDW66
00001d20 00000000*      9327 	.word	.LDW76
                        9328 
00001d24 00             9329 	.byte	0
                        9330 
00001d25 00             9331 	.byte	0
                        9332 
                        9333 .LDW_4d75f60:
00001d26 13             9334 	.byte	19
00001d27 436c65617252   9335 	.strz	"ClearReDataInSlotPD"
00001d2d 654461746149 
00001d33 6e536c6f7450 
00001d39 4400 
00001d3b b705           9336 	.byte	183,5
00001d3d 06             9337 	.byte	6
00001d3e 01             9338 	.byte	1
00001d3f 00000000*      9339 	.word	_ClearReDataInSlotPD
00001d43 00000000*      9340 	.word	___ghs_eofn_ClearReDataInSlotPD
00001d47 0153           9341 	.byte	1,83
00001d49 02             9342 	.byte	2
00001d4a 00             9343 	.byte	0
00001d4b 02             9344 	.byte	2
00001d4c 00             9345 	.byte	0
00001d4d 00             9346 	.byte	0
00001d4e 00             9347 	.byte	0
00001d4f 00             9348 	.byte	0
00001d50 01             9349 	.byte	1
00001d51 01             9350 	.byte	1
00001d52 00             9351 	.byte	0
00001d53 01             9352 	.byte	1
                        9353 
                        9354 	.section	.debug_frame
                        9355 .LDW_4c21658:
0000034c 00000000*      9356 	.word	.LDW_unq_3c-.LDW_unq_3b
                        9357 .LDW_unq_3b:
00000350 00000000*      9358 	.word	.LDW_4d1b500
00000354 00000000*      9359 	.word	_ClearReDataInSlotPD
00000358 00000000*      9360 	.word	___ghs_eofn_ClearReDataInSlotPD-_ClearReDataInSlotPD
0000035c 01             9361 	.byte	1
0000035d 00000000*      9362 	.word	.LDW96
00000361 00             9363 	.byte	0
00000362 00             9364 	.byte	0
00000363 00             9365 	.byte	0
                        9366 .LDW_unq_3c:
                        9367 	.section	.debug_line
00000abd 000502         9368 	.byte	0,5,2
00000ac0 00000000*      9369 	.word	_ClearReDataInSlotPD
00000ac4 03             9370 	.byte	3
00000ac5 b705           9371 	.byte	183,5

                                                                      Page 167
                                                              C:\Users\nhuliyap\AppData\Local\Temp\gh_00008uc1.s
00000ac7 02             9372 	.byte	2
00000ac8 00             9373 	.byte	0
00000ac9 01             9374 	.byte	1
00000aca 06             9375 	.byte	6
00000acb 000502         9376 	.byte	0,5,2
00000ace 00000000*      9377 	.word	.LDWlin71
00000ad2 0b             9378 	.byte	11
00000ad3 23             9379 	.byte	35
00000ad4 1b             9380 	.byte	27
00000ad5 2b             9381 	.byte	43
00000ad6 03             9382 	.byte	3
00000ad7 06             9383 	.byte	6
00000ad8 02             9384 	.byte	2
00000ad9 02             9385 	.byte	2
00000ada 01             9386 	.byte	1
00000adb 13             9387 	.byte	19
00000adc 13             9388 	.byte	19
00000add 03             9389 	.byte	3
00000ade 06             9390 	.byte	6
00000adf 02             9391 	.byte	2
00000ae0 08             9392 	.byte	8
00000ae1 01             9393 	.byte	1
00000ae2 02             9394 	.byte	2
00000ae3 02             9395 	.byte	2
00000ae4 000101         9396 	.byte	0,1,1
                        9397 	.section	.debug_info
                        9398 .LDW_4d76830:
00001d54 0f             9399 	.byte	15
00001d55 75635a6f6d53   9400 	.strz	"ucZomSlot"
00001d5b 6c6f7400 
00001d5f b705           9401 	.byte	183,5
00001d61 21             9402 	.byte	33
00001d62 01             9403 	.byte	1
00001d63 00000000*      9404 	.word	.LDW_48ee8e8
00001d67 00             9405 	.byte	0
00001d68 0156           9406 	.byte	1,86
                        9407 
                        9408 .LDW_4d77030:
00001d6a 1d             9409 	.byte	29
00001d6b 00000000*      9410 	.word	.LDW86
00001d6f 00000000*      9411 	.word	.LDW96
                        9412 
00001d73 00             9413 	.byte	0
                        9414 
00001d74 00             9415 	.byte	0
                        9416 
                        9417 .LDW_4d75970:
00001d75 14             9418 	.byte	20
00001d76 474554756352   9419 	.strz	"GETucReifendruckPD"
00001d7c 656966656e64 
00001d82 7275636b5044 
00001d88 00 
00001d89 cc05           9420 	.byte	204,5
00001d8b 07             9421 	.byte	7
00001d8c 01             9422 	.byte	1
00001d8d 00000000*      9423 	.word	.LDW_48ee8e8
00001d91 00000000*      9424 	.word	_GETucReifendruckPD
00001d95 00000000*      9425 	.word	___ghs_eofn_GETucReifendruckPD
00001d99 0153           9426 	.byte	1,83
00001d9b 02             9427 	.byte	2
00001d9c 00             9428 	.byte	0

                                                                      Page 168
                                                              C:\Users\nhuliyap\AppData\Local\Temp\gh_00008uc1.s
00001d9d 02             9429 	.byte	2
00001d9e 00             9430 	.byte	0
00001d9f 00             9431 	.byte	0
00001da0 00             9432 	.byte	0
00001da1 00             9433 	.byte	0
00001da2 01             9434 	.byte	1
00001da3 01             9435 	.byte	1
00001da4 00             9436 	.byte	0
00001da5 01             9437 	.byte	1
                        9438 
                        9439 	.section	.debug_frame
                        9440 .LDW_4c21758:
00000364 00000000*      9441 	.word	.LDW_unq_3e-.LDW_unq_3d
                        9442 .LDW_unq_3d:
00000368 00000000*      9443 	.word	.LDW_4d1b500
0000036c 00000000*      9444 	.word	_GETucReifendruckPD
00000370 00000000*      9445 	.word	___ghs_eofn_GETucReifendruckPD-_GETucReifendruckPD
00000374 01             9446 	.byte	1
00000375 00000000*      9447 	.word	.LDW17
00000379 00             9448 	.byte	0
0000037a 00             9449 	.byte	0
0000037b 00             9450 	.byte	0
                        9451 .LDW_unq_3e:
                        9452 	.section	.debug_line
00000ae7 000502         9453 	.byte	0,5,2
00000aea 00000000*      9454 	.word	_GETucReifendruckPD
00000aee 03             9455 	.byte	3
00000aef cc05           9456 	.byte	204,5
00000af1 02             9457 	.byte	2
00000af2 00             9458 	.byte	0
00000af3 01             9459 	.byte	1
00000af4 06             9460 	.byte	6
00000af5 1b             9461 	.byte	27
00000af6 06             9462 	.byte	6
00000af7 000502         9463 	.byte	0,5,2
00000afa 00000000*      9464 	.word	.LDWlin72
00000afe 02             9465 	.byte	2
00000aff 00             9466 	.byte	0
00000b00 02             9467 	.byte	2
00000b01 02             9468 	.byte	2
00000b02 000101         9469 	.byte	0,1,1
                        9470 	.section	.debug_info
                        9471 .LDW_4d87d38:
00001da6 0f             9472 	.byte	15
00001da7 75635a6f6d53   9473 	.strz	"ucZomSlot"
00001dad 6c6f7400 
00001db1 cc05           9474 	.byte	204,5
00001db3 22             9475 	.byte	34
00001db4 01             9476 	.byte	1
00001db5 00000000*      9477 	.word	.LDW_48ee8e8
00001db9 00             9478 	.byte	0
00001dba 0156           9479 	.byte	1,86
                        9480 
                        9481 .LDW_4d76eb0:
00001dbc 1d             9482 	.byte	29
00001dbd 00000000*      9483 	.word	.LDW07
00001dc1 00000000*      9484 	.word	.LDW17
                        9485 
00001dc5 00             9486 	.byte	0
                        9487 
00001dc6 00             9488 	.byte	0

                                                                      Page 169
                                                              C:\Users\nhuliyap\AppData\Local\Temp\gh_00008uc1.s
                        9489 
                        9490 .LDW_4d76090:
00001dc7 13             9491 	.byte	19
00001dc8 505554756352   9492 	.strz	"PUTucReifendruckPD"
00001dce 656966656e64 
00001dd4 7275636b5044 
00001dda 00 
00001ddb d105           9493 	.byte	209,5
00001ddd 06             9494 	.byte	6
00001dde 01             9495 	.byte	1
00001ddf 00000000*      9496 	.word	_PUTucReifendruckPD
00001de3 00000000*      9497 	.word	___ghs_eofn_PUTucReifendruckPD
00001de7 0153           9498 	.byte	1,83
00001de9 828080800a     9499 	.byte	130,128,128,128,10
00001dee 08             9500 	.byte	8
00001def 03             9501 	.byte	3
00001df0 08             9502 	.byte	8
00001df1 00             9503 	.byte	0
00001df2 00             9504 	.byte	0
00001df3 00             9505 	.byte	0
00001df4 01             9506 	.byte	1
00001df5 01             9507 	.byte	1
00001df6 00             9508 	.byte	0
00001df7 01             9509 	.byte	1
                        9510 
                        9511 	.section	.debug_frame
                        9512 .LDW_4c217d8:
0000037c 00000000*      9513 	.word	.LDW_unq_40-.LDW_unq_3f
                        9514 .LDW_unq_3f:
00000380 00000000*      9515 	.word	.LDW_4d1b500
00000384 00000000*      9516 	.word	_PUTucReifendruckPD
00000388 00000000*      9517 	.word	___ghs_eofn_PUTucReifendruckPD-_PUTucReifendruckPD
0000038c 48             9518 	.byte	72
0000038d 9f             9519 	.byte	159
0000038e 00             9520 	.byte	0
0000038f 40             9521 	.byte	64
00000390 9d             9522 	.byte	157
00000391 04             9523 	.byte	4
00000392 01             9524 	.byte	1
00000393 00000000*      9525 	.word	.LDW37
00000397 00             9526 	.byte	0
                        9527 .LDW_unq_40:
                        9528 	.section	.debug_line
00000b05 000502         9529 	.byte	0,5,2
00000b08 00000000*      9530 	.word	_PUTucReifendruckPD
00000b0c 03             9531 	.byte	3
00000b0d d105           9532 	.byte	209,5
00000b0f 02             9533 	.byte	2
00000b10 00             9534 	.byte	0
00000b11 01             9535 	.byte	1
00000b12 06             9536 	.byte	6
00000b13 4d             9537 	.byte	77
00000b14 1c             9538 	.byte	28
00000b15 000502         9539 	.byte	0,5,2
00000b18 00000000*      9540 	.word	.LDWlin73
00000b1c 0b             9541 	.byte	11
00000b1d 000502         9542 	.byte	0,5,2
00000b20 00000000*      9543 	.word	.LDWlin74
00000b24 03             9544 	.byte	3
00000b25 0f             9545 	.byte	15
00000b26 02             9546 	.byte	2

                                                                      Page 170
                                                              C:\Users\nhuliyap\AppData\Local\Temp\gh_00008uc1.s
00000b27 00             9547 	.byte	0
00000b28 01             9548 	.byte	1
00000b29 000502         9549 	.byte	0,5,2
00000b2c 00000000*      9550 	.word	.LDWlin75
00000b30 0b             9551 	.byte	11
00000b31 000502         9552 	.byte	0,5,2
00000b34 00000000*      9553 	.word	.LDWlin76
00000b38 03             9554 	.byte	3
00000b39 73             9555 	.byte	115
00000b3a 02             9556 	.byte	2
00000b3b 00             9557 	.byte	0
00000b3c 01             9558 	.byte	1
00000b3d 000502         9559 	.byte	0,5,2
00000b40 00000000*      9560 	.word	.LDWlin77
00000b44 0b             9561 	.byte	11
00000b45 000502         9562 	.byte	0,5,2
00000b48 00000000*      9563 	.word	.LDWlin78
00000b4c 0d             9564 	.byte	13
00000b4d 000502         9565 	.byte	0,5,2
00000b50 00000000*      9566 	.word	.LDWlin79
00000b54 0b             9567 	.byte	11
00000b55 000502         9568 	.byte	0,5,2
00000b58 00000000*      9569 	.word	.LDWlin80
00000b5c 0d             9570 	.byte	13
00000b5d 000502         9571 	.byte	0,5,2
00000b60 00000000*      9572 	.word	.LDWlin81
00000b64 0b             9573 	.byte	11
00000b65 03             9574 	.byte	3
00000b66 06             9575 	.byte	6
00000b67 02             9576 	.byte	2
00000b68 00             9577 	.byte	0
00000b69 01             9578 	.byte	1
00000b6a 0b             9579 	.byte	11
00000b6b 0b             9580 	.byte	11
00000b6c 0b             9581 	.byte	11
00000b6d 02             9582 	.byte	2
00000b6e 04             9583 	.byte	4
00000b6f 000101         9584 	.byte	0,1,1
                        9585 	.section	.debug_info
                        9586 .LDW_4d87e98:
00001df8 0f             9587 	.byte	15
00001df9 7563496e4461   9588 	.strz	"ucInData"
00001dff 746100 
00001e02 d105           9589 	.byte	209,5
00001e04 21             9590 	.byte	33
00001e05 01             9591 	.byte	1
00001e06 00000000*      9592 	.word	.LDW_48ee8e8
00001e0a 00             9593 	.byte	0
00001e0b 016d           9594 	.byte	1,109
                        9595 
                        9596 .LDW_4d88310:
00001e0d 0f             9597 	.byte	15
00001e0e 75635a6f6d53   9598 	.strz	"ucZomSlot"
00001e14 6c6f7400 
00001e18 d105           9599 	.byte	209,5
00001e1a 31             9600 	.byte	49
00001e1b 01             9601 	.byte	1
00001e1c 00000000*      9602 	.word	.LDW_48ee8e8
00001e20 00             9603 	.byte	0
00001e21 0157           9604 	.byte	1,87
                        9605 

                                                                      Page 171
                                                              C:\Users\nhuliyap\AppData\Local\Temp\gh_00008uc1.s
                        9606 .LDW_4d76c40:
00001e23 1d             9607 	.byte	29
00001e24 00000000*      9608 	.word	.LDW27
00001e28 00000000*      9609 	.word	.LDW37
                        9610 
                        9611 .LDW_4d87ef0:
00001e2c 05             9612 	.byte	5
00001e2d 756357686565   9613 	.strz	"ucWheelPosition"
00001e33 6c506f736974 
00001e39 696f6e00 
00001e3d d305           9614 	.byte	211,5
00001e3f 09             9615 	.byte	9
00001e40 01             9616 	.byte	1
00001e41 00000000*      9617 	.word	.LDW_48ee8e8
00001e45 00             9618 	.byte	0
00001e46 00             9619 	.byte	0
                        9620 
00001e47 00             9621 	.byte	0
                        9622 
00001e48 00             9623 	.byte	0
                        9624 
                        9625 .LDW_4d75aa0:
00001e49 14             9626 	.byte	20
00001e4a 474554736354   9627 	.strz	"GETscTemperaturPD"
00001e50 656d70657261 
00001e56 747572504400 
00001e5c ef05           9628 	.byte	239,5
00001e5e 07             9629 	.byte	7
00001e5f 01             9630 	.byte	1
00001e60 00000000*      9631 	.word	.LDW_4d75048
00001e64 00000000*      9632 	.word	_GETscTemperaturPD
00001e68 00000000*      9633 	.word	___ghs_eofn_GETscTemperaturPD
00001e6c 0153           9634 	.byte	1,83
00001e6e 02             9635 	.byte	2
00001e6f 00             9636 	.byte	0
00001e70 02             9637 	.byte	2
00001e71 00             9638 	.byte	0
00001e72 00             9639 	.byte	0
00001e73 00             9640 	.byte	0
00001e74 00             9641 	.byte	0
00001e75 01             9642 	.byte	1
00001e76 01             9643 	.byte	1
00001e77 00             9644 	.byte	0
00001e78 01             9645 	.byte	1
                        9646 
                        9647 	.section	.debug_frame
                        9648 .LDW_4c20d58:
00000398 00000000*      9649 	.word	.LDW_unq_42-.LDW_unq_41
                        9650 .LDW_unq_41:
0000039c 00000000*      9651 	.word	.LDW_4d1b500
000003a0 00000000*      9652 	.word	_GETscTemperaturPD
000003a4 00000000*      9653 	.word	___ghs_eofn_GETscTemperaturPD-_GETscTemperaturPD
000003a8 01             9654 	.byte	1
000003a9 00000000*      9655 	.word	.LDW57
000003ad 00             9656 	.byte	0
000003ae 00             9657 	.byte	0
000003af 00             9658 	.byte	0
                        9659 .LDW_unq_42:
                        9660 	.section	.debug_line
00000b72 000502         9661 	.byte	0,5,2
00000b75 00000000*      9662 	.word	_GETscTemperaturPD

                                                                      Page 172
                                                              C:\Users\nhuliyap\AppData\Local\Temp\gh_00008uc1.s
00000b79 03             9663 	.byte	3
00000b7a ef05           9664 	.byte	239,5
00000b7c 02             9665 	.byte	2
00000b7d 00             9666 	.byte	0
00000b7e 01             9667 	.byte	1
00000b7f 06             9668 	.byte	6
00000b80 1b             9669 	.byte	27
00000b81 06             9670 	.byte	6
00000b82 000502         9671 	.byte	0,5,2
00000b85 00000000*      9672 	.word	.LDWlin82
00000b89 02             9673 	.byte	2
00000b8a 00             9674 	.byte	0
00000b8b 02             9675 	.byte	2
00000b8c 02             9676 	.byte	2
00000b8d 000101         9677 	.byte	0,1,1
                        9678 	.section	.debug_info
                        9679 .LDW_4d87f48:
00001e79 0f             9680 	.byte	15
00001e7a 75635a6f6d53   9681 	.strz	"ucZomSlot"
00001e80 6c6f7400 
00001e84 ef05           9682 	.byte	239,5
00001e86 20             9683 	.byte	32
00001e87 01             9684 	.byte	1
00001e88 00000000*      9685 	.word	.LDW_48ee8e8
00001e8c 00             9686 	.byte	0
00001e8d 0156           9687 	.byte	1,86
                        9688 
                        9689 .LDW_4d76ca0:
00001e8f 1d             9690 	.byte	29
00001e90 00000000*      9691 	.word	.LDW47
00001e94 00000000*      9692 	.word	.LDW57
                        9693 
00001e98 00             9694 	.byte	0
                        9695 
00001e99 00             9696 	.byte	0
                        9697 
                        9698 .LDW_4d75d00:
00001e9a 13             9699 	.byte	19
00001e9b 505554736354   9700 	.strz	"PUTscTemperaturPD"
00001ea1 656d70657261 
00001ea7 747572504400 
00001ead f405           9701 	.byte	244,5
00001eaf 06             9702 	.byte	6
00001eb0 01             9703 	.byte	1
00001eb1 00000000*      9704 	.word	_PUTscTemperaturPD
00001eb5 00000000*      9705 	.word	___ghs_eofn_PUTscTemperaturPD
00001eb9 0153           9706 	.byte	1,83
00001ebb 828080800a     9707 	.byte	130,128,128,128,10
00001ec0 08             9708 	.byte	8
00001ec1 03             9709 	.byte	3
00001ec2 08             9710 	.byte	8
00001ec3 00             9711 	.byte	0
00001ec4 00             9712 	.byte	0
00001ec5 00             9713 	.byte	0
00001ec6 01             9714 	.byte	1
00001ec7 01             9715 	.byte	1
00001ec8 00             9716 	.byte	0
00001ec9 01             9717 	.byte	1
                        9718 
                        9719 	.section	.debug_frame
                        9720 .LDW_4c211d8:

                                                                      Page 173
                                                              C:\Users\nhuliyap\AppData\Local\Temp\gh_00008uc1.s
000003b0 00000000*      9721 	.word	.LDW_unq_44-.LDW_unq_43
                        9722 .LDW_unq_43:
000003b4 00000000*      9723 	.word	.LDW_4d1b500
000003b8 00000000*      9724 	.word	_PUTscTemperaturPD
000003bc 00000000*      9725 	.word	___ghs_eofn_PUTscTemperaturPD-_PUTscTemperaturPD
000003c0 48             9726 	.byte	72
000003c1 9f             9727 	.byte	159
000003c2 00             9728 	.byte	0
000003c3 40             9729 	.byte	64
000003c4 9d             9730 	.byte	157
000003c5 04             9731 	.byte	4
000003c6 01             9732 	.byte	1
000003c7 00000000*      9733 	.word	.LDW77
000003cb 00             9734 	.byte	0
                        9735 .LDW_unq_44:
                        9736 	.section	.debug_line
00000b90 000502         9737 	.byte	0,5,2
00000b93 00000000*      9738 	.word	_PUTscTemperaturPD
00000b97 03             9739 	.byte	3
00000b98 f405           9740 	.byte	244,5
00000b9a 02             9741 	.byte	2
00000b9b 00             9742 	.byte	0
00000b9c 01             9743 	.byte	1
00000b9d 06             9744 	.byte	6
00000b9e 45             9745 	.byte	69
00000b9f 1c             9746 	.byte	28
00000ba0 000502         9747 	.byte	0,5,2
00000ba3 00000000*      9748 	.word	.LDWlin83
00000ba7 0b             9749 	.byte	11
00000ba8 000502         9750 	.byte	0,5,2
00000bab 00000000*      9751 	.word	.LDWlin84
00000baf 03             9752 	.byte	3
00000bb0 0f             9753 	.byte	15
00000bb1 02             9754 	.byte	2
00000bb2 00             9755 	.byte	0
00000bb3 01             9756 	.byte	1
00000bb4 000502         9757 	.byte	0,5,2
00000bb7 00000000*      9758 	.word	.LDWlin85
00000bbb 0b             9759 	.byte	11
00000bbc 000502         9760 	.byte	0,5,2
00000bbf 00000000*      9761 	.word	.LDWlin86
00000bc3 03             9762 	.byte	3
00000bc4 73             9763 	.byte	115
00000bc5 02             9764 	.byte	2
00000bc6 00             9765 	.byte	0
00000bc7 01             9766 	.byte	1
00000bc8 000502         9767 	.byte	0,5,2
00000bcb 00000000*      9768 	.word	.LDWlin87
00000bcf 0b             9769 	.byte	11
00000bd0 000502         9770 	.byte	0,5,2
00000bd3 00000000*      9771 	.word	.LDWlin88
00000bd7 0d             9772 	.byte	13
00000bd8 000502         9773 	.byte	0,5,2
00000bdb 00000000*      9774 	.word	.LDWlin89
00000bdf 0b             9775 	.byte	11
00000be0 000502         9776 	.byte	0,5,2
00000be3 00000000*      9777 	.word	.LDWlin90
00000be7 0d             9778 	.byte	13
00000be8 000502         9779 	.byte	0,5,2
00000beb 00000000*      9780 	.word	.LDWlin91
00000bef 0b             9781 	.byte	11

                                                                      Page 174
                                                              C:\Users\nhuliyap\AppData\Local\Temp\gh_00008uc1.s
00000bf0 03             9782 	.byte	3
00000bf1 06             9783 	.byte	6
00000bf2 02             9784 	.byte	2
00000bf3 00             9785 	.byte	0
00000bf4 01             9786 	.byte	1
00000bf5 0b             9787 	.byte	11
00000bf6 0b             9788 	.byte	11
00000bf7 0b             9789 	.byte	11
00000bf8 02             9790 	.byte	2
00000bf9 04             9791 	.byte	4
00000bfa 000101         9792 	.byte	0,1,1
                        9793 	.section	.debug_info
                        9794 .LDW_4d883c0:
00001eca 0f             9795 	.byte	15
00001ecb 7363496e4461   9796 	.strz	"scInData"
00001ed1 746100 
00001ed4 f405           9797 	.byte	244,5
00001ed6 1f             9798 	.byte	31
00001ed7 01             9799 	.byte	1
00001ed8 00000000*      9800 	.word	.LDW_4d75048
00001edc 00             9801 	.byte	0
00001edd 016d           9802 	.byte	1,109
                        9803 
                        9804 .LDW_4d88100:
00001edf 0f             9805 	.byte	15
00001ee0 75635a6f6d53   9806 	.strz	"ucZomSlot"
00001ee6 6c6f7400 
00001eea f405           9807 	.byte	244,5
00001eec 2f             9808 	.byte	47
00001eed 01             9809 	.byte	1
00001eee 00000000*      9810 	.word	.LDW_48ee8e8
00001ef2 00             9811 	.byte	0
00001ef3 0157           9812 	.byte	1,87
                        9813 
                        9814 .LDW_4d77090:
00001ef5 1d             9815 	.byte	29
00001ef6 00000000*      9816 	.word	.LDW67
00001efa 00000000*      9817 	.word	.LDW77
                        9818 
                        9819 .LDW_4d88208:
00001efe 05             9820 	.byte	5
00001eff 756357686565   9821 	.strz	"ucWheelPosition"
00001f05 6c506f736974 
00001f0b 696f6e00 
00001f0f f605           9822 	.byte	246,5
00001f11 09             9823 	.byte	9
00001f12 01             9824 	.byte	1
00001f13 00000000*      9825 	.word	.LDW_48ee8e8
00001f17 00             9826 	.byte	0
00001f18 00             9827 	.byte	0
                        9828 
00001f19 00             9829 	.byte	0
                        9830 
00001f1a 00             9831 	.byte	0
                        9832 
                        9833 .LDW_4d75250:
00001f1b 14             9834 	.byte	20
00001f1c 474554756352   9835 	.strz	"GETucRestlebensdauerPD"
00001f22 6573746c6562 
00001f28 656e73646175 
00001f2e 6572504400 

                                                                      Page 175
                                                              C:\Users\nhuliyap\AppData\Local\Temp\gh_00008uc1.s
00001f33 9206           9836 	.byte	146,6
00001f35 07             9837 	.byte	7
00001f36 01             9838 	.byte	1
00001f37 00000000*      9839 	.word	.LDW_48ee8e8
00001f3b 00000000*      9840 	.word	_GETucRestlebensdauerPD
00001f3f 00000000*      9841 	.word	___ghs_eofn_GETucRestlebensdauerPD
00001f43 0153           9842 	.byte	1,83
00001f45 02             9843 	.byte	2
00001f46 00             9844 	.byte	0
00001f47 02             9845 	.byte	2
00001f48 00             9846 	.byte	0
00001f49 00             9847 	.byte	0
00001f4a 00             9848 	.byte	0
00001f4b 00             9849 	.byte	0
00001f4c 01             9850 	.byte	1
00001f4d 01             9851 	.byte	1
00001f4e 00             9852 	.byte	0
00001f4f 01             9853 	.byte	1
                        9854 
                        9855 	.section	.debug_frame
                        9856 .LDW_4c20d98:
000003cc 00000000*      9857 	.word	.LDW_unq_46-.LDW_unq_45
                        9858 .LDW_unq_45:
000003d0 00000000*      9859 	.word	.LDW_4d1b500
000003d4 00000000*      9860 	.word	_GETucRestlebensdauerPD
000003d8 00000000*      9861 	.word	___ghs_eofn_GETucRestlebensdauerPD-_GETucRestlebensdauerPD
000003dc 01             9862 	.byte	1
000003dd 00000000*      9863 	.word	.LDW97
000003e1 00             9864 	.byte	0
000003e2 00             9865 	.byte	0
000003e3 00             9866 	.byte	0
                        9867 .LDW_unq_46:
                        9868 	.section	.debug_line
00000bfd 000502         9869 	.byte	0,5,2
00000c00 00000000*      9870 	.word	_GETucRestlebensdauerPD
00000c04 03             9871 	.byte	3
00000c05 9206           9872 	.byte	146,6
00000c07 02             9873 	.byte	2
00000c08 00             9874 	.byte	0
00000c09 01             9875 	.byte	1
00000c0a 06             9876 	.byte	6
00000c0b 1b             9877 	.byte	27
00000c0c 06             9878 	.byte	6
00000c0d 000502         9879 	.byte	0,5,2
00000c10 00000000*      9880 	.word	.LDWlin92
00000c14 02             9881 	.byte	2
00000c15 00             9882 	.byte	0
00000c16 02             9883 	.byte	2
00000c17 02             9884 	.byte	2
00000c18 000101         9885 	.byte	0,1,1
                        9886 	.section	.debug_info
                        9887 .LDW_4d88158:
00001f50 0f             9888 	.byte	15
00001f51 75635a6f6d53   9889 	.strz	"ucZomSlot"
00001f57 6c6f7400 
00001f5b 9206           9890 	.byte	146,6
00001f5d 25             9891 	.byte	37
00001f5e 01             9892 	.byte	1
00001f5f 00000000*      9893 	.word	.LDW_48ee8e8
00001f63 00             9894 	.byte	0
00001f64 0156           9895 	.byte	1,86

                                                                      Page 176
                                                              C:\Users\nhuliyap\AppData\Local\Temp\gh_00008uc1.s
                        9896 
                        9897 .LDW_4d76af0:
00001f66 1d             9898 	.byte	29
00001f67 00000000*      9899 	.word	.LDW87
00001f6b 00000000*      9900 	.word	.LDW97
                        9901 
00001f6f 00             9902 	.byte	0
                        9903 
00001f70 00             9904 	.byte	0
                        9905 
                        9906 .LDW_4d75d98:
00001f71 13             9907 	.byte	19
00001f72 505554756352   9908 	.strz	"PUTucRestlebensdauerPD"
00001f78 6573746c6562 
00001f7e 656e73646175 
00001f84 6572504400 
00001f89 9706           9909 	.byte	151,6
00001f8b 06             9910 	.byte	6
00001f8c 01             9911 	.byte	1
00001f8d 00000000*      9912 	.word	_PUTucRestlebensdauerPD
00001f91 00000000*      9913 	.word	___ghs_eofn_PUTucRestlebensdauerPD
00001f95 0153           9914 	.byte	1,83
00001f97 02             9915 	.byte	2
00001f98 00             9916 	.byte	0
00001f99 02             9917 	.byte	2
00001f9a 00             9918 	.byte	0
00001f9b 00             9919 	.byte	0
00001f9c 00             9920 	.byte	0
00001f9d 00             9921 	.byte	0
00001f9e 01             9922 	.byte	1
00001f9f 01             9923 	.byte	1
00001fa0 00             9924 	.byte	0
00001fa1 01             9925 	.byte	1
                        9926 
                        9927 	.section	.debug_frame
                        9928 .LDW_4c20dd8:
000003e4 00000000*      9929 	.word	.LDW_unq_48-.LDW_unq_47
                        9930 .LDW_unq_47:
000003e8 00000000*      9931 	.word	.LDW_4d1b500
000003ec 00000000*      9932 	.word	_PUTucRestlebensdauerPD
000003f0 00000000*      9933 	.word	___ghs_eofn_PUTucRestlebensdauerPD-_PUTucRestlebensdauerPD
000003f4 01             9934 	.byte	1
000003f5 00000000*      9935 	.word	.LDW18
000003f9 00             9936 	.byte	0
000003fa 00             9937 	.byte	0
000003fb 00             9938 	.byte	0
                        9939 .LDW_unq_48:
                        9940 	.section	.debug_line
00000c1b 000502         9941 	.byte	0,5,2
00000c1e 00000000*      9942 	.word	_PUTucRestlebensdauerPD
00000c22 03             9943 	.byte	3
00000c23 9706           9944 	.byte	151,6
00000c25 02             9945 	.byte	2
00000c26 00             9946 	.byte	0
00000c27 01             9947 	.byte	1
00000c28 06             9948 	.byte	6
00000c29 1b             9949 	.byte	27
00000c2a 000502         9950 	.byte	0,5,2
00000c2d 00000000*      9951 	.word	.LDWlin93
00000c31 0b             9952 	.byte	11
00000c32 02             9953 	.byte	2

                                                                      Page 177
                                                              C:\Users\nhuliyap\AppData\Local\Temp\gh_00008uc1.s
00000c33 02             9954 	.byte	2
00000c34 000101         9955 	.byte	0,1,1
                        9956 	.section	.debug_info
                        9957 .LDW_4d87fa0:
00001fa2 0f             9958 	.byte	15
00001fa3 7563496e4461   9959 	.strz	"ucInData"
00001fa9 746100 
00001fac 9706           9960 	.byte	151,6
00001fae 24             9961 	.byte	36
00001faf 01             9962 	.byte	1
00001fb0 00000000*      9963 	.word	.LDW_48ee8e8
00001fb4 00             9964 	.byte	0
00001fb5 0156           9965 	.byte	1,86
                        9966 
                        9967 .LDW_4d882b8:
00001fb7 0f             9968 	.byte	15
00001fb8 75635a6f6d53   9969 	.strz	"ucZomSlot"
00001fbe 6c6f7400 
00001fc2 9706           9970 	.byte	151,6
00001fc4 34             9971 	.byte	52
00001fc5 01             9972 	.byte	1
00001fc6 00000000*      9973 	.word	.LDW_48ee8e8
00001fca 00             9974 	.byte	0
00001fcb 0157           9975 	.byte	1,87
                        9976 
                        9977 .LDW_4d76be0:
00001fcd 1d             9978 	.byte	29
00001fce 00000000*      9979 	.word	.LDW08
00001fd2 00000000*      9980 	.word	.LDW18
                        9981 
00001fd6 00             9982 	.byte	0
                        9983 
00001fd7 00             9984 	.byte	0
                        9985 
                        9986 .LDW_4d75678:
00001fd8 13             9987 	.byte	19
00001fd9 505554756352   9988 	.strz	"PUTucRSSIsumPD"
00001fdf 53534973756d 
00001fe5 504400 
00001fe8 a406           9989 	.byte	164,6
00001fea 06             9990 	.byte	6
00001feb 01             9991 	.byte	1
00001fec 00000000*      9992 	.word	_PUTucRSSIsumPD
00001ff0 00000000*      9993 	.word	___ghs_eofn_PUTucRSSIsumPD
00001ff4 0153           9994 	.byte	1,83
00001ff6 02             9995 	.byte	2
00001ff7 00             9996 	.byte	0
00001ff8 02             9997 	.byte	2
00001ff9 00             9998 	.byte	0
00001ffa 00             9999 	.byte	0
00001ffb 00            10000 	.byte	0
00001ffc 00            10001 	.byte	0
00001ffd 01            10002 	.byte	1
00001ffe 01            10003 	.byte	1
00001fff 00            10004 	.byte	0
00002000 01            10005 	.byte	1
                       10006 
                       10007 	.section	.debug_frame
                       10008 .LDW_4c20c98:
000003fc 00000000*     10009 	.word	.LDW_unq_4a-.LDW_unq_49
                       10010 .LDW_unq_49:

                                                                      Page 178
                                                              C:\Users\nhuliyap\AppData\Local\Temp\gh_00008uc1.s
00000400 00000000*     10011 	.word	.LDW_4d1b500
00000404 00000000*     10012 	.word	_PUTucRSSIsumPD
00000408 00000000*     10013 	.word	___ghs_eofn_PUTucRSSIsumPD-_PUTucRSSIsumPD
0000040c 01            10014 	.byte	1
0000040d 00000000*     10015 	.word	.LDW38
00000411 00            10016 	.byte	0
00000412 00            10017 	.byte	0
00000413 00            10018 	.byte	0
                       10019 .LDW_unq_4a:
                       10020 	.section	.debug_line
00000c37 000502        10021 	.byte	0,5,2
00000c3a 00000000*     10022 	.word	_PUTucRSSIsumPD
00000c3e 03            10023 	.byte	3
00000c3f a406          10024 	.byte	164,6
00000c41 02            10025 	.byte	2
00000c42 00            10026 	.byte	0
00000c43 01            10027 	.byte	1
00000c44 06            10028 	.byte	6
00000c45 1b            10029 	.byte	27
00000c46 000502        10030 	.byte	0,5,2
00000c49 00000000*     10031 	.word	.LDWlin94
00000c4d 0b            10032 	.byte	11
00000c4e 02            10033 	.byte	2
00000c4f 02            10034 	.byte	2
00000c50 000101        10035 	.byte	0,1,1
                       10036 	.section	.debug_info
                       10037 .LDW_4d881b0:
00002001 0f            10038 	.byte	15
00002002 7563496e4461  10039 	.strz	"ucInData"
00002008 746100 
0000200b a406          10040 	.byte	164,6
0000200d 1c            10041 	.byte	28
0000200e 01            10042 	.byte	1
0000200f 00000000*     10043 	.word	.LDW_48ee8e8
00002013 00            10044 	.byte	0
00002014 0156          10045 	.byte	1,86
                       10046 
                       10047 .LDW_4d88418:
00002016 0f            10048 	.byte	15
00002017 75635a6f6d53  10049 	.strz	"ucZomSlot"
0000201d 6c6f7400 
00002021 a406          10050 	.byte	164,6
00002023 2c            10051 	.byte	44
00002024 01            10052 	.byte	1
00002025 00000000*     10053 	.word	.LDW_48ee8e8
00002029 00            10054 	.byte	0
0000202a 0157          10055 	.byte	1,87
                       10056 
                       10057 .LDW_4d77240:
0000202c 1d            10058 	.byte	29
0000202d 00000000*     10059 	.word	.LDW28
00002031 00000000*     10060 	.word	.LDW38
                       10061 
00002035 00            10062 	.byte	0
                       10063 
00002036 00            10064 	.byte	0
                       10065 
                       10066 .LDW_4d758d8:
00002037 13            10067 	.byte	19
00002038 505554756354  10068 	.strz	"PUTucTelTypePD"
0000203e 656c54797065 

                                                                      Page 179
                                                              C:\Users\nhuliyap\AppData\Local\Temp\gh_00008uc1.s
00002044 504400 
00002047 bd06          10069 	.byte	189,6
00002049 06            10070 	.byte	6
0000204a 01            10071 	.byte	1
0000204b 00000000*     10072 	.word	_PUTucTelTypePD
0000204f 00000000*     10073 	.word	___ghs_eofn_PUTucTelTypePD
00002053 0153          10074 	.byte	1,83
00002055 02            10075 	.byte	2
00002056 00            10076 	.byte	0
00002057 02            10077 	.byte	2
00002058 00            10078 	.byte	0
00002059 00            10079 	.byte	0
0000205a 00            10080 	.byte	0
0000205b 00            10081 	.byte	0
0000205c 01            10082 	.byte	1
0000205d 01            10083 	.byte	1
0000205e 00            10084 	.byte	0
0000205f 01            10085 	.byte	1
                       10086 
                       10087 	.section	.debug_frame
                       10088 .LDW_4c20e18:
00000414 00000000*     10089 	.word	.LDW_unq_4c-.LDW_unq_4b
                       10090 .LDW_unq_4b:
00000418 00000000*     10091 	.word	.LDW_4d1b500
0000041c 00000000*     10092 	.word	_PUTucTelTypePD
00000420 00000000*     10093 	.word	___ghs_eofn_PUTucTelTypePD-_PUTucTelTypePD
00000424 01            10094 	.byte	1
00000425 00000000*     10095 	.word	.LDW58
00000429 00            10096 	.byte	0
0000042a 00            10097 	.byte	0
0000042b 00            10098 	.byte	0
                       10099 .LDW_unq_4c:
                       10100 	.section	.debug_line
00000c53 000502        10101 	.byte	0,5,2
00000c56 00000000*     10102 	.word	_PUTucTelTypePD
00000c5a 03            10103 	.byte	3
00000c5b bd06          10104 	.byte	189,6
00000c5d 02            10105 	.byte	2
00000c5e 00            10106 	.byte	0
00000c5f 01            10107 	.byte	1
00000c60 06            10108 	.byte	6
00000c61 1b            10109 	.byte	27
00000c62 000502        10110 	.byte	0,5,2
00000c65 00000000*     10111 	.word	.LDWlin95
00000c69 0b            10112 	.byte	11
00000c6a 02            10113 	.byte	2
00000c6b 02            10114 	.byte	2
00000c6c 000101        10115 	.byte	0,1,1
                       10116 	.section	.debug_info
                       10117 .LDW_4d87d90:
00002060 0f            10118 	.byte	15
00002061 7563496e4461  10119 	.strz	"ucInData"
00002067 746100 
0000206a bd06          10120 	.byte	189,6
0000206c 1c            10121 	.byte	28
0000206d 01            10122 	.byte	1
0000206e 00000000*     10123 	.word	.LDW_48ee8e8
00002072 00            10124 	.byte	0
00002073 0156          10125 	.byte	1,86
                       10126 
                       10127 .LDW_4d88578:

                                                                      Page 180
                                                              C:\Users\nhuliyap\AppData\Local\Temp\gh_00008uc1.s
00002075 0f            10128 	.byte	15
00002076 75635a6f6d53  10129 	.strz	"ucZomSlot"
0000207c 6c6f7400 
00002080 bd06          10130 	.byte	189,6
00002082 2c            10131 	.byte	44
00002083 01            10132 	.byte	1
00002084 00000000*     10133 	.word	.LDW_48ee8e8
00002088 00            10134 	.byte	0
00002089 0157          10135 	.byte	1,87
                       10136 
                       10137 .LDW_4d77420:
0000208b 1d            10138 	.byte	29
0000208c 00000000*     10139 	.word	.LDW48
00002090 00000000*     10140 	.word	.LDW58
                       10141 
00002094 00            10142 	.byte	0
                       10143 
00002095 00            10144 	.byte	0
                       10145 
                       10146 .LDW_4d752e8:
00002096 14            10147 	.byte	20
00002097 474554756354  10148 	.strz	"GETucTransModePD"
0000209d 72616e734d6f 
000020a3 6465504400 
000020a8 c206          10149 	.byte	194,6
000020aa 07            10150 	.byte	7
000020ab 01            10151 	.byte	1
000020ac 00000000*     10152 	.word	.LDW_48ee8e8
000020b0 00000000*     10153 	.word	_GETucTransModePD
000020b4 00000000*     10154 	.word	___ghs_eofn_GETucTransModePD
000020b8 0153          10155 	.byte	1,83
000020ba 02            10156 	.byte	2
000020bb 00            10157 	.byte	0
000020bc 02            10158 	.byte	2
000020bd 00            10159 	.byte	0
000020be 00            10160 	.byte	0
000020bf 00            10161 	.byte	0
000020c0 00            10162 	.byte	0
000020c1 01            10163 	.byte	1
000020c2 01            10164 	.byte	1
000020c3 00            10165 	.byte	0
000020c4 01            10166 	.byte	1
                       10167 
                       10168 	.section	.debug_frame
                       10169 .LDW_4c21298:
0000042c 00000000*     10170 	.word	.LDW_unq_4e-.LDW_unq_4d
                       10171 .LDW_unq_4d:
00000430 00000000*     10172 	.word	.LDW_4d1b500
00000434 00000000*     10173 	.word	_GETucTransModePD
00000438 00000000*     10174 	.word	___ghs_eofn_GETucTransModePD-_GETucTransModePD
0000043c 01            10175 	.byte	1
0000043d 00000000*     10176 	.word	.LDW78
00000441 00            10177 	.byte	0
00000442 00            10178 	.byte	0
00000443 00            10179 	.byte	0
                       10180 .LDW_unq_4e:
                       10181 	.section	.debug_line
00000c6f 000502        10182 	.byte	0,5,2
00000c72 00000000*     10183 	.word	_GETucTransModePD
00000c76 03            10184 	.byte	3
00000c77 c206          10185 	.byte	194,6

                                                                      Page 181
                                                              C:\Users\nhuliyap\AppData\Local\Temp\gh_00008uc1.s
00000c79 02            10186 	.byte	2
00000c7a 00            10187 	.byte	0
00000c7b 01            10188 	.byte	1
00000c7c 06            10189 	.byte	6
00000c7d 1b            10190 	.byte	27
00000c7e 06            10191 	.byte	6
00000c7f 000502        10192 	.byte	0,5,2
00000c82 00000000*     10193 	.word	.LDWlin96
00000c86 02            10194 	.byte	2
00000c87 00            10195 	.byte	0
00000c88 02            10196 	.byte	2
00000c89 02            10197 	.byte	2
00000c8a 000101        10198 	.byte	0,1,1
                       10199 	.section	.debug_info
                       10200 .LDW_4d880a8:
000020c5 0f            10201 	.byte	15
000020c6 75635a6f6d53  10202 	.strz	"ucZomSlot"
000020cc 6c6f7400 
000020d0 c206          10203 	.byte	194,6
000020d2 1f            10204 	.byte	31
000020d3 01            10205 	.byte	1
000020d4 00000000*     10206 	.word	.LDW_48ee8e8
000020d8 00            10207 	.byte	0
000020d9 0156          10208 	.byte	1,86
                       10209 
                       10210 .LDW_4d771e0:
000020db 1d            10211 	.byte	29
000020dc 00000000*     10212 	.word	.LDW68
000020e0 00000000*     10213 	.word	.LDW78
                       10214 
000020e4 00            10215 	.byte	0
                       10216 
000020e5 00            10217 	.byte	0
                       10218 
                       10219 .LDW_4d75840:
000020e6 13            10220 	.byte	19
000020e7 505554756354  10221 	.strz	"PUTucTransModePD"
000020ed 72616e734d6f 
000020f3 6465504400 
000020f8 c706          10222 	.byte	199,6
000020fa 06            10223 	.byte	6
000020fb 01            10224 	.byte	1
000020fc 00000000*     10225 	.word	_PUTucTransModePD
00002100 00000000*     10226 	.word	___ghs_eofn_PUTucTransModePD
00002104 0153          10227 	.byte	1,83
00002106 02            10228 	.byte	2
00002107 00            10229 	.byte	0
00002108 02            10230 	.byte	2
00002109 00            10231 	.byte	0
0000210a 00            10232 	.byte	0
0000210b 00            10233 	.byte	0
0000210c 00            10234 	.byte	0
0000210d 01            10235 	.byte	1
0000210e 01            10236 	.byte	1
0000210f 00            10237 	.byte	0
00002110 01            10238 	.byte	1
                       10239 
                       10240 	.section	.debug_frame
                       10241 .LDW_4c21398:
00000444 00000000*     10242 	.word	.LDW_unq_50-.LDW_unq_4f
                       10243 .LDW_unq_4f:

                                                                      Page 182
                                                              C:\Users\nhuliyap\AppData\Local\Temp\gh_00008uc1.s
00000448 00000000*     10244 	.word	.LDW_4d1b500
0000044c 00000000*     10245 	.word	_PUTucTransModePD
00000450 00000000*     10246 	.word	___ghs_eofn_PUTucTransModePD-_PUTucTransModePD
00000454 01            10247 	.byte	1
00000455 00000000*     10248 	.word	.LDW98
00000459 00            10249 	.byte	0
0000045a 00            10250 	.byte	0
0000045b 00            10251 	.byte	0
                       10252 .LDW_unq_50:
                       10253 	.section	.debug_line
00000c8d 000502        10254 	.byte	0,5,2
00000c90 00000000*     10255 	.word	_PUTucTransModePD
00000c94 03            10256 	.byte	3
00000c95 c706          10257 	.byte	199,6
00000c97 02            10258 	.byte	2
00000c98 00            10259 	.byte	0
00000c99 01            10260 	.byte	1
00000c9a 06            10261 	.byte	6
00000c9b 1b            10262 	.byte	27
00000c9c 000502        10263 	.byte	0,5,2
00000c9f 00000000*     10264 	.word	.LDWlin97
00000ca3 0b            10265 	.byte	11
00000ca4 02            10266 	.byte	2
00000ca5 02            10267 	.byte	2
00000ca6 000101        10268 	.byte	0,1,1
                       10269 	.section	.debug_info
                       10270 .LDW_4d88520:
00002111 0f            10271 	.byte	15
00002112 7563496e4461  10272 	.strz	"ucInData"
00002118 746100 
0000211b c706          10273 	.byte	199,6
0000211d 1e            10274 	.byte	30
0000211e 01            10275 	.byte	1
0000211f 00000000*     10276 	.word	.LDW_48ee8e8
00002123 00            10277 	.byte	0
00002124 0156          10278 	.byte	1,86
                       10279 
                       10280 .LDW_4d88260:
00002126 0f            10281 	.byte	15
00002127 75635a6f6d53  10282 	.strz	"ucZomSlot"
0000212d 6c6f7400 
00002131 c706          10283 	.byte	199,6
00002133 2e            10284 	.byte	46
00002134 01            10285 	.byte	1
00002135 00000000*     10286 	.word	.LDW_48ee8e8
00002139 00            10287 	.byte	0
0000213a 0157          10288 	.byte	1,87
                       10289 
                       10290 .LDW_4d77450:
0000213c 1d            10291 	.byte	29
0000213d 00000000*     10292 	.word	.LDW88
00002141 00000000*     10293 	.word	.LDW98
                       10294 
00002145 00            10295 	.byte	0
                       10296 
00002146 00            10297 	.byte	0
                       10298 
                       10299 .LDW_4d75380:
00002147 14            10300 	.byte	20
00002148 474554757368  10301 	.strz	"GETushSensorDefectPD"
0000214e 53656e736f72 

                                                                      Page 183
                                                              C:\Users\nhuliyap\AppData\Local\Temp\gh_00008uc1.s
00002154 446566656374 
0000215a 504400 
0000215d cc06          10302 	.byte	204,6
0000215f 08            10303 	.byte	8
00002160 01            10304 	.byte	1
00002161 00000000*     10305 	.word	.LDW_4d76468
00002165 00000000*     10306 	.word	_GETushSensorDefectPD
00002169 00000000*     10307 	.word	___ghs_eofn_GETushSensorDefectPD
0000216d 0153          10308 	.byte	1,83
0000216f 02            10309 	.byte	2
00002170 00            10310 	.byte	0
00002171 02            10311 	.byte	2
00002172 00            10312 	.byte	0
00002173 00            10313 	.byte	0
00002174 00            10314 	.byte	0
00002175 00            10315 	.byte	0
00002176 01            10316 	.byte	1
00002177 01            10317 	.byte	1
00002178 00            10318 	.byte	0
00002179 01            10319 	.byte	1
                       10320 
                       10321 	.section	.debug_frame
                       10322 .LDW_4c20bd8:
0000045c 00000000*     10323 	.word	.LDW_unq_52-.LDW_unq_51
                       10324 .LDW_unq_51:
00000460 00000000*     10325 	.word	.LDW_4d1b500
00000464 00000000*     10326 	.word	_GETushSensorDefectPD
00000468 00000000*     10327 	.word	___ghs_eofn_GETushSensorDefectPD-_GETushSensorDefectPD
0000046c 01            10328 	.byte	1
0000046d 00000000*     10329 	.word	.LDW19
00000471 00            10330 	.byte	0
00000472 00            10331 	.byte	0
00000473 00            10332 	.byte	0
                       10333 .LDW_unq_52:
                       10334 	.section	.debug_line
00000ca9 000502        10335 	.byte	0,5,2
00000cac 00000000*     10336 	.word	_GETushSensorDefectPD
00000cb0 03            10337 	.byte	3
00000cb1 cc06          10338 	.byte	204,6
00000cb3 02            10339 	.byte	2
00000cb4 00            10340 	.byte	0
00000cb5 01            10341 	.byte	1
00000cb6 06            10342 	.byte	6
00000cb7 1b            10343 	.byte	27
00000cb8 06            10344 	.byte	6
00000cb9 000502        10345 	.byte	0,5,2
00000cbc 00000000*     10346 	.word	.LDWlin98
00000cc0 02            10347 	.byte	2
00000cc1 00            10348 	.byte	0
00000cc2 02            10349 	.byte	2
00000cc3 02            10350 	.byte	2
00000cc4 000101        10351 	.byte	0,1,1
                       10352 	.section	.debug_info
                       10353 .LDW_4d87c30:
0000217a 0f            10354 	.byte	15
0000217b 75635a6f6d53  10355 	.strz	"ucZomSlot"
00002181 6c6f7400 
00002185 cc06          10356 	.byte	204,6
00002187 24            10357 	.byte	36
00002188 01            10358 	.byte	1
00002189 00000000*     10359 	.word	.LDW_48ee8e8

                                                                      Page 184
                                                              C:\Users\nhuliyap\AppData\Local\Temp\gh_00008uc1.s
0000218d 00            10360 	.byte	0
0000218e 0156          10361 	.byte	1,86
                       10362 
                       10363 .LDW_4d774b0:
00002190 1d            10364 	.byte	29
00002191 00000000*     10365 	.word	.LDW09
00002195 00000000*     10366 	.word	.LDW19
                       10367 
00002199 00            10368 	.byte	0
                       10369 
0000219a 00            10370 	.byte	0
                       10371 
                       10372 .LDW_4d754b0:
0000219b 13            10373 	.byte	19
0000219c 505554757368  10374 	.strz	"PUTushSensorDefectPD"
000021a2 53656e736f72 
000021a8 446566656374 
000021ae 504400 
000021b1 d106          10375 	.byte	209,6
000021b3 06            10376 	.byte	6
000021b4 01            10377 	.byte	1
000021b5 00000000*     10378 	.word	_PUTushSensorDefectPD
000021b9 00000000*     10379 	.word	___ghs_eofn_PUTushSensorDefectPD
000021bd 0153          10380 	.byte	1,83
000021bf 02            10381 	.byte	2
000021c0 00            10382 	.byte	0
000021c1 02            10383 	.byte	2
000021c2 00            10384 	.byte	0
000021c3 00            10385 	.byte	0
000021c4 00            10386 	.byte	0
000021c5 00            10387 	.byte	0
000021c6 01            10388 	.byte	1
000021c7 01            10389 	.byte	1
000021c8 00            10390 	.byte	0
000021c9 01            10391 	.byte	1
                       10392 
                       10393 	.section	.debug_frame
                       10394 .LDW_4c21318:
00000474 00000000*     10395 	.word	.LDW_unq_54-.LDW_unq_53
                       10396 .LDW_unq_53:
00000478 00000000*     10397 	.word	.LDW_4d1b500
0000047c 00000000*     10398 	.word	_PUTushSensorDefectPD
00000480 00000000*     10399 	.word	___ghs_eofn_PUTushSensorDefectPD-_PUTushSensorDefectPD
00000484 01            10400 	.byte	1
00000485 00000000*     10401 	.word	.LDW39
00000489 00            10402 	.byte	0
0000048a 00            10403 	.byte	0
0000048b 00            10404 	.byte	0
                       10405 .LDW_unq_54:
                       10406 	.section	.debug_line
00000cc7 000502        10407 	.byte	0,5,2
00000cca 00000000*     10408 	.word	_PUTushSensorDefectPD
00000cce 03            10409 	.byte	3
00000ccf d106          10410 	.byte	209,6
00000cd1 02            10411 	.byte	2
00000cd2 00            10412 	.byte	0
00000cd3 01            10413 	.byte	1
00000cd4 06            10414 	.byte	6
00000cd5 1b            10415 	.byte	27
00000cd6 000502        10416 	.byte	0,5,2
00000cd9 00000000*     10417 	.word	.LDWlin99

                                                                      Page 185
                                                              C:\Users\nhuliyap\AppData\Local\Temp\gh_00008uc1.s
00000cdd 0b            10418 	.byte	11
00000cde 02            10419 	.byte	2
00000cdf 02            10420 	.byte	2
00000ce0 000101        10421 	.byte	0,1,1
                       10422 	.section	.debug_info
                       10423 .LDW_4d87ff8:
000021ca 0f            10424 	.byte	15
000021cb 757368496e44  10425 	.strz	"ushInData"
000021d1 61746100 
000021d5 d106          10426 	.byte	209,6
000021d7 23            10427 	.byte	35
000021d8 01            10428 	.byte	1
000021d9 00000000*     10429 	.word	.LDW_4d76468
000021dd 00            10430 	.byte	0
000021de 0156          10431 	.byte	1,86
                       10432 
                       10433 .LDW_4d87b80:
000021e0 0f            10434 	.byte	15
000021e1 75635a6f6d53  10435 	.strz	"ucZomSlot"
000021e7 6c6f7400 
000021eb d106          10436 	.byte	209,6
000021ed 34            10437 	.byte	52
000021ee 01            10438 	.byte	1
000021ef 00000000*     10439 	.word	.LDW_48ee8e8
000021f3 00            10440 	.byte	0
000021f4 0157          10441 	.byte	1,87
                       10442 
                       10443 .LDW_4d771b0:
000021f6 1d            10444 	.byte	29
000021f7 00000000*     10445 	.word	.LDW29
000021fb 00000000*     10446 	.word	.LDW39
                       10447 
000021ff 00            10448 	.byte	0
                       10449 
00002200 00            10450 	.byte	0
                       10451 
                       10452 .LDW_4d75548:
00002201 14            10453 	.byte	20
00002202 474554756352  10454 	.strz	"GETucRadpositionPD"
00002208 6164706f7369 
0000220e 74696f6e5044 
00002214 00 
00002215 e206          10455 	.byte	226,6
00002217 07            10456 	.byte	7
00002218 01            10457 	.byte	1
00002219 00000000*     10458 	.word	.LDW_48ee8e8
0000221d 00000000*     10459 	.word	_GETucRadpositionPD
00002221 00000000*     10460 	.word	___ghs_eofn_GETucRadpositionPD
00002225 0153          10461 	.byte	1,83
00002227 02            10462 	.byte	2
00002228 00            10463 	.byte	0
00002229 02            10464 	.byte	2
0000222a 00            10465 	.byte	0
0000222b 00            10466 	.byte	0
0000222c 00            10467 	.byte	0
0000222d 00            10468 	.byte	0
0000222e 01            10469 	.byte	1
0000222f 01            10470 	.byte	1
00002230 00            10471 	.byte	0
00002231 01            10472 	.byte	1
                       10473 

                                                                      Page 186
                                                              C:\Users\nhuliyap\AppData\Local\Temp\gh_00008uc1.s
                       10474 	.section	.debug_frame
                       10475 .LDW_4c20fd8:
0000048c 00000000*     10476 	.word	.LDW_unq_56-.LDW_unq_55
                       10477 .LDW_unq_55:
00000490 00000000*     10478 	.word	.LDW_4d1b500
00000494 00000000*     10479 	.word	_GETucRadpositionPD
00000498 00000000*     10480 	.word	___ghs_eofn_GETucRadpositionPD-_GETucRadpositionPD
0000049c 01            10481 	.byte	1
0000049d 00000000*     10482 	.word	.LDW59
000004a1 00            10483 	.byte	0
000004a2 00            10484 	.byte	0
000004a3 00            10485 	.byte	0
                       10486 .LDW_unq_56:
                       10487 	.section	.debug_line
00000ce3 000502        10488 	.byte	0,5,2
00000ce6 00000000*     10489 	.word	_GETucRadpositionPD
00000cea 03            10490 	.byte	3
00000ceb e206          10491 	.byte	226,6
00000ced 02            10492 	.byte	2
00000cee 00            10493 	.byte	0
00000cef 01            10494 	.byte	1
00000cf0 06            10495 	.byte	6
00000cf1 13            10496 	.byte	19
00000cf2 02            10497 	.byte	2
00000cf3 04            10498 	.byte	4
00000cf4 000101        10499 	.byte	0,1,1
                       10500 	.section	.debug_info
                       10501 .LDW_4d88470:
00002232 0f            10502 	.byte	15
00002233 75635a6f6d53  10503 	.strz	"ucZomSlot"
00002239 6c6f7400 
0000223d e206          10504 	.byte	226,6
0000223f 21            10505 	.byte	33
00002240 01            10506 	.byte	1
00002241 00000000*     10507 	.word	.LDW_48ee8e8
00002245 00            10508 	.byte	0
00002246 0156          10509 	.byte	1,86
                       10510 
                       10511 .LDW_4d77510:
00002248 1d            10512 	.byte	29
00002249 00000000*     10513 	.word	.LDW49
0000224d 00000000*     10514 	.word	.LDW59
                       10515 
00002251 00            10516 	.byte	0
                       10517 
00002252 00            10518 	.byte	0
                       10519 
                       10520 .LDW_4d757a8:
00002253 14            10521 	.byte	20
00002254 50726550726f  10522 	.strz	"PreProcPressAndTempPD"
0000225a 635072657373 
00002260 416e6454656d 
00002266 70504400 
0000226a f506          10523 	.byte	245,6
0000226c 08            10524 	.byte	8
0000226d 01            10525 	.byte	1
0000226e 00000000*     10526 	.word	.LDW_4d76468
00002272 00000000*     10527 	.word	_PreProcPressAndTempPD
00002276 00000000*     10528 	.word	___ghs_eofn_PreProcPressAndTempPD
0000227a 0153          10529 	.byte	1,83
0000227c 828080800a    10530 	.byte	130,128,128,128,10

                                                                      Page 187
                                                              C:\Users\nhuliyap\AppData\Local\Temp\gh_00008uc1.s
00002281 08            10531 	.byte	8
00002282 03            10532 	.byte	3
00002283 0c            10533 	.byte	12
00002284 00            10534 	.byte	0
00002285 00            10535 	.byte	0
00002286 00            10536 	.byte	0
00002287 01            10537 	.byte	1
00002288 01            10538 	.byte	1
00002289 00            10539 	.byte	0
0000228a 01            10540 	.byte	1
                       10541 
                       10542 	.section	.debug_frame
                       10543 .LDW_4f49568:
000004a4 00000000*     10544 	.word	.LDW_unq_58-.LDW_unq_57
                       10545 .LDW_unq_57:
000004a8 00000000*     10546 	.word	.LDW_4d1b500
000004ac 00000000*     10547 	.word	_PreProcPressAndTempPD
000004b0 00000000*     10548 	.word	___ghs_eofn_PreProcPressAndTempPD-_PreProcPressAndTempPD
000004b4 44            10549 	.byte	68
000004b5 9f            10550 	.byte	159
000004b6 03            10551 	.byte	3
000004b7 40            10552 	.byte	64
000004b8 9d            10553 	.byte	157
000004b9 07            10554 	.byte	7
000004ba 01            10555 	.byte	1
000004bb 00000000*     10556 	.word	.LDW301
000004bf 44            10557 	.byte	68
000004c0 df            10558 	.byte	223
000004c1 40            10559 	.byte	64
000004c2 dd            10560 	.byte	221
000004c3 00            10561 	.byte	0
                       10562 .LDW_unq_58:
                       10563 	.section	.debug_line
00000cf7 000502        10564 	.byte	0,5,2
00000cfa 00000000*     10565 	.word	_PreProcPressAndTempPD
00000cfe 03            10566 	.byte	3
00000cff f406          10567 	.byte	244,6
00000d01 02            10568 	.byte	2
00000d02 00            10569 	.byte	0
00000d03 01            10570 	.byte	1
00000d04 06            10571 	.byte	6
00000d05 03            10572 	.byte	3
00000d06 04            10573 	.byte	4
00000d07 02            10574 	.byte	2
00000d08 04            10575 	.byte	4
00000d09 01            10576 	.byte	1
00000d0a 000502        10577 	.byte	0,5,2
00000d0d 00000000*     10578 	.word	.LDWlin112
00000d11 0b            10579 	.byte	11
00000d12 000502        10580 	.byte	0,5,2
00000d15 00000000*     10581 	.word	.LDWlin113
00000d19 0b            10582 	.byte	11
00000d1a 000502        10583 	.byte	0,5,2
00000d1d 00000000*     10584 	.word	.LDWlin114
00000d21 0b            10585 	.byte	11
00000d22 000502        10586 	.byte	0,5,2
00000d25 00000000*     10587 	.word	.LDWlin115
00000d29 0b            10588 	.byte	11
00000d2a 02            10589 	.byte	2
00000d2b 04            10590 	.byte	4
00000d2c 000101        10591 	.byte	0,1,1

                                                                      Page 188
                                                              C:\Users\nhuliyap\AppData\Local\Temp\gh_00008uc1.s
                       10592 	.section	.debug_info
                       10593 .LDW_4d77270:
0000228b 1d            10594 	.byte	29
0000228c 00000000*     10595 	.word	.LDW201
00002290 00000000*     10596 	.word	.LDW301
                       10597 
                       10598 .LDW_4d88050:
00002294 04            10599 	.byte	4
00002295 756350726573  10600 	.strz	"ucPres"
0000229b 00 
0000229c f606          10601 	.byte	246,6
0000229e 0a            10602 	.byte	10
0000229f 01            10603 	.byte	1
000022a0 00000000*     10604 	.word	.LDW_48ee8e8
000022a4 00            10605 	.byte	0
000022a5 00            10606 	.byte	0
000022a6 0273          10607 	.byte	2,115
000022a8 02            10608 	.byte	2
                       10609 
                       10610 .LDW_4d87bd8:
000022a9 04            10611 	.byte	4
000022aa 736354656d70  10612 	.strz	"scTemp"
000022b0 00 
000022b1 f706          10613 	.byte	247,6
000022b3 0a            10614 	.byte	10
000022b4 01            10615 	.byte	1
000022b5 00000000*     10616 	.word	.LDW_4d75048
000022b9 00            10617 	.byte	0
000022ba 00            10618 	.byte	0
000022bb 0273          10619 	.byte	2,115
000022bd 03            10620 	.byte	3
                       10621 
                       10622 .LDW_4d87ad0:
000022be 04            10623 	.byte	4
000022bf 75736853656e  10624 	.strz	"ushSensorfehler"
000022c5 736f72666568 
000022cb 6c657200 
000022cf f806          10625 	.byte	248,6
000022d1 0a            10626 	.byte	10
000022d2 01            10627 	.byte	1
000022d3 00000000*     10628 	.word	.LDW_4d76468
000022d7 00            10629 	.byte	0
000022d8 00            10630 	.byte	0
000022d9 016d          10631 	.byte	1,109
                       10632 
000022db 00            10633 	.byte	0
                       10634 
000022dc 00            10635 	.byte	0
                       10636 
                       10637 .LDW_4da9d08:
000022dd 14            10638 	.byte	20
000022de 75736843616c  10639 	.strz	"ushCalcAKPressurePD"
000022e4 63414b507265 
000022ea 737375726550 
000022f0 4400 
000022f2 8007          10640 	.byte	128,7
000022f4 0f            10641 	.byte	15
000022f5 01            10642 	.byte	1
000022f6 00000000*     10643 	.word	.LDW_4d76468
000022fa 00000000*     10644 	.word	_ushCalcAKPressurePD..C.3A.5C_ECU2.5CECU_Rivian_A1.5CTarget.5Crepo_projects.5CpRealEcu.5CcL_LATEST.5Cmake.5Coutput.5Cobjects.5Cprocdat.
000022fe 00000000*     10645 	.word	___ghs_eofn_ushCalcAKPressurePD

                                                                      Page 189
                                                              C:\Users\nhuliyap\AppData\Local\Temp\gh_00008uc1.s
00002302 0153          10646 	.byte	1,83
00002304 8280808009    10647 	.byte	130,128,128,128,9
00002309 08            10648 	.byte	8
0000230a 03            10649 	.byte	3
0000230b 08            10650 	.byte	8
0000230c 00            10651 	.byte	0
0000230d 00            10652 	.byte	0
0000230e 00            10653 	.byte	0
0000230f 00            10654 	.byte	0
00002310 01            10655 	.byte	1
00002311 00            10656 	.byte	0
00002312 01            10657 	.byte	1
                       10658 
                       10659 	.section	.debug_frame
                       10660 .LDW_4c20d18:
000004c4 00000000*     10661 	.word	.LDW_unq_5a-.LDW_unq_59
                       10662 .LDW_unq_59:
000004c8 00000000*     10663 	.word	.LDW_4d1b500
000004cc 00000000*     10664 	.word	_ushCalcAKPressurePD..C.3A.5C_ECU2.5CECU_Rivian_A1.5CTarget.5Crepo_projects.5CpRealEcu.5CcL_LATEST.5Cmake.5Coutput.5Cobjects.5Cprocdat.
000004d0 00000000*     10665 	.word	___ghs_eofn_ushCalcAKPressurePD-_ushCalcAKPressurePD..C.3A.5C_ECU2.5CECU_Rivian_A1.5CTarget.5Crepo_projects.5CpRealEcu.5CcL_LATEST.5Cmake.5Coutput.5Cobjects.5Cprocdat.
000004d4 44            10666 	.byte	68
000004d5 9f            10667 	.byte	159
000004d6 00            10668 	.byte	0
000004d7 40            10669 	.byte	64
000004d8 9c            10670 	.byte	156
000004d9 04            10671 	.byte	4
000004da 01            10672 	.byte	1
000004db 00000000*     10673 	.word	.LDW99
000004df 00            10674 	.byte	0
                       10675 .LDW_unq_5a:
                       10676 	.section	.debug_line
00000d2f 000502        10677 	.byte	0,5,2
00000d32 00000000*     10678 	.word	_ushCalcAKPressurePD..C.3A.5C_ECU2.5CECU_Rivian_A1.5CTarget.5Crepo_projects.5CpRealEcu.5CcL_LATEST.5Cmake.5Coutput.5Cobjects.5Cprocdat.
00000d36 03            10679 	.byte	3
00000d37 8007          10680 	.byte	128,7
00000d39 02            10681 	.byte	2
00000d3a 00            10682 	.byte	0
00000d3b 01            10683 	.byte	1
00000d3c 06            10684 	.byte	6
00000d3d 03            10685 	.byte	3
00000d3e 04            10686 	.byte	4
00000d3f 02            10687 	.byte	2
00000d40 06            10688 	.byte	6
00000d41 01            10689 	.byte	1
00000d42 000502        10690 	.byte	0,5,2
00000d45 00000000*     10691 	.word	.LDWlin101
00000d49 03            10692 	.byte	3
00000d4a 13            10693 	.byte	19
00000d4b 02            10694 	.byte	2
00000d4c 00            10695 	.byte	0
00000d4d 01            10696 	.byte	1
00000d4e 0b            10697 	.byte	11
00000d4f 1b            10698 	.byte	27
00000d50 000502        10699 	.byte	0,5,2
00000d53 00000000*     10700 	.word	.LDWlin102
00000d57 03            10701 	.byte	3
00000d58 04            10702 	.byte	4
00000d59 02            10703 	.byte	2
00000d5a 00            10704 	.byte	0
00000d5b 01            10705 	.byte	1
00000d5c 0b            10706 	.byte	11

                                                                      Page 190
                                                              C:\Users\nhuliyap\AppData\Local\Temp\gh_00008uc1.s
00000d5d 0c            10707 	.byte	12
00000d5e 13            10708 	.byte	19
00000d5f 1b            10709 	.byte	27
00000d60 02            10710 	.byte	2
00000d61 00            10711 	.byte	0
00000d62 0b            10712 	.byte	11
00000d63 0b            10713 	.byte	11
00000d64 0b            10714 	.byte	11
00000d65 000502        10715 	.byte	0,5,2
00000d68 00000000*     10716 	.word	.LDWlin103
00000d6c 03            10717 	.byte	3
00000d6d 62            10718 	.byte	98
00000d6e 02            10719 	.byte	2
00000d6f 00            10720 	.byte	0
00000d70 01            10721 	.byte	1
00000d71 1b            10722 	.byte	27
00000d72 13            10723 	.byte	19
00000d73 000502        10724 	.byte	0,5,2
00000d76 00000000*     10725 	.word	.LDWlin104
00000d7a 03            10726 	.byte	3
00000d7b 04            10727 	.byte	4
00000d7c 02            10728 	.byte	2
00000d7d 00            10729 	.byte	0
00000d7e 01            10730 	.byte	1
00000d7f 1b            10731 	.byte	27
00000d80 13            10732 	.byte	19
00000d81 000502        10733 	.byte	0,5,2
00000d84 00000000*     10734 	.word	.LDWlin105
00000d88 03            10735 	.byte	3
00000d89 04            10736 	.byte	4
00000d8a 02            10737 	.byte	2
00000d8b 00            10738 	.byte	0
00000d8c 01            10739 	.byte	1
00000d8d 1b            10740 	.byte	27
00000d8e 13            10741 	.byte	19
00000d8f 000502        10742 	.byte	0,5,2
00000d92 00000000*     10743 	.word	.LDWlin106
00000d96 03            10744 	.byte	3
00000d97 05            10745 	.byte	5
00000d98 02            10746 	.byte	2
00000d99 00            10747 	.byte	0
00000d9a 01            10748 	.byte	1
00000d9b 0b            10749 	.byte	11
00000d9c 13            10750 	.byte	19
00000d9d 06            10751 	.byte	6
00000d9e 02            10752 	.byte	2
00000d9f 06            10753 	.byte	6
00000da0 02            10754 	.byte	2
00000da1 04            10755 	.byte	4
00000da2 000101        10756 	.byte	0,1,1
                       10757 	.section	.debug_info
                       10758 .LDW_4d88368:
00002313 0f            10759 	.byte	15
00002314 756352617750  10760 	.strz	"ucRawPres"
0000231a 72657300 
0000231e 8007          10761 	.byte	128,7
00002320 2a            10762 	.byte	42
00002321 01            10763 	.byte	1
00002322 00000000*     10764 	.word	.LDW_48ee8e8
00002326 00            10765 	.byte	0
00002327 0156          10766 	.byte	1,86

                                                                      Page 191
                                                              C:\Users\nhuliyap\AppData\Local\Temp\gh_00008uc1.s
                       10767 
                       10768 .LDW_4d87b28:
00002329 0f            10769 	.byte	15
0000232a 707563506879  10770 	.strz	"pucPhyPres"
00002330 5072657300 
00002335 8007          10771 	.byte	128,7
00002337 3c            10772 	.byte	60
00002338 01            10773 	.byte	1
00002339 00000000*     10774 	.word	.LDW_4da8ed8
0000233d 00            10775 	.byte	0
0000233e 016d          10776 	.byte	1,109
                       10777 
                       10778 .LDW_4d77390:
00002340 1d            10779 	.byte	29
00002341 00000000*     10780 	.word	.LDW89
00002345 00000000*     10781 	.word	.LDW99
                       10782 
                       10783 .LDW_4d87e40:
00002349 04            10784 	.byte	4
0000234a 757368457272  10785 	.strz	"ushError"
00002350 6f7200 
00002353 8207          10786 	.byte	130,7
00002355 0a            10787 	.byte	10
00002356 01            10788 	.byte	1
00002357 00000000*     10789 	.word	.LDW_4d76468
0000235b 00            10790 	.byte	0
0000235c 00            10791 	.byte	0
0000235d 015a          10792 	.byte	1,90
                       10793 
                       10794 .LDW_4d884c8:
0000235f 04            10795 	.byte	4
00002360 757368507365  10796 	.strz	"ushPsensorAbs"
00002366 6e736f724162 
0000236c 7300 
0000236e 8307          10797 	.byte	131,7
00002370 0a            10798 	.byte	10
00002371 01            10799 	.byte	1
00002372 00000000*     10800 	.word	.LDW_4d76468
00002376 00            10801 	.byte	0
00002377 00            10802 	.byte	0
00002378 016c          10803 	.byte	1,108
                       10804 
0000237a 00            10805 	.byte	0
                       10806 
0000237b 00            10807 	.byte	0
                       10808 
                       10809 .LDW_4da9680:
0000237c 14            10810 	.byte	20
0000237d 75736843616c  10811 	.strz	"ushCalcAKTemperaturePD"
00002383 63414b54656d 
00002389 706572617475 
0000238f 7265504400 
00002394 a907          10812 	.byte	169,7
00002396 0f            10813 	.byte	15
00002397 01            10814 	.byte	1
00002398 00000000*     10815 	.word	.LDW_4d76468
0000239c 00000000*     10816 	.word	_ushCalcAKTemperaturePD..C.3A.5C_ECU2.5CECU_Rivian_A1.5CTarget.5Crepo_projects.5CpRealEcu.5CcL_LATEST.5Cmake.5Coutput.5Cobjects.5Cprocdat.
000023a0 00000000*     10817 	.word	___ghs_eofn_ushCalcAKTemperaturePD
000023a4 0153          10818 	.byte	1,83
000023a6 02            10819 	.byte	2
000023a7 00            10820 	.byte	0

                                                                      Page 192
                                                              C:\Users\nhuliyap\AppData\Local\Temp\gh_00008uc1.s
000023a8 02            10821 	.byte	2
000023a9 00            10822 	.byte	0
000023aa 00            10823 	.byte	0
000023ab 00            10824 	.byte	0
000023ac 00            10825 	.byte	0
000023ad 00            10826 	.byte	0
000023ae 01            10827 	.byte	1
000023af 00            10828 	.byte	0
000023b0 01            10829 	.byte	1
                       10830 
                       10831 	.section	.debug_frame
                       10832 .LDW_4f49928:
000004e0 00000000*     10833 	.word	.LDW_unq_5c-.LDW_unq_5b
                       10834 .LDW_unq_5b:
000004e4 00000000*     10835 	.word	.LDW_4d1b500
000004e8 00000000*     10836 	.word	_ushCalcAKTemperaturePD..C.3A.5C_ECU2.5CECU_Rivian_A1.5CTarget.5Crepo_projects.5CpRealEcu.5CcL_LATEST.5Cmake.5Coutput.5Cobjects.5Cprocdat.
000004ec 00000000*     10837 	.word	___ghs_eofn_ushCalcAKTemperaturePD-_ushCalcAKTemperaturePD..C.3A.5C_ECU2.5CECU_Rivian_A1.5CTarget.5Crepo_projects.5CpRealEcu.5CcL_LATEST.5Cmake.5Coutput.5Cobjects.5Cprocdat.
000004f0 01            10838 	.byte	1
000004f1 00000000*     10839 	.word	.LDW101
000004f5 00            10840 	.byte	0
000004f6 00            10841 	.byte	0
000004f7 00            10842 	.byte	0
                       10843 .LDW_unq_5c:
                       10844 	.section	.debug_line
00000da5 000502        10845 	.byte	0,5,2
00000da8 00000000*     10846 	.word	_ushCalcAKTemperaturePD..C.3A.5C_ECU2.5CECU_Rivian_A1.5CTarget.5Crepo_projects.5CpRealEcu.5CcL_LATEST.5Cmake.5Coutput.5Cobjects.5Cprocdat.
00000dac 03            10847 	.byte	3
00000dad a907          10848 	.byte	169,7
00000daf 02            10849 	.byte	2
00000db0 00            10850 	.byte	0
00000db1 01            10851 	.byte	1
00000db2 06            10852 	.byte	6
00000db3 1b            10853 	.byte	27
00000db4 13            10854 	.byte	19
00000db5 000502        10855 	.byte	0,5,2
00000db8 00000000*     10856 	.word	.LDWlin107
00000dbc 03            10857 	.byte	3
00000dbd 0e            10858 	.byte	14
00000dbe 02            10859 	.byte	2
00000dbf 00            10860 	.byte	0
00000dc0 01            10861 	.byte	1
00000dc1 0b            10862 	.byte	11
00000dc2 000502        10863 	.byte	0,5,2
00000dc5 00000000*     10864 	.word	.LDWlin108
00000dc9 0d            10865 	.byte	13
00000dca 0d            10866 	.byte	13
00000dcb 0b            10867 	.byte	11
00000dcc 0c            10868 	.byte	12
00000dcd 02            10869 	.byte	2
00000dce 00            10870 	.byte	0
00000dcf 0b            10871 	.byte	11
00000dd0 0b            10872 	.byte	11
00000dd1 0c            10873 	.byte	12
00000dd2 1b            10874 	.byte	27
00000dd3 000502        10875 	.byte	0,5,2
00000dd6 00000000*     10876 	.word	.LDWlin109
00000dda 03            10877 	.byte	3
00000ddb 67            10878 	.byte	103
00000ddc 02            10879 	.byte	2
00000ddd 00            10880 	.byte	0
00000dde 01            10881 	.byte	1

                                                                      Page 193
                                                              C:\Users\nhuliyap\AppData\Local\Temp\gh_00008uc1.s
00000ddf 1b            10882 	.byte	27
00000de0 1b            10883 	.byte	27
00000de1 000502        10884 	.byte	0,5,2
00000de4 00000000*     10885 	.word	.LDWlin110
00000de8 03            10886 	.byte	3
00000de9 04            10887 	.byte	4
00000dea 02            10888 	.byte	2
00000deb 00            10889 	.byte	0
00000dec 01            10890 	.byte	1
00000ded 1b            10891 	.byte	27
00000dee 1b            10892 	.byte	27
00000def 000502        10893 	.byte	0,5,2
00000df2 00000000*     10894 	.word	.LDWlin111
00000df6 03            10895 	.byte	3
00000df7 04            10896 	.byte	4
00000df8 02            10897 	.byte	2
00000df9 00            10898 	.byte	0
00000dfa 01            10899 	.byte	1
00000dfb 0b            10900 	.byte	11
00000dfc 03            10901 	.byte	3
00000dfd 0d            10902 	.byte	13
00000dfe 02            10903 	.byte	2
00000dff 0e            10904 	.byte	14
00000e00 01            10905 	.byte	1
00000e01 02            10906 	.byte	2
00000e02 00            10907 	.byte	0
00000e03 0b            10908 	.byte	11
00000e04 0b            10909 	.byte	11
00000e05 0b            10910 	.byte	11
00000e06 06            10911 	.byte	6
00000e07 02            10912 	.byte	2
00000e08 02            10913 	.byte	2
00000e09 02            10914 	.byte	2
00000e0a 02            10915 	.byte	2
00000e0b 000101        10916 	.byte	0,1,1
                       10917 	.section	.debug_info
                       10918 .LDW_4d87c88:
000023b1 0f            10919 	.byte	15
000023b2 756352617754  10920 	.strz	"ucRawTemp"
000023b8 656d7000 
000023bc a907          10921 	.byte	169,7
000023be 2d            10922 	.byte	45
000023bf 01            10923 	.byte	1
000023c0 00000000*     10924 	.word	.LDW_48ee8e8
000023c4 00            10925 	.byte	0
000023c5 0156          10926 	.byte	1,86
                       10927 
                       10928 .LDW_4d87ce0:
000023c7 0f            10929 	.byte	15
000023c8 707363506879  10930 	.strz	"pscPhyTemp"
000023ce 54656d7000 
000023d3 a907          10931 	.byte	169,7
000023d5 3f            10932 	.byte	63
000023d6 01            10933 	.byte	1
000023d7 00000000*     10934 	.word	.LDW_4da8ff0
000023db 00            10935 	.byte	0
000023dc 016e          10936 	.byte	1,110
                       10937 
                       10938 .LDW_4d77570:
000023de 1d            10939 	.byte	29
000023df 00000000*     10940 	.word	.LDW001

                                                                      Page 194
                                                              C:\Users\nhuliyap\AppData\Local\Temp\gh_00008uc1.s
000023e3 00000000*     10941 	.word	.LDW101
                       10942 
                       10943 .LDW_4d87de8:
000023e7 04            10944 	.byte	4
000023e8 757368457272  10945 	.strz	"ushError"
000023ee 6f7200 
000023f1 ab07          10946 	.byte	171,7
000023f3 0a            10947 	.byte	10
000023f4 01            10948 	.byte	1
000023f5 00000000*     10949 	.word	.LDW_4d76468
000023f9 00            10950 	.byte	0
000023fa 00            10951 	.byte	0
000023fb 015a          10952 	.byte	1,90
                       10953 
000023fd 00            10954 	.byte	0
                       10955 
000023fe 00            10956 	.byte	0
                       10957 
                       10958 .LDW_4daa428:
000023ff 13            10959 	.byte	19
00002400 536176655265  10960 	.strz	"SaveReDataAtBufferPD"
00002406 446174614174 
0000240c 427566666572 
00002412 504400 
00002415 d007          10961 	.byte	208,7
00002417 06            10962 	.byte	6
00002418 01            10963 	.byte	1
00002419 00000000*     10964 	.word	_SaveReDataAtBufferPD
0000241d 00000000*     10965 	.word	___ghs_eofn_SaveReDataAtBufferPD
00002421 0153          10966 	.byte	1,83
00002423 828080e00b    10967 	.byte	130,128,128,224,11
00002428 14            10968 	.byte	20
00002429 03            10969 	.byte	3
0000242a 14            10970 	.byte	20
0000242b 00            10971 	.byte	0
0000242c 00            10972 	.byte	0
0000242d 00            10973 	.byte	0
0000242e 01            10974 	.byte	1
0000242f 01            10975 	.byte	1
00002430 00            10976 	.byte	0
00002431 01            10977 	.byte	1
                       10978 
                       10979 	.section	.debug_frame
                       10980 .LDW_4f49728:
000004f8 00000000*     10981 	.word	.LDW_unq_5e-.LDW_unq_5d
                       10982 .LDW_unq_5d:
000004fc 00000000*     10983 	.word	.LDW_4d1b500
00000500 00000000*     10984 	.word	_SaveReDataAtBufferPD
00000504 00000000*     10985 	.word	___ghs_eofn_SaveReDataAtBufferPD-_SaveReDataAtBufferPD
00000508 44            10986 	.byte	68
00000509 9f            10987 	.byte	159
0000050a 00            10988 	.byte	0
0000050b 40            10989 	.byte	64
0000050c 9d            10990 	.byte	157
0000050d 04            10991 	.byte	4
0000050e 40            10992 	.byte	64
0000050f 9c            10993 	.byte	156
00000510 08            10994 	.byte	8
00000511 40            10995 	.byte	64
00000512 9b            10996 	.byte	155
00000513 0c            10997 	.byte	12

                                                                      Page 195
                                                              C:\Users\nhuliyap\AppData\Local\Temp\gh_00008uc1.s
00000514 40            10998 	.byte	64
00000515 9a            10999 	.byte	154
00000516 10            11000 	.byte	16
00000517 01            11001 	.byte	1
00000518 00000000*     11002 	.word	.LDW501
                       11003 .LDW_unq_5e:
                       11004 	.section	.debug_line
00000e0e 000502        11005 	.byte	0,5,2
00000e11 00000000*     11006 	.word	_SaveReDataAtBufferPD
00000e15 03            11007 	.byte	3
00000e16 d007          11008 	.byte	208,7
00000e18 02            11009 	.byte	2
00000e19 00            11010 	.byte	0
00000e1a 01            11011 	.byte	1
00000e1b 06            11012 	.byte	6
00000e1c 03            11013 	.byte	3
00000e1d 04            11014 	.byte	4
00000e1e 02            11015 	.byte	2
00000e1f 08            11016 	.byte	8
00000e20 01            11017 	.byte	1
00000e21 000502        11018 	.byte	0,5,2
00000e24 00000000*     11019 	.word	.LDWlin116
00000e28 0c            11020 	.byte	12
00000e29 000502        11021 	.byte	0,5,2
00000e2c 00000000*     11022 	.word	.LDWlin117
00000e30 0c            11023 	.byte	12
00000e31 000502        11024 	.byte	0,5,2
00000e34 00000000*     11025 	.word	.LDWlin118
00000e38 0b            11026 	.byte	11
00000e39 0b            11027 	.byte	11
00000e3a 000502        11028 	.byte	0,5,2
00000e3d 00000000*     11029 	.word	.LDWlin119
00000e41 0b            11030 	.byte	11
00000e42 000502        11031 	.byte	0,5,2
00000e45 00000000*     11032 	.word	.LDWlin120
00000e49 0b            11033 	.byte	11
00000e4a 0b            11034 	.byte	11
00000e4b 000502        11035 	.byte	0,5,2
00000e4e 00000000*     11036 	.word	.LDWlin121
00000e52 0b            11037 	.byte	11
00000e53 0b            11038 	.byte	11
00000e54 23            11039 	.byte	35
00000e55 02            11040 	.byte	2
00000e56 00            11041 	.byte	0
00000e57 0c            11042 	.byte	12
00000e58 000502        11043 	.byte	0,5,2
00000e5b 00000000*     11044 	.word	.LDWlin122
00000e5f 0b            11045 	.byte	11
00000e60 0b            11046 	.byte	11
00000e61 000502        11047 	.byte	0,5,2
00000e64 00000000*     11048 	.word	.LDWlin123
00000e68 0b            11049 	.byte	11
00000e69 0b            11050 	.byte	11
00000e6a 000502        11051 	.byte	0,5,2
00000e6d 00000000*     11052 	.word	.LDWlin124
00000e71 0b            11053 	.byte	11
00000e72 0b            11054 	.byte	11
00000e73 0b            11055 	.byte	11
00000e74 000502        11056 	.byte	0,5,2
00000e77 00000000*     11057 	.word	.LDWlin125
00000e7b 0b            11058 	.byte	11

                                                                      Page 196
                                                              C:\Users\nhuliyap\AppData\Local\Temp\gh_00008uc1.s
00000e7c 02            11059 	.byte	2
00000e7d 00            11060 	.byte	0
00000e7e 0c            11061 	.byte	12
00000e7f 0b            11062 	.byte	11
00000e80 0b            11063 	.byte	11
00000e81 02            11064 	.byte	2
00000e82 00            11065 	.byte	0
00000e83 0b            11066 	.byte	11
00000e84 0b            11067 	.byte	11
00000e85 0b            11068 	.byte	11
00000e86 03            11069 	.byte	3
00000e87 10            11070 	.byte	16
00000e88 02            11071 	.byte	2
00000e89 02            11072 	.byte	2
00000e8a 01            11073 	.byte	1
00000e8b 02            11074 	.byte	2
00000e8c 00            11075 	.byte	0
00000e8d 0b            11076 	.byte	11
00000e8e 02            11077 	.byte	2
00000e8f 00            11078 	.byte	0
00000e90 0c            11079 	.byte	12
00000e91 000502        11080 	.byte	0,5,2
00000e94 00000000*     11081 	.word	.LDWlin126
00000e98 03            11082 	.byte	3
00000e99 04            11083 	.byte	4
00000e9a 02            11084 	.byte	2
00000e9b 00            11085 	.byte	0
00000e9c 01            11086 	.byte	1
00000e9d 0c            11087 	.byte	12
00000e9e 000502        11088 	.byte	0,5,2
00000ea1 00000000*     11089 	.word	.LDWlin127
00000ea5 03            11090 	.byte	3
00000ea6 68            11091 	.byte	104
00000ea7 02            11092 	.byte	2
00000ea8 00            11093 	.byte	0
00000ea9 01            11094 	.byte	1
00000eaa 02            11095 	.byte	2
00000eab 00            11096 	.byte	0
00000eac 0b            11097 	.byte	11
00000ead 0b            11098 	.byte	11
00000eae 0b            11099 	.byte	11
00000eaf 1c            11100 	.byte	28
00000eb0 000502        11101 	.byte	0,5,2
00000eb3 00000000*     11102 	.word	.LDWlin128
00000eb7 0b            11103 	.byte	11
00000eb8 0c            11104 	.byte	12
00000eb9 000502        11105 	.byte	0,5,2
00000ebc 00000000*     11106 	.word	.LDWlin129
00000ec0 0b            11107 	.byte	11
00000ec1 000502        11108 	.byte	0,5,2
00000ec4 00000000*     11109 	.word	.LDWlin130
00000ec8 0b            11110 	.byte	11
00000ec9 0b            11111 	.byte	11
00000eca 0c            11112 	.byte	12
00000ecb 000502        11113 	.byte	0,5,2
00000ece 00000000*     11114 	.word	.LDWlin131
00000ed2 0b            11115 	.byte	11
00000ed3 000502        11116 	.byte	0,5,2
00000ed6 00000000*     11117 	.word	.LDWlin132
00000eda 03            11118 	.byte	3
00000edb 13            11119 	.byte	19

                                                                      Page 197
                                                              C:\Users\nhuliyap\AppData\Local\Temp\gh_00008uc1.s
00000edc 02            11120 	.byte	2
00000edd 00            11121 	.byte	0
00000ede 01            11122 	.byte	1
00000edf 0b            11123 	.byte	11
00000ee0 0c            11124 	.byte	12
00000ee1 000502        11125 	.byte	0,5,2
00000ee4 00000000*     11126 	.word	.LDWlin133
00000ee8 03            11127 	.byte	3
00000ee9 76            11128 	.byte	118
00000eea 02            11129 	.byte	2
00000eeb 00            11130 	.byte	0
00000eec 01            11131 	.byte	1
00000eed 0b            11132 	.byte	11
00000eee 0c            11133 	.byte	12
00000eef 000502        11134 	.byte	0,5,2
00000ef2 00000000*     11135 	.word	.LDWlin134
00000ef6 0b            11136 	.byte	11
00000ef7 0c            11137 	.byte	12
00000ef8 000502        11138 	.byte	0,5,2
00000efb 00000000*     11139 	.word	.LDWlin135
00000eff 03            11140 	.byte	3
00000f00 05            11141 	.byte	5
00000f01 02            11142 	.byte	2
00000f02 00            11143 	.byte	0
00000f03 01            11144 	.byte	1
00000f04 02            11145 	.byte	2
00000f05 00            11146 	.byte	0
00000f06 0c            11147 	.byte	12
00000f07 000502        11148 	.byte	0,5,2
00000f0a 00000000*     11149 	.word	.LDWlin136
00000f0e 0b            11150 	.byte	11
00000f0f 02            11151 	.byte	2
00000f10 00            11152 	.byte	0
00000f11 0c            11153 	.byte	12
00000f12 000502        11154 	.byte	0,5,2
00000f15 00000000*     11155 	.word	.LDWlin137
00000f19 03            11156 	.byte	3
00000f1a 20            11157 	.byte	32
00000f1b 02            11158 	.byte	2
00000f1c 00            11159 	.byte	0
00000f1d 01            11160 	.byte	1
00000f1e 000502        11161 	.byte	0,5,2
00000f21 00000000*     11162 	.word	.LDWlin138
00000f25 0b            11163 	.byte	11
00000f26 02            11164 	.byte	2
00000f27 04            11165 	.byte	4
00000f28 000101        11166 	.byte	0,1,1
                       11167 	.section	.debug_info
                       11168 .LDW_4d88998:
00002432 0f            11169 	.byte	15
00002433 75635a6f6d53  11170 	.strz	"ucZomSlot"
00002439 6c6f7400 
0000243d d007          11171 	.byte	208,7
0000243f 22            11172 	.byte	34
00002440 01            11173 	.byte	1
00002441 00000000*     11174 	.word	.LDW_48ee8e8
00002445 00            11175 	.byte	0
00002446 016c          11176 	.byte	1,108
                       11177 
                       11178 .LDW_4d775a0:
00002448 1d            11179 	.byte	29

                                                                      Page 198
                                                              C:\Users\nhuliyap\AppData\Local\Temp\gh_00008uc1.s
00002449 00000000*     11180 	.word	.LDW401
0000244d 00000000*     11181 	.word	.LDW501
                       11182 
                       11183 .LDW_4d88890:
00002451 04            11184 	.byte	4
00002452 75736853656e  11185 	.strz	"ushSensorDefect"
00002458 736f72446566 
0000245e 65637400 
00002462 d207          11186 	.byte	210,7
00002464 0a            11187 	.byte	10
00002465 01            11188 	.byte	1
00002466 00000000*     11189 	.word	.LDW_4d76468
0000246a 00            11190 	.byte	0
0000246b 00            11191 	.byte	0
0000246c 016a          11192 	.byte	1,106
                       11193 
                       11194 .LDW_4d889f0:
0000246e 04            11195 	.byte	4
0000246f 75634c6f6361  11196 	.strz	"ucLocalReDataTelType"
00002475 6c5265446174 
0000247b 6154656c5479 
00002481 706500 
00002484 d307          11197 	.byte	211,7
00002486 09            11198 	.byte	9
00002487 01            11199 	.byte	1
00002488 00000000*     11200 	.word	.LDW_48ee8e8
0000248c 00            11201 	.byte	0
0000248d 00            11202 	.byte	0
0000248e 016b          11203 	.byte	1,107
                       11204 
00002490 00            11205 	.byte	0
                       11206 
00002491 00            11207 	.byte	0
                       11208 
                       11209 .LDW_4da9550:
00002492 14            11210 	.byte	20
00002493 756349735265  11211 	.strz	"ucIsReHwDefectPD"
00002499 487744656665 
0000249f 6374504400 
000024a4 c008          11212 	.byte	192,8
000024a6 07            11213 	.byte	7
000024a7 01            11214 	.byte	1
000024a8 00000000*     11215 	.word	.LDW_48ee8e8
000024ac 00000000*     11216 	.word	_ucIsReHwDefectPD
000024b0 00000000*     11217 	.word	___ghs_eofn_ucIsReHwDefectPD
000024b4 0153          11218 	.byte	1,83
000024b6 828080800a    11219 	.byte	130,128,128,128,10
000024bb 08            11220 	.byte	8
000024bc 03            11221 	.byte	3
000024bd 08            11222 	.byte	8
000024be 00            11223 	.byte	0
000024bf 00            11224 	.byte	0
000024c0 00            11225 	.byte	0
000024c1 01            11226 	.byte	1
000024c2 01            11227 	.byte	1
000024c3 00            11228 	.byte	0
000024c4 01            11229 	.byte	1
                       11230 
                       11231 	.section	.debug_frame
                       11232 .LDW_4f499a8:
0000051c 00000000*     11233 	.word	.LDW_unq_60-.LDW_unq_5f

                                                                      Page 199
                                                              C:\Users\nhuliyap\AppData\Local\Temp\gh_00008uc1.s
                       11234 .LDW_unq_5f:
00000520 00000000*     11235 	.word	.LDW_4d1b500
00000524 00000000*     11236 	.word	_ucIsReHwDefectPD
00000528 00000000*     11237 	.word	___ghs_eofn_ucIsReHwDefectPD-_ucIsReHwDefectPD
0000052c 44            11238 	.byte	68
0000052d 9f            11239 	.byte	159
0000052e 00            11240 	.byte	0
0000052f 40            11241 	.byte	64
00000530 9d            11242 	.byte	157
00000531 04            11243 	.byte	4
00000532 01            11244 	.byte	1
00000533 00000000*     11245 	.word	.LDW701
00000537 00            11246 	.byte	0
                       11247 .LDW_unq_60:
                       11248 	.section	.debug_line
00000f2b 000502        11249 	.byte	0,5,2
00000f2e 00000000*     11250 	.word	_ucIsReHwDefectPD
00000f32 03            11251 	.byte	3
00000f33 c008          11252 	.byte	192,8
00000f35 02            11253 	.byte	2
00000f36 00            11254 	.byte	0
00000f37 01            11255 	.byte	1
00000f38 06            11256 	.byte	6
00000f39 25            11257 	.byte	37
00000f3a 000502        11258 	.byte	0,5,2
00000f3d 00000000*     11259 	.word	.LDWlin139
00000f41 0b            11260 	.byte	11
00000f42 0c            11261 	.byte	12
00000f43 1b            11262 	.byte	27
00000f44 0b            11263 	.byte	11
00000f45 000502        11264 	.byte	0,5,2
00000f48 00000000*     11265 	.word	.LDWlin140
00000f4c 0b            11266 	.byte	11
00000f4d 02            11267 	.byte	2
00000f4e 00            11268 	.byte	0
00000f4f 0b            11269 	.byte	11
00000f50 0b            11270 	.byte	11
00000f51 0b            11271 	.byte	11
00000f52 13            11272 	.byte	19
00000f53 02            11273 	.byte	2
00000f54 00            11274 	.byte	0
00000f55 0c            11275 	.byte	12
00000f56 06            11276 	.byte	6
00000f57 02            11277 	.byte	2
00000f58 02            11278 	.byte	2
00000f59 02            11279 	.byte	2
00000f5a 04            11280 	.byte	4
00000f5b 000101        11281 	.byte	0,1,1
                       11282 	.section	.debug_info
                       11283 .LDW_4d88680:
000024c5 0f            11284 	.byte	15
000024c6 5a6f6d536c6f  11285 	.strz	"ZomSlot"
000024cc 7400 
000024ce c008          11286 	.byte	192,8
000024d0 1f            11287 	.byte	31
000024d1 01            11288 	.byte	1
000024d2 00000000*     11289 	.word	.LDW_48ee8e8
000024d6 00            11290 	.byte	0
000024d7 0156          11291 	.byte	1,86
                       11292 
                       11293 .LDW_4d77600:

                                                                      Page 200
                                                              C:\Users\nhuliyap\AppData\Local\Temp\gh_00008uc1.s
000024d9 1d            11294 	.byte	29
000024da 00000000*     11295 	.word	.LDW601
000024de 00000000*     11296 	.word	.LDW701
                       11297 
                       11298 .LDW_4d88940:
000024e2 04            11299 	.byte	4
000024e3 756352657400  11300 	.strz	"ucRet"
000024e9 c208          11301 	.byte	194,8
000024eb 09            11302 	.byte	9
000024ec 01            11303 	.byte	1
000024ed 00000000*     11304 	.word	.LDW_48ee8e8
000024f1 00            11305 	.byte	0
000024f2 00            11306 	.byte	0
000024f3 016d          11307 	.byte	1,109
                       11308 
000024f5 00            11309 	.byte	0
                       11310 
000024f6 00            11311 	.byte	0
                       11312 
                       11313 .LDW_4da9aa8:
000024f7 14            11314 	.byte	20
000024f8 62497352654f  11315 	.strz	"bIsReOverTempPD"
000024fe 76657254656d 
00002504 70504400 
00002508 d308          11316 	.byte	211,8
0000250a 09            11317 	.byte	9
0000250b 01            11318 	.byte	1
0000250c 00000000*     11319 	.word	.LDW_4d76620
00002510 00000000*     11320 	.word	_bIsReOverTempPD
00002514 00000000*     11321 	.word	___ghs_eofn_bIsReOverTempPD
00002518 0153          11322 	.byte	1,83
0000251a 8280808008    11323 	.byte	130,128,128,128,8
0000251f 04            11324 	.byte	4
00002520 03            11325 	.byte	3
00002521 04            11326 	.byte	4
00002522 00            11327 	.byte	0
00002523 00            11328 	.byte	0
00002524 00            11329 	.byte	0
00002525 01            11330 	.byte	1
00002526 01            11331 	.byte	1
00002527 00            11332 	.byte	0
00002528 01            11333 	.byte	1
                       11334 
                       11335 	.section	.debug_frame
                       11336 .LDW_4f496a8:
00000538 00000000*     11337 	.word	.LDW_unq_62-.LDW_unq_61
                       11338 .LDW_unq_61:
0000053c 00000000*     11339 	.word	.LDW_4d1b500
00000540 00000000*     11340 	.word	_bIsReOverTempPD
00000544 00000000*     11341 	.word	___ghs_eofn_bIsReOverTempPD-_bIsReOverTempPD
00000548 44            11342 	.byte	68
00000549 9f            11343 	.byte	159
0000054a 00            11344 	.byte	0
0000054b 01            11345 	.byte	1
0000054c 00000000*     11346 	.word	.LDW901
00000550 44            11347 	.byte	68
00000551 df            11348 	.byte	223
00000552 00            11349 	.byte	0
00000553 00            11350 	.byte	0
                       11351 .LDW_unq_62:
                       11352 	.section	.debug_line

                                                                      Page 201
                                                              C:\Users\nhuliyap\AppData\Local\Temp\gh_00008uc1.s
00000f5e 000502        11353 	.byte	0,5,2
00000f61 00000000*     11354 	.word	_bIsReOverTempPD
00000f65 03            11355 	.byte	3
00000f66 d308          11356 	.byte	211,8
00000f68 02            11357 	.byte	2
00000f69 00            11358 	.byte	0
00000f6a 01            11359 	.byte	1
00000f6b 06            11360 	.byte	6
00000f6c 25            11361 	.byte	37
00000f6d 000502        11362 	.byte	0,5,2
00000f70 00000000*     11363 	.word	.LDWlin141
00000f74 03            11364 	.byte	3
00000f75 06            11365 	.byte	6
00000f76 02            11366 	.byte	2
00000f77 00            11367 	.byte	0
00000f78 01            11368 	.byte	1
00000f79 02            11369 	.byte	2
00000f7a 00            11370 	.byte	0
00000f7b 0c            11371 	.byte	12
00000f7c 02            11372 	.byte	2
00000f7d 04            11373 	.byte	4
00000f7e 000101        11374 	.byte	0,1,1
                       11375 	.section	.debug_info
                       11376 .LDW_4d88730:
00002529 0f            11377 	.byte	15
0000252a 5a6f6d536c6f  11378 	.strz	"ZomSlot"
00002530 7400 
00002532 d308          11379 	.byte	211,8
00002534 20            11380 	.byte	32
00002535 01            11381 	.byte	1
00002536 00000000*     11382 	.word	.LDW_48ee8e8
0000253a 00            11383 	.byte	0
0000253b 0156          11384 	.byte	1,86
                       11385 
                       11386 .LDW_4d77660:
0000253d 1d            11387 	.byte	29
0000253e 00000000*     11388 	.word	.LDW801
00002542 00000000*     11389 	.word	.LDW901
                       11390 
                       11391 .LDW_4d88a48:
00002546 04            11392 	.byte	4
00002547 6252657400    11393 	.strz	"bRet"
0000254c d508          11394 	.byte	213,8
0000254e 0b            11395 	.byte	11
0000254f 01            11396 	.byte	1
00002550 00000000*     11397 	.word	.LDW_4d76620
00002554 00            11398 	.byte	0
00002555 00            11399 	.byte	0
00002556 015a          11400 	.byte	1,90
                       11401 
00002558 00            11402 	.byte	0
                       11403 
00002559 00            11404 	.byte	0
                       11405 
                       11406 .LDW_4da9718:
0000255a 14            11407 	.byte	20
0000255b 62497352654c  11408 	.strz	"bIsReLowLifeTimePD"
00002561 6f774c696665 
00002567 54696d655044 
0000256d 00 
0000256e e208          11409 	.byte	226,8

                                                                      Page 202
                                                              C:\Users\nhuliyap\AppData\Local\Temp\gh_00008uc1.s
00002570 09            11410 	.byte	9
00002571 01            11411 	.byte	1
00002572 00000000*     11412 	.word	.LDW_4d76620
00002576 00000000*     11413 	.word	_bIsReLowLifeTimePD
0000257a 00000000*     11414 	.word	___ghs_eofn_bIsReLowLifeTimePD
0000257e 0153          11415 	.byte	1,83
00002580 8280808008    11416 	.byte	130,128,128,128,8
00002585 04            11417 	.byte	4
00002586 03            11418 	.byte	3
00002587 04            11419 	.byte	4
00002588 00            11420 	.byte	0
00002589 00            11421 	.byte	0
0000258a 00            11422 	.byte	0
0000258b 01            11423 	.byte	1
0000258c 01            11424 	.byte	1
0000258d 00            11425 	.byte	0
0000258e 01            11426 	.byte	1
                       11427 
                       11428 	.section	.debug_frame
                       11429 .LDW_4f49a28:
00000554 00000000*     11430 	.word	.LDW_unq_64-.LDW_unq_63
                       11431 .LDW_unq_63:
00000558 00000000*     11432 	.word	.LDW_4d1b500
0000055c 00000000*     11433 	.word	_bIsReLowLifeTimePD
00000560 00000000*     11434 	.word	___ghs_eofn_bIsReLowLifeTimePD-_bIsReLowLifeTimePD
00000564 44            11435 	.byte	68
00000565 9f            11436 	.byte	159
00000566 00            11437 	.byte	0
00000567 01            11438 	.byte	1
00000568 00000000*     11439 	.word	.LDW111
0000056c 44            11440 	.byte	68
0000056d df            11441 	.byte	223
0000056e 00            11442 	.byte	0
0000056f 00            11443 	.byte	0
                       11444 .LDW_unq_64:
                       11445 	.section	.debug_line
00000f81 000502        11446 	.byte	0,5,2
00000f84 00000000*     11447 	.word	_bIsReLowLifeTimePD
00000f88 03            11448 	.byte	3
00000f89 e208          11449 	.byte	226,8
00000f8b 02            11450 	.byte	2
00000f8c 00            11451 	.byte	0
00000f8d 01            11452 	.byte	1
00000f8e 06            11453 	.byte	6
00000f8f 25            11454 	.byte	37
00000f90 000502        11455 	.byte	0,5,2
00000f93 00000000*     11456 	.word	.LDWlin142
00000f97 03            11457 	.byte	3
00000f98 07            11458 	.byte	7
00000f99 02            11459 	.byte	2
00000f9a 00            11460 	.byte	0
00000f9b 01            11461 	.byte	1
00000f9c 02            11462 	.byte	2
00000f9d 00            11463 	.byte	0
00000f9e 0c            11464 	.byte	12
00000f9f 02            11465 	.byte	2
00000fa0 04            11466 	.byte	4
00000fa1 000101        11467 	.byte	0,1,1
                       11468 	.section	.debug_info
                       11469 .LDW_4d88788:
0000258f 0f            11470 	.byte	15

                                                                      Page 203
                                                              C:\Users\nhuliyap\AppData\Local\Temp\gh_00008uc1.s
00002590 5a6f6d536c6f  11471 	.strz	"ZomSlot"
00002596 7400 
00002598 e208          11472 	.byte	226,8
0000259a 23            11473 	.byte	35
0000259b 01            11474 	.byte	1
0000259c 00000000*     11475 	.word	.LDW_48ee8e8
000025a0 00            11476 	.byte	0
000025a1 0156          11477 	.byte	1,86
                       11478 
                       11479 .LDW_4d77120:
000025a3 1d            11480 	.byte	29
000025a4 00000000*     11481 	.word	.LDW011
000025a8 00000000*     11482 	.word	.LDW111
                       11483 
                       11484 .LDW_4d886d8:
000025ac 04            11485 	.byte	4
000025ad 6252657400    11486 	.strz	"bRet"
000025b2 e408          11487 	.byte	228,8
000025b4 0b            11488 	.byte	11
000025b5 01            11489 	.byte	1
000025b6 00000000*     11490 	.word	.LDW_4d76620
000025ba 00            11491 	.byte	0
000025bb 00            11492 	.byte	0
000025bc 015a          11493 	.byte	1,90
                       11494 
000025be 00            11495 	.byte	0
                       11496 
000025bf 00            11497 	.byte	0
                       11498 
                       11499 .LDW_4daa558:
000025c0 14            11500 	.byte	20
000025c1 474554756350  11501 	.strz	"GETucPatmoPD"
000025c7 61746d6f5044 
000025cd 00 
000025ce a209          11502 	.byte	162,9
000025d0 07            11503 	.byte	7
000025d1 01            11504 	.byte	1
000025d2 00000000*     11505 	.word	.LDW_48ee8e8
000025d6 00000000*     11506 	.word	_GETucPatmoPD
000025da 00000000*     11507 	.word	___ghs_eofn_GETucPatmoPD
000025de 0153          11508 	.byte	1,83
000025e0 02            11509 	.byte	2
000025e1 00            11510 	.byte	0
000025e2 02            11511 	.byte	2
000025e3 00            11512 	.byte	0
000025e4 00            11513 	.byte	0
000025e5 00            11514 	.byte	0
000025e6 00            11515 	.byte	0
000025e7 01            11516 	.byte	1
000025e8 01            11517 	.byte	1
000025e9 00            11518 	.byte	0
000025ea 01            11519 	.byte	1
                       11520 
                       11521 	.section	.debug_frame
                       11522 .LDW_4c20cd8:
00000570 00000000*     11523 	.word	.LDW_unq_66-.LDW_unq_65
                       11524 .LDW_unq_65:
00000574 00000000*     11525 	.word	.LDW_4d1b500
00000578 00000000*     11526 	.word	_GETucPatmoPD
0000057c 00000000*     11527 	.word	___ghs_eofn_GETucPatmoPD-_GETucPatmoPD
00000580 01            11528 	.byte	1

                                                                      Page 204
                                                              C:\Users\nhuliyap\AppData\Local\Temp\gh_00008uc1.s
00000581 00000000*     11529 	.word	.LDW79
00000585 00            11530 	.byte	0
00000586 00            11531 	.byte	0
00000587 00            11532 	.byte	0
                       11533 .LDW_unq_66:
                       11534 	.section	.debug_line
00000fa4 000502        11535 	.byte	0,5,2
00000fa7 00000000*     11536 	.word	_GETucPatmoPD
00000fab 06            11537 	.byte	6
00000fac 03            11538 	.byte	3
00000fad a509          11539 	.byte	165,9
00000faf 02            11540 	.byte	2
00000fb0 00            11541 	.byte	0
00000fb1 01            11542 	.byte	1
00000fb2 000502        11543 	.byte	0,5,2
00000fb5 00000000*     11544 	.word	.LDWlin100
00000fb9 0b            11545 	.byte	11
00000fba 0c            11546 	.byte	12
00000fbb 0b            11547 	.byte	11
00000fbc 0c            11548 	.byte	12
00000fbd 02            11549 	.byte	2
00000fbe 00            11550 	.byte	0
00000fbf 0c            11551 	.byte	12
00000fc0 02            11552 	.byte	2
00000fc1 02            11553 	.byte	2
00000fc2 000101        11554 	.byte	0,1,1
                       11555 	.section	.debug_info
                       11556 .LDW_4d77150:
000025eb 1d            11557 	.byte	29
000025ec 00000000*     11558 	.word	.LDW69
000025f0 00000000*     11559 	.word	.LDW79
                       11560 
                       11561 .LDW_4d885d0:
000025f4 04            11562 	.byte	4
000025f5 72657400      11563 	.strz	"ret"
000025f9 a409          11564 	.byte	164,9
000025fb 09            11565 	.byte	9
000025fc 01            11566 	.byte	1
000025fd 00000000*     11567 	.word	.LDW_48ee8e8
00002601 00            11568 	.byte	0
00002602 00            11569 	.byte	0
00002603 015a          11570 	.byte	1,90
                       11571 
00002605 00            11572 	.byte	0
                       11573 
00002606 00            11574 	.byte	0
                       11575 
                       11576 .LDW_4da9e38:
00002607 13            11577 	.byte	19
00002608 505554756350  11578 	.strz	"PUTucPatmoPD"
0000260e 61746d6f5044 
00002614 00 
00002615 b109          11579 	.byte	177,9
00002617 06            11580 	.byte	6
00002618 01            11581 	.byte	1
00002619 00000000*     11582 	.word	_PUTucPatmoPD
0000261d 00000000*     11583 	.word	___ghs_eofn_PUTucPatmoPD
00002621 0153          11584 	.byte	1,83
00002623 02            11585 	.byte	2
00002624 00            11586 	.byte	0
00002625 02            11587 	.byte	2

                                                                      Page 205
                                                              C:\Users\nhuliyap\AppData\Local\Temp\gh_00008uc1.s
00002626 00            11588 	.byte	0
00002627 00            11589 	.byte	0
00002628 00            11590 	.byte	0
00002629 00            11591 	.byte	0
0000262a 01            11592 	.byte	1
0000262b 01            11593 	.byte	1
0000262c 00            11594 	.byte	0
0000262d 01            11595 	.byte	1
                       11596 
                       11597 	.section	.debug_frame
                       11598 .LDW_4dbdf18:
00000588 00000000*     11599 	.word	.LDW_unq_68-.LDW_unq_67
                       11600 .LDW_unq_67:
0000058c 00000000*     11601 	.word	.LDW_4d1b500
00000590 00000000*     11602 	.word	_PUTucPatmoPD
00000594 00000000*     11603 	.word	___ghs_eofn_PUTucPatmoPD-_PUTucPatmoPD
00000598 01            11604 	.byte	1
00000599 00000000*     11605 	.word	.LDW11
0000059d 00            11606 	.byte	0
0000059e 00            11607 	.byte	0
0000059f 00            11608 	.byte	0
                       11609 .LDW_unq_68:
                       11610 	.section	.debug_line
00000fc5 000502        11611 	.byte	0,5,2
00000fc8 00000000*     11612 	.word	_PUTucPatmoPD
00000fcc 06            11613 	.byte	6
00000fcd 03            11614 	.byte	3
00000fce b209          11615 	.byte	178,9
00000fd0 02            11616 	.byte	2
00000fd1 00            11617 	.byte	0
00000fd2 01            11618 	.byte	1
00000fd3 000502        11619 	.byte	0,5,2
00000fd6 00000000*     11620 	.word	.LDWlin1
00000fda 0b            11621 	.byte	11
00000fdb 02            11622 	.byte	2
00000fdc 02            11623 	.byte	2
00000fdd 000101        11624 	.byte	0,1,1
                       11625 	.section	.debug_info
                       11626 .LDW_4d887e0:
0000262e 0f            11627 	.byte	15
0000262f 7563496e4461  11628 	.strz	"ucInData"
00002635 746100 
00002638 b109          11629 	.byte	177,9
0000263a 1a            11630 	.byte	26
0000263b 01            11631 	.byte	1
0000263c 00000000*     11632 	.word	.LDW_48ee8e8
00002640 00            11633 	.byte	0
00002641 0156          11634 	.byte	1,86
                       11635 
                       11636 .LDW_4d779f0:
00002643 1d            11637 	.byte	29
00002644 00000000*     11638 	.word	.LDW01
00002648 00000000*     11639 	.word	.LDW11
                       11640 
0000264c 00            11641 	.byte	0
                       11642 
0000264d 00            11643 	.byte	0
                       11644 
                       11645 .LDW_4daa000:
0000264e 13            11646 	.byte	19
0000264f 43616c635061  11647 	.strz	"CalcPatmo"

                                                                      Page 206
                                                              C:\Users\nhuliyap\AppData\Local\Temp\gh_00008uc1.s
00002655 746d6f00 
00002659 b609          11648 	.byte	182,9
0000265b 06            11649 	.byte	6
0000265c 01            11650 	.byte	1
0000265d 00000000*     11651 	.word	_CalcPatmo
00002661 00000000*     11652 	.word	___ghs_eofn_CalcPatmo
00002665 0153          11653 	.byte	1,83
00002667 828080c00b    11654 	.byte	130,128,128,192,11
0000266c 10            11655 	.byte	16
0000266d 03            11656 	.byte	3
0000266e 14            11657 	.byte	20
0000266f 00            11658 	.byte	0
00002670 00            11659 	.byte	0
00002671 00            11660 	.byte	0
00002672 01            11661 	.byte	1
00002673 01            11662 	.byte	1
00002674 00            11663 	.byte	0
00002675 01            11664 	.byte	1
                       11665 
                       11666 	.section	.debug_frame
                       11667 .LDW_4f496e8:
000005a0 00000000*     11668 	.word	.LDW_unq_6a-.LDW_unq_69
                       11669 .LDW_unq_69:
000005a4 00000000*     11670 	.word	.LDW_4d1b500
000005a8 00000000*     11671 	.word	_CalcPatmo
000005ac 00000000*     11672 	.word	___ghs_eofn_CalcPatmo-_CalcPatmo
000005b0 44            11673 	.byte	68
000005b1 9f            11674 	.byte	159
000005b2 03            11675 	.byte	3
000005b3 40            11676 	.byte	64
000005b4 9d            11677 	.byte	157
000005b5 07            11678 	.byte	7
000005b6 40            11679 	.byte	64
000005b7 9c            11680 	.byte	156
000005b8 0b            11681 	.byte	11
000005b9 40            11682 	.byte	64
000005ba 9b            11683 	.byte	155
000005bb 0f            11684 	.byte	15
000005bc 01            11685 	.byte	1
000005bd 00000000*     11686 	.word	.LDW311
000005c1 00            11687 	.byte	0
000005c2 00            11688 	.byte	0
000005c3 00            11689 	.byte	0
                       11690 .LDW_unq_6a:
                       11691 	.section	.debug_line
00000fe0 000502        11692 	.byte	0,5,2
00000fe3 00000000*     11693 	.word	_CalcPatmo
00000fe7 03            11694 	.byte	3
00000fe8 b609          11695 	.byte	182,9
00000fea 02            11696 	.byte	2
00000feb 00            11697 	.byte	0
00000fec 01            11698 	.byte	1
00000fed 06            11699 	.byte	6
00000fee 000502        11700 	.byte	0,5,2
00000ff1 00000000*     11701 	.word	.LDWlin143
00000ff5 03            11702 	.byte	3
00000ff6 06            11703 	.byte	6
00000ff7 02            11704 	.byte	2
00000ff8 00            11705 	.byte	0
00000ff9 01            11706 	.byte	1
00000ffa 000502        11707 	.byte	0,5,2

                                                                      Page 207
                                                              C:\Users\nhuliyap\AppData\Local\Temp\gh_00008uc1.s
00000ffd 00000000*     11708 	.word	.LDWlin144
00001001 03            11709 	.byte	3
00001002 7f            11710 	.byte	127
00001003 02            11711 	.byte	2
00001004 00            11712 	.byte	0
00001005 01            11713 	.byte	1
00001006 2d            11714 	.byte	45
00001007 000502        11715 	.byte	0,5,2
0000100a 00000000*     11716 	.word	.LDWlin145
0000100e 0b            11717 	.byte	11
0000100f 0b            11718 	.byte	11
00001010 000502        11719 	.byte	0,5,2
00001013 00000000*     11720 	.word	.LDWlin146
00001017 0c            11721 	.byte	12
00001018 000502        11722 	.byte	0,5,2
0000101b 00000000*     11723 	.word	.LDWlin147
0000101f 0b            11724 	.byte	11
00001020 0c            11725 	.byte	12
00001021 000502        11726 	.byte	0,5,2
00001024 00000000*     11727 	.word	.LDWlin148
00001028 0b            11728 	.byte	11
00001029 0c            11729 	.byte	12
0000102a 000502        11730 	.byte	0,5,2
0000102d 00000000*     11731 	.word	.LDWlin149
00001031 0b            11732 	.byte	11
00001032 02            11733 	.byte	2
00001033 00            11734 	.byte	0
00001034 0c            11735 	.byte	12
00001035 1b            11736 	.byte	27
00001036 000502        11737 	.byte	0,5,2
00001039 00000000*     11738 	.word	.LDWlin150
0000103d 0d            11739 	.byte	13
0000103e 000502        11740 	.byte	0,5,2
00001041 00000000*     11741 	.word	.LDWlin151
00001045 0d            11742 	.byte	13
00001046 000502        11743 	.byte	0,5,2
00001049 00000000*     11744 	.word	.LDWlin152
0000104d 0b            11745 	.byte	11
0000104e 02            11746 	.byte	2
0000104f 00            11747 	.byte	0
00001050 0c            11748 	.byte	12
00001051 1b            11749 	.byte	27
00001052 0b            11750 	.byte	11
00001053 0c            11751 	.byte	12
00001054 02            11752 	.byte	2
00001055 00            11753 	.byte	0
00001056 0b            11754 	.byte	11
00001057 02            11755 	.byte	2
00001058 04            11756 	.byte	4
00001059 000101        11757 	.byte	0,1,1
                       11758 	.section	.debug_info
                       11759 .LDW_4d77930:
00002676 1d            11760 	.byte	29
00002677 00000000*     11761 	.word	.LDW211
0000267b 00000000*     11762 	.word	.LDW311
                       11763 
                       11764 .LDW_4d888e8:
0000267f 04            11765 	.byte	4
00002680 7563466d6d6f  11766 	.strz	"ucFmmotmax"
00002686 746d617800 
0000268b b909          11767 	.byte	185,9

                                                                      Page 208
                                                              C:\Users\nhuliyap\AppData\Local\Temp\gh_00008uc1.s
0000268d 09            11768 	.byte	9
0000268e 01            11769 	.byte	1
0000268f 00000000*     11770 	.word	.LDW_48ee8e8
00002693 00            11771 	.byte	0
00002694 00            11772 	.byte	0
00002695 0273          11773 	.byte	2,115
00002697 03            11774 	.byte	3
                       11775 
                       11776 .LDW_4d88628:
00002698 04            11777 	.byte	4
00002699 75736843616c  11778 	.strz	"ushCalcValue"
0000269f 6356616c7565 
000026a5 00 
000026a6 ba09          11779 	.byte	186,9
000026a8 0a            11780 	.byte	10
000026a9 01            11781 	.byte	1
000026aa 00000000*     11782 	.word	.LDW_4d76468
000026ae 00            11783 	.byte	0
000026af 00            11784 	.byte	0
000026b0 0156          11785 	.byte	1,86
                       11786 
                       11787 .LDW_4d88838:
000026b2 04            11788 	.byte	4
000026b3 756331736563  11789 	.strz	"uc1secTimer"
000026b9 54696d657200 
000026bf b809          11790 	.byte	184,9
000026c1 10            11791 	.byte	16
000026c2 01            11792 	.byte	1
000026c3 00000000*     11793 	.word	.LDW_48ee8e8
000026c7 00            11794 	.byte	0
000026c8 00            11795 	.byte	0
000026c9 0503          11796 	.byte	5,3
000026cb 00000000*     11797 	.word	_uc1secTimer.CalcPatmo.C.3A.5C_ECU2.5CECU_Rivian_A1.5CTarget.5Crepo_projects.5CpRealEcu.5CcL_LATEST.5Cmake.5Coutput.5Cobjects.5Cprocdat..17
                       11798 
                       11799 .LDW_4dab7c8:
000026cf 04            11800 	.byte	4
000026d0 756c4d65616e  11801 	.strz	"ulMeanValue"
000026d6 56616c756500 
000026dc bb09          11802 	.byte	187,9
000026de 11            11803 	.byte	17
000026df 01            11804 	.byte	1
000026e0 00000000*     11805 	.word	.LDW_48eea30
000026e4 00            11806 	.byte	0
000026e5 00            11807 	.byte	0
000026e6 0503          11808 	.byte	5,3
000026e8 00000000*     11809 	.word	_ulMeanValue.CalcPatmo.C.3A.5C_ECU2.5CECU_Rivian_A1.5CTarget.5Crepo_projects.5CpRealEcu.5CcL_LATEST.5Cmake.5Coutput.5Cobjects.5Cprocdat..18
                       11810 
000026ec 00            11811 	.byte	0
                       11812 
000026ed 00            11813 	.byte	0
                       11814 
                       11815 .LDW_4da9ed0:
000026ee 13            11816 	.byte	19
000026ef 53617665526f  11817 	.strz	"SaveRotatS"
000026f5 7461745300 
000026fa dd09          11818 	.byte	221,9
000026fc 06            11819 	.byte	6
000026fd 01            11820 	.byte	1
000026fe 00000000*     11821 	.word	_SaveRotatS
00002702 00000000*     11822 	.word	___ghs_eofn_SaveRotatS
00002706 0153          11823 	.byte	1,83

                                                                      Page 209
                                                              C:\Users\nhuliyap\AppData\Local\Temp\gh_00008uc1.s
00002708 02            11824 	.byte	2
00002709 00            11825 	.byte	0
0000270a 02            11826 	.byte	2
0000270b 00            11827 	.byte	0
0000270c 00            11828 	.byte	0
0000270d 00            11829 	.byte	0
0000270e 00            11830 	.byte	0
0000270f 01            11831 	.byte	1
00002710 01            11832 	.byte	1
00002711 00            11833 	.byte	0
00002712 01            11834 	.byte	1
                       11835 
                       11836 	.section	.debug_frame
                       11837 .LDW_4f49a68:
000005c4 00000000*     11838 	.word	.LDW_unq_6c-.LDW_unq_6b
                       11839 .LDW_unq_6b:
000005c8 00000000*     11840 	.word	.LDW_4d1b500
000005cc 00000000*     11841 	.word	_SaveRotatS
000005d0 00000000*     11842 	.word	___ghs_eofn_SaveRotatS-_SaveRotatS
000005d4 01            11843 	.byte	1
000005d5 00000000*     11844 	.word	.LDW511
000005d9 00            11845 	.byte	0
000005da 00            11846 	.byte	0
000005db 00            11847 	.byte	0
                       11848 .LDW_unq_6c:
                       11849 	.section	.debug_line
0000105c 000502        11850 	.byte	0,5,2
0000105f 00000000*     11851 	.word	_SaveRotatS
00001063 03            11852 	.byte	3
00001064 dc09          11853 	.byte	220,9
00001066 02            11854 	.byte	2
00001067 00            11855 	.byte	0
00001068 01            11856 	.byte	1
00001069 06            11857 	.byte	6
0000106a 000502        11858 	.byte	0,5,2
0000106d 00000000*     11859 	.word	.LDWlin153
00001071 0b            11860 	.byte	11
00001072 1b            11861 	.byte	27
00001073 23            11862 	.byte	35
00001074 02            11863 	.byte	2
00001075 02            11864 	.byte	2
00001076 000101        11865 	.byte	0,1,1
                       11866 	.section	.debug_info
                       11867 .LDW_4d77720:
00002713 1d            11868 	.byte	29
00002714 00000000*     11869 	.word	.LDW411
00002718 00000000*     11870 	.word	.LDW511
                       11871 
0000271c 00            11872 	.byte	0
                       11873 
0000271d 00            11874 	.byte	0
                       11875 
                       11876 .LDW_4da95e8:
0000271e 13            11877 	.byte	19
0000271f 507574526f74  11878 	.strz	"PutRotatSDataInBuffer"
00002725 617453446174 
0000272b 61496e427566 
00002731 66657200 
00002735 f109          11879 	.byte	241,9
00002737 06            11880 	.byte	6
00002738 01            11881 	.byte	1

                                                                      Page 210
                                                              C:\Users\nhuliyap\AppData\Local\Temp\gh_00008uc1.s
00002739 00000000*     11882 	.word	_PutRotatSDataInBuffer
0000273d 00000000*     11883 	.word	___ghs_eofn_PutRotatSDataInBuffer
00002741 0153          11884 	.byte	1,83
00002743 828080800a    11885 	.byte	130,128,128,128,10
00002748 08            11886 	.byte	8
00002749 03            11887 	.byte	3
0000274a 08            11888 	.byte	8
0000274b 00            11889 	.byte	0
0000274c 00            11890 	.byte	0
0000274d 00            11891 	.byte	0
0000274e 01            11892 	.byte	1
0000274f 01            11893 	.byte	1
00002750 00            11894 	.byte	0
00002751 01            11895 	.byte	1
                       11896 
                       11897 	.section	.debug_frame
                       11898 .LDW_4f49428:
000005dc 00000000*     11899 	.word	.LDW_unq_6e-.LDW_unq_6d
                       11900 .LDW_unq_6d:
000005e0 00000000*     11901 	.word	.LDW_4d1b500
000005e4 00000000*     11902 	.word	_PutRotatSDataInBuffer
000005e8 00000000*     11903 	.word	___ghs_eofn_PutRotatSDataInBuffer-_PutRotatSDataInBuffer
000005ec 44            11904 	.byte	68
000005ed 9f            11905 	.byte	159
000005ee 00            11906 	.byte	0
000005ef 40            11907 	.byte	64
000005f0 9d            11908 	.byte	157
000005f1 04            11909 	.byte	4
000005f2 01            11910 	.byte	1
000005f3 00000000*     11911 	.word	.LDW711
000005f7 00            11912 	.byte	0
                       11913 .LDW_unq_6e:
                       11914 	.section	.debug_line
00001079 000502        11915 	.byte	0,5,2
0000107c 00000000*     11916 	.word	_PutRotatSDataInBuffer
00001080 03            11917 	.byte	3
00001081 f109          11918 	.byte	241,9
00001083 02            11919 	.byte	2
00001084 00            11920 	.byte	0
00001085 01            11921 	.byte	1
00001086 06            11922 	.byte	6
00001087 000502        11923 	.byte	0,5,2
0000108a 00000000*     11924 	.word	.LDWlin154
0000108e 0d            11925 	.byte	13
0000108f 000502        11926 	.byte	0,5,2
00001092 00000000*     11927 	.word	.LDWlin155
00001096 0b            11928 	.byte	11
00001097 0c            11929 	.byte	12
00001098 2c            11930 	.byte	44
00001099 03            11931 	.byte	3
0000109a 7f            11932 	.byte	127
0000109b 02            11933 	.byte	2
0000109c 08            11934 	.byte	8
0000109d 01            11935 	.byte	1
0000109e 33            11936 	.byte	51
0000109f 0c            11937 	.byte	12
000010a0 03            11938 	.byte	3
000010a1 7e            11939 	.byte	126
000010a2 02            11940 	.byte	2
000010a3 0c            11941 	.byte	12
000010a4 01            11942 	.byte	1

                                                                      Page 211
                                                              C:\Users\nhuliyap\AppData\Local\Temp\gh_00008uc1.s
000010a5 000502        11943 	.byte	0,5,2
000010a8 00000000*     11944 	.word	.LDWlin156
000010ac 0d            11945 	.byte	13
000010ad 0b            11946 	.byte	11
000010ae 000502        11947 	.byte	0,5,2
000010b1 00000000*     11948 	.word	.LDWlin157
000010b5 0b            11949 	.byte	11
000010b6 02            11950 	.byte	2
000010b7 00            11951 	.byte	0
000010b8 0c            11952 	.byte	12
000010b9 1b            11953 	.byte	27
000010ba 43            11954 	.byte	67
000010bb 02            11955 	.byte	2
000010bc 04            11956 	.byte	4
000010bd 000101        11957 	.byte	0,1,1
                       11958 	.section	.debug_info
                       11959 .LDW_4dab9d8:
00002752 0f            11960 	.byte	15
00002753 737052784461  11961 	.strz	"spRxDataIn"
00002759 7461496e00 
0000275e f109          11962 	.byte	241,9
00002760 31            11963 	.byte	49
00002761 01            11964 	.byte	1
00002762 00000000*     11965 	.word	.LDW_4d747e0
00002766 00            11966 	.byte	0
00002767 0156          11967 	.byte	1,86
                       11968 
                       11969 .LDW_4d778a0:
00002769 1d            11970 	.byte	29
0000276a 00000000*     11971 	.word	.LDW611
0000276e 00000000*     11972 	.word	.LDW711
                       11973 
                       11974 .LDW_4daba88:
00002772 04            11975 	.byte	4
00002773 6900          11976 	.strz	"i"
00002775 f309          11977 	.byte	243,9
00002777 07            11978 	.byte	7
00002778 01            11979 	.byte	1
00002779 00000000*     11980 	.word	.LDW_4da9108
0000277d 00            11981 	.byte	0
0000277e 00            11982 	.byte	0
0000277f 0161          11983 	.byte	1,97
                       11984 
00002781 00            11985 	.byte	0
                       11986 
00002782 00            11987 	.byte	0
                       11988 
                       11989 .LDW_4daa1c8:
00002783 14            11990 	.byte	20
00002784 70476574526f  11991 	.strz	"pGetRotatSDataTFromBuffer"
0000278a 746174534461 
00002790 74615446726f 
00002796 6d4275666665 
0000279c 7200 
0000279e 850a          11992 	.byte	133,10
000027a0 0f            11993 	.byte	15
000027a1 01            11994 	.byte	1
000027a2 00000000*     11995 	.word	.LDW_4da8ae8
000027a6 00000000*     11996 	.word	_pGetRotatSDataTFromBuffer
000027aa 00000000*     11997 	.word	___ghs_eofn_pGetRotatSDataTFromBuffer
000027ae 0153          11998 	.byte	1,83

                                                                      Page 212
                                                              C:\Users\nhuliyap\AppData\Local\Temp\gh_00008uc1.s
000027b0 02            11999 	.byte	2
000027b1 00            12000 	.byte	0
000027b2 02            12001 	.byte	2
000027b3 00            12002 	.byte	0
000027b4 00            12003 	.byte	0
000027b5 00            12004 	.byte	0
000027b6 00            12005 	.byte	0
000027b7 01            12006 	.byte	1
000027b8 01            12007 	.byte	1
000027b9 00            12008 	.byte	0
000027ba 01            12009 	.byte	1
                       12010 
                       12011 	.section	.debug_frame
                       12012 .LDW_4eebe50:
000005f8 00000000*     12013 	.word	.LDW_unq_70-.LDW_unq_6f
                       12014 .LDW_unq_6f:
000005fc 00000000*     12015 	.word	.LDW_4d1b500
00000600 00000000*     12016 	.word	_pGetRotatSDataTFromBuffer
00000604 00000000*     12017 	.word	___ghs_eofn_pGetRotatSDataTFromBuffer-_pGetRotatSDataTFromBuffer
00000608 01            12018 	.byte	1
00000609 00000000*     12019 	.word	.LDW911
0000060d 00            12020 	.byte	0
0000060e 00            12021 	.byte	0
0000060f 00            12022 	.byte	0
                       12023 .LDW_unq_70:
                       12024 	.section	.debug_line
000010c0 000502        12025 	.byte	0,5,2
000010c3 00000000*     12026 	.word	_pGetRotatSDataTFromBuffer
000010c7 03            12027 	.byte	3
000010c8 850a          12028 	.byte	133,10
000010ca 02            12029 	.byte	2
000010cb 00            12030 	.byte	0
000010cc 01            12031 	.byte	1
000010cd 06            12032 	.byte	6
000010ce 13            12033 	.byte	19
000010cf 06            12034 	.byte	6
000010d0 000502        12035 	.byte	0,5,2
000010d3 00000000*     12036 	.word	.LDWlin158
000010d7 02            12037 	.byte	2
000010d8 00            12038 	.byte	0
000010d9 02            12039 	.byte	2
000010da 02            12040 	.byte	2
000010db 000101        12041 	.byte	0,1,1
                       12042 	.section	.debug_info
                       12043 .LDW_4dab458:
000027bb 0f            12044 	.byte	15
000027bc 756342756666  12045 	.strz	"ucBufferIndex"
000027c2 6572496e6465 
000027c8 7800 
000027ca 850a          12046 	.byte	133,10
000027cc 2f            12047 	.byte	47
000027cd 01            12048 	.byte	1
000027ce 00000000*     12049 	.word	.LDW_48ee8e8
000027d2 00            12050 	.byte	0
000027d3 0156          12051 	.byte	1,86
                       12052 
                       12053 .LDW_4d77900:
000027d5 1d            12054 	.byte	29
000027d6 00000000*     12055 	.word	.LDW811
000027da 00000000*     12056 	.word	.LDW911
                       12057 

                                                                      Page 213
                                                              C:\Users\nhuliyap\AppData\Local\Temp\gh_00008uc1.s
000027de 00            12058 	.byte	0
                       12059 
000027df 00            12060 	.byte	0
                       12061 
                       12062 .LDW_4daa2f8:
000027e0 14            12063 	.byte	20
000027e1 756347657452  12064 	.strz	"ucGetRotatSDataBufferIndex"
000027e7 6f7461745344 
000027ed 617461427566 
000027f3 666572496e64 
000027f9 657800 
000027fc 8a0a          12065 	.byte	138,10
000027fe 07            12066 	.byte	7
000027ff 01            12067 	.byte	1
00002800 00000000*     12068 	.word	.LDW_48ee8e8
00002804 00000000*     12069 	.word	_ucGetRotatSDataBufferIndex
00002808 00000000*     12070 	.word	___ghs_eofn_ucGetRotatSDataBufferIndex
0000280c 0153          12071 	.byte	1,83
0000280e 02            12072 	.byte	2
0000280f 00            12073 	.byte	0
00002810 02            12074 	.byte	2
00002811 00            12075 	.byte	0
00002812 00            12076 	.byte	0
00002813 00            12077 	.byte	0
00002814 00            12078 	.byte	0
00002815 01            12079 	.byte	1
00002816 01            12080 	.byte	1
00002817 00            12081 	.byte	0
00002818 01            12082 	.byte	1
                       12083 
                       12084 	.section	.debug_frame
                       12085 .LDW_4eec0d0:
00000610 00000000*     12086 	.word	.LDW_unq_72-.LDW_unq_71
                       12087 .LDW_unq_71:
00000614 00000000*     12088 	.word	.LDW_4d1b500
00000618 00000000*     12089 	.word	_ucGetRotatSDataBufferIndex
0000061c 00000000*     12090 	.word	___ghs_eofn_ucGetRotatSDataBufferIndex-_ucGetRotatSDataBufferIndex
00000620 01            12091 	.byte	1
00000621 00000000*     12092 	.word	.LDW121
00000625 00            12093 	.byte	0
00000626 00            12094 	.byte	0
00000627 00            12095 	.byte	0
                       12096 .LDW_unq_72:
                       12097 	.section	.debug_line
000010de 000502        12098 	.byte	0,5,2
000010e1 00000000*     12099 	.word	_ucGetRotatSDataBufferIndex
000010e5 06            12100 	.byte	6
000010e6 03            12101 	.byte	3
000010e7 8a0a          12102 	.byte	138,10
000010e9 02            12103 	.byte	2
000010ea 00            12104 	.byte	0
000010eb 01            12105 	.byte	1
000010ec 06            12106 	.byte	6
000010ed 000502        12107 	.byte	0,5,2
000010f0 00000000*     12108 	.word	.LDWlin159
000010f4 02            12109 	.byte	2
000010f5 00            12110 	.byte	0
000010f6 02            12111 	.byte	2
000010f7 02            12112 	.byte	2
000010f8 000101        12113 	.byte	0,1,1
                       12114 	.section	.debug_info

                                                                      Page 214
                                                              C:\Users\nhuliyap\AppData\Local\Temp\gh_00008uc1.s
                       12115 .LDW_4d776c0:
00002819 1d            12116 	.byte	29
0000281a 00000000*     12117 	.word	.LDW021
0000281e 00000000*     12118 	.word	.LDW121
                       12119 
00002822 00            12120 	.byte	0
                       12121 
00002823 00            12122 	.byte	0
                       12123 
                       12124 .LDW_4da9bd8:
00002824 14            12125 	.byte	20
00002825 757368476574  12126 	.strz	"ushGetRotatSVehSpeed"
0000282b 526f74617453 
00002831 566568537065 
00002837 656400 
0000283a 8e0a          12127 	.byte	142,10
0000283c 08            12128 	.byte	8
0000283d 01            12129 	.byte	1
0000283e 00000000*     12130 	.word	.LDW_4d76468
00002842 00000000*     12131 	.word	_ushGetRotatSVehSpeed
00002846 00000000*     12132 	.word	___ghs_eofn_ushGetRotatSVehSpeed
0000284a 0153          12133 	.byte	1,83
0000284c 02            12134 	.byte	2
0000284d 00            12135 	.byte	0
0000284e 02            12136 	.byte	2
0000284f 00            12137 	.byte	0
00002850 00            12138 	.byte	0
00002851 00            12139 	.byte	0
00002852 00            12140 	.byte	0
00002853 01            12141 	.byte	1
00002854 01            12142 	.byte	1
00002855 00            12143 	.byte	0
00002856 01            12144 	.byte	1
                       12145 
                       12146 	.section	.debug_frame
                       12147 .LDW_4eec110:
00000628 00000000*     12148 	.word	.LDW_unq_74-.LDW_unq_73
                       12149 .LDW_unq_73:
0000062c 00000000*     12150 	.word	.LDW_4d1b500
00000630 00000000*     12151 	.word	_ushGetRotatSVehSpeed
00000634 00000000*     12152 	.word	___ghs_eofn_ushGetRotatSVehSpeed-_ushGetRotatSVehSpeed
00000638 01            12153 	.byte	1
00000639 00000000*     12154 	.word	.LDW321
0000063d 00            12155 	.byte	0
0000063e 00            12156 	.byte	0
0000063f 00            12157 	.byte	0
                       12158 .LDW_unq_74:
                       12159 	.section	.debug_line
000010fb 000502        12160 	.byte	0,5,2
000010fe 00000000*     12161 	.word	_ushGetRotatSVehSpeed
00001102 06            12162 	.byte	6
00001103 03            12163 	.byte	3
00001104 8f0a          12164 	.byte	143,10
00001106 02            12165 	.byte	2
00001107 00            12166 	.byte	0
00001108 01            12167 	.byte	1
00001109 000502        12168 	.byte	0,5,2
0000110c 00000000*     12169 	.word	.LDWlin160
00001110 0b            12170 	.byte	11
00001111 0b            12171 	.byte	11
00001112 000502        12172 	.byte	0,5,2

                                                                      Page 215
                                                              C:\Users\nhuliyap\AppData\Local\Temp\gh_00008uc1.s
00001115 00000000*     12173 	.word	.LDWlin161
00001119 03            12174 	.byte	3
0000111a 04            12175 	.byte	4
0000111b 02            12176 	.byte	2
0000111c 00            12177 	.byte	0
0000111d 01            12178 	.byte	1
0000111e 02            12179 	.byte	2
0000111f 00            12180 	.byte	0
00001120 0b            12181 	.byte	11
00001121 02            12182 	.byte	2
00001122 02            12183 	.byte	2
00001123 000101        12184 	.byte	0,1,1
                       12185 	.section	.debug_info
                       12186 .LDW_4d77750:
00002857 1d            12187 	.byte	29
00002858 00000000*     12188 	.word	.LDW221
0000285c 00000000*     12189 	.word	.LDW321
                       12190 
                       12191 .LDW_4dabcf0:
00002860 04            12192 	.byte	4
00002861 56656869636c  12193 	.strz	"VehicleSpeedValue"
00002867 655370656564 
0000286d 56616c756500 
00002873 8f0a          12194 	.byte	143,10
00002875 0a            12195 	.byte	10
00002876 01            12196 	.byte	1
00002877 00000000*     12197 	.word	.LDW_4d76468
0000287b 00            12198 	.byte	0
0000287c 00            12199 	.byte	0
0000287d 015a          12200 	.byte	1,90
                       12201 
0000287f 00            12202 	.byte	0
                       12203 
00002880 00            12204 	.byte	0
                       12205 
                       12206 .LDW_4daa390:
00002881 13            12207 	.byte	19
00002882 44434d5f496e  12208 	.strz	"DCM_InvIf_RxStatusFieldGetValue"
00002888 7649665f5278 
0000288e 537461747573 
00002894 4669656c6447 
0000289a 657456616c75 
000028a0 6500 
000028a2 9a0a          12209 	.byte	154,10
000028a4 06            12210 	.byte	6
000028a5 01            12211 	.byte	1
000028a6 00000000*     12212 	.word	_DCM_InvIf_RxStatusFieldGetValue
000028aa 00000000*     12213 	.word	___ghs_eofn_DCM_InvIf_RxStatusFieldGetValue
000028ae 0153          12214 	.byte	1,83
000028b0 02            12215 	.byte	2
000028b1 00            12216 	.byte	0
000028b2 02            12217 	.byte	2
000028b3 00            12218 	.byte	0
000028b4 00            12219 	.byte	0
000028b5 00            12220 	.byte	0
000028b6 00            12221 	.byte	0
000028b7 01            12222 	.byte	1
000028b8 01            12223 	.byte	1
000028b9 00            12224 	.byte	0
000028ba 01            12225 	.byte	1
                       12226 

                                                                      Page 216
                                                              C:\Users\nhuliyap\AppData\Local\Temp\gh_00008uc1.s
                       12227 	.section	.debug_frame
                       12228 .LDW_4eec290:
00000640 00000000*     12229 	.word	.LDW_unq_76-.LDW_unq_75
                       12230 .LDW_unq_75:
00000644 00000000*     12231 	.word	.LDW_4d1b500
00000648 00000000*     12232 	.word	_DCM_InvIf_RxStatusFieldGetValue
0000064c 00000000*     12233 	.word	___ghs_eofn_DCM_InvIf_RxStatusFieldGetValue-_DCM_InvIf_RxStatusFieldGetValue
00000650 01            12234 	.byte	1
00000651 00000000*     12235 	.word	.LDW521
00000655 00            12236 	.byte	0
00000656 00            12237 	.byte	0
00000657 00            12238 	.byte	0
                       12239 .LDW_unq_76:
                       12240 	.section	.debug_line
00001126 000502        12241 	.byte	0,5,2
00001129 00000000*     12242 	.word	_DCM_InvIf_RxStatusFieldGetValue
0000112d 03            12243 	.byte	3
0000112e 9a0a          12244 	.byte	154,10
00001130 02            12245 	.byte	2
00001131 00            12246 	.byte	0
00001132 01            12247 	.byte	1
00001133 06            12248 	.byte	6
00001134 000502        12249 	.byte	0,5,2
00001137 00000000*     12250 	.word	.LDWlin162
0000113b 0b            12251 	.byte	11
0000113c 000502        12252 	.byte	0,5,2
0000113f 00000000*     12253 	.word	.LDWlin163
00001143 0b            12254 	.byte	11
00001144 0b            12255 	.byte	11
00001145 23            12256 	.byte	35
00001146 000502        12257 	.byte	0,5,2
00001149 00000000*     12258 	.word	.LDWlin164
0000114d 0b            12259 	.byte	11
0000114e 0b            12260 	.byte	11
0000114f 0b            12261 	.byte	11
00001150 13            12262 	.byte	19
00001151 1b            12263 	.byte	27
00001152 02            12264 	.byte	2
00001153 00            12265 	.byte	0
00001154 0b            12266 	.byte	11
00001155 02            12267 	.byte	2
00001156 02            12268 	.byte	2
00001157 000101        12269 	.byte	0,1,1
                       12270 	.section	.debug_info
                       12271 .LDW_4dab4b0:
000028bb 0f            12272 	.byte	15
000028bc 75385f537461  12273 	.strz	"u8_StatusFieldValue"
000028c2 747573466965 
000028c8 6c6456616c75 
000028ce 6500 
000028d0 9a0a          12274 	.byte	154,10
000028d2 2d            12275 	.byte	45
000028d3 01            12276 	.byte	1
000028d4 00000000*     12277 	.word	.LDW_4da8ed8
000028d8 00            12278 	.byte	0
000028d9 016e          12279 	.byte	1,110
                       12280 
                       12281 .LDW_4d777b0:
000028db 1d            12282 	.byte	29
000028dc 00000000*     12283 	.word	.LDW421
000028e0 00000000*     12284 	.word	.LDW521

                                                                      Page 217
                                                              C:\Users\nhuliyap\AppData\Local\Temp\gh_00008uc1.s
                       12285 
000028e4 00            12286 	.byte	0
                       12287 
000028e5 00            12288 	.byte	0
                       12289 
                       12290 .LDW_4da9a10:
000028e6 14            12291 	.byte	20
000028e7 44434d5f496e  12292 	.strz	"DCM_InvIf_PressLastRxIDGetValue"
000028ed 7649665f5072 
000028f3 6573734c6173 
000028f9 745278494447 
000028ff 657456616c75 
00002905 6500 
00002907 a70a          12293 	.byte	167,10
00002909 07            12294 	.byte	7
0000290a 01            12295 	.byte	1
0000290b 00000000*     12296 	.word	.LDW_48ee8e8
0000290f 00000000*     12297 	.word	_DCM_InvIf_PressLastRxIDGetValue
00002913 00000000*     12298 	.word	___ghs_eofn_DCM_InvIf_PressLastRxIDGetValue
00002917 0153          12299 	.byte	1,83
00002919 02            12300 	.byte	2
0000291a 00            12301 	.byte	0
0000291b 02            12302 	.byte	2
0000291c 00            12303 	.byte	0
0000291d 00            12304 	.byte	0
0000291e 00            12305 	.byte	0
0000291f 00            12306 	.byte	0
00002920 01            12307 	.byte	1
00002921 01            12308 	.byte	1
00002922 00            12309 	.byte	0
00002923 01            12310 	.byte	1
                       12311 
                       12312 	.section	.debug_frame
                       12313 .LDW_4eec450:
00000658 00000000*     12314 	.word	.LDW_unq_78-.LDW_unq_77
                       12315 .LDW_unq_77:
0000065c 00000000*     12316 	.word	.LDW_4d1b500
00000660 00000000*     12317 	.word	_DCM_InvIf_PressLastRxIDGetValue
00000664 00000000*     12318 	.word	___ghs_eofn_DCM_InvIf_PressLastRxIDGetValue-_DCM_InvIf_PressLastRxIDGetValue
00000668 01            12319 	.byte	1
00000669 00000000*     12320 	.word	.LDW721
0000066d 00            12321 	.byte	0
0000066e 00            12322 	.byte	0
0000066f 00            12323 	.byte	0
                       12324 .LDW_unq_78:
                       12325 	.section	.debug_line
0000115a 000502        12326 	.byte	0,5,2
0000115d 00000000*     12327 	.word	_DCM_InvIf_PressLastRxIDGetValue
00001161 06            12328 	.byte	6
00001162 03            12329 	.byte	3
00001163 a70a          12330 	.byte	167,10
00001165 02            12331 	.byte	2
00001166 00            12332 	.byte	0
00001167 01            12333 	.byte	1
00001168 02            12334 	.byte	2
00001169 04            12335 	.byte	4
0000116a 000101        12336 	.byte	0,1,1
                       12337 	.section	.debug_info
                       12338 .LDW_4d77960:
00002924 1d            12339 	.byte	29
00002925 00000000*     12340 	.word	.LDW621

                                                                      Page 218
                                                              C:\Users\nhuliyap\AppData\Local\Temp\gh_00008uc1.s
00002929 00000000*     12341 	.word	.LDW721
                       12342 
0000292d 00            12343 	.byte	0
                       12344 
0000292e 00            12345 	.byte	0
                       12346 
                       12347 .LDW_4daa4c0:
0000292f 14            12348 	.byte	20
00002930 44434d5f496e  12349 	.strz	"DCM_InvIf_TempLastRxIDGetValue"
00002936 7649665f5465 
0000293c 6d704c617374 
00002942 527849444765 
00002948 7456616c7565 
0000294e 00 
0000294f ab0a          12350 	.byte	171,10
00002951 07            12351 	.byte	7
00002952 01            12352 	.byte	1
00002953 00000000*     12353 	.word	.LDW_4d75048
00002957 00000000*     12354 	.word	_DCM_InvIf_TempLastRxIDGetValue
0000295b 00000000*     12355 	.word	___ghs_eofn_DCM_InvIf_TempLastRxIDGetValue
0000295f 0153          12356 	.byte	1,83
00002961 02            12357 	.byte	2
00002962 00            12358 	.byte	0
00002963 02            12359 	.byte	2
00002964 00            12360 	.byte	0
00002965 00            12361 	.byte	0
00002966 00            12362 	.byte	0
00002967 00            12363 	.byte	0
00002968 01            12364 	.byte	1
00002969 01            12365 	.byte	1
0000296a 00            12366 	.byte	0
0000296b 01            12367 	.byte	1
                       12368 
                       12369 	.section	.debug_frame
                       12370 .LDW_4eec150:
00000670 00000000*     12371 	.word	.LDW_unq_7a-.LDW_unq_79
                       12372 .LDW_unq_79:
00000674 00000000*     12373 	.word	.LDW_4d1b500
00000678 00000000*     12374 	.word	_DCM_InvIf_TempLastRxIDGetValue
0000067c 00000000*     12375 	.word	___ghs_eofn_DCM_InvIf_TempLastRxIDGetValue-_DCM_InvIf_TempLastRxIDGetValue
00000680 01            12376 	.byte	1
00000681 00000000*     12377 	.word	.LDW921
00000685 00            12378 	.byte	0
00000686 00            12379 	.byte	0
00000687 00            12380 	.byte	0
                       12381 .LDW_unq_7a:
                       12382 	.section	.debug_line
0000116d 000502        12383 	.byte	0,5,2
00001170 00000000*     12384 	.word	_DCM_InvIf_TempLastRxIDGetValue
00001174 06            12385 	.byte	6
00001175 03            12386 	.byte	3
00001176 ab0a          12387 	.byte	171,10
00001178 02            12388 	.byte	2
00001179 00            12389 	.byte	0
0000117a 01            12390 	.byte	1
0000117b 02            12391 	.byte	2
0000117c 04            12392 	.byte	4
0000117d 000101        12393 	.byte	0,1,1
                       12394 	.section	.debug_info
                       12395 .LDW_4d777e0:
0000296c 1d            12396 	.byte	29

                                                                      Page 219
                                                              C:\Users\nhuliyap\AppData\Local\Temp\gh_00008uc1.s
0000296d 00000000*     12397 	.word	.LDW821
00002971 00000000*     12398 	.word	.LDW921
                       12399 
00002975 00            12400 	.byte	0
                       12401 
00002976 00            12402 	.byte	0
                       12403 
                       12404 .LDW_4da92f0:
00002977 13            12405 	.byte	19
00002978 44434d5f496e  12406 	.strz	"DCM_InvIf_LastRxIDGetValue"
0000297e 7649665f4c61 
00002984 737452784944 
0000298a 47657456616c 
00002990 756500 
00002993 af0a          12407 	.byte	175,10
00002995 06            12408 	.byte	6
00002996 01            12409 	.byte	1
00002997 00000000*     12410 	.word	_DCM_InvIf_LastRxIDGetValue
0000299b 00000000*     12411 	.word	___ghs_eofn_DCM_InvIf_LastRxIDGetValue
0000299f 0153          12412 	.byte	1,83
000029a1 02            12413 	.byte	2
000029a2 00            12414 	.byte	0
000029a3 02            12415 	.byte	2
000029a4 00            12416 	.byte	0
000029a5 00            12417 	.byte	0
000029a6 00            12418 	.byte	0
000029a7 00            12419 	.byte	0
000029a8 01            12420 	.byte	1
000029a9 01            12421 	.byte	1
000029aa 00            12422 	.byte	0
000029ab 01            12423 	.byte	1
                       12424 
                       12425 	.section	.debug_frame
                       12426 .LDW_4eebfd0:
00000688 00000000*     12427 	.word	.LDW_unq_7c-.LDW_unq_7b
                       12428 .LDW_unq_7b:
0000068c 00000000*     12429 	.word	.LDW_4d1b500
00000690 00000000*     12430 	.word	_DCM_InvIf_LastRxIDGetValue
00000694 00000000*     12431 	.word	___ghs_eofn_DCM_InvIf_LastRxIDGetValue-_DCM_InvIf_LastRxIDGetValue
00000698 01            12432 	.byte	1
00000699 00000000*     12433 	.word	.LDW131
0000069d 00            12434 	.byte	0
0000069e 00            12435 	.byte	0
0000069f 00            12436 	.byte	0
                       12437 .LDW_unq_7c:
                       12438 	.section	.debug_line
00001180 000502        12439 	.byte	0,5,2
00001183 00000000*     12440 	.word	_DCM_InvIf_LastRxIDGetValue
00001187 03            12441 	.byte	3
00001188 af0a          12442 	.byte	175,10
0000118a 02            12443 	.byte	2
0000118b 00            12444 	.byte	0
0000118c 01            12445 	.byte	1
0000118d 06            12446 	.byte	6
0000118e 000502        12447 	.byte	0,5,2
00001191 00000000*     12448 	.word	.LDWlin165
00001195 03            12449 	.byte	3
00001196 07            12450 	.byte	7
00001197 02            12451 	.byte	2
00001198 00            12452 	.byte	0
00001199 01            12453 	.byte	1

                                                                      Page 220
                                                              C:\Users\nhuliyap\AppData\Local\Temp\gh_00008uc1.s
0000119a 23            12454 	.byte	35
0000119b 23            12455 	.byte	35
0000119c 23            12456 	.byte	35
0000119d 24            12457 	.byte	36
0000119e 02            12458 	.byte	2
0000119f 02            12459 	.byte	2
000011a0 000101        12460 	.byte	0,1,1
                       12461 	.section	.debug_info
                       12462 .LDW_4dabd48:
000029ac 0f            12463 	.byte	15
000029ad 75385f4c6173  12464 	.strz	"u8_LastIdReceived"
000029b3 744964526563 
000029b9 656976656400 
000029bf af0a          12465 	.byte	175,10
000029c1 28            12466 	.byte	40
000029c2 01            12467 	.byte	1
000029c3 00000000*     12468 	.word	.LDW_4da8ed8
000029c7 00            12469 	.byte	0
000029c8 016e          12470 	.byte	1,110
                       12471 
                       12472 .LDW_4d778d0:
000029ca 1d            12473 	.byte	29
000029cb 00000000*     12474 	.word	.LDW031
000029cf 00000000*     12475 	.word	.LDW131
                       12476 
000029d3 00            12477 	.byte	0
                       12478 
000029d4 00            12479 	.byte	0
                       12480 
                       12481 .LDW_4da97b0:
000029d5 14            12482 	.byte	20
000029d6 44434d5f496e  12483 	.strz	"DCM_InvIf_TelTypeCurrIDGetValue"
000029dc 7649665f5465 
000029e2 6c5479706543 
000029e8 757272494447 
000029ee 657456616c75 
000029f4 6500 
000029f6 be0a          12484 	.byte	190,10
000029f8 07            12485 	.byte	7
000029f9 01            12486 	.byte	1
000029fa 00000000*     12487 	.word	.LDW_48ee8e8
000029fe 00000000*     12488 	.word	_DCM_InvIf_TelTypeCurrIDGetValue
00002a02 00000000*     12489 	.word	___ghs_eofn_DCM_InvIf_TelTypeCurrIDGetValue
00002a06 0153          12490 	.byte	1,83
00002a08 02            12491 	.byte	2
00002a09 00            12492 	.byte	0
00002a0a 02            12493 	.byte	2
00002a0b 00            12494 	.byte	0
00002a0c 00            12495 	.byte	0
00002a0d 00            12496 	.byte	0
00002a0e 00            12497 	.byte	0
00002a0f 01            12498 	.byte	1
00002a10 01            12499 	.byte	1
00002a11 00            12500 	.byte	0
00002a12 01            12501 	.byte	1
                       12502 
                       12503 	.section	.debug_frame
                       12504 .LDW_4eebf50:
000006a0 00000000*     12505 	.word	.LDW_unq_7e-.LDW_unq_7d
                       12506 .LDW_unq_7d:
000006a4 00000000*     12507 	.word	.LDW_4d1b500

                                                                      Page 221
                                                              C:\Users\nhuliyap\AppData\Local\Temp\gh_00008uc1.s
000006a8 00000000*     12508 	.word	_DCM_InvIf_TelTypeCurrIDGetValue
000006ac 00000000*     12509 	.word	___ghs_eofn_DCM_InvIf_TelTypeCurrIDGetValue-_DCM_InvIf_TelTypeCurrIDGetValue
000006b0 01            12510 	.byte	1
000006b1 00000000*     12511 	.word	.LDW331
000006b5 00            12512 	.byte	0
000006b6 00            12513 	.byte	0
000006b7 00            12514 	.byte	0
                       12515 .LDW_unq_7e:
                       12516 	.section	.debug_line
000011a3 000502        12517 	.byte	0,5,2
000011a6 00000000*     12518 	.word	_DCM_InvIf_TelTypeCurrIDGetValue
000011aa 06            12519 	.byte	6
000011ab 03            12520 	.byte	3
000011ac be0a          12521 	.byte	190,10
000011ae 02            12522 	.byte	2
000011af 00            12523 	.byte	0
000011b0 01            12524 	.byte	1
000011b1 02            12525 	.byte	2
000011b2 04            12526 	.byte	4
000011b3 000101        12527 	.byte	0,1,1
                       12528 	.section	.debug_info
                       12529 .LDW_4d77810:
00002a13 1d            12530 	.byte	29
00002a14 00000000*     12531 	.word	.LDW231
00002a18 00000000*     12532 	.word	.LDW331
                       12533 
00002a1c 00            12534 	.byte	0
                       12535 
00002a1d 00            12536 	.byte	0
                       12537 
                       12538 .LDW_4da9848:
00002a1e 13            12539 	.byte	19
00002a1f 44434d5f496e  12540 	.strz	"DCM_InvIf_RFTimeStampGetValue"
00002a25 7649665f5246 
00002a2b 54696d655374 
00002a31 616d70476574 
00002a37 56616c756500 
00002a3d c20a          12541 	.byte	194,10
00002a3f 06            12542 	.byte	6
00002a40 01            12543 	.byte	1
00002a41 00000000*     12544 	.word	_DCM_InvIf_RFTimeStampGetValue
00002a45 00000000*     12545 	.word	___ghs_eofn_DCM_InvIf_RFTimeStampGetValue
00002a49 0153          12546 	.byte	1,83
00002a4b 02            12547 	.byte	2
00002a4c 00            12548 	.byte	0
00002a4d 02            12549 	.byte	2
00002a4e 00            12550 	.byte	0
00002a4f 00            12551 	.byte	0
00002a50 00            12552 	.byte	0
00002a51 00            12553 	.byte	0
00002a52 01            12554 	.byte	1
00002a53 01            12555 	.byte	1
00002a54 00            12556 	.byte	0
00002a55 01            12557 	.byte	1
                       12558 
                       12559 	.section	.debug_frame
                       12560 .LDW_4eec5d0:
000006b8 00000000*     12561 	.word	.LDW_unq_80-.LDW_unq_7f
                       12562 .LDW_unq_7f:
000006bc 00000000*     12563 	.word	.LDW_4d1b500
000006c0 00000000*     12564 	.word	_DCM_InvIf_RFTimeStampGetValue

                                                                      Page 222
                                                              C:\Users\nhuliyap\AppData\Local\Temp\gh_00008uc1.s
000006c4 00000000*     12565 	.word	___ghs_eofn_DCM_InvIf_RFTimeStampGetValue-_DCM_InvIf_RFTimeStampGetValue
000006c8 01            12566 	.byte	1
000006c9 00000000*     12567 	.word	.LDW531
000006cd 00            12568 	.byte	0
000006ce 00            12569 	.byte	0
000006cf 00            12570 	.byte	0
                       12571 .LDW_unq_80:
                       12572 	.section	.debug_line
000011b6 000502        12573 	.byte	0,5,2
000011b9 00000000*     12574 	.word	_DCM_InvIf_RFTimeStampGetValue
000011bd 03            12575 	.byte	3
000011be c20a          12576 	.byte	194,10
000011c0 02            12577 	.byte	2
000011c1 00            12578 	.byte	0
000011c2 01            12579 	.byte	1
000011c3 06            12580 	.byte	6
000011c4 000502        12581 	.byte	0,5,2
000011c7 00000000*     12582 	.word	.LDWlin166
000011cb 03            12583 	.byte	3
000011cc 07            12584 	.byte	7
000011cd 02            12585 	.byte	2
000011ce 00            12586 	.byte	0
000011cf 01            12587 	.byte	1
000011d0 2b            12588 	.byte	43
000011d1 2b            12589 	.byte	43
000011d2 23            12590 	.byte	35
000011d3 02            12591 	.byte	2
000011d4 02            12592 	.byte	2
000011d5 000101        12593 	.byte	0,1,1
                       12594 	.section	.debug_info
                       12595 .LDW_4dabda0:
00002a56 0f            12596 	.byte	15
00002a57 75385f54696d  12597 	.strz	"u8_TimeStampValue"
00002a5d 655374616d70 
00002a63 56616c756500 
00002a69 c20a          12598 	.byte	194,10
00002a6b 2b            12599 	.byte	43
00002a6c 01            12600 	.byte	1
00002a6d 00000000*     12601 	.word	.LDW_4da8ed8
00002a71 00            12602 	.byte	0
00002a72 016e          12603 	.byte	1,110
                       12604 
                       12605 .LDW_4d77990:
00002a74 1d            12606 	.byte	29
00002a75 00000000*     12607 	.word	.LDW431
00002a79 00000000*     12608 	.word	.LDW531
                       12609 
00002a7d 00            12610 	.byte	0
                       12611 
00002a7e 00            12612 	.byte	0
                       12613 
                       12614 .LDW_4da9420:
00002a7f 14            12615 	.byte	20
00002a80 44434d5f496e  12616 	.strz	"DCM_InvIf_RawRSSIGetValue"
00002a86 7649665f5261 
00002a8c 775253534947 
00002a92 657456616c75 
00002a98 6500 
00002a9a cf0a          12617 	.byte	207,10
00002a9c 07            12618 	.byte	7
00002a9d 01            12619 	.byte	1

                                                                      Page 223
                                                              C:\Users\nhuliyap\AppData\Local\Temp\gh_00008uc1.s
00002a9e 00000000*     12620 	.word	.LDW_48ee8e8
00002aa2 00000000*     12621 	.word	_DCM_InvIf_RawRSSIGetValue
00002aa6 00000000*     12622 	.word	___ghs_eofn_DCM_InvIf_RawRSSIGetValue
00002aaa 0153          12623 	.byte	1,83
00002aac 02            12624 	.byte	2
00002aad 00            12625 	.byte	0
00002aae 02            12626 	.byte	2
00002aaf 00            12627 	.byte	0
00002ab0 00            12628 	.byte	0
00002ab1 00            12629 	.byte	0
00002ab2 00            12630 	.byte	0
00002ab3 01            12631 	.byte	1
00002ab4 01            12632 	.byte	1
00002ab5 00            12633 	.byte	0
00002ab6 01            12634 	.byte	1
                       12635 
                       12636 	.section	.debug_frame
                       12637 .LDW_4eebed0:
000006d0 00000000*     12638 	.word	.LDW_unq_82-.LDW_unq_81
                       12639 .LDW_unq_81:
000006d4 00000000*     12640 	.word	.LDW_4d1b500
000006d8 00000000*     12641 	.word	_DCM_InvIf_RawRSSIGetValue
000006dc 00000000*     12642 	.word	___ghs_eofn_DCM_InvIf_RawRSSIGetValue-_DCM_InvIf_RawRSSIGetValue
000006e0 01            12643 	.byte	1
000006e1 00000000*     12644 	.word	.LDW731
000006e5 00            12645 	.byte	0
000006e6 00            12646 	.byte	0
000006e7 00            12647 	.byte	0
                       12648 .LDW_unq_82:
                       12649 	.section	.debug_line
000011d8 000502        12650 	.byte	0,5,2
000011db 00000000*     12651 	.word	_DCM_InvIf_RawRSSIGetValue
000011df 06            12652 	.byte	6
000011e0 03            12653 	.byte	3
000011e1 cf0a          12654 	.byte	207,10
000011e3 02            12655 	.byte	2
000011e4 00            12656 	.byte	0
000011e5 01            12657 	.byte	1
000011e6 06            12658 	.byte	6
000011e7 000502        12659 	.byte	0,5,2
000011ea 00000000*     12660 	.word	.LDWlin167
000011ee 02            12661 	.byte	2
000011ef 00            12662 	.byte	0
000011f0 02            12663 	.byte	2
000011f1 02            12664 	.byte	2
000011f2 000101        12665 	.byte	0,1,1
                       12666 	.section	.debug_info
                       12667 .LDW_4d779c0:
00002ab7 1d            12668 	.byte	29
00002ab8 00000000*     12669 	.word	.LDW631
00002abc 00000000*     12670 	.word	.LDW731
                       12671 
00002ac0 00            12672 	.byte	0
                       12673 
00002ac1 00            12674 	.byte	0
                       12675 
                       12676 .LDW_4da98e0:
00002ac2 14            12677 	.byte	20
00002ac3 44434d5f496e  12678 	.strz	"DCM_InvIf_RecEventGetCntValue"
00002ac9 7649665f5265 
00002acf 634576656e74 

                                                                      Page 224
                                                              C:\Users\nhuliyap\AppData\Local\Temp\gh_00008uc1.s
00002ad5 476574436e74 
00002adb 56616c756500 
00002ae1 d30a          12679 	.byte	211,10
00002ae3 07            12680 	.byte	7
00002ae4 01            12681 	.byte	1
00002ae5 00000000*     12682 	.word	.LDW_48ee8e8
00002ae9 00000000*     12683 	.word	_DCM_InvIf_RecEventGetCntValue
00002aed 00000000*     12684 	.word	___ghs_eofn_DCM_InvIf_RecEventGetCntValue
00002af1 0153          12685 	.byte	1,83
00002af3 02            12686 	.byte	2
00002af4 00            12687 	.byte	0
00002af5 02            12688 	.byte	2
00002af6 00            12689 	.byte	0
00002af7 00            12690 	.byte	0
00002af8 00            12691 	.byte	0
00002af9 00            12692 	.byte	0
00002afa 01            12693 	.byte	1
00002afb 01            12694 	.byte	1
00002afc 00            12695 	.byte	0
00002afd 01            12696 	.byte	1
                       12697 
                       12698 	.section	.debug_frame
                       12699 .LDW_4eec350:
000006e8 00000000*     12700 	.word	.LDW_unq_84-.LDW_unq_83
                       12701 .LDW_unq_83:
000006ec 00000000*     12702 	.word	.LDW_4d1b500
000006f0 00000000*     12703 	.word	_DCM_InvIf_RecEventGetCntValue
000006f4 00000000*     12704 	.word	___ghs_eofn_DCM_InvIf_RecEventGetCntValue-_DCM_InvIf_RecEventGetCntValue
000006f8 01            12705 	.byte	1
000006f9 00000000*     12706 	.word	.LDW931
000006fd 00            12707 	.byte	0
000006fe 00            12708 	.byte	0
000006ff 00            12709 	.byte	0
                       12710 .LDW_unq_84:
                       12711 	.section	.debug_line
000011f5 000502        12712 	.byte	0,5,2
000011f8 00000000*     12713 	.word	_DCM_InvIf_RecEventGetCntValue
000011fc 06            12714 	.byte	6
000011fd 03            12715 	.byte	3
000011fe d30a          12716 	.byte	211,10
00001200 02            12717 	.byte	2
00001201 00            12718 	.byte	0
00001202 01            12719 	.byte	1
00001203 06            12720 	.byte	6
00001204 000502        12721 	.byte	0,5,2
00001207 00000000*     12722 	.word	.LDWlin168
0000120b 02            12723 	.byte	2
0000120c 00            12724 	.byte	0
0000120d 02            12725 	.byte	2
0000120e 02            12726 	.byte	2
0000120f 000101        12727 	.byte	0,1,1
                       12728 	.section	.debug_info
                       12729 .LDW_4dbd238:
00002afe 1d            12730 	.byte	29
00002aff 00000000*     12731 	.word	.LDW831
00002b03 00000000*     12732 	.word	.LDW931
                       12733 
00002b07 00            12734 	.byte	0
                       12735 
00002b08 00            12736 	.byte	0
                       12737 

                                                                      Page 225
                                                              C:\Users\nhuliyap\AppData\Local\Temp\gh_00008uc1.s
                       12738 .LDW_4da94b8:
00002b09 13            12739 	.byte	19
00002b0a 44434d5f496e  12740 	.strz	"DCM_InvIf_RawRfTelGetValue"
00002b10 7649665f5261 
00002b16 77526654656c 
00002b1c 47657456616c 
00002b22 756500 
00002b25 d70a          12741 	.byte	215,10
00002b27 06            12742 	.byte	6
00002b28 01            12743 	.byte	1
00002b29 00000000*     12744 	.word	_DCM_InvIf_RawRfTelGetValue
00002b2d 00000000*     12745 	.word	___ghs_eofn_DCM_InvIf_RawRfTelGetValue
00002b31 0153          12746 	.byte	1,83
00002b33 828080b00b    12747 	.byte	130,128,128,176,11
00002b38 14            12748 	.byte	20
00002b39 03            12749 	.byte	3
00002b3a 14            12750 	.byte	20
00002b3b 00            12751 	.byte	0
00002b3c 00            12752 	.byte	0
00002b3d 00            12753 	.byte	0
00002b3e 01            12754 	.byte	1
00002b3f 01            12755 	.byte	1
00002b40 00            12756 	.byte	0
00002b41 01            12757 	.byte	1
                       12758 
                       12759 	.section	.debug_frame
                       12760 .LDW_4eeb9d0:
00000700 00000000*     12761 	.word	.LDW_unq_86-.LDW_unq_85
                       12762 .LDW_unq_85:
00000704 00000000*     12763 	.word	.LDW_4d1b500
00000708 00000000*     12764 	.word	_DCM_InvIf_RawRfTelGetValue
0000070c 00000000*     12765 	.word	___ghs_eofn_DCM_InvIf_RawRfTelGetValue-_DCM_InvIf_RawRfTelGetValue
00000710 44            12766 	.byte	68
00000711 9f            12767 	.byte	159
00000712 00            12768 	.byte	0
00000713 40            12769 	.byte	64
00000714 9d            12770 	.byte	157
00000715 04            12771 	.byte	4
00000716 40            12772 	.byte	64
00000717 9c            12773 	.byte	156
00000718 08            12774 	.byte	8
00000719 40            12775 	.byte	64
0000071a 9a            12776 	.byte	154
0000071b 0c            12777 	.byte	12
0000071c 40            12778 	.byte	64
0000071d 99            12779 	.byte	153
0000071e 10            12780 	.byte	16
0000071f 01            12781 	.byte	1
00000720 00000000*     12782 	.word	.LDW141
                       12783 .LDW_unq_86:
                       12784 	.section	.debug_line
00001212 000502        12785 	.byte	0,5,2
00001215 00000000*     12786 	.word	_DCM_InvIf_RawRfTelGetValue
00001219 03            12787 	.byte	3
0000121a d70a          12788 	.byte	215,10
0000121c 02            12789 	.byte	2
0000121d 00            12790 	.byte	0
0000121e 01            12791 	.byte	1
0000121f 06            12792 	.byte	6
00001220 000502        12793 	.byte	0,5,2
00001223 00000000*     12794 	.word	.LDWlin169

                                                                      Page 226
                                                              C:\Users\nhuliyap\AppData\Local\Temp\gh_00008uc1.s
00001227 0d            12795 	.byte	13
00001228 000502        12796 	.byte	0,5,2
0000122b 00000000*     12797 	.word	.LDWlin170
0000122f 0c            12798 	.byte	12
00001230 000502        12799 	.byte	0,5,2
00001233 00000000*     12800 	.word	.LDWlin171
00001237 0b            12801 	.byte	11
00001238 0b            12802 	.byte	11
00001239 1b            12803 	.byte	27
0000123a 02            12804 	.byte	2
0000123b 00            12805 	.byte	0
0000123c 0b            12806 	.byte	11
0000123d 02            12807 	.byte	2
0000123e 02            12808 	.byte	2
0000123f 000502        12809 	.byte	0,5,2
00001242 00000000*     12810 	.word	.LDWlin172
00001246 0c            12811 	.byte	12
00001247 000502        12812 	.byte	0,5,2
0000124a 00000000*     12813 	.word	.LDWlin173
0000124e 0b            12814 	.byte	11
0000124f 03            12815 	.byte	3
00001250 04            12816 	.byte	4
00001251 02            12817 	.byte	2
00001252 00            12818 	.byte	0
00001253 01            12819 	.byte	1
00001254 03            12820 	.byte	3
00001255 05            12821 	.byte	5
00001256 02            12822 	.byte	2
00001257 06            12823 	.byte	6
00001258 01            12824 	.byte	1
00001259 02            12825 	.byte	2
0000125a 00            12826 	.byte	0
0000125b 03            12827 	.byte	3
0000125c 74            12828 	.byte	116
0000125d 02            12829 	.byte	2
0000125e 00            12830 	.byte	0
0000125f 01            12831 	.byte	1
00001260 000502        12832 	.byte	0,5,2
00001263 00000000*     12833 	.word	.LDWlin174
00001267 03            12834 	.byte	3
00001268 0d            12835 	.byte	13
00001269 02            12836 	.byte	2
0000126a 00            12837 	.byte	0
0000126b 01            12838 	.byte	1
0000126c 0b            12839 	.byte	11
0000126d 02            12840 	.byte	2
0000126e 04            12841 	.byte	4
0000126f 000101        12842 	.byte	0,1,1
                       12843 	.section	.debug_info
                       12844 .LDW_4dab770:
00002b42 0f            12845 	.byte	15
00002b43 75385f537461  12846 	.strz	"u8_StartPosition"
00002b49 7274506f7369 
00002b4f 74696f6e00 
00002b54 d70a          12847 	.byte	215,10
00002b56 27            12848 	.byte	39
00002b57 01            12849 	.byte	1
00002b58 00000000*     12850 	.word	.LDW_48ee8e8
00002b5c 00            12851 	.byte	0
00002b5d 016c          12852 	.byte	1,108
                       12853 

                                                                      Page 227
                                                              C:\Users\nhuliyap\AppData\Local\Temp\gh_00008uc1.s
                       12854 .LDW_4dab6c0:
00002b5f 0f            12855 	.byte	15
00002b60 75385f4e756d  12856 	.strz	"u8_NumberOfBytesToCopy"
00002b66 6265724f6642 
00002b6c 79746573546f 
00002b72 436f707900 
00002b77 d70a          12857 	.byte	215,10
00002b79 3f            12858 	.byte	63
00002b7a 01            12859 	.byte	1
00002b7b 00000000*     12860 	.word	.LDW_48ee8e8
00002b7f 00            12861 	.byte	0
00002b80 016a          12862 	.byte	1,106
                       12863 
                       12864 .LDW_4dab560:
00002b82 0f            12865 	.byte	15
00002b83 75385f527854  12866 	.strz	"u8_RxTelegBytesValues"
00002b89 656c65674279 
00002b8f 74657356616c 
00002b95 75657300 
00002b99 d70a          12867 	.byte	215,10
00002b9b 5d            12868 	.byte	93
00002b9c 01            12869 	.byte	1
00002b9d 00000000*     12870 	.word	.LDW_4da8ed8
00002ba1 00            12871 	.byte	0
00002ba2 0169          12872 	.byte	1,105
                       12873 
                       12874 .LDW_4dbd0b8:
00002ba4 1d            12875 	.byte	29
00002ba5 00000000*     12876 	.word	.LDW041
00002ba9 00000000*     12877 	.word	.LDW141
                       12878 
                       12879 .LDW_4dab2f8:
00002bad 04            12880 	.byte	4
00002bae 75385f4c6f63  12881 	.strz	"u8_LocalCnt"
00002bb4 616c436e7400 
00002bba d90a          12882 	.byte	217,10
00002bbc 09            12883 	.byte	9
00002bbd 01            12884 	.byte	1
00002bbe 00000000*     12885 	.word	.LDW_48ee8e8
00002bc2 00            12886 	.byte	0
00002bc3 00            12887 	.byte	0
00002bc4 0162          12888 	.byte	1,98
                       12889 
                       12890 .LDW_4dab820:
00002bc6 04            12891 	.byte	4
00002bc7 753854475369  12892 	.strz	"u8TGSize"
00002bcd 7a6500 
00002bd0 da0a          12893 	.byte	218,10
00002bd2 09            12894 	.byte	9
00002bd3 01            12895 	.byte	1
00002bd4 00000000*     12896 	.word	.LDW_48ee8e8
00002bd8 00            12897 	.byte	0
00002bd9 00            12898 	.byte	0
00002bda 015a          12899 	.byte	1,90
                       12900 
00002bdc 00            12901 	.byte	0
                       12902 
00002bdd 00            12903 	.byte	0
                       12904 
                       12905 .LDW_4da9f68:
00002bde 14            12906 	.byte	20

                                                                      Page 228
                                                              C:\Users\nhuliyap\AppData\Local\Temp\gh_00008uc1.s
00002bdf 44434d5f496e  12907 	.strz	"DCM_InvIf_AllReceivedTelegGetValue"
00002be5 7649665f416c 
00002beb 6c5265636569 
00002bf1 76656454656c 
00002bf7 656747657456 
00002bfd 616c756500 
00002c02 f10a          12908 	.byte	241,10
00002c04 07            12909 	.byte	7
00002c05 01            12910 	.byte	1
00002c06 00000000*     12911 	.word	.LDW_48ee8e8
00002c0a 00000000*     12912 	.word	_DCM_InvIf_AllReceivedTelegGetValue
00002c0e 00000000*     12913 	.word	___ghs_eofn_DCM_InvIf_AllReceivedTelegGetValue
00002c12 0153          12914 	.byte	1,83
00002c14 02            12915 	.byte	2
00002c15 00            12916 	.byte	0
00002c16 02            12917 	.byte	2
00002c17 00            12918 	.byte	0
00002c18 00            12919 	.byte	0
00002c19 00            12920 	.byte	0
00002c1a 00            12921 	.byte	0
00002c1b 01            12922 	.byte	1
00002c1c 01            12923 	.byte	1
00002c1d 00            12924 	.byte	0
00002c1e 01            12925 	.byte	1
                       12926 
                       12927 	.section	.debug_frame
                       12928 .LDW_4eeb850:
00000724 00000000*     12929 	.word	.LDW_unq_88-.LDW_unq_87
                       12930 .LDW_unq_87:
00000728 00000000*     12931 	.word	.LDW_4d1b500
0000072c 00000000*     12932 	.word	_DCM_InvIf_AllReceivedTelegGetValue
00000730 00000000*     12933 	.word	___ghs_eofn_DCM_InvIf_AllReceivedTelegGetValue-_DCM_InvIf_AllReceivedTelegGetValue
00000734 01            12934 	.byte	1
00000735 00000000*     12935 	.word	.LDW341
00000739 00            12936 	.byte	0
0000073a 00            12937 	.byte	0
0000073b 00            12938 	.byte	0
                       12939 .LDW_unq_88:
                       12940 	.section	.debug_line
00001272 000502        12941 	.byte	0,5,2
00001275 00000000*     12942 	.word	_DCM_InvIf_AllReceivedTelegGetValue
00001279 06            12943 	.byte	6
0000127a 03            12944 	.byte	3
0000127b f10a          12945 	.byte	241,10
0000127d 02            12946 	.byte	2
0000127e 00            12947 	.byte	0
0000127f 01            12948 	.byte	1
00001280 06            12949 	.byte	6
00001281 000502        12950 	.byte	0,5,2
00001284 00000000*     12951 	.word	.LDWlin175
00001288 02            12952 	.byte	2
00001289 00            12953 	.byte	0
0000128a 02            12954 	.byte	2
0000128b 02            12955 	.byte	2
0000128c 000101        12956 	.byte	0,1,1
                       12957 	.section	.debug_info
                       12958 .LDW_4dbd1a8:
00002c1f 1d            12959 	.byte	29
00002c20 00000000*     12960 	.word	.LDW241
00002c24 00000000*     12961 	.word	.LDW341
                       12962 

                                                                      Page 229
                                                              C:\Users\nhuliyap\AppData\Local\Temp\gh_00008uc1.s
00002c28 00            12963 	.byte	0
                       12964 
00002c29 00            12965 	.byte	0
                       12966 
00002c2a 00            12967 	.byte	0
                       12968 
                       12969 	.section	.debug_line
                       12970 .Ldw_line_end:
                       12971 	.section	.debug_macinfo
00000000 01            12972 	.byte	1
00000001 00            12973 	.byte	0
00000002 5f5f6768735f  12974 	.strz	"__ghs__ 1"
00000008 5f203100 
0000000c 01            12975 	.byte	1
0000000d 00            12976 	.byte	0
0000000e 5f5f4c4c4f4e  12977 	.strz	"__LLONG_BIT 64"
00000014 475f42495420 
0000001a 363400 
0000001d 01            12978 	.byte	1
0000001e 00            12979 	.byte	0
0000001f 494254434d5f  12980 	.strz	"IBTCM_SW_ANPASSUNGEN 1"
00000025 53575f414e50 
0000002b 415353554e47 
00000031 454e203100 
00000036 01            12981 	.byte	1
00000037 00            12982 	.byte	0
00000038 4255494c445f  12983 	.strz	"BUILD_LORDSTOWN 1"
0000003e 4c4f52445354 
00000044 4f574e203100 
0000004a 03            12984 	.byte	3
0000004b 00            12985 	.byte	0
0000004c 01            12986 	.byte	1
0000004d 03            12987 	.byte	3
0000004e 04            12988 	.byte	4
0000004f 02            12989 	.byte	2
00000050 03            12990 	.byte	3
00000051 06            12991 	.byte	6
00000052 03            12992 	.byte	3
00000053 03            12993 	.byte	3
00000054 04            12994 	.byte	4
00000055 04            12995 	.byte	4
00000056 03            12996 	.byte	3
00000057 07            12997 	.byte	7
00000058 05            12998 	.byte	5
00000059 03            12999 	.byte	3
0000005a 1c            13000 	.byte	28
0000005b 06            13001 	.byte	6
0000005c 01            13002 	.byte	1
0000005d 3c            13003 	.byte	60
0000005e 545255452031  13004 	.strz	"TRUE 1u"
00000064 7500 
00000066 01            13005 	.byte	1
00000067 40            13006 	.byte	64
00000068 46414c534520  13007 	.strz	"FALSE 0u"
0000006e 307500 
00000071 04            13008 	.byte	4
00000072 03            13009 	.byte	3
00000073 1d            13010 	.byte	29
00000074 07            13011 	.byte	7
00000075 03            13012 	.byte	3
00000076 1b            13013 	.byte	27

                                                                      Page 230
                                                              C:\Users\nhuliyap\AppData\Local\Temp\gh_00008uc1.s
00000077 08            13014 	.byte	8
00000078 03            13015 	.byte	3
00000079 54            13016 	.byte	84
0000007a 09            13017 	.byte	9
0000007b 04            13018 	.byte	4
0000007c 04            13019 	.byte	4
0000007d 04            13020 	.byte	4
0000007e 04            13021 	.byte	4
0000007f 04            13022 	.byte	4
00000080 01            13023 	.byte	1
00000081 0e            13024 	.byte	14
00000082 50524f445543  13025 	.strz	"PRODUCTION_SW 0x0"
00000088 54494f4e5f53 
0000008e 572030783000 
00000094 01            13026 	.byte	1
00000095 0f            13027 	.byte	15
00000096 444556454c4f  13028 	.strz	"DEVELOPMENT_SW 0x1"
0000009c 504d454e545f 
000000a2 535720307831 
000000a8 00 
000000a9 01            13029 	.byte	1
000000aa 10            13030 	.byte	16
000000ab 53575f434154  13031 	.strz	"SW_CATEGORY PRODUCTION_SW"
000000b1 45474f525920 
000000b7 50524f445543 
000000bd 54494f4e5f53 
000000c3 5700 
000000c5 04            13032 	.byte	4
000000c6 01            13033 	.byte	1
000000c7 0e            13034 	.byte	14
000000c8 70625f514143  13035 	.strz	"pb_QACStatic_160503 "
000000ce 537461746963 
000000d4 5f3136303530 
000000da 332000 
000000dd 01            13036 	.byte	1
000000de 17            13037 	.byte	23
000000df 756353756d57  13038 	.strz	"ucSumWEc (unsigned char) 4"
000000e5 45632028756e 
000000eb 7369676e6564 
000000f1 206368617229 
000000f7 203400 
000000fa 04            13039 	.byte	4
000000fb 03            13040 	.byte	3
000000fc 05            13041 	.byte	5
000000fd 0a            13042 	.byte	10
000000fe 01            13043 	.byte	1
000000ff 08            13044 	.byte	8
00000100 4d41585f5349  13045 	.strz	"MAX_SIZE_WS_TELEGRAM 16U"
00000106 5a455f57535f 
0000010c 54454c454752 
00000112 414d20313655 
00000118 00 
00000119 01            13046 	.byte	1
0000011a 11            13047 	.byte	17
0000011b 4e564d5f424c  13048 	.strz	"NVM_BLOCK_TYPE uint32"
00000121 4f434b5f5459 
00000127 50452075696e 
0000012d 74333200 
00000131 04            13049 	.byte	4
00000132 03            13050 	.byte	3
00000133 06            13051 	.byte	6

                                                                      Page 231
                                                              C:\Users\nhuliyap\AppData\Local\Temp\gh_00008uc1.s
00000134 0b            13052 	.byte	11
00000135 03            13053 	.byte	3
00000136 06            13054 	.byte	6
00000137 0c            13055 	.byte	12
00000138 04            13056 	.byte	4
00000139 01            13057 	.byte	1
0000013a 18            13058 	.byte	24
0000013b 53454e534f52  13059 	.strz	"SENSOR_AUFLOESUNG_25MBAR "
00000141 5f4155464c4f 
00000147 4553554e475f 
0000014d 32354d424152 
00000153 2000 
00000155 04            13060 	.byte	4
00000156 03            13061 	.byte	3
00000157 07            13062 	.byte	7
00000158 0d            13063 	.byte	13
00000159 03            13064 	.byte	3
0000015a 1b            13065 	.byte	27
0000015b 0e            13066 	.byte	14
0000015c 01            13067 	.byte	1
0000015d 9d01          13068 	.byte	157,1
0000015f 4650412000    13069 	.strz	"FPA "
00000164 01            13070 	.byte	1
00000165 9f01          13071 	.byte	159,1
00000167 4142535f5465  13072 	.strz	"ABS_Test_LOG_ENABLE "
0000016d 73745f4c4f47 
00000173 5f454e41424c 
00000179 452000 
0000017c 04            13073 	.byte	4
0000017d 04            13074 	.byte	4
0000017e 03            13075 	.byte	3
0000017f 08            13076 	.byte	8
00000180 0f            13077 	.byte	15
00000181 03            13078 	.byte	3
00000182 04            13079 	.byte	4
00000183 10            13080 	.byte	16
00000184 03            13081 	.byte	3
00000185 08            13082 	.byte	8
00000186 11            13083 	.byte	17
00000187 01            13084 	.byte	1
00000188 1f            13085 	.byte	31
00000189 46494c544552  13086 	.strz	"FILTER_SYMC_CAN_MSGS "
0000018f 5f53594d435f 
00000195 43414e5f4d53 
0000019b 47532000 
0000019f 04            13087 	.byte	4
000001a0 01            13088 	.byte	1
000001a1 0f            13089 	.byte	15
000001a2 63416e7a5261  13090 	.strz	"cAnzRad ( (uint8) 4 )"
000001a8 642028202875 
000001ae 696e74382920 
000001b4 34202900 
000001b8 01            13091 	.byte	1
000001b9 12            13092 	.byte	18
000001ba 63526164506f  13093 	.strz	"cRadPosVL ( (uint8) 0 )"
000001c0 73564c202820 
000001c6 2875696e7438 
000001cc 292030202900 
000001d2 01            13094 	.byte	1
000001d3 13            13095 	.byte	19
000001d4 63526164506f  13096 	.strz	"cRadPosVR ( (uint8) 1 )"

                                                                      Page 232
                                                              C:\Users\nhuliyap\AppData\Local\Temp\gh_00008uc1.s
000001da 735652202820 
000001e0 2875696e7438 
000001e6 292031202900 
000001ec 01            13097 	.byte	1
000001ed 14            13098 	.byte	20
000001ee 63526164506f  13099 	.strz	"cRadPosHL ( (uint8) 2 )"
000001f4 73484c202820 
000001fa 2875696e7438 
00000200 292032202900 
00000206 01            13100 	.byte	1
00000207 15            13101 	.byte	21
00000208 63526164506f  13102 	.strz	"cRadPosHR ( (uint8) 3 )"
0000020e 734852202820 
00000214 2875696e7438 
0000021a 292033202900 
00000220 01            13103 	.byte	1
00000221 1e            13104 	.byte	30
00000222 63496e76616c  13105 	.strz	"cInvalidREpressure ( (uint8) 0xff )"
00000228 696452457072 
0000022e 657373757265 
00000234 202820287569 
0000023a 6e7438292030 
00000240 786666202900 
00000246 01            13106 	.byte	1
00000247 1f            13107 	.byte	31
00000248 63496e76616c  13108 	.strz	"cInvalidREtemperature ( (sint8) 0x7f )"
0000024e 696452457465 
00000254 6d7065726174 
0000025a 757265202820 
00000260 2873696e7438 
00000266 292030783766 
0000026c 202900 
0000026f 01            13109 	.byte	1
00000270 20            13110 	.byte	32
00000271 63496e76616c  13111 	.strz	"cInvalidRElifeTime ( (uint8) 0x0f )"
00000277 696452456c69 
0000027d 666554696d65 
00000283 202820287569 
00000289 6e7438292030 
0000028f 783066202900 
00000295 01            13112 	.byte	1
00000296 22            13113 	.byte	34
00000297 63496e76616c  13114 	.strz	"cInvalidRSSIsum ( (uint8) 0x00 )"
0000029d 696452535349 
000002a3 73756d202820 
000002a9 2875696e7438 
000002af 292030783030 
000002b5 202900 
000002b8 01            13115 	.byte	1
000002b9 24            13116 	.byte	36
000002ba 63496e76616c  13117 	.strz	"cInvalidTelType ( (uint8) 0xff )"
000002c0 696454656c54 
000002c6 797065202820 
000002cc 2875696e7438 
000002d2 292030786666 
000002d8 202900 
000002db 01            13118 	.byte	1
000002dc 25            13119 	.byte	37
000002dd 63496e76616c  13120 	.strz	"cInvalidTransMode ( (uint8) 0x00 )"
000002e3 69645472616e 
000002e9 734d6f646520 

                                                                      Page 233
                                                              C:\Users\nhuliyap\AppData\Local\Temp\gh_00008uc1.s
000002ef 28202875696e 
000002f5 743829203078 
000002fb 3030202900 
00000300 01            13121 	.byte	1
00000301 26            13122 	.byte	38
00000302 63496e76616c  13123 	.strz	"cInvalidSensorDefect ( (uint16) 0x00 )"
00000308 696453656e73 
0000030e 6f7244656665 
00000314 637420282028 
0000031a 75696e743136 
00000320 292030783030 
00000326 202900 
00000329 04            13124 	.byte	4
0000032a 03            13125 	.byte	3
0000032b 06            13126 	.byte	6
0000032c 12            13127 	.byte	18
0000032d 01            13128 	.byte	1
0000032e 08            13129 	.byte	8
0000032f 6354656c5479  13130 	.strz	"cTelTypeAK35def 0U"
00000335 7065414b3335 
0000033b 646566203055 
00000341 00 
00000342 01            13131 	.byte	1
00000343 09            13132 	.byte	9
00000344 6354656c5479  13133 	.strz	"cTelTypeStandstill 0x90U"
0000034a 70655374616e 
00000350 647374696c6c 
00000356 203078393055 
0000035c 00 
0000035d 01            13134 	.byte	1
0000035e 0a            13135 	.byte	10
0000035f 6354656c5479  13136 	.strz	"cTelTypeHufStatusLearn 0xA3U"
00000365 706548756653 
0000036b 74617475734c 
00000371 6561726e2030 
00000377 7841335500 
0000037c 01            13137 	.byte	1
0000037d 0b            13138 	.byte	11
0000037e 6354656c5479  13139 	.strz	"cTelTypeHufStatus 0x83U"
00000384 706548756653 
0000038a 746174757320 
00000390 307838335500 
00000396 01            13140 	.byte	1
00000397 0c            13141 	.byte	12
00000398 6354656c5479  13142 	.strz	"cTelTypeRotatS 0xE7U"
0000039e 7065526f7461 
000003a4 745320307845 
000003aa 375500 
000003ad 01            13143 	.byte	1
000003ae 0e            13144 	.byte	14
000003af 6354656c5479  13145 	.strz	"cTelTypeAK35defLMA 0x20U"
000003b5 7065414b3335 
000003bb 6465664c4d41 
000003c1 203078323055 
000003c7 00 
000003c8 01            13146 	.byte	1
000003c9 10            13147 	.byte	16
000003ca 6354656c5479  13148 	.strz	"cTelTypeSchraderFP 0x80U"
000003d0 706553636872 
000003d6 616465724650 
000003dc 203078383055 

                                                                      Page 234
                                                              C:\Users\nhuliyap\AppData\Local\Temp\gh_00008uc1.s
000003e2 00 
000003e3 01            13149 	.byte	1
000003e4 12            13150 	.byte	18
000003e5 6354656c5479  13151 	.strz	"cTelTypeHufLfResponse 0x03U"
000003eb 70654875664c 
000003f1 66526573706f 
000003f7 6e7365203078 
000003fd 30335500 
00000401 01            13152 	.byte	1
00000402 14            13153 	.byte	20
00000403 634d6178414b  13154 	.strz	"cMaxAK35DataBytes 14U"
00000409 333544617461 
0000040f 427974657320 
00000415 31345500 
00000419 01            13155 	.byte	1
0000041a 16            13156 	.byte	22
0000041b 63577354656c  13157 	.strz	"cWsTelBufferSize 12U"
00000421 427566666572 
00000427 53697a652031 
0000042d 325500 
00000430 04            13158 	.byte	4
00000431 01            13159 	.byte	1
00000432 17            13160 	.byte	23
00000433 6352455f414b  13161 	.strz	"cRE_AK_PRES_INVALID ((uint8) 0x00)"
00000439 5f505245535f 
0000043f 494e56414c49 
00000445 442028287569 
0000044b 6e7438292030 
00000451 7830302900 
00000456 01            13162 	.byte	1
00000457 18            13163 	.byte	24
00000458 6352455f414b  13164 	.strz	"cRE_AK_PRES_UNDERFLOW ((uint8) 0x01)"
0000045e 5f505245535f 
00000464 554e44455246 
0000046a 4c4f57202828 
00000470 75696e743829 
00000476 203078303129 
0000047c 00 
0000047d 01            13165 	.byte	1
0000047e 19            13166 	.byte	25
0000047f 6352455f414b  13167 	.strz	"cRE_AK_PRES_OVERFLOW ((uint8) 0xff)"
00000485 5f505245535f 
0000048b 4f564552464c 
00000491 4f5720282875 
00000497 696e74382920 
0000049d 307866662900 
000004a3 01            13168 	.byte	1
000004a4 1b            13169 	.byte	27
000004a5 6352455f414b  13170 	.strz	"cRE_AK_TEMP_INVALID ((uint8) 0x00)"
000004ab 5f54454d505f 
000004b1 494e56414c49 
000004b7 442028287569 
000004bd 6e7438292030 
000004c3 7830302900 
000004c8 01            13171 	.byte	1
000004c9 1c            13172 	.byte	28
000004ca 6352455f414b  13173 	.strz	"cRE_AK_TEMP_UNDERFLOW ((uint8) 0x01)"
000004d0 5f54454d505f 
000004d6 554e44455246 
000004dc 4c4f57202828 
000004e2 75696e743829 

                                                                      Page 235
                                                              C:\Users\nhuliyap\AppData\Local\Temp\gh_00008uc1.s
000004e8 203078303129 
000004ee 00 
000004ef 01            13174 	.byte	1
000004f0 1d            13175 	.byte	29
000004f1 6352455f414b  13176 	.strz	"cRE_AK_TEMP_OVERFLOW ((uint8) 0xf0)"
000004f7 5f54454d505f 
000004fd 4f564552464c 
00000503 4f5720282875 
00000509 696e74382920 
0000050f 307866302900 
00000515 01            13177 	.byte	1
00000516 1e            13178 	.byte	30
00000517 6352455f414b  13179 	.strz	"cRE_AK_TEMP_RANGE_VALUE ((uint8) 0xAD)"
0000051d 5f54454d505f 
00000523 52414e47455f 
00000529 56414c554520 
0000052f 282875696e74 
00000535 382920307841 
0000053b 442900 
0000053e 01            13180 	.byte	1
0000053f 20            13181 	.byte	32
00000540 6352455f414b  13182 	.strz	"cRE_AK_TM_MODE_STANDSTILL ((uint8) 0x00)"
00000546 5f544d5f4d4f 
0000054c 44455f535441 
00000552 4e445354494c 
00000558 4c2028287569 
0000055e 6e7438292030 
00000564 7830302900 
00000569 01            13183 	.byte	1
0000056a 21            13184 	.byte	33
0000056b 6352455f414b  13185 	.strz	"cRE_AK_TM_MODE_DRIVE ((uint8) 0x01)"
00000571 5f544d5f4d4f 
00000577 44455f445249 
0000057d 564520282875 
00000583 696e74382920 
00000589 307830312900 
0000058f 01            13186 	.byte	1
00000590 22            13187 	.byte	34
00000591 6352455f414b  13188 	.strz	"cRE_AK_TM_MODE_LEARNDRIVE ((uint8) 0x02)"
00000597 5f544d5f4d4f 
0000059d 44455f4c4541 
000005a3 524e44524956 
000005a9 452028287569 
000005af 6e7438292030 
000005b5 7830322900 
000005ba 01            13189 	.byte	1
000005bb 23            13190 	.byte	35
000005bc 6352455f414b  13191 	.strz	"cRE_AK_TM_MODE_OVERTEMP ((uint8) 0x04)"
000005c2 5f544d5f4d4f 
000005c8 44455f4f5645 
000005ce 5254454d5020 
000005d4 282875696e74 
000005da 382920307830 
000005e0 342900 
000005e3 01            13192 	.byte	1
000005e4 25            13193 	.byte	37
000005e5 6352455f414b  13194 	.strz	"cRE_AK_TM_EVENT_DP ((uint8) 0x10)"
000005eb 5f544d5f4556 
000005f1 454e545f4450 
000005f7 20282875696e 
000005fd 743829203078 

                                                                      Page 236
                                                              C:\Users\nhuliyap\AppData\Local\Temp\gh_00008uc1.s
00000603 31302900 
00000607 01            13195 	.byte	1
00000608 2e            13196 	.byte	46
00000609 52455f414b5f  13197 	.strz	"RE_AK_SF_PRES_FAIL ((uint16) 0x0010)"
0000060f 53465f505245 
00000615 535f4641494c 
0000061b 20282875696e 
00000621 743136292030 
00000627 783030313029 
0000062d 00 
0000062e 01            13198 	.byte	1
0000062f 30            13199 	.byte	48
00000630 52455f414b5f  13200 	.strz	"RE_AK_SF_PRES_UNDERFLOW ((uint16) 0x0040)"
00000636 53465f505245 
0000063c 535f554e4445 
00000642 52464c4f5720 
00000648 282875696e74 
0000064e 313629203078 
00000654 303034302900 
0000065a 01            13201 	.byte	1
0000065b 31            13202 	.byte	49
0000065c 52455f414b5f  13203 	.strz	"RE_AK_SF_PRES_OVERFLOW ((uint16) 0x0080)"
00000662 53465f505245 
00000668 535f4f564552 
0000066e 464c4f572028 
00000674 2875696e7431 
0000067a 362920307830 
00000680 3038302900 
00000685 01            13204 	.byte	1
00000686 33            13205 	.byte	51
00000687 52455f414b5f  13206 	.strz	"RE_AK_SF_TEMP_UNDERFLOW ((uint16) 0x0200)"
0000068d 53465f54454d 
00000693 505f554e4445 
00000699 52464c4f5720 
0000069f 282875696e74 
000006a5 313629203078 
000006ab 303230302900 
000006b1 01            13207 	.byte	1
000006b2 34            13208 	.byte	52
000006b3 52455f414b5f  13209 	.strz	"RE_AK_SF_TEMP_OVERFLOW ((uint16) 0x0400)"
000006b9 53465f54454d 
000006bf 505f4f564552 
000006c5 464c4f572028 
000006cb 2875696e7431 
000006d1 362920307830 
000006d7 3430302900 
000006dc 01            13210 	.byte	1
000006dd 35            13211 	.byte	53
000006de 52455f414b5f  13212 	.strz	"RE_AK_SF_TEMP_FAIL ((uint16) 0x0800)"
000006e4 53465f54454d 
000006ea 505f4641494c 
000006f0 20282875696e 
000006f6 743136292030 
000006fc 783038303029 
00000702 00 
00000703 01            13213 	.byte	1
00000704 36            13214 	.byte	54
00000705 52455f414b5f  13215 	.strz	"RE_AK_SF_PRES_NOT_RECEIVED ((uint16) 0x1000)"
0000070b 53465f505245 
00000711 535f4e4f545f 
00000717 524543454956 

                                                                      Page 237
                                                              C:\Users\nhuliyap\AppData\Local\Temp\gh_00008uc1.s
0000071d 454420282875 
00000723 696e74313629 
00000729 203078313030 
0000072f 302900 
00000732 01            13216 	.byte	1
00000733 37            13217 	.byte	55
00000734 52455f414b5f  13218 	.strz	"RE_AK_SF_TEMP_NOT_RECEIVED ((uint16) 0x2000)"
0000073a 53465f54454d 
00000740 505f4e4f545f 
00000746 524543454956 
0000074c 454420282875 
00000752 696e74313629 
00000758 203078323030 
0000075e 302900 
00000761 01            13219 	.byte	1
00000762 38            13220 	.byte	56
00000763 52455f414b5f  13221 	.strz	"RE_AK_SF_RLT_NOT_RECEIVED ((uint16) 0x4000)"
00000769 53465f524c54 
0000076f 5f4e4f545f52 
00000775 454345495645 
0000077b 442028287569 
00000781 6e7431362920 
00000787 307834303030 
0000078d 2900 
0000078f 01            13222 	.byte	1
00000790 39            13223 	.byte	57
00000791 52455f414b5f  13224 	.strz	"RE_AK_SF_MOTION_NOT_RECEIVED ((uint16) 0x8000)"
00000797 53465f4d4f54 
0000079d 494f4e5f4e4f 
000007a3 545f52454345 
000007a9 495645442028 
000007af 2875696e7431 
000007b5 362920307838 
000007bb 3030302900 
000007c0 01            13225 	.byte	1
000007c1 3b            13226 	.byte	59
000007c2 52455f414b5f  13227 	.strz	"RE_AK_SF_HW_DEFECT ((uint16) 0x0810)"
000007c8 53465f48575f 
000007ce 444546454354 
000007d4 20282875696e 
000007da 743136292030 
000007e0 783038313029 
000007e6 00 
000007e7 04            13228 	.byte	4
000007e8 03            13229 	.byte	3
000007e9 09            13230 	.byte	9
000007ea 13            13231 	.byte	19
000007eb 04            13232 	.byte	4
000007ec 03            13233 	.byte	3
000007ed 0a            13234 	.byte	10
000007ee 14            13235 	.byte	20
000007ef 04            13236 	.byte	4
000007f0 03            13237 	.byte	3
000007f1 0c            13238 	.byte	12
000007f2 15            13239 	.byte	21
000007f3 04            13240 	.byte	4
000007f4 03            13241 	.byte	3
000007f5 0d            13242 	.byte	13
000007f6 16            13243 	.byte	22
000007f7 01            13244 	.byte	1
000007f8 0d            13245 	.byte	13

                                                                      Page 238
                                                              C:\Users\nhuliyap\AppData\Local\Temp\gh_00008uc1.s
000007f9 635a5547454f  13246 	.strz	"cZUGEORDNET ((uint16) 0x0010)"
000007ff 52444e455420 
00000805 282875696e74 
0000080b 313629203078 
00000811 303031302900 
00000817 04            13247 	.byte	4
00000818 03            13248 	.byte	3
00000819 0e            13249 	.byte	14
0000081a 17            13250 	.byte	23
0000081b 01            13251 	.byte	1
0000081c 11            13252 	.byte	17
0000081d 63464d4d4f54  13253 	.strz	"cFMMOTMAXmin ( (uint8) 0x47 )"
00000823 4d41586d696e 
00000829 202820287569 
0000082f 6e7438292030 
00000835 783437202900 
0000083b 01            13254 	.byte	1
0000083c 12            13255 	.byte	18
0000083d 63464d4d4f54  13256 	.strz	"cFMMOTMAXmax ( (uint8) 0x8D )"
00000843 4d41586d6178 
00000849 202820287569 
0000084f 6e7438292030 
00000855 783844202900 
0000085b 04            13257 	.byte	4
0000085c 03            13258 	.byte	3
0000085d 0f            13259 	.byte	15
0000085e 18            13260 	.byte	24
0000085f 04            13261 	.byte	4
00000860 03            13262 	.byte	3
00000861 10            13263 	.byte	16
00000862 19            13264 	.byte	25
00000863 04            13265 	.byte	4
00000864 03            13266 	.byte	3
00000865 11            13267 	.byte	17
00000866 1a            13268 	.byte	26
00000867 01            13269 	.byte	1
00000868 31            13270 	.byte	49
00000869 63496e76616c  13271 	.strz	"cInvalidTemperatureCAN 0xFF"
0000086f 696454656d70 
00000875 657261747572 
0000087b 6543414e2030 
00000881 78464600 
00000885 04            13272 	.byte	4
00000886 01            13273 	.byte	1
00000887 20            13274 	.byte	32
00000888 54494d455f31  13275 	.strz	"TIME_1S_OVER ( (uint8) 1 )"
0000088e 535f4f564552 
00000894 202820287569 
0000089a 6e7438292031 
000008a0 202900 
000008a3 01            13276 	.byte	1
000008a4 25            13277 	.byte	37
000008a5 4e525f4f465f  13278 	.strz	"NR_OF_SURPRESSED_TELEGRAMS ((uint8) 5U )"
000008ab 535552505245 
000008b1 535345445f54 
000008b7 454c45475241 
000008bd 4d5320282875 
000008c3 696e74382920 
000008c9 3555202900 
000008ce 01            13279 	.byte	1
000008cf 26            13280 	.byte	38

                                                                      Page 239
                                                              C:\Users\nhuliyap\AppData\Local\Temp\gh_00008uc1.s
000008d0 4f5645525f54  13281 	.strz	"OVER_TEMPERATURE_VALUE ((uint8) 0xF7U )"
000008d6 454d50455241 
000008dc 545552455f56 
000008e2 414c55452028 
000008e8 2875696e7438 
000008ee 292030784637 
000008f4 55202900 
000008f8 01            13282 	.byte	1
000008f9 27            13283 	.byte	39
000008fa 4f4e455f4241  13284 	.strz	"ONE_BAR_PRESSURE ((uint16) 40U )"
00000900 525f50524553 
00000906 535552452028 
0000090c 2875696e7431 
00000912 362920343055 
00000918 202900 
0000091b 01            13285 	.byte	1
0000091c 28            13286 	.byte	40
0000091d 4c4f57455354  13287 	.strz	"LOWEST_ATMOSPHERIC_PRESS ((uint8) 22U )"
00000923 5f41544d4f53 
00000929 504845524943 
0000092f 5f5052455353 
00000935 20282875696e 
0000093b 743829203232 
00000941 55202900 
00000945 01            13288 	.byte	1
00000946 29            13289 	.byte	41
00000947 484947484553  13290 	.strz	"HIGHEST_ATMOSPHERIC_PRESS ((uint8) 44U )"
0000094d 545f41544d4f 
00000953 535048455249 
00000959 435f50524553 
0000095f 532028287569 
00000965 6e7438292034 
0000096b 3455202900 
00000970 04            13291 	.byte	4
00000971 00            13292 	.byte	0
                       13293 	.section	.debug_abbrev
00000179 00            13294 	.byte	0
                       13295 	.section	.debug_info
                       13296 .Ldw_end:
                       13297 .rh850_flags REGMODE32,DATA_ALIGN8,GP_FIX,EP_NONFIX,TP_FIX,REG2_RESERVE,G3K,GHS_MISALIGN,SDA_EXTRA_REGS_0
