                                                                      Page 1
                                                              C:\Users\nhuliyap\AppData\Local\Temp\gh_00008cs1.s
Command Line: C:\ghs\comp_201517\ease850.exe -w -elf -b0 -I../source/common -I../source/ProjectCompiler -I../source/ProjectCfg -I../source/SwcApplTpms -I../source/SwcApplTpms/Intface -I../source/SwcApplEcuM -I../source/SwcServiceEcuM -I../source/SwcServiceNvM -I../source/SwcServiceOs -I../source/SwcServiceStartUp -I../source/McalAdc -I../source/McalDio -I../source/McalGpt -I../source/McalMcu -I../source/McalWdg -I../source/wrappers -I../source/wrappers/McalAta -I../source/McalLin -I../source/McalCan -I../source/wrappers/OS -I../source/McalFls -I../source/EcuabFee -I../source/EcuabMemIf -I../source/wrappers/VStdLib -I../source/wrappers/Crc -I../source/wrappers/FBL_APPL -I../source/wrappers/CAN_MANAGER -I../source/wrappers/NVM_MANAGER -I../source/wrappers/DEM_MANAGER -I../source/wrappers/RDC_MANAGER -I../source/wrappers/ENV_MANAGER -I../source/wrappers/SYS_MANAGER -I../source/wrappers/EcuabCanIf -I../source/wrappers/SwcServiceCanSM -I../source/wrappers/SwcServiceCanTp -I../source/wrappers/SwcServiceCanTp_PreCompile -I../source/wrappers/SwcServiceCom -I../source/wrappers/SwcServiceComM -I../source/wrappers/SwcServiceComStack -I../source/wrappers/SwcServiceDcm -I../source/wrappers/SwcServicePduR -I../source/wrappers/SwcServiceEcuM -I../source/wrappers/Bfx -I../source/wrappers/SwcServiceDem -I../source/SwcServiceDet -I../source/SwcServiceFiM -I../source/wrappers/LibAutosarDiag -I../source/wrappers/rba_BswSrv -I../source/SwcServiceSchM -I../source/wrappers/SwcServiceComM/Integration -I../source/wrappers/SwcServicePduR/Integration -I../source/wrappers/EcuabCanIf/Integration -I../source/wrappers/SwcServiceCom/Integration -I../source/wrappers/SwcServiceCanTp/Integration -I../source/wrappers/SwcServiceEcuM/Integration -I../source/SwcServiceDet/Integration -I../source/wrappers/SwcServiceDcm/Integration -I../source/wrappers/SwcServiceDem/Integration -I../source/SwcServiceFiM/Integration -I../source/wrappers/EcuabCanIf/api -I../source/wrappers/SwcServiceCom/api -I../source/wrappers/SwcServiceComM/api -I../source/wrappers/SwcServicePduR/api -I../source/wrappers/Bfx/api -I../source/SwcServiceDet/api -I../source/SwcServiceFiM/api -I../source/wrappers/LibAutosarDiag/api -I../source/wrappers/rba_BswSrv/api -IC:\ghs\comp_201517\lib\rh850 -cg_underscore -cpu=rh850g3k -no_v850_simd -rh850_fpsimd=none -nomacro -patch_dbo=C:\_ECU2\ECU_Rivian_A1\Target\repo_projects\pRealEcu\cL_LATEST\make\output\objects\Rte_NvM_Type.dbo -source=Rte_NvM_Type.c -o output\objects\gh_00008cs1.o -list=output\list\Rte_NvM_Type.lst C:\Users\nhuliyap\AppData\Local\Temp\gh_00008cs1.s 
Original File: C:\Users\nhuliyap\AppData\Local\Temp\gh_00008cs1.s
Source File: Rte_NvM_Type.c
Directory: C:\_ECU2\ECU_Rivian_A1\Target\repo_projects\pRealEcu\cL_LATEST\make
Host OS: Windows
EASE: Copyright (C) 1983-2015 Green Hills Software.  All Rights Reserved.
Release: Compiler v2015.1.7
Build Directory: [Directory] BTOWORKER6:c:/build_2015_1_bto/2015-10-21.2100-2015_1_bto/win32-comp-ecom
Revision: [VCInfo] http://toolsvc/branches/release-branch-70-bto/src@544153 (built by build)
Revision Date: Thu Oct 22 07:50:13 2015

Release Date: Thu Oct 22 09:32:32 2015

                           1 --Driver Command: ccv850 ../source/wrappers/Rte_NvM_Type.c -cpu=rh850 -fhard
                           2 --		-ignore_callt_state_in_interrupts -large_sda -misalign_pack
                           3 --		-nofarcalls -nofloatio -no_callt -Ogeneral -Onounroll
                           4 --		-prepare_dispose -registermode=32 -reserve_r2 -sda=0
                           5 --		-shorten_loads -Wshadow --brief_diagnostics --no_commons
                           6 --		--no_wrap_diagnostics --prototype_errors --short_enum -list -G
                           7 --		-dual_debug -dwarf -X5523 -lnk=-no_xda_modifications -D
                           8 --		NOT_READY_FOR_TESTING_OR_DEPLOYMENT -D IBTCM_SW_ANPASSUNGEN -D
                           9 --		BUILD_LORDSTOWN -c -inline_prologue -I../source/common
                          10 --		-I../source/ProjectCompiler -I../source/ProjectCfg
                          11 --		-I../source/SwcApplTpms -I../source/SwcApplTpms/Intface
                          12 --		-I../source/SwcApplEcuM -I../source/SwcServiceEcuM
                          13 --		-I../source/SwcServiceNvM -I../source/SwcServiceOs
                          14 --		-I../source/SwcServiceStartUp -I../source/McalAdc
                          15 --		-I../source/McalDio -I../source/McalGpt -I../source/McalMcu
                          16 --		-I../source/McalWdg -I../source/wrappers
                          17 --		-I../source/wrappers/McalAta -I../source/McalLin
                          18 --		-I../source/McalCan -I../source/wrappers/OS -I../source/McalFls
                          19 --		-I../source/EcuabFee -I../source/EcuabMemIf
                          20 --		-I../source/wrappers/VStdLib -I../source/wrappers
                          21 --		-I../source/wrappers/Crc -I../source/wrappers/FBL_APPL
                          22 --		-I../source/wrappers/CAN_MANAGER -I../source/wrappers/NVM_MANAGER
                          23 --		-I../source/wrappers/DEM_MANAGER -I../source/wrappers/RDC_MANAGER
                          24 --		-I../source/wrappers/ENV_MANAGER -I../source/wrappers/SYS_MANAGER
                          25 --		-I../source/wrappers/EcuabCanIf
                          26 --		-I../source/wrappers/SwcServiceCanSM
                          27 --		-I../source/wrappers/SwcServiceCanTp
                          28 --		-I../source/wrappers/SwcServiceCanTp_PreCompile
                          29 --		-I../source/wrappers/SwcServiceCom
                          30 --		-I../source/wrappers/SwcServiceComM
                          31 --		-I../source/wrappers/SwcServiceComStack
                          32 --		-I../source/wrappers/SwcServiceDcm
                          33 --		-I../source/wrappers/SwcServicePduR
                          34 --		-I../source/wrappers/SwcServiceEcuM -I../source/wrappers/Bfx
                          35 --		-I../source/wrappers/SwcServiceDem -I../source/SwcServiceDet
                          36 --		-I../source/SwcServiceFiM -I../source/wrappers/LibAutosarDiag
                          37 --		-I../source/wrappers/rba_BswSrv -I../source/SwcServiceSchM
                          38 --		-I../source/wrappers/SwcServiceComM/Integration
                          39 --		-I../source/wrappers/SwcServicePduR/Integration
                          40 --		-I../source/wrappers/EcuabCanIf/Integration
                          41 --		-I../source/wrappers/SwcServiceCom/Integration
                          42 --		-I../source/wrappers/SwcServiceCanTp/Integration
                          43 --		-I../source/wrappers/SwcServiceEcuM/Integration
                          44 --		-I../source/SwcServiceDet/Integration
                          45 --		-I../source/wrappers/SwcServiceDcm/Integration
                          46 --		-I../source/wrappers/SwcServiceDem/Integration
                          47 --		-I../source/SwcServiceFiM/Integration
                          48 --		-I../source/wrappers/EcuabCanIf/api
                          49 --		-I../source/wrappers/SwcServiceCom/api
                          50 --		-I../source/wrappers/SwcServiceComM/api

                                                                      Page 2
                                                              C:\Users\nhuliyap\AppData\Local\Temp\gh_00008cs1.s
                          51 --		-I../source/wrappers/SwcServicePduR/api
                          52 --		-I../source/wrappers/Bfx/api -I../source/SwcServiceDet/api
                          53 --		-I../source/SwcServiceFiM/api
                          54 --		-I../source/wrappers/LibAutosarDiag/api
                          55 --		-I../source/wrappers/rba_BswSrv/api -object_dir=output/objects
                          56 --		-list_dir=output/list
                          57 --Source File:   ../source/wrappers/Rte_NvM_Type.c
                          58 --Directory:     
                          59 --		C:\_ECU2\ECU_Rivian_A1\Target\repo_projects\pRealEcu\cL_LATEST\make
                          60 --Compile Date:  Wed Sep 06 09:44:53 2023
                          61 --Host OS:       Win32
                          62 --Version:       C-RH850 2015.1.7 RELEASE VERSION
                          63 --Release:       Compiler v2015.1.7
                          64 --Revision Date: Thu Oct 22 08:06:12 2015
                          65 --Release Date:  Thu Oct 22 09:34:32 2015
                          66 -- ecom  -g -w -OM
                          67 	.text
                          68 ..bof.C.3A.5C_ECU2.5CECU_Rivian_A1.5CTarget.5Crepo_projects.5CpRealEcu.5CcL_LATEST.5Cmake.5Coutput.5Cobjects.5CRte_NvM_Type...43.3A.5C_ECU2.5CECU_Rivian_A1.5CTarget.5Crepo_projects.5CpRealEcu.5CcL_LATEST.5Cmake..64F82DF5..0::
                          69 	.align	2
                          70 ..gh.f.f.1.e.0:
                          71 	.type	..gh.f.f.1.e.0,@object
                          72 	.size	..gh.f.f.1.e.0,0
                          73 	.global	_Memstack_GetNvmCatFromHufBlockNumber
                          74 _Memstack_GetNvmCatFromHufBlockNumber:
00000000 c600             75 	zxh	r6
                          76 --	    .bf
                          77 .LDW01:
00000002 0052             78 	mov	0,r10
00000004 b505*            79 	br	.L4
                          80 .L6:
                          81 --line126
                          82 ..lin.C.3A.5C_ECU2.5CECU_Rivian_A1.5CTarget.5Crepo_projects.5CpRealEcu.5CcL_LATEST.5Cmake.5Coutput.5Cobjects.5CRte_NvM_Type.1::
                          83 .LDWlin1:
00000006 4152             84 	add	1,r10
00000008 8a00             85 	zxb	r10
                          86 .L4:
0000000a 3e0600000000*    87 	mov	.L54+29,ep
00000010 caf1             88 	add	r10,ep
00000012 6088             89 	sld.bu	0[ep],r17
00000014 f131             90 	cmp	r17,r6
00000016 89fd*            91 	bnl	.L6
                          92 --	    .ef
                          93 .LDW11:
                          94 --line129
                          95 ..lin.C.3A.5C_ECU2.5CECU_Rivian_A1.5CTarget.5Crepo_projects.5CpRealEcu.5CcL_LATEST.5Cmake.5Coutput.5Cobjects.5CRte_NvM_Type.2::
                          96 .LDWlin2:
00000018 7f00             97 	jmp	[lp]
                          98 	.global	___ghs_eofn_Memstack_GetNvmCatFromHufBlockNumber
                          99 ___ghs_eofn_Memstack_GetNvmCatFromHufBlockNumber:
                         100 	.type	_Memstack_GetNvmCatFromHufBlockNumber,@function
                         101 	.size	_Memstack_GetNvmCatFromHufBlockNumber,.-_Memstack_GetNvmCatFromHufBlockNumber
                         102 	.align	2
                         103 --_i	r10	local
                         104 
                         105 --_ushBlockNr	r6	param
                         106 
                         107 	.data
                         108 	.align	4
                         109 .L54:
                         110 	.type	.L54,@object
                         111 	.size	.L54,0

                                                                      Page 3
                                                              C:\Users\nhuliyap\AppData\Local\Temp\gh_00008cs1.s
                         112 	.global	_ulCurrentNvmConsistence..C.3A.5C_ECU2.5CECU_Rivian_A1.5CTarget.5Crepo_projects.5CpRealEcu.5CcL_LATEST.5Cmake.5Coutput.5Cobjects.5CRte_NvM_Type.
                         113 _ulCurrentNvmConsistence..C.3A.5C_ECU2.5CECU_Rivian_A1.5CTarget.5Crepo_projects.5CpRealEcu.5CcL_LATEST.5Cmake.5Coutput.5Cobjects.5CRte_NvM_Type.:
00000000 00000000        114 _ulCurrentNvmConsistence:	.byte	0,0,0,0
                         115 	.type	_ulCurrentNvmConsistence..C.3A.5C_ECU2.5CECU_Rivian_A1.5CTarget.5Crepo_projects.5CpRealEcu.5CcL_LATEST.5Cmake.5Coutput.5Cobjects.5CRte_NvM_Type.,@object
                         116 	.size	_ulCurrentNvmConsistence..C.3A.5C_ECU2.5CECU_Rivian_A1.5CTarget.5Crepo_projects.5CpRealEcu.5CcL_LATEST.5Cmake.5Coutput.5Cobjects.5CRte_NvM_Type.,4
                         117 	.type	_ulCurrentNvmConsistence,@object
                         118 	.size	_ulCurrentNvmConsistence,4
                         119 	.global	_ucCatSaveOnEvent..C.3A.5C_ECU2.5CECU_Rivian_A1.5CTarget.5Crepo_projects.5CpRealEcu.5CcL_LATEST.5Cmake.5Coutput.5Cobjects.5CRte_NvM_Type.
                         120 _ucCatSaveOnEvent..C.3A.5C_ECU2.5CECU_Rivian_A1.5CTarget.5Crepo_projects.5CpRealEcu.5CcL_LATEST.5Cmake.5Coutput.5Cobjects.5CRte_NvM_Type.:
00000004 01              121 _ucCatSaveOnEvent:	.byte	1
00000005 00              122 	.space	1
00000006 01              123 	.byte	1
00000007 00              124 	.space	1
00000008 01              125 	.byte	1
00000009 00              126 	.space	1
0000000a 00              127 	.space	1
0000000b 00              128 	.space	1
0000000c 00              129 	.space	1
0000000d 01              130 	.byte	1
0000000e 0000            131 	.space	2
                         132 	.type	_ucCatSaveOnEvent..C.3A.5C_ECU2.5CECU_Rivian_A1.5CTarget.5Crepo_projects.5CpRealEcu.5CcL_LATEST.5Cmake.5Coutput.5Cobjects.5CRte_NvM_Type.,@object
                         133 	.size	_ucCatSaveOnEvent..C.3A.5C_ECU2.5CECU_Rivian_A1.5CTarget.5Crepo_projects.5CpRealEcu.5CcL_LATEST.5Cmake.5Coutput.5Cobjects.5CRte_NvM_Type.,12
                         134 	.type	_ucCatSaveOnEvent,@object
                         135 	.size	_ucCatSaveOnEvent,12
                         136 	.global	_ucCatRamBlockStatus..C.3A.5C_ECU2.5CECU_Rivian_A1.5CTarget.5Crepo_projects.5CpRealEcu.5CcL_LATEST.5Cmake.5Coutput.5Cobjects.5CRte_NvM_Type.
                         137 _ucCatRamBlockStatus..C.3A.5C_ECU2.5CECU_Rivian_A1.5CTarget.5Crepo_projects.5CpRealEcu.5CcL_LATEST.5Cmake.5Coutput.5Cobjects.5CRte_NvM_Type.:
00000010 00              138 _ucCatRamBlockStatus:	.space	1
00000011 00              139 	.space	1
00000012 00              140 	.space	1
00000013 00              141 	.space	1
00000014 00              142 	.space	1
00000015 00              143 	.space	1
00000016 00              144 	.space	1
00000017 00              145 	.space	1
00000018 00              146 	.space	1
00000019 00              147 	.space	1
0000001a 0000            148 	.space	2
                         149 	.type	_ucCatRamBlockStatus..C.3A.5C_ECU2.5CECU_Rivian_A1.5CTarget.5Crepo_projects.5CpRealEcu.5CcL_LATEST.5Cmake.5Coutput.5Cobjects.5CRte_NvM_Type.,@object
                         150 	.size	_ucCatRamBlockStatus..C.3A.5C_ECU2.5CECU_Rivian_A1.5CTarget.5Crepo_projects.5CpRealEcu.5CcL_LATEST.5Cmake.5Coutput.5Cobjects.5CRte_NvM_Type.,12
                         151 	.type	_ucCatRamBlockStatus,@object
                         152 	.size	_ucCatRamBlockStatus,12
                         153 	.global	_ucNvMCatSizeCum..C.3A.5C_ECU2.5CECU_Rivian_A1.5CTarget.5Crepo_projects.5CpRealEcu.5CcL_LATEST.5Cmake.5Coutput.5Cobjects.5CRte_NvM_Type.
                         154 _ucNvMCatSizeCum..C.3A.5C_ECU2.5CECU_Rivian_A1.5CTarget.5Crepo_projects.5CpRealEcu.5CcL_LATEST.5Cmake.5Coutput.5Cobjects.5CRte_NvM_Type.:
0000001c 00              155 _ucNvMCatSizeCum:	.space	1
0000001d 0d1a3237        156 	.byte	13,26,50,55
00000021 434f555b        157 	.byte	67,79,85,91
00000025 6364            158 	.byte	99,100
00000027 00              159 	.space	1
                         160 	.type	_ucNvMCatSizeCum..C.3A.5C_ECU2.5CECU_Rivian_A1.5CTarget.5Crepo_projects.5CpRealEcu.5CcL_LATEST.5Cmake.5Coutput.5Cobjects.5CRte_NvM_Type.,@object
                         161 	.size	_ucNvMCatSizeCum..C.3A.5C_ECU2.5CECU_Rivian_A1.5CTarget.5Crepo_projects.5CpRealEcu.5CcL_LATEST.5Cmake.5Coutput.5Cobjects.5CRte_NvM_Type.,12
                         162 	.type	_ucNvMCatSizeCum,@object
                         163 	.size	_ucNvMCatSizeCum,12
                         164 	.text
                         165 	.align	2
                         166 	.align	2
                         167 ..gh.f.f.1.e.1:
                         168 	.type	..gh.f.f.1.e.1,@object
                         169 	.size	..gh.f.f.1.e.1,0
                         170 	.global	_Memstack_GetNvMRamAdress
                         171 _Memstack_GetNvMRamAdress:
0000001a c600            172 	zxh	r6

                                                                      Page 4
                                                              C:\Users\nhuliyap\AppData\Local\Temp\gh_00008cs1.s
0000001c 3e0600000000*   173 	mov	_ucNvMCatSizeCum,ep
                         174 --	    .bf
                         175 .LDW21:
                         176 --line138
                         177 ..lin.C.3A.5C_ECU2.5CECU_Rivian_A1.5CTarget.5Crepo_projects.5CpRealEcu.5CcL_LATEST.5Cmake.5Coutput.5Cobjects.5CRte_NvM_Type.3::
                         178 .LDWlin3:
00000022 6190            179 	sld.bu	1[ep],r18
00000024 f231            180 	cmp	r18,r6
00000026 b90d*           181 	bnl	.L102
                         182 --line140
                         183 ..lin.C.3A.5C_ECU2.5CECU_Rivian_A1.5CTarget.5Crepo_projects.5CpRealEcu.5CcL_LATEST.5Cmake.5Coutput.5Cobjects.5CRte_NvM_Type.4::
                         184 .LDWlin4:
00000028 6098            185 	sld.bu	0[ep],r19
0000002a 0650            186 	mov	r6,r10
0000002c c252            187 	shl	2,r10
0000002e 310600000000*   188 	mov	_Ram_NvMBlock_CAT01,r17
00000034 d151            189 	add	r17,r10
00000036 c29a            190 	shl	2,r19
00000038 b351            191 	sub	r19,r10
0000003a 7f00            192 	jmp	[lp]
                         193 .L102:
                         194 --line142
                         195 ..lin.C.3A.5C_ECU2.5CECU_Rivian_A1.5CTarget.5Crepo_projects.5CpRealEcu.5CcL_LATEST.5Cmake.5Coutput.5Cobjects.5CRte_NvM_Type.5::
                         196 .LDWlin5:
0000003c 6288            197 	sld.bu	2[ep],r17
0000003e 0052            198 	mov	0,r10
00000040 f131            199 	cmp	r17,r6
00000042 a90d*           200 	bnl	.L105
                         201 --line144
                         202 ..lin.C.3A.5C_ECU2.5CECU_Rivian_A1.5CTarget.5Crepo_projects.5CpRealEcu.5CcL_LATEST.5Cmake.5Coutput.5Cobjects.5CRte_NvM_Type.6::
                         203 .LDWlin6:
00000044 0650            204 	mov	r6,r10
00000046 c252            205 	shl	2,r10
00000048 300600000000*   206 	mov	_Ram_NvMBlock_CAT02,r16
0000004e d051            207 	add	r16,r10
00000050 c292            208 	shl	2,r18
00000052 b251            209 	sub	r18,r10
00000054 7f00            210 	jmp	[lp]
                         211 .L105:
                         212 --line146
                         213 ..lin.C.3A.5C_ECU2.5CECU_Rivian_A1.5CTarget.5Crepo_projects.5CpRealEcu.5CcL_LATEST.5Cmake.5Coutput.5Cobjects.5CRte_NvM_Type.7::
                         214 .LDWlin7:
00000056 6380            215 	sld.bu	3[ep],r16
00000058 f031            216 	cmp	r16,r6
0000005a a90d*           217 	bnl	.L108
                         218 --line148
                         219 ..lin.C.3A.5C_ECU2.5CECU_Rivian_A1.5CTarget.5Crepo_projects.5CpRealEcu.5CcL_LATEST.5Cmake.5Coutput.5Cobjects.5CRte_NvM_Type.8::
                         220 .LDWlin8:
0000005c 0650            221 	mov	r6,r10
0000005e c252            222 	shl	2,r10
00000060 2f0600000000*   223 	mov	_Ram_NvMBlock_CAT03,r15
00000066 cf51            224 	add	r15,r10
00000068 c28a            225 	shl	2,r17
0000006a b151            226 	sub	r17,r10
0000006c 7f00            227 	jmp	[lp]
                         228 .L108:
                         229 --line151
                         230 ..lin.C.3A.5C_ECU2.5CECU_Rivian_A1.5CTarget.5Crepo_projects.5CpRealEcu.5CcL_LATEST.5Cmake.5Coutput.5Cobjects.5CRte_NvM_Type.9::
                         231 .LDWlin9:
0000006e 6478            232 	sld.bu	4[ep],r15
00000070 ef31            233 	cmp	r15,r6

                                                                      Page 5
                                                              C:\Users\nhuliyap\AppData\Local\Temp\gh_00008cs1.s
00000072 a90d*           234 	bnl	.L111
                         235 --line153
                         236 ..lin.C.3A.5C_ECU2.5CECU_Rivian_A1.5CTarget.5Crepo_projects.5CpRealEcu.5CcL_LATEST.5Cmake.5Coutput.5Cobjects.5CRte_NvM_Type.10::
                         237 .LDWlin10:
00000074 0650            238 	mov	r6,r10
00000076 c252            239 	shl	2,r10
00000078 2e0600000000*   240 	mov	_Ram_NvMBlock_CAT04,r14
0000007e ce51            241 	add	r14,r10
00000080 c282            242 	shl	2,r16
00000082 b051            243 	sub	r16,r10
00000084 7f00            244 	jmp	[lp]
                         245 .L111:
                         246 --line156
                         247 ..lin.C.3A.5C_ECU2.5CECU_Rivian_A1.5CTarget.5Crepo_projects.5CpRealEcu.5CcL_LATEST.5Cmake.5Coutput.5Cobjects.5CRte_NvM_Type.11::
                         248 .LDWlin11:
00000086 6570            249 	sld.bu	5[ep],r14
00000088 ee31            250 	cmp	r14,r6
0000008a a90d*           251 	bnl	.L114
                         252 --line158
                         253 ..lin.C.3A.5C_ECU2.5CECU_Rivian_A1.5CTarget.5Crepo_projects.5CpRealEcu.5CcL_LATEST.5Cmake.5Coutput.5Cobjects.5CRte_NvM_Type.12::
                         254 .LDWlin12:
0000008c 0650            255 	mov	r6,r10
0000008e c252            256 	shl	2,r10
00000090 2d0600000000*   257 	mov	_Ram_NvMBlock_CAT05,r13
00000096 cd51            258 	add	r13,r10
00000098 c27a            259 	shl	2,r15
0000009a af51            260 	sub	r15,r10
0000009c 7f00            261 	jmp	[lp]
                         262 .L114:
                         263 --line160
                         264 ..lin.C.3A.5C_ECU2.5CECU_Rivian_A1.5CTarget.5Crepo_projects.5CpRealEcu.5CcL_LATEST.5Cmake.5Coutput.5Cobjects.5CRte_NvM_Type.13::
                         265 .LDWlin13:
0000009e 6668            266 	sld.bu	6[ep],r13
000000a0 ed31            267 	cmp	r13,r6
000000a2 a90d*           268 	bnl	.L117
                         269 --line162
                         270 ..lin.C.3A.5C_ECU2.5CECU_Rivian_A1.5CTarget.5Crepo_projects.5CpRealEcu.5CcL_LATEST.5Cmake.5Coutput.5Cobjects.5CRte_NvM_Type.14::
                         271 .LDWlin14:
000000a4 0650            272 	mov	r6,r10
000000a6 c252            273 	shl	2,r10
000000a8 2c0600000000*   274 	mov	_Ram_NvMBlock_CAT06,r12
000000ae cc51            275 	add	r12,r10
000000b0 c272            276 	shl	2,r14
000000b2 ae51            277 	sub	r14,r10
000000b4 7f00            278 	jmp	[lp]
                         279 .L117:
                         280 --line164
                         281 ..lin.C.3A.5C_ECU2.5CECU_Rivian_A1.5CTarget.5Crepo_projects.5CpRealEcu.5CcL_LATEST.5Cmake.5Coutput.5Cobjects.5CRte_NvM_Type.15::
                         282 .LDWlin15:
000000b6 6760            283 	sld.bu	7[ep],r12
000000b8 ec31            284 	cmp	r12,r6
000000ba a90d*           285 	bnl	.L120
                         286 --line166
                         287 ..lin.C.3A.5C_ECU2.5CECU_Rivian_A1.5CTarget.5Crepo_projects.5CpRealEcu.5CcL_LATEST.5Cmake.5Coutput.5Cobjects.5CRte_NvM_Type.16::
                         288 .LDWlin16:
000000bc 0650            289 	mov	r6,r10
000000be c252            290 	shl	2,r10
000000c0 2b0600000000*   291 	mov	_Ram_NvMBlock_CAT07,r11
000000c6 cb51            292 	add	r11,r10
000000c8 c26a            293 	shl	2,r13
000000ca ad51            294 	sub	r13,r10

                                                                      Page 6
                                                              C:\Users\nhuliyap\AppData\Local\Temp\gh_00008cs1.s
000000cc 7f00            295 	jmp	[lp]
                         296 .L120:
                         297 --line168
                         298 ..lin.C.3A.5C_ECU2.5CECU_Rivian_A1.5CTarget.5Crepo_projects.5CpRealEcu.5CcL_LATEST.5Cmake.5Coutput.5Cobjects.5CRte_NvM_Type.17::
                         299 .LDWlin17:
000000ce 6858            300 	sld.bu	8[ep],r11
000000d0 eb31            301 	cmp	r11,r6
000000d2 a90d*           302 	bnl	.L123
                         303 --line170
                         304 ..lin.C.3A.5C_ECU2.5CECU_Rivian_A1.5CTarget.5Crepo_projects.5CpRealEcu.5CcL_LATEST.5Cmake.5Coutput.5Cobjects.5CRte_NvM_Type.18::
                         305 .LDWlin18:
000000d4 0650            306 	mov	r6,r10
000000d6 c252            307 	shl	2,r10
000000d8 290600000000*   308 	mov	_Ram_NvMBlock_CAT08,r9
000000de c951            309 	add	r9,r10
000000e0 c262            310 	shl	2,r12
000000e2 ac51            311 	sub	r12,r10
000000e4 7f00            312 	jmp	[lp]
                         313 .L123:
                         314 --line172
                         315 ..lin.C.3A.5C_ECU2.5CECU_Rivian_A1.5CTarget.5Crepo_projects.5CpRealEcu.5CcL_LATEST.5Cmake.5Coutput.5Cobjects.5CRte_NvM_Type.19::
                         316 .LDWlin19:
000000e6 6948            317 	sld.bu	9[ep],r9
000000e8 e931            318 	cmp	r9,r6
000000ea a90d*           319 	bnl	.L126
                         320 --line174
                         321 ..lin.C.3A.5C_ECU2.5CECU_Rivian_A1.5CTarget.5Crepo_projects.5CpRealEcu.5CcL_LATEST.5Cmake.5Coutput.5Cobjects.5CRte_NvM_Type.20::
                         322 .LDWlin20:
000000ec 0650            323 	mov	r6,r10
000000ee c252            324 	shl	2,r10
000000f0 280600000000*   325 	mov	_Ram_NvMBlock_CAT09,r8
000000f6 c851            326 	add	r8,r10
000000f8 c25a            327 	shl	2,r11
000000fa ab51            328 	sub	r11,r10
000000fc 7f00            329 	jmp	[lp]
                         330 .L126:
                         331 --line176
                         332 ..lin.C.3A.5C_ECU2.5CECU_Rivian_A1.5CTarget.5Crepo_projects.5CpRealEcu.5CcL_LATEST.5Cmake.5Coutput.5Cobjects.5CRte_NvM_Type.21::
                         333 .LDWlin21:
000000fe 6a38            334 	sld.bu	10[ep],r7
00000100 e731            335 	cmp	r7,r6
00000102 a90d*           336 	bnl	.L100
                         337 --line178
                         338 ..lin.C.3A.5C_ECU2.5CECU_Rivian_A1.5CTarget.5Crepo_projects.5CpRealEcu.5CcL_LATEST.5Cmake.5Coutput.5Cobjects.5CRte_NvM_Type.22::
                         339 .LDWlin22:
00000104 0650            340 	mov	r6,r10
00000106 c252            341 	shl	2,r10
00000108 260600000000*   342 	mov	_Ram_NvMBlock_CAT10,r6
0000010e c651            343 	add	r6,r10
00000110 c24a            344 	shl	2,r9
00000112 a951            345 	sub	r9,r10
00000114 7f00            346 	jmp	[lp]
                         347 .L100:
                         348 --	    .ef
                         349 .LDW31:
                         350 --line184
                         351 ..lin.C.3A.5C_ECU2.5CECU_Rivian_A1.5CTarget.5Crepo_projects.5CpRealEcu.5CcL_LATEST.5Cmake.5Coutput.5Cobjects.5CRte_NvM_Type.23::
                         352 .LDWlin23:
00000116 7f00            353 	jmp	[lp]
                         354 	.global	___ghs_eofn_Memstack_GetNvMRamAdress
                         355 ___ghs_eofn_Memstack_GetNvMRamAdress:

                                                                      Page 7
                                                              C:\Users\nhuliyap\AppData\Local\Temp\gh_00008cs1.s
                         356 	.type	_Memstack_GetNvMRamAdress,@function
                         357 	.size	_Memstack_GetNvMRamAdress,.-_Memstack_GetNvMRamAdress
                         358 	.align	2
                         359 --_p2BlockAdress	r10	local
                         360 --_ulTemp	r19	local
                         361 
                         362 --_ushBlockNr	r6	param
                         363 
                         364 	.data
                         365 	.text
                         366 	.align	2
                         367 	.align	2
                         368 ..gh.f.f.1.e.2:
                         369 	.type	..gh.f.f.1.e.2,@object
                         370 	.size	..gh.f.f.1.e.2,0
                         371 	.global	_Memstack_SetEcuNvMRamBlockStatus
                         372 _Memstack_SetEcuNvMRamBlockStatus:
00000118 80076100        373 	prepare	{r29,r31},0
0000011c c600            374 	zxh	r6
0000011e 3d0600000000*   375 	mov	_ucCatRamBlockStatus,r29
                         376 --	    .bf
                         377 .LDW41:
                         378 --line190
                         379 ..lin.C.3A.5C_ECU2.5CECU_Rivian_A1.5CTarget.5Crepo_projects.5CpRealEcu.5CcL_LATEST.5Cmake.5Coutput.5Cobjects.5CRte_NvM_Type.24::
                         380 .LDWlin24:
00000124 3df60c00        381 	movea	12,r29,ep
00000128 6190            382 	sld.bu	1[ep],r18
0000012a f231            383 	cmp	r18,r6
0000012c a90d*           384 	bnl	.L465
                         385 --line192
                         386 ..lin.C.3A.5C_ECU2.5CECU_Rivian_A1.5CTarget.5Crepo_projects.5CpRealEcu.5CcL_LATEST.5Cmake.5Coutput.5Cobjects.5CRte_NvM_Type.25::
                         387 .LDWlin25:
0000012e 0232            388 	mov	2,r6
00000130 013a            389 	mov	1,r7
                         390 	jarl	_NvM_SetRamBlockStatus,lp
                         390 <EXPANSION BEGIN>
                         390 jarl22 _NvM_SetRamBlockStatus , lp 
00000132 80ff0000*       390 <EXPANSION END>
                         391 --line193
                         392 ..lin.C.3A.5C_ECU2.5CECU_Rivian_A1.5CTarget.5Crepo_projects.5CpRealEcu.5CcL_LATEST.5Cmake.5Coutput.5Cobjects.5CRte_NvM_Type.26::
                         393 .LDWlin26:
00000136 018a            394 	mov	1,r17
00000138 5d8f0000        395 	st.b	r17,0[r29]
0000013c 40067f00        396 	dispose	0,{r29,r31},[lp]
                         397 .L465:
                         398 --line195
                         399 ..lin.C.3A.5C_ECU2.5CECU_Rivian_A1.5CTarget.5Crepo_projects.5CpRealEcu.5CcL_LATEST.5Cmake.5Coutput.5Cobjects.5CRte_NvM_Type.27::
                         400 .LDWlin27:
00000140 6280            401 	sld.bu	2[ep],r16
00000142 f031            402 	cmp	r16,r6
00000144 a90d*           403 	bnl	.L468
                         404 --line197
                         405 ..lin.C.3A.5C_ECU2.5CECU_Rivian_A1.5CTarget.5Crepo_projects.5CpRealEcu.5CcL_LATEST.5Cmake.5Coutput.5Cobjects.5CRte_NvM_Type.28::
                         406 .LDWlin28:
00000146 0332            407 	mov	3,r6
00000148 013a            408 	mov	1,r7
                         409 	jarl	_NvM_SetRamBlockStatus,lp
                         409 <EXPANSION BEGIN>
                         409 jarl22 _NvM_SetRamBlockStatus , lp 
0000014a 80ff0000*       409 <EXPANSION END>
                         410 --line198

                                                                      Page 8
                                                              C:\Users\nhuliyap\AppData\Local\Temp\gh_00008cs1.s
                         411 ..lin.C.3A.5C_ECU2.5CECU_Rivian_A1.5CTarget.5Crepo_projects.5CpRealEcu.5CcL_LATEST.5Cmake.5Coutput.5Cobjects.5CRte_NvM_Type.29::
                         412 .LDWlin29:
0000014e 017a            413 	mov	1,r15
00000150 5d7f0100        414 	st.b	r15,1[r29]
00000154 40067f00        415 	dispose	0,{r29,r31},[lp]
                         416 .L468:
                         417 --line200
                         418 ..lin.C.3A.5C_ECU2.5CECU_Rivian_A1.5CTarget.5Crepo_projects.5CpRealEcu.5CcL_LATEST.5Cmake.5Coutput.5Cobjects.5CRte_NvM_Type.30::
                         419 .LDWlin30:
00000158 6370            420 	sld.bu	3[ep],r14
0000015a ee31            421 	cmp	r14,r6
0000015c a90d*           422 	bnl	.L471
                         423 --line202
                         424 ..lin.C.3A.5C_ECU2.5CECU_Rivian_A1.5CTarget.5Crepo_projects.5CpRealEcu.5CcL_LATEST.5Cmake.5Coutput.5Cobjects.5CRte_NvM_Type.31::
                         425 .LDWlin31:
0000015e 0432            426 	mov	4,r6
00000160 013a            427 	mov	1,r7
                         428 	jarl	_NvM_SetRamBlockStatus,lp
                         428 <EXPANSION BEGIN>
                         428 jarl22 _NvM_SetRamBlockStatus , lp 
00000162 80ff0000*       428 <EXPANSION END>
                         429 --line203
                         430 ..lin.C.3A.5C_ECU2.5CECU_Rivian_A1.5CTarget.5Crepo_projects.5CpRealEcu.5CcL_LATEST.5Cmake.5Coutput.5Cobjects.5CRte_NvM_Type.32::
                         431 .LDWlin32:
00000166 016a            432 	mov	1,r13
00000168 5d6f0200        433 	st.b	r13,2[r29]
0000016c 40067f00        434 	dispose	0,{r29,r31},[lp]
                         435 .L471:
                         436 --line205
                         437 ..lin.C.3A.5C_ECU2.5CECU_Rivian_A1.5CTarget.5Crepo_projects.5CpRealEcu.5CcL_LATEST.5Cmake.5Coutput.5Cobjects.5CRte_NvM_Type.33::
                         438 .LDWlin33:
00000170 6460            439 	sld.bu	4[ep],r12
00000172 ec31            440 	cmp	r12,r6
00000174 a90d*           441 	bnl	.L474
                         442 --line207
                         443 ..lin.C.3A.5C_ECU2.5CECU_Rivian_A1.5CTarget.5Crepo_projects.5CpRealEcu.5CcL_LATEST.5Cmake.5Coutput.5Cobjects.5CRte_NvM_Type.34::
                         444 .LDWlin34:
00000176 0532            445 	mov	5,r6
00000178 013a            446 	mov	1,r7
                         447 	jarl	_NvM_SetRamBlockStatus,lp
                         447 <EXPANSION BEGIN>
                         447 jarl22 _NvM_SetRamBlockStatus , lp 
0000017a 80ff0000*       447 <EXPANSION END>
                         448 --line208
                         449 ..lin.C.3A.5C_ECU2.5CECU_Rivian_A1.5CTarget.5Crepo_projects.5CpRealEcu.5CcL_LATEST.5Cmake.5Coutput.5Cobjects.5CRte_NvM_Type.35::
                         450 .LDWlin35:
0000017e 015a            451 	mov	1,r11
00000180 5d5f0300        452 	st.b	r11,3[r29]
00000184 40067f00        453 	dispose	0,{r29,r31},[lp]
                         454 .L474:
                         455 --line210
                         456 ..lin.C.3A.5C_ECU2.5CECU_Rivian_A1.5CTarget.5Crepo_projects.5CpRealEcu.5CcL_LATEST.5Cmake.5Coutput.5Cobjects.5CRte_NvM_Type.36::
                         457 .LDWlin36:
00000188 6550            458 	sld.bu	5[ep],r10
0000018a ea31            459 	cmp	r10,r6
0000018c a90d*           460 	bnl	.L477
                         461 --line212
                         462 ..lin.C.3A.5C_ECU2.5CECU_Rivian_A1.5CTarget.5Crepo_projects.5CpRealEcu.5CcL_LATEST.5Cmake.5Coutput.5Cobjects.5CRte_NvM_Type.37::
                         463 .LDWlin37:
0000018e 0632            464 	mov	6,r6
00000190 013a            465 	mov	1,r7

                                                                      Page 9
                                                              C:\Users\nhuliyap\AppData\Local\Temp\gh_00008cs1.s
                         466 	jarl	_NvM_SetRamBlockStatus,lp
                         466 <EXPANSION BEGIN>
                         466 jarl22 _NvM_SetRamBlockStatus , lp 
00000192 80ff0000*       466 <EXPANSION END>
                         467 --line213
                         468 ..lin.C.3A.5C_ECU2.5CECU_Rivian_A1.5CTarget.5Crepo_projects.5CpRealEcu.5CcL_LATEST.5Cmake.5Coutput.5Cobjects.5CRte_NvM_Type.38::
                         469 .LDWlin38:
00000196 014a            470 	mov	1,r9
00000198 5d4f0400        471 	st.b	r9,4[r29]
0000019c 40067f00        472 	dispose	0,{r29,r31},[lp]
                         473 .L477:
                         474 --line215
                         475 ..lin.C.3A.5C_ECU2.5CECU_Rivian_A1.5CTarget.5Crepo_projects.5CpRealEcu.5CcL_LATEST.5Cmake.5Coutput.5Cobjects.5CRte_NvM_Type.39::
                         476 .LDWlin39:
000001a0 6640            477 	sld.bu	6[ep],r8
000001a2 e831            478 	cmp	r8,r6
000001a4 a90d*           479 	bnl	.L480
                         480 --line217
                         481 ..lin.C.3A.5C_ECU2.5CECU_Rivian_A1.5CTarget.5Crepo_projects.5CpRealEcu.5CcL_LATEST.5Cmake.5Coutput.5Cobjects.5CRte_NvM_Type.40::
                         482 .LDWlin40:
000001a6 0732            483 	mov	7,r6
000001a8 013a            484 	mov	1,r7
                         485 	jarl	_NvM_SetRamBlockStatus,lp
                         485 <EXPANSION BEGIN>
                         485 jarl22 _NvM_SetRamBlockStatus , lp 
000001aa 80ff0000*       485 <EXPANSION END>
                         486 --line218
                         487 ..lin.C.3A.5C_ECU2.5CECU_Rivian_A1.5CTarget.5Crepo_projects.5CpRealEcu.5CcL_LATEST.5Cmake.5Coutput.5Cobjects.5CRte_NvM_Type.41::
                         488 .LDWlin41:
000001ae 013a            489 	mov	1,r7
000001b0 5d3f0500        490 	st.b	r7,5[r29]
000001b4 40067f00        491 	dispose	0,{r29,r31},[lp]
                         492 .L480:
                         493 --line220
                         494 ..lin.C.3A.5C_ECU2.5CECU_Rivian_A1.5CTarget.5Crepo_projects.5CpRealEcu.5CcL_LATEST.5Cmake.5Coutput.5Cobjects.5CRte_NvM_Type.42::
                         495 .LDWlin42:
000001b8 6798            496 	sld.bu	7[ep],r19
000001ba f331            497 	cmp	r19,r6
000001bc a90d*           498 	bnl	.L483
                         499 --line222
                         500 ..lin.C.3A.5C_ECU2.5CECU_Rivian_A1.5CTarget.5Crepo_projects.5CpRealEcu.5CcL_LATEST.5Cmake.5Coutput.5Cobjects.5CRte_NvM_Type.43::
                         501 .LDWlin43:
000001be 0832            502 	mov	8,r6
000001c0 013a            503 	mov	1,r7
                         504 	jarl	_NvM_SetRamBlockStatus,lp
                         504 <EXPANSION BEGIN>
                         504 jarl22 _NvM_SetRamBlockStatus , lp 
000001c2 80ff0000*       504 <EXPANSION END>
                         505 --line223
                         506 ..lin.C.3A.5C_ECU2.5CECU_Rivian_A1.5CTarget.5Crepo_projects.5CpRealEcu.5CcL_LATEST.5Cmake.5Coutput.5Cobjects.5CRte_NvM_Type.44::
                         507 .LDWlin44:
000001c6 0192            508 	mov	1,r18
000001c8 5d970600        509 	st.b	r18,6[r29]
000001cc 40067f00        510 	dispose	0,{r29,r31},[lp]
                         511 .L483:
                         512 --line225
                         513 ..lin.C.3A.5C_ECU2.5CECU_Rivian_A1.5CTarget.5Crepo_projects.5CpRealEcu.5CcL_LATEST.5Cmake.5Coutput.5Cobjects.5CRte_NvM_Type.45::
                         514 .LDWlin45:
000001d0 6888            515 	sld.bu	8[ep],r17
000001d2 f131            516 	cmp	r17,r6
000001d4 a90d*           517 	bnl	.L486

                                                                      Page 10
                                                              C:\Users\nhuliyap\AppData\Local\Temp\gh_00008cs1.s
                         518 --line227
                         519 ..lin.C.3A.5C_ECU2.5CECU_Rivian_A1.5CTarget.5Crepo_projects.5CpRealEcu.5CcL_LATEST.5Cmake.5Coutput.5Cobjects.5CRte_NvM_Type.46::
                         520 .LDWlin46:
000001d6 0932            521 	mov	9,r6
000001d8 013a            522 	mov	1,r7
                         523 	jarl	_NvM_SetRamBlockStatus,lp
                         523 <EXPANSION BEGIN>
                         523 jarl22 _NvM_SetRamBlockStatus , lp 
000001da 80ff0000*       523 <EXPANSION END>
                         524 --line228
                         525 ..lin.C.3A.5C_ECU2.5CECU_Rivian_A1.5CTarget.5Crepo_projects.5CpRealEcu.5CcL_LATEST.5Cmake.5Coutput.5Cobjects.5CRte_NvM_Type.47::
                         526 .LDWlin47:
000001de 0182            527 	mov	1,r16
000001e0 5d870700        528 	st.b	r16,7[r29]
000001e4 40067f00        529 	dispose	0,{r29,r31},[lp]
                         530 .L486:
                         531 --line230
                         532 ..lin.C.3A.5C_ECU2.5CECU_Rivian_A1.5CTarget.5Crepo_projects.5CpRealEcu.5CcL_LATEST.5Cmake.5Coutput.5Cobjects.5CRte_NvM_Type.48::
                         533 .LDWlin48:
000001e8 6978            534 	sld.bu	9[ep],r15
000001ea ef31            535 	cmp	r15,r6
000001ec a90d*           536 	bnl	.L489
                         537 --line232
                         538 ..lin.C.3A.5C_ECU2.5CECU_Rivian_A1.5CTarget.5Crepo_projects.5CpRealEcu.5CcL_LATEST.5Cmake.5Coutput.5Cobjects.5CRte_NvM_Type.49::
                         539 .LDWlin49:
000001ee 0a32            540 	mov	10,r6
000001f0 013a            541 	mov	1,r7
                         542 	jarl	_NvM_SetRamBlockStatus,lp
                         542 <EXPANSION BEGIN>
                         542 jarl22 _NvM_SetRamBlockStatus , lp 
000001f2 80ff0000*       542 <EXPANSION END>
                         543 --line233
                         544 ..lin.C.3A.5C_ECU2.5CECU_Rivian_A1.5CTarget.5Crepo_projects.5CpRealEcu.5CcL_LATEST.5Cmake.5Coutput.5Cobjects.5CRte_NvM_Type.50::
                         545 .LDWlin50:
000001f6 0172            546 	mov	1,r14
000001f8 5d770800        547 	st.b	r14,8[r29]
000001fc 40067f00        548 	dispose	0,{r29,r31},[lp]
                         549 .L489:
                         550 --line235
                         551 ..lin.C.3A.5C_ECU2.5CECU_Rivian_A1.5CTarget.5Crepo_projects.5CpRealEcu.5CcL_LATEST.5Cmake.5Coutput.5Cobjects.5CRte_NvM_Type.51::
                         552 .LDWlin51:
00000200 6a68            553 	sld.bu	10[ep],r13
00000202 ed31            554 	cmp	r13,r6
00000204 890d*           555 	bnl	.L463
                         556 --line237
                         557 ..lin.C.3A.5C_ECU2.5CECU_Rivian_A1.5CTarget.5Crepo_projects.5CpRealEcu.5CcL_LATEST.5Cmake.5Coutput.5Cobjects.5CRte_NvM_Type.52::
                         558 .LDWlin52:
00000206 0b32            559 	mov	11,r6
00000208 013a            560 	mov	1,r7
                         561 	jarl	_NvM_SetRamBlockStatus,lp
                         561 <EXPANSION BEGIN>
                         561 jarl22 _NvM_SetRamBlockStatus , lp 
0000020a 80ff0000*       561 <EXPANSION END>
                         562 --line238
                         563 ..lin.C.3A.5C_ECU2.5CECU_Rivian_A1.5CTarget.5Crepo_projects.5CpRealEcu.5CcL_LATEST.5Cmake.5Coutput.5Cobjects.5CRte_NvM_Type.53::
                         564 .LDWlin53:
0000020e 0162            565 	mov	1,r12
00000210 5d670900        566 	st.b	r12,9[r29]
                         567 .L463:
                         568 --	    .ef
                         569 .LDW51:

                                                                      Page 11
                                                              C:\Users\nhuliyap\AppData\Local\Temp\gh_00008cs1.s
00000214 40067f00        570 	dispose	0,{r29,r31},[lp]
                         571 	.global	___ghs_eofn_Memstack_SetEcuNvMRamBlockStatus
                         572 ___ghs_eofn_Memstack_SetEcuNvMRamBlockStatus:
                         573 	.type	_Memstack_SetEcuNvMRamBlockStatus,@function
                         574 	.size	_Memstack_SetEcuNvMRamBlockStatus,.-_Memstack_SetEcuNvMRamBlockStatus
                         575 	.align	2
                         576 
                         577 --_ushBlockNr	r6	param
                         578 
                         579 	.data
                         580 	.text
                         581 	.align	2
                         582 	.align	2
                         583 ..gh.f.f.1.e.3:
                         584 	.type	..gh.f.f.1.e.3,@object
                         585 	.size	..gh.f.f.1.e.3,0
                         586 	.global	_infSwcServiceNvMSwcApplEcuM_InitFunction
                         587 _infSwcServiceNvMSwcApplEcuM_InitFunction:
00000218 82072100        588 	prepare	{r31},1
                         589 --	    .bf
                         590 .LDW61:
0000021c 260600000000*   591 	mov	_Fls_GstConfiguration,r6
                         592 	jarl	_Fls_Init,lp
                         592 <EXPANSION BEGIN>
                         592 jarl22 _Fls_Init , lp 
00000222 80ff0000*       592 <EXPANSION END>
                         593 --line250
                         594 ..lin.C.3A.5C_ECU2.5CECU_Rivian_A1.5CTarget.5Crepo_projects.5CpRealEcu.5CcL_LATEST.5Cmake.5Coutput.5Cobjects.5CRte_NvM_Type.54::
                         595 .LDWlin54:
                         596 	jarl	_Fee_30_SmallSector_Init,lp
                         596 <EXPANSION BEGIN>
                         596 jarl22 _Fee_30_SmallSector_Init , lp 
00000226 80ff0000*       596 <EXPANSION END>
                         597 --line251
                         598 ..lin.C.3A.5C_ECU2.5CECU_Rivian_A1.5CTarget.5Crepo_projects.5CpRealEcu.5CcL_LATEST.5Cmake.5Coutput.5Cobjects.5CRte_NvM_Type.55::
                         599 .LDWlin55:
                         600 	jarl	_NvM_Init,lp
                         600 <EXPANSION BEGIN>
                         600 jarl22 _NvM_Init , lp 
0000022a 80ff0000*       600 <EXPANSION END>
                         601 --line252
                         602 ..lin.C.3A.5C_ECU2.5CECU_Rivian_A1.5CTarget.5Crepo_projects.5CpRealEcu.5CcL_LATEST.5Cmake.5Coutput.5Cobjects.5CRte_NvM_Type.56::
                         603 .LDWlin56:
                         604 	jarl	_NvM_ReadAll,lp
                         604 <EXPANSION BEGIN>
                         604 jarl22 _NvM_ReadAll , lp 
0000022e 80ff0000*       604 <EXPANSION END>
                         605 .L806:
                         606 --line256
                         607 ..lin.C.3A.5C_ECU2.5CECU_Rivian_A1.5CTarget.5Crepo_projects.5CpRealEcu.5CcL_LATEST.5Cmake.5Coutput.5Cobjects.5CRte_NvM_Type.57::
                         608 .LDWlin57:
                         609 	jarl	_NvM_MainFunction,lp
                         609 <EXPANSION BEGIN>
                         609 jarl22 _NvM_MainFunction , lp 
00000232 80ff0000*       609 <EXPANSION END>
                         610 --line257
                         611 ..lin.C.3A.5C_ECU2.5CECU_Rivian_A1.5CTarget.5Crepo_projects.5CpRealEcu.5CcL_LATEST.5Cmake.5Coutput.5Cobjects.5CRte_NvM_Type.58::
                         612 .LDWlin58:
                         613 	jarl	_Fee_30_SmallSector_MainFunction,lp
                         613 <EXPANSION BEGIN>
                         613 jarl22 _Fee_30_SmallSector_MainFunction , lp 

                                                                      Page 12
                                                              C:\Users\nhuliyap\AppData\Local\Temp\gh_00008cs1.s
00000236 80ff0000*       613 <EXPANSION END>
                         614 --line258
                         615 ..lin.C.3A.5C_ECU2.5CECU_Rivian_A1.5CTarget.5Crepo_projects.5CpRealEcu.5CcL_LATEST.5Cmake.5Coutput.5Cobjects.5CRte_NvM_Type.59::
                         616 .LDWlin59:
                         617 	jarl	_Fls_MainFunction,lp
                         617 <EXPANSION BEGIN>
                         617 jarl22 _Fls_MainFunction , lp 
0000023a 80ff0000*       617 <EXPANSION END>
                         618 --line259
                         619 ..lin.C.3A.5C_ECU2.5CECU_Rivian_A1.5CTarget.5Crepo_projects.5CpRealEcu.5CcL_LATEST.5Cmake.5Coutput.5Cobjects.5CRte_NvM_Type.60::
                         620 .LDWlin60:
0000023e 0032            621 	mov	0,r6
00000240 233e0300        622 	movea	3,sp,r7
                         623 	jarl	_NvM_GetErrorStatus,lp
                         623 <EXPANSION BEGIN>
                         623 jarl22 _NvM_GetErrorStatus , lp 
00000244 80ff0000*       623 <EXPANSION END>
                         624 --line261
                         625 ..lin.C.3A.5C_ECU2.5CECU_Rivian_A1.5CTarget.5Crepo_projects.5CpRealEcu.5CcL_LATEST.5Cmake.5Coutput.5Cobjects.5CRte_NvM_Type.61::
                         626 .LDWlin61:
00000248 a3970300        627 	ld.bu	3[sp],r18
0000024c 6292            628 	cmp	2,r18
0000024e a2f5*           629 	be	.L806
                         630 --line262
                         631 ..lin.C.3A.5C_ECU2.5CECU_Rivian_A1.5CTarget.5Crepo_projects.5CpRealEcu.5CcL_LATEST.5Cmake.5Coutput.5Cobjects.5CRte_NvM_Type.62::
                         632 .LDWlin62:
00000250 270600000000*   633 	mov	_Ram_NvMBlock_BSW_Data,r7
00000256 0c32            634 	mov	12,r6
                         635 	jarl	_NvM_WriteBlock,lp
                         635 <EXPANSION BEGIN>
                         635 jarl22 _NvM_WriteBlock , lp 
00000258 80ff0000*       635 <EXPANSION END>
                         636 --	    .ef
                         637 .LDW71:
                         638 --line263
                         639 ..lin.C.3A.5C_ECU2.5CECU_Rivian_A1.5CTarget.5Crepo_projects.5CpRealEcu.5CcL_LATEST.5Cmake.5Coutput.5Cobjects.5CRte_NvM_Type.63::
                         640 .LDWlin63:
0000025c 42063f00        641 	dispose	1,{r31},[lp]
                         642 	.global	___ghs_eofn_infSwcServiceNvMSwcApplEcuM_InitFunction
                         643 ___ghs_eofn_infSwcServiceNvMSwcApplEcuM_InitFunction:
                         644 	.type	_infSwcServiceNvMSwcApplEcuM_InitFunction,@function
                         645 	.size	_infSwcServiceNvMSwcApplEcuM_InitFunction,.-_infSwcServiceNvMSwcApplEcuM_InitFunction
                         646 	.align	2
                         647 --_Int_NvMultiBlockStatus	3[sp]	local
                         648 
                         649 	.section ".bss","awb"
                         650 .L843:
                         651 	.type	.L843,@object
                         652 	.size	.L843,0
                         653 	.data
                         654 	.text
                         655 	.align	2
                         656 	.align	2
                         657 ..gh.f.f.1.e.4:
                         658 	.type	..gh.f.f.1.e.4,@object
                         659 	.size	..gh.f.f.1.e.4,0
                         660 	.global	_Memstack_Main
                         661 _Memstack_Main:
00000260 80072100        662 	prepare	{r31},0
                         663 --	    .bf
                         664 .LDW81:

                                                                      Page 13
                                                              C:\Users\nhuliyap\AppData\Local\Temp\gh_00008cs1.s
                         665 	jarl	_NvM_MainFunction,lp
                         665 <EXPANSION BEGIN>
                         665 jarl22 _NvM_MainFunction , lp 
00000264 80ff0000*       665 <EXPANSION END>
                         666 --line267
                         667 ..lin.C.3A.5C_ECU2.5CECU_Rivian_A1.5CTarget.5Crepo_projects.5CpRealEcu.5CcL_LATEST.5Cmake.5Coutput.5Cobjects.5CRte_NvM_Type.64::
                         668 .LDWlin64:
                         669 	jarl	_Fee_30_SmallSector_MainFunction,lp
                         669 <EXPANSION BEGIN>
                         669 jarl22 _Fee_30_SmallSector_MainFunction , lp 
00000268 80ff0000*       669 <EXPANSION END>
                         670 --line268
                         671 ..lin.C.3A.5C_ECU2.5CECU_Rivian_A1.5CTarget.5Crepo_projects.5CpRealEcu.5CcL_LATEST.5Cmake.5Coutput.5Cobjects.5CRte_NvM_Type.65::
                         672 .LDWlin65:
                         673 	jarl	_Fls_MainFunction,lp
                         673 <EXPANSION BEGIN>
                         673 jarl22 _Fls_MainFunction , lp 
0000026c 80ff0000*       673 <EXPANSION END>
                         674 --	    .ef
                         675 .LDW91:
                         676 --line269
                         677 ..lin.C.3A.5C_ECU2.5CECU_Rivian_A1.5CTarget.5Crepo_projects.5CpRealEcu.5CcL_LATEST.5Cmake.5Coutput.5Cobjects.5CRte_NvM_Type.66::
                         678 .LDWlin66:
00000270 40063f00        679 	dispose	0,{r31},[lp]
                         680 	.global	___ghs_eofn_Memstack_Main
                         681 ___ghs_eofn_Memstack_Main:
                         682 	.type	_Memstack_Main,@function
                         683 	.size	_Memstack_Main,.-_Memstack_Main
                         684 	.align	2
                         685 
                         686 	.section ".bss","awb"
                         687 .L897:
                         688 	.type	.L897,@object
                         689 	.size	.L897,0
                         690 	.data
                         691 	.text
                         692 	.align	2
                         693 	.align	2
                         694 ..gh.f.f.1.e.5:
                         695 	.type	..gh.f.f.1.e.5,@object
                         696 	.size	..gh.f.f.1.e.5,0
                         697 	.global	_Memstack_WriteAllBlocks
                         698 _Memstack_WriteAllBlocks:
00000274 82072100        699 	prepare	{r31},1
                         700 --	    .bf
                         701 .LDW02:
                         702 	jarl	_NvM_WriteAll,lp
                         702 <EXPANSION BEGIN>
                         702 jarl22 _NvM_WriteAll , lp 
00000278 80ff0000*       702 <EXPANSION END>
                         703 .L919:
                         704 --line279
                         705 ..lin.C.3A.5C_ECU2.5CECU_Rivian_A1.5CTarget.5Crepo_projects.5CpRealEcu.5CcL_LATEST.5Cmake.5Coutput.5Cobjects.5CRte_NvM_Type.67::
                         706 .LDWlin67:
                         707 	jarl	_NvM_MainFunction,lp
                         707 <EXPANSION BEGIN>
                         707 jarl22 _NvM_MainFunction , lp 
0000027c 80ff0000*       707 <EXPANSION END>
                         708 --line280
                         709 ..lin.C.3A.5C_ECU2.5CECU_Rivian_A1.5CTarget.5Crepo_projects.5CpRealEcu.5CcL_LATEST.5Cmake.5Coutput.5Cobjects.5CRte_NvM_Type.68::
                         710 .LDWlin68:

                                                                      Page 14
                                                              C:\Users\nhuliyap\AppData\Local\Temp\gh_00008cs1.s
                         711 	jarl	_Fee_30_SmallSector_MainFunction,lp
                         711 <EXPANSION BEGIN>
                         711 jarl22 _Fee_30_SmallSector_MainFunction , lp 
00000280 80ff0000*       711 <EXPANSION END>
                         712 --line281
                         713 ..lin.C.3A.5C_ECU2.5CECU_Rivian_A1.5CTarget.5Crepo_projects.5CpRealEcu.5CcL_LATEST.5Cmake.5Coutput.5Cobjects.5CRte_NvM_Type.69::
                         714 .LDWlin69:
                         715 	jarl	_Fls_MainFunction,lp
                         715 <EXPANSION BEGIN>
                         715 jarl22 _Fls_MainFunction , lp 
00000284 80ff0000*       715 <EXPANSION END>
                         716 --line282
                         717 ..lin.C.3A.5C_ECU2.5CECU_Rivian_A1.5CTarget.5Crepo_projects.5CpRealEcu.5CcL_LATEST.5Cmake.5Coutput.5Cobjects.5CRte_NvM_Type.70::
                         718 .LDWlin70:
00000288 0032            719 	mov	0,r6
0000028a 233e0300        720 	movea	3,sp,r7
                         721 	jarl	_NvM_GetErrorStatus,lp
                         721 <EXPANSION BEGIN>
                         721 jarl22 _NvM_GetErrorStatus , lp 
0000028e 80ff0000*       721 <EXPANSION END>
                         722 --line284
                         723 ..lin.C.3A.5C_ECU2.5CECU_Rivian_A1.5CTarget.5Crepo_projects.5CpRealEcu.5CcL_LATEST.5Cmake.5Coutput.5Cobjects.5CRte_NvM_Type.71::
                         724 .LDWlin71:
00000292 a3970300        725 	ld.bu	3[sp],r18
00000296 6292            726 	cmp	2,r18
00000298 a2f5*           727 	be	.L919
                         728 --	    .ef
                         729 .LDW12:
                         730 --line318
                         731 ..lin.C.3A.5C_ECU2.5CECU_Rivian_A1.5CTarget.5Crepo_projects.5CpRealEcu.5CcL_LATEST.5Cmake.5Coutput.5Cobjects.5CRte_NvM_Type.72::
                         732 .LDWlin72:
0000029a 42063f00        733 	dispose	1,{r31},[lp]
                         734 	.global	___ghs_eofn_Memstack_WriteAllBlocks
                         735 ___ghs_eofn_Memstack_WriteAllBlocks:
                         736 	.type	_Memstack_WriteAllBlocks,@function
                         737 	.size	_Memstack_WriteAllBlocks,.-_Memstack_WriteAllBlocks
                         738 	.align	2
                         739 --_Int_NvMultiBlockStatus	3[sp]	local
                         740 
                         741 	.section ".bss","awb"
                         742 .L950:
                         743 	.type	.L950,@object
                         744 	.size	.L950,0
                         745 	.data
                         746 	.text
                         747 	.align	2
                         748 	.align	2
                         749 ..gh.f.f.1.e.6:
                         750 	.type	..gh.f.f.1.e.6,@object
                         751 	.size	..gh.f.f.1.e.6,0
                         752 	.global	_Memstack_WriteCategoryOnEvent
                         753 _Memstack_WriteCategoryOnEvent:
0000029e 80076100        754 	prepare	{r29,r31},0
000002a2 320600000000*   755 	mov	_ucCatSaveOnEvent,r18
                         756 --	    .bf
                         757 .LDW22:
                         758 --line323
                         759 ..lin.C.3A.5C_ECU2.5CECU_Rivian_A1.5CTarget.5Crepo_projects.5CpRealEcu.5CcL_LATEST.5Cmake.5Coutput.5Cobjects.5CRte_NvM_Type.73::
                         760 .LDWlin73:
000002a8 008a            761 	mov	0,r17
                         762 .L987:

                                                                      Page 15
                                                              C:\Users\nhuliyap\AppData\Local\Temp\gh_00008cs1.s
000002aa 11f0            763 	mov	r17,ep
000002ac d2f1            764 	add	r18,ep
000002ae 6078            765 	sld.bu	0[ep],r15
000002b0 617a            766 	cmp	1,r15
000002b2 ea15*           767 	bne	.L988
                         768 --line327
                         769 ..lin.C.3A.5C_ECU2.5CECU_Rivian_A1.5CTarget.5Crepo_projects.5CpRealEcu.5CcL_LATEST.5Cmake.5Coutput.5Cobjects.5CRte_NvM_Type.74::
                         770 .LDWlin74:
000002b4 6c68            771 	sld.bu	12[ep],r13
000002b6 1eee0c00        772 	addi	12,ep,r29
000002ba 616a            773 	cmp	1,r13
000002bc 9a15*           774 	bne	.L988
                         775 --line329
                         776 ..lin.C.3A.5C_ECU2.5CECU_Rivian_A1.5CTarget.5Crepo_projects.5CpRealEcu.5CcL_LATEST.5Cmake.5Coutput.5Cobjects.5CRte_NvM_Type.75::
                         777 .LDWlin75:
000002be 11f0            778 	mov	r17,ep
000002c0 c2f2            779 	shl	2,ep
000002c2 330600000000*   780 	mov	_pCategoryRamBlock,r19
000002c8 d3f1            781 	add	r19,ep
000002ca 003d            782 	sld.w	0[ep],r7
000002cc 11360200        783 	addi	2,r17,r6
000002d0 c600            784 	zxh	r6
                         785 	jarl	_NvM_WriteBlock,lp
                         785 <EXPANSION BEGIN>
                         785 jarl22 _NvM_WriteBlock , lp 
000002d2 80ff0000*       785 <EXPANSION END>
                         786 --line330
                         787 ..lin.C.3A.5C_ECU2.5CECU_Rivian_A1.5CTarget.5Crepo_projects.5CpRealEcu.5CcL_LATEST.5Cmake.5Coutput.5Cobjects.5CRte_NvM_Type.76::
                         788 .LDWlin76:
000002d6 5d070000        789 	st.b	zero,0[r29]
000002da 40067f00        790 	dispose	0,{r29,r31},[lp]
                         791 .L988:
                         792 --line323
                         793 ..lin.C.3A.5C_ECU2.5CECU_Rivian_A1.5CTarget.5Crepo_projects.5CpRealEcu.5CcL_LATEST.5Cmake.5Coutput.5Cobjects.5CRte_NvM_Type.77::
                         794 .LDWlin77:
000002de 418a            795 	add	1,r17
000002e0 6a8a            796 	cmp	10,r17
000002e2 c1e5*           797 	bl	.L987
                         798 --	    .ef
                         799 .LDW32:
                         800 --line335
                         801 ..lin.C.3A.5C_ECU2.5CECU_Rivian_A1.5CTarget.5Crepo_projects.5CpRealEcu.5CcL_LATEST.5Cmake.5Coutput.5Cobjects.5CRte_NvM_Type.78::
                         802 .LDWlin78:
000002e4 40067f00        803 	dispose	0,{r29,r31},[lp]
                         804 	.global	___ghs_eofn_Memstack_WriteCategoryOnEvent
                         805 ___ghs_eofn_Memstack_WriteCategoryOnEvent:
                         806 	.type	_Memstack_WriteCategoryOnEvent,@function
                         807 	.size	_Memstack_WriteCategoryOnEvent,.-_Memstack_WriteCategoryOnEvent
                         808 	.align	2
                         809 --_i	r17	local
                         810 
                         811 	.data
                         812 	.text
                         813 	.align	2
                         814 	.align	2
                         815 ..gh.f.f.1.e.7:
                         816 	.type	..gh.f.f.1.e.7,@object
                         817 	.size	..gh.f.f.1.e.7,0
                         818 	.global	_Memstack_DeleteDemBlocks
                         819 _Memstack_DeleteDemBlocks:
                         820 --	    .bf

                                                                      Page 16
                                                              C:\Users\nhuliyap\AppData\Local\Temp\gh_00008cs1.s
                         821 .LDW42:
                         822 --	    .ef
                         823 .LDW52:
000002e8 7f00            824 	jmp	[lp]
                         825 	.global	___ghs_eofn_Memstack_DeleteDemBlocks
                         826 ___ghs_eofn_Memstack_DeleteDemBlocks:
                         827 	.type	_Memstack_DeleteDemBlocks,@function
                         828 	.size	_Memstack_DeleteDemBlocks,.-_Memstack_DeleteDemBlocks
                         829 	.align	2
                         830 
                         831 	.section ".bss","awb"
                         832 .L1136:
                         833 	.type	.L1136,@object
                         834 	.size	.L1136,0
                         835 	.data
                         836 	.text
                         837 	.align	2
                         838 	.align	2
                         839 ..gh.f.f.1.e.8:
                         840 	.type	..gh.f.f.1.e.8,@object
                         841 	.size	..gh.f.f.1.e.8,0
                         842 	.global	_Memstack_Appl_JobEndCallback_CAT01
                         843 _Memstack_Appl_JobEndCallback_CAT01:
000002ea 82072100        844 	prepare	{r31},1
                         845 --	    .bf
                         846 .LDW62:
000002ee 0232            847 	mov	2,r6
000002f0 233e0300        848 	movea	3,sp,r7
                         849 	jarl	_NvM_GetErrorStatus,lp
                         849 <EXPANSION BEGIN>
                         849 jarl22 _NvM_GetErrorStatus , lp 
000002f4 80ff0000*       849 <EXPANSION END>
                         850 --line354
                         851 ..lin.C.3A.5C_ECU2.5CECU_Rivian_A1.5CTarget.5Crepo_projects.5CpRealEcu.5CcL_LATEST.5Cmake.5Coutput.5Cobjects.5CRte_NvM_Type.79::
                         852 .LDWlin79:
000002f8 a38f0300        853 	ld.bu	3[sp],r17
000002fc 638a            854 	cmp	3,r17
000002fe d205*           855 	be	.L1151
00000300 40960000*       856 	movhi	hi(_ulCurrentNvmConsistence),zero,r18
                         857 --line356
                         858 ..lin.C.3A.5C_ECU2.5CECU_Rivian_A1.5CTarget.5Crepo_projects.5CpRealEcu.5CcL_LATEST.5Cmake.5Coutput.5Cobjects.5CRte_NvM_Type.80::
                         859 .LDWlin80:
00000304 d2070000*       860 	set1	0,lo(_ulCurrentNvmConsistence)[r18]
                         861 .L1151:
                         862 --	    .ef
                         863 .LDW72:
00000308 42063f00        864 	dispose	1,{r31},[lp]
                         865 	.global	___ghs_eofn_Memstack_Appl_JobEndCallback_CAT01
                         866 ___ghs_eofn_Memstack_Appl_JobEndCallback_CAT01:
                         867 	.type	_Memstack_Appl_JobEndCallback_CAT01,@function
                         868 	.size	_Memstack_Appl_JobEndCallback_CAT01,.-_Memstack_Appl_JobEndCallback_CAT01
                         869 	.align	2
                         870 --_ucRequestResult	3[sp]	local
                         871 
                         872 	.data
                         873 	.text
                         874 	.align	2
                         875 	.align	2
                         876 ..gh.f.f.1.e.9:
                         877 	.type	..gh.f.f.1.e.9,@object
                         878 	.size	..gh.f.f.1.e.9,0

                                                                      Page 17
                                                              C:\Users\nhuliyap\AppData\Local\Temp\gh_00008cs1.s
                         879 	.global	_Memstack_Appl_JobEndCallback_CAT02
                         880 _Memstack_Appl_JobEndCallback_CAT02:
0000030c 82076100        881 	prepare	{r29,r31},1
00000310 3d0600000000*   882 	mov	_ulCurrentNvmConsistence,r29
                         883 --	    .bf
                         884 .LDW82:
                         885 --line363
                         886 ..lin.C.3A.5C_ECU2.5CECU_Rivian_A1.5CTarget.5Crepo_projects.5CpRealEcu.5CcL_LATEST.5Cmake.5Coutput.5Cobjects.5CRte_NvM_Type.81::
                         887 .LDWlin81:
00000316 0332            888 	mov	3,r6
00000318 233e0300        889 	movea	3,sp,r7
                         890 	jarl	_NvM_GetErrorStatus,lp
                         890 <EXPANSION BEGIN>
                         890 jarl22 _NvM_GetErrorStatus , lp 
0000031c 80ff0000*       890 <EXPANSION END>
                         891 --line365
                         892 ..lin.C.3A.5C_ECU2.5CECU_Rivian_A1.5CTarget.5Crepo_projects.5CpRealEcu.5CcL_LATEST.5Cmake.5Coutput.5Cobjects.5CRte_NvM_Type.82::
                         893 .LDWlin82:
00000320 a3970300        894 	ld.bu	3[sp],r18
00000324 6392            895 	cmp	3,r18
00000326 b205*           896 	be	.L1223
                         897 --line367
                         898 ..lin.C.3A.5C_ECU2.5CECU_Rivian_A1.5CTarget.5Crepo_projects.5CpRealEcu.5CcL_LATEST.5Cmake.5Coutput.5Cobjects.5CRte_NvM_Type.83::
                         899 .LDWlin83:
00000328 dd0f0000        900 	set1	1,0[r29]
                         901 .L1223:
                         902 --	    .ef
                         903 .LDW92:
0000032c 42067f00        904 	dispose	1,{r29,r31},[lp]
                         905 	.global	___ghs_eofn_Memstack_Appl_JobEndCallback_CAT02
                         906 ___ghs_eofn_Memstack_Appl_JobEndCallback_CAT02:
                         907 	.type	_Memstack_Appl_JobEndCallback_CAT02,@function
                         908 	.size	_Memstack_Appl_JobEndCallback_CAT02,.-_Memstack_Appl_JobEndCallback_CAT02
                         909 	.align	2
                         910 --_ucRequestResult	3[sp]	local
                         911 
                         912 	.data
                         913 	.text
                         914 	.align	2
                         915 	.align	2
                         916 ..gh.f.f.1.e.10:
                         917 	.type	..gh.f.f.1.e.10,@object
                         918 	.size	..gh.f.f.1.e.10,0
                         919 	.global	_Memstack_Appl_JobEndCallback_CAT03
                         920 _Memstack_Appl_JobEndCallback_CAT03:
00000330 82076100        921 	prepare	{r29,r31},1
00000334 3d0600000000*   922 	mov	_ulCurrentNvmConsistence,r29
                         923 --	    .bf
                         924 .LDW03:
                         925 --line374
                         926 ..lin.C.3A.5C_ECU2.5CECU_Rivian_A1.5CTarget.5Crepo_projects.5CpRealEcu.5CcL_LATEST.5Cmake.5Coutput.5Cobjects.5CRte_NvM_Type.84::
                         927 .LDWlin84:
0000033a 0432            928 	mov	4,r6
0000033c 233e0300        929 	movea	3,sp,r7
                         930 	jarl	_NvM_GetErrorStatus,lp
                         930 <EXPANSION BEGIN>
                         930 jarl22 _NvM_GetErrorStatus , lp 
00000340 80ff0000*       930 <EXPANSION END>
                         931 --line376
                         932 ..lin.C.3A.5C_ECU2.5CECU_Rivian_A1.5CTarget.5Crepo_projects.5CpRealEcu.5CcL_LATEST.5Cmake.5Coutput.5Cobjects.5CRte_NvM_Type.85::
                         933 .LDWlin85:

                                                                      Page 18
                                                              C:\Users\nhuliyap\AppData\Local\Temp\gh_00008cs1.s
00000344 a3970300        934 	ld.bu	3[sp],r18
00000348 6392            935 	cmp	3,r18
0000034a b205*           936 	be	.L1286
                         937 --line378
                         938 ..lin.C.3A.5C_ECU2.5CECU_Rivian_A1.5CTarget.5Crepo_projects.5CpRealEcu.5CcL_LATEST.5Cmake.5Coutput.5Cobjects.5CRte_NvM_Type.86::
                         939 .LDWlin86:
0000034c dd170000        940 	set1	2,0[r29]
                         941 .L1286:
                         942 --	    .ef
                         943 .LDW13:
00000350 42067f00        944 	dispose	1,{r29,r31},[lp]
                         945 	.global	___ghs_eofn_Memstack_Appl_JobEndCallback_CAT03
                         946 ___ghs_eofn_Memstack_Appl_JobEndCallback_CAT03:
                         947 	.type	_Memstack_Appl_JobEndCallback_CAT03,@function
                         948 	.size	_Memstack_Appl_JobEndCallback_CAT03,.-_Memstack_Appl_JobEndCallback_CAT03
                         949 	.align	2
                         950 --_ucRequestResult	3[sp]	local
                         951 
                         952 	.data
                         953 	.text
                         954 	.align	2
                         955 	.align	2
                         956 ..gh.f.f.1.e.11:
                         957 	.type	..gh.f.f.1.e.11,@object
                         958 	.size	..gh.f.f.1.e.11,0
                         959 	.global	_Memstack_Appl_JobEndCallback_CAT04
                         960 _Memstack_Appl_JobEndCallback_CAT04:
00000354 82076100        961 	prepare	{r29,r31},1
00000358 3d0600000000*   962 	mov	_ulCurrentNvmConsistence,r29
                         963 --	    .bf
                         964 .LDW23:
                         965 --line385
                         966 ..lin.C.3A.5C_ECU2.5CECU_Rivian_A1.5CTarget.5Crepo_projects.5CpRealEcu.5CcL_LATEST.5Cmake.5Coutput.5Cobjects.5CRte_NvM_Type.87::
                         967 .LDWlin87:
0000035e 0532            968 	mov	5,r6
00000360 233e0300        969 	movea	3,sp,r7
                         970 	jarl	_NvM_GetErrorStatus,lp
                         970 <EXPANSION BEGIN>
                         970 jarl22 _NvM_GetErrorStatus , lp 
00000364 80ff0000*       970 <EXPANSION END>
                         971 --line387
                         972 ..lin.C.3A.5C_ECU2.5CECU_Rivian_A1.5CTarget.5Crepo_projects.5CpRealEcu.5CcL_LATEST.5Cmake.5Coutput.5Cobjects.5CRte_NvM_Type.88::
                         973 .LDWlin88:
00000368 a3970300        974 	ld.bu	3[sp],r18
0000036c 6392            975 	cmp	3,r18
0000036e b205*           976 	be	.L1350
                         977 --line389
                         978 ..lin.C.3A.5C_ECU2.5CECU_Rivian_A1.5CTarget.5Crepo_projects.5CpRealEcu.5CcL_LATEST.5Cmake.5Coutput.5Cobjects.5CRte_NvM_Type.89::
                         979 .LDWlin89:
00000370 dd1f0000        980 	set1	3,0[r29]
                         981 .L1350:
                         982 --	    .ef
                         983 .LDW33:
00000374 42067f00        984 	dispose	1,{r29,r31},[lp]
                         985 	.global	___ghs_eofn_Memstack_Appl_JobEndCallback_CAT04
                         986 ___ghs_eofn_Memstack_Appl_JobEndCallback_CAT04:
                         987 	.type	_Memstack_Appl_JobEndCallback_CAT04,@function
                         988 	.size	_Memstack_Appl_JobEndCallback_CAT04,.-_Memstack_Appl_JobEndCallback_CAT04
                         989 	.align	2
                         990 --_ucRequestResult	3[sp]	local
                         991 

                                                                      Page 19
                                                              C:\Users\nhuliyap\AppData\Local\Temp\gh_00008cs1.s
                         992 	.data
                         993 	.text
                         994 	.align	2
                         995 	.align	2
                         996 ..gh.f.f.1.e.12:
                         997 	.type	..gh.f.f.1.e.12,@object
                         998 	.size	..gh.f.f.1.e.12,0
                         999 	.global	_Memstack_Appl_JobEndCallback_CAT05
                        1000 _Memstack_Appl_JobEndCallback_CAT05:
00000378 82076100       1001 	prepare	{r29,r31},1
0000037c 3d0600000000*  1002 	mov	_ulCurrentNvmConsistence,r29
                        1003 --	    .bf
                        1004 .LDW43:
                        1005 --line396
                        1006 ..lin.C.3A.5C_ECU2.5CECU_Rivian_A1.5CTarget.5Crepo_projects.5CpRealEcu.5CcL_LATEST.5Cmake.5Coutput.5Cobjects.5CRte_NvM_Type.90::
                        1007 .LDWlin90:
00000382 0632           1008 	mov	6,r6
00000384 233e0300       1009 	movea	3,sp,r7
                        1010 	jarl	_NvM_GetErrorStatus,lp
                        1010 <EXPANSION BEGIN>
                        1010 jarl22 _NvM_GetErrorStatus , lp 
00000388 80ff0000*      1010 <EXPANSION END>
                        1011 --line398
                        1012 ..lin.C.3A.5C_ECU2.5CECU_Rivian_A1.5CTarget.5Crepo_projects.5CpRealEcu.5CcL_LATEST.5Cmake.5Coutput.5Cobjects.5CRte_NvM_Type.91::
                        1013 .LDWlin91:
0000038c a3970300       1014 	ld.bu	3[sp],r18
00000390 6392           1015 	cmp	3,r18
00000392 b205*          1016 	be	.L1414
                        1017 --line400
                        1018 ..lin.C.3A.5C_ECU2.5CECU_Rivian_A1.5CTarget.5Crepo_projects.5CpRealEcu.5CcL_LATEST.5Cmake.5Coutput.5Cobjects.5CRte_NvM_Type.92::
                        1019 .LDWlin92:
00000394 dd270000       1020 	set1	4,0[r29]
                        1021 .L1414:
                        1022 --	    .ef
                        1023 .LDW53:
00000398 42067f00       1024 	dispose	1,{r29,r31},[lp]
                        1025 	.global	___ghs_eofn_Memstack_Appl_JobEndCallback_CAT05
                        1026 ___ghs_eofn_Memstack_Appl_JobEndCallback_CAT05:
                        1027 	.type	_Memstack_Appl_JobEndCallback_CAT05,@function
                        1028 	.size	_Memstack_Appl_JobEndCallback_CAT05,.-_Memstack_Appl_JobEndCallback_CAT05
                        1029 	.align	2
                        1030 --_ucRequestResult	3[sp]	local
                        1031 
                        1032 	.data
                        1033 	.text
                        1034 	.align	2
                        1035 	.align	2
                        1036 ..gh.f.f.1.e.13:
                        1037 	.type	..gh.f.f.1.e.13,@object
                        1038 	.size	..gh.f.f.1.e.13,0
                        1039 	.global	_Memstack_Appl_JobEndCallback_CAT06
                        1040 _Memstack_Appl_JobEndCallback_CAT06:
0000039c 82076100       1041 	prepare	{r29,r31},1
000003a0 3d0600000000*  1042 	mov	_ulCurrentNvmConsistence,r29
                        1043 --	    .bf
                        1044 .LDW63:
                        1045 --line407
                        1046 ..lin.C.3A.5C_ECU2.5CECU_Rivian_A1.5CTarget.5Crepo_projects.5CpRealEcu.5CcL_LATEST.5Cmake.5Coutput.5Cobjects.5CRte_NvM_Type.93::
                        1047 .LDWlin93:
000003a6 0732           1048 	mov	7,r6
000003a8 233e0300       1049 	movea	3,sp,r7

                                                                      Page 20
                                                              C:\Users\nhuliyap\AppData\Local\Temp\gh_00008cs1.s
                        1050 	jarl	_NvM_GetErrorStatus,lp
                        1050 <EXPANSION BEGIN>
                        1050 jarl22 _NvM_GetErrorStatus , lp 
000003ac 80ff0000*      1050 <EXPANSION END>
                        1051 --line409
                        1052 ..lin.C.3A.5C_ECU2.5CECU_Rivian_A1.5CTarget.5Crepo_projects.5CpRealEcu.5CcL_LATEST.5Cmake.5Coutput.5Cobjects.5CRte_NvM_Type.94::
                        1053 .LDWlin94:
000003b0 a3970300       1054 	ld.bu	3[sp],r18
000003b4 6392           1055 	cmp	3,r18
000003b6 b205*          1056 	be	.L1478
                        1057 --line411
                        1058 ..lin.C.3A.5C_ECU2.5CECU_Rivian_A1.5CTarget.5Crepo_projects.5CpRealEcu.5CcL_LATEST.5Cmake.5Coutput.5Cobjects.5CRte_NvM_Type.95::
                        1059 .LDWlin95:
000003b8 dd2f0000       1060 	set1	5,0[r29]
                        1061 .L1478:
                        1062 --	    .ef
                        1063 .LDW73:
000003bc 42067f00       1064 	dispose	1,{r29,r31},[lp]
                        1065 	.global	___ghs_eofn_Memstack_Appl_JobEndCallback_CAT06
                        1066 ___ghs_eofn_Memstack_Appl_JobEndCallback_CAT06:
                        1067 	.type	_Memstack_Appl_JobEndCallback_CAT06,@function
                        1068 	.size	_Memstack_Appl_JobEndCallback_CAT06,.-_Memstack_Appl_JobEndCallback_CAT06
                        1069 	.align	2
                        1070 --_ucRequestResult	3[sp]	local
                        1071 
                        1072 	.data
                        1073 	.text
                        1074 	.align	2
                        1075 	.align	2
                        1076 ..gh.f.f.1.e.14:
                        1077 	.type	..gh.f.f.1.e.14,@object
                        1078 	.size	..gh.f.f.1.e.14,0
                        1079 	.global	_Memstack_Appl_JobEndCallback_CAT07
                        1080 _Memstack_Appl_JobEndCallback_CAT07:
000003c0 82076100       1081 	prepare	{r29,r31},1
000003c4 3d0600000000*  1082 	mov	_ulCurrentNvmConsistence,r29
                        1083 --	    .bf
                        1084 .LDW83:
                        1085 --line418
                        1086 ..lin.C.3A.5C_ECU2.5CECU_Rivian_A1.5CTarget.5Crepo_projects.5CpRealEcu.5CcL_LATEST.5Cmake.5Coutput.5Cobjects.5CRte_NvM_Type.96::
                        1087 .LDWlin96:
000003ca 0832           1088 	mov	8,r6
000003cc 233e0300       1089 	movea	3,sp,r7
                        1090 	jarl	_NvM_GetErrorStatus,lp
                        1090 <EXPANSION BEGIN>
                        1090 jarl22 _NvM_GetErrorStatus , lp 
000003d0 80ff0000*      1090 <EXPANSION END>
                        1091 --line420
                        1092 ..lin.C.3A.5C_ECU2.5CECU_Rivian_A1.5CTarget.5Crepo_projects.5CpRealEcu.5CcL_LATEST.5Cmake.5Coutput.5Cobjects.5CRte_NvM_Type.97::
                        1093 .LDWlin97:
000003d4 a3970300       1094 	ld.bu	3[sp],r18
000003d8 6392           1095 	cmp	3,r18
000003da b205*          1096 	be	.L1542
                        1097 --line422
                        1098 ..lin.C.3A.5C_ECU2.5CECU_Rivian_A1.5CTarget.5Crepo_projects.5CpRealEcu.5CcL_LATEST.5Cmake.5Coutput.5Cobjects.5CRte_NvM_Type.98::
                        1099 .LDWlin98:
000003dc dd370000       1100 	set1	6,0[r29]
                        1101 .L1542:
                        1102 --	    .ef
                        1103 .LDW93:
000003e0 42067f00       1104 	dispose	1,{r29,r31},[lp]

                                                                      Page 21
                                                              C:\Users\nhuliyap\AppData\Local\Temp\gh_00008cs1.s
                        1105 	.global	___ghs_eofn_Memstack_Appl_JobEndCallback_CAT07
                        1106 ___ghs_eofn_Memstack_Appl_JobEndCallback_CAT07:
                        1107 	.type	_Memstack_Appl_JobEndCallback_CAT07,@function
                        1108 	.size	_Memstack_Appl_JobEndCallback_CAT07,.-_Memstack_Appl_JobEndCallback_CAT07
                        1109 	.align	2
                        1110 --_ucRequestResult	3[sp]	local
                        1111 
                        1112 	.data
                        1113 	.text
                        1114 	.align	2
                        1115 	.align	2
                        1116 ..gh.f.f.1.e.15:
                        1117 	.type	..gh.f.f.1.e.15,@object
                        1118 	.size	..gh.f.f.1.e.15,0
                        1119 	.global	_Memstack_Appl_JobEndCallback_CAT08
                        1120 _Memstack_Appl_JobEndCallback_CAT08:
000003e4 82076100       1121 	prepare	{r29,r31},1
000003e8 3d0600000000*  1122 	mov	_ulCurrentNvmConsistence,r29
                        1123 --	    .bf
                        1124 .LDW04:
                        1125 --line429
                        1126 ..lin.C.3A.5C_ECU2.5CECU_Rivian_A1.5CTarget.5Crepo_projects.5CpRealEcu.5CcL_LATEST.5Cmake.5Coutput.5Cobjects.5CRte_NvM_Type.99::
                        1127 .LDWlin99:
000003ee 0932           1128 	mov	9,r6
000003f0 233e0300       1129 	movea	3,sp,r7
                        1130 	jarl	_NvM_GetErrorStatus,lp
                        1130 <EXPANSION BEGIN>
                        1130 jarl22 _NvM_GetErrorStatus , lp 
000003f4 80ff0000*      1130 <EXPANSION END>
                        1131 --line431
                        1132 ..lin.C.3A.5C_ECU2.5CECU_Rivian_A1.5CTarget.5Crepo_projects.5CpRealEcu.5CcL_LATEST.5Cmake.5Coutput.5Cobjects.5CRte_NvM_Type.100::
                        1133 .LDWlin100:
000003f8 a3970300       1134 	ld.bu	3[sp],r18
000003fc 6392           1135 	cmp	3,r18
000003fe b205*          1136 	be	.L1606
                        1137 --line433
                        1138 ..lin.C.3A.5C_ECU2.5CECU_Rivian_A1.5CTarget.5Crepo_projects.5CpRealEcu.5CcL_LATEST.5Cmake.5Coutput.5Cobjects.5CRte_NvM_Type.101::
                        1139 .LDWlin101:
00000400 dd3f0000       1140 	set1	7,0[r29]
                        1141 .L1606:
                        1142 --	    .ef
                        1143 .LDW14:
00000404 42067f00       1144 	dispose	1,{r29,r31},[lp]
                        1145 	.global	___ghs_eofn_Memstack_Appl_JobEndCallback_CAT08
                        1146 ___ghs_eofn_Memstack_Appl_JobEndCallback_CAT08:
                        1147 	.type	_Memstack_Appl_JobEndCallback_CAT08,@function
                        1148 	.size	_Memstack_Appl_JobEndCallback_CAT08,.-_Memstack_Appl_JobEndCallback_CAT08
                        1149 	.align	2
                        1150 --_ucRequestResult	3[sp]	local
                        1151 
                        1152 	.data
                        1153 	.text
                        1154 	.align	2
                        1155 	.align	2
                        1156 ..gh.f.f.1.e.16:
                        1157 	.type	..gh.f.f.1.e.16,@object
                        1158 	.size	..gh.f.f.1.e.16,0
                        1159 	.global	_Memstack_Appl_JobEndCallback_CAT09
                        1160 _Memstack_Appl_JobEndCallback_CAT09:
00000408 82076100       1161 	prepare	{r29,r31},1
0000040c 3d0600000000*  1162 	mov	_ulCurrentNvmConsistence,r29

                                                                      Page 22
                                                              C:\Users\nhuliyap\AppData\Local\Temp\gh_00008cs1.s
                        1163 --	    .bf
                        1164 .LDW24:
                        1165 --line440
                        1166 ..lin.C.3A.5C_ECU2.5CECU_Rivian_A1.5CTarget.5Crepo_projects.5CpRealEcu.5CcL_LATEST.5Cmake.5Coutput.5Cobjects.5CRte_NvM_Type.102::
                        1167 .LDWlin102:
00000412 0a32           1168 	mov	10,r6
00000414 233e0300       1169 	movea	3,sp,r7
                        1170 	jarl	_NvM_GetErrorStatus,lp
                        1170 <EXPANSION BEGIN>
                        1170 jarl22 _NvM_GetErrorStatus , lp 
00000418 80ff0000*      1170 <EXPANSION END>
                        1171 --line442
                        1172 ..lin.C.3A.5C_ECU2.5CECU_Rivian_A1.5CTarget.5Crepo_projects.5CpRealEcu.5CcL_LATEST.5Cmake.5Coutput.5Cobjects.5CRte_NvM_Type.103::
                        1173 .LDWlin103:
0000041c a3970300       1174 	ld.bu	3[sp],r18
00000420 6392           1175 	cmp	3,r18
00000422 b205*          1176 	be	.L1670
                        1177 --line444
                        1178 ..lin.C.3A.5C_ECU2.5CECU_Rivian_A1.5CTarget.5Crepo_projects.5CpRealEcu.5CcL_LATEST.5Cmake.5Coutput.5Cobjects.5CRte_NvM_Type.104::
                        1179 .LDWlin104:
00000424 dd070100       1180 	set1	0,1[r29]
                        1181 .L1670:
                        1182 --	    .ef
                        1183 .LDW34:
00000428 42067f00       1184 	dispose	1,{r29,r31},[lp]
                        1185 	.global	___ghs_eofn_Memstack_Appl_JobEndCallback_CAT09
                        1186 ___ghs_eofn_Memstack_Appl_JobEndCallback_CAT09:
                        1187 	.type	_Memstack_Appl_JobEndCallback_CAT09,@function
                        1188 	.size	_Memstack_Appl_JobEndCallback_CAT09,.-_Memstack_Appl_JobEndCallback_CAT09
                        1189 	.align	2
                        1190 --_ucRequestResult	3[sp]	local
                        1191 
                        1192 	.data
                        1193 	.text
                        1194 	.align	2
                        1195 	.align	2
                        1196 ..gh.f.f.1.e.17:
                        1197 	.type	..gh.f.f.1.e.17,@object
                        1198 	.size	..gh.f.f.1.e.17,0
                        1199 	.global	_Memstack_Appl_JobEndCallback_CAT10
                        1200 _Memstack_Appl_JobEndCallback_CAT10:
0000042c 82076100       1201 	prepare	{r29,r31},1
00000430 3d0600000000*  1202 	mov	_ulCurrentNvmConsistence,r29
                        1203 --	    .bf
                        1204 .LDW44:
                        1205 --line451
                        1206 ..lin.C.3A.5C_ECU2.5CECU_Rivian_A1.5CTarget.5Crepo_projects.5CpRealEcu.5CcL_LATEST.5Cmake.5Coutput.5Cobjects.5CRte_NvM_Type.105::
                        1207 .LDWlin105:
00000436 0b32           1208 	mov	11,r6
00000438 233e0300       1209 	movea	3,sp,r7
                        1210 	jarl	_NvM_GetErrorStatus,lp
                        1210 <EXPANSION BEGIN>
                        1210 jarl22 _NvM_GetErrorStatus , lp 
0000043c 80ff0000*      1210 <EXPANSION END>
                        1211 --line453
                        1212 ..lin.C.3A.5C_ECU2.5CECU_Rivian_A1.5CTarget.5Crepo_projects.5CpRealEcu.5CcL_LATEST.5Cmake.5Coutput.5Cobjects.5CRte_NvM_Type.106::
                        1213 .LDWlin106:
00000440 a3970300       1214 	ld.bu	3[sp],r18
00000444 6392           1215 	cmp	3,r18
00000446 b205*          1216 	be	.L1734
                        1217 --line455

                                                                      Page 23
                                                              C:\Users\nhuliyap\AppData\Local\Temp\gh_00008cs1.s
                        1218 ..lin.C.3A.5C_ECU2.5CECU_Rivian_A1.5CTarget.5Crepo_projects.5CpRealEcu.5CcL_LATEST.5Cmake.5Coutput.5Cobjects.5CRte_NvM_Type.107::
                        1219 .LDWlin107:
00000448 dd0f0100       1220 	set1	1,1[r29]
                        1221 .L1734:
                        1222 --	    .ef
                        1223 .LDW54:
0000044c 42067f00       1224 	dispose	1,{r29,r31},[lp]
                        1225 	.global	___ghs_eofn_Memstack_Appl_JobEndCallback_CAT10
                        1226 ___ghs_eofn_Memstack_Appl_JobEndCallback_CAT10:
                        1227 	.type	_Memstack_Appl_JobEndCallback_CAT10,@function
                        1228 	.size	_Memstack_Appl_JobEndCallback_CAT10,.-_Memstack_Appl_JobEndCallback_CAT10
                        1229 	.align	2
                        1230 --_ucRequestResult	3[sp]	local
                        1231 
                        1232 	.data
                        1233 	.text
                        1234 	.align	2
                        1235 	.align	2
                        1236 ..gh.f.f.1.e.18:
                        1237 	.type	..gh.f.f.1.e.18,@object
                        1238 	.size	..gh.f.f.1.e.18,0
                        1239 	.global	_Memstack_Appl_JobEndCallback_DemNvm_IdEvStatusByte
                        1240 _Memstack_Appl_JobEndCallback_DemNvm_IdEvStatusByte:
00000450 82076100       1241 	prepare	{r29,r31},1
00000454 3d0600000000*  1242 	mov	_ulCurrentNvmConsistence,r29
                        1243 --	    .bf
                        1244 .LDW64:
                        1245 --line462
                        1246 ..lin.C.3A.5C_ECU2.5CECU_Rivian_A1.5CTarget.5Crepo_projects.5CpRealEcu.5CcL_LATEST.5Cmake.5Coutput.5Cobjects.5CRte_NvM_Type.108::
                        1247 .LDWlin108:
0000045a 0e32           1248 	mov	14,r6
0000045c 233e0300       1249 	movea	3,sp,r7
                        1250 	jarl	_NvM_GetErrorStatus,lp
                        1250 <EXPANSION BEGIN>
                        1250 jarl22 _NvM_GetErrorStatus , lp 
00000460 80ff0000*      1250 <EXPANSION END>
                        1251 --line464
                        1252 ..lin.C.3A.5C_ECU2.5CECU_Rivian_A1.5CTarget.5Crepo_projects.5CpRealEcu.5CcL_LATEST.5Cmake.5Coutput.5Cobjects.5CRte_NvM_Type.109::
                        1253 .LDWlin109:
00000464 a3970300       1254 	ld.bu	3[sp],r18
00000468 6392           1255 	cmp	3,r18
0000046a b205*          1256 	be	.L1798
                        1257 --line466
                        1258 ..lin.C.3A.5C_ECU2.5CECU_Rivian_A1.5CTarget.5Crepo_projects.5CpRealEcu.5CcL_LATEST.5Cmake.5Coutput.5Cobjects.5CRte_NvM_Type.110::
                        1259 .LDWlin110:
0000046c dd170100       1260 	set1	2,1[r29]
                        1261 .L1798:
                        1262 --	    .ef
                        1263 .LDW74:
00000470 42067f00       1264 	dispose	1,{r29,r31},[lp]
                        1265 	.global	___ghs_eofn_Memstack_Appl_JobEndCallback_DemNvm_IdEvStatusByte
                        1266 ___ghs_eofn_Memstack_Appl_JobEndCallback_DemNvm_IdEvStatusByte:
                        1267 	.type	_Memstack_Appl_JobEndCallback_DemNvm_IdEvStatusByte,@function
                        1268 	.size	_Memstack_Appl_JobEndCallback_DemNvm_IdEvStatusByte,.-_Memstack_Appl_JobEndCallback_DemNvm_IdEvStatusByte
                        1269 	.align	2
                        1270 --_ucRequestResult	3[sp]	local
                        1271 
                        1272 	.data
                        1273 	.text
                        1274 	.align	2
                        1275 	.align	2

                                                                      Page 24
                                                              C:\Users\nhuliyap\AppData\Local\Temp\gh_00008cs1.s
                        1276 ..gh.f.f.1.e.19:
                        1277 	.type	..gh.f.f.1.e.19,@object
                        1278 	.size	..gh.f.f.1.e.19,0
                        1279 	.global	_Memstack_Appl_JobEndCallback_DemNvm_IdEvMemLoc0
                        1280 _Memstack_Appl_JobEndCallback_DemNvm_IdEvMemLoc0:
00000474 82076100       1281 	prepare	{r29,r31},1
00000478 3d0600000000*  1282 	mov	_ulCurrentNvmConsistence,r29
                        1283 --	    .bf
                        1284 .LDW84:
                        1285 --line473
                        1286 ..lin.C.3A.5C_ECU2.5CECU_Rivian_A1.5CTarget.5Crepo_projects.5CpRealEcu.5CcL_LATEST.5Cmake.5Coutput.5Cobjects.5CRte_NvM_Type.111::
                        1287 .LDWlin111:
0000047e 0f32           1288 	mov	15,r6
00000480 233e0300       1289 	movea	3,sp,r7
                        1290 	jarl	_NvM_GetErrorStatus,lp
                        1290 <EXPANSION BEGIN>
                        1290 jarl22 _NvM_GetErrorStatus , lp 
00000484 80ff0000*      1290 <EXPANSION END>
                        1291 --line475
                        1292 ..lin.C.3A.5C_ECU2.5CECU_Rivian_A1.5CTarget.5Crepo_projects.5CpRealEcu.5CcL_LATEST.5Cmake.5Coutput.5Cobjects.5CRte_NvM_Type.112::
                        1293 .LDWlin112:
00000488 a3970300       1294 	ld.bu	3[sp],r18
0000048c 6392           1295 	cmp	3,r18
0000048e b205*          1296 	be	.L1862
                        1297 --line477
                        1298 ..lin.C.3A.5C_ECU2.5CECU_Rivian_A1.5CTarget.5Crepo_projects.5CpRealEcu.5CcL_LATEST.5Cmake.5Coutput.5Cobjects.5CRte_NvM_Type.113::
                        1299 .LDWlin113:
00000490 dd1f0100       1300 	set1	3,1[r29]
                        1301 .L1862:
                        1302 --	    .ef
                        1303 .LDW94:
00000494 42067f00       1304 	dispose	1,{r29,r31},[lp]
                        1305 	.global	___ghs_eofn_Memstack_Appl_JobEndCallback_DemNvm_IdEvMemLoc0
                        1306 ___ghs_eofn_Memstack_Appl_JobEndCallback_DemNvm_IdEvMemLoc0:
                        1307 	.type	_Memstack_Appl_JobEndCallback_DemNvm_IdEvMemLoc0,@function
                        1308 	.size	_Memstack_Appl_JobEndCallback_DemNvm_IdEvMemLoc0,.-_Memstack_Appl_JobEndCallback_DemNvm_IdEvMemLoc0
                        1309 	.align	2
                        1310 --_ucRequestResult	3[sp]	local
                        1311 
                        1312 	.data
                        1313 	.text
                        1314 	.align	2
                        1315 	.align	2
                        1316 ..gh.f.f.1.e.20:
                        1317 	.type	..gh.f.f.1.e.20,@object
                        1318 	.size	..gh.f.f.1.e.20,0
                        1319 	.global	_Memstack_Appl_JobEndCallback_DemNvm_IdEvMemLoc1
                        1320 _Memstack_Appl_JobEndCallback_DemNvm_IdEvMemLoc1:
00000498 82076100       1321 	prepare	{r29,r31},1
0000049c 3d0600000000*  1322 	mov	_ulCurrentNvmConsistence,r29
                        1323 --	    .bf
                        1324 .LDW05:
                        1325 --line484
                        1326 ..lin.C.3A.5C_ECU2.5CECU_Rivian_A1.5CTarget.5Crepo_projects.5CpRealEcu.5CcL_LATEST.5Cmake.5Coutput.5Cobjects.5CRte_NvM_Type.114::
                        1327 .LDWlin114:
000004a2 20361000       1328 	movea	16,zero,r6
000004a6 233e0300       1329 	movea	3,sp,r7
                        1330 	jarl	_NvM_GetErrorStatus,lp
                        1330 <EXPANSION BEGIN>
                        1330 jarl22 _NvM_GetErrorStatus , lp 
000004aa 80ff0000*      1330 <EXPANSION END>

                                                                      Page 25
                                                              C:\Users\nhuliyap\AppData\Local\Temp\gh_00008cs1.s
                        1331 --line486
                        1332 ..lin.C.3A.5C_ECU2.5CECU_Rivian_A1.5CTarget.5Crepo_projects.5CpRealEcu.5CcL_LATEST.5Cmake.5Coutput.5Cobjects.5CRte_NvM_Type.115::
                        1333 .LDWlin115:
000004ae a3970300       1334 	ld.bu	3[sp],r18
000004b2 6392           1335 	cmp	3,r18
000004b4 b205*          1336 	be	.L1926
                        1337 --line488
                        1338 ..lin.C.3A.5C_ECU2.5CECU_Rivian_A1.5CTarget.5Crepo_projects.5CpRealEcu.5CcL_LATEST.5Cmake.5Coutput.5Cobjects.5CRte_NvM_Type.116::
                        1339 .LDWlin116:
000004b6 dd270100       1340 	set1	4,1[r29]
                        1341 .L1926:
                        1342 --	    .ef
                        1343 .LDW15:
000004ba 42067f00       1344 	dispose	1,{r29,r31},[lp]
                        1345 	.global	___ghs_eofn_Memstack_Appl_JobEndCallback_DemNvm_IdEvMemLoc1
                        1346 ___ghs_eofn_Memstack_Appl_JobEndCallback_DemNvm_IdEvMemLoc1:
                        1347 	.type	_Memstack_Appl_JobEndCallback_DemNvm_IdEvMemLoc1,@function
                        1348 	.size	_Memstack_Appl_JobEndCallback_DemNvm_IdEvMemLoc1,.-_Memstack_Appl_JobEndCallback_DemNvm_IdEvMemLoc1
                        1349 	.align	2
                        1350 --_ucRequestResult	3[sp]	local
                        1351 
                        1352 	.data
                        1353 	.text
                        1354 	.align	2
                        1355 	.align	2
                        1356 ..gh.f.f.1.e.21:
                        1357 	.type	..gh.f.f.1.e.21,@object
                        1358 	.size	..gh.f.f.1.e.21,0
                        1359 	.global	_Memstack_Appl_JobEndCallback_DemNvm_IdEvMemLoc2
                        1360 _Memstack_Appl_JobEndCallback_DemNvm_IdEvMemLoc2:
000004be 82076100       1361 	prepare	{r29,r31},1
000004c2 3d0600000000*  1362 	mov	_ulCurrentNvmConsistence,r29
                        1363 --	    .bf
                        1364 .LDW25:
                        1365 --line495
                        1366 ..lin.C.3A.5C_ECU2.5CECU_Rivian_A1.5CTarget.5Crepo_projects.5CpRealEcu.5CcL_LATEST.5Cmake.5Coutput.5Cobjects.5CRte_NvM_Type.117::
                        1367 .LDWlin117:
000004c8 20361100       1368 	movea	17,zero,r6
000004cc 233e0300       1369 	movea	3,sp,r7
                        1370 	jarl	_NvM_GetErrorStatus,lp
                        1370 <EXPANSION BEGIN>
                        1370 jarl22 _NvM_GetErrorStatus , lp 
000004d0 80ff0000*      1370 <EXPANSION END>
                        1371 --line497
                        1372 ..lin.C.3A.5C_ECU2.5CECU_Rivian_A1.5CTarget.5Crepo_projects.5CpRealEcu.5CcL_LATEST.5Cmake.5Coutput.5Cobjects.5CRte_NvM_Type.118::
                        1373 .LDWlin118:
000004d4 a3970300       1374 	ld.bu	3[sp],r18
000004d8 6392           1375 	cmp	3,r18
000004da b205*          1376 	be	.L1990
                        1377 --line499
                        1378 ..lin.C.3A.5C_ECU2.5CECU_Rivian_A1.5CTarget.5Crepo_projects.5CpRealEcu.5CcL_LATEST.5Cmake.5Coutput.5Cobjects.5CRte_NvM_Type.119::
                        1379 .LDWlin119:
000004dc dd2f0100       1380 	set1	5,1[r29]
                        1381 .L1990:
                        1382 --	    .ef
                        1383 .LDW35:
000004e0 42067f00       1384 	dispose	1,{r29,r31},[lp]
                        1385 	.global	___ghs_eofn_Memstack_Appl_JobEndCallback_DemNvm_IdEvMemLoc2
                        1386 ___ghs_eofn_Memstack_Appl_JobEndCallback_DemNvm_IdEvMemLoc2:
                        1387 	.type	_Memstack_Appl_JobEndCallback_DemNvm_IdEvMemLoc2,@function
                        1388 	.size	_Memstack_Appl_JobEndCallback_DemNvm_IdEvMemLoc2,.-_Memstack_Appl_JobEndCallback_DemNvm_IdEvMemLoc2

                                                                      Page 26
                                                              C:\Users\nhuliyap\AppData\Local\Temp\gh_00008cs1.s
                        1389 	.align	2
                        1390 --_ucRequestResult	3[sp]	local
                        1391 
                        1392 	.data
                        1393 	.text
                        1394 	.align	2
                        1395 	.align	2
                        1396 ..gh.f.f.1.e.22:
                        1397 	.type	..gh.f.f.1.e.22,@object
                        1398 	.size	..gh.f.f.1.e.22,0
                        1399 	.global	_Memstack_Appl_JobEndCallback_DemNvm_IdEvMemLoc3
                        1400 _Memstack_Appl_JobEndCallback_DemNvm_IdEvMemLoc3:
000004e4 82076100       1401 	prepare	{r29,r31},1
000004e8 3d0600000000*  1402 	mov	_ulCurrentNvmConsistence,r29
                        1403 --	    .bf
                        1404 .LDW45:
                        1405 --line506
                        1406 ..lin.C.3A.5C_ECU2.5CECU_Rivian_A1.5CTarget.5Crepo_projects.5CpRealEcu.5CcL_LATEST.5Cmake.5Coutput.5Cobjects.5CRte_NvM_Type.120::
                        1407 .LDWlin120:
000004ee 20361200       1408 	movea	18,zero,r6
000004f2 233e0300       1409 	movea	3,sp,r7
                        1410 	jarl	_NvM_GetErrorStatus,lp
                        1410 <EXPANSION BEGIN>
                        1410 jarl22 _NvM_GetErrorStatus , lp 
000004f6 80ff0000*      1410 <EXPANSION END>
                        1411 --line508
                        1412 ..lin.C.3A.5C_ECU2.5CECU_Rivian_A1.5CTarget.5Crepo_projects.5CpRealEcu.5CcL_LATEST.5Cmake.5Coutput.5Cobjects.5CRte_NvM_Type.121::
                        1413 .LDWlin121:
000004fa a3970300       1414 	ld.bu	3[sp],r18
000004fe 6392           1415 	cmp	3,r18
00000500 b205*          1416 	be	.L2054
                        1417 --line510
                        1418 ..lin.C.3A.5C_ECU2.5CECU_Rivian_A1.5CTarget.5Crepo_projects.5CpRealEcu.5CcL_LATEST.5Cmake.5Coutput.5Cobjects.5CRte_NvM_Type.122::
                        1419 .LDWlin122:
00000502 dd370100       1420 	set1	6,1[r29]
                        1421 .L2054:
                        1422 --	    .ef
                        1423 .LDW55:
00000506 42067f00       1424 	dispose	1,{r29,r31},[lp]
                        1425 	.global	___ghs_eofn_Memstack_Appl_JobEndCallback_DemNvm_IdEvMemLoc3
                        1426 ___ghs_eofn_Memstack_Appl_JobEndCallback_DemNvm_IdEvMemLoc3:
                        1427 	.type	_Memstack_Appl_JobEndCallback_DemNvm_IdEvMemLoc3,@function
                        1428 	.size	_Memstack_Appl_JobEndCallback_DemNvm_IdEvMemLoc3,.-_Memstack_Appl_JobEndCallback_DemNvm_IdEvMemLoc3
                        1429 	.align	2
                        1430 --_ucRequestResult	3[sp]	local
                        1431 
                        1432 	.data
                        1433 	.text
                        1434 	.align	2
                        1435 	.align	2
                        1436 ..gh.f.f.1.e.23:
                        1437 	.type	..gh.f.f.1.e.23,@object
                        1438 	.size	..gh.f.f.1.e.23,0
                        1439 	.global	_Memstack_Appl_JobEndCallback_DemNvm_IdEvMemLoc4
                        1440 _Memstack_Appl_JobEndCallback_DemNvm_IdEvMemLoc4:
0000050a 82076100       1441 	prepare	{r29,r31},1
0000050e 3d0600000000*  1442 	mov	_ulCurrentNvmConsistence,r29
                        1443 --	    .bf
                        1444 .LDW65:
                        1445 --line517
                        1446 ..lin.C.3A.5C_ECU2.5CECU_Rivian_A1.5CTarget.5Crepo_projects.5CpRealEcu.5CcL_LATEST.5Cmake.5Coutput.5Cobjects.5CRte_NvM_Type.123::

                                                                      Page 27
                                                              C:\Users\nhuliyap\AppData\Local\Temp\gh_00008cs1.s
                        1447 .LDWlin123:
00000514 20361300       1448 	movea	19,zero,r6
00000518 233e0300       1449 	movea	3,sp,r7
                        1450 	jarl	_NvM_GetErrorStatus,lp
                        1450 <EXPANSION BEGIN>
                        1450 jarl22 _NvM_GetErrorStatus , lp 
0000051c 80ff0000*      1450 <EXPANSION END>
                        1451 --line519
                        1452 ..lin.C.3A.5C_ECU2.5CECU_Rivian_A1.5CTarget.5Crepo_projects.5CpRealEcu.5CcL_LATEST.5Cmake.5Coutput.5Cobjects.5CRte_NvM_Type.124::
                        1453 .LDWlin124:
00000520 a3970300       1454 	ld.bu	3[sp],r18
00000524 6392           1455 	cmp	3,r18
00000526 b205*          1456 	be	.L2118
                        1457 --line521
                        1458 ..lin.C.3A.5C_ECU2.5CECU_Rivian_A1.5CTarget.5Crepo_projects.5CpRealEcu.5CcL_LATEST.5Cmake.5Coutput.5Cobjects.5CRte_NvM_Type.125::
                        1459 .LDWlin125:
00000528 dd3f0100       1460 	set1	7,1[r29]
                        1461 .L2118:
                        1462 --	    .ef
                        1463 .LDW75:
0000052c 42067f00       1464 	dispose	1,{r29,r31},[lp]
                        1465 	.global	___ghs_eofn_Memstack_Appl_JobEndCallback_DemNvm_IdEvMemLoc4
                        1466 ___ghs_eofn_Memstack_Appl_JobEndCallback_DemNvm_IdEvMemLoc4:
                        1467 	.type	_Memstack_Appl_JobEndCallback_DemNvm_IdEvMemLoc4,@function
                        1468 	.size	_Memstack_Appl_JobEndCallback_DemNvm_IdEvMemLoc4,.-_Memstack_Appl_JobEndCallback_DemNvm_IdEvMemLoc4
                        1469 	.align	2
                        1470 --_ucRequestResult	3[sp]	local
                        1471 
                        1472 	.data
                        1473 	.text
                        1474 	.align	2
                        1475 	.align	2
                        1476 ..gh.f.f.1.e.24:
                        1477 	.type	..gh.f.f.1.e.24,@object
                        1478 	.size	..gh.f.f.1.e.24,0
                        1479 	.global	_Memstack_Appl_JobEndCallback_DemNvm_IdEvMemLoc5
                        1480 _Memstack_Appl_JobEndCallback_DemNvm_IdEvMemLoc5:
00000530 82076100       1481 	prepare	{r29,r31},1
00000534 3d0600000000*  1482 	mov	_ulCurrentNvmConsistence,r29
                        1483 --	    .bf
                        1484 .LDW85:
                        1485 --line528
                        1486 ..lin.C.3A.5C_ECU2.5CECU_Rivian_A1.5CTarget.5Crepo_projects.5CpRealEcu.5CcL_LATEST.5Cmake.5Coutput.5Cobjects.5CRte_NvM_Type.126::
                        1487 .LDWlin126:
0000053a 20361400       1488 	movea	20,zero,r6
0000053e 233e0300       1489 	movea	3,sp,r7
                        1490 	jarl	_NvM_GetErrorStatus,lp
                        1490 <EXPANSION BEGIN>
                        1490 jarl22 _NvM_GetErrorStatus , lp 
00000542 80ff0000*      1490 <EXPANSION END>
                        1491 --line530
                        1492 ..lin.C.3A.5C_ECU2.5CECU_Rivian_A1.5CTarget.5Crepo_projects.5CpRealEcu.5CcL_LATEST.5Cmake.5Coutput.5Cobjects.5CRte_NvM_Type.127::
                        1493 .LDWlin127:
00000546 a3970300       1494 	ld.bu	3[sp],r18
0000054a 6392           1495 	cmp	3,r18
0000054c b205*          1496 	be	.L2182
                        1497 --line532
                        1498 ..lin.C.3A.5C_ECU2.5CECU_Rivian_A1.5CTarget.5Crepo_projects.5CpRealEcu.5CcL_LATEST.5Cmake.5Coutput.5Cobjects.5CRte_NvM_Type.128::
                        1499 .LDWlin128:
0000054e dd070200       1500 	set1	0,2[r29]
                        1501 .L2182:

                                                                      Page 28
                                                              C:\Users\nhuliyap\AppData\Local\Temp\gh_00008cs1.s
                        1502 --	    .ef
                        1503 .LDW95:
00000552 42067f00       1504 	dispose	1,{r29,r31},[lp]
                        1505 	.global	___ghs_eofn_Memstack_Appl_JobEndCallback_DemNvm_IdEvMemLoc5
                        1506 ___ghs_eofn_Memstack_Appl_JobEndCallback_DemNvm_IdEvMemLoc5:
                        1507 	.type	_Memstack_Appl_JobEndCallback_DemNvm_IdEvMemLoc5,@function
                        1508 	.size	_Memstack_Appl_JobEndCallback_DemNvm_IdEvMemLoc5,.-_Memstack_Appl_JobEndCallback_DemNvm_IdEvMemLoc5
                        1509 	.align	2
                        1510 --_ucRequestResult	3[sp]	local
                        1511 
                        1512 	.data
                        1513 	.text
                        1514 	.align	2
                        1515 	.align	2
                        1516 ..gh.f.f.1.e.25:
                        1517 	.type	..gh.f.f.1.e.25,@object
                        1518 	.size	..gh.f.f.1.e.25,0
                        1519 	.global	_Memstack_Appl_JobEndCallback_DemNvm_IdEvMemLoc6
                        1520 _Memstack_Appl_JobEndCallback_DemNvm_IdEvMemLoc6:
00000556 82076100       1521 	prepare	{r29,r31},1
0000055a 3d0600000000*  1522 	mov	_ulCurrentNvmConsistence,r29
                        1523 --	    .bf
                        1524 .LDW06:
                        1525 --line539
                        1526 ..lin.C.3A.5C_ECU2.5CECU_Rivian_A1.5CTarget.5Crepo_projects.5CpRealEcu.5CcL_LATEST.5Cmake.5Coutput.5Cobjects.5CRte_NvM_Type.129::
                        1527 .LDWlin129:
00000560 20361500       1528 	movea	21,zero,r6
00000564 233e0300       1529 	movea	3,sp,r7
                        1530 	jarl	_NvM_GetErrorStatus,lp
                        1530 <EXPANSION BEGIN>
                        1530 jarl22 _NvM_GetErrorStatus , lp 
00000568 80ff0000*      1530 <EXPANSION END>
                        1531 --line541
                        1532 ..lin.C.3A.5C_ECU2.5CECU_Rivian_A1.5CTarget.5Crepo_projects.5CpRealEcu.5CcL_LATEST.5Cmake.5Coutput.5Cobjects.5CRte_NvM_Type.130::
                        1533 .LDWlin130:
0000056c a3970300       1534 	ld.bu	3[sp],r18
00000570 6392           1535 	cmp	3,r18
00000572 b205*          1536 	be	.L2246
                        1537 --line543
                        1538 ..lin.C.3A.5C_ECU2.5CECU_Rivian_A1.5CTarget.5Crepo_projects.5CpRealEcu.5CcL_LATEST.5Cmake.5Coutput.5Cobjects.5CRte_NvM_Type.131::
                        1539 .LDWlin131:
00000574 dd0f0200       1540 	set1	1,2[r29]
                        1541 .L2246:
                        1542 --	    .ef
                        1543 .LDW16:
00000578 42067f00       1544 	dispose	1,{r29,r31},[lp]
                        1545 	.global	___ghs_eofn_Memstack_Appl_JobEndCallback_DemNvm_IdEvMemLoc6
                        1546 ___ghs_eofn_Memstack_Appl_JobEndCallback_DemNvm_IdEvMemLoc6:
                        1547 	.type	_Memstack_Appl_JobEndCallback_DemNvm_IdEvMemLoc6,@function
                        1548 	.size	_Memstack_Appl_JobEndCallback_DemNvm_IdEvMemLoc6,.-_Memstack_Appl_JobEndCallback_DemNvm_IdEvMemLoc6
                        1549 	.align	2
                        1550 --_ucRequestResult	3[sp]	local
                        1551 
                        1552 	.data
                        1553 	.text
                        1554 	.align	2
                        1555 	.align	2
                        1556 ..gh.f.f.1.e.26:
                        1557 	.type	..gh.f.f.1.e.26,@object
                        1558 	.size	..gh.f.f.1.e.26,0
                        1559 	.global	_Memstack_Appl_JobEndCallback_DemNvm_IdEvMemLoc7

                                                                      Page 29
                                                              C:\Users\nhuliyap\AppData\Local\Temp\gh_00008cs1.s
                        1560 _Memstack_Appl_JobEndCallback_DemNvm_IdEvMemLoc7:
0000057c 82076100       1561 	prepare	{r29,r31},1
00000580 3d0600000000*  1562 	mov	_ulCurrentNvmConsistence,r29
                        1563 --	    .bf
                        1564 .LDW26:
                        1565 --line550
                        1566 ..lin.C.3A.5C_ECU2.5CECU_Rivian_A1.5CTarget.5Crepo_projects.5CpRealEcu.5CcL_LATEST.5Cmake.5Coutput.5Cobjects.5CRte_NvM_Type.132::
                        1567 .LDWlin132:
00000586 20361600       1568 	movea	22,zero,r6
0000058a 233e0300       1569 	movea	3,sp,r7
                        1570 	jarl	_NvM_GetErrorStatus,lp
                        1570 <EXPANSION BEGIN>
                        1570 jarl22 _NvM_GetErrorStatus , lp 
0000058e 80ff0000*      1570 <EXPANSION END>
                        1571 --line552
                        1572 ..lin.C.3A.5C_ECU2.5CECU_Rivian_A1.5CTarget.5Crepo_projects.5CpRealEcu.5CcL_LATEST.5Cmake.5Coutput.5Cobjects.5CRte_NvM_Type.133::
                        1573 .LDWlin133:
00000592 a3970300       1574 	ld.bu	3[sp],r18
00000596 6392           1575 	cmp	3,r18
00000598 b205*          1576 	be	.L2310
                        1577 --line554
                        1578 ..lin.C.3A.5C_ECU2.5CECU_Rivian_A1.5CTarget.5Crepo_projects.5CpRealEcu.5CcL_LATEST.5Cmake.5Coutput.5Cobjects.5CRte_NvM_Type.134::
                        1579 .LDWlin134:
0000059a dd170200       1580 	set1	2,2[r29]
                        1581 .L2310:
                        1582 --	    .ef
                        1583 .LDW36:
0000059e 42067f00       1584 	dispose	1,{r29,r31},[lp]
                        1585 	.global	___ghs_eofn_Memstack_Appl_JobEndCallback_DemNvm_IdEvMemLoc7
                        1586 ___ghs_eofn_Memstack_Appl_JobEndCallback_DemNvm_IdEvMemLoc7:
                        1587 	.type	_Memstack_Appl_JobEndCallback_DemNvm_IdEvMemLoc7,@function
                        1588 	.size	_Memstack_Appl_JobEndCallback_DemNvm_IdEvMemLoc7,.-_Memstack_Appl_JobEndCallback_DemNvm_IdEvMemLoc7
                        1589 	.align	2
                        1590 --_ucRequestResult	3[sp]	local
                        1591 
                        1592 	.data
                        1593 	.text
                        1594 	.align	2
                        1595 	.align	2
                        1596 ..gh.f.f.1.e.27:
                        1597 	.type	..gh.f.f.1.e.27,@object
                        1598 	.size	..gh.f.f.1.e.27,0
                        1599 	.global	_Memstack_Appl_JobEndCallback_DemNvm_IdEvMemLoc8
                        1600 _Memstack_Appl_JobEndCallback_DemNvm_IdEvMemLoc8:
000005a2 82076100       1601 	prepare	{r29,r31},1
000005a6 3d0600000000*  1602 	mov	_ulCurrentNvmConsistence,r29
                        1603 --	    .bf
                        1604 .LDW46:
                        1605 --line561
                        1606 ..lin.C.3A.5C_ECU2.5CECU_Rivian_A1.5CTarget.5Crepo_projects.5CpRealEcu.5CcL_LATEST.5Cmake.5Coutput.5Cobjects.5CRte_NvM_Type.135::
                        1607 .LDWlin135:
000005ac 20361700       1608 	movea	23,zero,r6
000005b0 233e0300       1609 	movea	3,sp,r7
                        1610 	jarl	_NvM_GetErrorStatus,lp
                        1610 <EXPANSION BEGIN>
                        1610 jarl22 _NvM_GetErrorStatus , lp 
000005b4 80ff0000*      1610 <EXPANSION END>
                        1611 --line563
                        1612 ..lin.C.3A.5C_ECU2.5CECU_Rivian_A1.5CTarget.5Crepo_projects.5CpRealEcu.5CcL_LATEST.5Cmake.5Coutput.5Cobjects.5CRte_NvM_Type.136::
                        1613 .LDWlin136:
000005b8 a3970300       1614 	ld.bu	3[sp],r18

                                                                      Page 30
                                                              C:\Users\nhuliyap\AppData\Local\Temp\gh_00008cs1.s
000005bc 6392           1615 	cmp	3,r18
000005be b205*          1616 	be	.L2374
                        1617 --line565
                        1618 ..lin.C.3A.5C_ECU2.5CECU_Rivian_A1.5CTarget.5Crepo_projects.5CpRealEcu.5CcL_LATEST.5Cmake.5Coutput.5Cobjects.5CRte_NvM_Type.137::
                        1619 .LDWlin137:
000005c0 dd1f0200       1620 	set1	3,2[r29]
                        1621 .L2374:
                        1622 --	    .ef
                        1623 .LDW56:
000005c4 42067f00       1624 	dispose	1,{r29,r31},[lp]
                        1625 	.global	___ghs_eofn_Memstack_Appl_JobEndCallback_DemNvm_IdEvMemLoc8
                        1626 ___ghs_eofn_Memstack_Appl_JobEndCallback_DemNvm_IdEvMemLoc8:
                        1627 	.type	_Memstack_Appl_JobEndCallback_DemNvm_IdEvMemLoc8,@function
                        1628 	.size	_Memstack_Appl_JobEndCallback_DemNvm_IdEvMemLoc8,.-_Memstack_Appl_JobEndCallback_DemNvm_IdEvMemLoc8
                        1629 	.align	2
                        1630 --_ucRequestResult	3[sp]	local
                        1631 
                        1632 	.data
                        1633 	.text
                        1634 	.align	2
                        1635 	.align	2
                        1636 ..gh.f.f.1.e.28:
                        1637 	.type	..gh.f.f.1.e.28,@object
                        1638 	.size	..gh.f.f.1.e.28,0
                        1639 	.global	_Memstack_Appl_JobEndCallback_DemNvm_IdEvMemLoc9
                        1640 _Memstack_Appl_JobEndCallback_DemNvm_IdEvMemLoc9:
000005c8 82076100       1641 	prepare	{r29,r31},1
000005cc 3d0600000000*  1642 	mov	_ulCurrentNvmConsistence,r29
                        1643 --	    .bf
                        1644 .LDW66:
                        1645 --line572
                        1646 ..lin.C.3A.5C_ECU2.5CECU_Rivian_A1.5CTarget.5Crepo_projects.5CpRealEcu.5CcL_LATEST.5Cmake.5Coutput.5Cobjects.5CRte_NvM_Type.138::
                        1647 .LDWlin138:
000005d2 20361800       1648 	movea	24,zero,r6
000005d6 233e0300       1649 	movea	3,sp,r7
                        1650 	jarl	_NvM_GetErrorStatus,lp
                        1650 <EXPANSION BEGIN>
                        1650 jarl22 _NvM_GetErrorStatus , lp 
000005da 80ff0000*      1650 <EXPANSION END>
                        1651 --line574
                        1652 ..lin.C.3A.5C_ECU2.5CECU_Rivian_A1.5CTarget.5Crepo_projects.5CpRealEcu.5CcL_LATEST.5Cmake.5Coutput.5Cobjects.5CRte_NvM_Type.139::
                        1653 .LDWlin139:
000005de a3970300       1654 	ld.bu	3[sp],r18
000005e2 6392           1655 	cmp	3,r18
000005e4 b205*          1656 	be	.L2438
                        1657 --line576
                        1658 ..lin.C.3A.5C_ECU2.5CECU_Rivian_A1.5CTarget.5Crepo_projects.5CpRealEcu.5CcL_LATEST.5Cmake.5Coutput.5Cobjects.5CRte_NvM_Type.140::
                        1659 .LDWlin140:
000005e6 dd270200       1660 	set1	4,2[r29]
                        1661 .L2438:
                        1662 --	    .ef
                        1663 .LDW76:
000005ea 42067f00       1664 	dispose	1,{r29,r31},[lp]
                        1665 	.global	___ghs_eofn_Memstack_Appl_JobEndCallback_DemNvm_IdEvMemLoc9
                        1666 ___ghs_eofn_Memstack_Appl_JobEndCallback_DemNvm_IdEvMemLoc9:
                        1667 	.type	_Memstack_Appl_JobEndCallback_DemNvm_IdEvMemLoc9,@function
                        1668 	.size	_Memstack_Appl_JobEndCallback_DemNvm_IdEvMemLoc9,.-_Memstack_Appl_JobEndCallback_DemNvm_IdEvMemLoc9
                        1669 	.align	2
                        1670 --_ucRequestResult	3[sp]	local
                        1671 
                        1672 	.data

                                                                      Page 31
                                                              C:\Users\nhuliyap\AppData\Local\Temp\gh_00008cs1.s
                        1673 	.text
                        1674 	.align	2
                        1675 	.align	2
                        1676 ..gh.f.f.1.e.29:
                        1677 	.type	..gh.f.f.1.e.29,@object
                        1678 	.size	..gh.f.f.1.e.29,0
                        1679 	.global	_Memstack_Appl_JobEndCallback_DemNvm_IdDemGenericNvData
                        1680 _Memstack_Appl_JobEndCallback_DemNvm_IdDemGenericNvData:
000005ee 82076100       1681 	prepare	{r29,r31},1
000005f2 3d0600000000*  1682 	mov	_ulCurrentNvmConsistence,r29
                        1683 --	    .bf
                        1684 .LDW86:
                        1685 --line583
                        1686 ..lin.C.3A.5C_ECU2.5CECU_Rivian_A1.5CTarget.5Crepo_projects.5CpRealEcu.5CcL_LATEST.5Cmake.5Coutput.5Cobjects.5CRte_NvM_Type.141::
                        1687 .LDWlin141:
000005f8 20361900       1688 	movea	25,zero,r6
000005fc 233e0300       1689 	movea	3,sp,r7
                        1690 	jarl	_NvM_GetErrorStatus,lp
                        1690 <EXPANSION BEGIN>
                        1690 jarl22 _NvM_GetErrorStatus , lp 
00000600 80ff0000*      1690 <EXPANSION END>
                        1691 --line585
                        1692 ..lin.C.3A.5C_ECU2.5CECU_Rivian_A1.5CTarget.5Crepo_projects.5CpRealEcu.5CcL_LATEST.5Cmake.5Coutput.5Cobjects.5CRte_NvM_Type.142::
                        1693 .LDWlin142:
00000604 a3970300       1694 	ld.bu	3[sp],r18
00000608 6392           1695 	cmp	3,r18
0000060a b205*          1696 	be	.L2502
                        1697 --line587
                        1698 ..lin.C.3A.5C_ECU2.5CECU_Rivian_A1.5CTarget.5Crepo_projects.5CpRealEcu.5CcL_LATEST.5Cmake.5Coutput.5Cobjects.5CRte_NvM_Type.143::
                        1699 .LDWlin143:
0000060c dd2f0200       1700 	set1	5,2[r29]
                        1701 .L2502:
                        1702 --	    .ef
                        1703 .LDW96:
00000610 42067f00       1704 	dispose	1,{r29,r31},[lp]
                        1705 	.global	___ghs_eofn_Memstack_Appl_JobEndCallback_DemNvm_IdDemGenericNvData
                        1706 ___ghs_eofn_Memstack_Appl_JobEndCallback_DemNvm_IdDemGenericNvData:
                        1707 	.type	_Memstack_Appl_JobEndCallback_DemNvm_IdDemGenericNvData,@function
                        1708 	.size	_Memstack_Appl_JobEndCallback_DemNvm_IdDemGenericNvData,.-_Memstack_Appl_JobEndCallback_DemNvm_IdDemGenericNvData
                        1709 	.align	2
                        1710 --_ucRequestResult	3[sp]	local
                        1711 
                        1712 	.data
                        1713 	.text
                        1714 	.align	2
                        1715 	.align	2
                        1716 ..gh.f.f.1.e.30:
                        1717 	.type	..gh.f.f.1.e.30,@object
                        1718 	.size	..gh.f.f.1.e.30,0
                        1719 	.global	_Memstack_Appl_JobEndCallback_ECUM_CFG_NVM_BLOCK
                        1720 _Memstack_Appl_JobEndCallback_ECUM_CFG_NVM_BLOCK:
00000614 82076100       1721 	prepare	{r29,r31},1
00000618 3d0600000000*  1722 	mov	_ulCurrentNvmConsistence,r29
                        1723 --	    .bf
                        1724 .LDW07:
                        1725 --line594
                        1726 ..lin.C.3A.5C_ECU2.5CECU_Rivian_A1.5CTarget.5Crepo_projects.5CpRealEcu.5CcL_LATEST.5Cmake.5Coutput.5Cobjects.5CRte_NvM_Type.144::
                        1727 .LDWlin144:
0000061e 0d32           1728 	mov	13,r6
00000620 233e0300       1729 	movea	3,sp,r7
                        1730 	jarl	_NvM_GetErrorStatus,lp

                                                                      Page 32
                                                              C:\Users\nhuliyap\AppData\Local\Temp\gh_00008cs1.s
                        1730 <EXPANSION BEGIN>
                        1730 jarl22 _NvM_GetErrorStatus , lp 
00000624 80ff0000*      1730 <EXPANSION END>
                        1731 --line596
                        1732 ..lin.C.3A.5C_ECU2.5CECU_Rivian_A1.5CTarget.5Crepo_projects.5CpRealEcu.5CcL_LATEST.5Cmake.5Coutput.5Cobjects.5CRte_NvM_Type.145::
                        1733 .LDWlin145:
00000628 a3970300       1734 	ld.bu	3[sp],r18
0000062c 6392           1735 	cmp	3,r18
0000062e b205*          1736 	be	.L2566
                        1737 --line598
                        1738 ..lin.C.3A.5C_ECU2.5CECU_Rivian_A1.5CTarget.5Crepo_projects.5CpRealEcu.5CcL_LATEST.5Cmake.5Coutput.5Cobjects.5CRte_NvM_Type.146::
                        1739 .LDWlin146:
00000630 dd370200       1740 	set1	6,2[r29]
                        1741 .L2566:
                        1742 --	    .ef
                        1743 .LDW17:
00000634 42067f00       1744 	dispose	1,{r29,r31},[lp]
                        1745 	.global	___ghs_eofn_Memstack_Appl_JobEndCallback_ECUM_CFG_NVM_BLOCK
                        1746 ___ghs_eofn_Memstack_Appl_JobEndCallback_ECUM_CFG_NVM_BLOCK:
                        1747 	.type	_Memstack_Appl_JobEndCallback_ECUM_CFG_NVM_BLOCK,@function
                        1748 	.size	_Memstack_Appl_JobEndCallback_ECUM_CFG_NVM_BLOCK,.-_Memstack_Appl_JobEndCallback_ECUM_CFG_NVM_BLOCK
                        1749 	.align	2
                        1750 --_ucRequestResult	3[sp]	local
                        1751 
                        1752 	.data
                        1753 	.text
                        1754 	.align	2
                        1755 	.align	2
                        1756 ..gh.f.f.1.e.31:
                        1757 	.type	..gh.f.f.1.e.31,@object
                        1758 	.size	..gh.f.f.1.e.31,0
                        1759 	.global	_Memstack_Appl_JobEndCallback_BSW_Data
                        1760 _Memstack_Appl_JobEndCallback_BSW_Data:
00000638 82076100       1761 	prepare	{r29,r31},1
0000063c 3d0600000000*  1762 	mov	_ulCurrentNvmConsistence,r29
                        1763 --	    .bf
                        1764 .LDW27:
                        1765 --line605
                        1766 ..lin.C.3A.5C_ECU2.5CECU_Rivian_A1.5CTarget.5Crepo_projects.5CpRealEcu.5CcL_LATEST.5Cmake.5Coutput.5Cobjects.5CRte_NvM_Type.147::
                        1767 .LDWlin147:
00000642 0c32           1768 	mov	12,r6
00000644 233e0300       1769 	movea	3,sp,r7
                        1770 	jarl	_NvM_GetErrorStatus,lp
                        1770 <EXPANSION BEGIN>
                        1770 jarl22 _NvM_GetErrorStatus , lp 
00000648 80ff0000*      1770 <EXPANSION END>
                        1771 --line607
                        1772 ..lin.C.3A.5C_ECU2.5CECU_Rivian_A1.5CTarget.5Crepo_projects.5CpRealEcu.5CcL_LATEST.5Cmake.5Coutput.5Cobjects.5CRte_NvM_Type.148::
                        1773 .LDWlin148:
0000064c a3970300       1774 	ld.bu	3[sp],r18
00000650 6392           1775 	cmp	3,r18
00000652 b205*          1776 	be	.L2630
                        1777 --line609
                        1778 ..lin.C.3A.5C_ECU2.5CECU_Rivian_A1.5CTarget.5Crepo_projects.5CpRealEcu.5CcL_LATEST.5Cmake.5Coutput.5Cobjects.5CRte_NvM_Type.149::
                        1779 .LDWlin149:
00000654 dd3f0200       1780 	set1	7,2[r29]
                        1781 .L2630:
                        1782 --	    .ef
                        1783 .LDW37:
00000658 42067f00       1784 	dispose	1,{r29,r31},[lp]
                        1785 	.global	___ghs_eofn_Memstack_Appl_JobEndCallback_BSW_Data

                                                                      Page 33
                                                              C:\Users\nhuliyap\AppData\Local\Temp\gh_00008cs1.s
                        1786 ___ghs_eofn_Memstack_Appl_JobEndCallback_BSW_Data:
                        1787 	.type	_Memstack_Appl_JobEndCallback_BSW_Data,@function
                        1788 	.size	_Memstack_Appl_JobEndCallback_BSW_Data,.-_Memstack_Appl_JobEndCallback_BSW_Data
                        1789 	.align	2
                        1790 --_ucRequestResult	3[sp]	local
                        1791 
                        1792 	.data
                        1793 	.text
                        1794 	.align	2
                        1795 	.align	2
                        1796 ..gh.f.f.1.e.32:
                        1797 	.type	..gh.f.f.1.e.32,@object
                        1798 	.size	..gh.f.f.1.e.32,0
                        1799 	.global	_Memstack_GetCurrentNvMConsistence
                        1800 _Memstack_GetCurrentNvMConsistence:
0000065c 40560000*      1801 	movhi	hi(_ulCurrentNvmConsistence),zero,r10
                        1802 --	    .bf
                        1803 .LDW47:
                        1804 --line614
                        1805 ..lin.C.3A.5C_ECU2.5CECU_Rivian_A1.5CTarget.5Crepo_projects.5CpRealEcu.5CcL_LATEST.5Cmake.5Coutput.5Cobjects.5CRte_NvM_Type.150::
                        1806 .LDWlin150:
00000660 2a570100*      1807 	ld.w	lo(_ulCurrentNvmConsistence)[r10],r10
                        1808 --	    .ef
                        1809 .LDW57:
00000664 7f00           1810 	jmp	[lp]
                        1811 	.global	___ghs_eofn_Memstack_GetCurrentNvMConsistence
                        1812 ___ghs_eofn_Memstack_GetCurrentNvMConsistence:
                        1813 	.type	_Memstack_GetCurrentNvMConsistence,@function
                        1814 	.size	_Memstack_GetCurrentNvMConsistence,.-_Memstack_GetCurrentNvMConsistence
                        1815 	.align	2
                        1816 
                        1817 	.data
                        1818 	.text
                        1819 	.align	2
                        1820 	.align	2
                        1821 ..gh.f.f.1.e.33:
                        1822 	.type	..gh.f.f.1.e.33,@object
                        1823 	.size	..gh.f.f.1.e.33,0
                        1824 	.global	_Memstack_ClearCurrentNvMConsistence
                        1825 _Memstack_ClearCurrentNvMConsistence:
00000666 40960000*      1826 	movhi	hi(_ulCurrentNvmConsistence),zero,r18
                        1827 --	    .bf
                        1828 .LDW67:
                        1829 --line618
                        1830 ..lin.C.3A.5C_ECU2.5CECU_Rivian_A1.5CTarget.5Crepo_projects.5CpRealEcu.5CcL_LATEST.5Cmake.5Coutput.5Cobjects.5CRte_NvM_Type.151::
                        1831 .LDWlin151:
0000066a 72070100*      1832 	st.w	zero,lo(_ulCurrentNvmConsistence)[r18]
                        1833 --	    .ef
                        1834 .LDW77:
0000066e 7f00           1835 	jmp	[lp]
                        1836 	.global	___ghs_eofn_Memstack_ClearCurrentNvMConsistence
                        1837 ___ghs_eofn_Memstack_ClearCurrentNvMConsistence:
                        1838 	.type	_Memstack_ClearCurrentNvMConsistence,@function
                        1839 	.size	_Memstack_ClearCurrentNvMConsistence,.-_Memstack_ClearCurrentNvMConsistence
                        1840 	.align	2
                        1841 
                        1842 	.data
                        1843 	.text
                        1844 	.align	2
                        1845 --_Fls_GstConfiguration	_Fls_GstConfiguration	import
                        1846 --_ucCatSaveOnEvent	_ucCatSaveOnEvent	static

                                                                      Page 34
                                                              C:\Users\nhuliyap\AppData\Local\Temp\gh_00008cs1.s
                        1847 --_ucCatRamBlockStatus	_ucCatRamBlockStatus	static
                        1848 --_ulCurrentNvmConsistence	_ulCurrentNvmConsistence	static
                        1849 --_ucNvMCatSizeCum	_ucNvMCatSizeCum	static
                        1850 
                        1851 	.data
                        1852 	.global	_Ram_NvMBlock_CAT10
00000028 00             1853 _Ram_NvMBlock_CAT10:	.space	1
00000029 000000         1854 	.space	3
                        1855 	.type	_Ram_NvMBlock_CAT10,@object
                        1856 	.size	_Ram_NvMBlock_CAT10,4
                        1857 	.global	_Rom_NvMBlock_CAT10
0000002c 00             1858 _Rom_NvMBlock_CAT10:	.space	1
0000002d 000000         1859 	.space	3
                        1860 	.type	_Rom_NvMBlock_CAT10,@object
                        1861 	.size	_Rom_NvMBlock_CAT10,4
                        1862 	.global	_Ram_NvMBlock_CAT05
00000030 00             1863 _Ram_NvMBlock_CAT05:	.space	1
00000031 000000000000   1864 	.space	47
00000037 000000000000 
0000003d 000000000000 
00000043 000000000000 
00000049 000000000000 
0000004f 000000000000 
00000055 000000000000 
0000005b 0000000000 
                        1865 	.type	_Ram_NvMBlock_CAT05,@object
                        1866 	.size	_Ram_NvMBlock_CAT05,48
                        1867 	.global	_Ram_NvMBlock_CAT06
00000060 00             1868 _Ram_NvMBlock_CAT06:	.space	1
00000061 000000000000   1869 	.space	47
00000067 000000000000 
0000006d 000000000000 
00000073 000000000000 
00000079 000000000000 
0000007f 000000000000 
00000085 000000000000 
0000008b 0000000000 
                        1870 	.type	_Ram_NvMBlock_CAT06,@object
                        1871 	.size	_Ram_NvMBlock_CAT06,48
                        1872 	.global	_Ram_NvMBlock_CAT07
00000090 00             1873 _Ram_NvMBlock_CAT07:	.space	1
00000091 000000000000   1874 	.space	23
00000097 000000000000 
0000009d 000000000000 
000000a3 0000000000 
                        1875 	.type	_Ram_NvMBlock_CAT07,@object
                        1876 	.size	_Ram_NvMBlock_CAT07,24
                        1877 	.global	_Ram_NvMBlock_CAT08
000000a8 00             1878 _Ram_NvMBlock_CAT08:	.space	1
000000a9 000000000000   1879 	.space	23
000000af 000000000000 
000000b5 000000000000 
000000bb 0000000000 
                        1880 	.type	_Ram_NvMBlock_CAT08,@object
                        1881 	.size	_Ram_NvMBlock_CAT08,24
                        1882 	.global	_Ram_NvMBlock_CAT09
000000c0 00             1883 _Ram_NvMBlock_CAT09:	.space	1
000000c1 000000000000   1884 	.space	31
000000c7 000000000000 
000000cd 000000000000 
000000d3 000000000000 

                                                                      Page 35
                                                              C:\Users\nhuliyap\AppData\Local\Temp\gh_00008cs1.s
000000d9 000000000000 
000000df 00 
                        1885 	.type	_Ram_NvMBlock_CAT09,@object
                        1886 	.size	_Ram_NvMBlock_CAT09,32
                        1887 	.global	_Ram_NvMBlock_BSW_Data
000000e0 00             1888 _Ram_NvMBlock_BSW_Data:	.space	1
000000e1 000000000000   1889 	.space	63
000000e7 000000000000 
000000ed 000000000000 
000000f3 000000000000 
000000f9 000000000000 
000000ff 000000000000 
00000105 000000000000 
0000010b 000000000000 
00000111 000000000000 
00000117 000000000000 
0000011d 000000 
                        1890 	.type	_Ram_NvMBlock_BSW_Data,@object
                        1891 	.size	_Ram_NvMBlock_BSW_Data,64
                        1892 	.global	_pCategoryRamBlock
00000120 00000000*      1893 _pCategoryRamBlock:	.word	_Ram_NvMBlock_CAT01
00000124 00000000*      1894 	.word	_Ram_NvMBlock_CAT02
00000128 00000000*      1895 	.word	_Ram_NvMBlock_CAT03
0000012c 00000000*      1896 	.word	_Ram_NvMBlock_CAT04
00000130 00000000*      1897 	.word	_Ram_NvMBlock_CAT05
00000134 00000000*      1898 	.word	_Ram_NvMBlock_CAT06
00000138 00000000*      1899 	.word	_Ram_NvMBlock_CAT07
0000013c 00000000*      1900 	.word	_Ram_NvMBlock_CAT08
00000140 00000000*      1901 	.word	_Ram_NvMBlock_CAT09
00000144 00000000*      1902 	.word	_Ram_NvMBlock_CAT10
                        1903 	.type	_pCategoryRamBlock,@object
                        1904 	.size	_pCategoryRamBlock,40
                        1905 	.global	_Rom_NvMBlock_CAT05
00000148 00             1906 _Rom_NvMBlock_CAT05:	.space	1
00000149 000000000000   1907 	.space	47
0000014f 000000000000 
00000155 000000000000 
0000015b 000000000000 
00000161 000000000000 
00000167 000000000000 
0000016d 000000000000 
00000173 0000000000 
                        1908 	.type	_Rom_NvMBlock_CAT05,@object
                        1909 	.size	_Rom_NvMBlock_CAT05,48
                        1910 	.global	_Rom_NvMBlock_CAT06
00000178 00             1911 _Rom_NvMBlock_CAT06:	.space	1
00000179 000000000000   1912 	.space	47
0000017f 000000000000 
00000185 000000000000 
0000018b 000000000000 
00000191 000000000000 
00000197 000000000000 
0000019d 000000000000 
000001a3 0000000000 
                        1913 	.type	_Rom_NvMBlock_CAT06,@object
                        1914 	.size	_Rom_NvMBlock_CAT06,48
                        1915 	.global	_Rom_NvMBlock_CAT07
000001a8 00             1916 _Rom_NvMBlock_CAT07:	.space	1
000001a9 000000000000   1917 	.space	23
000001af 000000000000 
000001b5 000000000000 

                                                                      Page 36
                                                              C:\Users\nhuliyap\AppData\Local\Temp\gh_00008cs1.s
000001bb 0000000000 
                        1918 	.type	_Rom_NvMBlock_CAT07,@object
                        1919 	.size	_Rom_NvMBlock_CAT07,24
                        1920 	.global	_Rom_NvMBlock_CAT08
000001c0 00             1921 _Rom_NvMBlock_CAT08:	.space	1
000001c1 000000000000   1922 	.space	23
000001c7 000000000000 
000001cd 000000000000 
000001d3 0000000000 
                        1923 	.type	_Rom_NvMBlock_CAT08,@object
                        1924 	.size	_Rom_NvMBlock_CAT08,24
                        1925 	.global	_Rom_NvMBlock_CAT09
000001d8 00             1926 _Rom_NvMBlock_CAT09:	.space	1
000001d9 000000000000   1927 	.space	31
000001df 000000000000 
000001e5 000000000000 
000001eb 000000000000 
000001f1 000000000000 
000001f7 00 
                        1928 	.type	_Rom_NvMBlock_CAT09,@object
                        1929 	.size	_Rom_NvMBlock_CAT09,32
                        1930 	.global	_Rom_NvMBlock_DemNvm_IdEvMemLoc0
000001f8 00             1931 _Rom_NvMBlock_DemNvm_IdEvMemLoc0:	.space	1
000001f9 000000000000   1932 	.space	47
000001ff 000000000000 
00000205 000000000000 
0000020b 000000000000 
00000211 000000000000 
00000217 000000000000 
0000021d 000000000000 
00000223 0000000000 
                        1933 	.type	_Rom_NvMBlock_DemNvm_IdEvMemLoc0,@object
                        1934 	.size	_Rom_NvMBlock_DemNvm_IdEvMemLoc0,48
                        1935 	.global	_Rom_NvMBlock_DemNvm_IdEvMemLoc1
00000228 00             1936 _Rom_NvMBlock_DemNvm_IdEvMemLoc1:	.space	1
00000229 000000000000   1937 	.space	47
0000022f 000000000000 
00000235 000000000000 
0000023b 000000000000 
00000241 000000000000 
00000247 000000000000 
0000024d 000000000000 
00000253 0000000000 
                        1938 	.type	_Rom_NvMBlock_DemNvm_IdEvMemLoc1,@object
                        1939 	.size	_Rom_NvMBlock_DemNvm_IdEvMemLoc1,48
                        1940 	.global	_Rom_NvMBlock_DemNvm_IdEvMemLoc2
00000258 00             1941 _Rom_NvMBlock_DemNvm_IdEvMemLoc2:	.space	1
00000259 000000000000   1942 	.space	47
0000025f 000000000000 
00000265 000000000000 
0000026b 000000000000 
00000271 000000000000 
00000277 000000000000 
0000027d 000000000000 
00000283 0000000000 
                        1943 	.type	_Rom_NvMBlock_DemNvm_IdEvMemLoc2,@object
                        1944 	.size	_Rom_NvMBlock_DemNvm_IdEvMemLoc2,48
                        1945 	.global	_Rom_NvMBlock_DemNvm_IdEvMemLoc3
00000288 00             1946 _Rom_NvMBlock_DemNvm_IdEvMemLoc3:	.space	1
00000289 000000000000   1947 	.space	47
0000028f 000000000000 

                                                                      Page 37
                                                              C:\Users\nhuliyap\AppData\Local\Temp\gh_00008cs1.s
00000295 000000000000 
0000029b 000000000000 
000002a1 000000000000 
000002a7 000000000000 
000002ad 000000000000 
000002b3 0000000000 
                        1948 	.type	_Rom_NvMBlock_DemNvm_IdEvMemLoc3,@object
                        1949 	.size	_Rom_NvMBlock_DemNvm_IdEvMemLoc3,48
                        1950 	.global	_Rom_NvMBlock_DemNvm_IdEvMemLoc4
000002b8 00             1951 _Rom_NvMBlock_DemNvm_IdEvMemLoc4:	.space	1
000002b9 000000000000   1952 	.space	47
000002bf 000000000000 
000002c5 000000000000 
000002cb 000000000000 
000002d1 000000000000 
000002d7 000000000000 
000002dd 000000000000 
000002e3 0000000000 
                        1953 	.type	_Rom_NvMBlock_DemNvm_IdEvMemLoc4,@object
                        1954 	.size	_Rom_NvMBlock_DemNvm_IdEvMemLoc4,48
                        1955 	.global	_Rom_NvMBlock_DemNvm_IdEvMemLoc5
000002e8 00             1956 _Rom_NvMBlock_DemNvm_IdEvMemLoc5:	.space	1
000002e9 000000000000   1957 	.space	47
000002ef 000000000000 
000002f5 000000000000 
000002fb 000000000000 
00000301 000000000000 
00000307 000000000000 
0000030d 000000000000 
00000313 0000000000 
                        1958 	.type	_Rom_NvMBlock_DemNvm_IdEvMemLoc5,@object
                        1959 	.size	_Rom_NvMBlock_DemNvm_IdEvMemLoc5,48
                        1960 	.global	_Rom_NvMBlock_DemNvm_IdEvMemLoc6
00000318 00             1961 _Rom_NvMBlock_DemNvm_IdEvMemLoc6:	.space	1
00000319 000000000000   1962 	.space	47
0000031f 000000000000 
00000325 000000000000 
0000032b 000000000000 
00000331 000000000000 
00000337 000000000000 
0000033d 000000000000 
00000343 0000000000 
                        1963 	.type	_Rom_NvMBlock_DemNvm_IdEvMemLoc6,@object
                        1964 	.size	_Rom_NvMBlock_DemNvm_IdEvMemLoc6,48
                        1965 	.global	_Rom_NvMBlock_DemNvm_IdEvMemLoc7
00000348 00             1966 _Rom_NvMBlock_DemNvm_IdEvMemLoc7:	.space	1
00000349 000000000000   1967 	.space	47
0000034f 000000000000 
00000355 000000000000 
0000035b 000000000000 
00000361 000000000000 
00000367 000000000000 
0000036d 000000000000 
00000373 0000000000 
                        1968 	.type	_Rom_NvMBlock_DemNvm_IdEvMemLoc7,@object
                        1969 	.size	_Rom_NvMBlock_DemNvm_IdEvMemLoc7,48
                        1970 	.global	_Rom_NvMBlock_DemNvm_IdEvMemLoc8
00000378 00             1971 _Rom_NvMBlock_DemNvm_IdEvMemLoc8:	.space	1
00000379 000000000000   1972 	.space	47
0000037f 000000000000 
00000385 000000000000 

                                                                      Page 38
                                                              C:\Users\nhuliyap\AppData\Local\Temp\gh_00008cs1.s
0000038b 000000000000 
00000391 000000000000 
00000397 000000000000 
0000039d 000000000000 
000003a3 0000000000 
                        1973 	.type	_Rom_NvMBlock_DemNvm_IdEvMemLoc8,@object
                        1974 	.size	_Rom_NvMBlock_DemNvm_IdEvMemLoc8,48
                        1975 	.global	_Rom_NvMBlock_DemNvm_IdEvMemLoc9
000003a8 00             1976 _Rom_NvMBlock_DemNvm_IdEvMemLoc9:	.space	1
000003a9 000000000000   1977 	.space	47
000003af 000000000000 
000003b5 000000000000 
000003bb 000000000000 
000003c1 000000000000 
000003c7 000000000000 
000003cd 000000000000 
000003d3 0000000000 
                        1978 	.type	_Rom_NvMBlock_DemNvm_IdEvMemLoc9,@object
                        1979 	.size	_Rom_NvMBlock_DemNvm_IdEvMemLoc9,48
                        1980 	.global	_Rom_NvMBlock_BSW_Data
000003d8 00             1981 _Rom_NvMBlock_BSW_Data:	.space	1
000003d9 000000000000   1982 	.space	63
000003df 000000000000 
000003e5 000000000000 
000003eb 000000000000 
000003f1 000000000000 
000003f7 000000000000 
000003fd 000000000000 
00000403 000000000000 
00000409 000000000000 
0000040f 000000000000 
00000415 000000 
                        1983 	.type	_Rom_NvMBlock_BSW_Data,@object
                        1984 	.size	_Rom_NvMBlock_BSW_Data,64
                        1985 	.global	_Ram_NvMBlock_CAT01
00000418 00             1986 _Ram_NvMBlock_CAT01:	.space	1
00000419 000000000000   1987 	.space	51
0000041f 000000000000 
00000425 000000000000 
0000042b 000000000000 
00000431 000000000000 
00000437 000000000000 
0000043d 000000000000 
00000443 000000000000 
00000449 000000 
                        1988 	.type	_Ram_NvMBlock_CAT01,@object
                        1989 	.size	_Ram_NvMBlock_CAT01,52
                        1990 	.global	_Ram_NvMBlock_CAT02
0000044c 00             1991 _Ram_NvMBlock_CAT02:	.space	1
0000044d 000000000000   1992 	.space	51
00000453 000000000000 
00000459 000000000000 
0000045f 000000000000 
00000465 000000000000 
0000046b 000000000000 
00000471 000000000000 
00000477 000000000000 
0000047d 000000 
                        1993 	.type	_Ram_NvMBlock_CAT02,@object
                        1994 	.size	_Ram_NvMBlock_CAT02,52
                        1995 	.global	_Ram_NvMBlock_CAT04

                                                                      Page 39
                                                              C:\Users\nhuliyap\AppData\Local\Temp\gh_00008cs1.s
00000480 00             1996 _Ram_NvMBlock_CAT04:	.space	1
00000481 000000000000   1997 	.space	19
00000487 000000000000 
0000048d 000000000000 
00000493 00 
                        1998 	.type	_Ram_NvMBlock_CAT04,@object
                        1999 	.size	_Ram_NvMBlock_CAT04,20
                        2000 	.global	_Ram_ECUM_CFG_NVM_BLOCK
00000494 00             2001 _Ram_ECUM_CFG_NVM_BLOCK:	.space	1
00000495 000000000000   2002 	.space	19
0000049b 000000000000 
000004a1 000000000000 
000004a7 00 
                        2003 	.type	_Ram_ECUM_CFG_NVM_BLOCK,@object
                        2004 	.size	_Ram_ECUM_CFG_NVM_BLOCK,20
                        2005 	.global	_Rom_NvMBlock_CAT01
000004a8 00             2006 _Rom_NvMBlock_CAT01:	.space	1
000004a9 000000000000   2007 	.space	51
000004af 000000000000 
000004b5 000000000000 
000004bb 000000000000 
000004c1 000000000000 
000004c7 000000000000 
000004cd 000000000000 
000004d3 000000000000 
000004d9 000000 
                        2008 	.type	_Rom_NvMBlock_CAT01,@object
                        2009 	.size	_Rom_NvMBlock_CAT01,52
                        2010 	.global	_Rom_NvMBlock_CAT02
000004dc 00             2011 _Rom_NvMBlock_CAT02:	.space	1
000004dd 000000000000   2012 	.space	51
000004e3 000000000000 
000004e9 000000000000 
000004ef 000000000000 
000004f5 000000000000 
000004fb 000000000000 
00000501 000000000000 
00000507 000000000000 
0000050d 000000 
                        2013 	.type	_Rom_NvMBlock_CAT02,@object
                        2014 	.size	_Rom_NvMBlock_CAT02,52
                        2015 	.global	_Rom_NvMBlock_CAT04
00000510 00             2016 _Rom_NvMBlock_CAT04:	.space	1
00000511 000000000000   2017 	.space	19
00000517 000000000000 
0000051d 000000000000 
00000523 00 
                        2018 	.type	_Rom_NvMBlock_CAT04,@object
                        2019 	.size	_Rom_NvMBlock_CAT04,20
                        2020 	.global	_Rom_ECUM_CFG_NVM_BLOCK
00000524 00             2021 _Rom_ECUM_CFG_NVM_BLOCK:	.space	1
00000525 000000000000   2022 	.space	19
0000052b 000000000000 
00000531 000000000000 
00000537 00 
                        2023 	.type	_Rom_ECUM_CFG_NVM_BLOCK,@object
                        2024 	.size	_Rom_ECUM_CFG_NVM_BLOCK,20
                        2025 	.global	_Rom_NvMBlock_DemNvm_IdDemGenericNvData
00000538 00             2026 _Rom_NvMBlock_DemNvm_IdDemGenericNvData:	.space	1
00000539 000000000000   2027 	.space	21
0000053f 000000000000 

                                                                      Page 40
                                                              C:\Users\nhuliyap\AppData\Local\Temp\gh_00008cs1.s
00000545 000000000000 
0000054b 000000 
0000054e 0000           2028 	.space	2
                        2029 	.type	_Rom_NvMBlock_DemNvm_IdDemGenericNvData,@object
                        2030 	.size	_Rom_NvMBlock_DemNvm_IdDemGenericNvData,24
                        2031 	.global	_Rom_NvMBlock_DemNvm_IdEvStatusByte
00000550 00             2032 _Rom_NvMBlock_DemNvm_IdEvStatusByte:	.space	1
00000551 000000000000   2033 	.space	34
00000557 000000000000 
0000055d 000000000000 
00000563 000000000000 
00000569 000000000000 
0000056f 00000000 
00000573 00             2034 	.space	1
                        2035 	.type	_Rom_NvMBlock_DemNvm_IdEvStatusByte,@object
                        2036 	.size	_Rom_NvMBlock_DemNvm_IdEvStatusByte,36
                        2037 	.global	_Ram_NvMBlock_CAT03
00000574 00             2038 _Ram_NvMBlock_CAT03:	.space	1
00000575 000000000000   2039 	.space	95
0000057b 000000000000 
00000581 000000000000 
00000587 000000000000 
0000058d 000000000000 
00000593 000000000000 
00000599 000000000000 
0000059f 000000000000 
000005a5 000000000000 
000005ab 000000000000 
000005b1 000000000000 
000005b7 000000000000 
000005bd 000000000000 
000005c3 000000000000 
000005c9 000000000000 
000005cf 0000000000 
                        2040 	.type	_Ram_NvMBlock_CAT03,@object
                        2041 	.size	_Ram_NvMBlock_CAT03,96
                        2042 	.global	_Rom_NvMBlock_CAT03
000005d4 00             2043 _Rom_NvMBlock_CAT03:	.space	1
000005d5 000000000000   2044 	.space	95
000005db 000000000000 
000005e1 000000000000 
000005e7 000000000000 
000005ed 000000000000 
000005f3 000000000000 
000005f9 000000000000 
000005ff 000000000000 
00000605 000000000000 
0000060b 000000000000 
00000611 000000000000 
00000617 000000000000 
0000061d 000000000000 
00000623 000000000000 
00000629 000000000000 
0000062f 0000000000 
                        2045 	.type	_Rom_NvMBlock_CAT03,@object
                        2046 	.size	_Rom_NvMBlock_CAT03,96
                        2047 	.ghsnote version,17
                        2048 	.ghsnote tools,3
                        2049 	.ghsnote options,144
                        2050 	.text
                        2051 	.align	2

                                                                      Page 41
                                                              C:\Users\nhuliyap\AppData\Local\Temp\gh_00008cs1.s
                        2052 ..eof.C.3A.5C_ECU2.5CECU_Rivian_A1.5CTarget.5Crepo_projects.5CpRealEcu.5CcL_LATEST.5Cmake.5Coutput.5Cobjects.5CRte_NvM_Type...43.3A.5C_ECU2.5CECU_Rivian_A1.5CTarget.5Crepo_projects.5CpRealEcu.5CcL_LATEST.5Cmake..64F82DF5..0::
                        2053 	.section	.debug_info
                        2054 .Ldw_begin:
00000000 4b1d0000       2055 	.word	.Ldw_end-.Ldw_begin-4
00000004 0200           2056 	.byte	2,0
00000006 00000000*      2057 	.word	.Ldw_abbr_begin
0000000a 04             2058 	.byte	4
                        2059 	.section	.debug_abbrev
                        2060 .Ldw_abbr_begin:
                        2061 	.section	.debug_info
0000000b 01             2062 	.byte	1
0000000c 00000000*      2063 	.word	..bof.C.3A.5C_ECU2.5CECU_Rivian_A1.5CTarget.5Crepo_projects.5CpRealEcu.5CcL_LATEST.5Cmake.5Coutput.5Cobjects.5CRte_NvM_Type...43.3A.5C_ECU2.5CECU_Rivian_A1.5CTarget.5Crepo_projects.5CpRealEcu.5CcL_LATEST.5Cmake..64F82DF5..0
00000010 00000000*      2064 	.word	..eof.C.3A.5C_ECU2.5CECU_Rivian_A1.5CTarget.5Crepo_projects.5CpRealEcu.5CcL_LATEST.5Cmake.5Coutput.5Cobjects.5CRte_NvM_Type...43.3A.5C_ECU2.5CECU_Rivian_A1.5CTarget.5Crepo_projects.5CpRealEcu.5CcL_LATEST.5Cmake..64F82DF5..0
00000014 2e2e2f736f75   2065 	.strz	"../source/wrappers/Rte_NvM_Type.c"
0000001a 7263652f7772 
00000020 617070657273 
00000026 2f5274655f4e 
0000002c 764d5f547970 
00000032 652e6300 
00000036 433a5c5f4543   2066 	.strz	"C:\\_ECU2\\ECU_Rivian_A1\\Target\\repo_projects\\pRealEcu\\cL_LATEST\\make"
0000003c 55325c454355 
00000042 5f5269766961 
00000048 6e5f41315c54 
0000004e 61726765745c 
00000054 7265706f5f70 
0000005a 726f6a656374 
00000060 735c70526561 
00000066 6c4563755c63 
0000006c 4c5f4c415445 
00000072 53545c6d616b 
00000078 6500 
0000007a 474853204320   2067 	.strz	"GHS C 2015.1.7 [dual]"
00000080 323031352e31 
00000086 2e37205b6475 
0000008c 616c5d00 
00000090 0100           2068 	.byte	1,0
00000092 00000000*      2069 	.word	.Ldw_line_begin
00000096 00000000*      2070 	.word	.Ldw_macinfo_begin
0000009a 00             2071 	.byte	0
                        2072 
                        2073 	.section	.debug_abbrev
00000000 01             2074 	.byte	1
00000001 11             2075 	.byte	17
00000002 01             2076 	.byte	1
00000003 1101           2077 	.byte	17,1
00000005 1201           2078 	.byte	18,1
00000007 0308           2079 	.byte	3,8
00000009 1b08           2080 	.byte	27,8
0000000b 2508           2081 	.byte	37,8
0000000d 1305           2082 	.byte	19,5
0000000f 1006           2083 	.byte	16,6
00000011 4306           2084 	.byte	67,6
00000013 420b           2085 	.byte	66,11
00000015 0000           2086 	.byte	0,0
                        2087 
                        2088 	.section	.debug_line
                        2089 .Ldw_line_begin:
00000000 0e200000       2090 	.word	.Ldw_line_end-.Ldw_line_begin-4
00000004 0200           2091 	.byte	2,0
00000006 00000000*      2092 	.word	.Ldw_lpro_end-.Ldw_lpro_begin
                        2093 .Ldw_lpro_begin:

                                                                      Page 42
                                                              C:\Users\nhuliyap\AppData\Local\Temp\gh_00008cs1.s
0000000a 01             2094 	.byte	1
0000000b 00             2095 	.byte	0
0000000c 00             2096 	.byte	0
0000000d 04             2097 	.byte	4
0000000e 0a             2098 	.byte	10
0000000f 000101         2099 	.byte	0,1,1
00000012 010100         2100 	.byte	1,1,0
00000015 000001         2101 	.byte	0,0,1
00000018 00             2102 	.byte	0
00000019 2e2e2f736f75   2103 	.strz	"../source/wrappers/Rte_NvM_Type.c"
0000001f 7263652f7772 
00000025 617070657273 
0000002b 2f5274655f4e 
00000031 764d5f547970 
00000037 652e6300 
0000003b 000000         2104 	.byte	0,0,0
0000003e 2e2e2f736f75   2105 	.strz	"../source/wrappers/Rte_NvM_Type.hpp"
00000044 7263652f7772 
0000004a 617070657273 
00000050 2f5274655f4e 
00000056 764d5f547970 
0000005c 652e68707000 
00000062 000000         2106 	.byte	0,0,0
00000065 2e2e2f736f75   2107 	.strz	"../source/McalMcu/Types.hpp"
0000006b 7263652f4d63 
00000071 616c4d63752f 
00000077 54797065732e 
0000007d 68707000 
00000081 000000         2108 	.byte	0,0,0
00000084 2e2e2f736f75   2109 	.strz	"../source/common/Std_Types.hpp"
0000008a 7263652f636f 
00000090 6d6d6f6e2f53 
00000096 74645f547970 
0000009c 65732e687070 
000000a2 00 
000000a3 000000         2110 	.byte	0,0,0
000000a6 2e2e2f736f75   2111 	.strz	"../source/common/Platform_Types.hpp"
000000ac 7263652f636f 
000000b2 6d6d6f6e2f50 
000000b8 6c6174666f72 
000000be 6d5f54797065 
000000c4 732e68707000 
000000ca 000000         2112 	.byte	0,0,0
000000cd 2e2e2f736f75   2113 	.strz	"../source/common/Compiler.hpp"
000000d3 7263652f636f 
000000d9 6d6d6f6e2f43 
000000df 6f6d70696c65 
000000e5 722e68707000 
000000eb 000000         2114 	.byte	0,0,0
000000ee 2e2e2f736f75   2115 	.strz	"../source/ProjectCompiler/Compiler_Cfg.hpp"
000000f4 7263652f5072 
000000fa 6f6a65637443 
00000100 6f6d70696c65 
00000106 722f436f6d70 
0000010c 696c65725f43 
00000112 66672e687070 
00000118 00 
00000119 000000         2116 	.byte	0,0,0
0000011c 2e2e2f736f75   2117 	.strz	"../source/ProjectCompiler/CompilerCfg_SwcServiceOs.hpp"
00000122 7263652f5072 
00000128 6f6a65637443 

                                                                      Page 43
                                                              C:\Users\nhuliyap\AppData\Local\Temp\gh_00008cs1.s
0000012e 6f6d70696c65 
00000134 722f436f6d70 
0000013a 696c65724366 
00000140 675f53776353 
00000146 657276696365 
0000014c 4f732e687070 
00000152 00 
00000153 000000         2118 	.byte	0,0,0
00000156 2e2e2f736f75   2119 	.strz	"../source/wrappers/SwcServiceDem/Dem_NvmCallbacks.hpp"
0000015c 7263652f7772 
00000162 617070657273 
00000168 2f5377635365 
0000016e 727669636544 
00000174 656d2f44656d 
0000017a 5f4e766d4361 
00000180 6c6c6261636b 
00000186 732e68707000 
0000018c 000000         2120 	.byte	0,0,0
0000018f 2e2e2f736f75   2121 	.strz	"../source/ProjectCfg/Dem_Cfg_NvmCallbacks.hpp"
00000195 7263652f5072 
0000019b 6f6a65637443 
000001a1 66672f44656d 
000001a7 5f4366675f4e 
000001ad 766d43616c6c 
000001b3 6261636b732e 
000001b9 68707000 
000001bd 000000         2122 	.byte	0,0,0
000001c0 2e2e2f736f75   2123 	.strz	"../source/wrappers/SwcServiceDem/Dem_Types.hpp"
000001c6 7263652f7772 
000001cc 617070657273 
000001d2 2f5377635365 
000001d8 727669636544 
000001de 656d2f44656d 
000001e4 5f5479706573 
000001ea 2e68707000 
000001ef 000000         2124 	.byte	0,0,0
000001f2 2e2e2f736f75   2125 	.strz	"../source/ProjectCfg/Dem_Cfg.hpp"
000001f8 7263652f5072 
000001fe 6f6a65637443 
00000204 66672f44656d 
0000020a 5f4366672e68 
00000210 707000 
00000213 000000         2126 	.byte	0,0,0
00000216 2e2e2f736f75   2127 	.strz	"../source/ProjectCfg/Dem_Cfg_Client.hpp"
0000021c 7263652f5072 
00000222 6f6a65637443 
00000228 66672f44656d 
0000022e 5f4366675f43 
00000234 6c69656e742e 
0000023a 68707000 
0000023e 000000         2128 	.byte	0,0,0
00000241 2e2e2f736f75   2129 	.strz	"../source/wrappers/SwcServiceDem/Dem_ClientHandlingTypes.hpp"
00000247 7263652f7772 
0000024d 617070657273 
00000253 2f5377635365 
00000259 727669636544 
0000025f 656d2f44656d 
00000265 5f436c69656e 
0000026b 7448616e646c 
00000271 696e67547970 
00000277 65732e687070 

                                                                      Page 44
                                                              C:\Users\nhuliyap\AppData\Local\Temp\gh_00008cs1.s
0000027d 00 
0000027e 000000         2130 	.byte	0,0,0
00000281 2e2e2f736f75   2131 	.strz	"../source/ProjectCfg/Dem_Cfg_NodeId.hpp"
00000287 7263652f5072 
0000028d 6f6a65637443 
00000293 66672f44656d 
00000299 5f4366675f4e 
0000029f 6f646549642e 
000002a5 68707000 
000002a9 000000         2132 	.byte	0,0,0
000002ac 2e2e2f736f75   2133 	.strz	"../source/ProjectCfg/Dem_Cfg_Version.hpp"
000002b2 7263652f5072 
000002b8 6f6a65637443 
000002be 66672f44656d 
000002c4 5f4366675f56 
000002ca 657273696f6e 
000002d0 2e68707000 
000002d5 000000         2134 	.byte	0,0,0
000002d8 2e2e2f736f75   2135 	.strz	"../source/wrappers/Rte_Dem_Type.hpp"
000002de 7263652f7772 
000002e4 617070657273 
000002ea 2f5274655f44 
000002f0 656d5f547970 
000002f6 652e68707000 
000002fc 000000         2136 	.byte	0,0,0
000002ff 2e2e2f736f75   2137 	.strz	"../source/ProjectCompiler/Dem_MemMap.hpp"
00000305 7263652f5072 
0000030b 6f6a65637443 
00000311 6f6d70696c65 
00000317 722f44656d5f 
0000031d 4d656d4d6170 
00000323 2e68707000 
00000328 000000         2138 	.byte	0,0,0
0000032b 2e2e2f736f75   2139 	.strz	"../source/ProjectCompiler/Dem_Cfg_MemMap.hpp"
00000331 7263652f5072 
00000337 6f6a65637443 
0000033d 6f6d70696c65 
00000343 722f44656d5f 
00000349 4366675f4d65 
0000034f 6d4d61702e68 
00000355 707000 
00000358 000000         2140 	.byte	0,0,0
0000035b 2e2e2f736f75   2141 	.strz	"../source/ProjectCompiler/Bsw_MemMap.hpp"
00000361 7263652f5072 
00000367 6f6a65637443 
0000036d 6f6d70696c65 
00000373 722f4273775f 
00000379 4d656d4d6170 
0000037f 2e68707000 
00000384 000000         2142 	.byte	0,0,0
00000387 2e2e2f736f75   2143 	.strz	"../source/ProjectCompiler/MemMap_Common.hpp"
0000038d 7263652f5072 
00000393 6f6a65637443 
00000399 6f6d70696c65 
0000039f 722f4d656d4d 
000003a5 61705f436f6d 
000003ab 6d6f6e2e6870 
000003b1 7000 
000003b3 000000         2144 	.byte	0,0,0
000003b6 2e2e2f736f75   2145 	.strz	"../source/wrappers/SwcApplTpms_NvM.hpp"
000003bc 7263652f7772 

                                                                      Page 45
                                                              C:\Users\nhuliyap\AppData\Local\Temp\gh_00008cs1.s
000003c2 617070657273 
000003c8 2f5377634170 
000003ce 706c54706d73 
000003d4 5f4e764d2e68 
000003da 707000 
000003dd 000000         2146 	.byte	0,0,0
000003e0 2e2e2f736f75   2147 	.strz	"../source/SwcApplTpms/iTpms_Interface.hpp"
000003e6 7263652f5377 
000003ec 634170706c54 
000003f2 706d732f6954 
000003f8 706d735f496e 
000003fe 746572666163 
00000404 652e68707000 
0000040a 000000         2148 	.byte	0,0,0
0000040d 2e2e2f736f75   2149 	.strz	"../source/SwcApplTpms/Tpms_Rte_Data_Type.hpp"
00000413 7263652f5377 
00000419 634170706c54 
0000041f 706d732f5470 
00000425 6d735f527465 
0000042b 5f446174615f 
00000431 547970652e68 
00000437 707000 
0000043a 000000         2150 	.byte	0,0,0
0000043d 2e2e2f736f75   2151 	.strz	"../source/EcuabFee/Fee_30_SmallSector.hpp"
00000443 7263652f4563 
00000449 756162466565 
0000044f 2f4665655f33 
00000455 305f536d616c 
0000045b 6c536563746f 
00000461 722e68707000 
00000467 000000         2152 	.byte	0,0,0
0000046a 2e2e2f736f75   2153 	.strz	"../source/EcuabMemIf/MemIf_Types.hpp"
00000470 7263652f4563 
00000476 7561624d656d 
0000047c 49662f4d656d 
00000482 49665f547970 
00000488 65732e687070 
0000048e 00 
0000048f 000000         2154 	.byte	0,0,0
00000492 2e2e2f736f75   2155 	.strz	"../source/ProjectCfg/Fee_30_SmallSector_Cfg.hpp"
00000498 7263652f5072 
0000049e 6f6a65637443 
000004a4 66672f466565 
000004aa 5f33305f536d 
000004b0 616c6c536563 
000004b6 746f725f4366 
000004bc 672e68707000 
000004c2 000000         2156 	.byte	0,0,0
000004c5 2e2e2f736f75   2157 	.strz	"../source/ProjectCompiler/MemMap.hpp"
000004cb 7263652f5072 
000004d1 6f6a65637443 
000004d7 6f6d70696c65 
000004dd 722f4d656d4d 
000004e3 61702e687070 
000004e9 00 
000004ea 000000         2158 	.byte	0,0,0
000004ed 2e2e2f736f75   2159 	.strz	"../source/McalFls/Fls.hpp"
000004f3 7263652f4d63 
000004f9 616c466c732f 
000004ff 466c732e6870 
00000505 7000 

                                                                      Page 46
                                                              C:\Users\nhuliyap\AppData\Local\Temp\gh_00008cs1.s
00000507 000000         2160 	.byte	0,0,0
0000050a 2e2e2f736f75   2161 	.strz	"../source/ProjectCfg/Fls_Cfg.hpp"
00000510 7263652f5072 
00000516 6f6a65637443 
0000051c 66672f466c73 
00000522 5f4366672e68 
00000528 707000 
0000052b 000000         2162 	.byte	0,0,0
0000052e 2e2e2f736f75   2163 	.strz	"../source/McalFls/Fls_Types.hpp"
00000534 7263652f4d63 
0000053a 616c466c732f 
00000540 466c735f5479 
00000546 7065732e6870 
0000054c 7000 
0000054e 000000         2164 	.byte	0,0,0
00000551 2e2e2f736f75   2165 	.strz	"../source/McalFls/Fls_PBTypes.hpp"
00000557 7263652f4d63 
0000055d 616c466c732f 
00000563 466c735f5042 
00000569 54797065732e 
0000056f 68707000 
00000573 000000         2166 	.byte	0,0,0
00000576 2e2e2f736f75   2167 	.strz	"../source/McalFls/r_typedefs.hpp"
0000057c 7263652f4d63 
00000582 616c466c732f 
00000588 725f74797065 
0000058e 646566732e68 
00000594 707000 
00000597 000000         2168 	.byte	0,0,0
0000059a 2e2e2f736f75   2169 	.strz	"../source/McalFls/r_fdl_types.hpp"
000005a0 7263652f4d63 
000005a6 616c466c732f 
000005ac 725f66646c5f 
000005b2 74797065732e 
000005b8 68707000 
000005bc 000000         2170 	.byte	0,0,0
000005bf 2e2e2f736f75   2171 	.strz	"../source/McalFls/fdl_descriptor.hpp"
000005c5 7263652f4d63 
000005cb 616c466c732f 
000005d1 66646c5f6465 
000005d7 736372697074 
000005dd 6f722e687070 
000005e3 00 
000005e4 000000         2172 	.byte	0,0,0
000005e7 2e2e2f736f75   2173 	.strz	"../source/SwcServiceNvM/NvM.hpp"
000005ed 7263652f5377 
000005f3 635365727669 
000005f9 63654e764d2f 
000005ff 4e764d2e6870 
00000605 7000 
00000607 000000         2174 	.byte	0,0,0
0000060a 2e2e2f736f75   2175 	.strz	"../source/ProjectCfg/NvM_Cfg.hpp"
00000610 7263652f5072 
00000616 6f6a65637443 
0000061c 66672f4e764d 
00000622 5f4366672e68 
00000628 707000 
0000062b 000000         2176 	.byte	0,0,0
0000062e 2e2e2f736f75   2177 	.strz	"../source/SwcServiceNvM/NvM_Types.hpp"
00000634 7263652f5377 
0000063a 635365727669 

                                                                      Page 47
                                                              C:\Users\nhuliyap\AppData\Local\Temp\gh_00008cs1.s
00000640 63654e764d2f 
00000646 4e764d5f5479 
0000064c 7065732e6870 
00000652 7000 
00000654 000000         2178 	.byte	0,0,0
00000657 2e2e2f736f75   2179 	.strz	"../source/ProjectCfg/Dem_Cfg_AssertionChk.hpp"
0000065d 7263652f5072 
00000663 6f6a65637443 
00000669 66672f44656d 
0000066f 5f4366675f41 
00000675 737365727469 
0000067b 6f6e43686b2e 
00000681 68707000 
00000685 000000         2180 	.byte	0,0,0
00000688 2e2e2f736f75   2181 	.strz	"../source/wrappers/SwcServiceDem/Dem_Lib.hpp"
0000068e 7263652f7772 
00000694 617070657273 
0000069a 2f5377635365 
000006a0 727669636544 
000006a6 656d2f44656d 
000006ac 5f4c69622e68 
000006b2 707000 
000006b5 000000         2182 	.byte	0,0,0
000006b8 2e2e2f736f75   2183 	.strz	"../source/wrappers/SwcServiceDem/Dem_Lok_Det.hpp"
000006be 7263652f7772 
000006c4 617070657273 
000006ca 2f5377635365 
000006d0 727669636544 
000006d6 656d2f44656d 
000006dc 5f4c6f6b5f44 
000006e2 65742e687070 
000006e8 00 
000006e9 000000         2184 	.byte	0,0,0
000006ec 2e2e2f736f75   2185 	.strz	"../source/ProjectCfg/Dem_Cfg_Main.hpp"
000006f2 7263652f5072 
000006f8 6f6a65637443 
000006fe 66672f44656d 
00000704 5f4366675f4d 
0000070a 61696e2e6870 
00000710 7000 
00000712 000000         2186 	.byte	0,0,0
00000715 2e2e2f736f75   2187 	.strz	"../source/wrappers/LibAutosarDiag/rba_DiagLib_MemUtils.hpp"
0000071b 7263652f7772 
00000721 617070657273 
00000727 2f4c69624175 
0000072d 746f73617244 
00000733 6961672f7262 
00000739 615f44696167 
0000073f 4c69625f4d65 
00000745 6d5574696c73 
0000074b 2e68707000 
00000750 000000         2188 	.byte	0,0,0
00000753 2e2e2f736f75   2189 	.strz	"../source/wrappers/rba_BswSrv/api/rba_BswSrv.hpp"
00000759 7263652f7772 
0000075f 617070657273 
00000765 2f7262615f42 
0000076b 73775372762f 
00000771 6170692f7262 
00000777 615f42737753 
0000077d 72762e687070 
00000783 00 

                                                                      Page 48
                                                              C:\Users\nhuliyap\AppData\Local\Temp\gh_00008cs1.s
00000784 000000         2190 	.byte	0,0,0
00000787 2e2e2f736f75   2191 	.strz	"../source/ProjectCompiler/rba_BswSrv_MemMap.hpp"
0000078d 7263652f5072 
00000793 6f6a65637443 
00000799 6f6d70696c65 
0000079f 722f7262615f 
000007a5 427377537276 
000007ab 5f4d656d4d61 
000007b1 702e68707000 
000007b7 000000         2192 	.byte	0,0,0
000007ba 2e2e2f736f75   2193 	.strz	"../source/ProjectCompiler/rba_DiagLib_MemMap.hpp"
000007c0 7263652f5072 
000007c6 6f6a65637443 
000007cc 6f6d70696c65 
000007d2 722f7262615f 
000007d8 446961674c69 
000007de 625f4d656d4d 
000007e4 61702e687070 
000007ea 00 
000007eb 000000         2194 	.byte	0,0,0
000007ee 2e2e2f736f75   2195 	.strz	"../source/wrappers/SwcServiceDem/Dem_EventStatus.hpp"
000007f4 7263652f7772 
000007fa 617070657273 
00000800 2f5377635365 
00000806 727669636544 
0000080c 656d2f44656d 
00000812 5f4576656e74 
00000818 537461747573 
0000081e 2e68707000 
00000823 000000         2196 	.byte	0,0,0
00000826 2e2e2f736f75   2197 	.strz	"../source/wrappers/SwcServiceDem/Dem_ISO14229Byte.hpp"
0000082c 7263652f7772 
00000832 617070657273 
00000838 2f5377635365 
0000083e 727669636544 
00000844 656d2f44656d 
0000084a 5f49534f3134 
00000850 323239427974 
00000856 652e68707000 
0000085c 000000         2198 	.byte	0,0,0
0000085f 2e2e2f736f75   2199 	.strz	"../source/wrappers/LibAutosarDiag/rba_DiagLib_Bits8.hpp"
00000865 7263652f7772 
0000086b 617070657273 
00000871 2f4c69624175 
00000877 746f73617244 
0000087d 6961672f7262 
00000883 615f44696167 
00000889 4c69625f4269 
0000088f 7473382e6870 
00000895 7000 
00000897 000000         2200 	.byte	0,0,0
0000089a 2e2e2f736f75   2201 	.strz	"../source/wrappers/SwcServiceDem/Dem_Array.hpp"
000008a0 7263652f7772 
000008a6 617070657273 
000008ac 2f5377635365 
000008b2 727669636544 
000008b8 656d2f44656d 
000008be 5f4172726179 
000008c4 2e68707000 
000008c9 000000         2202 	.byte	0,0,0
000008cc 2e2e2f736f75   2203 	.strz	"../source/ProjectCfg/Dem_Cfg_Events.hpp"

                                                                      Page 49
                                                              C:\Users\nhuliyap\AppData\Local\Temp\gh_00008cs1.s
000008d2 7263652f5072 
000008d8 6f6a65637443 
000008de 66672f44656d 
000008e4 5f4366675f45 
000008ea 76656e74732e 
000008f0 68707000 
000008f4 000000         2204 	.byte	0,0,0
000008f7 2e2e2f736f75   2205 	.strz	"../source/ProjectCfg/Dem_Cfg_EventId.hpp"
000008fd 7263652f5072 
00000903 6f6a65637443 
00000909 66672f44656d 
0000090f 5f4366675f45 
00000915 76656e744964 
0000091b 2e68707000 
00000920 000000         2206 	.byte	0,0,0
00000923 2e2e2f736f75   2207 	.strz	"../source/ProjectCfg/Dem_Cfg_OperationCycle.hpp"
00000929 7263652f5072 
0000092f 6f6a65637443 
00000935 66672f44656d 
0000093b 5f4366675f4f 
00000941 706572617469 
00000947 6f6e4379636c 
0000094d 652e68707000 
00000953 000000         2208 	.byte	0,0,0
00000956 2e2e2f736f75   2209 	.strz	"../source/wrappers/LibAutosarDiag/rba_DiagLib_Bits16.hpp"
0000095c 7263652f7772 
00000962 617070657273 
00000968 2f4c69624175 
0000096e 746f73617244 
00000974 6961672f7262 
0000097a 615f44696167 
00000980 4c69625f4269 
00000986 747331362e68 
0000098c 707000 
0000098f 000000         2210 	.byte	0,0,0
00000992 2e2e2f736f75   2211 	.strz	"../source/wrappers/LibAutosarDiag/rba_DiagLib_Bits32.hpp"
00000998 7263652f7772 
0000099e 617070657273 
000009a4 2f4c69624175 
000009aa 746f73617244 
000009b0 6961672f7262 
000009b6 615f44696167 
000009bc 4c69625f4269 
000009c2 747333322e68 
000009c8 707000 
000009cb 000000         2212 	.byte	0,0,0
000009ce 2e2e2f736f75   2213 	.strz	"../source/ProjectCfg/Dem_Cfg_EvMem.hpp"
000009d4 7263652f5072 
000009da 6f6a65637443 
000009e0 66672f44656d 
000009e6 5f4366675f45 
000009ec 764d656d2e68 
000009f2 707000 
000009f5 000000         2214 	.byte	0,0,0
000009f8 2e2e2f736f75   2215 	.strz	"../source/ProjectCfg/Dem_Cfg_DtcId.hpp"
000009fe 7263652f5072 
00000a04 6f6a65637443 
00000a0a 66672f44656d 
00000a10 5f4366675f44 
00000a16 746349642e68 
00000a1c 707000 

                                                                      Page 50
                                                              C:\Users\nhuliyap\AppData\Local\Temp\gh_00008cs1.s
00000a1f 000000         2216 	.byte	0,0,0
00000a22 2e2e2f736f75   2217 	.strz	"../source/ProjectCfg/Dem_Cfg_Clear.hpp"
00000a28 7263652f5072 
00000a2e 6f6a65637443 
00000a34 66672f44656d 
00000a3a 5f4366675f43 
00000a40 6c6561722e68 
00000a46 707000 
00000a49 000000         2218 	.byte	0,0,0
00000a4c 2e2e2f736f75   2219 	.strz	"../source/wrappers/SwcServiceDem/Dem_Events.hpp"
00000a52 7263652f7772 
00000a58 617070657273 
00000a5e 2f5377635365 
00000a64 727669636544 
00000a6a 656d2f44656d 
00000a70 5f4576656e74 
00000a76 732e68707000 
00000a7c 000000         2220 	.byte	0,0,0
00000a7f 2e2e2f736f75   2221 	.strz	"../source/wrappers/SwcServiceDem/Dem.hpp"
00000a85 7263652f7772 
00000a8b 617070657273 
00000a91 2f5377635365 
00000a97 727669636544 
00000a9d 656d2f44656d 
00000aa3 2e68707000 
00000aa8 000000         2222 	.byte	0,0,0
00000aab 2e2e2f736f75   2223 	.strz	"../source/ProjectCfg/Dem_Cfg_Deb.hpp"
00000ab1 7263652f5072 
00000ab7 6f6a65637443 
00000abd 66672f44656d 
00000ac3 5f4366675f44 
00000ac9 65622e687070 
00000acf 00 
00000ad0 000000         2224 	.byte	0,0,0
00000ad3 2e2e2f736f75   2225 	.strz	"../source/ProjectCfg/Dem_Cfg_EnableCondition.hpp"
00000ad9 7263652f5072 
00000adf 6f6a65637443 
00000ae5 66672f44656d 
00000aeb 5f4366675f45 
00000af1 6e61626c6543 
00000af7 6f6e64697469 
00000afd 6f6e2e687070 
00000b03 00 
00000b04 000000         2226 	.byte	0,0,0
00000b07 2e2e2f736f75   2227 	.strz	"../source/ProjectCfg/Dem_Cfg_EventCategory.hpp"
00000b0d 7263652f5072 
00000b13 6f6a65637443 
00000b19 66672f44656d 
00000b1f 5f4366675f45 
00000b25 76656e744361 
00000b2b 7465676f7279 
00000b31 2e68707000 
00000b36 000000         2228 	.byte	0,0,0
00000b39 2e2e2f736f75   2229 	.strz	"../source/ProjectCfg/Dem_Cfg_EventIndicators.hpp"
00000b3f 7263652f5072 
00000b45 6f6a65637443 
00000b4b 66672f44656d 
00000b51 5f4366675f45 
00000b57 76656e74496e 
00000b5d 64696361746f 
00000b63 72732e687070 

                                                                      Page 51
                                                              C:\Users\nhuliyap\AppData\Local\Temp\gh_00008cs1.s
00000b69 00 
00000b6a 000000         2230 	.byte	0,0,0
00000b6d 2e2e2f736f75   2231 	.strz	"../source/ProjectCfg/Dem_Cfg_StorageCondition.hpp"
00000b73 7263652f5072 
00000b79 6f6a65637443 
00000b7f 66672f44656d 
00000b85 5f4366675f53 
00000b8b 746f72616765 
00000b91 436f6e646974 
00000b97 696f6e2e6870 
00000b9d 7000 
00000b9f 000000         2232 	.byte	0,0,0
00000ba2 2e2e2f736f75   2233 	.strz	"../source/wrappers/SwcServiceDem/Dem_Dlt.hpp"
00000ba8 7263652f7772 
00000bae 617070657273 
00000bb4 2f5377635365 
00000bba 727669636544 
00000bc0 656d2f44656d 
00000bc6 5f446c742e68 
00000bcc 707000 
00000bcf 000000         2234 	.byte	0,0,0
00000bd2 2e2e2f736f75   2235 	.strz	"../source/wrappers/SwcServiceDem/Dem_Dcm_Internal.hpp"
00000bd8 7263652f7772 
00000bde 617070657273 
00000be4 2f5377635365 
00000bea 727669636544 
00000bf0 656d2f44656d 
00000bf6 5f44636d5f49 
00000bfc 6e7465726e61 
00000c02 6c2e68707000 
00000c08 000000         2236 	.byte	0,0,0
00000c0b 2e2e2f736f75   2237 	.strz	"../source/wrappers/SwcServiceDem/Dem_Dcm.hpp"
00000c11 7263652f7772 
00000c17 617070657273 
00000c1d 2f5377635365 
00000c23 727669636544 
00000c29 656d2f44656d 
00000c2f 5f44636d2e68 
00000c35 707000 
00000c38 000000         2238 	.byte	0,0,0
00000c3b 2e2e2f736f75   2239 	.strz	"../source/wrappers/SwcServiceDcm/Dcm_Types.hpp"
00000c41 7263652f7772 
00000c47 617070657273 
00000c4d 2f5377635365 
00000c53 727669636544 
00000c59 636d2f44636d 
00000c5f 5f5479706573 
00000c65 2e68707000 
00000c6a 000000         2240 	.byte	0,0,0
00000c6d 2e2e2f736f75   2241 	.strz	"../source/wrappers/Rte_Dcm_Type.hpp"
00000c73 7263652f7772 
00000c79 617070657273 
00000c7f 2f5274655f44 
00000c85 636d5f547970 
00000c8b 652e68707000 
00000c91 000000         2242 	.byte	0,0,0
00000c94 2e2e2f736f75   2243 	.strz	"../source/wrappers/SwcServiceDem/Dem_J1939Dcm.hpp"
00000c9a 7263652f7772 
00000ca0 617070657273 
00000ca6 2f5377635365 
00000cac 727669636544 

                                                                      Page 52
                                                              C:\Users\nhuliyap\AppData\Local\Temp\gh_00008cs1.s
00000cb2 656d2f44656d 
00000cb8 5f4a31393339 
00000cbe 44636d2e6870 
00000cc4 7000 
00000cc6 000000         2244 	.byte	0,0,0
00000cc9 2e2e2f736f75   2245 	.strz	"../source/wrappers/SwcServiceDem/Dem_BitArray.hpp"
00000ccf 7263652f7772 
00000cd5 617070657273 
00000cdb 2f5377635365 
00000ce1 727669636544 
00000ce7 656d2f44656d 
00000ced 5f4269744172 
00000cf3 7261792e6870 
00000cf9 7000 
00000cfb 000000         2246 	.byte	0,0,0
00000cfe 2e2e2f736f75   2247 	.strz	"../source/wrappers/SwcServiceDem/Dem_Lock.hpp"
00000d04 7263652f7772 
00000d0a 617070657273 
00000d10 2f5377635365 
00000d16 727669636544 
00000d1c 656d2f44656d 
00000d22 5f4c6f636b2e 
00000d28 68707000 
00000d2c 000000         2248 	.byte	0,0,0
00000d2f 2e2e2f736f75   2249 	.strz	"../source/wrappers/SwcServiceDem/Dem_Main.hpp"
00000d35 7263652f7772 
00000d3b 617070657273 
00000d41 2f5377635365 
00000d47 727669636544 
00000d4d 656d2f44656d 
00000d53 5f4d61696e2e 
00000d59 68707000 
00000d5d 000000         2250 	.byte	0,0,0
00000d60 2e2e2f736f75   2251 	.strz	"../source/ProjectCfg/Dem_Cfg_SchM.hpp"
00000d66 7263652f5072 
00000d6c 6f6a65637443 
00000d72 66672f44656d 
00000d78 5f4366675f53 
00000d7e 63684d2e6870 
00000d84 7000 
00000d86 000000         2252 	.byte	0,0,0
00000d89 2e2e2f736f75   2253 	.strz	"../source/wrappers/SchM_Default.hpp"
00000d8f 7263652f7772 
00000d95 617070657273 
00000d9b 2f5363684d5f 
00000da1 44656661756c 
00000da7 742e68707000 
00000dad 000000         2254 	.byte	0,0,0
00000db0 2e2e2f736f75   2255 	.strz	"../source/McalMcu/Device.hpp"
00000db6 7263652f4d63 
00000dbc 616c4d63752f 
00000dc2 446576696365 
00000dc8 2e68707000 
00000dcd 000000         2256 	.byte	0,0,0
00000dd0 2e2e2f736f75   2257 	.strz	"../source/McalMcu/dr7f701013.dvf.hpp"
00000dd6 7263652f4d63 
00000ddc 616c4d63752f 
00000de2 647237663730 
00000de8 313031332e64 
00000dee 76662e687070 
00000df4 00 

                                                                      Page 53
                                                              C:\Users\nhuliyap\AppData\Local\Temp\gh_00008cs1.s
00000df5 000000         2258 	.byte	0,0,0
00000df8 2e2e2f736f75   2259 	.strz	"../source/McalMcu/cpu.hpp"
00000dfe 7263652f4d63 
00000e04 616c4d63752f 
00000e0a 6370752e6870 
00000e10 7000 
00000e12 000000         2260 	.byte	0,0,0
00000e15 2e2e2f736f75   2261 	.strz	"../source/McalMcu/v800_ghs.hpp"
00000e1b 7263652f4d63 
00000e21 616c4d63752f 
00000e27 763830305f67 
00000e2d 68732e687070 
00000e33 00 
00000e34 000000         2262 	.byte	0,0,0
00000e37 2e2e2f736f75   2263 	.strz	"../source/wrappers/SwcServiceDem/Dem_Clear.hpp"
00000e3d 7263652f7772 
00000e43 617070657273 
00000e49 2f5377635365 
00000e4f 727669636544 
00000e55 656d2f44656d 
00000e5b 5f436c656172 
00000e61 2e68707000 
00000e66 000000         2264 	.byte	0,0,0
00000e69 2e2e2f736f75   2265 	.strz	"../source/wrappers/SwcServiceDem/Dem_Mapping.hpp"
00000e6f 7263652f7772 
00000e75 617070657273 
00000e7b 2f5377635365 
00000e81 727669636544 
00000e87 656d2f44656d 
00000e8d 5f4d61707069 
00000e93 6e672e687070 
00000e99 00 
00000e9a 000000         2266 	.byte	0,0,0
00000e9d 2e2e2f736f75   2267 	.strz	"../source/ProjectCfg/Dem_Cfg_Nodes.hpp"
00000ea3 7263652f5072 
00000ea9 6f6a65637443 
00000eaf 66672f44656d 
00000eb5 5f4366675f4e 
00000ebb 6f6465732e68 
00000ec1 707000 
00000ec4 000000         2268 	.byte	0,0,0
00000ec7 2e2e2f736f75   2269 	.strz	"../source/ProjectCfg/Dem_Cfg_EvBuff.hpp"
00000ecd 7263652f5072 
00000ed3 6f6a65637443 
00000ed9 66672f44656d 
00000edf 5f4366675f45 
00000ee5 76427566662e 
00000eeb 68707000 
00000eef 000000         2270 	.byte	0,0,0
00000ef2 2e2e2f736f75   2271 	.strz	"../source/wrappers/SwcServiceDem/Dem_EventCategory.hpp"
00000ef8 7263652f7772 
00000efe 617070657273 
00000f04 2f5377635365 
00000f0a 727669636544 
00000f10 656d2f44656d 
00000f16 5f4576656e74 
00000f1c 43617465676f 
00000f22 72792e687070 
00000f28 00 
00000f29 000000         2272 	.byte	0,0,0
00000f2c 2e2e2f736f75   2273 	.strz	"../source/wrappers/SwcServiceDem/Dem_StorageCondition.hpp"

                                                                      Page 54
                                                              C:\Users\nhuliyap\AppData\Local\Temp\gh_00008cs1.s
00000f32 7263652f7772 
00000f38 617070657273 
00000f3e 2f5377635365 
00000f44 727669636544 
00000f4a 656d2f44656d 
00000f50 5f53746f7261 
00000f56 6765436f6e64 
00000f5c 6974696f6e2e 
00000f62 68707000 
00000f66 000000         2274 	.byte	0,0,0
00000f69 2e2e2f736f75   2275 	.strz	"../source/wrappers/SwcServiceDem/Dem_Helpers.hpp"
00000f6f 7263652f7772 
00000f75 617070657273 
00000f7b 2f5377635365 
00000f81 727669636544 
00000f87 656d2f44656d 
00000f8d 5f48656c7065 
00000f93 72732e687070 
00000f99 00 
00000f9a 000000         2276 	.byte	0,0,0
00000f9d 2e2e2f736f75   2277 	.strz	"../source/wrappers/SwcServiceDem/Dem_EnableCondition.hpp"
00000fa3 7263652f7772 
00000fa9 617070657273 
00000faf 2f5377635365 
00000fb5 727669636544 
00000fbb 656d2f44656d 
00000fc1 5f456e61626c 
00000fc7 65436f6e6469 
00000fcd 74696f6e2e68 
00000fd3 707000 
00000fd6 000000         2278 	.byte	0,0,0
00000fd9 2e2e2f736f75   2279 	.strz	"../source/ProjectCfg/Dem_Cfg_DistMem.hpp"
00000fdf 7263652f5072 
00000fe5 6f6a65637443 
00000feb 66672f44656d 
00000ff1 5f4366675f44 
00000ff7 6973744d656d 
00000ffd 2e68707000 
00001002 000000         2280 	.byte	0,0,0
00001005 2e2e2f736f75   2281 	.strz	"../source/wrappers/SwcServiceDem/Dem_Nvm.hpp"
0000100b 7263652f7772 
00001011 617070657273 
00001017 2f5377635365 
0000101d 727669636544 
00001023 656d2f44656d 
00001029 5f4e766d2e68 
0000102f 707000 
00001032 000000         2282 	.byte	0,0,0
00001035 2e2e2f736f75   2283 	.strz	"../source/wrappers/SwcServiceDem/Dem_Nvm_Types.hpp"
0000103b 7263652f7772 
00001041 617070657273 
00001047 2f5377635365 
0000104d 727669636544 
00001053 656d2f44656d 
00001059 5f4e766d5f54 
0000105f 797065732e68 
00001065 707000 
00001068 000000         2284 	.byte	0,0,0
0000106b 2e2e2f736f75   2285 	.strz	"../source/ProjectCfg/Dem_Cfg_Nvm.hpp"
00001071 7263652f5072 
00001077 6f6a65637443 

                                                                      Page 55
                                                              C:\Users\nhuliyap\AppData\Local\Temp\gh_00008cs1.s
0000107d 66672f44656d 
00001083 5f4366675f4e 
00001089 766d2e687070 
0000108f 00 
00001090 000000         2286 	.byte	0,0,0
00001093 2e2e2f736f75   2287 	.strz	"../source/wrappers/SwcServiceDem/Dem_EvMemTypes.hpp"
00001099 7263652f7772 
0000109f 617070657273 
000010a5 2f5377635365 
000010ab 727669636544 
000010b1 656d2f44656d 
000010b7 5f45764d656d 
000010bd 54797065732e 
000010c3 68707000 
000010c7 000000         2288 	.byte	0,0,0
000010ca 2e2e2f736f75   2289 	.strz	"../source/ProjectCfg/Dem_Cfg_EnvMain.hpp"
000010d0 7263652f5072 
000010d6 6f6a65637443 
000010dc 66672f44656d 
000010e2 5f4366675f45 
000010e8 6e764d61696e 
000010ee 2e68707000 
000010f3 000000         2290 	.byte	0,0,0
000010f6 2e2e2f736f75   2291 	.strz	"../source/ProjectCfg/Dem_Cfg_EnvDataElement.hpp"
000010fc 7263652f5072 
00001102 6f6a65637443 
00001108 66672f44656d 
0000110e 5f4366675f45 
00001114 6e7644617461 
0000111a 456c656d656e 
00001120 742e68707000 
00001126 000000         2292 	.byte	0,0,0
00001129 2e2e2f736f75   2293 	.strz	"../source/ProjectCfg/Dem_Cfg_EnvDataElement_DataSize.hpp"
0000112f 7263652f5072 
00001135 6f6a65637443 
0000113b 66672f44656d 
00001141 5f4366675f45 
00001147 6e7644617461 
0000114d 456c656d656e 
00001153 745f44617461 
00001159 53697a652e68 
0000115f 707000 
00001162 000000         2294 	.byte	0,0,0
00001165 2e2e2f736f75   2295 	.strz	"../source/wrappers/Dcm_Dem.hpp"
0000116b 7263652f7772 
00001171 617070657273 
00001177 2f44636d5f44 
0000117d 656d2e687070 
00001183 00 
00001184 000000         2296 	.byte	0,0,0
00001187 2e2e2f736f75   2297 	.strz	"../source/ProjectCfg/Dem_Cfg_DTCs.hpp"
0000118d 7263652f5072 
00001193 6f6a65637443 
00001199 66672f44656d 
0000119f 5f4366675f44 
000011a5 5443732e6870 
000011ab 7000 
000011ad 000000         2298 	.byte	0,0,0
000011b0 2e2e2f736f75   2299 	.strz	"../source/ProjectCfg/Dem_Cfg_DTC_DataStructures.hpp"
000011b6 7263652f5072 
000011bc 6f6a65637443 

                                                                      Page 56
                                                              C:\Users\nhuliyap\AppData\Local\Temp\gh_00008cs1.s
000011c2 66672f44656d 
000011c8 5f4366675f44 
000011ce 54435f446174 
000011d4 615374727563 
000011da 74757265732e 
000011e0 68707000 
000011e4 000000         2300 	.byte	0,0,0
000011e7 2e2e2f736f75   2301 	.strz	"../source/wrappers/LibAutosarDiag/api/rba_DiagLib.hpp"
000011ed 7263652f7772 
000011f3 617070657273 
000011f9 2f4c69624175 
000011ff 746f73617244 
00001205 6961672f6170 
0000120b 692f7262615f 
00001211 446961674c69 
00001217 622e68707000 
0000121d 000000         2302 	.byte	0,0,0
00001220 2e2e2f736f75   2303 	.strz	"../source/wrappers/LibAutosarDiag/rba_DiagLib_ByteOrderUtils.hpp"
00001226 7263652f7772 
0000122c 617070657273 
00001232 2f4c69624175 
00001238 746f73617244 
0000123e 6961672f7262 
00001244 615f44696167 
0000124a 4c69625f4279 
00001250 74654f726465 
00001256 725574696c73 
0000125c 2e68707000 
00001261 000000         2304 	.byte	0,0,0
00001264 2e2e2f736f75   2305 	.strz	"../source/wrappers/SwcServiceDem/Dem_GenericNvData.hpp"
0000126a 7263652f7772 
00001270 617070657273 
00001276 2f5377635365 
0000127c 727669636544 
00001282 656d2f44656d 
00001288 5f47656e6572 
0000128e 69634e764461 
00001294 74612e687070 
0000129a 00 
0000129b 000000         2306 	.byte	0,0,0
0000129e 2e2e2f736f75   2307 	.strz	"../source/wrappers/SwcServiceDem/Dem_OperationCycle.hpp"
000012a4 7263652f7772 
000012aa 617070657273 
000012b0 2f5377635365 
000012b6 727669636544 
000012bc 656d2f44656d 
000012c2 5f4f70657261 
000012c8 74696f6e4379 
000012ce 636c652e6870 
000012d4 7000 
000012d6 000000         2308 	.byte	0,0,0
000012d9 2e2e2f736f75   2309 	.strz	"../source/ProjectCfg/Dem_Cfg_OperationCycle_DataStructures.hpp"
000012df 7263652f5072 
000012e5 6f6a65637443 
000012eb 66672f44656d 
000012f1 5f4366675f4f 
000012f7 706572617469 
000012fd 6f6e4379636c 
00001303 655f44617461 
00001309 537472756374 
0000130f 757265732e68 

                                                                      Page 57
                                                              C:\Users\nhuliyap\AppData\Local\Temp\gh_00008cs1.s
00001315 707000 
00001318 000000         2310 	.byte	0,0,0
0000131b 2e2e2f736f75   2311 	.strz	"../source/wrappers/SwcServiceDem/Dem_EvMemGenTypes.hpp"
00001321 7263652f7772 
00001327 617070657273 
0000132d 2f5377635365 
00001333 727669636544 
00001339 656d2f44656d 
0000133f 5f45764d656d 
00001345 47656e547970 
0000134b 65732e687070 
00001351 00 
00001352 000000         2312 	.byte	0,0,0
00001355 2e2e2f736f75   2313 	.strz	"../source/wrappers/SwcServiceDem/Dem_Bfm.hpp"
0000135b 7263652f7772 
00001361 617070657273 
00001367 2f5377635365 
0000136d 727669636544 
00001373 656d2f44656d 
00001379 5f42666d2e68 
0000137f 707000 
00001382 000000         2314 	.byte	0,0,0
00001385 2e2e2f736f75   2315 	.strz	"../source/wrappers/SwcServiceDem/Dem_NvmHashIdNvData.hpp"
0000138b 7263652f7772 
00001391 617070657273 
00001397 2f5377635365 
0000139d 727669636544 
000013a3 656d2f44656d 
000013a9 5f4e766d4861 
000013af 736849644e76 
000013b5 446174612e68 
000013bb 707000 
000013be 000000         2316 	.byte	0,0,0
000013c1 2e2e2f736f75   2317 	.strz	"../source/wrappers/SwcServiceDem/Dem_IndicatorAttributes.hpp"
000013c7 7263652f7772 
000013cd 617070657273 
000013d3 2f5377635365 
000013d9 727669636544 
000013df 656d2f44656d 
000013e5 5f496e646963 
000013eb 61746f724174 
000013f1 747269627574 
000013f7 65732e687070 
000013fd 00 
000013fe 000000         2318 	.byte	0,0,0
00001401 2e2e2f736f75   2319 	.strz	"../source/wrappers/SwcServiceDem/Dem_Indicator.hpp"
00001407 7263652f7772 
0000140d 617070657273 
00001413 2f5377635365 
00001419 727669636544 
0000141f 656d2f44656d 
00001425 5f496e646963 
0000142b 61746f722e68 
00001431 707000 
00001434 000000         2320 	.byte	0,0,0
00001437 2e2e2f736f75   2321 	.strz	"../source/wrappers/SwcServiceDem/Dem_IndicatorAttributesNvData.hpp"
0000143d 7263652f7772 
00001443 617070657273 
00001449 2f5377635365 
0000144f 727669636544 
00001455 656d2f44656d 

                                                                      Page 58
                                                              C:\Users\nhuliyap\AppData\Local\Temp\gh_00008cs1.s
0000145b 5f496e646963 
00001461 61746f724174 
00001467 747269627574 
0000146d 65734e764461 
00001473 74612e687070 
00001479 00 
0000147a 000000         2322 	.byte	0,0,0
0000147d 2e2e2f736f75   2323 	.strz	"../source/wrappers/SwcServiceDem/Dem_IndicatorAttributesTypes.hpp"
00001483 7263652f7772 
00001489 617070657273 
0000148f 2f5377635365 
00001495 727669636544 
0000149b 656d2f44656d 
000014a1 5f496e646963 
000014a7 61746f724174 
000014ad 747269627574 
000014b3 657354797065 
000014b9 732e68707000 
000014bf 000000         2324 	.byte	0,0,0
000014c2 2e2e2f736f75   2325 	.strz	"../source/wrappers/SwcServiceDem/Dem_EventStatusNvData.hpp"
000014c8 7263652f7772 
000014ce 617070657273 
000014d4 2f5377635365 
000014da 727669636544 
000014e0 656d2f44656d 
000014e6 5f4576656e74 
000014ec 537461747573 
000014f2 4e7644617461 
000014f8 2e68707000 
000014fd 000000         2326 	.byte	0,0,0
00001500 2e2e2f736f75   2327 	.strz	"../source/ProjectCfg/Dem_Cfg_Events_DataStructures.hpp"
00001506 7263652f5072 
0000150c 6f6a65637443 
00001512 66672f44656d 
00001518 5f4366675f45 
0000151e 76656e74735f 
00001524 446174615374 
0000152a 727563747572 
00001530 65732e687070 
00001536 00 
00001537 000000         2328 	.byte	0,0,0
0000153a 2e2e2f736f75   2329 	.strz	"../source/ProjectCfg/Dem_Cfg_EventsCallback.hpp"
00001540 7263652f5072 
00001546 6f6a65637443 
0000154c 66672f44656d 
00001552 5f4366675f45 
00001558 76656e747343 
0000155e 616c6c626163 
00001564 6b2e68707000 
0000156a 000000         2330 	.byte	0,0,0
0000156d 2e2e2f736f75   2331 	.strz	"../source/wrappers/DEM_MANAGER/DemAppInterfaceX.hpp"
00001573 7263652f7772 
00001579 617070657273 
0000157f 2f44454d5f4d 
00001585 414e41474552 
0000158b 2f44656d4170 
00001591 70496e746572 
00001597 66616365582e 
0000159d 68707000 
000015a1 000000         2332 	.byte	0,0,0
000015a4 2e2e2f736f75   2333 	.strz	"../source/wrappers/SwcServiceDem/Dem_EnvDataElement.hpp"

                                                                      Page 59
                                                              C:\Users\nhuliyap\AppData\Local\Temp\gh_00008cs1.s
000015aa 7263652f7772 
000015b0 617070657273 
000015b6 2f5377635365 
000015bc 727669636544 
000015c2 656d2f44656d 
000015c8 5f456e764461 
000015ce 7461456c656d 
000015d4 656e742e6870 
000015da 7000 
000015dc 000000         2334 	.byte	0,0,0
000015df 2e2e2f736f75   2335 	.strz	"../source/wrappers/SwcServiceDem/Dem_InternalEnvData.hpp"
000015e5 7263652f7772 
000015eb 617070657273 
000015f1 2f5377635365 
000015f7 727669636544 
000015fd 656d2f44656d 
00001603 5f496e746572 
00001609 6e616c456e76 
0000160f 446174612e68 
00001615 707000 
00001618 000000         2336 	.byte	0,0,0
0000161b 2e2e2f736f75   2337 	.strz	"../source/wrappers/Rte_Dem.hpp"
00001621 7263652f7772 
00001627 617070657273 
0000162d 2f5274655f44 
00001633 656d2e687070 
00001639 00 
0000163a 000000         2338 	.byte	0,0,0
0000163d 2e2e2f736f75   2339 	.strz	"../source/wrappers/SwcServiceDem/Integration/Dem_PendingBitHandling.hpp"
00001643 7263652f7772 
00001649 617070657273 
0000164f 2f5377635365 
00001655 727669636544 
0000165b 656d2f496e74 
00001661 656772617469 
00001667 6f6e2f44656d 
0000166d 5f50656e6469 
00001673 6e6742697448 
00001679 616e646c696e 
0000167f 672e68707000 
00001685 000000         2340 	.byte	0,0,0
00001688 2e2e2f736f75   2341 	.strz	"../source/wrappers/SwcServiceDem/Dem_DisturbanceMemory.hpp"
0000168e 7263652f7772 
00001694 617070657273 
0000169a 2f5377635365 
000016a0 727669636544 
000016a6 656d2f44656d 
000016ac 5f4469737475 
000016b2 7262616e6365 
000016b8 4d656d6f7279 
000016be 2e68707000 
000016c3 000000         2342 	.byte	0,0,0
000016c6 2e2e2f736f75   2343 	.strz	"../source/wrappers/SwcServiceDem/Dem_DisturbanceMemoryNvData.hpp"
000016cc 7263652f7772 
000016d2 617070657273 
000016d8 2f5377635365 
000016de 727669636544 
000016e4 656d2f44656d 
000016ea 5f4469737475 
000016f0 7262616e6365 
000016f6 4d656d6f7279 

                                                                      Page 60
                                                              C:\Users\nhuliyap\AppData\Local\Temp\gh_00008cs1.s
000016fc 4e7644617461 
00001702 2e68707000 
00001707 000000         2344 	.byte	0,0,0
0000170a 2e2e2f736f75   2345 	.strz	"../source/wrappers/SwcServiceDem/Dem_DisturbanceMemoryTypes.hpp"
00001710 7263652f7772 
00001716 617070657273 
0000171c 2f5377635365 
00001722 727669636544 
00001728 656d2f44656d 
0000172e 5f4469737475 
00001734 7262616e6365 
0000173a 4d656d6f7279 
00001740 54797065732e 
00001746 68707000 
0000174a 000000         2346 	.byte	0,0,0
0000174d 2e2e2f736f75   2347 	.strz	"../source/wrappers/SwcServiceDem/Dem_Obd.hpp"
00001753 7263652f7772 
00001759 617070657273 
0000175f 2f5377635365 
00001765 727669636544 
0000176b 656d2f44656d 
00001771 5f4f62642e68 
00001777 707000 
0000177a 000000         2348 	.byte	0,0,0
0000177d 00             2349 	.byte	0
                        2350 .Ldw_lpro_end:
                        2351 	.section	.debug_macinfo
                        2352 .Ldw_macinfo_begin:
                        2353 	.section	.debug_frame
                        2354 .LDW_545cc80:
00000000 00000000*      2355 	.word	.LDW_unq_2-.LDW_unq_1
                        2356 .LDW_unq_1:
00000004 ffffffff       2357 	.byte	255,255,255,255
00000008 01             2358 	.byte	1
00000009 00             2359 	.byte	0
0000000a 01             2360 	.byte	1
0000000b 01             2361 	.byte	1
0000000c 1f             2362 	.byte	31
0000000d 0c             2363 	.byte	12
0000000e 03             2364 	.byte	3
0000000f 00             2365 	.byte	0
00000010 07             2366 	.byte	7
00000011 00             2367 	.byte	0
00000012 07             2368 	.byte	7
00000013 01             2369 	.byte	1
00000014 07             2370 	.byte	7
00000015 02             2371 	.byte	2
00000016 07             2372 	.byte	7
00000017 03             2373 	.byte	3
00000018 07             2374 	.byte	7
00000019 04             2375 	.byte	4
0000001a 07             2376 	.byte	7
0000001b 05             2377 	.byte	5
0000001c 07             2378 	.byte	7
0000001d 06             2379 	.byte	6
0000001e 07             2380 	.byte	7
0000001f 07             2381 	.byte	7
00000020 07             2382 	.byte	7
00000021 08             2383 	.byte	8
00000022 07             2384 	.byte	7
00000023 09             2385 	.byte	9

                                                                      Page 61
                                                              C:\Users\nhuliyap\AppData\Local\Temp\gh_00008cs1.s
00000024 07             2386 	.byte	7
00000025 0a             2387 	.byte	10
00000026 07             2388 	.byte	7
00000027 0b             2389 	.byte	11
00000028 07             2390 	.byte	7
00000029 0c             2391 	.byte	12
0000002a 07             2392 	.byte	7
0000002b 0d             2393 	.byte	13
0000002c 07             2394 	.byte	7
0000002d 0e             2395 	.byte	14
0000002e 07             2396 	.byte	7
0000002f 0f             2397 	.byte	15
00000030 07             2398 	.byte	7
00000031 10             2399 	.byte	16
00000032 07             2400 	.byte	7
00000033 11             2401 	.byte	17
00000034 07             2402 	.byte	7
00000035 12             2403 	.byte	18
00000036 07             2404 	.byte	7
00000037 13             2405 	.byte	19
00000038 08             2406 	.byte	8
00000039 14             2407 	.byte	20
0000003a 08             2408 	.byte	8
0000003b 15             2409 	.byte	21
0000003c 08             2410 	.byte	8
0000003d 16             2411 	.byte	22
0000003e 08             2412 	.byte	8
0000003f 17             2413 	.byte	23
00000040 08             2414 	.byte	8
00000041 18             2415 	.byte	24
00000042 08             2416 	.byte	8
00000043 19             2417 	.byte	25
00000044 08             2418 	.byte	8
00000045 1a             2419 	.byte	26
00000046 08             2420 	.byte	8
00000047 1b             2421 	.byte	27
00000048 08             2422 	.byte	8
00000049 1c             2423 	.byte	28
0000004a 08             2424 	.byte	8
0000004b 1d             2425 	.byte	29
0000004c 07             2426 	.byte	7
0000004d 1e             2427 	.byte	30
0000004e 08             2428 	.byte	8
0000004f 1f             2429 	.byte	31
00000050 07             2430 	.byte	7
00000051 20             2431 	.byte	32
00000052 07             2432 	.byte	7
00000053 21             2433 	.byte	33
00000054 07             2434 	.byte	7
00000055 22             2435 	.byte	34
00000056 07             2436 	.byte	7
00000057 23             2437 	.byte	35
00000058 07             2438 	.byte	7
00000059 24             2439 	.byte	36
0000005a 07             2440 	.byte	7
0000005b 25             2441 	.byte	37
0000005c 07             2442 	.byte	7
0000005d 26             2443 	.byte	38
0000005e 07             2444 	.byte	7
0000005f 27             2445 	.byte	39
00000060 07             2446 	.byte	7

                                                                      Page 62
                                                              C:\Users\nhuliyap\AppData\Local\Temp\gh_00008cs1.s
00000061 28             2447 	.byte	40
00000062 07             2448 	.byte	7
00000063 29             2449 	.byte	41
00000064 07             2450 	.byte	7
00000065 2a             2451 	.byte	42
00000066 07             2452 	.byte	7
00000067 2b             2453 	.byte	43
00000068 07             2454 	.byte	7
00000069 2c             2455 	.byte	44
0000006a 07             2456 	.byte	7
0000006b 2d             2457 	.byte	45
0000006c 07             2458 	.byte	7
0000006d 2e             2459 	.byte	46
0000006e 07             2460 	.byte	7
0000006f 2f             2461 	.byte	47
00000070 07             2462 	.byte	7
00000071 30             2463 	.byte	48
00000072 07             2464 	.byte	7
00000073 31             2465 	.byte	49
00000074 07             2466 	.byte	7
00000075 32             2467 	.byte	50
00000076 07             2468 	.byte	7
00000077 33             2469 	.byte	51
00000078 07             2470 	.byte	7
00000079 34             2471 	.byte	52
0000007a 07             2472 	.byte	7
0000007b 35             2473 	.byte	53
0000007c 07             2474 	.byte	7
0000007d 36             2475 	.byte	54
0000007e 07             2476 	.byte	7
0000007f 37             2477 	.byte	55
00000080 07             2478 	.byte	7
00000081 38             2479 	.byte	56
00000082 07             2480 	.byte	7
00000083 39             2481 	.byte	57
00000084 07             2482 	.byte	7
00000085 3a             2483 	.byte	58
00000086 07             2484 	.byte	7
00000087 3b             2485 	.byte	59
00000088 07             2486 	.byte	7
00000089 3c             2487 	.byte	60
0000008a 07             2488 	.byte	7
0000008b 3d             2489 	.byte	61
0000008c 07             2490 	.byte	7
0000008d 3e             2491 	.byte	62
0000008e 07             2492 	.byte	7
0000008f 3f             2493 	.byte	63
                        2494 .LDW_unq_2:
                        2495 	.section	.debug_info
                        2496 .LDW_4826ec8:
0000009b 25             2497 	.byte	37
0000009c 756e7369676e   2498 	.strz	"unsigned long"
000000a2 6564206c6f6e 
000000a8 6700 
000000aa 07             2499 	.byte	7
000000ab 04             2500 	.byte	4
                        2501 
                        2502 	.section	.debug_abbrev
00000017 25             2503 	.byte	37
00000018 24             2504 	.byte	36
00000019 00             2505 	.byte	0

                                                                      Page 63
                                                              C:\Users\nhuliyap\AppData\Local\Temp\gh_00008cs1.s
0000001a 0308           2506 	.byte	3,8
0000001c 3e0b           2507 	.byte	62,11
0000001e 0b0b           2508 	.byte	11,11
00000020 0000           2509 	.byte	0,0
                        2510 
                        2511 	.section	.debug_info
                        2512 .LDW_4826f38:
000000ac 25             2513 	.byte	37
000000ad 756e7369676e   2514 	.strz	"unsigned short"
000000b3 65642073686f 
000000b9 727400 
000000bc 07             2515 	.byte	7
000000bd 02             2516 	.byte	2
                        2517 
                        2518 .LDW_4c86238:
000000be 2f             2519 	.byte	47
000000bf 00000000*      2520 	.word	.LDW_4869f78
                        2521 
                        2522 	.section	.debug_abbrev
00000022 2f             2523 	.byte	47
00000023 0f             2524 	.byte	15
00000024 00             2525 	.byte	0
00000025 4910           2526 	.byte	73,16
00000027 0000           2527 	.byte	0,0
                        2528 
                        2529 	.section	.debug_info
                        2530 .LDW_4c85c18:
000000c3 25             2531 	.byte	37
000000c4 756e7369676e   2532 	.strz	"unsigned char"
000000ca 656420636861 
000000d0 7200 
000000d2 08             2533 	.byte	8
000000d3 01             2534 	.byte	1
                        2535 
                        2536 .LDW_4c862a8:
000000d4 2f             2537 	.byte	47
000000d5 00000000*      2538 	.word	.LDW_4c8e5a0
                        2539 
                        2540 .LDW_53ce7e0:
000000d9 25             2541 	.byte	37
000000da 756e7369676e   2542 	.strz	"unsigned int"
000000e0 656420696e74 
000000e6 00 
000000e7 07             2543 	.byte	7
000000e8 04             2544 	.byte	4
                        2545 
                        2546 .LDW_4b7e1f8:
000000e9 2f             2547 	.byte	47
000000ea 00000000*      2548 	.word	.LDW_4c862a8
                        2549 
                        2550 .LDW_553c8a8:
000000ee 44             2551 	.byte	68
000000ef 00000000*      2552 	.word	.LDW_4c8e5a0
000000f3 01             2553 	.byte	1
                        2554 
                        2555 	.section	.debug_abbrev
00000029 44             2556 	.byte	68
0000002a 15             2557 	.byte	21
0000002b 01             2558 	.byte	1
0000002c 4910           2559 	.byte	73,16
0000002e 270c           2560 	.byte	39,12

                                                                      Page 64
                                                              C:\Users\nhuliyap\AppData\Local\Temp\gh_00008cs1.s
00000030 0000           2561 	.byte	0,0
                        2562 
                        2563 	.section	.debug_info
                        2564 .LDW_553e900:
000000f4 12             2565 	.byte	18
000000f5 00000000*      2566 	.word	.LDW_486a118
000000f9 00             2567 	.byte	0
                        2568 
                        2569 	.section	.debug_abbrev
00000032 12             2570 	.byte	18
00000033 05             2571 	.byte	5
00000034 00             2572 	.byte	0
00000035 4910           2573 	.byte	73,16
00000037 4b0c           2574 	.byte	75,12
00000039 0000           2575 	.byte	0,0
                        2576 
                        2577 	.section	.debug_info
000000fa 00             2578 	.byte	0
                        2579 
                        2580 .LDW_553cbf0:
000000fb 44             2581 	.byte	68
000000fc 00000000*      2582 	.word	.LDW_4c862a8
00000100 01             2583 	.byte	1
                        2584 
                        2585 .LDW_553eba0:
00000101 12             2586 	.byte	18
00000102 00000000*      2587 	.word	.LDW_486a118
00000106 00             2588 	.byte	0
                        2589 
00000107 00             2590 	.byte	0
                        2591 
                        2592 .LDW_553f590:
00000108 2b             2593 	.byte	43
00000109 00000000*      2594 	.word	.LDW_4c8e5a0
                        2595 
                        2596 	.section	.debug_abbrev
0000003b 2b             2597 	.byte	43
0000003c 35             2598 	.byte	53
0000003d 00             2599 	.byte	0
0000003e 4910           2600 	.byte	73,16
00000040 0000           2601 	.byte	0,0
                        2602 
                        2603 	.section	.debug_info
                        2604 .LDW_553c918:
0000010d 45             2605 	.byte	69
0000010e 01             2606 	.byte	1
                        2607 
                        2608 	.section	.debug_abbrev
00000042 45             2609 	.byte	69
00000043 15             2610 	.byte	21
00000044 01             2611 	.byte	1
00000045 270c           2612 	.byte	39,12
00000047 0000           2613 	.byte	0,0
                        2614 
                        2615 	.section	.debug_info
                        2616 .LDW_553ecf0:
0000010f 12             2617 	.byte	18
00000110 00000000*      2618 	.word	.LDW_486a118
00000114 00             2619 	.byte	0
                        2620 
00000115 00             2621 	.byte	0

                                                                      Page 65
                                                              C:\Users\nhuliyap\AppData\Local\Temp\gh_00008cs1.s
                        2622 
                        2623 .LDW_553ccd0:
00000116 45             2624 	.byte	69
00000117 01             2625 	.byte	1
                        2626 
00000118 00             2627 	.byte	0
                        2628 
                        2629 .LDW_553c9c0:
00000119 45             2630 	.byte	69
0000011a 01             2631 	.byte	1
                        2632 
0000011b 00             2633 	.byte	0
                        2634 
                        2635 .LDW_553ce20:
0000011c 45             2636 	.byte	69
0000011d 01             2637 	.byte	1
                        2638 
0000011e 00             2639 	.byte	0
                        2640 
                        2641 .LDW_553cc60:
0000011f 45             2642 	.byte	69
00000120 01             2643 	.byte	1
                        2644 
00000121 00             2645 	.byte	0
                        2646 
                        2647 .LDW_553ca30:
00000122 45             2648 	.byte	69
00000123 01             2649 	.byte	1
                        2650 
00000124 00             2651 	.byte	0
                        2652 
                        2653 .LDW_553cc28:
00000125 45             2654 	.byte	69
00000126 01             2655 	.byte	1
                        2656 
00000127 00             2657 	.byte	0
                        2658 
                        2659 .LDW_553ca68:
00000128 45             2660 	.byte	69
00000129 01             2661 	.byte	1
                        2662 
0000012a 00             2663 	.byte	0
                        2664 
                        2665 .LDW_553cde8:
0000012b 45             2666 	.byte	69
0000012c 01             2667 	.byte	1
                        2668 
0000012d 00             2669 	.byte	0
                        2670 
                        2671 .LDW_553cc98:
0000012e 45             2672 	.byte	69
0000012f 01             2673 	.byte	1
                        2674 
00000130 00             2675 	.byte	0
                        2676 
                        2677 .LDW_553c950:
00000131 45             2678 	.byte	69
00000132 01             2679 	.byte	1
                        2680 
00000133 00             2681 	.byte	0
                        2682 

                                                                      Page 66
                                                              C:\Users\nhuliyap\AppData\Local\Temp\gh_00008cs1.s
                        2683 .LDW_553c758:
00000134 45             2684 	.byte	69
00000135 01             2685 	.byte	1
                        2686 
00000136 00             2687 	.byte	0
                        2688 
                        2689 .LDW_553cad8:
00000137 45             2690 	.byte	69
00000138 01             2691 	.byte	1
                        2692 
00000139 00             2693 	.byte	0
                        2694 
                        2695 .LDW_553c790:
0000013a 45             2696 	.byte	69
0000013b 01             2697 	.byte	1
                        2698 
0000013c 00             2699 	.byte	0
                        2700 
                        2701 .LDW_553c7c8:
0000013d 45             2702 	.byte	69
0000013e 01             2703 	.byte	1
                        2704 
0000013f 00             2705 	.byte	0
                        2706 
                        2707 .LDW_553caa0:
00000140 45             2708 	.byte	69
00000141 01             2709 	.byte	1
                        2710 
00000142 00             2711 	.byte	0
                        2712 
                        2713 .LDW_553cb10:
00000143 45             2714 	.byte	69
00000144 01             2715 	.byte	1
                        2716 
00000145 00             2717 	.byte	0
                        2718 
                        2719 .LDW_553cd08:
00000146 45             2720 	.byte	69
00000147 01             2721 	.byte	1
                        2722 
00000148 00             2723 	.byte	0
                        2724 
                        2725 .LDW_553cdb0:
00000149 45             2726 	.byte	69
0000014a 01             2727 	.byte	1
                        2728 
0000014b 00             2729 	.byte	0
                        2730 
                        2731 .LDW_553c988:
0000014c 45             2732 	.byte	69
0000014d 01             2733 	.byte	1
                        2734 
0000014e 00             2735 	.byte	0
                        2736 
                        2737 .LDW_553cd40:
0000014f 45             2738 	.byte	69
00000150 01             2739 	.byte	1
                        2740 
00000151 00             2741 	.byte	0
                        2742 
                        2743 .LDW_553cb48:

                                                                      Page 67
                                                              C:\Users\nhuliyap\AppData\Local\Temp\gh_00008cs1.s
00000152 45             2744 	.byte	69
00000153 01             2745 	.byte	1
                        2746 
00000154 00             2747 	.byte	0
                        2748 
                        2749 .LDW_553cb80:
00000155 45             2750 	.byte	69
00000156 01             2751 	.byte	1
                        2752 
00000157 00             2753 	.byte	0
                        2754 
                        2755 .LDW_553c800:
00000158 45             2756 	.byte	69
00000159 01             2757 	.byte	1
                        2758 
0000015a 00             2759 	.byte	0
                        2760 
                        2761 .LDW_553cbb8:
0000015b 45             2762 	.byte	69
0000015c 01             2763 	.byte	1
                        2764 
0000015d 00             2765 	.byte	0
                        2766 
                        2767 .LDW_553c838:
0000015e 45             2768 	.byte	69
0000015f 01             2769 	.byte	1
                        2770 
00000160 00             2771 	.byte	0
                        2772 
                        2773 .LDW_553cd78:
00000161 45             2774 	.byte	69
00000162 01             2775 	.byte	1
                        2776 
00000163 00             2777 	.byte	0
                        2778 
                        2779 .LDW_553c870:
00000164 45             2780 	.byte	69
00000165 01             2781 	.byte	1
                        2782 
00000166 00             2783 	.byte	0
                        2784 
                        2785 .LDW_553ce90:
00000167 45             2786 	.byte	69
00000168 01             2787 	.byte	1
                        2788 
00000169 00             2789 	.byte	0
                        2790 
                        2791 .LDW_553cf70:
0000016a 45             2792 	.byte	69
0000016b 01             2793 	.byte	1
                        2794 
0000016c 00             2795 	.byte	0
                        2796 
                        2797 .LDW_553cfa8:
0000016d 44             2798 	.byte	68
0000016e 00000000*      2799 	.word	.LDW_4869f78
00000172 01             2800 	.byte	1
                        2801 
00000173 00             2802 	.byte	0
                        2803 
                        2804 .LDW_553cec8:

                                                                      Page 68
                                                              C:\Users\nhuliyap\AppData\Local\Temp\gh_00008cs1.s
00000174 45             2805 	.byte	69
00000175 01             2806 	.byte	1
                        2807 
00000176 00             2808 	.byte	0
                        2809 
                        2810 .LDW_5585b48:
00000177 25             2811 	.byte	37
00000178 696e7400       2812 	.strz	"int"
0000017c 05             2813 	.byte	5
0000017d 04             2814 	.byte	4
                        2815 
                        2816 .LDW_5585b80:
0000017e 45             2817 	.byte	69
0000017f 01             2818 	.byte	1
                        2819 
00000180 00             2820 	.byte	0
                        2821 
                        2822 .LDW_5585cd0:
00000181 2f             2823 	.byte	47
00000182 00000000*      2824 	.word	.LDW_5585b80
                        2825 
                        2826 .LDW_5585c60:
00000186 45             2827 	.byte	69
00000187 01             2828 	.byte	1
                        2829 
00000188 00             2830 	.byte	0
                        2831 
                        2832 .LDW_55858e0:
00000189 2f             2833 	.byte	47
0000018a 00000000*      2834 	.word	.LDW_5585c60
                        2835 
                        2836 .LDW_5585bb8:
0000018e 45             2837 	.byte	69
0000018f 01             2838 	.byte	1
                        2839 
                        2840 .LDW_553d160:
00000190 12             2841 	.byte	18
00000191 00000000*      2842 	.word	.LDW_4869f78
00000195 00             2843 	.byte	0
                        2844 
00000196 00             2845 	.byte	0
                        2846 
                        2847 .LDW_5585758:
00000197 2f             2848 	.byte	47
00000198 00000000*      2849 	.word	.LDW_5585bb8
                        2850 
                        2851 .LDW_5585800:
0000019c 45             2852 	.byte	69
0000019d 01             2853 	.byte	1
                        2854 
                        2855 .LDW_553d1f0:
0000019e 12             2856 	.byte	18
0000019f 00000000*      2857 	.word	.LDW_4869f78
000001a3 00             2858 	.byte	0
                        2859 
000001a4 00             2860 	.byte	0
                        2861 
                        2862 .LDW_5585ad8:
000001a5 2f             2863 	.byte	47
000001a6 00000000*      2864 	.word	.LDW_5585800
                        2865 

                                                                      Page 69
                                                              C:\Users\nhuliyap\AppData\Local\Temp\gh_00008cs1.s
                        2866 .LDW_558f7e0:
000001aa 2a             2867 	.byte	42
                        2868 
                        2869 	.section	.debug_abbrev
00000049 2a             2870 	.byte	42
0000004a 26             2871 	.byte	38
0000004b 00             2872 	.byte	0
0000004c 0000           2873 	.byte	0,0
                        2874 
                        2875 	.section	.debug_info
                        2876 .LDW_5585bf0:
000001ab 2f             2877 	.byte	47
000001ac 00000000*      2878 	.word	.LDW_558f7e0
                        2879 
                        2880 .LDW_55ce028:
000001b0 29             2881 	.byte	41
000001b1 00000000*      2882 	.word	.LDW_5587ae8
                        2883 
                        2884 	.section	.debug_abbrev
0000004e 29             2885 	.byte	41
0000004f 26             2886 	.byte	38
00000050 00             2887 	.byte	0
00000051 4910           2888 	.byte	73,16
00000053 0000           2889 	.byte	0,0
                        2890 
                        2891 	.section	.debug_info
                        2892 .LDW_55cb1d0:
000001b5 3b             2893 	.byte	59
000001b6 00             2894 	.byte	0
000001b7 00000000*      2895 	.word	.LDW_55ce028
                        2896 
                        2897 	.section	.debug_abbrev
00000055 3b             2898 	.byte	59
00000056 01             2899 	.byte	1
00000057 01             2900 	.byte	1
00000058 090b           2901 	.byte	9,11
0000005a 4910           2902 	.byte	73,16
0000005c 0000           2903 	.byte	0,0
                        2904 
                        2905 	.section	.debug_info
000001bb 32             2906 	.byte	50
000001bc 00000000*      2907 	.word	.LDW_5585b48
000001c0 04             2908 	.byte	4
000001c1 00             2909 	.byte	0
000001c2 7f             2910 	.byte	127
                        2911 
                        2912 	.section	.debug_abbrev
0000005e 32             2913 	.byte	50
0000005f 21             2914 	.byte	33
00000060 00             2915 	.byte	0
00000061 4910           2916 	.byte	73,16
00000063 0b0f           2917 	.byte	11,15
00000065 220d           2918 	.byte	34,13
00000067 2f0d           2919 	.byte	47,13
00000069 0000           2920 	.byte	0,0
                        2921 
                        2922 	.section	.debug_info
000001c3 00             2923 	.byte	0
                        2924 
                        2925 .LDW_55ccce8:
000001c4 3a             2926 	.byte	58

                                                                      Page 70
                                                              C:\Users\nhuliyap\AppData\Local\Temp\gh_00008cs1.s
000001c5 00             2927 	.byte	0
000001c6 0a             2928 	.byte	10
000001c7 00000000*      2929 	.word	.LDW_4c8e5a0
                        2930 
                        2931 	.section	.debug_abbrev
0000006b 3a             2932 	.byte	58
0000006c 01             2933 	.byte	1
0000006d 01             2934 	.byte	1
0000006e 090b           2935 	.byte	9,11
00000070 0b0f           2936 	.byte	11,15
00000072 4910           2937 	.byte	73,16
00000074 0000           2938 	.byte	0,0
                        2939 
                        2940 	.section	.debug_info
000001cb 32             2941 	.byte	50
000001cc 00000000*      2942 	.word	.LDW_5585b48
000001d0 04             2943 	.byte	4
000001d1 00             2944 	.byte	0
000001d2 09             2945 	.byte	9
                        2946 
000001d3 00             2947 	.byte	0
                        2948 
                        2949 .LDW_55cca40:
000001d4 3a             2950 	.byte	58
000001d5 00             2951 	.byte	0
000001d6 0a             2952 	.byte	10
000001d7 00000000*      2953 	.word	.LDW_4c8e5a0
                        2954 
000001db 32             2955 	.byte	50
000001dc 00000000*      2956 	.word	.LDW_5585b48
000001e0 04             2957 	.byte	4
000001e1 00             2958 	.byte	0
000001e2 09             2959 	.byte	9
                        2960 
000001e3 00             2961 	.byte	0
                        2962 
                        2963 .LDW_55cc710:
000001e4 3a             2964 	.byte	58
000001e5 00             2965 	.byte	0
000001e6 34             2966 	.byte	52
000001e7 00000000*      2967 	.word	.LDW_4c8e5a0
                        2968 
000001eb 32             2969 	.byte	50
000001ec 00000000*      2970 	.word	.LDW_5585b48
000001f0 04             2971 	.byte	4
000001f1 00             2972 	.byte	0
000001f2 33             2973 	.byte	51
                        2974 
000001f3 00             2975 	.byte	0
                        2976 
                        2977 .LDW_55cc358:
000001f4 3a             2978 	.byte	58
000001f5 00             2979 	.byte	0
000001f6 34             2980 	.byte	52
000001f7 00000000*      2981 	.word	.LDW_4c8e5a0
                        2982 
000001fb 32             2983 	.byte	50
000001fc 00000000*      2984 	.word	.LDW_5585b48
00000200 04             2985 	.byte	4
00000201 00             2986 	.byte	0
00000202 33             2987 	.byte	51

                                                                      Page 71
                                                              C:\Users\nhuliyap\AppData\Local\Temp\gh_00008cs1.s
                        2988 
00000203 00             2989 	.byte	0
                        2990 
                        2991 .LDW_55cce80:
00000204 3a             2992 	.byte	58
00000205 00             2993 	.byte	0
00000206 60             2994 	.byte	96
00000207 00000000*      2995 	.word	.LDW_4c8e5a0
                        2996 
0000020b 32             2997 	.byte	50
0000020c 00000000*      2998 	.word	.LDW_5585b48
00000210 04             2999 	.byte	4
00000211 00             3000 	.byte	0
00000212 df00           3001 	.byte	223,0
                        3002 
00000214 00             3003 	.byte	0
                        3004 
                        3005 .LDW_55ccf08:
00000215 3a             3006 	.byte	58
00000216 00             3007 	.byte	0
00000217 14             3008 	.byte	20
00000218 00000000*      3009 	.word	.LDW_4c8e5a0
                        3010 
0000021c 32             3011 	.byte	50
0000021d 00000000*      3012 	.word	.LDW_5585b48
00000221 04             3013 	.byte	4
00000222 00             3014 	.byte	0
00000223 13             3015 	.byte	19
                        3016 
00000224 00             3017 	.byte	0
                        3018 
                        3019 .LDW_55ccac8:
00000225 3a             3020 	.byte	58
00000226 00             3021 	.byte	0
00000227 30             3022 	.byte	48
00000228 00000000*      3023 	.word	.LDW_4c8e5a0
                        3024 
0000022c 32             3025 	.byte	50
0000022d 00000000*      3026 	.word	.LDW_5585b48
00000231 04             3027 	.byte	4
00000232 00             3028 	.byte	0
00000233 2f             3029 	.byte	47
                        3030 
00000234 00             3031 	.byte	0
                        3032 
                        3033 .LDW_55ccbd8:
00000235 3a             3034 	.byte	58
00000236 00             3035 	.byte	0
00000237 30             3036 	.byte	48
00000238 00000000*      3037 	.word	.LDW_4c8e5a0
                        3038 
0000023c 32             3039 	.byte	50
0000023d 00000000*      3040 	.word	.LDW_5585b48
00000241 04             3041 	.byte	4
00000242 00             3042 	.byte	0
00000243 2f             3043 	.byte	47
                        3044 
00000244 00             3045 	.byte	0
                        3046 
                        3047 .LDW_55ccf90:
00000245 3a             3048 	.byte	58

                                                                      Page 72
                                                              C:\Users\nhuliyap\AppData\Local\Temp\gh_00008cs1.s
00000246 00             3049 	.byte	0
00000247 18             3050 	.byte	24
00000248 00000000*      3051 	.word	.LDW_4c8e5a0
                        3052 
0000024c 32             3053 	.byte	50
0000024d 00000000*      3054 	.word	.LDW_5585b48
00000251 04             3055 	.byte	4
00000252 00             3056 	.byte	0
00000253 17             3057 	.byte	23
                        3058 
00000254 00             3059 	.byte	0
                        3060 
                        3061 .LDW_55ccc60:
00000255 3a             3062 	.byte	58
00000256 00             3063 	.byte	0
00000257 18             3064 	.byte	24
00000258 00000000*      3065 	.word	.LDW_4c8e5a0
                        3066 
0000025c 32             3067 	.byte	50
0000025d 00000000*      3068 	.word	.LDW_5585b48
00000261 04             3069 	.byte	4
00000262 00             3070 	.byte	0
00000263 17             3071 	.byte	23
                        3072 
00000264 00             3073 	.byte	0
                        3074 
                        3075 .LDW_55cd018:
00000265 3a             3076 	.byte	58
00000266 00             3077 	.byte	0
00000267 20             3078 	.byte	32
00000268 00000000*      3079 	.word	.LDW_4c8e5a0
                        3080 
0000026c 32             3081 	.byte	50
0000026d 00000000*      3082 	.word	.LDW_5585b48
00000271 04             3083 	.byte	4
00000272 00             3084 	.byte	0
00000273 1f             3085 	.byte	31
                        3086 
00000274 00             3087 	.byte	0
                        3088 
                        3089 .LDW_55cc468:
00000275 3a             3090 	.byte	58
00000276 00             3091 	.byte	0
00000277 04             3092 	.byte	4
00000278 00000000*      3093 	.word	.LDW_4c8e5a0
                        3094 
0000027c 32             3095 	.byte	50
0000027d 00000000*      3096 	.word	.LDW_5585b48
00000281 04             3097 	.byte	4
00000282 00             3098 	.byte	0
00000283 03             3099 	.byte	3
                        3100 
00000284 00             3101 	.byte	0
                        3102 
                        3103 .LDW_55cc3e0:
00000285 3a             3104 	.byte	58
00000286 00             3105 	.byte	0
00000287 14             3106 	.byte	20
00000288 00000000*      3107 	.word	.LDW_4c8e5a0
                        3108 
0000028c 32             3109 	.byte	50

                                                                      Page 73
                                                              C:\Users\nhuliyap\AppData\Local\Temp\gh_00008cs1.s
0000028d 00000000*      3110 	.word	.LDW_5585b48
00000291 04             3111 	.byte	4
00000292 00             3112 	.byte	0
00000293 13             3113 	.byte	19
                        3114 
00000294 00             3115 	.byte	0
                        3116 
                        3117 .LDW_55cc600:
00000295 3a             3118 	.byte	58
00000296 00             3119 	.byte	0
00000297 40             3120 	.byte	64
00000298 00000000*      3121 	.word	.LDW_4c8e5a0
                        3122 
0000029c 32             3123 	.byte	50
0000029d 00000000*      3124 	.word	.LDW_5585b48
000002a1 04             3125 	.byte	4
000002a2 00             3126 	.byte	0
000002a3 3f             3127 	.byte	63
                        3128 
000002a4 00             3129 	.byte	0
                        3130 
                        3131 .LDW_55e96c8:
000002a5 3a             3132 	.byte	58
000002a6 00             3133 	.byte	0
000002a7 28             3134 	.byte	40
000002a8 00000000*      3135 	.word	.LDW_4c862a8
                        3136 
000002ac 32             3137 	.byte	50
000002ad 00000000*      3138 	.word	.LDW_5585b48
000002b1 04             3139 	.byte	4
000002b2 00             3140 	.byte	0
000002b3 09             3141 	.byte	9
                        3142 
000002b4 00             3143 	.byte	0
                        3144 
                        3145 .LDW_55e99f8:
000002b5 3a             3146 	.byte	58
000002b6 00             3147 	.byte	0
000002b7 34             3148 	.byte	52
000002b8 00000000*      3149 	.word	.LDW_4c8e5a0
                        3150 
000002bc 32             3151 	.byte	50
000002bd 00000000*      3152 	.word	.LDW_5585b48
000002c1 04             3153 	.byte	4
000002c2 00             3154 	.byte	0
000002c3 33             3155 	.byte	51
                        3156 
000002c4 00             3157 	.byte	0
                        3158 
                        3159 .LDW_55e9ca0:
000002c5 3a             3160 	.byte	58
000002c6 00             3161 	.byte	0
000002c7 34             3162 	.byte	52
000002c8 00000000*      3163 	.word	.LDW_4c8e5a0
                        3164 
000002cc 32             3165 	.byte	50
000002cd 00000000*      3166 	.word	.LDW_5585b48
000002d1 04             3167 	.byte	4
000002d2 00             3168 	.byte	0
000002d3 33             3169 	.byte	51
                        3170 

                                                                      Page 74
                                                              C:\Users\nhuliyap\AppData\Local\Temp\gh_00008cs1.s
000002d4 00             3171 	.byte	0
                        3172 
                        3173 .LDW_55e97d8:
000002d5 3a             3174 	.byte	58
000002d6 00             3175 	.byte	0
000002d7 60             3176 	.byte	96
000002d8 00000000*      3177 	.word	.LDW_4c8e5a0
                        3178 
000002dc 32             3179 	.byte	50
000002dd 00000000*      3180 	.word	.LDW_5585b48
000002e1 04             3181 	.byte	4
000002e2 00             3182 	.byte	0
000002e3 df00           3183 	.byte	223,0
                        3184 
000002e5 00             3185 	.byte	0
                        3186 
                        3187 .LDW_55e9640:
000002e6 3a             3188 	.byte	58
000002e7 00             3189 	.byte	0
000002e8 14             3190 	.byte	20
000002e9 00000000*      3191 	.word	.LDW_4c8e5a0
                        3192 
000002ed 32             3193 	.byte	50
000002ee 00000000*      3194 	.word	.LDW_5585b48
000002f2 04             3195 	.byte	4
000002f3 00             3196 	.byte	0
000002f4 13             3197 	.byte	19
                        3198 
000002f5 00             3199 	.byte	0
                        3200 
                        3201 .LDW_55ea1f0:
000002f6 3a             3202 	.byte	58
000002f7 00             3203 	.byte	0
000002f8 30             3204 	.byte	48
000002f9 00000000*      3205 	.word	.LDW_4c8e5a0
                        3206 
000002fd 32             3207 	.byte	50
000002fe 00000000*      3208 	.word	.LDW_5585b48
00000302 04             3209 	.byte	4
00000303 00             3210 	.byte	0
00000304 2f             3211 	.byte	47
                        3212 
00000305 00             3213 	.byte	0
                        3214 
                        3215 .LDW_55e9e38:
00000306 3a             3216 	.byte	58
00000307 00             3217 	.byte	0
00000308 30             3218 	.byte	48
00000309 00000000*      3219 	.word	.LDW_4c8e5a0
                        3220 
0000030d 32             3221 	.byte	50
0000030e 00000000*      3222 	.word	.LDW_5585b48
00000312 04             3223 	.byte	4
00000313 00             3224 	.byte	0
00000314 2f             3225 	.byte	47
                        3226 
00000315 00             3227 	.byte	0
                        3228 
                        3229 .LDW_55e9310:
00000316 3a             3230 	.byte	58
00000317 00             3231 	.byte	0

                                                                      Page 75
                                                              C:\Users\nhuliyap\AppData\Local\Temp\gh_00008cs1.s
00000318 18             3232 	.byte	24
00000319 00000000*      3233 	.word	.LDW_4c8e5a0
                        3234 
0000031d 32             3235 	.byte	50
0000031e 00000000*      3236 	.word	.LDW_5585b48
00000322 04             3237 	.byte	4
00000323 00             3238 	.byte	0
00000324 17             3239 	.byte	23
                        3240 
00000325 00             3241 	.byte	0
                        3242 
                        3243 .LDW_55e9ec0:
00000326 3a             3244 	.byte	58
00000327 00             3245 	.byte	0
00000328 18             3246 	.byte	24
00000329 00000000*      3247 	.word	.LDW_4c8e5a0
                        3248 
0000032d 32             3249 	.byte	50
0000032e 00000000*      3250 	.word	.LDW_5585b48
00000332 04             3251 	.byte	4
00000333 00             3252 	.byte	0
00000334 17             3253 	.byte	23
                        3254 
00000335 00             3255 	.byte	0
                        3256 
                        3257 .LDW_55e9db0:
00000336 3a             3258 	.byte	58
00000337 00             3259 	.byte	0
00000338 20             3260 	.byte	32
00000339 00000000*      3261 	.word	.LDW_4c8e5a0
                        3262 
0000033d 32             3263 	.byte	50
0000033e 00000000*      3264 	.word	.LDW_5585b48
00000342 04             3265 	.byte	4
00000343 00             3266 	.byte	0
00000344 1f             3267 	.byte	31
                        3268 
00000345 00             3269 	.byte	0
                        3270 
                        3271 .LDW_55e9970:
00000346 3a             3272 	.byte	58
00000347 00             3273 	.byte	0
00000348 04             3274 	.byte	4
00000349 00000000*      3275 	.word	.LDW_4c8e5a0
                        3276 
0000034d 32             3277 	.byte	50
0000034e 00000000*      3278 	.word	.LDW_5585b48
00000352 04             3279 	.byte	4
00000353 00             3280 	.byte	0
00000354 03             3281 	.byte	3
                        3282 
00000355 00             3283 	.byte	0
                        3284 
                        3285 .LDW_55e9530:
00000356 3a             3286 	.byte	58
00000357 00             3287 	.byte	0
00000358 23             3288 	.byte	35
00000359 00000000*      3289 	.word	.LDW_4c8e5a0
                        3290 
0000035d 32             3291 	.byte	50
0000035e 00000000*      3292 	.word	.LDW_5585b48

                                                                      Page 76
                                                              C:\Users\nhuliyap\AppData\Local\Temp\gh_00008cs1.s
00000362 04             3293 	.byte	4
00000363 00             3294 	.byte	0
00000364 22             3295 	.byte	34
                        3296 
00000365 00             3297 	.byte	0
                        3298 
                        3299 .LDW_55e9d28:
00000366 3a             3300 	.byte	58
00000367 00             3301 	.byte	0
00000368 30             3302 	.byte	48
00000369 00000000*      3303 	.word	.LDW_4c8e5a0
                        3304 
0000036d 32             3305 	.byte	50
0000036e 00000000*      3306 	.word	.LDW_5585b48
00000372 04             3307 	.byte	4
00000373 00             3308 	.byte	0
00000374 2f             3309 	.byte	47
                        3310 
00000375 00             3311 	.byte	0
                        3312 
                        3313 .LDW_55e9c18:
00000376 3a             3314 	.byte	58
00000377 00             3315 	.byte	0
00000378 30             3316 	.byte	48
00000379 00000000*      3317 	.word	.LDW_4c8e5a0
                        3318 
0000037d 32             3319 	.byte	50
0000037e 00000000*      3320 	.word	.LDW_5585b48
00000382 04             3321 	.byte	4
00000383 00             3322 	.byte	0
00000384 2f             3323 	.byte	47
                        3324 
00000385 00             3325 	.byte	0
                        3326 
                        3327 .LDW_55e9f48:
00000386 3a             3328 	.byte	58
00000387 00             3329 	.byte	0
00000388 30             3330 	.byte	48
00000389 00000000*      3331 	.word	.LDW_4c8e5a0
                        3332 
0000038d 32             3333 	.byte	50
0000038e 00000000*      3334 	.word	.LDW_5585b48
00000392 04             3335 	.byte	4
00000393 00             3336 	.byte	0
00000394 2f             3337 	.byte	47
                        3338 
00000395 00             3339 	.byte	0
                        3340 
                        3341 .LDW_55e9750:
00000396 3a             3342 	.byte	58
00000397 00             3343 	.byte	0
00000398 30             3344 	.byte	48
00000399 00000000*      3345 	.word	.LDW_4c8e5a0
                        3346 
0000039d 32             3347 	.byte	50
0000039e 00000000*      3348 	.word	.LDW_5585b48
000003a2 04             3349 	.byte	4
000003a3 00             3350 	.byte	0
000003a4 2f             3351 	.byte	47
                        3352 
000003a5 00             3353 	.byte	0

                                                                      Page 77
                                                              C:\Users\nhuliyap\AppData\Local\Temp\gh_00008cs1.s
                        3354 
                        3355 .LDW_55e9398:
000003a6 3a             3356 	.byte	58
000003a7 00             3357 	.byte	0
000003a8 30             3358 	.byte	48
000003a9 00000000*      3359 	.word	.LDW_4c8e5a0
                        3360 
000003ad 32             3361 	.byte	50
000003ae 00000000*      3362 	.word	.LDW_5585b48
000003b2 04             3363 	.byte	4
000003b3 00             3364 	.byte	0
000003b4 2f             3365 	.byte	47
                        3366 
000003b5 00             3367 	.byte	0
                        3368 
                        3369 .LDW_55e9fd0:
000003b6 3a             3370 	.byte	58
000003b7 00             3371 	.byte	0
000003b8 30             3372 	.byte	48
000003b9 00000000*      3373 	.word	.LDW_4c8e5a0
                        3374 
000003bd 32             3375 	.byte	50
000003be 00000000*      3376 	.word	.LDW_5585b48
000003c2 04             3377 	.byte	4
000003c3 00             3378 	.byte	0
000003c4 2f             3379 	.byte	47
                        3380 
000003c5 00             3381 	.byte	0
                        3382 
                        3383 .LDW_55e9b90:
000003c6 3a             3384 	.byte	58
000003c7 00             3385 	.byte	0
000003c8 30             3386 	.byte	48
000003c9 00000000*      3387 	.word	.LDW_4c8e5a0
                        3388 
000003cd 32             3389 	.byte	50
000003ce 00000000*      3390 	.word	.LDW_5585b48
000003d2 04             3391 	.byte	4
000003d3 00             3392 	.byte	0
000003d4 2f             3393 	.byte	47
                        3394 
000003d5 00             3395 	.byte	0
                        3396 
                        3397 .LDW_55e9860:
000003d6 3a             3398 	.byte	58
000003d7 00             3399 	.byte	0
000003d8 30             3400 	.byte	48
000003d9 00000000*      3401 	.word	.LDW_4c8e5a0
                        3402 
000003dd 32             3403 	.byte	50
000003de 00000000*      3404 	.word	.LDW_5585b48
000003e2 04             3405 	.byte	4
000003e3 00             3406 	.byte	0
000003e4 2f             3407 	.byte	47
                        3408 
000003e5 00             3409 	.byte	0
                        3410 
                        3411 .LDW_55e9178:
000003e6 3a             3412 	.byte	58
000003e7 00             3413 	.byte	0
000003e8 30             3414 	.byte	48

                                                                      Page 78
                                                              C:\Users\nhuliyap\AppData\Local\Temp\gh_00008cs1.s
000003e9 00000000*      3415 	.word	.LDW_4c8e5a0
                        3416 
000003ed 32             3417 	.byte	50
000003ee 00000000*      3418 	.word	.LDW_5585b48
000003f2 04             3419 	.byte	4
000003f3 00             3420 	.byte	0
000003f4 2f             3421 	.byte	47
                        3422 
000003f5 00             3423 	.byte	0
                        3424 
                        3425 .LDW_55e95b8:
000003f6 3a             3426 	.byte	58
000003f7 00             3427 	.byte	0
000003f8 30             3428 	.byte	48
000003f9 00000000*      3429 	.word	.LDW_4c8e5a0
                        3430 
000003fd 32             3431 	.byte	50
000003fe 00000000*      3432 	.word	.LDW_5585b48
00000402 04             3433 	.byte	4
00000403 00             3434 	.byte	0
00000404 2f             3435 	.byte	47
                        3436 
00000405 00             3437 	.byte	0
                        3438 
                        3439 .LDW_55e94a8:
00000406 3a             3440 	.byte	58
00000407 00             3441 	.byte	0
00000408 16             3442 	.byte	22
00000409 00000000*      3443 	.word	.LDW_4c8e5a0
                        3444 
0000040d 32             3445 	.byte	50
0000040e 00000000*      3446 	.word	.LDW_5585b48
00000412 04             3447 	.byte	4
00000413 00             3448 	.byte	0
00000414 15             3449 	.byte	21
                        3450 
00000415 00             3451 	.byte	0
                        3452 
                        3453 .LDW_55ea058:
00000416 3a             3454 	.byte	58
00000417 00             3455 	.byte	0
00000418 14             3456 	.byte	20
00000419 00000000*      3457 	.word	.LDW_4c8e5a0
                        3458 
0000041d 32             3459 	.byte	50
0000041e 00000000*      3460 	.word	.LDW_5585b48
00000422 04             3461 	.byte	4
00000423 00             3462 	.byte	0
00000424 13             3463 	.byte	19
                        3464 
00000425 00             3465 	.byte	0
                        3466 
                        3467 .LDW_55ea0e0:
00000426 3a             3468 	.byte	58
00000427 00             3469 	.byte	0
00000428 40             3470 	.byte	64
00000429 00000000*      3471 	.word	.LDW_4c8e5a0
                        3472 
0000042d 32             3473 	.byte	50
0000042e 00000000*      3474 	.word	.LDW_5585b48
00000432 04             3475 	.byte	4

                                                                      Page 79
                                                              C:\Users\nhuliyap\AppData\Local\Temp\gh_00008cs1.s
00000433 00             3476 	.byte	0
00000434 3f             3477 	.byte	63
                        3478 
00000435 00             3479 	.byte	0
                        3480 
                        3481 .LDW_55ea168:
00000436 3a             3482 	.byte	58
00000437 00             3483 	.byte	0
00000438 0b             3484 	.byte	11
00000439 00000000*      3485 	.word	.LDW_4c8e5a0
                        3486 
0000043d 32             3487 	.byte	50
0000043e 00000000*      3488 	.word	.LDW_5585b48
00000442 04             3489 	.byte	4
00000443 00             3490 	.byte	0
00000444 0a             3491 	.byte	10
                        3492 
00000445 00             3493 	.byte	0
                        3494 
                        3495 .LDW_5584df0:
00000446 45             3496 	.byte	69
00000447 01             3497 	.byte	1
                        3498 
00000448 00             3499 	.byte	0
                        3500 
                        3501 .LDW_5584d10:
00000449 45             3502 	.byte	69
0000044a 01             3503 	.byte	1
                        3504 
0000044b 00             3505 	.byte	0
                        3506 
                        3507 .LDW_5585678:
0000044c 2f             3508 	.byte	47
0000044d 00000000*      3509 	.word	.LDW_55ce028
                        3510 
                        3511 .LDW_5585138:
00000451 45             3512 	.byte	69
00000452 01             3513 	.byte	1
                        3514 
                        3515 .LDW_55efa48:
00000453 12             3516 	.byte	18
00000454 00000000*      3517 	.word	.LDW_5585678
00000458 00             3518 	.byte	0
                        3519 
00000459 00             3520 	.byte	0
                        3521 
                        3522 .LDW_5585020:
0000045a 45             3523 	.byte	69
0000045b 01             3524 	.byte	1
                        3525 
0000045c 00             3526 	.byte	0
                        3527 
                        3528 .LDW_5585100:
0000045d 45             3529 	.byte	69
0000045e 01             3530 	.byte	1
                        3531 
0000045f 00             3532 	.byte	0
                        3533 
                        3534 .LDW_55854b8:
00000460 2f             3535 	.byte	47
00000461 00000000*      3536 	.word	.LDW_54133b0

                                                                      Page 80
                                                              C:\Users\nhuliyap\AppData\Local\Temp\gh_00008cs1.s
                        3537 
                        3538 .LDW_5585480:
00000465 44             3539 	.byte	68
00000466 00000000*      3540 	.word	.LDW_5413e00
0000046a 01             3541 	.byte	1
                        3542 
                        3543 .LDW_55f00a8:
0000046b 12             3544 	.byte	18
0000046c 00000000*      3545 	.word	.LDW_54130f0
00000470 00             3546 	.byte	0
                        3547 
                        3548 .LDW_55f0228:
00000471 12             3549 	.byte	18
00000472 00000000*      3550 	.word	.LDW_55854b8
00000476 00             3551 	.byte	0
                        3552 
00000477 00             3553 	.byte	0
                        3554 
                        3555 .LDW_55854f0:
00000478 44             3556 	.byte	68
00000479 00000000*      3557 	.word	.LDW_5413e00
0000047d 01             3558 	.byte	1
                        3559 
                        3560 .LDW_55f02b8:
0000047e 12             3561 	.byte	18
0000047f 00000000*      3562 	.word	.LDW_54130f0
00000483 00             3563 	.byte	0
                        3564 
                        3565 .LDW_55f02e8:
00000484 12             3566 	.byte	18
00000485 00000000*      3567 	.word	.LDW_4c98ad0
00000489 00             3568 	.byte	0
                        3569 
0000048a 00             3570 	.byte	0
                        3571 
                        3572 .LDW_55851e0:
0000048b 44             3573 	.byte	68
0000048c 00000000*      3574 	.word	.LDW_5413e00
00000490 01             3575 	.byte	1
                        3576 
                        3577 .LDW_55efef8:
00000491 12             3578 	.byte	18
00000492 00000000*      3579 	.word	.LDW_54130f0
00000496 00             3580 	.byte	0
                        3581 
                        3582 .LDW_55effb8:
00000497 12             3583 	.byte	18
00000498 00000000*      3584 	.word	.LDW_5585bf0
0000049c 00             3585 	.byte	0
                        3586 
0000049d 00             3587 	.byte	0
                        3588 
                        3589 .LDW_5585288:
0000049e 45             3590 	.byte	69
0000049f 01             3591 	.byte	1
                        3592 
000004a0 00             3593 	.byte	0
                        3594 
                        3595 .LDW_5585528:
000004a1 45             3596 	.byte	69
000004a2 01             3597 	.byte	1

                                                                      Page 81
                                                              C:\Users\nhuliyap\AppData\Local\Temp\gh_00008cs1.s
                        3598 
000004a3 00             3599 	.byte	0
                        3600 
                        3601 .LDW_5585640:
000004a4 45             3602 	.byte	69
000004a5 01             3603 	.byte	1
                        3604 
000004a6 00             3605 	.byte	0
                        3606 
                        3607 .LDW_4c98ad0:
000004a7 28             3608 	.byte	40
000004a8 626f6f6c6561   3609 	.strz	"boolean"
000004ae 6e00 
000004b0 4e             3610 	.byte	78
000004b1 49             3611 	.byte	73
000004b2 05             3612 	.byte	5
000004b3 00000000*      3613 	.word	.LDW_4c85c18
                        3614 
                        3615 	.section	.debug_abbrev
00000076 28             3616 	.byte	40
00000077 16             3617 	.byte	22
00000078 00             3618 	.byte	0
00000079 0308           3619 	.byte	3,8
0000007b 3b0f           3620 	.byte	59,15
0000007d 390f           3621 	.byte	57,15
0000007f 3a0f           3622 	.byte	58,15
00000081 4910           3623 	.byte	73,16
00000083 0000           3624 	.byte	0,0
                        3625 
                        3626 	.section	.debug_info
                        3627 .LDW_4c8e5a0:
000004b7 28             3628 	.byte	40
000004b8 75696e743800   3629 	.strz	"uint8"
000004be 50             3630 	.byte	80
000004bf 4b             3631 	.byte	75
000004c0 05             3632 	.byte	5
000004c1 00000000*      3633 	.word	.LDW_4c85c18
                        3634 
                        3635 .LDW_486a118:
000004c5 28             3636 	.byte	40
000004c6 75696e743136   3637 	.strz	"uint16"
000004cc 00 
000004cd 52             3638 	.byte	82
000004ce 4a             3639 	.byte	74
000004cf 05             3640 	.byte	5
000004d0 00000000*      3641 	.word	.LDW_4826f38
                        3642 
                        3643 .LDW_4869f78:
000004d4 28             3644 	.byte	40
000004d5 75696e743332   3645 	.strz	"uint32"
000004db 00 
000004dc 54             3646 	.byte	84
000004dd 4a             3647 	.byte	74
000004de 05             3648 	.byte	5
000004df 00000000*      3649 	.word	.LDW_4826ec8
                        3650 
                        3651 .LDW_5413e00:
000004e3 28             3652 	.byte	40
000004e4 5374645f5265   3653 	.strz	"Std_ReturnType"
000004ea 7475726e5479 
000004f0 706500 

                                                                      Page 82
                                                              C:\Users\nhuliyap\AppData\Local\Temp\gh_00008cs1.s
000004f3 4e             3654 	.byte	78
000004f4 0f             3655 	.byte	15
000004f5 04             3656 	.byte	4
000004f6 00000000*      3657 	.word	.LDW_4c8e5a0
                        3658 
                        3659 .LDW_4c74f88:
000004fa 2e             3660 	.byte	46
000004fb 00             3661 	.byte	0
000004fc 36             3662 	.byte	54
000004fd 0d             3663 	.byte	13
000004fe 11             3664 	.byte	17
000004ff 01             3665 	.byte	1
00000500 01             3666 	.byte	1
                        3667 
                        3668 	.section	.debug_abbrev
00000085 2e             3669 	.byte	46
00000086 04             3670 	.byte	4
00000087 01             3671 	.byte	1
00000088 0308           3672 	.byte	3,8
0000008a 3b0f           3673 	.byte	59,15
0000008c 390f           3674 	.byte	57,15
0000008e 3a0f           3675 	.byte	58,15
00000090 0b0f           3676 	.byte	11,15
00000092 320b           3677 	.byte	50,11
00000094 0000           3678 	.byte	0,0
                        3679 
                        3680 	.section	.debug_info
                        3681 .LDW_4cdded8:
00000501 2d             3682 	.byte	45
00000502 44454d5f494e   3683 	.strz	"DEM_INIT_MONITOR_CLEAR"
00000508 49545f4d4f4e 
0000050e 49544f525f43 
00000514 4c45415200 
00000519 37             3684 	.byte	55
0000051a 03             3685 	.byte	3
0000051b 11             3686 	.byte	17
0000051c 01             3687 	.byte	1
                        3688 
                        3689 	.section	.debug_abbrev
00000096 2d             3690 	.byte	45
00000097 28             3691 	.byte	40
00000098 00             3692 	.byte	0
00000099 0308           3693 	.byte	3,8
0000009b 3b0f           3694 	.byte	59,15
0000009d 390f           3695 	.byte	57,15
0000009f 3a0f           3696 	.byte	58,15
000000a1 1c0d           3697 	.byte	28,13
000000a3 0000           3698 	.byte	0,0
                        3699 
                        3700 	.section	.debug_info
                        3701 .LDW_4cde598:
0000051d 2d             3702 	.byte	45
0000051e 44454d5f494e   3703 	.strz	"DEM_INIT_MONITOR_RESTART"
00000524 49545f4d4f4e 
0000052a 49544f525f52 
00000530 455354415254 
00000536 00 
00000537 38             3704 	.byte	56
00000538 03             3705 	.byte	3
00000539 11             3706 	.byte	17
0000053a 02             3707 	.byte	2

                                                                      Page 83
                                                              C:\Users\nhuliyap\AppData\Local\Temp\gh_00008cs1.s
                        3708 
                        3709 .LDW_53dcbf8:
0000053b 2d             3710 	.byte	45
0000053c 44454d5f494e   3711 	.strz	"DEM_INIT_MONITOR_REENABLED"
00000542 49545f4d4f4e 
00000548 49544f525f52 
0000054e 45454e41424c 
00000554 454400 
00000557 39             3712 	.byte	57
00000558 03             3713 	.byte	3
00000559 11             3714 	.byte	17
0000055a 03             3715 	.byte	3
                        3716 
                        3717 .LDW_53dcc38:
0000055b 2d             3718 	.byte	45
0000055c 44454d5f494e   3719 	.strz	"DEM_INIT_MONITOR_STORAGE_REENABLED"
00000562 49545f4d4f4e 
00000568 49544f525f53 
0000056e 544f52414745 
00000574 5f5245454e41 
0000057a 424c454400 
0000057f 3a             3720 	.byte	58
00000580 03             3721 	.byte	3
00000581 11             3722 	.byte	17
00000582 04             3723 	.byte	4
                        3724 
00000583 00             3725 	.byte	0
                        3726 
                        3727 .LDW_54ac770:
00000584 28             3728 	.byte	40
00000585 44656d5f496e   3729 	.strz	"Dem_InitMonitorReasonType"
0000058b 69744d6f6e69 
00000591 746f72526561 
00000597 736f6e547970 
0000059d 6500 
0000059f 3b             3730 	.byte	59
000005a0 02             3731 	.byte	2
000005a1 11             3732 	.byte	17
000005a2 00000000*      3733 	.word	.LDW_4c74f88
                        3734 
                        3735 .LDW_5587a90:
000005a6 40             3736 	.byte	64
000005a7 535461675f46   3737 	.strz	"STag_Fls_ConfigType"
000005ad 6c735f436f6e 
000005b3 666967547970 
000005b9 6500 
000005bb 24             3738 	.byte	36
000005bc 10             3739 	.byte	16
000005bd 1f             3740 	.byte	31
000005be 24             3741 	.byte	36
000005bf 01             3742 	.byte	1
                        3743 
                        3744 	.section	.debug_abbrev
000000a5 40             3745 	.byte	64
000000a6 13             3746 	.byte	19
000000a7 01             3747 	.byte	1
000000a8 0308           3748 	.byte	3,8
000000aa 3b0f           3749 	.byte	59,15
000000ac 390f           3750 	.byte	57,15
000000ae 3a0f           3751 	.byte	58,15
000000b0 0b0f           3752 	.byte	11,15

                                                                      Page 84
                                                              C:\Users\nhuliyap\AppData\Local\Temp\gh_00008cs1.s
000000b2 320b           3753 	.byte	50,11
000000b4 0000           3754 	.byte	0,0
                        3755 
                        3756 	.section	.debug_info
                        3757 .LDW_54be9b0:
000005c0 23             3758 	.byte	35
000005c1 756c53746172   3759 	.strz	"ulStartOfDbToc"
000005c7 744f66446254 
000005cd 6f6300 
000005d0 27             3760 	.byte	39
000005d1 0a             3761 	.byte	10
000005d2 1f             3762 	.byte	31
000005d3 00000000*      3763 	.word	.LDW_4869f78
000005d7 0223           3764 	.byte	2,35
000005d9 00             3765 	.byte	0
000005da 01             3766 	.byte	1
                        3767 
                        3768 	.section	.debug_abbrev
000000b6 23             3769 	.byte	35
000000b7 0d             3770 	.byte	13
000000b8 00             3771 	.byte	0
000000b9 0308           3772 	.byte	3,8
000000bb 3b0f           3773 	.byte	59,15
000000bd 390f           3774 	.byte	57,15
000000bf 3a0f           3775 	.byte	58,15
000000c1 4910           3776 	.byte	73,16
000000c3 380a           3777 	.byte	56,10
000000c5 320b           3778 	.byte	50,11
000000c7 0000           3779 	.byte	0,0
                        3780 
                        3781 	.section	.debug_info
                        3782 .LDW_54be9f8:
000005db 23             3783 	.byte	35
000005dc 704a6f62456e   3784 	.strz	"pJobEndNotificationPointer"
000005e2 644e6f746966 
000005e8 69636174696f 
000005ee 6e506f696e74 
000005f4 657200 
000005f7 29             3785 	.byte	41
000005f8 03             3786 	.byte	3
000005f9 1f             3787 	.byte	31
000005fa 00000000*      3788 	.word	.LDW_5585cd0
000005fe 0223           3789 	.byte	2,35
00000600 04             3790 	.byte	4
00000601 01             3791 	.byte	1
                        3792 
                        3793 .LDW_54bee30:
00000602 23             3794 	.byte	35
00000603 704a6f624572   3795 	.strz	"pJobErrorNotificationPointer"
00000609 726f724e6f74 
0000060f 696669636174 
00000615 696f6e506f69 
0000061b 6e74657200 
00000620 2b             3796 	.byte	43
00000621 03             3797 	.byte	3
00000622 1f             3798 	.byte	31
00000623 00000000*      3799 	.word	.LDW_55858e0
00000627 0223           3800 	.byte	2,35
00000629 08             3801 	.byte	8
0000062a 01             3802 	.byte	1
                        3803 

                                                                      Page 85
                                                              C:\Users\nhuliyap\AppData\Local\Temp\gh_00008cs1.s
                        3804 .LDW_54bee78:
0000062b 23             3805 	.byte	35
0000062c 704563635345   3806 	.strz	"pEccSEDNotificationPointer"
00000632 444e6f746966 
00000638 69636174696f 
0000063e 6e506f696e74 
00000644 657200 
00000647 2f             3807 	.byte	47
00000648 03             3808 	.byte	3
00000649 1f             3809 	.byte	31
0000064a 00000000*      3810 	.word	.LDW_5585758
0000064e 0223           3811 	.byte	2,35
00000650 0c             3812 	.byte	12
00000651 01             3813 	.byte	1
                        3814 
                        3815 .LDW_54beec0:
00000652 23             3816 	.byte	35
00000653 704563634445   3817 	.strz	"pEccDEDNotificationPointer"
00000659 444e6f746966 
0000065f 69636174696f 
00000665 6e506f696e74 
0000066b 657200 
0000066e 31             3818 	.byte	49
0000066f 03             3819 	.byte	3
00000670 1f             3820 	.byte	31
00000671 00000000*      3821 	.word	.LDW_5585ad8
00000675 0223           3822 	.byte	2,35
00000677 10             3823 	.byte	16
00000678 01             3824 	.byte	1
                        3825 
                        3826 .LDW_54bead0:
00000679 23             3827 	.byte	35
0000067a 756c466c7344   3828 	.strz	"ulFlsDFMaxReadBytes"
00000680 464d61785265 
00000686 616442797465 
0000068c 7300 
0000068e 33             3829 	.byte	51
0000068f 0a             3830 	.byte	10
00000690 1f             3831 	.byte	31
00000691 00000000*      3832 	.word	.LDW_4869f78
00000695 0223           3833 	.byte	2,35
00000697 14             3834 	.byte	20
00000698 01             3835 	.byte	1
                        3836 
                        3837 .LDW_54bea40:
00000699 23             3838 	.byte	35
0000069a 756c466c7344   3839 	.strz	"ulFlsDFReadTimeoutValue"
000006a0 465265616454 
000006a6 696d656f7574 
000006ac 56616c756500 
000006b2 35             3840 	.byte	53
000006b3 0a             3841 	.byte	10
000006b4 1f             3842 	.byte	31
000006b5 00000000*      3843 	.word	.LDW_4869f78
000006b9 0223           3844 	.byte	2,35
000006bb 18             3845 	.byte	24
000006bc 01             3846 	.byte	1
                        3847 
                        3848 .LDW_54bef08:
000006bd 23             3849 	.byte	35
000006be 756c466c7344   3850 	.strz	"ulFlsDFBlankCheckReadTimeoutValue"

                                                                      Page 86
                                                              C:\Users\nhuliyap\AppData\Local\Temp\gh_00008cs1.s
000006c4 46426c616e6b 
000006ca 436865636b52 
000006d0 65616454696d 
000006d6 656f75745661 
000006dc 6c756500 
000006e0 37             3851 	.byte	55
000006e1 0a             3852 	.byte	10
000006e2 1f             3853 	.byte	31
000006e3 00000000*      3854 	.word	.LDW_4869f78
000006e7 0223           3855 	.byte	2,35
000006e9 1c             3856 	.byte	28
000006ea 01             3857 	.byte	1
                        3858 
                        3859 .LDW_558bca8:
000006eb 23             3860 	.byte	35
000006ec 756c466c7344   3861 	.strz	"ulFlsDFCancelTimeoutValue"
000006f2 4643616e6365 
000006f8 6c54696d656f 
000006fe 757456616c75 
00000704 6500 
00000706 3e             3862 	.byte	62
00000707 0a             3863 	.byte	10
00000708 1f             3864 	.byte	31
00000709 00000000*      3865 	.word	.LDW_4869f78
0000070d 0223           3866 	.byte	2,35
0000070f 20             3867 	.byte	32
00000710 01             3868 	.byte	1
                        3869 
00000711 00             3870 	.byte	0
                        3871 
                        3872 .LDW_5587ae8:
00000712 28             3873 	.byte	40
00000713 466c735f436f   3874 	.strz	"Fls_ConfigType"
00000719 6e6669675479 
0000071f 706500 
00000722 50             3875 	.byte	80
00000723 02             3876 	.byte	2
00000724 1f             3877 	.byte	31
00000725 00000000*      3878 	.word	.LDW_5587a90
                        3879 
                        3880 .LDW_54133b0:
00000729 28             3881 	.byte	40
0000072a 4e764d5f5265   3882 	.strz	"NvM_RequestResultType"
00000730 717565737452 
00000736 6573756c7454 
0000073c 79706500 
00000740 0b             3883 	.byte	11
00000741 0f             3884 	.byte	15
00000742 26             3885 	.byte	38
00000743 00000000*      3886 	.word	.LDW_4c8e5a0
                        3887 
                        3888 .LDW_54130f0:
00000747 28             3889 	.byte	40
00000748 4e764d5f426c   3890 	.strz	"NvM_BlockIdType"
0000074e 6f636b496454 
00000754 79706500 
00000758 0f             3891 	.byte	15
00000759 10             3892 	.byte	16
0000075a 26             3893 	.byte	38
0000075b 00000000*      3894 	.word	.LDW_486a118
                        3895 

                                                                      Page 87
                                                              C:\Users\nhuliyap\AppData\Local\Temp\gh_00008cs1.s
                        3896 .LDW_55ce1e0:
0000075f 05             3897 	.byte	5
00000760 466c735f4773   3898 	.strz	"Fls_GstConfiguration"
00000766 74436f6e6669 
0000076c 677572617469 
00000772 6f6e00 
00000775 d601           3899 	.byte	214,1
00000777 29             3900 	.byte	41
00000778 1d             3901 	.byte	29
00000779 00000000*      3902 	.word	.LDW_55cb1d0
0000077d 01             3903 	.byte	1
0000077e 01             3904 	.byte	1
                        3905 
                        3906 	.section	.debug_abbrev
000000c9 05             3907 	.byte	5
000000ca 34             3908 	.byte	52
000000cb 00             3909 	.byte	0
000000cc 0308           3910 	.byte	3,8
000000ce 3b0f           3911 	.byte	59,15
000000d0 390f           3912 	.byte	57,15
000000d2 3a0f           3913 	.byte	58,15
000000d4 4910           3914 	.byte	73,16
000000d6 3f0c           3915 	.byte	63,12
000000d8 3c0c           3916 	.byte	60,12
000000da 0000           3917 	.byte	0,0
                        3918 
                        3919 	.section	.debug_info
                        3920 .LDW_55e33a0:
0000077f 04             3921 	.byte	4
00000780 756343617453   3922 	.strz	"ucCatSaveOnEvent"
00000786 6176654f6e45 
0000078c 76656e7400 
00000791 27             3923 	.byte	39
00000792 0e             3924 	.byte	14
00000793 01             3925 	.byte	1
00000794 00000000*      3926 	.word	.LDW_55ccce8
00000798 00             3927 	.byte	0
00000799 00             3928 	.byte	0
0000079a 0503           3929 	.byte	5,3
0000079c 00000000*      3930 	.word	_ucCatSaveOnEvent..C.3A.5C_ECU2.5CECU_Rivian_A1.5CTarget.5Crepo_projects.5CpRealEcu.5CcL_LATEST.5Cmake.5Coutput.5Cobjects.5CRte_NvM_Type.
                        3931 
                        3932 	.section	.debug_abbrev
000000dc 04             3933 	.byte	4
000000dd 34             3934 	.byte	52
000000de 00             3935 	.byte	0
000000df 0308           3936 	.byte	3,8
000000e1 3b0f           3937 	.byte	59,15
000000e3 390f           3938 	.byte	57,15
000000e5 3a0f           3939 	.byte	58,15
000000e7 4910           3940 	.byte	73,16
000000e9 3f0c           3941 	.byte	63,12
000000eb 3c0c           3942 	.byte	60,12
000000ed 020a           3943 	.byte	2,10
000000ef 0000           3944 	.byte	0,0
                        3945 
                        3946 	.section	.debug_info
                        3947 .LDW_55e3768:
000007a0 04             3948 	.byte	4
000007a1 756343617452   3949 	.strz	"ucCatRamBlockStatus"
000007a7 616d426c6f63 
000007ad 6b5374617475 

                                                                      Page 88
                                                              C:\Users\nhuliyap\AppData\Local\Temp\gh_00008cs1.s
000007b3 7300 
000007b5 28             3950 	.byte	40
000007b6 0e             3951 	.byte	14
000007b7 01             3952 	.byte	1
000007b8 00000000*      3953 	.word	.LDW_55cca40
000007bc 00             3954 	.byte	0
000007bd 00             3955 	.byte	0
000007be 0503           3956 	.byte	5,3
000007c0 00000000*      3957 	.word	_ucCatRamBlockStatus..C.3A.5C_ECU2.5CECU_Rivian_A1.5CTarget.5Crepo_projects.5CpRealEcu.5CcL_LATEST.5Cmake.5Coutput.5Cobjects.5CRte_NvM_Type.
                        3958 
                        3959 .LDW_55e3710:
000007c4 04             3960 	.byte	4
000007c5 52616d5f4e76   3961 	.strz	"Ram_NvMBlock_CAT01"
000007cb 4d426c6f636b 
000007d1 5f4341543031 
000007d7 00 
000007d8 2b             3962 	.byte	43
000007d9 0e             3963 	.byte	14
000007da 01             3964 	.byte	1
000007db 00000000*      3965 	.word	.LDW_55cc710
000007df 01             3966 	.byte	1
000007e0 00             3967 	.byte	0
000007e1 0503           3968 	.byte	5,3
000007e3 00000000*      3969 	.word	_Ram_NvMBlock_CAT01
                        3970 
                        3971 .LDW_55e37c0:
000007e7 04             3972 	.byte	4
000007e8 52616d5f4e76   3973 	.strz	"Ram_NvMBlock_CAT02"
000007ee 4d426c6f636b 
000007f4 5f4341543032 
000007fa 00 
000007fb 2c             3974 	.byte	44
000007fc 0e             3975 	.byte	14
000007fd 01             3976 	.byte	1
000007fe 00000000*      3977 	.word	.LDW_55cc358
00000802 01             3978 	.byte	1
00000803 00             3979 	.byte	0
00000804 0503           3980 	.byte	5,3
00000806 00000000*      3981 	.word	_Ram_NvMBlock_CAT02
                        3982 
                        3983 .LDW_55e3660:
0000080a 04             3984 	.byte	4
0000080b 52616d5f4e76   3985 	.strz	"Ram_NvMBlock_CAT03"
00000811 4d426c6f636b 
00000817 5f4341543033 
0000081d 00 
0000081e 2d             3986 	.byte	45
0000081f 0e             3987 	.byte	14
00000820 01             3988 	.byte	1
00000821 00000000*      3989 	.word	.LDW_55cce80
00000825 01             3990 	.byte	1
00000826 00             3991 	.byte	0
00000827 0503           3992 	.byte	5,3
00000829 00000000*      3993 	.word	_Ram_NvMBlock_CAT03
                        3994 
                        3995 .LDW_55e3870:
0000082d 04             3996 	.byte	4
0000082e 52616d5f4e76   3997 	.strz	"Ram_NvMBlock_CAT04"
00000834 4d426c6f636b 
0000083a 5f4341543034 
00000840 00 

                                                                      Page 89
                                                              C:\Users\nhuliyap\AppData\Local\Temp\gh_00008cs1.s
00000841 2e             3998 	.byte	46
00000842 0e             3999 	.byte	14
00000843 01             4000 	.byte	1
00000844 00000000*      4001 	.word	.LDW_55ccf08
00000848 01             4002 	.byte	1
00000849 00             4003 	.byte	0
0000084a 0503           4004 	.byte	5,3
0000084c 00000000*      4005 	.word	_Ram_NvMBlock_CAT04
                        4006 
                        4007 .LDW_55e33f8:
00000850 04             4008 	.byte	4
00000851 52616d5f4e76   4009 	.strz	"Ram_NvMBlock_CAT05"
00000857 4d426c6f636b 
0000085d 5f4341543035 
00000863 00 
00000864 2f             4010 	.byte	47
00000865 0e             4011 	.byte	14
00000866 01             4012 	.byte	1
00000867 00000000*      4013 	.word	.LDW_55ccac8
0000086b 01             4014 	.byte	1
0000086c 00             4015 	.byte	0
0000086d 0503           4016 	.byte	5,3
0000086f 00000000*      4017 	.word	_Ram_NvMBlock_CAT05
                        4018 
                        4019 .LDW_55e3500:
00000873 04             4020 	.byte	4
00000874 52616d5f4e76   4021 	.strz	"Ram_NvMBlock_CAT06"
0000087a 4d426c6f636b 
00000880 5f4341543036 
00000886 00 
00000887 30             4022 	.byte	48
00000888 0e             4023 	.byte	14
00000889 01             4024 	.byte	1
0000088a 00000000*      4025 	.word	.LDW_55ccbd8
0000088e 01             4026 	.byte	1
0000088f 00             4027 	.byte	0
00000890 0503           4028 	.byte	5,3
00000892 00000000*      4029 	.word	_Ram_NvMBlock_CAT06
                        4030 
                        4031 .LDW_55e3a80:
00000896 04             4032 	.byte	4
00000897 52616d5f4e76   4033 	.strz	"Ram_NvMBlock_CAT07"
0000089d 4d426c6f636b 
000008a3 5f4341543037 
000008a9 00 
000008aa 31             4034 	.byte	49
000008ab 0e             4035 	.byte	14
000008ac 01             4036 	.byte	1
000008ad 00000000*      4037 	.word	.LDW_55ccf90
000008b1 01             4038 	.byte	1
000008b2 00             4039 	.byte	0
000008b3 0503           4040 	.byte	5,3
000008b5 00000000*      4041 	.word	_Ram_NvMBlock_CAT07
                        4042 
                        4043 .LDW_55e4318:
000008b9 04             4044 	.byte	4
000008ba 52616d5f4e76   4045 	.strz	"Ram_NvMBlock_CAT08"
000008c0 4d426c6f636b 
000008c6 5f4341543038 
000008cc 00 
000008cd 32             4046 	.byte	50

                                                                      Page 90
                                                              C:\Users\nhuliyap\AppData\Local\Temp\gh_00008cs1.s
000008ce 0e             4047 	.byte	14
000008cf 01             4048 	.byte	1
000008d0 00000000*      4049 	.word	.LDW_55ccc60
000008d4 01             4050 	.byte	1
000008d5 00             4051 	.byte	0
000008d6 0503           4052 	.byte	5,3
000008d8 00000000*      4053 	.word	_Ram_NvMBlock_CAT08
                        4054 
                        4055 .LDW_55e4630:
000008dc 04             4056 	.byte	4
000008dd 52616d5f4e76   4057 	.strz	"Ram_NvMBlock_CAT09"
000008e3 4d426c6f636b 
000008e9 5f4341543039 
000008ef 00 
000008f0 33             4058 	.byte	51
000008f1 0e             4059 	.byte	14
000008f2 01             4060 	.byte	1
000008f3 00000000*      4061 	.word	.LDW_55cd018
000008f7 01             4062 	.byte	1
000008f8 00             4063 	.byte	0
000008f9 0503           4064 	.byte	5,3
000008fb 00000000*      4065 	.word	_Ram_NvMBlock_CAT09
                        4066 
                        4067 .LDW_55e43c8:
000008ff 04             4068 	.byte	4
00000900 52616d5f4e76   4069 	.strz	"Ram_NvMBlock_CAT10"
00000906 4d426c6f636b 
0000090c 5f4341543130 
00000912 00 
00000913 34             4070 	.byte	52
00000914 0e             4071 	.byte	14
00000915 01             4072 	.byte	1
00000916 00000000*      4073 	.word	.LDW_55cc468
0000091a 01             4074 	.byte	1
0000091b 00             4075 	.byte	0
0000091c 0503           4076 	.byte	5,3
0000091e 00000000*      4077 	.word	_Ram_NvMBlock_CAT10
                        4078 
                        4079 .LDW_55e4790:
00000922 04             4080 	.byte	4
00000923 52616d5f4543   4081 	.strz	"Ram_ECUM_CFG_NVM_BLOCK"
00000929 554d5f434647 
0000092f 5f4e564d5f42 
00000935 4c4f434b00 
0000093a 3e             4082 	.byte	62
0000093b 0e             4083 	.byte	14
0000093c 01             4084 	.byte	1
0000093d 00000000*      4085 	.word	.LDW_55cc3e0
00000941 01             4086 	.byte	1
00000942 00             4087 	.byte	0
00000943 0503           4088 	.byte	5,3
00000945 00000000*      4089 	.word	_Ram_ECUM_CFG_NVM_BLOCK
                        4090 
                        4091 .LDW_55e4420:
00000949 04             4092 	.byte	4
0000094a 52616d5f4e76   4093 	.strz	"Ram_NvMBlock_BSW_Data"
00000950 4d426c6f636b 
00000956 5f4253575f44 
0000095c 61746100 
00000960 3f             4094 	.byte	63
00000961 0e             4095 	.byte	14

                                                                      Page 91
                                                              C:\Users\nhuliyap\AppData\Local\Temp\gh_00008cs1.s
00000962 01             4096 	.byte	1
00000963 00000000*      4097 	.word	.LDW_55cc600
00000967 01             4098 	.byte	1
00000968 00             4099 	.byte	0
00000969 0503           4100 	.byte	5,3
0000096b 00000000*      4101 	.word	_Ram_NvMBlock_BSW_Data
                        4102 
                        4103 .LDW_55e47e8:
0000096f 04             4104 	.byte	4
00000970 704361746567   4105 	.strz	"pCategoryRamBlock"
00000976 6f727952616d 
0000097c 426c6f636b00 
00000982 41             4106 	.byte	65
00000983 08             4107 	.byte	8
00000984 01             4108 	.byte	1
00000985 00000000*      4109 	.word	.LDW_55e96c8
00000989 01             4110 	.byte	1
0000098a 00             4111 	.byte	0
0000098b 0503           4112 	.byte	5,3
0000098d 00000000*      4113 	.word	_pCategoryRamBlock
                        4114 
                        4115 .LDW_55e3df0:
00000991 04             4116 	.byte	4
00000992 526f6d5f4e76   4117 	.strz	"Rom_NvMBlock_CAT01"
00000998 4d426c6f636b 
0000099e 5f4341543031 
000009a4 00 
000009a5 4e             4118 	.byte	78
000009a6 0e             4119 	.byte	14
000009a7 01             4120 	.byte	1
000009a8 00000000*      4121 	.word	.LDW_55e99f8
000009ac 01             4122 	.byte	1
000009ad 00             4123 	.byte	0
000009ae 0503           4124 	.byte	5,3
000009b0 00000000*      4125 	.word	_Rom_NvMBlock_CAT01
                        4126 
                        4127 .LDW_55e3e48:
000009b4 04             4128 	.byte	4
000009b5 526f6d5f4e76   4129 	.strz	"Rom_NvMBlock_CAT02"
000009bb 4d426c6f636b 
000009c1 5f4341543032 
000009c7 00 
000009c8 4f             4130 	.byte	79
000009c9 0e             4131 	.byte	14
000009ca 01             4132 	.byte	1
000009cb 00000000*      4133 	.word	.LDW_55e9ca0
000009cf 01             4134 	.byte	1
000009d0 00             4135 	.byte	0
000009d1 0503           4136 	.byte	5,3
000009d3 00000000*      4137 	.word	_Rom_NvMBlock_CAT02
                        4138 
                        4139 .LDW_55e4268:
000009d7 04             4140 	.byte	4
000009d8 526f6d5f4e76   4141 	.strz	"Rom_NvMBlock_CAT03"
000009de 4d426c6f636b 
000009e4 5f4341543033 
000009ea 00 
000009eb 50             4142 	.byte	80
000009ec 0e             4143 	.byte	14
000009ed 01             4144 	.byte	1
000009ee 00000000*      4145 	.word	.LDW_55e97d8

                                                                      Page 92
                                                              C:\Users\nhuliyap\AppData\Local\Temp\gh_00008cs1.s
000009f2 01             4146 	.byte	1
000009f3 00             4147 	.byte	0
000009f4 0503           4148 	.byte	5,3
000009f6 00000000*      4149 	.word	_Rom_NvMBlock_CAT03
                        4150 
                        4151 .LDW_55e4210:
000009fa 04             4152 	.byte	4
000009fb 526f6d5f4e76   4153 	.strz	"Rom_NvMBlock_CAT04"
00000a01 4d426c6f636b 
00000a07 5f4341543034 
00000a0d 00 
00000a0e 51             4154 	.byte	81
00000a0f 0e             4155 	.byte	14
00000a10 01             4156 	.byte	1
00000a11 00000000*      4157 	.word	.LDW_55e9640
00000a15 01             4158 	.byte	1
00000a16 00             4159 	.byte	0
00000a17 0503           4160 	.byte	5,3
00000a19 00000000*      4161 	.word	_Rom_NvMBlock_CAT04
                        4162 
                        4163 .LDW_55e4160:
00000a1d 04             4164 	.byte	4
00000a1e 526f6d5f4e76   4165 	.strz	"Rom_NvMBlock_CAT05"
00000a24 4d426c6f636b 
00000a2a 5f4341543035 
00000a30 00 
00000a31 52             4166 	.byte	82
00000a32 0e             4167 	.byte	14
00000a33 01             4168 	.byte	1
00000a34 00000000*      4169 	.word	.LDW_55ea1f0
00000a38 01             4170 	.byte	1
00000a39 00             4171 	.byte	0
00000a3a 0503           4172 	.byte	5,3
00000a3c 00000000*      4173 	.word	_Rom_NvMBlock_CAT05
                        4174 
                        4175 .LDW_55e41b8:
00000a40 04             4176 	.byte	4
00000a41 526f6d5f4e76   4177 	.strz	"Rom_NvMBlock_CAT06"
00000a47 4d426c6f636b 
00000a4d 5f4341543036 
00000a53 00 
00000a54 53             4178 	.byte	83
00000a55 0e             4179 	.byte	14
00000a56 01             4180 	.byte	1
00000a57 00000000*      4181 	.word	.LDW_55e9e38
00000a5b 01             4182 	.byte	1
00000a5c 00             4183 	.byte	0
00000a5d 0503           4184 	.byte	5,3
00000a5f 00000000*      4185 	.word	_Rom_NvMBlock_CAT06
                        4186 
                        4187 .LDW_55e4688:
00000a63 04             4188 	.byte	4
00000a64 526f6d5f4e76   4189 	.strz	"Rom_NvMBlock_CAT07"
00000a6a 4d426c6f636b 
00000a70 5f4341543037 
00000a76 00 
00000a77 54             4190 	.byte	84
00000a78 0e             4191 	.byte	14
00000a79 01             4192 	.byte	1
00000a7a 00000000*      4193 	.word	.LDW_55e9310
00000a7e 01             4194 	.byte	1

                                                                      Page 93
                                                              C:\Users\nhuliyap\AppData\Local\Temp\gh_00008cs1.s
00000a7f 00             4195 	.byte	0
00000a80 0503           4196 	.byte	5,3
00000a82 00000000*      4197 	.word	_Rom_NvMBlock_CAT07
                        4198 
                        4199 .LDW_55e3ea0:
00000a86 04             4200 	.byte	4
00000a87 526f6d5f4e76   4201 	.strz	"Rom_NvMBlock_CAT08"
00000a8d 4d426c6f636b 
00000a93 5f4341543038 
00000a99 00 
00000a9a 55             4202 	.byte	85
00000a9b 0e             4203 	.byte	14
00000a9c 01             4204 	.byte	1
00000a9d 00000000*      4205 	.word	.LDW_55e9ec0
00000aa1 01             4206 	.byte	1
00000aa2 00             4207 	.byte	0
00000aa3 0503           4208 	.byte	5,3
00000aa5 00000000*      4209 	.word	_Rom_NvMBlock_CAT08
                        4210 
                        4211 .LDW_55e4840:
00000aa9 04             4212 	.byte	4
00000aaa 526f6d5f4e76   4213 	.strz	"Rom_NvMBlock_CAT09"
00000ab0 4d426c6f636b 
00000ab6 5f4341543039 
00000abc 00 
00000abd 56             4214 	.byte	86
00000abe 0e             4215 	.byte	14
00000abf 01             4216 	.byte	1
00000ac0 00000000*      4217 	.word	.LDW_55e9db0
00000ac4 01             4218 	.byte	1
00000ac5 00             4219 	.byte	0
00000ac6 0503           4220 	.byte	5,3
00000ac8 00000000*      4221 	.word	_Rom_NvMBlock_CAT09
                        4222 
                        4223 .LDW_55e4370:
00000acc 04             4224 	.byte	4
00000acd 526f6d5f4e76   4225 	.strz	"Rom_NvMBlock_CAT10"
00000ad3 4d426c6f636b 
00000ad9 5f4341543130 
00000adf 00 
00000ae0 57             4226 	.byte	87
00000ae1 0e             4227 	.byte	14
00000ae2 01             4228 	.byte	1
00000ae3 00000000*      4229 	.word	.LDW_55e9970
00000ae7 01             4230 	.byte	1
00000ae8 00             4231 	.byte	0
00000ae9 0503           4232 	.byte	5,3
00000aeb 00000000*      4233 	.word	_Rom_NvMBlock_CAT10
                        4234 
                        4235 .LDW_55e3fa8:
00000aef 04             4236 	.byte	4
00000af0 526f6d5f4e76   4237 	.strz	"Rom_NvMBlock_DemNvm_IdEvStatusByte"
00000af6 4d426c6f636b 
00000afc 5f44656d4e76 
00000b02 6d5f49644576 
00000b08 537461747573 
00000b0e 4279746500 
00000b13 58             4238 	.byte	88
00000b14 0e             4239 	.byte	14
00000b15 01             4240 	.byte	1
00000b16 00000000*      4241 	.word	.LDW_55e9530

                                                                      Page 94
                                                              C:\Users\nhuliyap\AppData\Local\Temp\gh_00008cs1.s
00000b1a 01             4242 	.byte	1
00000b1b 00             4243 	.byte	0
00000b1c 0503           4244 	.byte	5,3
00000b1e 00000000*      4245 	.word	_Rom_NvMBlock_DemNvm_IdEvStatusByte
                        4246 
                        4247 .LDW_55e3d98:
00000b22 04             4248 	.byte	4
00000b23 526f6d5f4e76   4249 	.strz	"Rom_NvMBlock_DemNvm_IdEvMemLoc0"
00000b29 4d426c6f636b 
00000b2f 5f44656d4e76 
00000b35 6d5f49644576 
00000b3b 4d656d4c6f63 
00000b41 3000 
00000b43 59             4250 	.byte	89
00000b44 0e             4251 	.byte	14
00000b45 01             4252 	.byte	1
00000b46 00000000*      4253 	.word	.LDW_55e9d28
00000b4a 01             4254 	.byte	1
00000b4b 00             4255 	.byte	0
00000b4c 0503           4256 	.byte	5,3
00000b4e 00000000*      4257 	.word	_Rom_NvMBlock_DemNvm_IdEvMemLoc0
                        4258 
                        4259 .LDW_55e3f50:
00000b52 04             4260 	.byte	4
00000b53 526f6d5f4e76   4261 	.strz	"Rom_NvMBlock_DemNvm_IdEvMemLoc1"
00000b59 4d426c6f636b 
00000b5f 5f44656d4e76 
00000b65 6d5f49644576 
00000b6b 4d656d4c6f63 
00000b71 3100 
00000b73 5a             4262 	.byte	90
00000b74 0e             4263 	.byte	14
00000b75 01             4264 	.byte	1
00000b76 00000000*      4265 	.word	.LDW_55e9c18
00000b7a 01             4266 	.byte	1
00000b7b 00             4267 	.byte	0
00000b7c 0503           4268 	.byte	5,3
00000b7e 00000000*      4269 	.word	_Rom_NvMBlock_DemNvm_IdEvMemLoc1
                        4270 
                        4271 .LDW_55e4058:
00000b82 04             4272 	.byte	4
00000b83 526f6d5f4e76   4273 	.strz	"Rom_NvMBlock_DemNvm_IdEvMemLoc2"
00000b89 4d426c6f636b 
00000b8f 5f44656d4e76 
00000b95 6d5f49644576 
00000b9b 4d656d4c6f63 
00000ba1 3200 
00000ba3 5b             4274 	.byte	91
00000ba4 0e             4275 	.byte	14
00000ba5 01             4276 	.byte	1
00000ba6 00000000*      4277 	.word	.LDW_55e9f48
00000baa 01             4278 	.byte	1
00000bab 00             4279 	.byte	0
00000bac 0503           4280 	.byte	5,3
00000bae 00000000*      4281 	.word	_Rom_NvMBlock_DemNvm_IdEvMemLoc2
                        4282 
                        4283 .LDW_55e3ef8:
00000bb2 04             4284 	.byte	4
00000bb3 526f6d5f4e76   4285 	.strz	"Rom_NvMBlock_DemNvm_IdEvMemLoc3"
00000bb9 4d426c6f636b 
00000bbf 5f44656d4e76 

                                                                      Page 95
                                                              C:\Users\nhuliyap\AppData\Local\Temp\gh_00008cs1.s
00000bc5 6d5f49644576 
00000bcb 4d656d4c6f63 
00000bd1 3300 
00000bd3 5c             4286 	.byte	92
00000bd4 0e             4287 	.byte	14
00000bd5 01             4288 	.byte	1
00000bd6 00000000*      4289 	.word	.LDW_55e9750
00000bda 01             4290 	.byte	1
00000bdb 00             4291 	.byte	0
00000bdc 0503           4292 	.byte	5,3
00000bde 00000000*      4293 	.word	_Rom_NvMBlock_DemNvm_IdEvMemLoc3
                        4294 
                        4295 .LDW_55e4000:
00000be2 04             4296 	.byte	4
00000be3 526f6d5f4e76   4297 	.strz	"Rom_NvMBlock_DemNvm_IdEvMemLoc4"
00000be9 4d426c6f636b 
00000bef 5f44656d4e76 
00000bf5 6d5f49644576 
00000bfb 4d656d4c6f63 
00000c01 3400 
00000c03 5d             4298 	.byte	93
00000c04 0e             4299 	.byte	14
00000c05 01             4300 	.byte	1
00000c06 00000000*      4301 	.word	.LDW_55e9398
00000c0a 01             4302 	.byte	1
00000c0b 00             4303 	.byte	0
00000c0c 0503           4304 	.byte	5,3
00000c0e 00000000*      4305 	.word	_Rom_NvMBlock_DemNvm_IdEvMemLoc4
                        4306 
                        4307 .LDW_55e44d0:
00000c12 04             4308 	.byte	4
00000c13 526f6d5f4e76   4309 	.strz	"Rom_NvMBlock_DemNvm_IdEvMemLoc5"
00000c19 4d426c6f636b 
00000c1f 5f44656d4e76 
00000c25 6d5f49644576 
00000c2b 4d656d4c6f63 
00000c31 3500 
00000c33 5e             4310 	.byte	94
00000c34 0e             4311 	.byte	14
00000c35 01             4312 	.byte	1
00000c36 00000000*      4313 	.word	.LDW_55e9fd0
00000c3a 01             4314 	.byte	1
00000c3b 00             4315 	.byte	0
00000c3c 0503           4316 	.byte	5,3
00000c3e 00000000*      4317 	.word	_Rom_NvMBlock_DemNvm_IdEvMemLoc5
                        4318 
                        4319 .LDW_55e46e0:
00000c42 04             4320 	.byte	4
00000c43 526f6d5f4e76   4321 	.strz	"Rom_NvMBlock_DemNvm_IdEvMemLoc6"
00000c49 4d426c6f636b 
00000c4f 5f44656d4e76 
00000c55 6d5f49644576 
00000c5b 4d656d4c6f63 
00000c61 3600 
00000c63 5f             4322 	.byte	95
00000c64 0e             4323 	.byte	14
00000c65 01             4324 	.byte	1
00000c66 00000000*      4325 	.word	.LDW_55e9b90
00000c6a 01             4326 	.byte	1
00000c6b 00             4327 	.byte	0
00000c6c 0503           4328 	.byte	5,3

                                                                      Page 96
                                                              C:\Users\nhuliyap\AppData\Local\Temp\gh_00008cs1.s
00000c6e 00000000*      4329 	.word	_Rom_NvMBlock_DemNvm_IdEvMemLoc6
                        4330 
                        4331 .LDW_55e4528:
00000c72 04             4332 	.byte	4
00000c73 526f6d5f4e76   4333 	.strz	"Rom_NvMBlock_DemNvm_IdEvMemLoc7"
00000c79 4d426c6f636b 
00000c7f 5f44656d4e76 
00000c85 6d5f49644576 
00000c8b 4d656d4c6f63 
00000c91 3700 
00000c93 60             4334 	.byte	96
00000c94 0e             4335 	.byte	14
00000c95 01             4336 	.byte	1
00000c96 00000000*      4337 	.word	.LDW_55e9860
00000c9a 01             4338 	.byte	1
00000c9b 00             4339 	.byte	0
00000c9c 0503           4340 	.byte	5,3
00000c9e 00000000*      4341 	.word	_Rom_NvMBlock_DemNvm_IdEvMemLoc7
                        4342 
                        4343 .LDW_55e4738:
00000ca2 04             4344 	.byte	4
00000ca3 526f6d5f4e76   4345 	.strz	"Rom_NvMBlock_DemNvm_IdEvMemLoc8"
00000ca9 4d426c6f636b 
00000caf 5f44656d4e76 
00000cb5 6d5f49644576 
00000cbb 4d656d4c6f63 
00000cc1 3800 
00000cc3 61             4346 	.byte	97
00000cc4 0e             4347 	.byte	14
00000cc5 01             4348 	.byte	1
00000cc6 00000000*      4349 	.word	.LDW_55e9178
00000cca 01             4350 	.byte	1
00000ccb 00             4351 	.byte	0
00000ccc 0503           4352 	.byte	5,3
00000cce 00000000*      4353 	.word	_Rom_NvMBlock_DemNvm_IdEvMemLoc8
                        4354 
                        4355 .LDW_55e4580:
00000cd2 04             4356 	.byte	4
00000cd3 526f6d5f4e76   4357 	.strz	"Rom_NvMBlock_DemNvm_IdEvMemLoc9"
00000cd9 4d426c6f636b 
00000cdf 5f44656d4e76 
00000ce5 6d5f49644576 
00000ceb 4d656d4c6f63 
00000cf1 3900 
00000cf3 62             4358 	.byte	98
00000cf4 0e             4359 	.byte	14
00000cf5 01             4360 	.byte	1
00000cf6 00000000*      4361 	.word	.LDW_55e95b8
00000cfa 01             4362 	.byte	1
00000cfb 00             4363 	.byte	0
00000cfc 0503           4364 	.byte	5,3
00000cfe 00000000*      4365 	.word	_Rom_NvMBlock_DemNvm_IdEvMemLoc9
                        4366 
                        4367 .LDW_55e40b0:
00000d02 04             4368 	.byte	4
00000d03 526f6d5f4e76   4369 	.strz	"Rom_NvMBlock_DemNvm_IdDemGenericNvData"
00000d09 4d426c6f636b 
00000d0f 5f44656d4e76 
00000d15 6d5f49644465 
00000d1b 6d47656e6572 
00000d21 69634e764461 

                                                                      Page 97
                                                              C:\Users\nhuliyap\AppData\Local\Temp\gh_00008cs1.s
00000d27 746100 
00000d2a 63             4370 	.byte	99
00000d2b 0e             4371 	.byte	14
00000d2c 01             4372 	.byte	1
00000d2d 00000000*      4373 	.word	.LDW_55e94a8
00000d31 01             4374 	.byte	1
00000d32 00             4375 	.byte	0
00000d33 0503           4376 	.byte	5,3
00000d35 00000000*      4377 	.word	_Rom_NvMBlock_DemNvm_IdDemGenericNvData
                        4378 
                        4379 .LDW_55e4108:
00000d39 04             4380 	.byte	4
00000d3a 526f6d5f4543   4381 	.strz	"Rom_ECUM_CFG_NVM_BLOCK"
00000d40 554d5f434647 
00000d46 5f4e564d5f42 
00000d4c 4c4f434b00 
00000d51 64             4382 	.byte	100
00000d52 0e             4383 	.byte	14
00000d53 01             4384 	.byte	1
00000d54 00000000*      4385 	.word	.LDW_55ea058
00000d58 01             4386 	.byte	1
00000d59 00             4387 	.byte	0
00000d5a 0503           4388 	.byte	5,3
00000d5c 00000000*      4389 	.word	_Rom_ECUM_CFG_NVM_BLOCK
                        4390 
                        4391 .LDW_55e42c0:
00000d60 04             4392 	.byte	4
00000d61 526f6d5f4e76   4393 	.strz	"Rom_NvMBlock_BSW_Data"
00000d67 4d426c6f636b 
00000d6d 5f4253575f44 
00000d73 61746100 
00000d77 65             4394 	.byte	101
00000d78 0e             4395 	.byte	14
00000d79 01             4396 	.byte	1
00000d7a 00000000*      4397 	.word	.LDW_55ea0e0
00000d7e 01             4398 	.byte	1
00000d7f 00             4399 	.byte	0
00000d80 0503           4400 	.byte	5,3
00000d82 00000000*      4401 	.word	_Rom_NvMBlock_BSW_Data
                        4402 
                        4403 .LDW_55e4478:
00000d86 04             4404 	.byte	4
00000d87 756c43757272   4405 	.strz	"ulCurrentNvmConsistence"
00000d8d 656e744e766d 
00000d93 436f6e736973 
00000d99 74656e636500 
00000d9f 67             4406 	.byte	103
00000da0 0f             4407 	.byte	15
00000da1 01             4408 	.byte	1
00000da2 00000000*      4409 	.word	.LDW_4869f78
00000da6 00             4410 	.byte	0
00000da7 00             4411 	.byte	0
00000da8 0503           4412 	.byte	5,3
00000daa 00000000*      4413 	.word	_ulCurrentNvmConsistence..C.3A.5C_ECU2.5CECU_Rivian_A1.5CTarget.5Crepo_projects.5CpRealEcu.5CcL_LATEST.5Cmake.5Coutput.5Cobjects.5CRte_NvM_Type.
                        4414 
                        4415 .LDW_55e45d8:
00000dae 04             4416 	.byte	4
00000daf 75634e764d43   4417 	.strz	"ucNvMCatSizeCum"
00000db5 617453697a65 
00000dbb 43756d00 
00000dbf 6c             4418 	.byte	108

                                                                      Page 98
                                                              C:\Users\nhuliyap\AppData\Local\Temp\gh_00008cs1.s
00000dc0 0e             4419 	.byte	14
00000dc1 01             4420 	.byte	1
00000dc2 00000000*      4421 	.word	.LDW_55ea168
00000dc6 00             4422 	.byte	0
00000dc7 00             4423 	.byte	0
00000dc8 0503           4424 	.byte	5,3
00000dca 00000000*      4425 	.word	_ucNvMCatSizeCum..C.3A.5C_ECU2.5CECU_Rivian_A1.5CTarget.5Crepo_projects.5CpRealEcu.5CcL_LATEST.5Cmake.5Coutput.5Cobjects.5CRte_NvM_Type.
                        4426 
                        4427 .LDW_55ef078:
00000dce 15             4428 	.byte	21
00000dcf 4665655f3330   4429 	.strz	"Fee_30_SmallSector_Init"
00000dd5 5f536d616c6c 
00000ddb 536563746f72 
00000de1 5f496e697400 
00000de7 47             4430 	.byte	71
00000de8 2c             4431 	.byte	44
00000de9 19             4432 	.byte	25
00000dea 01             4433 	.byte	1
00000deb 00             4434 	.byte	0
00000dec 01             4435 	.byte	1
00000ded 01             4436 	.byte	1
00000dee 00             4437 	.byte	0
00000def 01             4438 	.byte	1
                        4439 
                        4440 	.section	.debug_abbrev
000000f1 15             4441 	.byte	21
000000f2 2e             4442 	.byte	46
000000f3 01             4443 	.byte	1
000000f4 0308           4444 	.byte	3,8
000000f6 3b0f           4445 	.byte	59,15
000000f8 390f           4446 	.byte	57,15
000000fa 3a0f           4447 	.byte	58,15
000000fc 3c0c           4448 	.byte	60,12
000000fe 200b           4449 	.byte	32,11
00000100 3f0c           4450 	.byte	63,12
00000102 320b           4451 	.byte	50,11
00000104 4c0b           4452 	.byte	76,11
00000106 270c           4453 	.byte	39,12
00000108 0000           4454 	.byte	0,0
                        4455 
                        4456 	.section	.debug_info
00000df0 00             4457 	.byte	0
                        4458 
                        4459 .LDW_55eb220:
00000df1 15             4460 	.byte	21
00000df2 4665655f3330   4461 	.strz	"Fee_30_SmallSector_MainFunction"
00000df8 5f536d616c6c 
00000dfe 536563746f72 
00000e04 5f4d61696e46 
00000e0a 756e6374696f 
00000e10 6e00 
00000e12 55             4462 	.byte	85
00000e13 2c             4463 	.byte	44
00000e14 19             4464 	.byte	25
00000e15 01             4465 	.byte	1
00000e16 00             4466 	.byte	0
00000e17 01             4467 	.byte	1
00000e18 01             4468 	.byte	1
00000e19 00             4469 	.byte	0
00000e1a 01             4470 	.byte	1
                        4471 

                                                                      Page 99
                                                              C:\Users\nhuliyap\AppData\Local\Temp\gh_00008cs1.s
00000e1b 00             4472 	.byte	0
                        4473 
                        4474 .LDW_55ebe98:
00000e1c 15             4475 	.byte	21
00000e1d 466c735f496e   4476 	.strz	"Fls_Init"
00000e23 697400 
00000e26 75             4477 	.byte	117
00000e27 24             4478 	.byte	36
00000e28 1d             4479 	.byte	29
00000e29 01             4480 	.byte	1
00000e2a 00             4481 	.byte	0
00000e2b 01             4482 	.byte	1
00000e2c 01             4483 	.byte	1
00000e2d 00             4484 	.byte	0
00000e2e 01             4485 	.byte	1
                        4486 
00000e2f 00             4487 	.byte	0
                        4488 
                        4489 .LDW_55ebf30:
00000e30 15             4490 	.byte	21
00000e31 466c735f4d61   4491 	.strz	"Fls_MainFunction"
00000e37 696e46756e63 
00000e3d 74696f6e00 
00000e42 8c01           4492 	.byte	140,1
00000e44 24             4493 	.byte	36
00000e45 1d             4494 	.byte	29
00000e46 01             4495 	.byte	1
00000e47 00             4496 	.byte	0
00000e48 01             4497 	.byte	1
00000e49 01             4498 	.byte	1
00000e4a 00             4499 	.byte	0
00000e4b 01             4500 	.byte	1
                        4501 
00000e4c 00             4502 	.byte	0
                        4503 
                        4504 .LDW_55eba70:
00000e4d 15             4505 	.byte	21
00000e4e 4e764d5f496e   4506 	.strz	"NvM_Init"
00000e54 697400 
00000e57 24             4507 	.byte	36
00000e58 24             4508 	.byte	36
00000e59 24             4509 	.byte	36
00000e5a 01             4510 	.byte	1
00000e5b 00             4511 	.byte	0
00000e5c 01             4512 	.byte	1
00000e5d 01             4513 	.byte	1
00000e5e 00             4514 	.byte	0
00000e5f 01             4515 	.byte	1
                        4516 
00000e60 00             4517 	.byte	0
                        4518 
                        4519 .LDW_55ebba0:
00000e61 16             4520 	.byte	22
00000e62 4e764d5f4765   4521 	.strz	"NvM_GetErrorStatus"
00000e68 744572726f72 
00000e6e 537461747573 
00000e74 00 
00000e75 3b             4522 	.byte	59
00000e76 2e             4523 	.byte	46
00000e77 24             4524 	.byte	36
00000e78 00000000*      4525 	.word	.LDW_5413e00

                                                                      Page 100
                                                              C:\Users\nhuliyap\AppData\Local\Temp\gh_00008cs1.s
00000e7c 01             4526 	.byte	1
00000e7d 00             4527 	.byte	0
00000e7e 01             4528 	.byte	1
00000e7f 01             4529 	.byte	1
00000e80 00             4530 	.byte	0
00000e81 01             4531 	.byte	1
                        4532 
                        4533 	.section	.debug_abbrev
0000010a 16             4534 	.byte	22
0000010b 2e             4535 	.byte	46
0000010c 01             4536 	.byte	1
0000010d 0308           4537 	.byte	3,8
0000010f 3b0f           4538 	.byte	59,15
00000111 390f           4539 	.byte	57,15
00000113 3a0f           4540 	.byte	58,15
00000115 4910           4541 	.byte	73,16
00000117 3c0c           4542 	.byte	60,12
00000119 200b           4543 	.byte	32,11
0000011b 3f0c           4544 	.byte	63,12
0000011d 320b           4545 	.byte	50,11
0000011f 4c0b           4546 	.byte	76,11
00000121 270c           4547 	.byte	39,12
00000123 0000           4548 	.byte	0,0
                        4549 
                        4550 	.section	.debug_info
00000e82 00             4551 	.byte	0
                        4552 
                        4553 .LDW_55ebc38:
00000e83 16             4554 	.byte	22
00000e84 4e764d5f5365   4555 	.strz	"NvM_SetRamBlockStatus"
00000e8a 7452616d426c 
00000e90 6f636b537461 
00000e96 74757300 
00000e9a 4b             4556 	.byte	75
00000e9b 2e             4557 	.byte	46
00000e9c 24             4558 	.byte	36
00000e9d 00000000*      4559 	.word	.LDW_5413e00
00000ea1 01             4560 	.byte	1
00000ea2 00             4561 	.byte	0
00000ea3 01             4562 	.byte	1
00000ea4 01             4563 	.byte	1
00000ea5 00             4564 	.byte	0
00000ea6 01             4565 	.byte	1
                        4566 
00000ea7 00             4567 	.byte	0
                        4568 
                        4569 .LDW_55ec060:
00000ea8 16             4570 	.byte	22
00000ea9 4e764d5f5772   4571 	.strz	"NvM_WriteBlock"
00000eaf 697465426c6f 
00000eb5 636b00 
00000eb8 5a             4572 	.byte	90
00000eb9 2e             4573 	.byte	46
00000eba 24             4574 	.byte	36
00000ebb 00000000*      4575 	.word	.LDW_5413e00
00000ebf 01             4576 	.byte	1
00000ec0 00             4577 	.byte	0
00000ec1 01             4578 	.byte	1
00000ec2 01             4579 	.byte	1
00000ec3 00             4580 	.byte	0
00000ec4 01             4581 	.byte	1

                                                                      Page 101
                                                              C:\Users\nhuliyap\AppData\Local\Temp\gh_00008cs1.s
                        4582 
00000ec5 00             4583 	.byte	0
                        4584 
                        4585 .LDW_55eb188:
00000ec6 15             4586 	.byte	21
00000ec7 4e764d5f5265   4587 	.strz	"NvM_ReadAll"
00000ecd 6164416c6c00 
00000ed3 7c             4588 	.byte	124
00000ed4 24             4589 	.byte	36
00000ed5 24             4590 	.byte	36
00000ed6 01             4591 	.byte	1
00000ed7 00             4592 	.byte	0
00000ed8 01             4593 	.byte	1
00000ed9 01             4594 	.byte	1
00000eda 00             4595 	.byte	0
00000edb 01             4596 	.byte	1
                        4597 
00000edc 00             4598 	.byte	0
                        4599 
                        4600 .LDW_55ed2c8:
00000edd 15             4601 	.byte	21
00000ede 4e764d5f5772   4602 	.strz	"NvM_WriteAll"
00000ee4 697465416c6c 
00000eea 00 
00000eeb 7e             4603 	.byte	126
00000eec 24             4604 	.byte	36
00000eed 24             4605 	.byte	36
00000eee 01             4606 	.byte	1
00000eef 00             4607 	.byte	0
00000ef0 01             4608 	.byte	1
00000ef1 01             4609 	.byte	1
00000ef2 00             4610 	.byte	0
00000ef3 01             4611 	.byte	1
                        4612 
00000ef4 00             4613 	.byte	0
                        4614 
                        4615 .LDW_55ec818:
00000ef5 15             4616 	.byte	21
00000ef6 4e764d5f4d61   4617 	.strz	"NvM_MainFunction"
00000efc 696e46756e63 
00000f02 74696f6e00 
00000f07 8c01           4618 	.byte	140,1
00000f09 24             4619 	.byte	36
00000f0a 24             4620 	.byte	36
00000f0b 01             4621 	.byte	1
00000f0c 00             4622 	.byte	0
00000f0d 01             4623 	.byte	1
00000f0e 01             4624 	.byte	1
00000f0f 00             4625 	.byte	0
00000f10 01             4626 	.byte	1
                        4627 
00000f11 00             4628 	.byte	0
                        4629 
                        4630 .LDW_55136c8:
00000f12 14             4631 	.byte	20
00000f13 4d656d737461   4632 	.strz	"Memstack_GetNvmCatFromHufBlockNumber"
00000f19 636b5f476574 
00000f1f 4e766d436174 
00000f25 46726f6d4875 
00000f2b 66426c6f636b 
00000f31 4e756d626572 

                                                                      Page 102
                                                              C:\Users\nhuliyap\AppData\Local\Temp\gh_00008cs1.s
00000f37 00 
00000f38 78             4633 	.byte	120
00000f39 0e             4634 	.byte	14
00000f3a 01             4635 	.byte	1
00000f3b 00000000*      4636 	.word	.LDW_4c8e5a0
00000f3f 00000000*      4637 	.word	_Memstack_GetNvmCatFromHufBlockNumber
00000f43 00000000*      4638 	.word	___ghs_eofn_Memstack_GetNvmCatFromHufBlockNumber
00000f47 0153           4639 	.byte	1,83
00000f49 02             4640 	.byte	2
00000f4a 00             4641 	.byte	0
00000f4b 02             4642 	.byte	2
00000f4c 00             4643 	.byte	0
00000f4d 00             4644 	.byte	0
00000f4e 00             4645 	.byte	0
00000f4f 00             4646 	.byte	0
00000f50 01             4647 	.byte	1
00000f51 01             4648 	.byte	1
00000f52 00             4649 	.byte	0
00000f53 01             4650 	.byte	1
                        4651 
                        4652 	.section	.debug_abbrev
00000125 14             4653 	.byte	20
00000126 2e             4654 	.byte	46
00000127 01             4655 	.byte	1
00000128 0308           4656 	.byte	3,8
0000012a 3b0f           4657 	.byte	59,15
0000012c 390f           4658 	.byte	57,15
0000012e 3a0f           4659 	.byte	58,15
00000130 4910           4660 	.byte	73,16
00000132 1101           4661 	.byte	17,1
00000134 1201           4662 	.byte	18,1
00000136 400a           4663 	.byte	64,10
00000138 8341           4664 	.byte	131,65
0000013a 0f             4665 	.byte	15
0000013b 8741           4666 	.byte	135,65
0000013d 0d             4667 	.byte	13
0000013e 8541           4668 	.byte	133,65
00000140 0f             4669 	.byte	15
00000141 8641           4670 	.byte	134,65
00000143 0d             4671 	.byte	13
00000144 9241           4672 	.byte	146,65
00000146 0f             4673 	.byte	15
00000147 3c0c           4674 	.byte	60,12
00000149 200b           4675 	.byte	32,11
0000014b 3f0c           4676 	.byte	63,12
0000014d 320b           4677 	.byte	50,11
0000014f 4c0b           4678 	.byte	76,11
00000151 270c           4679 	.byte	39,12
00000153 0000           4680 	.byte	0,0
                        4681 
                        4682 	.section	.debug_frame
                        4683 .LDW_55897c0:
00000090 00000000*      4684 	.word	.LDW_unq_4-.LDW_unq_3
                        4685 .LDW_unq_3:
00000094 00000000*      4686 	.word	.LDW_545cc80
00000098 00000000*      4687 	.word	_Memstack_GetNvmCatFromHufBlockNumber
0000009c 00000000*      4688 	.word	___ghs_eofn_Memstack_GetNvmCatFromHufBlockNumber-_Memstack_GetNvmCatFromHufBlockNumber
000000a0 01             4689 	.byte	1
000000a1 00000000*      4690 	.word	.LDW11
000000a5 00             4691 	.byte	0
000000a6 00             4692 	.byte	0

                                                                      Page 103
                                                              C:\Users\nhuliyap\AppData\Local\Temp\gh_00008cs1.s
000000a7 00             4693 	.byte	0
                        4694 .LDW_unq_4:
                        4695 	.section	.debug_line
0000177e 000502         4696 	.byte	0,5,2
00001781 00000000*      4697 	.word	_Memstack_GetNvmCatFromHufBlockNumber
00001785 03             4698 	.byte	3
00001786 f800           4699 	.byte	248,0
00001788 02             4700 	.byte	2
00001789 00             4701 	.byte	0
0000178a 01             4702 	.byte	1
0000178b 06             4703 	.byte	6
0000178c 13             4704 	.byte	19
0000178d 14             4705 	.byte	20
0000178e 000502         4706 	.byte	0,5,2
00001791 00000000*      4707 	.word	.LDWlin1
00001795 0c             4708 	.byte	12
00001796 03             4709 	.byte	3
00001797 7e             4710 	.byte	126
00001798 02             4711 	.byte	2
00001799 04             4712 	.byte	4
0000179a 01             4713 	.byte	1
0000179b 000502         4714 	.byte	0,5,2
0000179e 00000000*      4715 	.word	.LDWlin2
000017a2 0d             4716 	.byte	13
000017a3 0c             4717 	.byte	12
000017a4 02             4718 	.byte	2
000017a5 02             4719 	.byte	2
000017a6 000101         4720 	.byte	0,1,1
                        4721 	.section	.debug_info
                        4722 .LDW_553f278:
00000f54 0f             4723 	.byte	15
00000f55 757368426c6f   4724 	.strz	"ushBlockNr"
00000f5b 636b4e7200 
00000f60 78             4725 	.byte	120
00000f61 3a             4726 	.byte	58
00000f62 01             4727 	.byte	1
00000f63 00000000*      4728 	.word	.LDW_486a118
00000f67 00             4729 	.byte	0
00000f68 0156           4730 	.byte	1,86
                        4731 
                        4732 	.section	.debug_abbrev
00000155 0f             4733 	.byte	15
00000156 05             4734 	.byte	5
00000157 00             4735 	.byte	0
00000158 0308           4736 	.byte	3,8
0000015a 3b0f           4737 	.byte	59,15
0000015c 390f           4738 	.byte	57,15
0000015e 3a0f           4739 	.byte	58,15
00000160 4910           4740 	.byte	73,16
00000162 4b0c           4741 	.byte	75,12
00000164 020a           4742 	.byte	2,10
00000166 0000           4743 	.byte	0,0
                        4744 
                        4745 	.section	.debug_info
                        4746 .LDW_553eb70:
00000f6a 1d             4747 	.byte	29
00000f6b 00000000*      4748 	.word	.LDW01
00000f6f 00000000*      4749 	.word	.LDW11
                        4750 
                        4751 	.section	.debug_abbrev
00000168 1d             4752 	.byte	29

                                                                      Page 104
                                                              C:\Users\nhuliyap\AppData\Local\Temp\gh_00008cs1.s
00000169 0b             4753 	.byte	11
0000016a 01             4754 	.byte	1
0000016b 1101           4755 	.byte	17,1
0000016d 1201           4756 	.byte	18,1
0000016f 0000           4757 	.byte	0,0
                        4758 
                        4759 	.section	.debug_info
                        4760 .LDW_553f488:
00000f73 04             4761 	.byte	4
00000f74 6900           4762 	.strz	"i"
00000f76 7a             4763 	.byte	122
00000f77 09             4764 	.byte	9
00000f78 01             4765 	.byte	1
00000f79 00000000*      4766 	.word	.LDW_4c8e5a0
00000f7d 00             4767 	.byte	0
00000f7e 00             4768 	.byte	0
00000f7f 015a           4769 	.byte	1,90
                        4770 
00000f81 00             4771 	.byte	0
                        4772 
00000f82 00             4773 	.byte	0
                        4774 
                        4775 .LDW_5513f18:
00000f83 14             4776 	.byte	20
00000f84 4d656d737461   4777 	.strz	"Memstack_GetNvMRamAdress"
00000f8a 636b5f476574 
00000f90 4e764d52616d 
00000f96 416472657373 
00000f9c 00 
00000f9d 8401           4778 	.byte	132,1
00000f9f 0f             4779 	.byte	15
00000fa0 01             4780 	.byte	1
00000fa1 00000000*      4781 	.word	.LDW_4c862a8
00000fa5 00000000*      4782 	.word	_Memstack_GetNvMRamAdress
00000fa9 00000000*      4783 	.word	___ghs_eofn_Memstack_GetNvMRamAdress
00000fad 0153           4784 	.byte	1,83
00000faf 02             4785 	.byte	2
00000fb0 00             4786 	.byte	0
00000fb1 02             4787 	.byte	2
00000fb2 00             4788 	.byte	0
00000fb3 00             4789 	.byte	0
00000fb4 00             4790 	.byte	0
00000fb5 00             4791 	.byte	0
00000fb6 01             4792 	.byte	1
00000fb7 01             4793 	.byte	1
00000fb8 00             4794 	.byte	0
00000fb9 01             4795 	.byte	1
                        4796 
                        4797 	.section	.debug_frame
                        4798 .LDW_5589480:
000000a8 00000000*      4799 	.word	.LDW_unq_6-.LDW_unq_5
                        4800 .LDW_unq_5:
000000ac 00000000*      4801 	.word	.LDW_545cc80
000000b0 00000000*      4802 	.word	_Memstack_GetNvMRamAdress
000000b4 00000000*      4803 	.word	___ghs_eofn_Memstack_GetNvMRamAdress-_Memstack_GetNvMRamAdress
000000b8 01             4804 	.byte	1
000000b9 00000000*      4805 	.word	.LDW31
000000bd 00             4806 	.byte	0
000000be 00             4807 	.byte	0
000000bf 00             4808 	.byte	0
                        4809 .LDW_unq_6:

                                                                      Page 105
                                                              C:\Users\nhuliyap\AppData\Local\Temp\gh_00008cs1.s
                        4810 	.section	.debug_line
000017a9 000502         4811 	.byte	0,5,2
000017ac 00000000*      4812 	.word	_Memstack_GetNvMRamAdress
000017b0 03             4813 	.byte	3
000017b1 8401           4814 	.byte	132,1
000017b3 02             4815 	.byte	2
000017b4 00             4816 	.byte	0
000017b5 01             4817 	.byte	1
000017b6 06             4818 	.byte	6
000017b7 000502         4819 	.byte	0,5,2
000017ba 00000000*      4820 	.word	.LDWlin3
000017be 03             4821 	.byte	3
000017bf 05             4822 	.byte	5
000017c0 02             4823 	.byte	2
000017c1 00             4824 	.byte	0
000017c2 01             4825 	.byte	1
000017c3 000502         4826 	.byte	0,5,2
000017c6 00000000*      4827 	.word	.LDWlin4
000017ca 0b             4828 	.byte	11
000017cb 0b             4829 	.byte	11
000017cc 000502         4830 	.byte	0,5,2
000017cf 00000000*      4831 	.word	.LDWlin5
000017d3 0b             4832 	.byte	11
000017d4 0b             4833 	.byte	11
000017d5 02             4834 	.byte	2
000017d6 00             4835 	.byte	0
000017d7 000502         4836 	.byte	0,5,2
000017da 00000000*      4837 	.word	.LDWlin6
000017de 0b             4838 	.byte	11
000017df 0b             4839 	.byte	11
000017e0 000502         4840 	.byte	0,5,2
000017e3 00000000*      4841 	.word	.LDWlin7
000017e7 0b             4842 	.byte	11
000017e8 0b             4843 	.byte	11
000017e9 02             4844 	.byte	2
000017ea 00             4845 	.byte	0
000017eb 000502         4846 	.byte	0,5,2
000017ee 00000000*      4847 	.word	.LDWlin8
000017f2 0b             4848 	.byte	11
000017f3 0b             4849 	.byte	11
000017f4 000502         4850 	.byte	0,5,2
000017f7 00000000*      4851 	.word	.LDWlin9
000017fb 0c             4852 	.byte	12
000017fc 0b             4853 	.byte	11
000017fd 02             4854 	.byte	2
000017fe 00             4855 	.byte	0
000017ff 000502         4856 	.byte	0,5,2
00001802 00000000*      4857 	.word	.LDWlin10
00001806 0b             4858 	.byte	11
00001807 0b             4859 	.byte	11
00001808 000502         4860 	.byte	0,5,2
0000180b 00000000*      4861 	.word	.LDWlin11
0000180f 0c             4862 	.byte	12
00001810 0b             4863 	.byte	11
00001811 02             4864 	.byte	2
00001812 00             4865 	.byte	0
00001813 000502         4866 	.byte	0,5,2
00001816 00000000*      4867 	.word	.LDWlin12
0000181a 0b             4868 	.byte	11
0000181b 0b             4869 	.byte	11
0000181c 000502         4870 	.byte	0,5,2

                                                                      Page 106
                                                              C:\Users\nhuliyap\AppData\Local\Temp\gh_00008cs1.s
0000181f 00000000*      4871 	.word	.LDWlin13
00001823 0b             4872 	.byte	11
00001824 0b             4873 	.byte	11
00001825 02             4874 	.byte	2
00001826 00             4875 	.byte	0
00001827 000502         4876 	.byte	0,5,2
0000182a 00000000*      4877 	.word	.LDWlin14
0000182e 0b             4878 	.byte	11
0000182f 0b             4879 	.byte	11
00001830 000502         4880 	.byte	0,5,2
00001833 00000000*      4881 	.word	.LDWlin15
00001837 0b             4882 	.byte	11
00001838 0b             4883 	.byte	11
00001839 02             4884 	.byte	2
0000183a 00             4885 	.byte	0
0000183b 000502         4886 	.byte	0,5,2
0000183e 00000000*      4887 	.word	.LDWlin16
00001842 0b             4888 	.byte	11
00001843 0b             4889 	.byte	11
00001844 000502         4890 	.byte	0,5,2
00001847 00000000*      4891 	.word	.LDWlin17
0000184b 0b             4892 	.byte	11
0000184c 0b             4893 	.byte	11
0000184d 02             4894 	.byte	2
0000184e 00             4895 	.byte	0
0000184f 000502         4896 	.byte	0,5,2
00001852 00000000*      4897 	.word	.LDWlin18
00001856 0b             4898 	.byte	11
00001857 0b             4899 	.byte	11
00001858 000502         4900 	.byte	0,5,2
0000185b 00000000*      4901 	.word	.LDWlin19
0000185f 0b             4902 	.byte	11
00001860 0b             4903 	.byte	11
00001861 02             4904 	.byte	2
00001862 00             4905 	.byte	0
00001863 000502         4906 	.byte	0,5,2
00001866 00000000*      4907 	.word	.LDWlin20
0000186a 0b             4908 	.byte	11
0000186b 0b             4909 	.byte	11
0000186c 000502         4910 	.byte	0,5,2
0000186f 00000000*      4911 	.word	.LDWlin21
00001873 0b             4912 	.byte	11
00001874 0b             4913 	.byte	11
00001875 02             4914 	.byte	2
00001876 00             4915 	.byte	0
00001877 000502         4916 	.byte	0,5,2
0000187a 00000000*      4917 	.word	.LDWlin22
0000187e 0b             4918 	.byte	11
0000187f 0b             4919 	.byte	11
00001880 000502         4920 	.byte	0,5,2
00001883 00000000*      4921 	.word	.LDWlin23
00001887 0b             4922 	.byte	11
00001888 0b             4923 	.byte	11
00001889 0c             4924 	.byte	12
0000188a 02             4925 	.byte	2
0000188b 00             4926 	.byte	0
0000188c 02             4927 	.byte	2
0000188d 00             4928 	.byte	0
0000188e 02             4929 	.byte	2
0000188f 00             4930 	.byte	0
00001890 02             4931 	.byte	2

                                                                      Page 107
                                                              C:\Users\nhuliyap\AppData\Local\Temp\gh_00008cs1.s
00001891 00             4932 	.byte	0
00001892 02             4933 	.byte	2
00001893 00             4934 	.byte	0
00001894 02             4935 	.byte	2
00001895 00             4936 	.byte	0
00001896 02             4937 	.byte	2
00001897 00             4938 	.byte	0
00001898 02             4939 	.byte	2
00001899 00             4940 	.byte	0
0000189a 02             4941 	.byte	2
0000189b 00             4942 	.byte	0
0000189c 02             4943 	.byte	2
0000189d 00             4944 	.byte	0
0000189e 02             4945 	.byte	2
0000189f 00             4946 	.byte	0
000018a0 02             4947 	.byte	2
000018a1 00             4948 	.byte	0
000018a2 02             4949 	.byte	2
000018a3 00             4950 	.byte	0
000018a4 02             4951 	.byte	2
000018a5 00             4952 	.byte	0
000018a6 02             4953 	.byte	2
000018a7 00             4954 	.byte	0
000018a8 02             4955 	.byte	2
000018a9 00             4956 	.byte	0
000018aa 02             4957 	.byte	2
000018ab 00             4958 	.byte	0
000018ac 02             4959 	.byte	2
000018ad 00             4960 	.byte	0
000018ae 02             4961 	.byte	2
000018af 00             4962 	.byte	0
000018b0 0c             4963 	.byte	12
000018b1 02             4964 	.byte	2
000018b2 02             4965 	.byte	2
000018b3 000101         4966 	.byte	0,1,1
                        4967 	.section	.debug_info
                        4968 .LDW_553f4e0:
00000fba 0f             4969 	.byte	15
00000fbb 757368426c6f   4970 	.strz	"ushBlockNr"
00000fc1 636b4e7200 
00000fc6 8401           4971 	.byte	132,1
00000fc8 2f             4972 	.byte	47
00000fc9 01             4973 	.byte	1
00000fca 00000000*      4974 	.word	.LDW_486a118
00000fce 00             4975 	.byte	0
00000fcf 0156           4976 	.byte	1,86
                        4977 
                        4978 .LDW_553ecc0:
00000fd1 1d             4979 	.byte	29
00000fd2 00000000*      4980 	.word	.LDW21
00000fd6 00000000*      4981 	.word	.LDW31
                        4982 
                        4983 .LDW_553f538:
00000fda 04             4984 	.byte	4
00000fdb 7032426c6f63   4985 	.strz	"p2BlockAdress"
00000fe1 6b4164726573 
00000fe7 7300 
00000fe9 8601           4986 	.byte	134,1
00000feb 13             4987 	.byte	19
00000fec 01             4988 	.byte	1
00000fed 00000000*      4989 	.word	.LDW_4c86238

                                                                      Page 108
                                                              C:\Users\nhuliyap\AppData\Local\Temp\gh_00008cs1.s
00000ff1 00             4990 	.byte	0
00000ff2 00             4991 	.byte	0
00000ff3 015a           4992 	.byte	1,90
                        4993 
                        4994 .LDW_553f698:
00000ff5 04             4995 	.byte	4
00000ff6 756c54656d70   4996 	.strz	"ulTemp"
00000ffc 00 
00000ffd 8801           4997 	.byte	136,1
00000fff 12             4998 	.byte	18
00001000 01             4999 	.byte	1
00001001 00000000*      5000 	.word	.LDW_553f590
00001005 00             5001 	.byte	0
00001006 00             5002 	.byte	0
00001007 0163           5003 	.byte	1,99
                        5004 
00001009 00             5005 	.byte	0
                        5006 
0000100a 00             5007 	.byte	0
                        5008 
                        5009 .LDW_5513500:
0000100b 13             5010 	.byte	19
0000100c 4d656d737461   5011 	.strz	"Memstack_SetEcuNvMRamBlockStatus"
00001012 636b5f536574 
00001018 4563754e764d 
0000101e 52616d426c6f 
00001024 636b53746174 
0000102a 757300 
0000102d bb01           5012 	.byte	187,1
0000102f 0e             5013 	.byte	14
00001030 01             5014 	.byte	1
00001031 00000000*      5015 	.word	_Memstack_SetEcuNvMRamBlockStatus
00001035 00000000*      5016 	.word	___ghs_eofn_Memstack_SetEcuNvMRamBlockStatus
00001039 0153           5017 	.byte	1,83
0000103b 828080800a     5018 	.byte	130,128,128,128,10
00001040 08             5019 	.byte	8
00001041 03             5020 	.byte	3
00001042 08             5021 	.byte	8
00001043 00             5022 	.byte	0
00001044 00             5023 	.byte	0
00001045 00             5024 	.byte	0
00001046 01             5025 	.byte	1
00001047 01             5026 	.byte	1
00001048 00             5027 	.byte	0
00001049 01             5028 	.byte	1
                        5029 
                        5030 	.section	.debug_abbrev
00000171 13             5031 	.byte	19
00000172 2e             5032 	.byte	46
00000173 01             5033 	.byte	1
00000174 0308           5034 	.byte	3,8
00000176 3b0f           5035 	.byte	59,15
00000178 390f           5036 	.byte	57,15
0000017a 3a0f           5037 	.byte	58,15
0000017c 1101           5038 	.byte	17,1
0000017e 1201           5039 	.byte	18,1
00000180 400a           5040 	.byte	64,10
00000182 8341           5041 	.byte	131,65
00000184 0f             5042 	.byte	15
00000185 8741           5043 	.byte	135,65
00000187 0d             5044 	.byte	13

                                                                      Page 109
                                                              C:\Users\nhuliyap\AppData\Local\Temp\gh_00008cs1.s
00000188 8541           5045 	.byte	133,65
0000018a 0f             5046 	.byte	15
0000018b 8641           5047 	.byte	134,65
0000018d 0d             5048 	.byte	13
0000018e 9241           5049 	.byte	146,65
00000190 0f             5050 	.byte	15
00000191 3c0c           5051 	.byte	60,12
00000193 200b           5052 	.byte	32,11
00000195 3f0c           5053 	.byte	63,12
00000197 320b           5054 	.byte	50,11
00000199 4c0b           5055 	.byte	76,11
0000019b 270c           5056 	.byte	39,12
0000019d 0000           5057 	.byte	0,0
                        5058 
                        5059 	.section	.debug_frame
                        5060 .LDW_5589500:
000000c0 00000000*      5061 	.word	.LDW_unq_8-.LDW_unq_7
                        5062 .LDW_unq_7:
000000c4 00000000*      5063 	.word	.LDW_545cc80
000000c8 00000000*      5064 	.word	_Memstack_SetEcuNvMRamBlockStatus
000000cc 00000000*      5065 	.word	___ghs_eofn_Memstack_SetEcuNvMRamBlockStatus-_Memstack_SetEcuNvMRamBlockStatus
000000d0 44             5066 	.byte	68
000000d1 9f             5067 	.byte	159
000000d2 00             5068 	.byte	0
000000d3 40             5069 	.byte	64
000000d4 9d             5070 	.byte	157
000000d5 04             5071 	.byte	4
000000d6 01             5072 	.byte	1
000000d7 00000000*      5073 	.word	.LDW51
000000db 00             5074 	.byte	0
                        5075 .LDW_unq_8:
                        5076 	.section	.debug_line
000018b6 000502         5077 	.byte	0,5,2
000018b9 00000000*      5078 	.word	_Memstack_SetEcuNvMRamBlockStatus
000018bd 03             5079 	.byte	3
000018be bb01           5080 	.byte	187,1
000018c0 02             5081 	.byte	2
000018c1 00             5082 	.byte	0
000018c2 01             5083 	.byte	1
000018c3 06             5084 	.byte	6
000018c4 000502         5085 	.byte	0,5,2
000018c7 00000000*      5086 	.word	.LDWlin24
000018cb 0c             5087 	.byte	12
000018cc 000502         5088 	.byte	0,5,2
000018cf 00000000*      5089 	.word	.LDWlin25
000018d3 0b             5090 	.byte	11
000018d4 0b             5091 	.byte	11
000018d5 000502         5092 	.byte	0,5,2
000018d8 00000000*      5093 	.word	.LDWlin26
000018dc 0b             5094 	.byte	11
000018dd 000502         5095 	.byte	0,5,2
000018e0 00000000*      5096 	.word	.LDWlin27
000018e4 0b             5097 	.byte	11
000018e5 0b             5098 	.byte	11
000018e6 02             5099 	.byte	2
000018e7 00             5100 	.byte	0
000018e8 000502         5101 	.byte	0,5,2
000018eb 00000000*      5102 	.word	.LDWlin28
000018ef 0b             5103 	.byte	11
000018f0 0b             5104 	.byte	11
000018f1 000502         5105 	.byte	0,5,2

                                                                      Page 110
                                                              C:\Users\nhuliyap\AppData\Local\Temp\gh_00008cs1.s
000018f4 00000000*      5106 	.word	.LDWlin29
000018f8 0b             5107 	.byte	11
000018f9 000502         5108 	.byte	0,5,2
000018fc 00000000*      5109 	.word	.LDWlin30
00001900 0b             5110 	.byte	11
00001901 0b             5111 	.byte	11
00001902 02             5112 	.byte	2
00001903 00             5113 	.byte	0
00001904 000502         5114 	.byte	0,5,2
00001907 00000000*      5115 	.word	.LDWlin31
0000190b 0b             5116 	.byte	11
0000190c 0b             5117 	.byte	11
0000190d 000502         5118 	.byte	0,5,2
00001910 00000000*      5119 	.word	.LDWlin32
00001914 0b             5120 	.byte	11
00001915 000502         5121 	.byte	0,5,2
00001918 00000000*      5122 	.word	.LDWlin33
0000191c 0b             5123 	.byte	11
0000191d 0b             5124 	.byte	11
0000191e 02             5125 	.byte	2
0000191f 00             5126 	.byte	0
00001920 000502         5127 	.byte	0,5,2
00001923 00000000*      5128 	.word	.LDWlin34
00001927 0b             5129 	.byte	11
00001928 0b             5130 	.byte	11
00001929 000502         5131 	.byte	0,5,2
0000192c 00000000*      5132 	.word	.LDWlin35
00001930 0b             5133 	.byte	11
00001931 000502         5134 	.byte	0,5,2
00001934 00000000*      5135 	.word	.LDWlin36
00001938 0b             5136 	.byte	11
00001939 0b             5137 	.byte	11
0000193a 02             5138 	.byte	2
0000193b 00             5139 	.byte	0
0000193c 000502         5140 	.byte	0,5,2
0000193f 00000000*      5141 	.word	.LDWlin37
00001943 0b             5142 	.byte	11
00001944 0b             5143 	.byte	11
00001945 000502         5144 	.byte	0,5,2
00001948 00000000*      5145 	.word	.LDWlin38
0000194c 0b             5146 	.byte	11
0000194d 000502         5147 	.byte	0,5,2
00001950 00000000*      5148 	.word	.LDWlin39
00001954 0b             5149 	.byte	11
00001955 0b             5150 	.byte	11
00001956 02             5151 	.byte	2
00001957 00             5152 	.byte	0
00001958 000502         5153 	.byte	0,5,2
0000195b 00000000*      5154 	.word	.LDWlin40
0000195f 0b             5155 	.byte	11
00001960 0b             5156 	.byte	11
00001961 000502         5157 	.byte	0,5,2
00001964 00000000*      5158 	.word	.LDWlin41
00001968 0b             5159 	.byte	11
00001969 000502         5160 	.byte	0,5,2
0000196c 00000000*      5161 	.word	.LDWlin42
00001970 0b             5162 	.byte	11
00001971 0b             5163 	.byte	11
00001972 02             5164 	.byte	2
00001973 00             5165 	.byte	0
00001974 000502         5166 	.byte	0,5,2

                                                                      Page 111
                                                              C:\Users\nhuliyap\AppData\Local\Temp\gh_00008cs1.s
00001977 00000000*      5167 	.word	.LDWlin43
0000197b 0b             5168 	.byte	11
0000197c 0b             5169 	.byte	11
0000197d 000502         5170 	.byte	0,5,2
00001980 00000000*      5171 	.word	.LDWlin44
00001984 0b             5172 	.byte	11
00001985 000502         5173 	.byte	0,5,2
00001988 00000000*      5174 	.word	.LDWlin45
0000198c 0b             5175 	.byte	11
0000198d 0b             5176 	.byte	11
0000198e 02             5177 	.byte	2
0000198f 00             5178 	.byte	0
00001990 000502         5179 	.byte	0,5,2
00001993 00000000*      5180 	.word	.LDWlin46
00001997 0b             5181 	.byte	11
00001998 0b             5182 	.byte	11
00001999 000502         5183 	.byte	0,5,2
0000199c 00000000*      5184 	.word	.LDWlin47
000019a0 0b             5185 	.byte	11
000019a1 000502         5186 	.byte	0,5,2
000019a4 00000000*      5187 	.word	.LDWlin48
000019a8 0b             5188 	.byte	11
000019a9 0b             5189 	.byte	11
000019aa 02             5190 	.byte	2
000019ab 00             5191 	.byte	0
000019ac 000502         5192 	.byte	0,5,2
000019af 00000000*      5193 	.word	.LDWlin49
000019b3 0b             5194 	.byte	11
000019b4 0b             5195 	.byte	11
000019b5 000502         5196 	.byte	0,5,2
000019b8 00000000*      5197 	.word	.LDWlin50
000019bc 0b             5198 	.byte	11
000019bd 000502         5199 	.byte	0,5,2
000019c0 00000000*      5200 	.word	.LDWlin51
000019c4 0b             5201 	.byte	11
000019c5 0b             5202 	.byte	11
000019c6 02             5203 	.byte	2
000019c7 00             5204 	.byte	0
000019c8 000502         5205 	.byte	0,5,2
000019cb 00000000*      5206 	.word	.LDWlin52
000019cf 0b             5207 	.byte	11
000019d0 0b             5208 	.byte	11
000019d1 000502         5209 	.byte	0,5,2
000019d4 00000000*      5210 	.word	.LDWlin53
000019d8 0b             5211 	.byte	11
000019d9 23             5212 	.byte	35
000019da 0b             5213 	.byte	11
000019db 0c             5214 	.byte	12
000019dc 02             5215 	.byte	2
000019dd 00             5216 	.byte	0
000019de 02             5217 	.byte	2
000019df 00             5218 	.byte	0
000019e0 02             5219 	.byte	2
000019e1 00             5220 	.byte	0
000019e2 02             5221 	.byte	2
000019e3 00             5222 	.byte	0
000019e4 02             5223 	.byte	2
000019e5 00             5224 	.byte	0
000019e6 02             5225 	.byte	2
000019e7 00             5226 	.byte	0
000019e8 02             5227 	.byte	2

                                                                      Page 112
                                                              C:\Users\nhuliyap\AppData\Local\Temp\gh_00008cs1.s
000019e9 00             5228 	.byte	0
000019ea 02             5229 	.byte	2
000019eb 00             5230 	.byte	0
000019ec 02             5231 	.byte	2
000019ed 00             5232 	.byte	0
000019ee 02             5233 	.byte	2
000019ef 00             5234 	.byte	0
000019f0 02             5235 	.byte	2
000019f1 00             5236 	.byte	0
000019f2 02             5237 	.byte	2
000019f3 00             5238 	.byte	0
000019f4 02             5239 	.byte	2
000019f5 00             5240 	.byte	0
000019f6 02             5241 	.byte	2
000019f7 00             5242 	.byte	0
000019f8 02             5243 	.byte	2
000019f9 00             5244 	.byte	0
000019fa 02             5245 	.byte	2
000019fb 00             5246 	.byte	0
000019fc 02             5247 	.byte	2
000019fd 00             5248 	.byte	0
000019fe 02             5249 	.byte	2
000019ff 00             5250 	.byte	0
00001a00 02             5251 	.byte	2
00001a01 00             5252 	.byte	0
00001a02 0b             5253 	.byte	11
00001a03 02             5254 	.byte	2
00001a04 04             5255 	.byte	4
00001a05 000101         5256 	.byte	0,1,1
                        5257 	.section	.debug_info
                        5258 .LDW_553f640:
0000104a 0f             5259 	.byte	15
0000104b 757368426c6f   5260 	.strz	"ushBlockNr"
00001051 636b4e7200 
00001056 bb01           5261 	.byte	187,1
00001058 36             5262 	.byte	54
00001059 01             5263 	.byte	1
0000105a 00000000*      5264 	.word	.LDW_486a118
0000105e 00             5265 	.byte	0
0000105f 0156           5266 	.byte	1,86
                        5267 
                        5268 .LDW_553ed80:
00001061 1d             5269 	.byte	29
00001062 00000000*      5270 	.word	.LDW41
00001066 00000000*      5271 	.word	.LDW51
                        5272 
0000106a 00             5273 	.byte	0
                        5274 
0000106b 00             5275 	.byte	0
                        5276 
                        5277 .LDW_5513760:
0000106c 13             5278 	.byte	19
0000106d 696e66537763   5279 	.strz	"infSwcServiceNvMSwcApplEcuM_InitFunction"
00001073 536572766963 
00001079 654e764d5377 
0000107f 634170706c45 
00001085 63754d5f496e 
0000108b 697446756e63 
00001091 74696f6e00 
00001096 f501           5280 	.byte	245,1
00001098 06             5281 	.byte	6

                                                                      Page 113
                                                              C:\Users\nhuliyap\AppData\Local\Temp\gh_00008cs1.s
00001099 01             5282 	.byte	1
0000109a 00000000*      5283 	.word	_infSwcServiceNvMSwcApplEcuM_InitFunction
0000109e 00000000*      5284 	.word	___ghs_eofn_infSwcServiceNvMSwcApplEcuM_InitFunction
000010a2 0153           5285 	.byte	1,83
000010a4 8280808008     5286 	.byte	130,128,128,128,8
000010a9 04             5287 	.byte	4
000010aa 03             5288 	.byte	3
000010ab 08             5289 	.byte	8
000010ac 00             5290 	.byte	0
000010ad 00             5291 	.byte	0
000010ae 00             5292 	.byte	0
000010af 01             5293 	.byte	1
000010b0 01             5294 	.byte	1
000010b1 00             5295 	.byte	0
000010b2 01             5296 	.byte	1
                        5297 
                        5298 	.section	.debug_frame
                        5299 .LDW_5589180:
000000dc 00000000*      5300 	.word	.LDW_unq_a-.LDW_unq_9
                        5301 .LDW_unq_9:
000000e0 00000000*      5302 	.word	.LDW_545cc80
000000e4 00000000*      5303 	.word	_infSwcServiceNvMSwcApplEcuM_InitFunction
000000e8 00000000*      5304 	.word	___ghs_eofn_infSwcServiceNvMSwcApplEcuM_InitFunction-_infSwcServiceNvMSwcApplEcuM_InitFunction
000000ec 44             5305 	.byte	68
000000ed 9f             5306 	.byte	159
000000ee 03             5307 	.byte	3
000000ef 01             5308 	.byte	1
000000f0 00000000*      5309 	.word	.LDW71
                        5310 .LDW_unq_a:
                        5311 	.section	.debug_line
00001a08 000502         5312 	.byte	0,5,2
00001a0b 00000000*      5313 	.word	_infSwcServiceNvMSwcApplEcuM_InitFunction
00001a0f 03             5314 	.byte	3
00001a10 f401           5315 	.byte	244,1
00001a12 02             5316 	.byte	2
00001a13 00             5317 	.byte	0
00001a14 01             5318 	.byte	1
00001a15 06             5319 	.byte	6
00001a16 03             5320 	.byte	3
00001a17 04             5321 	.byte	4
00001a18 02             5322 	.byte	2
00001a19 04             5323 	.byte	4
00001a1a 01             5324 	.byte	1
00001a1b 000502         5325 	.byte	0,5,2
00001a1e 00000000*      5326 	.word	.LDWlin54
00001a22 0b             5327 	.byte	11
00001a23 000502         5328 	.byte	0,5,2
00001a26 00000000*      5329 	.word	.LDWlin55
00001a2a 0b             5330 	.byte	11
00001a2b 000502         5331 	.byte	0,5,2
00001a2e 00000000*      5332 	.word	.LDWlin56
00001a32 0b             5333 	.byte	11
00001a33 000502         5334 	.byte	0,5,2
00001a36 00000000*      5335 	.word	.LDWlin57
00001a3a 0c             5336 	.byte	12
00001a3b 0c             5337 	.byte	12
00001a3c 000502         5338 	.byte	0,5,2
00001a3f 00000000*      5339 	.word	.LDWlin58
00001a43 0b             5340 	.byte	11
00001a44 000502         5341 	.byte	0,5,2
00001a47 00000000*      5342 	.word	.LDWlin59

                                                                      Page 114
                                                              C:\Users\nhuliyap\AppData\Local\Temp\gh_00008cs1.s
00001a4b 0b             5343 	.byte	11
00001a4c 000502         5344 	.byte	0,5,2
00001a4f 00000000*      5345 	.word	.LDWlin60
00001a53 0b             5346 	.byte	11
00001a54 000502         5347 	.byte	0,5,2
00001a57 00000000*      5348 	.word	.LDWlin61
00001a5b 0c             5349 	.byte	12
00001a5c 000502         5350 	.byte	0,5,2
00001a5f 00000000*      5351 	.word	.LDWlin62
00001a63 03             5352 	.byte	3
00001a64 7f             5353 	.byte	127
00001a65 02             5354 	.byte	2
00001a66 00             5355 	.byte	0
00001a67 01             5356 	.byte	1
00001a68 0c             5357 	.byte	12
00001a69 000502         5358 	.byte	0,5,2
00001a6c 00000000*      5359 	.word	.LDWlin63
00001a70 0b             5360 	.byte	11
00001a71 02             5361 	.byte	2
00001a72 04             5362 	.byte	4
00001a73 000101         5363 	.byte	0,1,1
                        5364 	.section	.debug_info
                        5365 .LDW_553e930:
000010b3 1d             5366 	.byte	29
000010b4 00000000*      5367 	.word	.LDW61
000010b8 00000000*      5368 	.word	.LDW71
                        5369 
                        5370 .LDW_553f6f0:
000010bc 04             5371 	.byte	4
000010bd 496e745f4e76   5372 	.strz	"Int_NvMultiBlockStatus"
000010c3 4d756c746942 
000010c9 6c6f636b5374 
000010cf 6174757300 
000010d4 f701           5373 	.byte	247,1
000010d6 1b             5374 	.byte	27
000010d7 01             5375 	.byte	1
000010d8 00000000*      5376 	.word	.LDW_54133b0
000010dc 00             5377 	.byte	0
000010dd 00             5378 	.byte	0
000010de 0273           5379 	.byte	2,115
000010e0 03             5380 	.byte	3
                        5381 
000010e1 00             5382 	.byte	0
                        5383 
000010e2 00             5384 	.byte	0
                        5385 
                        5386 .LDW_55133d0:
000010e3 13             5387 	.byte	19
000010e4 4d656d737461   5388 	.strz	"Memstack_Main"
000010ea 636b5f4d6169 
000010f0 6e00 
000010f2 8902           5389 	.byte	137,2
000010f4 0d             5390 	.byte	13
000010f5 01             5391 	.byte	1
000010f6 00000000*      5392 	.word	_Memstack_Main
000010fa 00000000*      5393 	.word	___ghs_eofn_Memstack_Main
000010fe 0153           5394 	.byte	1,83
00001100 8280808008     5395 	.byte	130,128,128,128,8
00001105 04             5396 	.byte	4
00001106 03             5397 	.byte	3
00001107 04             5398 	.byte	4

                                                                      Page 115
                                                              C:\Users\nhuliyap\AppData\Local\Temp\gh_00008cs1.s
00001108 00             5399 	.byte	0
00001109 00             5400 	.byte	0
0000110a 00             5401 	.byte	0
0000110b 01             5402 	.byte	1
0000110c 01             5403 	.byte	1
0000110d 00             5404 	.byte	0
0000110e 01             5405 	.byte	1
                        5406 
                        5407 	.section	.debug_frame
                        5408 .LDW_5589840:
000000f4 00000000*      5409 	.word	.LDW_unq_c-.LDW_unq_b
                        5410 .LDW_unq_b:
000000f8 00000000*      5411 	.word	.LDW_545cc80
000000fc 00000000*      5412 	.word	_Memstack_Main
00000100 00000000*      5413 	.word	___ghs_eofn_Memstack_Main-_Memstack_Main
00000104 44             5414 	.byte	68
00000105 9f             5415 	.byte	159
00000106 00             5416 	.byte	0
00000107 01             5417 	.byte	1
00000108 00000000*      5418 	.word	.LDW91
0000010c 44             5419 	.byte	68
0000010d df             5420 	.byte	223
0000010e 00             5421 	.byte	0
0000010f 00             5422 	.byte	0
                        5423 .LDW_unq_c:
                        5424 	.section	.debug_line
00001a76 000502         5425 	.byte	0,5,2
00001a79 00000000*      5426 	.word	_Memstack_Main
00001a7d 03             5427 	.byte	3
00001a7e 8802           5428 	.byte	136,2
00001a80 02             5429 	.byte	2
00001a81 00             5430 	.byte	0
00001a82 01             5431 	.byte	1
00001a83 06             5432 	.byte	6
00001a84 1b             5433 	.byte	27
00001a85 000502         5434 	.byte	0,5,2
00001a88 00000000*      5435 	.word	.LDWlin64
00001a8c 0b             5436 	.byte	11
00001a8d 000502         5437 	.byte	0,5,2
00001a90 00000000*      5438 	.word	.LDWlin65
00001a94 0b             5439 	.byte	11
00001a95 000502         5440 	.byte	0,5,2
00001a98 00000000*      5441 	.word	.LDWlin66
00001a9c 0b             5442 	.byte	11
00001a9d 02             5443 	.byte	2
00001a9e 04             5444 	.byte	4
00001a9f 000101         5445 	.byte	0,1,1
                        5446 	.section	.debug_info
                        5447 .LDW_553ebd0:
0000110f 1d             5448 	.byte	29
00001110 00000000*      5449 	.word	.LDW81
00001114 00000000*      5450 	.word	.LDW91
                        5451 
00001118 00             5452 	.byte	0
                        5453 
00001119 00             5454 	.byte	0
                        5455 
                        5456 .LDW_5513598:
0000111a 13             5457 	.byte	19
0000111b 4d656d737461   5458 	.strz	"Memstack_WriteAllBlocks"
00001121 636b5f577269 

                                                                      Page 116
                                                              C:\Users\nhuliyap\AppData\Local\Temp\gh_00008cs1.s
00001127 7465416c6c42 
0000112d 6c6f636b7300 
00001133 8f02           5459 	.byte	143,2
00001135 0d             5460 	.byte	13
00001136 01             5461 	.byte	1
00001137 00000000*      5462 	.word	_Memstack_WriteAllBlocks
0000113b 00000000*      5463 	.word	___ghs_eofn_Memstack_WriteAllBlocks
0000113f 0153           5464 	.byte	1,83
00001141 8280808008     5465 	.byte	130,128,128,128,8
00001146 04             5466 	.byte	4
00001147 03             5467 	.byte	3
00001148 08             5468 	.byte	8
00001149 00             5469 	.byte	0
0000114a 00             5470 	.byte	0
0000114b 00             5471 	.byte	0
0000114c 01             5472 	.byte	1
0000114d 01             5473 	.byte	1
0000114e 00             5474 	.byte	0
0000114f 01             5475 	.byte	1
                        5476 
                        5477 	.section	.debug_frame
                        5478 .LDW_5589440:
00000110 00000000*      5479 	.word	.LDW_unq_e-.LDW_unq_d
                        5480 .LDW_unq_d:
00000114 00000000*      5481 	.word	.LDW_545cc80
00000118 00000000*      5482 	.word	_Memstack_WriteAllBlocks
0000011c 00000000*      5483 	.word	___ghs_eofn_Memstack_WriteAllBlocks-_Memstack_WriteAllBlocks
00000120 44             5484 	.byte	68
00000121 9f             5485 	.byte	159
00000122 03             5486 	.byte	3
00000123 01             5487 	.byte	1
00000124 00000000*      5488 	.word	.LDW12
                        5489 .LDW_unq_e:
                        5490 	.section	.debug_line
00001aa2 000502         5491 	.byte	0,5,2
00001aa5 00000000*      5492 	.word	_Memstack_WriteAllBlocks
00001aa9 03             5493 	.byte	3
00001aaa 8e02           5494 	.byte	142,2
00001aac 02             5495 	.byte	2
00001aad 00             5496 	.byte	0
00001aae 01             5497 	.byte	1
00001aaf 06             5498 	.byte	6
00001ab0 03             5499 	.byte	3
00001ab1 05             5500 	.byte	5
00001ab2 02             5501 	.byte	2
00001ab3 04             5502 	.byte	4
00001ab4 01             5503 	.byte	1
00001ab5 000502         5504 	.byte	0,5,2
00001ab8 00000000*      5505 	.word	.LDWlin67
00001abc 0b             5506 	.byte	11
00001abd 0c             5507 	.byte	12
00001abe 000502         5508 	.byte	0,5,2
00001ac1 00000000*      5509 	.word	.LDWlin68
00001ac5 0b             5510 	.byte	11
00001ac6 000502         5511 	.byte	0,5,2
00001ac9 00000000*      5512 	.word	.LDWlin69
00001acd 0b             5513 	.byte	11
00001ace 000502         5514 	.byte	0,5,2
00001ad1 00000000*      5515 	.word	.LDWlin70
00001ad5 0b             5516 	.byte	11
00001ad6 000502         5517 	.byte	0,5,2

                                                                      Page 117
                                                              C:\Users\nhuliyap\AppData\Local\Temp\gh_00008cs1.s
00001ad9 00000000*      5518 	.word	.LDWlin71
00001add 0c             5519 	.byte	12
00001ade 000502         5520 	.byte	0,5,2
00001ae1 00000000*      5521 	.word	.LDWlin72
00001ae5 03             5522 	.byte	3
00001ae6 7f             5523 	.byte	127
00001ae7 02             5524 	.byte	2
00001ae8 00             5525 	.byte	0
00001ae9 01             5526 	.byte	1
00001aea 03             5527 	.byte	3
00001aeb 23             5528 	.byte	35
00001aec 02             5529 	.byte	2
00001aed 00             5530 	.byte	0
00001aee 01             5531 	.byte	1
00001aef 02             5532 	.byte	2
00001af0 04             5533 	.byte	4
00001af1 000101         5534 	.byte	0,1,1
                        5535 	.section	.debug_info
                        5536 .LDW_553ec30:
00001150 1d             5537 	.byte	29
00001151 00000000*      5538 	.word	.LDW02
00001155 00000000*      5539 	.word	.LDW12
                        5540 
                        5541 .LDW_553f7a0:
00001159 04             5542 	.byte	4
0000115a 496e745f4e76   5543 	.strz	"Int_NvMultiBlockStatus"
00001160 4d756c746942 
00001166 6c6f636b5374 
0000116c 6174757300 
00001171 9202           5544 	.byte	146,2
00001173 19             5545 	.byte	25
00001174 01             5546 	.byte	1
00001175 00000000*      5547 	.word	.LDW_54133b0
00001179 00             5548 	.byte	0
0000117a 00             5549 	.byte	0
0000117b 0273           5550 	.byte	2,115
0000117d 03             5551 	.byte	3
                        5552 
0000117e 00             5553 	.byte	0
                        5554 
0000117f 00             5555 	.byte	0
                        5556 
                        5557 .LDW_55137f8:
00001180 13             5558 	.byte	19
00001181 4d656d737461   5559 	.strz	"Memstack_WriteCategoryOnEvent"
00001187 636b5f577269 
0000118d 746543617465 
00001193 676f72794f6e 
00001199 4576656e7400 
0000119f c002           5560 	.byte	192,2
000011a1 0d             5561 	.byte	13
000011a2 01             5562 	.byte	1
000011a3 00000000*      5563 	.word	_Memstack_WriteCategoryOnEvent
000011a7 00000000*      5564 	.word	___ghs_eofn_Memstack_WriteCategoryOnEvent
000011ab 0153           5565 	.byte	1,83
000011ad 828080800a     5566 	.byte	130,128,128,128,10
000011b2 08             5567 	.byte	8
000011b3 03             5568 	.byte	3
000011b4 08             5569 	.byte	8
000011b5 00             5570 	.byte	0
000011b6 00             5571 	.byte	0

                                                                      Page 118
                                                              C:\Users\nhuliyap\AppData\Local\Temp\gh_00008cs1.s
000011b7 00             5572 	.byte	0
000011b8 01             5573 	.byte	1
000011b9 01             5574 	.byte	1
000011ba 00             5575 	.byte	0
000011bb 01             5576 	.byte	1
                        5577 
                        5578 	.section	.debug_frame
                        5579 .LDW_5589280:
00000128 00000000*      5580 	.word	.LDW_unq_10-.LDW_unq_f
                        5581 .LDW_unq_f:
0000012c 00000000*      5582 	.word	.LDW_545cc80
00000130 00000000*      5583 	.word	_Memstack_WriteCategoryOnEvent
00000134 00000000*      5584 	.word	___ghs_eofn_Memstack_WriteCategoryOnEvent-_Memstack_WriteCategoryOnEvent
00000138 44             5585 	.byte	68
00000139 9f             5586 	.byte	159
0000013a 00             5587 	.byte	0
0000013b 40             5588 	.byte	64
0000013c 9d             5589 	.byte	157
0000013d 04             5590 	.byte	4
0000013e 01             5591 	.byte	1
0000013f 00000000*      5592 	.word	.LDW32
00000143 00             5593 	.byte	0
                        5594 .LDW_unq_10:
                        5595 	.section	.debug_line
00001af4 000502         5596 	.byte	0,5,2
00001af7 00000000*      5597 	.word	_Memstack_WriteCategoryOnEvent
00001afb 03             5598 	.byte	3
00001afc bf02           5599 	.byte	191,2
00001afe 02             5600 	.byte	2
00001aff 00             5601 	.byte	0
00001b00 01             5602 	.byte	1
00001b01 06             5603 	.byte	6
00001b02 000502         5604 	.byte	0,5,2
00001b05 00000000*      5605 	.word	.LDWlin73
00001b09 0d             5606 	.byte	13
00001b0a 02             5607 	.byte	2
00001b0b 02             5608 	.byte	2
00001b0c 0c             5609 	.byte	12
00001b0d 000502         5610 	.byte	0,5,2
00001b10 00000000*      5611 	.word	.LDWlin74
00001b14 0b             5612 	.byte	11
00001b15 0b             5613 	.byte	11
00001b16 000502         5614 	.byte	0,5,2
00001b19 00000000*      5615 	.word	.LDWlin75
00001b1d 0b             5616 	.byte	11
00001b1e 0b             5617 	.byte	11
00001b1f 000502         5618 	.byte	0,5,2
00001b22 00000000*      5619 	.word	.LDWlin76
00001b26 0b             5620 	.byte	11
00001b27 1b             5621 	.byte	27
00001b28 000502         5622 	.byte	0,5,2
00001b2b 00000000*      5623 	.word	.LDWlin77
00001b2f 0b             5624 	.byte	11
00001b30 02             5625 	.byte	2
00001b31 00             5626 	.byte	0
00001b32 0b             5627 	.byte	11
00001b33 02             5628 	.byte	2
00001b34 00             5629 	.byte	0
00001b35 03             5630 	.byte	3
00001b36 76             5631 	.byte	118
00001b37 02             5632 	.byte	2

                                                                      Page 119
                                                              C:\Users\nhuliyap\AppData\Local\Temp\gh_00008cs1.s
00001b38 00             5633 	.byte	0
00001b39 01             5634 	.byte	1
00001b3a 000502         5635 	.byte	0,5,2
00001b3d 00000000*      5636 	.word	.LDWlin78
00001b41 03             5637 	.byte	3
00001b42 0b             5638 	.byte	11
00001b43 02             5639 	.byte	2
00001b44 00             5640 	.byte	0
00001b45 01             5641 	.byte	1
00001b46 0b             5642 	.byte	11
00001b47 02             5643 	.byte	2
00001b48 04             5644 	.byte	4
00001b49 000101         5645 	.byte	0,1,1
                        5646 	.section	.debug_info
                        5647 .LDW_553ee10:
000011bc 1d             5648 	.byte	29
000011bd 00000000*      5649 	.word	.LDW22
000011c1 00000000*      5650 	.word	.LDW32
                        5651 
                        5652 .LDW_553fd20:
000011c5 04             5653 	.byte	4
000011c6 6900           5654 	.strz	"i"
000011c8 c102           5655 	.byte	193,2
000011ca 09             5656 	.byte	9
000011cb 01             5657 	.byte	1
000011cc 00000000*      5658 	.word	.LDW_4c8e5a0
000011d0 00             5659 	.byte	0
000011d1 00             5660 	.byte	0
000011d2 0161           5661 	.byte	1,97
                        5662 
000011d4 00             5663 	.byte	0
                        5664 
000011d5 00             5665 	.byte	0
                        5666 
                        5667 .LDW_55139c0:
000011d6 13             5668 	.byte	19
000011d7 4d656d737461   5669 	.strz	"Memstack_DeleteDemBlocks"
000011dd 636b5f44656c 
000011e3 65746544656d 
000011e9 426c6f636b73 
000011ef 00 
000011f0 d102           5670 	.byte	209,2
000011f2 0d             5671 	.byte	13
000011f3 01             5672 	.byte	1
000011f4 00000000*      5673 	.word	_Memstack_DeleteDemBlocks
000011f8 00000000*      5674 	.word	___ghs_eofn_Memstack_DeleteDemBlocks
000011fc 0153           5675 	.byte	1,83
000011fe 02             5676 	.byte	2
000011ff 00             5677 	.byte	0
00001200 02             5678 	.byte	2
00001201 00             5679 	.byte	0
00001202 00             5680 	.byte	0
00001203 00             5681 	.byte	0
00001204 00             5682 	.byte	0
00001205 01             5683 	.byte	1
00001206 01             5684 	.byte	1
00001207 00             5685 	.byte	0
00001208 01             5686 	.byte	1
                        5687 
                        5688 	.section	.debug_frame
                        5689 .LDW_55892c0:

                                                                      Page 120
                                                              C:\Users\nhuliyap\AppData\Local\Temp\gh_00008cs1.s
00000144 00000000*      5690 	.word	.LDW_unq_12-.LDW_unq_11
                        5691 .LDW_unq_11:
00000148 00000000*      5692 	.word	.LDW_545cc80
0000014c 00000000*      5693 	.word	_Memstack_DeleteDemBlocks
00000150 00000000*      5694 	.word	___ghs_eofn_Memstack_DeleteDemBlocks-_Memstack_DeleteDemBlocks
00000154 01             5695 	.byte	1
00000155 00000000*      5696 	.word	.LDW52
00000159 00             5697 	.byte	0
0000015a 00             5698 	.byte	0
0000015b 00             5699 	.byte	0
                        5700 .LDW_unq_12:
                        5701 	.section	.debug_line
00001b4c 000502         5702 	.byte	0,5,2
00001b4f 00000000*      5703 	.word	_Memstack_DeleteDemBlocks
00001b53 06             5704 	.byte	6
00001b54 03             5705 	.byte	3
00001b55 da02           5706 	.byte	218,2
00001b57 02             5707 	.byte	2
00001b58 00             5708 	.byte	0
00001b59 01             5709 	.byte	1
00001b5a 02             5710 	.byte	2
00001b5b 02             5711 	.byte	2
00001b5c 000101         5712 	.byte	0,1,1
                        5713 	.section	.debug_info
                        5714 .LDW_553ec60:
00001209 1d             5715 	.byte	29
0000120a 00000000*      5716 	.word	.LDW42
0000120e 00000000*      5717 	.word	.LDW52
                        5718 
00001212 00             5719 	.byte	0
                        5720 
00001213 00             5721 	.byte	0
                        5722 
                        5723 .LDW_5513a58:
00001214 13             5724 	.byte	19
00001215 4d656d737461   5725 	.strz	"Memstack_Appl_JobEndCallback_CAT01"
0000121b 636b5f417070 
00001221 6c5f4a6f6245 
00001227 6e6443616c6c 
0000122d 6261636b5f43 
00001233 4154303100 
00001238 dd02           5726 	.byte	221,2
0000123a 0d             5727 	.byte	13
0000123b 01             5728 	.byte	1
0000123c 00000000*      5729 	.word	_Memstack_Appl_JobEndCallback_CAT01
00001240 00000000*      5730 	.word	___ghs_eofn_Memstack_Appl_JobEndCallback_CAT01
00001244 0153           5731 	.byte	1,83
00001246 8280808008     5732 	.byte	130,128,128,128,8
0000124b 04             5733 	.byte	4
0000124c 03             5734 	.byte	3
0000124d 08             5735 	.byte	8
0000124e 00             5736 	.byte	0
0000124f 00             5737 	.byte	0
00001250 00             5738 	.byte	0
00001251 01             5739 	.byte	1
00001252 01             5740 	.byte	1
00001253 00             5741 	.byte	0
00001254 01             5742 	.byte	1
                        5743 
                        5744 	.section	.debug_frame
                        5745 .LDW_5589300:

                                                                      Page 121
                                                              C:\Users\nhuliyap\AppData\Local\Temp\gh_00008cs1.s
0000015c 00000000*      5746 	.word	.LDW_unq_14-.LDW_unq_13
                        5747 .LDW_unq_13:
00000160 00000000*      5748 	.word	.LDW_545cc80
00000164 00000000*      5749 	.word	_Memstack_Appl_JobEndCallback_CAT01
00000168 00000000*      5750 	.word	___ghs_eofn_Memstack_Appl_JobEndCallback_CAT01-_Memstack_Appl_JobEndCallback_CAT01
0000016c 44             5751 	.byte	68
0000016d 9f             5752 	.byte	159
0000016e 03             5753 	.byte	3
0000016f 01             5754 	.byte	1
00000170 00000000*      5755 	.word	.LDW72
                        5756 .LDW_unq_14:
                        5757 	.section	.debug_line
00001b5f 000502         5758 	.byte	0,5,2
00001b62 00000000*      5759 	.word	_Memstack_Appl_JobEndCallback_CAT01
00001b66 03             5760 	.byte	3
00001b67 dc02           5761 	.byte	220,2
00001b69 02             5762 	.byte	2
00001b6a 00             5763 	.byte	0
00001b6b 01             5764 	.byte	1
00001b6c 06             5765 	.byte	6
00001b6d 1d             5766 	.byte	29
00001b6e 000502         5767 	.byte	0,5,2
00001b71 00000000*      5768 	.word	.LDWlin79
00001b75 0c             5769 	.byte	12
00001b76 000502         5770 	.byte	0,5,2
00001b79 00000000*      5771 	.word	.LDWlin80
00001b7d 0b             5772 	.byte	11
00001b7e 0b             5773 	.byte	11
00001b7f 1b             5774 	.byte	27
00001b80 02             5775 	.byte	2
00001b81 00             5776 	.byte	0
00001b82 0b             5777 	.byte	11
00001b83 02             5778 	.byte	2
00001b84 04             5779 	.byte	4
00001b85 000101         5780 	.byte	0,1,1
                        5781 	.section	.debug_info
                        5782 .LDW_553efc0:
00001255 1d             5783 	.byte	29
00001256 00000000*      5784 	.word	.LDW62
0000125a 00000000*      5785 	.word	.LDW72
                        5786 
                        5787 .LDW_5540458:
0000125e 04             5788 	.byte	4
0000125f 756352657175   5789 	.strz	"ucRequestResult"
00001265 657374526573 
0000126b 756c7400 
0000126f de02           5790 	.byte	222,2
00001271 19             5791 	.byte	25
00001272 01             5792 	.byte	1
00001273 00000000*      5793 	.word	.LDW_54133b0
00001277 00             5794 	.byte	0
00001278 00             5795 	.byte	0
00001279 0273           5796 	.byte	2,115
0000127b 03             5797 	.byte	3
                        5798 
0000127c 00             5799 	.byte	0
                        5800 
0000127d 00             5801 	.byte	0
                        5802 
                        5803 .LDW_5513af0:
0000127e 13             5804 	.byte	19

                                                                      Page 122
                                                              C:\Users\nhuliyap\AppData\Local\Temp\gh_00008cs1.s
0000127f 4d656d737461   5805 	.strz	"Memstack_Appl_JobEndCallback_CAT02"
00001285 636b5f417070 
0000128b 6c5f4a6f6245 
00001291 6e6443616c6c 
00001297 6261636b5f43 
0000129d 4154303200 
000012a2 e802           5806 	.byte	232,2
000012a4 0d             5807 	.byte	13
000012a5 01             5808 	.byte	1
000012a6 00000000*      5809 	.word	_Memstack_Appl_JobEndCallback_CAT02
000012aa 00000000*      5810 	.word	___ghs_eofn_Memstack_Appl_JobEndCallback_CAT02
000012ae 0153           5811 	.byte	1,83
000012b0 828080800a     5812 	.byte	130,128,128,128,10
000012b5 08             5813 	.byte	8
000012b6 03             5814 	.byte	3
000012b7 0c             5815 	.byte	12
000012b8 00             5816 	.byte	0
000012b9 00             5817 	.byte	0
000012ba 00             5818 	.byte	0
000012bb 01             5819 	.byte	1
000012bc 01             5820 	.byte	1
000012bd 00             5821 	.byte	0
000012be 01             5822 	.byte	1
                        5823 
                        5824 	.section	.debug_frame
                        5825 .LDW_55896c0:
00000174 00000000*      5826 	.word	.LDW_unq_16-.LDW_unq_15
                        5827 .LDW_unq_15:
00000178 00000000*      5828 	.word	.LDW_545cc80
0000017c 00000000*      5829 	.word	_Memstack_Appl_JobEndCallback_CAT02
00000180 00000000*      5830 	.word	___ghs_eofn_Memstack_Appl_JobEndCallback_CAT02-_Memstack_Appl_JobEndCallback_CAT02
00000184 44             5831 	.byte	68
00000185 9f             5832 	.byte	159
00000186 03             5833 	.byte	3
00000187 40             5834 	.byte	64
00000188 9d             5835 	.byte	157
00000189 07             5836 	.byte	7
0000018a 01             5837 	.byte	1
0000018b 00000000*      5838 	.word	.LDW92
0000018f 00             5839 	.byte	0
                        5840 .LDW_unq_16:
                        5841 	.section	.debug_line
00001b88 000502         5842 	.byte	0,5,2
00001b8b 00000000*      5843 	.word	_Memstack_Appl_JobEndCallback_CAT02
00001b8f 03             5844 	.byte	3
00001b90 e702           5845 	.byte	231,2
00001b92 02             5846 	.byte	2
00001b93 00             5847 	.byte	0
00001b94 01             5848 	.byte	1
00001b95 06             5849 	.byte	6
00001b96 000502         5850 	.byte	0,5,2
00001b99 00000000*      5851 	.word	.LDWlin81
00001b9d 0d             5852 	.byte	13
00001b9e 000502         5853 	.byte	0,5,2
00001ba1 00000000*      5854 	.word	.LDWlin82
00001ba5 0c             5855 	.byte	12
00001ba6 000502         5856 	.byte	0,5,2
00001ba9 00000000*      5857 	.word	.LDWlin83
00001bad 0b             5858 	.byte	11
00001bae 0b             5859 	.byte	11
00001baf 1b             5860 	.byte	27

                                                                      Page 123
                                                              C:\Users\nhuliyap\AppData\Local\Temp\gh_00008cs1.s
00001bb0 02             5861 	.byte	2
00001bb1 00             5862 	.byte	0
00001bb2 0b             5863 	.byte	11
00001bb3 02             5864 	.byte	2
00001bb4 04             5865 	.byte	4
00001bb5 000101         5866 	.byte	0,1,1
                        5867 	.section	.debug_info
                        5868 .LDW_553eea0:
000012bf 1d             5869 	.byte	29
000012c0 00000000*      5870 	.word	.LDW82
000012c4 00000000*      5871 	.word	.LDW92
                        5872 
                        5873 .LDW_55401f0:
000012c8 04             5874 	.byte	4
000012c9 756352657175   5875 	.strz	"ucRequestResult"
000012cf 657374526573 
000012d5 756c7400 
000012d9 e902           5876 	.byte	233,2
000012db 19             5877 	.byte	25
000012dc 01             5878 	.byte	1
000012dd 00000000*      5879 	.word	.LDW_54133b0
000012e1 00             5880 	.byte	0
000012e2 00             5881 	.byte	0
000012e3 0273           5882 	.byte	2,115
000012e5 03             5883 	.byte	3
                        5884 
000012e6 00             5885 	.byte	0
                        5886 
000012e7 00             5887 	.byte	0
                        5888 
                        5889 .LDW_5573d60:
000012e8 13             5890 	.byte	19
000012e9 4d656d737461   5891 	.strz	"Memstack_Appl_JobEndCallback_CAT03"
000012ef 636b5f417070 
000012f5 6c5f4a6f6245 
000012fb 6e6443616c6c 
00001301 6261636b5f43 
00001307 4154303300 
0000130c f302           5892 	.byte	243,2
0000130e 0d             5893 	.byte	13
0000130f 01             5894 	.byte	1
00001310 00000000*      5895 	.word	_Memstack_Appl_JobEndCallback_CAT03
00001314 00000000*      5896 	.word	___ghs_eofn_Memstack_Appl_JobEndCallback_CAT03
00001318 0153           5897 	.byte	1,83
0000131a 828080800a     5898 	.byte	130,128,128,128,10
0000131f 08             5899 	.byte	8
00001320 03             5900 	.byte	3
00001321 0c             5901 	.byte	12
00001322 00             5902 	.byte	0
00001323 00             5903 	.byte	0
00001324 00             5904 	.byte	0
00001325 01             5905 	.byte	1
00001326 01             5906 	.byte	1
00001327 00             5907 	.byte	0
00001328 01             5908 	.byte	1
                        5909 
                        5910 	.section	.debug_frame
                        5911 .LDW_510d7a0:
00000190 00000000*      5912 	.word	.LDW_unq_18-.LDW_unq_17
                        5913 .LDW_unq_17:
00000194 00000000*      5914 	.word	.LDW_545cc80

                                                                      Page 124
                                                              C:\Users\nhuliyap\AppData\Local\Temp\gh_00008cs1.s
00000198 00000000*      5915 	.word	_Memstack_Appl_JobEndCallback_CAT03
0000019c 00000000*      5916 	.word	___ghs_eofn_Memstack_Appl_JobEndCallback_CAT03-_Memstack_Appl_JobEndCallback_CAT03
000001a0 44             5917 	.byte	68
000001a1 9f             5918 	.byte	159
000001a2 03             5919 	.byte	3
000001a3 40             5920 	.byte	64
000001a4 9d             5921 	.byte	157
000001a5 07             5922 	.byte	7
000001a6 01             5923 	.byte	1
000001a7 00000000*      5924 	.word	.LDW13
000001ab 00             5925 	.byte	0
                        5926 .LDW_unq_18:
                        5927 	.section	.debug_line
00001bb8 000502         5928 	.byte	0,5,2
00001bbb 00000000*      5929 	.word	_Memstack_Appl_JobEndCallback_CAT03
00001bbf 03             5930 	.byte	3
00001bc0 f202           5931 	.byte	242,2
00001bc2 02             5932 	.byte	2
00001bc3 00             5933 	.byte	0
00001bc4 01             5934 	.byte	1
00001bc5 06             5935 	.byte	6
00001bc6 000502         5936 	.byte	0,5,2
00001bc9 00000000*      5937 	.word	.LDWlin84
00001bcd 0d             5938 	.byte	13
00001bce 000502         5939 	.byte	0,5,2
00001bd1 00000000*      5940 	.word	.LDWlin85
00001bd5 0c             5941 	.byte	12
00001bd6 000502         5942 	.byte	0,5,2
00001bd9 00000000*      5943 	.word	.LDWlin86
00001bdd 0b             5944 	.byte	11
00001bde 0b             5945 	.byte	11
00001bdf 1b             5946 	.byte	27
00001be0 02             5947 	.byte	2
00001be1 00             5948 	.byte	0
00001be2 0b             5949 	.byte	11
00001be3 02             5950 	.byte	2
00001be4 04             5951 	.byte	4
00001be5 000101         5952 	.byte	0,1,1
                        5953 	.section	.debug_info
                        5954 .LDW_553ef60:
00001329 1d             5955 	.byte	29
0000132a 00000000*      5956 	.word	.LDW03
0000132e 00000000*      5957 	.word	.LDW13
                        5958 
                        5959 .LDW_55404b0:
00001332 04             5960 	.byte	4
00001333 756352657175   5961 	.strz	"ucRequestResult"
00001339 657374526573 
0000133f 756c7400 
00001343 f402           5962 	.byte	244,2
00001345 19             5963 	.byte	25
00001346 01             5964 	.byte	1
00001347 00000000*      5965 	.word	.LDW_54133b0
0000134b 00             5966 	.byte	0
0000134c 00             5967 	.byte	0
0000134d 0273           5968 	.byte	2,115
0000134f 03             5969 	.byte	3
                        5970 
00001350 00             5971 	.byte	0
                        5972 
00001351 00             5973 	.byte	0

                                                                      Page 125
                                                              C:\Users\nhuliyap\AppData\Local\Temp\gh_00008cs1.s
                        5974 
                        5975 .LDW_5573df8:
00001352 13             5976 	.byte	19
00001353 4d656d737461   5977 	.strz	"Memstack_Appl_JobEndCallback_CAT04"
00001359 636b5f417070 
0000135f 6c5f4a6f6245 
00001365 6e6443616c6c 
0000136b 6261636b5f43 
00001371 4154303400 
00001376 fe02           5978 	.byte	254,2
00001378 0d             5979 	.byte	13
00001379 01             5980 	.byte	1
0000137a 00000000*      5981 	.word	_Memstack_Appl_JobEndCallback_CAT04
0000137e 00000000*      5982 	.word	___ghs_eofn_Memstack_Appl_JobEndCallback_CAT04
00001382 0153           5983 	.byte	1,83
00001384 828080800a     5984 	.byte	130,128,128,128,10
00001389 08             5985 	.byte	8
0000138a 03             5986 	.byte	3
0000138b 0c             5987 	.byte	12
0000138c 00             5988 	.byte	0
0000138d 00             5989 	.byte	0
0000138e 00             5990 	.byte	0
0000138f 01             5991 	.byte	1
00001390 01             5992 	.byte	1
00001391 00             5993 	.byte	0
00001392 01             5994 	.byte	1
                        5995 
                        5996 	.section	.debug_frame
                        5997 .LDW_510d720:
000001ac 00000000*      5998 	.word	.LDW_unq_1a-.LDW_unq_19
                        5999 .LDW_unq_19:
000001b0 00000000*      6000 	.word	.LDW_545cc80
000001b4 00000000*      6001 	.word	_Memstack_Appl_JobEndCallback_CAT04
000001b8 00000000*      6002 	.word	___ghs_eofn_Memstack_Appl_JobEndCallback_CAT04-_Memstack_Appl_JobEndCallback_CAT04
000001bc 44             6003 	.byte	68
000001bd 9f             6004 	.byte	159
000001be 03             6005 	.byte	3
000001bf 40             6006 	.byte	64
000001c0 9d             6007 	.byte	157
000001c1 07             6008 	.byte	7
000001c2 01             6009 	.byte	1
000001c3 00000000*      6010 	.word	.LDW33
000001c7 00             6011 	.byte	0
                        6012 .LDW_unq_1a:
                        6013 	.section	.debug_line
00001be8 000502         6014 	.byte	0,5,2
00001beb 00000000*      6015 	.word	_Memstack_Appl_JobEndCallback_CAT04
00001bef 03             6016 	.byte	3
00001bf0 fd02           6017 	.byte	253,2
00001bf2 02             6018 	.byte	2
00001bf3 00             6019 	.byte	0
00001bf4 01             6020 	.byte	1
00001bf5 06             6021 	.byte	6
00001bf6 000502         6022 	.byte	0,5,2
00001bf9 00000000*      6023 	.word	.LDWlin87
00001bfd 0d             6024 	.byte	13
00001bfe 000502         6025 	.byte	0,5,2
00001c01 00000000*      6026 	.word	.LDWlin88
00001c05 0c             6027 	.byte	12
00001c06 000502         6028 	.byte	0,5,2
00001c09 00000000*      6029 	.word	.LDWlin89

                                                                      Page 126
                                                              C:\Users\nhuliyap\AppData\Local\Temp\gh_00008cs1.s
00001c0d 0b             6030 	.byte	11
00001c0e 0b             6031 	.byte	11
00001c0f 1b             6032 	.byte	27
00001c10 02             6033 	.byte	2
00001c11 00             6034 	.byte	0
00001c12 0b             6035 	.byte	11
00001c13 02             6036 	.byte	2
00001c14 04             6037 	.byte	4
00001c15 000101         6038 	.byte	0,1,1
                        6039 	.section	.debug_info
                        6040 .LDW_553ef30:
00001393 1d             6041 	.byte	29
00001394 00000000*      6042 	.word	.LDW23
00001398 00000000*      6043 	.word	.LDW33
                        6044 
                        6045 .LDW_553fdd0:
0000139c 04             6046 	.byte	4
0000139d 756352657175   6047 	.strz	"ucRequestResult"
000013a3 657374526573 
000013a9 756c7400 
000013ad ff02           6048 	.byte	255,2
000013af 19             6049 	.byte	25
000013b0 01             6050 	.byte	1
000013b1 00000000*      6051 	.word	.LDW_54133b0
000013b5 00             6052 	.byte	0
000013b6 00             6053 	.byte	0
000013b7 0273           6054 	.byte	2,115
000013b9 03             6055 	.byte	3
                        6056 
000013ba 00             6057 	.byte	0
                        6058 
000013bb 00             6059 	.byte	0
                        6060 
                        6061 .LDW_55746e0:
000013bc 13             6062 	.byte	19
000013bd 4d656d737461   6063 	.strz	"Memstack_Appl_JobEndCallback_CAT05"
000013c3 636b5f417070 
000013c9 6c5f4a6f6245 
000013cf 6e6443616c6c 
000013d5 6261636b5f43 
000013db 4154303500 
000013e0 8903           6064 	.byte	137,3
000013e2 0d             6065 	.byte	13
000013e3 01             6066 	.byte	1
000013e4 00000000*      6067 	.word	_Memstack_Appl_JobEndCallback_CAT05
000013e8 00000000*      6068 	.word	___ghs_eofn_Memstack_Appl_JobEndCallback_CAT05
000013ec 0153           6069 	.byte	1,83
000013ee 828080800a     6070 	.byte	130,128,128,128,10
000013f3 08             6071 	.byte	8
000013f4 03             6072 	.byte	3
000013f5 0c             6073 	.byte	12
000013f6 00             6074 	.byte	0
000013f7 00             6075 	.byte	0
000013f8 00             6076 	.byte	0
000013f9 01             6077 	.byte	1
000013fa 01             6078 	.byte	1
000013fb 00             6079 	.byte	0
000013fc 01             6080 	.byte	1
                        6081 
                        6082 	.section	.debug_frame
                        6083 .LDW_510d2e0:

                                                                      Page 127
                                                              C:\Users\nhuliyap\AppData\Local\Temp\gh_00008cs1.s
000001c8 00000000*      6084 	.word	.LDW_unq_1c-.LDW_unq_1b
                        6085 .LDW_unq_1b:
000001cc 00000000*      6086 	.word	.LDW_545cc80
000001d0 00000000*      6087 	.word	_Memstack_Appl_JobEndCallback_CAT05
000001d4 00000000*      6088 	.word	___ghs_eofn_Memstack_Appl_JobEndCallback_CAT05-_Memstack_Appl_JobEndCallback_CAT05
000001d8 44             6089 	.byte	68
000001d9 9f             6090 	.byte	159
000001da 03             6091 	.byte	3
000001db 40             6092 	.byte	64
000001dc 9d             6093 	.byte	157
000001dd 07             6094 	.byte	7
000001de 01             6095 	.byte	1
000001df 00000000*      6096 	.word	.LDW53
000001e3 00             6097 	.byte	0
                        6098 .LDW_unq_1c:
                        6099 	.section	.debug_line
00001c18 000502         6100 	.byte	0,5,2
00001c1b 00000000*      6101 	.word	_Memstack_Appl_JobEndCallback_CAT05
00001c1f 03             6102 	.byte	3
00001c20 8803           6103 	.byte	136,3
00001c22 02             6104 	.byte	2
00001c23 00             6105 	.byte	0
00001c24 01             6106 	.byte	1
00001c25 06             6107 	.byte	6
00001c26 000502         6108 	.byte	0,5,2
00001c29 00000000*      6109 	.word	.LDWlin90
00001c2d 0d             6110 	.byte	13
00001c2e 000502         6111 	.byte	0,5,2
00001c31 00000000*      6112 	.word	.LDWlin91
00001c35 0c             6113 	.byte	12
00001c36 000502         6114 	.byte	0,5,2
00001c39 00000000*      6115 	.word	.LDWlin92
00001c3d 0b             6116 	.byte	11
00001c3e 0b             6117 	.byte	11
00001c3f 1b             6118 	.byte	27
00001c40 02             6119 	.byte	2
00001c41 00             6120 	.byte	0
00001c42 0b             6121 	.byte	11
00001c43 02             6122 	.byte	2
00001c44 04             6123 	.byte	4
00001c45 000101         6124 	.byte	0,1,1
                        6125 	.section	.debug_info
                        6126 .LDW_553ef90:
000013fd 1d             6127 	.byte	29
000013fe 00000000*      6128 	.word	.LDW43
00001402 00000000*      6129 	.word	.LDW53
                        6130 
                        6131 .LDW_553fc18:
00001406 04             6132 	.byte	4
00001407 756352657175   6133 	.strz	"ucRequestResult"
0000140d 657374526573 
00001413 756c7400 
00001417 8a03           6134 	.byte	138,3
00001419 19             6135 	.byte	25
0000141a 01             6136 	.byte	1
0000141b 00000000*      6137 	.word	.LDW_54133b0
0000141f 00             6138 	.byte	0
00001420 00             6139 	.byte	0
00001421 0273           6140 	.byte	2,115
00001423 03             6141 	.byte	3
                        6142 

                                                                      Page 128
                                                              C:\Users\nhuliyap\AppData\Local\Temp\gh_00008cs1.s
00001424 00             6143 	.byte	0
                        6144 
00001425 00             6145 	.byte	0
                        6146 
                        6147 .LDW_55743e8:
00001426 13             6148 	.byte	19
00001427 4d656d737461   6149 	.strz	"Memstack_Appl_JobEndCallback_CAT06"
0000142d 636b5f417070 
00001433 6c5f4a6f6245 
00001439 6e6443616c6c 
0000143f 6261636b5f43 
00001445 4154303600 
0000144a 9403           6150 	.byte	148,3
0000144c 0d             6151 	.byte	13
0000144d 01             6152 	.byte	1
0000144e 00000000*      6153 	.word	_Memstack_Appl_JobEndCallback_CAT06
00001452 00000000*      6154 	.word	___ghs_eofn_Memstack_Appl_JobEndCallback_CAT06
00001456 0153           6155 	.byte	1,83
00001458 828080800a     6156 	.byte	130,128,128,128,10
0000145d 08             6157 	.byte	8
0000145e 03             6158 	.byte	3
0000145f 0c             6159 	.byte	12
00001460 00             6160 	.byte	0
00001461 00             6161 	.byte	0
00001462 00             6162 	.byte	0
00001463 01             6163 	.byte	1
00001464 01             6164 	.byte	1
00001465 00             6165 	.byte	0
00001466 01             6166 	.byte	1
                        6167 
                        6168 	.section	.debug_frame
                        6169 .LDW_510d6a0:
000001e4 00000000*      6170 	.word	.LDW_unq_1e-.LDW_unq_1d
                        6171 .LDW_unq_1d:
000001e8 00000000*      6172 	.word	.LDW_545cc80
000001ec 00000000*      6173 	.word	_Memstack_Appl_JobEndCallback_CAT06
000001f0 00000000*      6174 	.word	___ghs_eofn_Memstack_Appl_JobEndCallback_CAT06-_Memstack_Appl_JobEndCallback_CAT06
000001f4 44             6175 	.byte	68
000001f5 9f             6176 	.byte	159
000001f6 03             6177 	.byte	3
000001f7 40             6178 	.byte	64
000001f8 9d             6179 	.byte	157
000001f9 07             6180 	.byte	7
000001fa 01             6181 	.byte	1
000001fb 00000000*      6182 	.word	.LDW73
000001ff 00             6183 	.byte	0
                        6184 .LDW_unq_1e:
                        6185 	.section	.debug_line
00001c48 000502         6186 	.byte	0,5,2
00001c4b 00000000*      6187 	.word	_Memstack_Appl_JobEndCallback_CAT06
00001c4f 03             6188 	.byte	3
00001c50 9303           6189 	.byte	147,3
00001c52 02             6190 	.byte	2
00001c53 00             6191 	.byte	0
00001c54 01             6192 	.byte	1
00001c55 06             6193 	.byte	6
00001c56 000502         6194 	.byte	0,5,2
00001c59 00000000*      6195 	.word	.LDWlin93
00001c5d 0d             6196 	.byte	13
00001c5e 000502         6197 	.byte	0,5,2
00001c61 00000000*      6198 	.word	.LDWlin94

                                                                      Page 129
                                                              C:\Users\nhuliyap\AppData\Local\Temp\gh_00008cs1.s
00001c65 0c             6199 	.byte	12
00001c66 000502         6200 	.byte	0,5,2
00001c69 00000000*      6201 	.word	.LDWlin95
00001c6d 0b             6202 	.byte	11
00001c6e 0b             6203 	.byte	11
00001c6f 1b             6204 	.byte	27
00001c70 02             6205 	.byte	2
00001c71 00             6206 	.byte	0
00001c72 0b             6207 	.byte	11
00001c73 02             6208 	.byte	2
00001c74 04             6209 	.byte	4
00001c75 000101         6210 	.byte	0,1,1
                        6211 	.section	.debug_info
                        6212 .LDW_553eed0:
00001467 1d             6213 	.byte	29
00001468 00000000*      6214 	.word	.LDW63
0000146c 00000000*      6215 	.word	.LDW73
                        6216 
                        6217 .LDW_553fd78:
00001470 04             6218 	.byte	4
00001471 756352657175   6219 	.strz	"ucRequestResult"
00001477 657374526573 
0000147d 756c7400 
00001481 9503           6220 	.byte	149,3
00001483 19             6221 	.byte	25
00001484 01             6222 	.byte	1
00001485 00000000*      6223 	.word	.LDW_54133b0
00001489 00             6224 	.byte	0
0000148a 00             6225 	.byte	0
0000148b 0273           6226 	.byte	2,115
0000148d 03             6227 	.byte	3
                        6228 
0000148e 00             6229 	.byte	0
                        6230 
0000148f 00             6231 	.byte	0
                        6232 
                        6233 .LDW_55740f0:
00001490 13             6234 	.byte	19
00001491 4d656d737461   6235 	.strz	"Memstack_Appl_JobEndCallback_CAT07"
00001497 636b5f417070 
0000149d 6c5f4a6f6245 
000014a3 6e6443616c6c 
000014a9 6261636b5f43 
000014af 4154303700 
000014b4 9f03           6236 	.byte	159,3
000014b6 0d             6237 	.byte	13
000014b7 01             6238 	.byte	1
000014b8 00000000*      6239 	.word	_Memstack_Appl_JobEndCallback_CAT07
000014bc 00000000*      6240 	.word	___ghs_eofn_Memstack_Appl_JobEndCallback_CAT07
000014c0 0153           6241 	.byte	1,83
000014c2 828080800a     6242 	.byte	130,128,128,128,10
000014c7 08             6243 	.byte	8
000014c8 03             6244 	.byte	3
000014c9 0c             6245 	.byte	12
000014ca 00             6246 	.byte	0
000014cb 00             6247 	.byte	0
000014cc 00             6248 	.byte	0
000014cd 01             6249 	.byte	1
000014ce 01             6250 	.byte	1
000014cf 00             6251 	.byte	0
000014d0 01             6252 	.byte	1

                                                                      Page 130
                                                              C:\Users\nhuliyap\AppData\Local\Temp\gh_00008cs1.s
                        6253 
                        6254 	.section	.debug_frame
                        6255 .LDW_510d560:
00000200 00000000*      6256 	.word	.LDW_unq_20-.LDW_unq_1f
                        6257 .LDW_unq_1f:
00000204 00000000*      6258 	.word	.LDW_545cc80
00000208 00000000*      6259 	.word	_Memstack_Appl_JobEndCallback_CAT07
0000020c 00000000*      6260 	.word	___ghs_eofn_Memstack_Appl_JobEndCallback_CAT07-_Memstack_Appl_JobEndCallback_CAT07
00000210 44             6261 	.byte	68
00000211 9f             6262 	.byte	159
00000212 03             6263 	.byte	3
00000213 40             6264 	.byte	64
00000214 9d             6265 	.byte	157
00000215 07             6266 	.byte	7
00000216 01             6267 	.byte	1
00000217 00000000*      6268 	.word	.LDW93
0000021b 00             6269 	.byte	0
                        6270 .LDW_unq_20:
                        6271 	.section	.debug_line
00001c78 000502         6272 	.byte	0,5,2
00001c7b 00000000*      6273 	.word	_Memstack_Appl_JobEndCallback_CAT07
00001c7f 03             6274 	.byte	3
00001c80 9e03           6275 	.byte	158,3
00001c82 02             6276 	.byte	2
00001c83 00             6277 	.byte	0
00001c84 01             6278 	.byte	1
00001c85 06             6279 	.byte	6
00001c86 000502         6280 	.byte	0,5,2
00001c89 00000000*      6281 	.word	.LDWlin96
00001c8d 0d             6282 	.byte	13
00001c8e 000502         6283 	.byte	0,5,2
00001c91 00000000*      6284 	.word	.LDWlin97
00001c95 0c             6285 	.byte	12
00001c96 000502         6286 	.byte	0,5,2
00001c99 00000000*      6287 	.word	.LDWlin98
00001c9d 0b             6288 	.byte	11
00001c9e 0b             6289 	.byte	11
00001c9f 1b             6290 	.byte	27
00001ca0 02             6291 	.byte	2
00001ca1 00             6292 	.byte	0
00001ca2 0b             6293 	.byte	11
00001ca3 02             6294 	.byte	2
00001ca4 04             6295 	.byte	4
00001ca5 000101         6296 	.byte	0,1,1
                        6297 	.section	.debug_info
                        6298 .LDW_553eff0:
000014d1 1d             6299 	.byte	29
000014d2 00000000*      6300 	.word	.LDW83
000014d6 00000000*      6301 	.word	.LDW93
                        6302 
                        6303 .LDW_55400e8:
000014da 04             6304 	.byte	4
000014db 756352657175   6305 	.strz	"ucRequestResult"
000014e1 657374526573 
000014e7 756c7400 
000014eb a003           6306 	.byte	160,3
000014ed 19             6307 	.byte	25
000014ee 01             6308 	.byte	1
000014ef 00000000*      6309 	.word	.LDW_54133b0
000014f3 00             6310 	.byte	0
000014f4 00             6311 	.byte	0

                                                                      Page 131
                                                              C:\Users\nhuliyap\AppData\Local\Temp\gh_00008cs1.s
000014f5 0273           6312 	.byte	2,115
000014f7 03             6313 	.byte	3
                        6314 
000014f8 00             6315 	.byte	0
                        6316 
000014f9 00             6317 	.byte	0
                        6318 
                        6319 .LDW_5573e90:
000014fa 13             6320 	.byte	19
000014fb 4d656d737461   6321 	.strz	"Memstack_Appl_JobEndCallback_CAT08"
00001501 636b5f417070 
00001507 6c5f4a6f6245 
0000150d 6e6443616c6c 
00001513 6261636b5f43 
00001519 4154303800 
0000151e aa03           6322 	.byte	170,3
00001520 0d             6323 	.byte	13
00001521 01             6324 	.byte	1
00001522 00000000*      6325 	.word	_Memstack_Appl_JobEndCallback_CAT08
00001526 00000000*      6326 	.word	___ghs_eofn_Memstack_Appl_JobEndCallback_CAT08
0000152a 0153           6327 	.byte	1,83
0000152c 828080800a     6328 	.byte	130,128,128,128,10
00001531 08             6329 	.byte	8
00001532 03             6330 	.byte	3
00001533 0c             6331 	.byte	12
00001534 00             6332 	.byte	0
00001535 00             6333 	.byte	0
00001536 00             6334 	.byte	0
00001537 01             6335 	.byte	1
00001538 01             6336 	.byte	1
00001539 00             6337 	.byte	0
0000153a 01             6338 	.byte	1
                        6339 
                        6340 	.section	.debug_frame
                        6341 .LDW_510d3e0:
0000021c 00000000*      6342 	.word	.LDW_unq_22-.LDW_unq_21
                        6343 .LDW_unq_21:
00000220 00000000*      6344 	.word	.LDW_545cc80
00000224 00000000*      6345 	.word	_Memstack_Appl_JobEndCallback_CAT08
00000228 00000000*      6346 	.word	___ghs_eofn_Memstack_Appl_JobEndCallback_CAT08-_Memstack_Appl_JobEndCallback_CAT08
0000022c 44             6347 	.byte	68
0000022d 9f             6348 	.byte	159
0000022e 03             6349 	.byte	3
0000022f 40             6350 	.byte	64
00000230 9d             6351 	.byte	157
00000231 07             6352 	.byte	7
00000232 01             6353 	.byte	1
00000233 00000000*      6354 	.word	.LDW14
00000237 00             6355 	.byte	0
                        6356 .LDW_unq_22:
                        6357 	.section	.debug_line
00001ca8 000502         6358 	.byte	0,5,2
00001cab 00000000*      6359 	.word	_Memstack_Appl_JobEndCallback_CAT08
00001caf 03             6360 	.byte	3
00001cb0 a903           6361 	.byte	169,3
00001cb2 02             6362 	.byte	2
00001cb3 00             6363 	.byte	0
00001cb4 01             6364 	.byte	1
00001cb5 06             6365 	.byte	6
00001cb6 000502         6366 	.byte	0,5,2
00001cb9 00000000*      6367 	.word	.LDWlin99

                                                                      Page 132
                                                              C:\Users\nhuliyap\AppData\Local\Temp\gh_00008cs1.s
00001cbd 0d             6368 	.byte	13
00001cbe 000502         6369 	.byte	0,5,2
00001cc1 00000000*      6370 	.word	.LDWlin100
00001cc5 0c             6371 	.byte	12
00001cc6 000502         6372 	.byte	0,5,2
00001cc9 00000000*      6373 	.word	.LDWlin101
00001ccd 0b             6374 	.byte	11
00001cce 0b             6375 	.byte	11
00001ccf 1b             6376 	.byte	27
00001cd0 02             6377 	.byte	2
00001cd1 00             6378 	.byte	0
00001cd2 0b             6379 	.byte	11
00001cd3 02             6380 	.byte	2
00001cd4 04             6381 	.byte	4
00001cd5 000101         6382 	.byte	0,1,1
                        6383 	.section	.debug_info
                        6384 .LDW_553ef00:
0000153b 1d             6385 	.byte	29
0000153c 00000000*      6386 	.word	.LDW04
00001540 00000000*      6387 	.word	.LDW14
                        6388 
                        6389 .LDW_553fe28:
00001544 04             6390 	.byte	4
00001545 756352657175   6391 	.strz	"ucRequestResult"
0000154b 657374526573 
00001551 756c7400 
00001555 ab03           6392 	.byte	171,3
00001557 19             6393 	.byte	25
00001558 01             6394 	.byte	1
00001559 00000000*      6395 	.word	.LDW_54133b0
0000155d 00             6396 	.byte	0
0000155e 00             6397 	.byte	0
0000155f 0273           6398 	.byte	2,115
00001561 03             6399 	.byte	3
                        6400 
00001562 00             6401 	.byte	0
                        6402 
00001563 00             6403 	.byte	0
                        6404 
                        6405 .LDW_5573f28:
00001564 13             6406 	.byte	19
00001565 4d656d737461   6407 	.strz	"Memstack_Appl_JobEndCallback_CAT09"
0000156b 636b5f417070 
00001571 6c5f4a6f6245 
00001577 6e6443616c6c 
0000157d 6261636b5f43 
00001583 4154303900 
00001588 b503           6408 	.byte	181,3
0000158a 0d             6409 	.byte	13
0000158b 01             6410 	.byte	1
0000158c 00000000*      6411 	.word	_Memstack_Appl_JobEndCallback_CAT09
00001590 00000000*      6412 	.word	___ghs_eofn_Memstack_Appl_JobEndCallback_CAT09
00001594 0153           6413 	.byte	1,83
00001596 828080800a     6414 	.byte	130,128,128,128,10
0000159b 08             6415 	.byte	8
0000159c 03             6416 	.byte	3
0000159d 0c             6417 	.byte	12
0000159e 00             6418 	.byte	0
0000159f 00             6419 	.byte	0
000015a0 00             6420 	.byte	0
000015a1 01             6421 	.byte	1

                                                                      Page 133
                                                              C:\Users\nhuliyap\AppData\Local\Temp\gh_00008cs1.s
000015a2 01             6422 	.byte	1
000015a3 00             6423 	.byte	0
000015a4 01             6424 	.byte	1
                        6425 
                        6426 	.section	.debug_frame
                        6427 .LDW_510d320:
00000238 00000000*      6428 	.word	.LDW_unq_24-.LDW_unq_23
                        6429 .LDW_unq_23:
0000023c 00000000*      6430 	.word	.LDW_545cc80
00000240 00000000*      6431 	.word	_Memstack_Appl_JobEndCallback_CAT09
00000244 00000000*      6432 	.word	___ghs_eofn_Memstack_Appl_JobEndCallback_CAT09-_Memstack_Appl_JobEndCallback_CAT09
00000248 44             6433 	.byte	68
00000249 9f             6434 	.byte	159
0000024a 03             6435 	.byte	3
0000024b 40             6436 	.byte	64
0000024c 9d             6437 	.byte	157
0000024d 07             6438 	.byte	7
0000024e 01             6439 	.byte	1
0000024f 00000000*      6440 	.word	.LDW34
00000253 00             6441 	.byte	0
                        6442 .LDW_unq_24:
                        6443 	.section	.debug_line
00001cd8 000502         6444 	.byte	0,5,2
00001cdb 00000000*      6445 	.word	_Memstack_Appl_JobEndCallback_CAT09
00001cdf 03             6446 	.byte	3
00001ce0 b403           6447 	.byte	180,3
00001ce2 02             6448 	.byte	2
00001ce3 00             6449 	.byte	0
00001ce4 01             6450 	.byte	1
00001ce5 06             6451 	.byte	6
00001ce6 000502         6452 	.byte	0,5,2
00001ce9 00000000*      6453 	.word	.LDWlin102
00001ced 0d             6454 	.byte	13
00001cee 000502         6455 	.byte	0,5,2
00001cf1 00000000*      6456 	.word	.LDWlin103
00001cf5 0c             6457 	.byte	12
00001cf6 000502         6458 	.byte	0,5,2
00001cf9 00000000*      6459 	.word	.LDWlin104
00001cfd 0b             6460 	.byte	11
00001cfe 0b             6461 	.byte	11
00001cff 1b             6462 	.byte	27
00001d00 02             6463 	.byte	2
00001d01 00             6464 	.byte	0
00001d02 0b             6465 	.byte	11
00001d03 02             6466 	.byte	2
00001d04 04             6467 	.byte	4
00001d05 000101         6468 	.byte	0,1,1
                        6469 	.section	.debug_info
                        6470 .LDW_553ee70:
000015a5 1d             6471 	.byte	29
000015a6 00000000*      6472 	.word	.LDW24
000015aa 00000000*      6473 	.word	.LDW34
                        6474 
                        6475 .LDW_55402a0:
000015ae 04             6476 	.byte	4
000015af 756352657175   6477 	.strz	"ucRequestResult"
000015b5 657374526573 
000015bb 756c7400 
000015bf b603           6478 	.byte	182,3
000015c1 19             6479 	.byte	25
000015c2 01             6480 	.byte	1

                                                                      Page 134
                                                              C:\Users\nhuliyap\AppData\Local\Temp\gh_00008cs1.s
000015c3 00000000*      6481 	.word	.LDW_54133b0
000015c7 00             6482 	.byte	0
000015c8 00             6483 	.byte	0
000015c9 0273           6484 	.byte	2,115
000015cb 03             6485 	.byte	3
                        6486 
000015cc 00             6487 	.byte	0
                        6488 
000015cd 00             6489 	.byte	0
                        6490 
                        6491 .LDW_5574220:
000015ce 13             6492 	.byte	19
000015cf 4d656d737461   6493 	.strz	"Memstack_Appl_JobEndCallback_CAT10"
000015d5 636b5f417070 
000015db 6c5f4a6f6245 
000015e1 6e6443616c6c 
000015e7 6261636b5f43 
000015ed 4154313000 
000015f2 c003           6494 	.byte	192,3
000015f4 0d             6495 	.byte	13
000015f5 01             6496 	.byte	1
000015f6 00000000*      6497 	.word	_Memstack_Appl_JobEndCallback_CAT10
000015fa 00000000*      6498 	.word	___ghs_eofn_Memstack_Appl_JobEndCallback_CAT10
000015fe 0153           6499 	.byte	1,83
00001600 828080800a     6500 	.byte	130,128,128,128,10
00001605 08             6501 	.byte	8
00001606 03             6502 	.byte	3
00001607 0c             6503 	.byte	12
00001608 00             6504 	.byte	0
00001609 00             6505 	.byte	0
0000160a 00             6506 	.byte	0
0000160b 01             6507 	.byte	1
0000160c 01             6508 	.byte	1
0000160d 00             6509 	.byte	0
0000160e 01             6510 	.byte	1
                        6511 
                        6512 	.section	.debug_frame
                        6513 .LDW_510d660:
00000254 00000000*      6514 	.word	.LDW_unq_26-.LDW_unq_25
                        6515 .LDW_unq_25:
00000258 00000000*      6516 	.word	.LDW_545cc80
0000025c 00000000*      6517 	.word	_Memstack_Appl_JobEndCallback_CAT10
00000260 00000000*      6518 	.word	___ghs_eofn_Memstack_Appl_JobEndCallback_CAT10-_Memstack_Appl_JobEndCallback_CAT10
00000264 44             6519 	.byte	68
00000265 9f             6520 	.byte	159
00000266 03             6521 	.byte	3
00000267 40             6522 	.byte	64
00000268 9d             6523 	.byte	157
00000269 07             6524 	.byte	7
0000026a 01             6525 	.byte	1
0000026b 00000000*      6526 	.word	.LDW54
0000026f 00             6527 	.byte	0
                        6528 .LDW_unq_26:
                        6529 	.section	.debug_line
00001d08 000502         6530 	.byte	0,5,2
00001d0b 00000000*      6531 	.word	_Memstack_Appl_JobEndCallback_CAT10
00001d0f 03             6532 	.byte	3
00001d10 bf03           6533 	.byte	191,3
00001d12 02             6534 	.byte	2
00001d13 00             6535 	.byte	0
00001d14 01             6536 	.byte	1

                                                                      Page 135
                                                              C:\Users\nhuliyap\AppData\Local\Temp\gh_00008cs1.s
00001d15 06             6537 	.byte	6
00001d16 000502         6538 	.byte	0,5,2
00001d19 00000000*      6539 	.word	.LDWlin105
00001d1d 0d             6540 	.byte	13
00001d1e 000502         6541 	.byte	0,5,2
00001d21 00000000*      6542 	.word	.LDWlin106
00001d25 0c             6543 	.byte	12
00001d26 000502         6544 	.byte	0,5,2
00001d29 00000000*      6545 	.word	.LDWlin107
00001d2d 0b             6546 	.byte	11
00001d2e 0b             6547 	.byte	11
00001d2f 1b             6548 	.byte	27
00001d30 02             6549 	.byte	2
00001d31 00             6550 	.byte	0
00001d32 0b             6551 	.byte	11
00001d33 02             6552 	.byte	2
00001d34 04             6553 	.byte	4
00001d35 000101         6554 	.byte	0,1,1
                        6555 	.section	.debug_info
                        6556 .LDW_553d5e0:
0000160f 1d             6557 	.byte	29
00001610 00000000*      6558 	.word	.LDW44
00001614 00000000*      6559 	.word	.LDW54
                        6560 
                        6561 .LDW_5540198:
00001618 04             6562 	.byte	4
00001619 756352657175   6563 	.strz	"ucRequestResult"
0000161f 657374526573 
00001625 756c7400 
00001629 c103           6564 	.byte	193,3
0000162b 19             6565 	.byte	25
0000162c 01             6566 	.byte	1
0000162d 00000000*      6567 	.word	.LDW_54133b0
00001631 00             6568 	.byte	0
00001632 00             6569 	.byte	0
00001633 0273           6570 	.byte	2,115
00001635 03             6571 	.byte	3
                        6572 
00001636 00             6573 	.byte	0
                        6574 
00001637 00             6575 	.byte	0
                        6576 
                        6577 .LDW_5573fc0:
00001638 13             6578 	.byte	19
00001639 4d656d737461   6579 	.strz	"Memstack_Appl_JobEndCallback_DemNvm_IdEvStatusByte"
0000163f 636b5f417070 
00001645 6c5f4a6f6245 
0000164b 6e6443616c6c 
00001651 6261636b5f44 
00001657 656d4e766d5f 
0000165d 496445765374 
00001663 617475734279 
00001669 746500 
0000166c cb03           6580 	.byte	203,3
0000166e 0d             6581 	.byte	13
0000166f 01             6582 	.byte	1
00001670 00000000*      6583 	.word	_Memstack_Appl_JobEndCallback_DemNvm_IdEvStatusByte
00001674 00000000*      6584 	.word	___ghs_eofn_Memstack_Appl_JobEndCallback_DemNvm_IdEvStatusByte
00001678 0153           6585 	.byte	1,83
0000167a 828080800a     6586 	.byte	130,128,128,128,10
0000167f 08             6587 	.byte	8

                                                                      Page 136
                                                              C:\Users\nhuliyap\AppData\Local\Temp\gh_00008cs1.s
00001680 03             6588 	.byte	3
00001681 0c             6589 	.byte	12
00001682 00             6590 	.byte	0
00001683 00             6591 	.byte	0
00001684 00             6592 	.byte	0
00001685 01             6593 	.byte	1
00001686 01             6594 	.byte	1
00001687 00             6595 	.byte	0
00001688 01             6596 	.byte	1
                        6597 
                        6598 	.section	.debug_frame
                        6599 .LDW_510d1a0:
00000270 00000000*      6600 	.word	.LDW_unq_28-.LDW_unq_27
                        6601 .LDW_unq_27:
00000274 00000000*      6602 	.word	.LDW_545cc80
00000278 00000000*      6603 	.word	_Memstack_Appl_JobEndCallback_DemNvm_IdEvStatusByte
0000027c 00000000*      6604 	.word	___ghs_eofn_Memstack_Appl_JobEndCallback_DemNvm_IdEvStatusByte-_Memstack_Appl_JobEndCallback_DemNvm_IdEvStatusByte
00000280 44             6605 	.byte	68
00000281 9f             6606 	.byte	159
00000282 03             6607 	.byte	3
00000283 40             6608 	.byte	64
00000284 9d             6609 	.byte	157
00000285 07             6610 	.byte	7
00000286 01             6611 	.byte	1
00000287 00000000*      6612 	.word	.LDW74
0000028b 00             6613 	.byte	0
                        6614 .LDW_unq_28:
                        6615 	.section	.debug_line
00001d38 000502         6616 	.byte	0,5,2
00001d3b 00000000*      6617 	.word	_Memstack_Appl_JobEndCallback_DemNvm_IdEvStatusByte
00001d3f 03             6618 	.byte	3
00001d40 ca03           6619 	.byte	202,3
00001d42 02             6620 	.byte	2
00001d43 00             6621 	.byte	0
00001d44 01             6622 	.byte	1
00001d45 06             6623 	.byte	6
00001d46 000502         6624 	.byte	0,5,2
00001d49 00000000*      6625 	.word	.LDWlin108
00001d4d 0d             6626 	.byte	13
00001d4e 000502         6627 	.byte	0,5,2
00001d51 00000000*      6628 	.word	.LDWlin109
00001d55 0c             6629 	.byte	12
00001d56 000502         6630 	.byte	0,5,2
00001d59 00000000*      6631 	.word	.LDWlin110
00001d5d 0b             6632 	.byte	11
00001d5e 0b             6633 	.byte	11
00001d5f 1b             6634 	.byte	27
00001d60 02             6635 	.byte	2
00001d61 00             6636 	.byte	0
00001d62 0b             6637 	.byte	11
00001d63 02             6638 	.byte	2
00001d64 04             6639 	.byte	4
00001d65 000101         6640 	.byte	0,1,1
                        6641 	.section	.debug_info
                        6642 .LDW_553d2b0:
00001689 1d             6643 	.byte	29
0000168a 00000000*      6644 	.word	.LDW64
0000168e 00000000*      6645 	.word	.LDW74
                        6646 
                        6647 .LDW_5540350:
00001692 04             6648 	.byte	4

                                                                      Page 137
                                                              C:\Users\nhuliyap\AppData\Local\Temp\gh_00008cs1.s
00001693 756352657175   6649 	.strz	"ucRequestResult"
00001699 657374526573 
0000169f 756c7400 
000016a3 cc03           6650 	.byte	204,3
000016a5 19             6651 	.byte	25
000016a6 01             6652 	.byte	1
000016a7 00000000*      6653 	.word	.LDW_54133b0
000016ab 00             6654 	.byte	0
000016ac 00             6655 	.byte	0
000016ad 0273           6656 	.byte	2,115
000016af 03             6657 	.byte	3
                        6658 
000016b0 00             6659 	.byte	0
                        6660 
000016b1 00             6661 	.byte	0
                        6662 
                        6663 .LDW_5574058:
000016b2 13             6664 	.byte	19
000016b3 4d656d737461   6665 	.strz	"Memstack_Appl_JobEndCallback_DemNvm_IdEvMemLoc0"
000016b9 636b5f417070 
000016bf 6c5f4a6f6245 
000016c5 6e6443616c6c 
000016cb 6261636b5f44 
000016d1 656d4e766d5f 
000016d7 496445764d65 
000016dd 6d4c6f633000 
000016e3 d603           6666 	.byte	214,3
000016e5 0d             6667 	.byte	13
000016e6 01             6668 	.byte	1
000016e7 00000000*      6669 	.word	_Memstack_Appl_JobEndCallback_DemNvm_IdEvMemLoc0
000016eb 00000000*      6670 	.word	___ghs_eofn_Memstack_Appl_JobEndCallback_DemNvm_IdEvMemLoc0
000016ef 0153           6671 	.byte	1,83
000016f1 828080800a     6672 	.byte	130,128,128,128,10
000016f6 08             6673 	.byte	8
000016f7 03             6674 	.byte	3
000016f8 0c             6675 	.byte	12
000016f9 00             6676 	.byte	0
000016fa 00             6677 	.byte	0
000016fb 00             6678 	.byte	0
000016fc 01             6679 	.byte	1
000016fd 01             6680 	.byte	1
000016fe 00             6681 	.byte	0
000016ff 01             6682 	.byte	1
                        6683 
                        6684 	.section	.debug_frame
                        6685 .LDW_510d1e0:
0000028c 00000000*      6686 	.word	.LDW_unq_2a-.LDW_unq_29
                        6687 .LDW_unq_29:
00000290 00000000*      6688 	.word	.LDW_545cc80
00000294 00000000*      6689 	.word	_Memstack_Appl_JobEndCallback_DemNvm_IdEvMemLoc0
00000298 00000000*      6690 	.word	___ghs_eofn_Memstack_Appl_JobEndCallback_DemNvm_IdEvMemLoc0-_Memstack_Appl_JobEndCallback_DemNvm_IdEvMemLoc0
0000029c 44             6691 	.byte	68
0000029d 9f             6692 	.byte	159
0000029e 03             6693 	.byte	3
0000029f 40             6694 	.byte	64
000002a0 9d             6695 	.byte	157
000002a1 07             6696 	.byte	7
000002a2 01             6697 	.byte	1
000002a3 00000000*      6698 	.word	.LDW94
000002a7 00             6699 	.byte	0
                        6700 .LDW_unq_2a:

                                                                      Page 138
                                                              C:\Users\nhuliyap\AppData\Local\Temp\gh_00008cs1.s
                        6701 	.section	.debug_line
00001d68 000502         6702 	.byte	0,5,2
00001d6b 00000000*      6703 	.word	_Memstack_Appl_JobEndCallback_DemNvm_IdEvMemLoc0
00001d6f 03             6704 	.byte	3
00001d70 d503           6705 	.byte	213,3
00001d72 02             6706 	.byte	2
00001d73 00             6707 	.byte	0
00001d74 01             6708 	.byte	1
00001d75 06             6709 	.byte	6
00001d76 000502         6710 	.byte	0,5,2
00001d79 00000000*      6711 	.word	.LDWlin111
00001d7d 0d             6712 	.byte	13
00001d7e 000502         6713 	.byte	0,5,2
00001d81 00000000*      6714 	.word	.LDWlin112
00001d85 0c             6715 	.byte	12
00001d86 000502         6716 	.byte	0,5,2
00001d89 00000000*      6717 	.word	.LDWlin113
00001d8d 0b             6718 	.byte	11
00001d8e 0b             6719 	.byte	11
00001d8f 1b             6720 	.byte	27
00001d90 02             6721 	.byte	2
00001d91 00             6722 	.byte	0
00001d92 0b             6723 	.byte	11
00001d93 02             6724 	.byte	2
00001d94 04             6725 	.byte	4
00001d95 000101         6726 	.byte	0,1,1
                        6727 	.section	.debug_info
                        6728 .LDW_553d5b0:
00001700 1d             6729 	.byte	29
00001701 00000000*      6730 	.word	.LDW84
00001705 00000000*      6731 	.word	.LDW94
                        6732 
                        6733 .LDW_553fbc0:
00001709 04             6734 	.byte	4
0000170a 756352657175   6735 	.strz	"ucRequestResult"
00001710 657374526573 
00001716 756c7400 
0000171a d703           6736 	.byte	215,3
0000171c 19             6737 	.byte	25
0000171d 01             6738 	.byte	1
0000171e 00000000*      6739 	.word	.LDW_54133b0
00001722 00             6740 	.byte	0
00001723 00             6741 	.byte	0
00001724 0273           6742 	.byte	2,115
00001726 03             6743 	.byte	3
                        6744 
00001727 00             6745 	.byte	0
                        6746 
00001728 00             6747 	.byte	0
                        6748 
                        6749 .LDW_5574188:
00001729 13             6750 	.byte	19
0000172a 4d656d737461   6751 	.strz	"Memstack_Appl_JobEndCallback_DemNvm_IdEvMemLoc1"
00001730 636b5f417070 
00001736 6c5f4a6f6245 
0000173c 6e6443616c6c 
00001742 6261636b5f44 
00001748 656d4e766d5f 
0000174e 496445764d65 
00001754 6d4c6f633100 
0000175a e103           6752 	.byte	225,3

                                                                      Page 139
                                                              C:\Users\nhuliyap\AppData\Local\Temp\gh_00008cs1.s
0000175c 0d             6753 	.byte	13
0000175d 01             6754 	.byte	1
0000175e 00000000*      6755 	.word	_Memstack_Appl_JobEndCallback_DemNvm_IdEvMemLoc1
00001762 00000000*      6756 	.word	___ghs_eofn_Memstack_Appl_JobEndCallback_DemNvm_IdEvMemLoc1
00001766 0153           6757 	.byte	1,83
00001768 828080800a     6758 	.byte	130,128,128,128,10
0000176d 08             6759 	.byte	8
0000176e 03             6760 	.byte	3
0000176f 0c             6761 	.byte	12
00001770 00             6762 	.byte	0
00001771 00             6763 	.byte	0
00001772 00             6764 	.byte	0
00001773 01             6765 	.byte	1
00001774 01             6766 	.byte	1
00001775 00             6767 	.byte	0
00001776 01             6768 	.byte	1
                        6769 
                        6770 	.section	.debug_frame
                        6771 .LDW_510d5a0:
000002a8 00000000*      6772 	.word	.LDW_unq_2c-.LDW_unq_2b
                        6773 .LDW_unq_2b:
000002ac 00000000*      6774 	.word	.LDW_545cc80
000002b0 00000000*      6775 	.word	_Memstack_Appl_JobEndCallback_DemNvm_IdEvMemLoc1
000002b4 00000000*      6776 	.word	___ghs_eofn_Memstack_Appl_JobEndCallback_DemNvm_IdEvMemLoc1-_Memstack_Appl_JobEndCallback_DemNvm_IdEvMemLoc1
000002b8 44             6777 	.byte	68
000002b9 9f             6778 	.byte	159
000002ba 03             6779 	.byte	3
000002bb 40             6780 	.byte	64
000002bc 9d             6781 	.byte	157
000002bd 07             6782 	.byte	7
000002be 01             6783 	.byte	1
000002bf 00000000*      6784 	.word	.LDW15
000002c3 00             6785 	.byte	0
                        6786 .LDW_unq_2c:
                        6787 	.section	.debug_line
00001d98 000502         6788 	.byte	0,5,2
00001d9b 00000000*      6789 	.word	_Memstack_Appl_JobEndCallback_DemNvm_IdEvMemLoc1
00001d9f 03             6790 	.byte	3
00001da0 e003           6791 	.byte	224,3
00001da2 02             6792 	.byte	2
00001da3 00             6793 	.byte	0
00001da4 01             6794 	.byte	1
00001da5 06             6795 	.byte	6
00001da6 000502         6796 	.byte	0,5,2
00001da9 00000000*      6797 	.word	.LDWlin114
00001dad 0d             6798 	.byte	13
00001dae 000502         6799 	.byte	0,5,2
00001db1 00000000*      6800 	.word	.LDWlin115
00001db5 0c             6801 	.byte	12
00001db6 000502         6802 	.byte	0,5,2
00001db9 00000000*      6803 	.word	.LDWlin116
00001dbd 0b             6804 	.byte	11
00001dbe 0b             6805 	.byte	11
00001dbf 1b             6806 	.byte	27
00001dc0 02             6807 	.byte	2
00001dc1 00             6808 	.byte	0
00001dc2 0b             6809 	.byte	11
00001dc3 02             6810 	.byte	2
00001dc4 04             6811 	.byte	4
00001dc5 000101         6812 	.byte	0,1,1
                        6813 	.section	.debug_info

                                                                      Page 140
                                                              C:\Users\nhuliyap\AppData\Local\Temp\gh_00008cs1.s
                        6814 .LDW_553d640:
00001777 1d             6815 	.byte	29
00001778 00000000*      6816 	.word	.LDW05
0000177c 00000000*      6817 	.word	.LDW15
                        6818 
                        6819 .LDW_553fe80:
00001780 04             6820 	.byte	4
00001781 756352657175   6821 	.strz	"ucRequestResult"
00001787 657374526573 
0000178d 756c7400 
00001791 e203           6822 	.byte	226,3
00001793 19             6823 	.byte	25
00001794 01             6824 	.byte	1
00001795 00000000*      6825 	.word	.LDW_54133b0
00001799 00             6826 	.byte	0
0000179a 00             6827 	.byte	0
0000179b 0273           6828 	.byte	2,115
0000179d 03             6829 	.byte	3
                        6830 
0000179e 00             6831 	.byte	0
                        6832 
0000179f 00             6833 	.byte	0
                        6834 
                        6835 .LDW_5574648:
000017a0 13             6836 	.byte	19
000017a1 4d656d737461   6837 	.strz	"Memstack_Appl_JobEndCallback_DemNvm_IdEvMemLoc2"
000017a7 636b5f417070 
000017ad 6c5f4a6f6245 
000017b3 6e6443616c6c 
000017b9 6261636b5f44 
000017bf 656d4e766d5f 
000017c5 496445764d65 
000017cb 6d4c6f633200 
000017d1 ec03           6838 	.byte	236,3
000017d3 0d             6839 	.byte	13
000017d4 01             6840 	.byte	1
000017d5 00000000*      6841 	.word	_Memstack_Appl_JobEndCallback_DemNvm_IdEvMemLoc2
000017d9 00000000*      6842 	.word	___ghs_eofn_Memstack_Appl_JobEndCallback_DemNvm_IdEvMemLoc2
000017dd 0153           6843 	.byte	1,83
000017df 828080800a     6844 	.byte	130,128,128,128,10
000017e4 08             6845 	.byte	8
000017e5 03             6846 	.byte	3
000017e6 0c             6847 	.byte	12
000017e7 00             6848 	.byte	0
000017e8 00             6849 	.byte	0
000017e9 00             6850 	.byte	0
000017ea 01             6851 	.byte	1
000017eb 01             6852 	.byte	1
000017ec 00             6853 	.byte	0
000017ed 01             6854 	.byte	1
                        6855 
                        6856 	.section	.debug_frame
                        6857 .LDW_510d760:
000002c4 00000000*      6858 	.word	.LDW_unq_2e-.LDW_unq_2d
                        6859 .LDW_unq_2d:
000002c8 00000000*      6860 	.word	.LDW_545cc80
000002cc 00000000*      6861 	.word	_Memstack_Appl_JobEndCallback_DemNvm_IdEvMemLoc2
000002d0 00000000*      6862 	.word	___ghs_eofn_Memstack_Appl_JobEndCallback_DemNvm_IdEvMemLoc2-_Memstack_Appl_JobEndCallback_DemNvm_IdEvMemLoc2
000002d4 44             6863 	.byte	68
000002d5 9f             6864 	.byte	159
000002d6 03             6865 	.byte	3

                                                                      Page 141
                                                              C:\Users\nhuliyap\AppData\Local\Temp\gh_00008cs1.s
000002d7 40             6866 	.byte	64
000002d8 9d             6867 	.byte	157
000002d9 07             6868 	.byte	7
000002da 01             6869 	.byte	1
000002db 00000000*      6870 	.word	.LDW35
000002df 00             6871 	.byte	0
                        6872 .LDW_unq_2e:
                        6873 	.section	.debug_line
00001dc8 000502         6874 	.byte	0,5,2
00001dcb 00000000*      6875 	.word	_Memstack_Appl_JobEndCallback_DemNvm_IdEvMemLoc2
00001dcf 03             6876 	.byte	3
00001dd0 eb03           6877 	.byte	235,3
00001dd2 02             6878 	.byte	2
00001dd3 00             6879 	.byte	0
00001dd4 01             6880 	.byte	1
00001dd5 06             6881 	.byte	6
00001dd6 000502         6882 	.byte	0,5,2
00001dd9 00000000*      6883 	.word	.LDWlin117
00001ddd 0d             6884 	.byte	13
00001dde 000502         6885 	.byte	0,5,2
00001de1 00000000*      6886 	.word	.LDWlin118
00001de5 0c             6887 	.byte	12
00001de6 000502         6888 	.byte	0,5,2
00001de9 00000000*      6889 	.word	.LDWlin119
00001ded 0b             6890 	.byte	11
00001dee 0b             6891 	.byte	11
00001def 1b             6892 	.byte	27
00001df0 02             6893 	.byte	2
00001df1 00             6894 	.byte	0
00001df2 0b             6895 	.byte	11
00001df3 02             6896 	.byte	2
00001df4 04             6897 	.byte	4
00001df5 000101         6898 	.byte	0,1,1
                        6899 	.section	.debug_info
                        6900 .LDW_553d610:
000017ee 1d             6901 	.byte	29
000017ef 00000000*      6902 	.word	.LDW25
000017f3 00000000*      6903 	.word	.LDW35
                        6904 
                        6905 .LDW_553ff30:
000017f7 04             6906 	.byte	4
000017f8 756352657175   6907 	.strz	"ucRequestResult"
000017fe 657374526573 
00001804 756c7400 
00001808 ed03           6908 	.byte	237,3
0000180a 19             6909 	.byte	25
0000180b 01             6910 	.byte	1
0000180c 00000000*      6911 	.word	.LDW_54133b0
00001810 00             6912 	.byte	0
00001811 00             6913 	.byte	0
00001812 0273           6914 	.byte	2,115
00001814 03             6915 	.byte	3
                        6916 
00001815 00             6917 	.byte	0
                        6918 
00001816 00             6919 	.byte	0
                        6920 
                        6921 .LDW_5573b98:
00001817 13             6922 	.byte	19
00001818 4d656d737461   6923 	.strz	"Memstack_Appl_JobEndCallback_DemNvm_IdEvMemLoc3"
0000181e 636b5f417070 

                                                                      Page 142
                                                              C:\Users\nhuliyap\AppData\Local\Temp\gh_00008cs1.s
00001824 6c5f4a6f6245 
0000182a 6e6443616c6c 
00001830 6261636b5f44 
00001836 656d4e766d5f 
0000183c 496445764d65 
00001842 6d4c6f633300 
00001848 f703           6924 	.byte	247,3
0000184a 0d             6925 	.byte	13
0000184b 01             6926 	.byte	1
0000184c 00000000*      6927 	.word	_Memstack_Appl_JobEndCallback_DemNvm_IdEvMemLoc3
00001850 00000000*      6928 	.word	___ghs_eofn_Memstack_Appl_JobEndCallback_DemNvm_IdEvMemLoc3
00001854 0153           6929 	.byte	1,83
00001856 828080800a     6930 	.byte	130,128,128,128,10
0000185b 08             6931 	.byte	8
0000185c 03             6932 	.byte	3
0000185d 0c             6933 	.byte	12
0000185e 00             6934 	.byte	0
0000185f 00             6935 	.byte	0
00001860 00             6936 	.byte	0
00001861 01             6937 	.byte	1
00001862 01             6938 	.byte	1
00001863 00             6939 	.byte	0
00001864 01             6940 	.byte	1
                        6941 
                        6942 	.section	.debug_frame
                        6943 .LDW_510d6e0:
000002e0 00000000*      6944 	.word	.LDW_unq_30-.LDW_unq_2f
                        6945 .LDW_unq_2f:
000002e4 00000000*      6946 	.word	.LDW_545cc80
000002e8 00000000*      6947 	.word	_Memstack_Appl_JobEndCallback_DemNvm_IdEvMemLoc3
000002ec 00000000*      6948 	.word	___ghs_eofn_Memstack_Appl_JobEndCallback_DemNvm_IdEvMemLoc3-_Memstack_Appl_JobEndCallback_DemNvm_IdEvMemLoc3
000002f0 44             6949 	.byte	68
000002f1 9f             6950 	.byte	159
000002f2 03             6951 	.byte	3
000002f3 40             6952 	.byte	64
000002f4 9d             6953 	.byte	157
000002f5 07             6954 	.byte	7
000002f6 01             6955 	.byte	1
000002f7 00000000*      6956 	.word	.LDW55
000002fb 00             6957 	.byte	0
                        6958 .LDW_unq_30:
                        6959 	.section	.debug_line
00001df8 000502         6960 	.byte	0,5,2
00001dfb 00000000*      6961 	.word	_Memstack_Appl_JobEndCallback_DemNvm_IdEvMemLoc3
00001dff 03             6962 	.byte	3
00001e00 f603           6963 	.byte	246,3
00001e02 02             6964 	.byte	2
00001e03 00             6965 	.byte	0
00001e04 01             6966 	.byte	1
00001e05 06             6967 	.byte	6
00001e06 000502         6968 	.byte	0,5,2
00001e09 00000000*      6969 	.word	.LDWlin120
00001e0d 0d             6970 	.byte	13
00001e0e 000502         6971 	.byte	0,5,2
00001e11 00000000*      6972 	.word	.LDWlin121
00001e15 0c             6973 	.byte	12
00001e16 000502         6974 	.byte	0,5,2
00001e19 00000000*      6975 	.word	.LDWlin122
00001e1d 0b             6976 	.byte	11
00001e1e 0b             6977 	.byte	11
00001e1f 1b             6978 	.byte	27

                                                                      Page 143
                                                              C:\Users\nhuliyap\AppData\Local\Temp\gh_00008cs1.s
00001e20 02             6979 	.byte	2
00001e21 00             6980 	.byte	0
00001e22 0b             6981 	.byte	11
00001e23 02             6982 	.byte	2
00001e24 04             6983 	.byte	4
00001e25 000101         6984 	.byte	0,1,1
                        6985 	.section	.debug_info
                        6986 .LDW_553d070:
00001865 1d             6987 	.byte	29
00001866 00000000*      6988 	.word	.LDW45
0000186a 00000000*      6989 	.word	.LDW55
                        6990 
                        6991 .LDW_553fc70:
0000186e 04             6992 	.byte	4
0000186f 756352657175   6993 	.strz	"ucRequestResult"
00001875 657374526573 
0000187b 756c7400 
0000187f f803           6994 	.byte	248,3
00001881 19             6995 	.byte	25
00001882 01             6996 	.byte	1
00001883 00000000*      6997 	.word	.LDW_54133b0
00001887 00             6998 	.byte	0
00001888 00             6999 	.byte	0
00001889 0273           7000 	.byte	2,115
0000188b 03             7001 	.byte	3
                        7002 
0000188c 00             7003 	.byte	0
                        7004 
0000188d 00             7005 	.byte	0
                        7006 
                        7007 .LDW_55742b8:
0000188e 13             7008 	.byte	19
0000188f 4d656d737461   7009 	.strz	"Memstack_Appl_JobEndCallback_DemNvm_IdEvMemLoc4"
00001895 636b5f417070 
0000189b 6c5f4a6f6245 
000018a1 6e6443616c6c 
000018a7 6261636b5f44 
000018ad 656d4e766d5f 
000018b3 496445764d65 
000018b9 6d4c6f633400 
000018bf 8204           7010 	.byte	130,4
000018c1 0d             7011 	.byte	13
000018c2 01             7012 	.byte	1
000018c3 00000000*      7013 	.word	_Memstack_Appl_JobEndCallback_DemNvm_IdEvMemLoc4
000018c7 00000000*      7014 	.word	___ghs_eofn_Memstack_Appl_JobEndCallback_DemNvm_IdEvMemLoc4
000018cb 0153           7015 	.byte	1,83
000018cd 828080800a     7016 	.byte	130,128,128,128,10
000018d2 08             7017 	.byte	8
000018d3 03             7018 	.byte	3
000018d4 0c             7019 	.byte	12
000018d5 00             7020 	.byte	0
000018d6 00             7021 	.byte	0
000018d7 00             7022 	.byte	0
000018d8 01             7023 	.byte	1
000018d9 01             7024 	.byte	1
000018da 00             7025 	.byte	0
000018db 01             7026 	.byte	1
                        7027 
                        7028 	.section	.debug_frame
                        7029 .LDW_510d7e0:
000002fc 00000000*      7030 	.word	.LDW_unq_32-.LDW_unq_31

                                                                      Page 144
                                                              C:\Users\nhuliyap\AppData\Local\Temp\gh_00008cs1.s
                        7031 .LDW_unq_31:
00000300 00000000*      7032 	.word	.LDW_545cc80
00000304 00000000*      7033 	.word	_Memstack_Appl_JobEndCallback_DemNvm_IdEvMemLoc4
00000308 00000000*      7034 	.word	___ghs_eofn_Memstack_Appl_JobEndCallback_DemNvm_IdEvMemLoc4-_Memstack_Appl_JobEndCallback_DemNvm_IdEvMemLoc4
0000030c 44             7035 	.byte	68
0000030d 9f             7036 	.byte	159
0000030e 03             7037 	.byte	3
0000030f 40             7038 	.byte	64
00000310 9d             7039 	.byte	157
00000311 07             7040 	.byte	7
00000312 01             7041 	.byte	1
00000313 00000000*      7042 	.word	.LDW75
00000317 00             7043 	.byte	0
                        7044 .LDW_unq_32:
                        7045 	.section	.debug_line
00001e28 000502         7046 	.byte	0,5,2
00001e2b 00000000*      7047 	.word	_Memstack_Appl_JobEndCallback_DemNvm_IdEvMemLoc4
00001e2f 03             7048 	.byte	3
00001e30 8104           7049 	.byte	129,4
00001e32 02             7050 	.byte	2
00001e33 00             7051 	.byte	0
00001e34 01             7052 	.byte	1
00001e35 06             7053 	.byte	6
00001e36 000502         7054 	.byte	0,5,2
00001e39 00000000*      7055 	.word	.LDWlin123
00001e3d 0d             7056 	.byte	13
00001e3e 000502         7057 	.byte	0,5,2
00001e41 00000000*      7058 	.word	.LDWlin124
00001e45 0c             7059 	.byte	12
00001e46 000502         7060 	.byte	0,5,2
00001e49 00000000*      7061 	.word	.LDWlin125
00001e4d 0b             7062 	.byte	11
00001e4e 0b             7063 	.byte	11
00001e4f 1b             7064 	.byte	27
00001e50 02             7065 	.byte	2
00001e51 00             7066 	.byte	0
00001e52 0b             7067 	.byte	11
00001e53 02             7068 	.byte	2
00001e54 04             7069 	.byte	4
00001e55 000101         7070 	.byte	0,1,1
                        7071 	.section	.debug_info
                        7072 .LDW_553d190:
000018dc 1d             7073 	.byte	29
000018dd 00000000*      7074 	.word	.LDW65
000018e1 00000000*      7075 	.word	.LDW75
                        7076 
                        7077 .LDW_553fcc8:
000018e5 04             7078 	.byte	4
000018e6 756352657175   7079 	.strz	"ucRequestResult"
000018ec 657374526573 
000018f2 756c7400 
000018f6 8304           7080 	.byte	131,4
000018f8 19             7081 	.byte	25
000018f9 01             7082 	.byte	1
000018fa 00000000*      7083 	.word	.LDW_54133b0
000018fe 00             7084 	.byte	0
000018ff 00             7085 	.byte	0
00001900 0273           7086 	.byte	2,115
00001902 03             7087 	.byte	3
                        7088 
00001903 00             7089 	.byte	0

                                                                      Page 145
                                                              C:\Users\nhuliyap\AppData\Local\Temp\gh_00008cs1.s
                        7090 
00001904 00             7091 	.byte	0
                        7092 
                        7093 .LDW_5574350:
00001905 13             7094 	.byte	19
00001906 4d656d737461   7095 	.strz	"Memstack_Appl_JobEndCallback_DemNvm_IdEvMemLoc5"
0000190c 636b5f417070 
00001912 6c5f4a6f6245 
00001918 6e6443616c6c 
0000191e 6261636b5f44 
00001924 656d4e766d5f 
0000192a 496445764d65 
00001930 6d4c6f633500 
00001936 8d04           7096 	.byte	141,4
00001938 0d             7097 	.byte	13
00001939 01             7098 	.byte	1
0000193a 00000000*      7099 	.word	_Memstack_Appl_JobEndCallback_DemNvm_IdEvMemLoc5
0000193e 00000000*      7100 	.word	___ghs_eofn_Memstack_Appl_JobEndCallback_DemNvm_IdEvMemLoc5
00001942 0153           7101 	.byte	1,83
00001944 828080800a     7102 	.byte	130,128,128,128,10
00001949 08             7103 	.byte	8
0000194a 03             7104 	.byte	3
0000194b 0c             7105 	.byte	12
0000194c 00             7106 	.byte	0
0000194d 00             7107 	.byte	0
0000194e 00             7108 	.byte	0
0000194f 01             7109 	.byte	1
00001950 01             7110 	.byte	1
00001951 00             7111 	.byte	0
00001952 01             7112 	.byte	1
                        7113 
                        7114 	.section	.debug_frame
                        7115 .LDW_510d820:
00000318 00000000*      7116 	.word	.LDW_unq_34-.LDW_unq_33
                        7117 .LDW_unq_33:
0000031c 00000000*      7118 	.word	.LDW_545cc80
00000320 00000000*      7119 	.word	_Memstack_Appl_JobEndCallback_DemNvm_IdEvMemLoc5
00000324 00000000*      7120 	.word	___ghs_eofn_Memstack_Appl_JobEndCallback_DemNvm_IdEvMemLoc5-_Memstack_Appl_JobEndCallback_DemNvm_IdEvMemLoc5
00000328 44             7121 	.byte	68
00000329 9f             7122 	.byte	159
0000032a 03             7123 	.byte	3
0000032b 40             7124 	.byte	64
0000032c 9d             7125 	.byte	157
0000032d 07             7126 	.byte	7
0000032e 01             7127 	.byte	1
0000032f 00000000*      7128 	.word	.LDW95
00000333 00             7129 	.byte	0
                        7130 .LDW_unq_34:
                        7131 	.section	.debug_line
00001e58 000502         7132 	.byte	0,5,2
00001e5b 00000000*      7133 	.word	_Memstack_Appl_JobEndCallback_DemNvm_IdEvMemLoc5
00001e5f 03             7134 	.byte	3
00001e60 8c04           7135 	.byte	140,4
00001e62 02             7136 	.byte	2
00001e63 00             7137 	.byte	0
00001e64 01             7138 	.byte	1
00001e65 06             7139 	.byte	6
00001e66 000502         7140 	.byte	0,5,2
00001e69 00000000*      7141 	.word	.LDWlin126
00001e6d 0d             7142 	.byte	13
00001e6e 000502         7143 	.byte	0,5,2

                                                                      Page 146
                                                              C:\Users\nhuliyap\AppData\Local\Temp\gh_00008cs1.s
00001e71 00000000*      7144 	.word	.LDWlin127
00001e75 0c             7145 	.byte	12
00001e76 000502         7146 	.byte	0,5,2
00001e79 00000000*      7147 	.word	.LDWlin128
00001e7d 0b             7148 	.byte	11
00001e7e 0b             7149 	.byte	11
00001e7f 1b             7150 	.byte	27
00001e80 02             7151 	.byte	2
00001e81 00             7152 	.byte	0
00001e82 0b             7153 	.byte	11
00001e83 02             7154 	.byte	2
00001e84 04             7155 	.byte	4
00001e85 000101         7156 	.byte	0,1,1
                        7157 	.section	.debug_info
                        7158 .LDW_553d520:
00001953 1d             7159 	.byte	29
00001954 00000000*      7160 	.word	.LDW85
00001958 00000000*      7161 	.word	.LDW95
                        7162 
                        7163 .LDW_553fed8:
0000195c 04             7164 	.byte	4
0000195d 756352657175   7165 	.strz	"ucRequestResult"
00001963 657374526573 
00001969 756c7400 
0000196d 8e04           7166 	.byte	142,4
0000196f 19             7167 	.byte	25
00001970 01             7168 	.byte	1
00001971 00000000*      7169 	.word	.LDW_54133b0
00001975 00             7170 	.byte	0
00001976 00             7171 	.byte	0
00001977 0273           7172 	.byte	2,115
00001979 03             7173 	.byte	3
                        7174 
0000197a 00             7175 	.byte	0
                        7176 
0000197b 00             7177 	.byte	0
                        7178 
                        7179 .LDW_5574480:
0000197c 13             7180 	.byte	19
0000197d 4d656d737461   7181 	.strz	"Memstack_Appl_JobEndCallback_DemNvm_IdEvMemLoc6"
00001983 636b5f417070 
00001989 6c5f4a6f6245 
0000198f 6e6443616c6c 
00001995 6261636b5f44 
0000199b 656d4e766d5f 
000019a1 496445764d65 
000019a7 6d4c6f633600 
000019ad 9804           7182 	.byte	152,4
000019af 0d             7183 	.byte	13
000019b0 01             7184 	.byte	1
000019b1 00000000*      7185 	.word	_Memstack_Appl_JobEndCallback_DemNvm_IdEvMemLoc6
000019b5 00000000*      7186 	.word	___ghs_eofn_Memstack_Appl_JobEndCallback_DemNvm_IdEvMemLoc6
000019b9 0153           7187 	.byte	1,83
000019bb 828080800a     7188 	.byte	130,128,128,128,10
000019c0 08             7189 	.byte	8
000019c1 03             7190 	.byte	3
000019c2 0c             7191 	.byte	12
000019c3 00             7192 	.byte	0
000019c4 00             7193 	.byte	0
000019c5 00             7194 	.byte	0
000019c6 01             7195 	.byte	1

                                                                      Page 147
                                                              C:\Users\nhuliyap\AppData\Local\Temp\gh_00008cs1.s
000019c7 01             7196 	.byte	1
000019c8 00             7197 	.byte	0
000019c9 01             7198 	.byte	1
                        7199 
                        7200 	.section	.debug_frame
                        7201 .LDW_510d0a0:
00000334 00000000*      7202 	.word	.LDW_unq_36-.LDW_unq_35
                        7203 .LDW_unq_35:
00000338 00000000*      7204 	.word	.LDW_545cc80
0000033c 00000000*      7205 	.word	_Memstack_Appl_JobEndCallback_DemNvm_IdEvMemLoc6
00000340 00000000*      7206 	.word	___ghs_eofn_Memstack_Appl_JobEndCallback_DemNvm_IdEvMemLoc6-_Memstack_Appl_JobEndCallback_DemNvm_IdEvMemLoc6
00000344 44             7207 	.byte	68
00000345 9f             7208 	.byte	159
00000346 03             7209 	.byte	3
00000347 40             7210 	.byte	64
00000348 9d             7211 	.byte	157
00000349 07             7212 	.byte	7
0000034a 01             7213 	.byte	1
0000034b 00000000*      7214 	.word	.LDW16
0000034f 00             7215 	.byte	0
                        7216 .LDW_unq_36:
                        7217 	.section	.debug_line
00001e88 000502         7218 	.byte	0,5,2
00001e8b 00000000*      7219 	.word	_Memstack_Appl_JobEndCallback_DemNvm_IdEvMemLoc6
00001e8f 03             7220 	.byte	3
00001e90 9704           7221 	.byte	151,4
00001e92 02             7222 	.byte	2
00001e93 00             7223 	.byte	0
00001e94 01             7224 	.byte	1
00001e95 06             7225 	.byte	6
00001e96 000502         7226 	.byte	0,5,2
00001e99 00000000*      7227 	.word	.LDWlin129
00001e9d 0d             7228 	.byte	13
00001e9e 000502         7229 	.byte	0,5,2
00001ea1 00000000*      7230 	.word	.LDWlin130
00001ea5 0c             7231 	.byte	12
00001ea6 000502         7232 	.byte	0,5,2
00001ea9 00000000*      7233 	.word	.LDWlin131
00001ead 0b             7234 	.byte	11
00001eae 0b             7235 	.byte	11
00001eaf 1b             7236 	.byte	27
00001eb0 02             7237 	.byte	2
00001eb1 00             7238 	.byte	0
00001eb2 0b             7239 	.byte	11
00001eb3 02             7240 	.byte	2
00001eb4 04             7241 	.byte	4
00001eb5 000101         7242 	.byte	0,1,1
                        7243 	.section	.debug_info
                        7244 .LDW_553d4f0:
000019ca 1d             7245 	.byte	29
000019cb 00000000*      7246 	.word	.LDW06
000019cf 00000000*      7247 	.word	.LDW16
                        7248 
                        7249 .LDW_553ff88:
000019d3 04             7250 	.byte	4
000019d4 756352657175   7251 	.strz	"ucRequestResult"
000019da 657374526573 
000019e0 756c7400 
000019e4 9904           7252 	.byte	153,4
000019e6 19             7253 	.byte	25
000019e7 01             7254 	.byte	1

                                                                      Page 148
                                                              C:\Users\nhuliyap\AppData\Local\Temp\gh_00008cs1.s
000019e8 00000000*      7255 	.word	.LDW_54133b0
000019ec 00             7256 	.byte	0
000019ed 00             7257 	.byte	0
000019ee 0273           7258 	.byte	2,115
000019f0 03             7259 	.byte	3
                        7260 
000019f1 00             7261 	.byte	0
                        7262 
000019f2 00             7263 	.byte	0
                        7264 
                        7265 .LDW_5574518:
000019f3 13             7266 	.byte	19
000019f4 4d656d737461   7267 	.strz	"Memstack_Appl_JobEndCallback_DemNvm_IdEvMemLoc7"
000019fa 636b5f417070 
00001a00 6c5f4a6f6245 
00001a06 6e6443616c6c 
00001a0c 6261636b5f44 
00001a12 656d4e766d5f 
00001a18 496445764d65 
00001a1e 6d4c6f633700 
00001a24 a304           7268 	.byte	163,4
00001a26 0d             7269 	.byte	13
00001a27 01             7270 	.byte	1
00001a28 00000000*      7271 	.word	_Memstack_Appl_JobEndCallback_DemNvm_IdEvMemLoc7
00001a2c 00000000*      7272 	.word	___ghs_eofn_Memstack_Appl_JobEndCallback_DemNvm_IdEvMemLoc7
00001a30 0153           7273 	.byte	1,83
00001a32 828080800a     7274 	.byte	130,128,128,128,10
00001a37 08             7275 	.byte	8
00001a38 03             7276 	.byte	3
00001a39 0c             7277 	.byte	12
00001a3a 00             7278 	.byte	0
00001a3b 00             7279 	.byte	0
00001a3c 00             7280 	.byte	0
00001a3d 01             7281 	.byte	1
00001a3e 01             7282 	.byte	1
00001a3f 00             7283 	.byte	0
00001a40 01             7284 	.byte	1
                        7285 
                        7286 	.section	.debug_frame
                        7287 .LDW_510dfe0:
00000350 00000000*      7288 	.word	.LDW_unq_38-.LDW_unq_37
                        7289 .LDW_unq_37:
00000354 00000000*      7290 	.word	.LDW_545cc80
00000358 00000000*      7291 	.word	_Memstack_Appl_JobEndCallback_DemNvm_IdEvMemLoc7
0000035c 00000000*      7292 	.word	___ghs_eofn_Memstack_Appl_JobEndCallback_DemNvm_IdEvMemLoc7-_Memstack_Appl_JobEndCallback_DemNvm_IdEvMemLoc7
00000360 44             7293 	.byte	68
00000361 9f             7294 	.byte	159
00000362 03             7295 	.byte	3
00000363 40             7296 	.byte	64
00000364 9d             7297 	.byte	157
00000365 07             7298 	.byte	7
00000366 01             7299 	.byte	1
00000367 00000000*      7300 	.word	.LDW36
0000036b 00             7301 	.byte	0
                        7302 .LDW_unq_38:
                        7303 	.section	.debug_line
00001eb8 000502         7304 	.byte	0,5,2
00001ebb 00000000*      7305 	.word	_Memstack_Appl_JobEndCallback_DemNvm_IdEvMemLoc7
00001ebf 03             7306 	.byte	3
00001ec0 a204           7307 	.byte	162,4
00001ec2 02             7308 	.byte	2

                                                                      Page 149
                                                              C:\Users\nhuliyap\AppData\Local\Temp\gh_00008cs1.s
00001ec3 00             7309 	.byte	0
00001ec4 01             7310 	.byte	1
00001ec5 06             7311 	.byte	6
00001ec6 000502         7312 	.byte	0,5,2
00001ec9 00000000*      7313 	.word	.LDWlin132
00001ecd 0d             7314 	.byte	13
00001ece 000502         7315 	.byte	0,5,2
00001ed1 00000000*      7316 	.word	.LDWlin133
00001ed5 0c             7317 	.byte	12
00001ed6 000502         7318 	.byte	0,5,2
00001ed9 00000000*      7319 	.word	.LDWlin134
00001edd 0b             7320 	.byte	11
00001ede 0b             7321 	.byte	11
00001edf 1b             7322 	.byte	27
00001ee0 02             7323 	.byte	2
00001ee1 00             7324 	.byte	0
00001ee2 0b             7325 	.byte	11
00001ee3 02             7326 	.byte	2
00001ee4 04             7327 	.byte	4
00001ee5 000101         7328 	.byte	0,1,1
                        7329 	.section	.debug_info
                        7330 .LDW_553d490:
00001a41 1d             7331 	.byte	29
00001a42 00000000*      7332 	.word	.LDW26
00001a46 00000000*      7333 	.word	.LDW36
                        7334 
                        7335 .LDW_55403a8:
00001a4a 04             7336 	.byte	4
00001a4b 756352657175   7337 	.strz	"ucRequestResult"
00001a51 657374526573 
00001a57 756c7400 
00001a5b a404           7338 	.byte	164,4
00001a5d 19             7339 	.byte	25
00001a5e 01             7340 	.byte	1
00001a5f 00000000*      7341 	.word	.LDW_54133b0
00001a63 00             7342 	.byte	0
00001a64 00             7343 	.byte	0
00001a65 0273           7344 	.byte	2,115
00001a67 03             7345 	.byte	3
                        7346 
00001a68 00             7347 	.byte	0
                        7348 
00001a69 00             7349 	.byte	0
                        7350 
                        7351 .LDW_5574778:
00001a6a 13             7352 	.byte	19
00001a6b 4d656d737461   7353 	.strz	"Memstack_Appl_JobEndCallback_DemNvm_IdEvMemLoc8"
00001a71 636b5f417070 
00001a77 6c5f4a6f6245 
00001a7d 6e6443616c6c 
00001a83 6261636b5f44 
00001a89 656d4e766d5f 
00001a8f 496445764d65 
00001a95 6d4c6f633800 
00001a9b ae04           7354 	.byte	174,4
00001a9d 0d             7355 	.byte	13
00001a9e 01             7356 	.byte	1
00001a9f 00000000*      7357 	.word	_Memstack_Appl_JobEndCallback_DemNvm_IdEvMemLoc8
00001aa3 00000000*      7358 	.word	___ghs_eofn_Memstack_Appl_JobEndCallback_DemNvm_IdEvMemLoc8
00001aa7 0153           7359 	.byte	1,83
00001aa9 828080800a     7360 	.byte	130,128,128,128,10

                                                                      Page 150
                                                              C:\Users\nhuliyap\AppData\Local\Temp\gh_00008cs1.s
00001aae 08             7361 	.byte	8
00001aaf 03             7362 	.byte	3
00001ab0 0c             7363 	.byte	12
00001ab1 00             7364 	.byte	0
00001ab2 00             7365 	.byte	0
00001ab3 00             7366 	.byte	0
00001ab4 01             7367 	.byte	1
00001ab5 01             7368 	.byte	1
00001ab6 00             7369 	.byte	0
00001ab7 01             7370 	.byte	1
                        7371 
                        7372 	.section	.debug_frame
                        7373 .LDW_510d960:
0000036c 00000000*      7374 	.word	.LDW_unq_3a-.LDW_unq_39
                        7375 .LDW_unq_39:
00000370 00000000*      7376 	.word	.LDW_545cc80
00000374 00000000*      7377 	.word	_Memstack_Appl_JobEndCallback_DemNvm_IdEvMemLoc8
00000378 00000000*      7378 	.word	___ghs_eofn_Memstack_Appl_JobEndCallback_DemNvm_IdEvMemLoc8-_Memstack_Appl_JobEndCallback_DemNvm_IdEvMemLoc8
0000037c 44             7379 	.byte	68
0000037d 9f             7380 	.byte	159
0000037e 03             7381 	.byte	3
0000037f 40             7382 	.byte	64
00000380 9d             7383 	.byte	157
00000381 07             7384 	.byte	7
00000382 01             7385 	.byte	1
00000383 00000000*      7386 	.word	.LDW56
00000387 00             7387 	.byte	0
                        7388 .LDW_unq_3a:
                        7389 	.section	.debug_line
00001ee8 000502         7390 	.byte	0,5,2
00001eeb 00000000*      7391 	.word	_Memstack_Appl_JobEndCallback_DemNvm_IdEvMemLoc8
00001eef 03             7392 	.byte	3
00001ef0 ad04           7393 	.byte	173,4
00001ef2 02             7394 	.byte	2
00001ef3 00             7395 	.byte	0
00001ef4 01             7396 	.byte	1
00001ef5 06             7397 	.byte	6
00001ef6 000502         7398 	.byte	0,5,2
00001ef9 00000000*      7399 	.word	.LDWlin135
00001efd 0d             7400 	.byte	13
00001efe 000502         7401 	.byte	0,5,2
00001f01 00000000*      7402 	.word	.LDWlin136
00001f05 0c             7403 	.byte	12
00001f06 000502         7404 	.byte	0,5,2
00001f09 00000000*      7405 	.word	.LDWlin137
00001f0d 0b             7406 	.byte	11
00001f0e 0b             7407 	.byte	11
00001f0f 1b             7408 	.byte	27
00001f10 02             7409 	.byte	2
00001f11 00             7410 	.byte	0
00001f12 0b             7411 	.byte	11
00001f13 02             7412 	.byte	2
00001f14 04             7413 	.byte	4
00001f15 000101         7414 	.byte	0,1,1
                        7415 	.section	.debug_info
                        7416 .LDW_553d0a0:
00001ab8 1d             7417 	.byte	29
00001ab9 00000000*      7418 	.word	.LDW46
00001abd 00000000*      7419 	.word	.LDW56
                        7420 
                        7421 .LDW_553ffe0:

                                                                      Page 151
                                                              C:\Users\nhuliyap\AppData\Local\Temp\gh_00008cs1.s
00001ac1 04             7422 	.byte	4
00001ac2 756352657175   7423 	.strz	"ucRequestResult"
00001ac8 657374526573 
00001ace 756c7400 
00001ad2 af04           7424 	.byte	175,4
00001ad4 19             7425 	.byte	25
00001ad5 01             7426 	.byte	1
00001ad6 00000000*      7427 	.word	.LDW_54133b0
00001ada 00             7428 	.byte	0
00001adb 00             7429 	.byte	0
00001adc 0273           7430 	.byte	2,115
00001ade 03             7431 	.byte	3
                        7432 
00001adf 00             7433 	.byte	0
                        7434 
00001ae0 00             7435 	.byte	0
                        7436 
                        7437 .LDW_5573c30:
00001ae1 13             7438 	.byte	19
00001ae2 4d656d737461   7439 	.strz	"Memstack_Appl_JobEndCallback_DemNvm_IdEvMemLoc9"
00001ae8 636b5f417070 
00001aee 6c5f4a6f6245 
00001af4 6e6443616c6c 
00001afa 6261636b5f44 
00001b00 656d4e766d5f 
00001b06 496445764d65 
00001b0c 6d4c6f633900 
00001b12 b904           7440 	.byte	185,4
00001b14 0d             7441 	.byte	13
00001b15 01             7442 	.byte	1
00001b16 00000000*      7443 	.word	_Memstack_Appl_JobEndCallback_DemNvm_IdEvMemLoc9
00001b1a 00000000*      7444 	.word	___ghs_eofn_Memstack_Appl_JobEndCallback_DemNvm_IdEvMemLoc9
00001b1e 0153           7445 	.byte	1,83
00001b20 828080800a     7446 	.byte	130,128,128,128,10
00001b25 08             7447 	.byte	8
00001b26 03             7448 	.byte	3
00001b27 0c             7449 	.byte	12
00001b28 00             7450 	.byte	0
00001b29 00             7451 	.byte	0
00001b2a 00             7452 	.byte	0
00001b2b 01             7453 	.byte	1
00001b2c 01             7454 	.byte	1
00001b2d 00             7455 	.byte	0
00001b2e 01             7456 	.byte	1
                        7457 
                        7458 	.section	.debug_frame
                        7459 .LDW_510df60:
00000388 00000000*      7460 	.word	.LDW_unq_3c-.LDW_unq_3b
                        7461 .LDW_unq_3b:
0000038c 00000000*      7462 	.word	.LDW_545cc80
00000390 00000000*      7463 	.word	_Memstack_Appl_JobEndCallback_DemNvm_IdEvMemLoc9
00000394 00000000*      7464 	.word	___ghs_eofn_Memstack_Appl_JobEndCallback_DemNvm_IdEvMemLoc9-_Memstack_Appl_JobEndCallback_DemNvm_IdEvMemLoc9
00000398 44             7465 	.byte	68
00000399 9f             7466 	.byte	159
0000039a 03             7467 	.byte	3
0000039b 40             7468 	.byte	64
0000039c 9d             7469 	.byte	157
0000039d 07             7470 	.byte	7
0000039e 01             7471 	.byte	1
0000039f 00000000*      7472 	.word	.LDW76
000003a3 00             7473 	.byte	0

                                                                      Page 152
                                                              C:\Users\nhuliyap\AppData\Local\Temp\gh_00008cs1.s
                        7474 .LDW_unq_3c:
                        7475 	.section	.debug_line
00001f18 000502         7476 	.byte	0,5,2
00001f1b 00000000*      7477 	.word	_Memstack_Appl_JobEndCallback_DemNvm_IdEvMemLoc9
00001f1f 03             7478 	.byte	3
00001f20 b804           7479 	.byte	184,4
00001f22 02             7480 	.byte	2
00001f23 00             7481 	.byte	0
00001f24 01             7482 	.byte	1
00001f25 06             7483 	.byte	6
00001f26 000502         7484 	.byte	0,5,2
00001f29 00000000*      7485 	.word	.LDWlin138
00001f2d 0d             7486 	.byte	13
00001f2e 000502         7487 	.byte	0,5,2
00001f31 00000000*      7488 	.word	.LDWlin139
00001f35 0c             7489 	.byte	12
00001f36 000502         7490 	.byte	0,5,2
00001f39 00000000*      7491 	.word	.LDWlin140
00001f3d 0b             7492 	.byte	11
00001f3e 0b             7493 	.byte	11
00001f3f 1b             7494 	.byte	27
00001f40 02             7495 	.byte	2
00001f41 00             7496 	.byte	0
00001f42 0b             7497 	.byte	11
00001f43 02             7498 	.byte	2
00001f44 04             7499 	.byte	4
00001f45 000101         7500 	.byte	0,1,1
                        7501 	.section	.debug_info
                        7502 .LDW_553d0d0:
00001b2f 1d             7503 	.byte	29
00001b30 00000000*      7504 	.word	.LDW66
00001b34 00000000*      7505 	.word	.LDW76
                        7506 
                        7507 .LDW_5540248:
00001b38 04             7508 	.byte	4
00001b39 756352657175   7509 	.strz	"ucRequestResult"
00001b3f 657374526573 
00001b45 756c7400 
00001b49 ba04           7510 	.byte	186,4
00001b4b 19             7511 	.byte	25
00001b4c 01             7512 	.byte	1
00001b4d 00000000*      7513 	.word	.LDW_54133b0
00001b51 00             7514 	.byte	0
00001b52 00             7515 	.byte	0
00001b53 0273           7516 	.byte	2,115
00001b55 03             7517 	.byte	3
                        7518 
00001b56 00             7519 	.byte	0
                        7520 
00001b57 00             7521 	.byte	0
                        7522 
                        7523 .LDW_55745b0:
00001b58 13             7524 	.byte	19
00001b59 4d656d737461   7525 	.strz	"Memstack_Appl_JobEndCallback_DemNvm_IdDemGenericNvData"
00001b5f 636b5f417070 
00001b65 6c5f4a6f6245 
00001b6b 6e6443616c6c 
00001b71 6261636b5f44 
00001b77 656d4e766d5f 
00001b7d 496444656d47 
00001b83 656e65726963 

                                                                      Page 153
                                                              C:\Users\nhuliyap\AppData\Local\Temp\gh_00008cs1.s
00001b89 4e7644617461 
00001b8f 00 
00001b90 c404           7526 	.byte	196,4
00001b92 0d             7527 	.byte	13
00001b93 01             7528 	.byte	1
00001b94 00000000*      7529 	.word	_Memstack_Appl_JobEndCallback_DemNvm_IdDemGenericNvData
00001b98 00000000*      7530 	.word	___ghs_eofn_Memstack_Appl_JobEndCallback_DemNvm_IdDemGenericNvData
00001b9c 0153           7531 	.byte	1,83
00001b9e 828080800a     7532 	.byte	130,128,128,128,10
00001ba3 08             7533 	.byte	8
00001ba4 03             7534 	.byte	3
00001ba5 0c             7535 	.byte	12
00001ba6 00             7536 	.byte	0
00001ba7 00             7537 	.byte	0
00001ba8 00             7538 	.byte	0
00001ba9 01             7539 	.byte	1
00001baa 01             7540 	.byte	1
00001bab 00             7541 	.byte	0
00001bac 01             7542 	.byte	1
                        7543 
                        7544 	.section	.debug_frame
                        7545 .LDW_510da20:
000003a4 00000000*      7546 	.word	.LDW_unq_3e-.LDW_unq_3d
                        7547 .LDW_unq_3d:
000003a8 00000000*      7548 	.word	.LDW_545cc80
000003ac 00000000*      7549 	.word	_Memstack_Appl_JobEndCallback_DemNvm_IdDemGenericNvData
000003b0 00000000*      7550 	.word	___ghs_eofn_Memstack_Appl_JobEndCallback_DemNvm_IdDemGenericNvData-_Memstack_Appl_JobEndCallback_DemNvm_IdDemGenericNvData
000003b4 44             7551 	.byte	68
000003b5 9f             7552 	.byte	159
000003b6 03             7553 	.byte	3
000003b7 40             7554 	.byte	64
000003b8 9d             7555 	.byte	157
000003b9 07             7556 	.byte	7
000003ba 01             7557 	.byte	1
000003bb 00000000*      7558 	.word	.LDW96
000003bf 00             7559 	.byte	0
                        7560 .LDW_unq_3e:
                        7561 	.section	.debug_line
00001f48 000502         7562 	.byte	0,5,2
00001f4b 00000000*      7563 	.word	_Memstack_Appl_JobEndCallback_DemNvm_IdDemGenericNvData
00001f4f 03             7564 	.byte	3
00001f50 c304           7565 	.byte	195,4
00001f52 02             7566 	.byte	2
00001f53 00             7567 	.byte	0
00001f54 01             7568 	.byte	1
00001f55 06             7569 	.byte	6
00001f56 000502         7570 	.byte	0,5,2
00001f59 00000000*      7571 	.word	.LDWlin141
00001f5d 0d             7572 	.byte	13
00001f5e 000502         7573 	.byte	0,5,2
00001f61 00000000*      7574 	.word	.LDWlin142
00001f65 0c             7575 	.byte	12
00001f66 000502         7576 	.byte	0,5,2
00001f69 00000000*      7577 	.word	.LDWlin143
00001f6d 0b             7578 	.byte	11
00001f6e 0b             7579 	.byte	11
00001f6f 1b             7580 	.byte	27
00001f70 02             7581 	.byte	2
00001f71 00             7582 	.byte	0
00001f72 0b             7583 	.byte	11
00001f73 02             7584 	.byte	2

                                                                      Page 154
                                                              C:\Users\nhuliyap\AppData\Local\Temp\gh_00008cs1.s
00001f74 04             7585 	.byte	4
00001f75 000101         7586 	.byte	0,1,1
                        7587 	.section	.debug_info
                        7588 .LDW_553d130:
00001bad 1d             7589 	.byte	29
00001bae 00000000*      7590 	.word	.LDW86
00001bb2 00000000*      7591 	.word	.LDW96
                        7592 
                        7593 .LDW_5540038:
00001bb6 04             7594 	.byte	4
00001bb7 756352657175   7595 	.strz	"ucRequestResult"
00001bbd 657374526573 
00001bc3 756c7400 
00001bc7 c504           7596 	.byte	197,4
00001bc9 19             7597 	.byte	25
00001bca 01             7598 	.byte	1
00001bcb 00000000*      7599 	.word	.LDW_54133b0
00001bcf 00             7600 	.byte	0
00001bd0 00             7601 	.byte	0
00001bd1 0273           7602 	.byte	2,115
00001bd3 03             7603 	.byte	3
                        7604 
00001bd4 00             7605 	.byte	0
                        7606 
00001bd5 00             7607 	.byte	0
                        7608 
                        7609 .LDW_5573cc8:
00001bd6 13             7610 	.byte	19
00001bd7 4d656d737461   7611 	.strz	"Memstack_Appl_JobEndCallback_ECUM_CFG_NVM_BLOCK"
00001bdd 636b5f417070 
00001be3 6c5f4a6f6245 
00001be9 6e6443616c6c 
00001bef 6261636b5f45 
00001bf5 43554d5f4346 
00001bfb 475f4e564d5f 
00001c01 424c4f434b00 
00001c07 cf04           7612 	.byte	207,4
00001c09 0d             7613 	.byte	13
00001c0a 01             7614 	.byte	1
00001c0b 00000000*      7615 	.word	_Memstack_Appl_JobEndCallback_ECUM_CFG_NVM_BLOCK
00001c0f 00000000*      7616 	.word	___ghs_eofn_Memstack_Appl_JobEndCallback_ECUM_CFG_NVM_BLOCK
00001c13 0153           7617 	.byte	1,83
00001c15 828080800a     7618 	.byte	130,128,128,128,10
00001c1a 08             7619 	.byte	8
00001c1b 03             7620 	.byte	3
00001c1c 0c             7621 	.byte	12
00001c1d 00             7622 	.byte	0
00001c1e 00             7623 	.byte	0
00001c1f 00             7624 	.byte	0
00001c20 01             7625 	.byte	1
00001c21 01             7626 	.byte	1
00001c22 00             7627 	.byte	0
00001c23 01             7628 	.byte	1
                        7629 
                        7630 	.section	.debug_frame
                        7631 .LDW_510d8e0:
000003c0 00000000*      7632 	.word	.LDW_unq_40-.LDW_unq_3f
                        7633 .LDW_unq_3f:
000003c4 00000000*      7634 	.word	.LDW_545cc80
000003c8 00000000*      7635 	.word	_Memstack_Appl_JobEndCallback_ECUM_CFG_NVM_BLOCK
000003cc 00000000*      7636 	.word	___ghs_eofn_Memstack_Appl_JobEndCallback_ECUM_CFG_NVM_BLOCK-_Memstack_Appl_JobEndCallback_ECUM_CFG_NVM_BLOCK

                                                                      Page 155
                                                              C:\Users\nhuliyap\AppData\Local\Temp\gh_00008cs1.s
000003d0 44             7637 	.byte	68
000003d1 9f             7638 	.byte	159
000003d2 03             7639 	.byte	3
000003d3 40             7640 	.byte	64
000003d4 9d             7641 	.byte	157
000003d5 07             7642 	.byte	7
000003d6 01             7643 	.byte	1
000003d7 00000000*      7644 	.word	.LDW17
000003db 00             7645 	.byte	0
                        7646 .LDW_unq_40:
                        7647 	.section	.debug_line
00001f78 000502         7648 	.byte	0,5,2
00001f7b 00000000*      7649 	.word	_Memstack_Appl_JobEndCallback_ECUM_CFG_NVM_BLOCK
00001f7f 03             7650 	.byte	3
00001f80 ce04           7651 	.byte	206,4
00001f82 02             7652 	.byte	2
00001f83 00             7653 	.byte	0
00001f84 01             7654 	.byte	1
00001f85 06             7655 	.byte	6
00001f86 000502         7656 	.byte	0,5,2
00001f89 00000000*      7657 	.word	.LDWlin144
00001f8d 0d             7658 	.byte	13
00001f8e 000502         7659 	.byte	0,5,2
00001f91 00000000*      7660 	.word	.LDWlin145
00001f95 0c             7661 	.byte	12
00001f96 000502         7662 	.byte	0,5,2
00001f99 00000000*      7663 	.word	.LDWlin146
00001f9d 0b             7664 	.byte	11
00001f9e 0b             7665 	.byte	11
00001f9f 1b             7666 	.byte	27
00001fa0 02             7667 	.byte	2
00001fa1 00             7668 	.byte	0
00001fa2 0b             7669 	.byte	11
00001fa3 02             7670 	.byte	2
00001fa4 04             7671 	.byte	4
00001fa5 000101         7672 	.byte	0,1,1
                        7673 	.section	.debug_info
                        7674 .LDW_553d1c0:
00001c24 1d             7675 	.byte	29
00001c25 00000000*      7676 	.word	.LDW07
00001c29 00000000*      7677 	.word	.LDW17
                        7678 
                        7679 .LDW_5540610:
00001c2d 04             7680 	.byte	4
00001c2e 756352657175   7681 	.strz	"ucRequestResult"
00001c34 657374526573 
00001c3a 756c7400 
00001c3e d004           7682 	.byte	208,4
00001c40 19             7683 	.byte	25
00001c41 01             7684 	.byte	1
00001c42 00000000*      7685 	.word	.LDW_54133b0
00001c46 00             7686 	.byte	0
00001c47 00             7687 	.byte	0
00001c48 0273           7688 	.byte	2,115
00001c4a 03             7689 	.byte	3
                        7690 
00001c4b 00             7691 	.byte	0
                        7692 
00001c4c 00             7693 	.byte	0
                        7694 
                        7695 .LDW_5573b00:

                                                                      Page 156
                                                              C:\Users\nhuliyap\AppData\Local\Temp\gh_00008cs1.s
00001c4d 13             7696 	.byte	19
00001c4e 4d656d737461   7697 	.strz	"Memstack_Appl_JobEndCallback_BSW_Data"
00001c54 636b5f417070 
00001c5a 6c5f4a6f6245 
00001c60 6e6443616c6c 
00001c66 6261636b5f42 
00001c6c 53575f446174 
00001c72 6100 
00001c74 da04           7698 	.byte	218,4
00001c76 0d             7699 	.byte	13
00001c77 01             7700 	.byte	1
00001c78 00000000*      7701 	.word	_Memstack_Appl_JobEndCallback_BSW_Data
00001c7c 00000000*      7702 	.word	___ghs_eofn_Memstack_Appl_JobEndCallback_BSW_Data
00001c80 0153           7703 	.byte	1,83
00001c82 828080800a     7704 	.byte	130,128,128,128,10
00001c87 08             7705 	.byte	8
00001c88 03             7706 	.byte	3
00001c89 0c             7707 	.byte	12
00001c8a 00             7708 	.byte	0
00001c8b 00             7709 	.byte	0
00001c8c 00             7710 	.byte	0
00001c8d 01             7711 	.byte	1
00001c8e 01             7712 	.byte	1
00001c8f 00             7713 	.byte	0
00001c90 01             7714 	.byte	1
                        7715 
                        7716 	.section	.debug_frame
                        7717 .LDW_510dc60:
000003dc 00000000*      7718 	.word	.LDW_unq_42-.LDW_unq_41
                        7719 .LDW_unq_41:
000003e0 00000000*      7720 	.word	.LDW_545cc80
000003e4 00000000*      7721 	.word	_Memstack_Appl_JobEndCallback_BSW_Data
000003e8 00000000*      7722 	.word	___ghs_eofn_Memstack_Appl_JobEndCallback_BSW_Data-_Memstack_Appl_JobEndCallback_BSW_Data
000003ec 44             7723 	.byte	68
000003ed 9f             7724 	.byte	159
000003ee 03             7725 	.byte	3
000003ef 40             7726 	.byte	64
000003f0 9d             7727 	.byte	157
000003f1 07             7728 	.byte	7
000003f2 01             7729 	.byte	1
000003f3 00000000*      7730 	.word	.LDW37
000003f7 00             7731 	.byte	0
                        7732 .LDW_unq_42:
                        7733 	.section	.debug_line
00001fa8 000502         7734 	.byte	0,5,2
00001fab 00000000*      7735 	.word	_Memstack_Appl_JobEndCallback_BSW_Data
00001faf 03             7736 	.byte	3
00001fb0 d904           7737 	.byte	217,4
00001fb2 02             7738 	.byte	2
00001fb3 00             7739 	.byte	0
00001fb4 01             7740 	.byte	1
00001fb5 06             7741 	.byte	6
00001fb6 000502         7742 	.byte	0,5,2
00001fb9 00000000*      7743 	.word	.LDWlin147
00001fbd 0d             7744 	.byte	13
00001fbe 000502         7745 	.byte	0,5,2
00001fc1 00000000*      7746 	.word	.LDWlin148
00001fc5 0c             7747 	.byte	12
00001fc6 000502         7748 	.byte	0,5,2
00001fc9 00000000*      7749 	.word	.LDWlin149
00001fcd 0b             7750 	.byte	11

                                                                      Page 157
                                                              C:\Users\nhuliyap\AppData\Local\Temp\gh_00008cs1.s
00001fce 0b             7751 	.byte	11
00001fcf 1b             7752 	.byte	27
00001fd0 02             7753 	.byte	2
00001fd1 00             7754 	.byte	0
00001fd2 0b             7755 	.byte	11
00001fd3 02             7756 	.byte	2
00001fd4 04             7757 	.byte	4
00001fd5 000101         7758 	.byte	0,1,1
                        7759 	.section	.debug_info
                        7760 .LDW_553d550:
00001c91 1d             7761 	.byte	29
00001c92 00000000*      7762 	.word	.LDW27
00001c96 00000000*      7763 	.word	.LDW37
                        7764 
                        7765 .LDW_5540090:
00001c9a 04             7766 	.byte	4
00001c9b 756352657175   7767 	.strz	"ucRequestResult"
00001ca1 657374526573 
00001ca7 756c7400 
00001cab db04           7768 	.byte	219,4
00001cad 19             7769 	.byte	25
00001cae 01             7770 	.byte	1
00001caf 00000000*      7771 	.word	.LDW_54133b0
00001cb3 00             7772 	.byte	0
00001cb4 00             7773 	.byte	0
00001cb5 0273           7774 	.byte	2,115
00001cb7 03             7775 	.byte	3
                        7776 
00001cb8 00             7777 	.byte	0
                        7778 
00001cb9 00             7779 	.byte	0
                        7780 
                        7781 .LDW_55739d0:
00001cba 14             7782 	.byte	20
00001cbb 4d656d737461   7783 	.strz	"Memstack_GetCurrentNvMConsistence"
00001cc1 636b5f476574 
00001cc7 43757272656e 
00001ccd 744e764d436f 
00001cd3 6e7369737465 
00001cd9 6e636500 
00001cdd e504           7784 	.byte	229,4
00001cdf 0f             7785 	.byte	15
00001ce0 01             7786 	.byte	1
00001ce1 00000000*      7787 	.word	.LDW_4869f78
00001ce5 00000000*      7788 	.word	_Memstack_GetCurrentNvMConsistence
00001ce9 00000000*      7789 	.word	___ghs_eofn_Memstack_GetCurrentNvMConsistence
00001ced 0153           7790 	.byte	1,83
00001cef 02             7791 	.byte	2
00001cf0 00             7792 	.byte	0
00001cf1 02             7793 	.byte	2
00001cf2 00             7794 	.byte	0
00001cf3 00             7795 	.byte	0
00001cf4 00             7796 	.byte	0
00001cf5 00             7797 	.byte	0
00001cf6 01             7798 	.byte	1
00001cf7 01             7799 	.byte	1
00001cf8 00             7800 	.byte	0
00001cf9 01             7801 	.byte	1
                        7802 
                        7803 	.section	.debug_frame
                        7804 .LDW_510dca0:

                                                                      Page 158
                                                              C:\Users\nhuliyap\AppData\Local\Temp\gh_00008cs1.s
000003f8 00000000*      7805 	.word	.LDW_unq_44-.LDW_unq_43
                        7806 .LDW_unq_43:
000003fc 00000000*      7807 	.word	.LDW_545cc80
00000400 00000000*      7808 	.word	_Memstack_GetCurrentNvMConsistence
00000404 00000000*      7809 	.word	___ghs_eofn_Memstack_GetCurrentNvMConsistence-_Memstack_GetCurrentNvMConsistence
00000408 01             7810 	.byte	1
00000409 00000000*      7811 	.word	.LDW57
0000040d 00             7812 	.byte	0
0000040e 00             7813 	.byte	0
0000040f 00             7814 	.byte	0
                        7815 .LDW_unq_44:
                        7816 	.section	.debug_line
00001fd8 000502         7817 	.byte	0,5,2
00001fdb 00000000*      7818 	.word	_Memstack_GetCurrentNvMConsistence
00001fdf 03             7819 	.byte	3
00001fe0 e404           7820 	.byte	228,4
00001fe2 02             7821 	.byte	2
00001fe3 00             7822 	.byte	0
00001fe4 01             7823 	.byte	1
00001fe5 06             7824 	.byte	6
00001fe6 000502         7825 	.byte	0,5,2
00001fe9 00000000*      7826 	.word	.LDWlin150
00001fed 0b             7827 	.byte	11
00001fee 06             7828 	.byte	6
00001fef 02             7829 	.byte	2
00001ff0 04             7830 	.byte	4
00001ff1 02             7831 	.byte	2
00001ff2 02             7832 	.byte	2
00001ff3 000101         7833 	.byte	0,1,1
                        7834 	.section	.debug_info
                        7835 .LDW_553d100:
00001cfa 1d             7836 	.byte	29
00001cfb 00000000*      7837 	.word	.LDW47
00001cff 00000000*      7838 	.word	.LDW57
                        7839 
00001d03 00             7840 	.byte	0
                        7841 
00001d04 00             7842 	.byte	0
                        7843 
                        7844 .LDW_5573a68:
00001d05 13             7845 	.byte	19
00001d06 4d656d737461   7846 	.strz	"Memstack_ClearCurrentNvMConsistence"
00001d0c 636b5f436c65 
00001d12 617243757272 
00001d18 656e744e764d 
00001d1e 436f6e736973 
00001d24 74656e636500 
00001d2a e904           7847 	.byte	233,4
00001d2c 0d             7848 	.byte	13
00001d2d 01             7849 	.byte	1
00001d2e 00000000*      7850 	.word	_Memstack_ClearCurrentNvMConsistence
00001d32 00000000*      7851 	.word	___ghs_eofn_Memstack_ClearCurrentNvMConsistence
00001d36 0153           7852 	.byte	1,83
00001d38 02             7853 	.byte	2
00001d39 00             7854 	.byte	0
00001d3a 02             7855 	.byte	2
00001d3b 00             7856 	.byte	0
00001d3c 00             7857 	.byte	0
00001d3d 00             7858 	.byte	0
00001d3e 00             7859 	.byte	0
00001d3f 01             7860 	.byte	1

                                                                      Page 159
                                                              C:\Users\nhuliyap\AppData\Local\Temp\gh_00008cs1.s
00001d40 01             7861 	.byte	1
00001d41 00             7862 	.byte	0
00001d42 01             7863 	.byte	1
                        7864 
                        7865 	.section	.debug_frame
                        7866 .LDW_510dda0:
00000410 00000000*      7867 	.word	.LDW_unq_46-.LDW_unq_45
                        7868 .LDW_unq_45:
00000414 00000000*      7869 	.word	.LDW_545cc80
00000418 00000000*      7870 	.word	_Memstack_ClearCurrentNvMConsistence
0000041c 00000000*      7871 	.word	___ghs_eofn_Memstack_ClearCurrentNvMConsistence-_Memstack_ClearCurrentNvMConsistence
00000420 01             7872 	.byte	1
00000421 00000000*      7873 	.word	.LDW77
00000425 00             7874 	.byte	0
00000426 00             7875 	.byte	0
00000427 00             7876 	.byte	0
                        7877 .LDW_unq_46:
                        7878 	.section	.debug_line
00001ff6 000502         7879 	.byte	0,5,2
00001ff9 00000000*      7880 	.word	_Memstack_ClearCurrentNvMConsistence
00001ffd 03             7881 	.byte	3
00001ffe e804           7882 	.byte	232,4
00002000 02             7883 	.byte	2
00002001 00             7884 	.byte	0
00002002 01             7885 	.byte	1
00002003 06             7886 	.byte	6
00002004 000502         7887 	.byte	0,5,2
00002007 00000000*      7888 	.word	.LDWlin151
0000200b 0b             7889 	.byte	11
0000200c 1b             7890 	.byte	27
0000200d 02             7891 	.byte	2
0000200e 02             7892 	.byte	2
0000200f 000101         7893 	.byte	0,1,1
                        7894 	.section	.debug_info
                        7895 .LDW_553d280:
00001d43 1d             7896 	.byte	29
00001d44 00000000*      7897 	.word	.LDW67
00001d48 00000000*      7898 	.word	.LDW77
                        7899 
00001d4c 00             7900 	.byte	0
                        7901 
00001d4d 00             7902 	.byte	0
                        7903 
00001d4e 00             7904 	.byte	0
                        7905 
                        7906 	.section	.debug_line
                        7907 .Ldw_line_end:
                        7908 	.section	.debug_macinfo
00000000 01             7909 	.byte	1
00000001 00             7910 	.byte	0
00000002 5f5f474e555f   7911 	.strz	"__GNU_ASM_SUPPORT__ 1"
00000008 41534d5f5355 
0000000e 50504f52545f 
00000014 5f203100 
00000018 01             7912 	.byte	1
00000019 00             7913 	.byte	0
0000001a 5f5f67687320   7914 	.strz	"__ghs 1"
00000020 3100 
00000022 01             7915 	.byte	1
00000023 00             7916 	.byte	0
00000024 5f5f6768735f   7917 	.strz	"__ghs__ 1"

                                                                      Page 160
                                                              C:\Users\nhuliyap\AppData\Local\Temp\gh_00008cs1.s
0000002a 5f203100 
0000002e 01             7918 	.byte	1
0000002f 00             7919 	.byte	0
00000030 5f5f41545452   7920 	.strz	"__ATTRIBUTES 1"
00000036 494255544553 
0000003c 203100 
0000003f 01             7921 	.byte	1
00000040 00             7922 	.byte	0
00000041 5f5f4544475f   7923 	.strz	"__EDG__ 1"
00000047 5f203100 
0000004b 01             7924 	.byte	1
0000004c 00             7925 	.byte	0
0000004d 5f5f434f5245   7926 	.strz	"__CORE_V850E3V5__ 1"
00000053 5f5638353045 
00000059 3356355f5f20 
0000005f 3100 
00000061 01             7927 	.byte	1
00000062 00             7928 	.byte	0
00000063 5f5f56383530   7929 	.strz	"__V850E__ 1"
00000069 455f5f203100 
0000006f 01             7930 	.byte	1
00000070 00             7931 	.byte	0
00000071 5f5f56383530   7932 	.strz	"__V850E2__ 1"
00000077 45325f5f2031 
0000007d 00 
0000007e 01             7933 	.byte	1
0000007f 00             7934 	.byte	0
00000080 5f5f56383530   7935 	.strz	"__V850E2R__ 1"
00000086 4532525f5f20 
0000008c 3100 
0000008e 01             7936 	.byte	1
0000008f 00             7937 	.byte	0
00000090 5f5f56383530   7938 	.strz	"__V850E2V3__ 1"
00000096 453256335f5f 
0000009c 203100 
0000009f 01             7939 	.byte	1
000000a0 00             7940 	.byte	0
000000a1 5f5f56383530   7941 	.strz	"__V850E3__ 1"
000000a7 45335f5f2031 
000000ad 00 
000000ae 01             7942 	.byte	1
000000af 00             7943 	.byte	0
000000b0 5f5f4c4c4f4e   7944 	.strz	"__LLONG_BIT 64"
000000b6 475f42495420 
000000bc 363400 
000000bf 01             7945 	.byte	1
000000c0 00             7946 	.byte	0
000000c1 4e4f545f5245   7947 	.strz	"NOT_READY_FOR_TESTING_OR_DEPLOYMENT 1"
000000c7 4144595f464f 
000000cd 525f54455354 
000000d3 494e475f4f52 
000000d9 5f4445504c4f 
000000df 594d454e5420 
000000e5 3100 
000000e7 03             7948 	.byte	3
000000e8 00             7949 	.byte	0
000000e9 01             7950 	.byte	1
000000ea 03             7951 	.byte	3
000000eb 01             7952 	.byte	1
000000ec 02             7953 	.byte	2
000000ed 03             7954 	.byte	3

                                                                      Page 161
                                                              C:\Users\nhuliyap\AppData\Local\Temp\gh_00008cs1.s
000000ee 04             7955 	.byte	4
000000ef 03             7956 	.byte	3
000000f0 03             7957 	.byte	3
000000f1 07             7958 	.byte	7
000000f2 04             7959 	.byte	4
000000f3 03             7960 	.byte	3
000000f4 1c             7961 	.byte	28
000000f5 05             7962 	.byte	5
000000f6 01             7963 	.byte	1
000000f7 39             7964 	.byte	57
000000f8 4c4f575f4259   7965 	.strz	"LOW_BYTE_FIRST 1u"
000000fe 54455f464952 
00000104 535420317500 
0000010a 01             7966 	.byte	1
0000010b 3c             7967 	.byte	60
0000010c 545255452031   7968 	.strz	"TRUE 1u"
00000112 7500 
00000114 01             7969 	.byte	1
00000115 40             7970 	.byte	64
00000116 46414c534520   7971 	.strz	"FALSE 0u"
0000011c 307500 
0000011f 01             7972 	.byte	1
00000120 45             7973 	.byte	69
00000121 4350555f4259   7974 	.strz	"CPU_BYTE_ORDER LOW_BYTE_FIRST"
00000127 54455f4f5244 
0000012d 4552204c4f57 
00000133 5f425954455f 
00000139 464952535400 
0000013f 04             7975 	.byte	4
00000140 03             7976 	.byte	3
00000141 1d             7977 	.byte	29
00000142 06             7978 	.byte	6
00000143 03             7979 	.byte	3
00000144 1b             7980 	.byte	27
00000145 07             7981 	.byte	7
00000146 03             7982 	.byte	3
00000147 54             7983 	.byte	84
00000148 08             7984 	.byte	8
00000149 04             7985 	.byte	4
0000014a 04             7986 	.byte	4
0000014b 01             7987 	.byte	1
0000014c 2f             7988 	.byte	47
0000014d 4e554c4c5f50   7989 	.strz	"NULL_PTR ((void *)0)"
00000153 545220282876 
00000159 6f6964202a29 
0000015f 302900 
00000162 01             7990 	.byte	1
00000163 33             7991 	.byte	51
00000164 4c4f43414c5f   7992 	.strz	"LOCAL_INLINE static inline"
0000016a 494e4c494e45 
00000170 207374617469 
00000176 6320696e6c69 
0000017c 6e6500 
0000017f 01             7993 	.byte	1
00000180 34             7994 	.byte	52
00000181 46554e432872   7995 	.strz	"FUNC(rettype,memclass) rettype"
00000187 657474797065 
0000018d 2c6d656d636c 
00000193 617373292072 
00000199 657474797065 
0000019f 00 

                                                                      Page 162
                                                              C:\Users\nhuliyap\AppData\Local\Temp\gh_00008cs1.s
000001a0 01             7996 	.byte	1
000001a1 37             7997 	.byte	55
000001a2 503256415228   7998 	.strz	"P2VAR(ptrtype,memclass,ptrclass) ptrtype*"
000001a8 707472747970 
000001ae 652c6d656d63 
000001b4 6c6173732c70 
000001ba 7472636c6173 
000001c0 732920707472 
000001c6 747970652a00 
000001cc 01             7999 	.byte	1
000001cd 38             8000 	.byte	56
000001ce 5032434f4e53   8001 	.strz	"P2CONST(ptrtype,memclass,ptrclass) const ptrtype*"
000001d4 542870747274 
000001da 7970652c6d65 
000001e0 6d636c617373 
000001e6 2c707472636c 
000001ec 617373292063 
000001f2 6f6e73742070 
000001f8 747274797065 
000001fe 2a00 
00000200 01             8002 	.byte	1
00000201 3b             8003 	.byte	59
00000202 503246554e43   8004 	.strz	"P2FUNC(rettype,ptrclass,fctname) rettype (*fctname)"
00000208 287265747479 
0000020e 70652c707472 
00000214 636c6173732c 
0000021a 6663746e616d 
00000220 652920726574 
00000226 747970652028 
0000022c 2a6663746e61 
00000232 6d652900 
00000236 01             8005 	.byte	1
00000237 3d             8006 	.byte	61
00000238 434f4e535428   8007 	.strz	"CONST(type,memclass) const type"
0000023e 747970652c6d 
00000244 656d636c6173 
0000024a 732920636f6e 
00000250 737420747970 
00000256 6500 
00000258 01             8008 	.byte	1
00000259 3e             8009 	.byte	62
0000025a 564152287661   8010 	.strz	"VAR(vartype,memclass) vartype"
00000260 72747970652c 
00000266 6d656d636c61 
0000026c 737329207661 
00000272 727479706500 
00000278 04             8011 	.byte	4
00000279 01             8012 	.byte	1
0000027a 3c             8013 	.byte	60
0000027b 5354445f4f4e   8014 	.strz	"STD_ON 1u"
00000281 20317500 
00000285 01             8015 	.byte	1
00000286 3d             8016 	.byte	61
00000287 5354445f4f46   8017 	.strz	"STD_OFF 0u"
0000028d 4620307500 
00000292 01             8018 	.byte	1
00000293 3e             8019 	.byte	62
00000294 455f4f4b2030   8020 	.strz	"E_OK 0u"
0000029a 7500 
0000029c 01             8021 	.byte	1
0000029d 3f             8022 	.byte	63

                                                                      Page 163
                                                              C:\Users\nhuliyap\AppData\Local\Temp\gh_00008cs1.s
0000029e 455f4e4f545f   8023 	.strz	"E_NOT_OK 1u"
000002a4 4f4b20317500 
000002aa 04             8024 	.byte	4
000002ab 04             8025 	.byte	4
000002ac 03             8026 	.byte	3
000002ad 05             8027 	.byte	5
000002ae 09             8028 	.byte	9
000002af 03             8029 	.byte	3
000002b0 06             8030 	.byte	6
000002b1 0a             8031 	.byte	10
000002b2 03             8032 	.byte	3
000002b3 1b             8033 	.byte	27
000002b4 0b             8034 	.byte	11
000002b5 01             8035 	.byte	1
000002b6 04             8036 	.byte	4
000002b7 44454d5f5459   8037 	.strz	"DEM_TYPES_H "
000002bd 5045535f4820 
000002c3 00 
000002c4 03             8038 	.byte	3
000002c5 07             8039 	.byte	7
000002c6 0c             8040 	.byte	12
000002c7 01             8041 	.byte	1
000002c8 1f             8042 	.byte	31
000002c9 44454d5f4346   8043 	.strz	"DEM_CFG_OBD_OFF 0"
000002cf 475f4f42445f 
000002d5 4f4646203000 
000002db 01             8044 	.byte	1
000002dc 20             8045 	.byte	32
000002dd 44454d5f4346   8046 	.strz	"DEM_CFG_OBD_ON 1"
000002e3 475f4f42445f 
000002e9 4f4e203100 
000002ee 01             8047 	.byte	1
000002ef 21             8048 	.byte	33
000002f0 44454d5f4346   8049 	.strz	"DEM_CFG_OBD DEM_CFG_OBD_OFF"
000002f6 475f4f424420 
000002fc 44454d5f4346 
00000302 475f4f42445f 
00000308 4f464600 
0000030c 01             8050 	.byte	1
0000030d 23             8051 	.byte	35
0000030e 44454d5f4346   8052 	.strz	"DEM_CFG_J1939DCM_OFF 0"
00000314 475f4a313933 
0000031a 3944434d5f4f 
00000320 4646203000 
00000325 01             8053 	.byte	1
00000326 25             8054 	.byte	37
00000327 44454d5f4346   8055 	.strz	"DEM_CFG_J1939DCM DEM_CFG_J1939DCM_OFF"
0000032d 475f4a313933 
00000333 3944434d2044 
00000339 454d5f434647 
0000033f 5f4a31393339 
00000345 44434d5f4f46 
0000034b 4600 
0000034d 01             8056 	.byte	1
0000034e 31             8057 	.byte	49
0000034f 44454d5f4246   8058 	.strz	"DEM_BFM_ON TRUE"
00000355 4d5f4f4e2054 
0000035b 52554500 
0000035f 01             8059 	.byte	1
00000360 34             8060 	.byte	52
00000361 44454d5f4246   8061 	.strz	"DEM_BFM_OFF FALSE"

                                                                      Page 164
                                                              C:\Users\nhuliyap\AppData\Local\Temp\gh_00008cs1.s
00000367 4d5f4f464620 
0000036d 46414c534500 
00000373 01             8062 	.byte	1
00000374 3e             8063 	.byte	62
00000375 44454d5f4246   8064 	.strz	"DEM_BFM_ENABLED DEM_BFM_OFF"
0000037b 4d5f454e4142 
00000381 4c4544204445 
00000387 4d5f42464d5f 
0000038d 4f464600 
00000391 01             8065 	.byte	1
00000392 44             8066 	.byte	68
00000393 44454d5f4346   8067 	.strz	"DEM_CFG_TRIGGER_TO_STORE_NVM_SUPPORTED FALSE"
00000399 475f54524947 
0000039f 4745525f544f 
000003a5 5f53544f5245 
000003ab 5f4e564d5f53 
000003b1 5550504f5254 
000003b7 45442046414c 
000003bd 534500 
000003c0 01             8068 	.byte	1
000003c1 45             8069 	.byte	69
000003c2 44454d5f4346   8070 	.strz	"DEM_CFG_SUSPICIOUS_SUPPORT FALSE"
000003c8 475f53555350 
000003ce 4943494f5553 
000003d4 5f535550504f 
000003da 52542046414c 
000003e0 534500 
000003e3 01             8071 	.byte	1
000003e4 46             8072 	.byte	70
000003e5 44454d5f4346   8073 	.strz	"DEM_CFG_DEBTIMEBASED_CONFIGURED_CYCLICTASKTIME FALSE"
000003eb 475f44454254 
000003f1 494d45424153 
000003f7 45445f434f4e 
000003fd 464947555245 
00000403 445f4359434c 
00000409 49435441534b 
0000040f 54494d452046 
00000415 414c534500 
0000041a 01             8074 	.byte	1
0000041b 47             8075 	.byte	71
0000041c 44454d5f4346   8076 	.strz	"DEM_CFG_EVMEMGENERIC_SUPPORTED TRUE"
00000422 475f45564d45 
00000428 4d47454e4552 
0000042e 49435f535550 
00000434 504f52544544 
0000043a 205452554500 
00000440 01             8077 	.byte	1
00000441 49             8078 	.byte	73
00000442 44454d5f4346   8079 	.strz	"DEM_CFG_VERSION_INFO_API_OFF STD_OFF"
00000448 475f56455253 
0000044e 494f4e5f494e 
00000454 464f5f415049 
0000045a 5f4f46462053 
00000460 54445f4f4646 
00000466 00 
00000467 01             8080 	.byte	1
00000468 4a             8081 	.byte	74
00000469 44454d5f4346   8082 	.strz	"DEM_CFG_VERSION_INFO_API_ON STD_ON"
0000046f 475f56455253 
00000475 494f4e5f494e 
0000047b 464f5f415049 

                                                                      Page 165
                                                              C:\Users\nhuliyap\AppData\Local\Temp\gh_00008cs1.s
00000481 5f4f4e205354 
00000487 445f4f4e00 
0000048c 01             8083 	.byte	1
0000048d 4b             8084 	.byte	75
0000048e 44454d5f4346   8085 	.strz	"DEM_CFG_VERSION_INFO_API DEM_CFG_VERSION_INFO_API_OFF"
00000494 475f56455253 
0000049a 494f4e5f494e 
000004a0 464f5f415049 
000004a6 2044454d5f43 
000004ac 46475f564552 
000004b2 53494f4e5f49 
000004b8 4e464f5f4150 
000004be 495f4f464600 
000004c4 01             8086 	.byte	1
000004c5 4d             8087 	.byte	77
000004c6 44454d5f4346   8088 	.strz	"DEM_CFG_ALTERNATIVEDTC_OFF STD_OFF"
000004cc 475f414c5445 
000004d2 524e41544956 
000004d8 454454435f4f 
000004de 464620535444 
000004e4 5f4f464600 
000004e9 01             8089 	.byte	1
000004ea 4e             8090 	.byte	78
000004eb 44454d5f4346   8091 	.strz	"DEM_CFG_ALTERNATIVEDTC_ON STD_ON"
000004f1 475f414c5445 
000004f7 524e41544956 
000004fd 454454435f4f 
00000503 4e205354445f 
00000509 4f4e00 
0000050c 01             8092 	.byte	1
0000050d 4f             8093 	.byte	79
0000050e 44454d5f4346   8094 	.strz	"DEM_CFG_ALTERNATIVEDTC DEM_CFG_ALTERNATIVEDTC_OFF"
00000514 475f414c5445 
0000051a 524e41544956 
00000520 454454432044 
00000526 454d5f434647 
0000052c 5f414c544552 
00000532 4e4154495645 
00000538 4454435f4f46 
0000053e 4600 
00000540 01             8095 	.byte	1
00000541 51             8096 	.byte	81
00000542 44454d5f4346   8097 	.strz	"DEM_CFG_ERASE_ALL_OFF 0u"
00000548 475f45524153 
0000054e 455f414c4c5f 
00000554 4f4646203075 
0000055a 00 
0000055b 01             8098 	.byte	1
0000055c 52             8099 	.byte	82
0000055d 44454d5f4346   8100 	.strz	"DEM_CFG_ERASE_ALL_WITHOUT_HASHID_CHECK 1u"
00000563 475f45524153 
00000569 455f414c4c5f 
0000056f 574954484f55 
00000575 545f48415348 
0000057b 49445f434845 
00000581 434b20317500 
00000587 01             8101 	.byte	1
00000588 53             8102 	.byte	83
00000589 44454d5f4346   8103 	.strz	"DEM_CFG_ERASE_ALL_WITH_HASHID_CHECK 2u"
0000058f 475f45524153 
00000595 455f414c4c5f 

                                                                      Page 166
                                                              C:\Users\nhuliyap\AppData\Local\Temp\gh_00008cs1.s
0000059b 574954485f48 
000005a1 41534849445f 
000005a7 434845434b20 
000005ad 327500 
000005b0 01             8104 	.byte	1
000005b1 54             8105 	.byte	84
000005b2 44454d5f4346   8106 	.strz	"DEM_CFG_ERASE_ALL_DATA_SUPPORTED DEM_CFG_ERASE_ALL_OFF"
000005b8 475f45524153 
000005be 455f414c4c5f 
000005c4 444154415f53 
000005ca 5550504f5254 
000005d0 45442044454d 
000005d6 5f4346475f45 
000005dc 524153455f41 
000005e2 4c4c5f4f4646 
000005e8 00 
000005e9 01             8107 	.byte	1
000005ea 56             8108 	.byte	86
000005eb 44454d5f4346   8109 	.strz	"DEM_CFG_DEPENDENCY_OFF STD_OFF"
000005f1 475f44455045 
000005f7 4e44454e4359 
000005fd 5f4f46462053 
00000603 54445f4f4646 
00000609 00 
0000060a 01             8110 	.byte	1
0000060b 57             8111 	.byte	87
0000060c 44454d5f4346   8112 	.strz	"DEM_CFG_DEPENDENCY_ON STD_ON"
00000612 475f44455045 
00000618 4e44454e4359 
0000061e 5f4f4e205354 
00000624 445f4f4e00 
00000629 01             8113 	.byte	1
0000062a 58             8114 	.byte	88
0000062b 44454d5f4346   8115 	.strz	"DEM_CFG_DEPENDENCY DEM_CFG_DEPENDENCY_OFF"
00000631 475f44455045 
00000637 4e44454e4359 
0000063d 2044454d5f43 
00000643 46475f444550 
00000649 454e44454e43 
0000064f 595f4f464600 
00000655 01             8116 	.byte	1
00000656 5a             8117 	.byte	90
00000657 44454d5f4346   8118 	.strz	"DEM_CFG_INDICATOR_ON STD_ON"
0000065d 475f494e4449 
00000663 4341544f525f 
00000669 4f4e20535444 
0000066f 5f4f4e00 
00000673 01             8119 	.byte	1
00000674 5b             8120 	.byte	91
00000675 44454d5f4346   8121 	.strz	"DEM_CFG_INDICATOR_OFF STD_OFF"
0000067b 475f494e4449 
00000681 4341544f525f 
00000687 4f4646205354 
0000068d 445f4f464600 
00000693 01             8122 	.byte	1
00000694 5c             8123 	.byte	92
00000695 44454d5f4346   8124 	.strz	"DEM_CFG_INDICATOR DEM_CFG_INDICATOR_OFF"
0000069b 475f494e4449 
000006a1 4341544f5220 
000006a7 44454d5f4346 
000006ad 475f494e4449 

                                                                      Page 167
                                                              C:\Users\nhuliyap\AppData\Local\Temp\gh_00008cs1.s
000006b3 4341544f525f 
000006b9 4f464600 
000006bd 01             8125 	.byte	1
000006be 5e             8126 	.byte	94
000006bf 44454d5f4346   8127 	.strz	"DEM_CFG_TESTMODE_SUPPORT_ON STD_ON"
000006c5 475f54455354 
000006cb 4d4f44455f53 
000006d1 5550504f5254 
000006d7 5f4f4e205354 
000006dd 445f4f4e00 
000006e2 01             8128 	.byte	1
000006e3 5f             8129 	.byte	95
000006e4 44454d5f4346   8130 	.strz	"DEM_CFG_TESTMODE_SUPPORT_OFF STD_OFF"
000006ea 475f54455354 
000006f0 4d4f44455f53 
000006f6 5550504f5254 
000006fc 5f4f46462053 
00000702 54445f4f4646 
00000708 00 
00000709 01             8131 	.byte	1
0000070a 61             8132 	.byte	97
0000070b 44454d5f4346   8133 	.strz	"DEM_CFG_TESTMODE_SUPPORT DEM_CFG_TESTMODE_SUPPORT_OFF"
00000711 475f54455354 
00000717 4d4f44455f53 
0000071d 5550504f5254 
00000723 2044454d5f43 
00000729 46475f544553 
0000072f 544d4f44455f 
00000735 535550504f52 
0000073b 545f4f464600 
00000741 01             8134 	.byte	1
00000742 63             8135 	.byte	99
00000743 44454d5f4346   8136 	.strz	"DEM_CFG_CHECKAPICONSISTENCY TRUE"
00000749 475f43484543 
0000074f 4b415049434f 
00000755 4e5349535445 
0000075b 4e4359205452 
00000761 554500 
00000764 01             8137 	.byte	1
00000765 65             8138 	.byte	101
00000766 44454d5f4346   8139 	.strz	"DEM_CFG_DEBUGDATA_OFF 0"
0000076c 475f44454255 
00000772 47444154415f 
00000778 4f4646203000 
0000077e 01             8140 	.byte	1
0000077f 67             8141 	.byte	103
00000780 44454d5f4346   8142 	.strz	"DEM_CFG_DEBUGDATA_32BIT (0+4)"
00000786 475f44454255 
0000078c 47444154415f 
00000792 333242495420 
00000798 28302b342900 
0000079e 01             8143 	.byte	1
0000079f 68             8144 	.byte	104
000007a0 44454d5f4346   8145 	.strz	"DEM_CFG_DEBUGDATA DEM_CFG_DEBUGDATA_32BIT"
000007a6 475f44454255 
000007ac 474441544120 
000007b2 44454d5f4346 
000007b8 475f44454255 
000007be 47444154415f 
000007c4 333242495400 
000007ca 01             8146 	.byte	1

                                                                      Page 168
                                                              C:\Users\nhuliyap\AppData\Local\Temp\gh_00008cs1.s
000007cb 6c             8147 	.byte	108
000007cc 44454d5f4445   8148 	.strz	"DEM_DEBUGDATA_PARAM(A,B) ,A,B"
000007d2 425547444154 
000007d8 415f50415241 
000007de 4d28412c4229 
000007e4 202c412c4200 
000007ea 04             8149 	.byte	4
000007eb 03             8150 	.byte	3
000007ec 08             8151 	.byte	8
000007ed 0d             8152 	.byte	13
000007ee 03             8153 	.byte	3
000007ef 1c             8154 	.byte	28
000007f0 0e             8155 	.byte	14
000007f1 03             8156 	.byte	3
000007f2 06             8157 	.byte	6
000007f3 0b             8158 	.byte	11
000007f4 04             8159 	.byte	4
000007f5 04             8160 	.byte	4
000007f6 01             8161 	.byte	1
000007f7 27             8162 	.byte	39
000007f8 44454d5f4346   8163 	.strz	"DEM_CFG_CLIENT_NUMBER_OF_CLIENTS_USING_RTE 0u"
000007fe 475f434c4945 
00000804 4e545f4e554d 
0000080a 4245525f4f46 
00000810 5f434c49454e 
00000816 54535f555349 
0000081c 4e475f525445 
00000822 20307500 
00000826 04             8164 	.byte	4
00000827 03             8165 	.byte	3
00000828 09             8166 	.byte	9
00000829 0f             8167 	.byte	15
0000082a 01             8168 	.byte	1
0000082b 21             8169 	.byte	33
0000082c 44454d5f4e4f   8170 	.strz	"DEM_NODEID_INVALID 0"
00000832 444549445f49 
00000838 4e56414c4944 
0000083e 203000 
00000841 01             8171 	.byte	1
00000842 22             8172 	.byte	34
00000843 44454d5f4e4f   8173 	.strz	"DEM_NODEID_COUNT 0u"
00000849 444549445f43 
0000084f 4f554e542030 
00000855 7500 
00000857 01             8174 	.byte	1
00000858 23             8175 	.byte	35
00000859 44454d5f4e4f   8176 	.strz	"DEM_NODEID_ARRAYLENGTH (DEM_NODEID_COUNT+1u)"
0000085f 444549445f41 
00000865 525241594c45 
0000086b 4e4754482028 
00000871 44454d5f4e4f 
00000877 444549445f43 
0000087d 4f554e542b31 
00000883 752900 
00000886 04             8177 	.byte	4
00000887 03             8178 	.byte	3
00000888 0f             8179 	.byte	15
00000889 10             8180 	.byte	16
0000088a 04             8181 	.byte	4
0000088b 03             8182 	.byte	3
0000088c 10             8183 	.byte	16

                                                                      Page 169
                                                              C:\Users\nhuliyap\AppData\Local\Temp\gh_00008cs1.s
0000088d 11             8184 	.byte	17
0000088e 01             8185 	.byte	1
0000088f 08             8186 	.byte	8
00000890 44454d5f5544   8187 	.strz	"DEM_UDS_STATUS_TF 0x01"
00000896 535f53544154 
0000089c 55535f544620 
000008a2 3078303100 
000008a7 01             8188 	.byte	1
000008a8 09             8189 	.byte	9
000008a9 44454d5f5544   8190 	.strz	"DEM_UDS_STATUS_TFTOC 0x02"
000008af 535f53544154 
000008b5 55535f544654 
000008bb 4f4320307830 
000008c1 3200 
000008c3 01             8191 	.byte	1
000008c4 0a             8192 	.byte	10
000008c5 44454d5f5544   8193 	.strz	"DEM_UDS_STATUS_PDTC 0x04"
000008cb 535f53544154 
000008d1 55535f504454 
000008d7 432030783034 
000008dd 00 
000008de 01             8194 	.byte	1
000008df 0b             8195 	.byte	11
000008e0 44454d5f5544   8196 	.strz	"DEM_UDS_STATUS_CDTC 0x08"
000008e6 535f53544154 
000008ec 55535f434454 
000008f2 432030783038 
000008f8 00 
000008f9 01             8197 	.byte	1
000008fa 0c             8198 	.byte	12
000008fb 44454d5f5544   8199 	.strz	"DEM_UDS_STATUS_TNCSLC 0x10"
00000901 535f53544154 
00000907 55535f544e43 
0000090d 534c43203078 
00000913 313000 
00000916 01             8200 	.byte	1
00000917 0d             8201 	.byte	13
00000918 44454d5f5544   8202 	.strz	"DEM_UDS_STATUS_TFSLC 0x20"
0000091e 535f53544154 
00000924 55535f544653 
0000092a 4c4320307832 
00000930 3000 
00000932 01             8203 	.byte	1
00000933 0e             8204 	.byte	14
00000934 44454d5f5544   8205 	.strz	"DEM_UDS_STATUS_TNCTOC 0x40"
0000093a 535f53544154 
00000940 55535f544e43 
00000946 544f43203078 
0000094c 343000 
0000094f 01             8206 	.byte	1
00000950 0f             8207 	.byte	15
00000951 44454d5f5544   8208 	.strz	"DEM_UDS_STATUS_WIR 0x80"
00000957 535f53544154 
0000095d 55535f574952 
00000963 203078383000 
00000969 01             8209 	.byte	1
0000096a 18             8210 	.byte	24
0000096b 44454d5f4454   8211 	.strz	"DEM_DTC_ORIGIN_PRIMARY_MEMORY 0x01"
00000971 435f4f524947 
00000977 494e5f505249 
0000097d 4d4152595f4d 

                                                                      Page 170
                                                              C:\Users\nhuliyap\AppData\Local\Temp\gh_00008cs1.s
00000983 454d4f525920 
00000989 3078303100 
0000098e 01             8212 	.byte	1
0000098f 19             8213 	.byte	25
00000990 44454d5f4454   8214 	.strz	"DEM_DTC_ORIGIN_MIRROR_MEMORY 0x02"
00000996 435f4f524947 
0000099c 494e5f4d4952 
000009a2 524f525f4d45 
000009a8 4d4f52592030 
000009ae 78303200 
000009b2 01             8215 	.byte	1
000009b3 1a             8216 	.byte	26
000009b4 44454d5f4454   8217 	.strz	"DEM_DTC_ORIGIN_PERMANENT_MEMORY 0x03"
000009ba 435f4f524947 
000009c0 494e5f504552 
000009c6 4d414e454e54 
000009cc 5f4d454d4f52 
000009d2 592030783033 
000009d8 00 
000009d9 01             8218 	.byte	1
000009da 20             8219 	.byte	32
000009db 44454d5f4454   8220 	.strz	"DEM_DTC_ORIGIN_SECONDARY_MEMORY 0x05"
000009e1 435f4f524947 
000009e7 494e5f534543 
000009ed 4f4e44415259 
000009f3 5f4d454d4f52 
000009f9 592030783035 
000009ff 00 
00000a00 04             8221 	.byte	4
00000a01 01             8222 	.byte	1
00000a02 16             8223 	.byte	22
00000a03 44454d5f494e   8224 	.strz	"DEM_INLINE LOCAL_INLINE"
00000a09 4c494e45204c 
00000a0f 4f43414c5f49 
00000a15 4e4c494e4500 
00000a1b 01             8225 	.byte	1
00000a1c 17             8226 	.byte	23
00000a1d 44454d5f554e   8227 	.strz	"DEM_UNUSED_PARAM(P) ((void)(P))"
00000a23 555345445f50 
00000a29 4152414d2850 
00000a2f 29202828766f 
00000a35 696429285029 
00000a3b 2900 
00000a3d 01             8228 	.byte	1
00000a3e 60             8229 	.byte	96
00000a3f 44454d5f4649   8230 	.strz	"DEM_FIRST_FAILED_DTC 0x01"
00000a45 5253545f4641 
00000a4b 494c45445f44 
00000a51 544320307830 
00000a57 3100 
00000a59 01             8231 	.byte	1
00000a5a 61             8232 	.byte	97
00000a5b 44454d5f4d4f   8233 	.strz	"DEM_MOST_RECENT_FAILED_DTC 0x02"
00000a61 53545f524543 
00000a67 454e545f4641 
00000a6d 494c45445f44 
00000a73 544320307830 
00000a79 3200 
00000a7b 01             8234 	.byte	1
00000a7c 62             8235 	.byte	98
00000a7d 44454d5f4649   8236 	.strz	"DEM_FIRST_DET_CONFIRMED_DTC 0x03"

                                                                      Page 171
                                                              C:\Users\nhuliyap\AppData\Local\Temp\gh_00008cs1.s
00000a83 5253545f4445 
00000a89 545f434f4e46 
00000a8f 49524d45445f 
00000a95 445443203078 
00000a9b 303300 
00000a9e 01             8237 	.byte	1
00000a9f 63             8238 	.byte	99
00000aa0 44454d5f4d4f   8239 	.strz	"DEM_MOST_REC_DET_CONFIRMED_DTC 0x04"
00000aa6 53545f524543 
00000aac 5f4445545f43 
00000ab2 4f4e4649524d 
00000ab8 45445f445443 
00000abe 203078303400 
00000ac4 01             8240 	.byte	1
00000ac5 64             8241 	.byte	100
00000ac6 44454d5f4649   8242 	.strz	"DEM_FIRST_FAILED_OBD_DTC 0x05"
00000acc 5253545f4641 
00000ad2 494c45445f4f 
00000ad8 42445f445443 
00000ade 203078303500 
00000ae4 01             8243 	.byte	1
00000ae5 65             8244 	.byte	101
00000ae6 44454d5f4d4f   8245 	.strz	"DEM_MOST_RECENT_FAILED_OBD_DTC 0x06"
00000aec 53545f524543 
00000af2 454e545f4641 
00000af8 494c45445f4f 
00000afe 42445f445443 
00000b04 203078303600 
00000b0a 04             8246 	.byte	4
00000b0b 01             8247 	.byte	1
00000b0c 38             8248 	.byte	56
00000b0d 44454d5f5354   8249 	.strz	"DEM_START_SEC_CODE "
00000b13 4152545f5345 
00000b19 435f434f4445 
00000b1f 2000 
00000b21 03             8250 	.byte	3
00000b22 39             8251 	.byte	57
00000b23 12             8252 	.byte	18
00000b24 03             8253 	.byte	3
00000b25 08             8254 	.byte	8
00000b26 13             8255 	.byte	19
00000b27 01             8256 	.byte	1
00000b28 06             8257 	.byte	6
00000b29 44454d5f4d45   8258 	.strz	"DEM_MEMMAP_ERROR "
00000b2f 4d4d41505f45 
00000b35 52524f522000 
00000b3b 01             8259 	.byte	1
00000b3c 51             8260 	.byte	81
00000b3d 4253575f5354   8261 	.strz	"BSW_START_SEC_CODE "
00000b43 4152545f5345 
00000b49 435f434f4445 
00000b4f 2000 
00000b51 03             8262 	.byte	3
00000b52 52             8263 	.byte	82
00000b53 14             8264 	.byte	20
00000b54 01             8265 	.byte	1
00000b55 e408           8266 	.byte	228,8
00000b57 53544152545f   8267 	.strz	"START_SEC_CODE "
00000b5d 5345435f434f 
00000b63 44452000 
00000b67 03             8268 	.byte	3

                                                                      Page 172
                                                              C:\Users\nhuliyap\AppData\Local\Temp\gh_00008cs1.s
00000b68 c509           8269 	.byte	197,9
00000b6a 15             8270 	.byte	21
00000b6b 01             8271 	.byte	1
00000b6c f407           8272 	.byte	244,7
00000b6e 434f44455f53   8273 	.strz	"CODE_SEC_OPEN "
00000b74 45435f4f5045 
00000b7a 4e2000 
00000b7d 04             8274 	.byte	4
00000b7e 04             8275 	.byte	4
00000b7f 01             8276 	.byte	1
00000b80 56             8277 	.byte	86
00000b81 44454d5f5741   8278 	.strz	"DEM_WAS_STARTED_SEC_CODE "
00000b87 535f53544152 
00000b8d 5445445f5345 
00000b93 435f434f4445 
00000b99 2000 
00000b9b 04             8279 	.byte	4
00000b9c 04             8280 	.byte	4
00000b9d 01             8281 	.byte	1
00000b9e 4e             8282 	.byte	78
00000b9f 44454d5f5354   8283 	.strz	"DEM_STOP_SEC_CODE "
00000ba5 4f505f534543 
00000bab 5f434f444520 
00000bb1 00 
00000bb2 03             8284 	.byte	3
00000bb3 4f             8285 	.byte	79
00000bb4 12             8286 	.byte	18
00000bb5 03             8287 	.byte	3
00000bb6 08             8288 	.byte	8
00000bb7 13             8289 	.byte	19
00000bb8 01             8290 	.byte	1
00000bb9 06             8291 	.byte	6
00000bba 44454d5f4d45   8292 	.strz	"DEM_MEMMAP_ERROR "
00000bc0 4d4d41505f45 
00000bc6 52524f522000 
00000bcc 01             8293 	.byte	1
00000bcd 5e             8294 	.byte	94
00000bce 4253575f5354   8295 	.strz	"BSW_STOP_SEC_CODE "
00000bd4 4f505f534543 
00000bda 5f434f444520 
00000be0 00 
00000be1 03             8296 	.byte	3
00000be2 5f             8297 	.byte	95
00000be3 14             8298 	.byte	20
00000be4 01             8299 	.byte	1
00000be5 e808           8300 	.byte	232,8
00000be7 53544f505f53   8301 	.strz	"STOP_SEC_CODE "
00000bed 45435f434f44 
00000bf3 452000 
00000bf6 03             8302 	.byte	3
00000bf7 c509           8303 	.byte	197,9
00000bf9 15             8304 	.byte	21
00000bfa 04             8305 	.byte	4
00000bfb 04             8306 	.byte	4
00000bfc 04             8307 	.byte	4
00000bfd 04             8308 	.byte	4
00000bfe 04             8309 	.byte	4
00000bff 01             8310 	.byte	1
00000c00 10             8311 	.byte	16
00000c01 44454d5f5354   8312 	.strz	"DEM_START_SEC_CODE "
00000c07 4152545f5345 

                                                                      Page 173
                                                              C:\Users\nhuliyap\AppData\Local\Temp\gh_00008cs1.s
00000c0d 435f434f4445 
00000c13 2000 
00000c15 03             8313 	.byte	3
00000c16 11             8314 	.byte	17
00000c17 12             8315 	.byte	18
00000c18 03             8316 	.byte	3
00000c19 08             8317 	.byte	8
00000c1a 13             8318 	.byte	19
00000c1b 01             8319 	.byte	1
00000c1c 06             8320 	.byte	6
00000c1d 44454d5f4d45   8321 	.strz	"DEM_MEMMAP_ERROR "
00000c23 4d4d41505f45 
00000c29 52524f522000 
00000c2f 01             8322 	.byte	1
00000c30 51             8323 	.byte	81
00000c31 4253575f5354   8324 	.strz	"BSW_START_SEC_CODE "
00000c37 4152545f5345 
00000c3d 435f434f4445 
00000c43 2000 
00000c45 03             8325 	.byte	3
00000c46 52             8326 	.byte	82
00000c47 14             8327 	.byte	20
00000c48 01             8328 	.byte	1
00000c49 e408           8329 	.byte	228,8
00000c4b 53544152545f   8330 	.strz	"START_SEC_CODE "
00000c51 5345435f434f 
00000c57 44452000 
00000c5b 03             8331 	.byte	3
00000c5c c509           8332 	.byte	197,9
00000c5e 15             8333 	.byte	21
00000c5f 01             8334 	.byte	1
00000c60 f407           8335 	.byte	244,7
00000c62 434f44455f53   8336 	.strz	"CODE_SEC_OPEN "
00000c68 45435f4f5045 
00000c6e 4e2000 
00000c71 04             8337 	.byte	4
00000c72 04             8338 	.byte	4
00000c73 01             8339 	.byte	1
00000c74 56             8340 	.byte	86
00000c75 44454d5f5741   8341 	.strz	"DEM_WAS_STARTED_SEC_CODE "
00000c7b 535f53544152 
00000c81 5445445f5345 
00000c87 435f434f4445 
00000c8d 2000 
00000c8f 04             8342 	.byte	4
00000c90 04             8343 	.byte	4
00000c91 01             8344 	.byte	1
00000c92 2b             8345 	.byte	43
00000c93 44454d5f5354   8346 	.strz	"DEM_STOP_SEC_CODE "
00000c99 4f505f534543 
00000c9f 5f434f444520 
00000ca5 00 
00000ca6 03             8347 	.byte	3
00000ca7 2c             8348 	.byte	44
00000ca8 12             8349 	.byte	18
00000ca9 03             8350 	.byte	3
00000caa 08             8351 	.byte	8
00000cab 13             8352 	.byte	19
00000cac 01             8353 	.byte	1
00000cad 06             8354 	.byte	6
00000cae 44454d5f4d45   8355 	.strz	"DEM_MEMMAP_ERROR "

                                                                      Page 174
                                                              C:\Users\nhuliyap\AppData\Local\Temp\gh_00008cs1.s
00000cb4 4d4d41505f45 
00000cba 52524f522000 
00000cc0 01             8356 	.byte	1
00000cc1 5e             8357 	.byte	94
00000cc2 4253575f5354   8358 	.strz	"BSW_STOP_SEC_CODE "
00000cc8 4f505f534543 
00000cce 5f434f444520 
00000cd4 00 
00000cd5 03             8359 	.byte	3
00000cd6 5f             8360 	.byte	95
00000cd7 14             8361 	.byte	20
00000cd8 01             8362 	.byte	1
00000cd9 e808           8363 	.byte	232,8
00000cdb 53544f505f53   8364 	.strz	"STOP_SEC_CODE "
00000ce1 45435f434f44 
00000ce7 452000 
00000cea 03             8365 	.byte	3
00000ceb c509           8366 	.byte	197,9
00000ced 15             8367 	.byte	21
00000cee 04             8368 	.byte	4
00000cef 04             8369 	.byte	4
00000cf0 04             8370 	.byte	4
00000cf1 04             8371 	.byte	4
00000cf2 04             8372 	.byte	4
00000cf3 03             8373 	.byte	3
00000cf4 06             8374 	.byte	6
00000cf5 16             8375 	.byte	22
00000cf6 01             8376 	.byte	1
00000cf7 14             8377 	.byte	20
00000cf8 4e564d5f4341   8378 	.strz	"NVM_CAT01_IDX01_REAL_SIZE 1U"
00000cfe 5430315f4944 
00000d04 5830315f5245 
00000d0a 414c5f53495a 
00000d10 4520315500 
00000d15 01             8379 	.byte	1
00000d16 15             8380 	.byte	21
00000d17 4e564d5f4341   8381 	.strz	"NVM_CAT01_IDX02_REAL_SIZE 25U"
00000d1d 5430315f4944 
00000d23 5830325f5245 
00000d29 414c5f53495a 
00000d2f 452032355500 
00000d35 01             8382 	.byte	1
00000d36 16             8383 	.byte	22
00000d37 4e564d5f4341   8384 	.strz	"NVM_CAT01_IDX03_REAL_SIZE 4U"
00000d3d 5430315f4944 
00000d43 5830335f5245 
00000d49 414c5f53495a 
00000d4f 4520345500 
00000d54 01             8385 	.byte	1
00000d55 17             8386 	.byte	23
00000d56 4e564d5f4341   8387 	.strz	"NVM_CAT01_IDX04_REAL_SIZE 1U"
00000d5c 5430315f4944 
00000d62 5830345f5245 
00000d68 414c5f53495a 
00000d6e 4520315500 
00000d73 01             8388 	.byte	1
00000d74 18             8389 	.byte	24
00000d75 4e564d5f4341   8390 	.strz	"NVM_CAT01_IDX05_REAL_SIZE 2U"
00000d7b 5430315f4944 
00000d81 5830355f5245 
00000d87 414c5f53495a 

                                                                      Page 175
                                                              C:\Users\nhuliyap\AppData\Local\Temp\gh_00008cs1.s
00000d8d 4520325500 
00000d92 01             8391 	.byte	1
00000d93 19             8392 	.byte	25
00000d94 4e564d5f4341   8393 	.strz	"NVM_CAT01_IDX06_REAL_SIZE 8U"
00000d9a 5430315f4944 
00000da0 5830365f5245 
00000da6 414c5f53495a 
00000dac 4520385500 
00000db1 01             8394 	.byte	1
00000db2 1a             8395 	.byte	26
00000db3 4e564d5f4341   8396 	.strz	"NVM_CAT01_IDX07_REAL_SIZE 5U"
00000db9 5430315f4944 
00000dbf 5830375f5245 
00000dc5 414c5f53495a 
00000dcb 4520355500 
00000dd0 01             8397 	.byte	1
00000dd1 1b             8398 	.byte	27
00000dd2 4e564d5f4341   8399 	.strz	"NVM_CAT01_IDX08_REAL_SIZE 1U"
00000dd8 5430315f4944 
00000dde 5830385f5245 
00000de4 414c5f53495a 
00000dea 4520315500 
00000def 01             8400 	.byte	1
00000df0 1c             8401 	.byte	28
00000df1 4e564d5f4341   8402 	.strz	"NVM_CAT01_IDX09_REAL_SIZE 1U"
00000df7 5430315f4944 
00000dfd 5830395f5245 
00000e03 414c5f53495a 
00000e09 4520315500 
00000e0e 01             8403 	.byte	1
00000e0f 1d             8404 	.byte	29
00000e10 4e564d5f4341   8405 	.strz	"NVM_CAT01_IDX10_REAL_SIZE 4U"
00000e16 5430315f4944 
00000e1c 5831305f5245 
00000e22 414c5f53495a 
00000e28 4520345500 
00000e2d 01             8406 	.byte	1
00000e2e 24             8407 	.byte	36
00000e2f 4e564d5f4341   8408 	.byte	78,86,77,95,67,65,84,48,49,95,83,73,90,69,95,66,89,84,69,83,32,40,78,86,77,95,67,65,84,48,49,95,73,68,88,48,49,95,82,69,65,76,95,83,73,90,69,32,43,32,78,86,77,95,67,65,84,48,49,95,73
00000e35 5430315f5349 
00000e3b 5a455f425954 
00000e41 455320284e56 
00000e47 4d5f43415430 
00000e4d 315f49445830 
00000e53 315f5245414c 
00000e59 5f53495a4520 
00000e5f 2b204e564d5f 
00000e65 43415430315f 
00000e6b 49 
00000e6c 445830325f52   8409 	.byte	68,88,48,50,95,82,69,65,76,95,83,73,90,69,32,43,32,78,86,77,95,67,65,84,48,49,95,73,68,88,48,51,95,82,69,65,76,95,83,73,90,69,32,43,32,78,86,77,95,67,65,84,48,49,95,73,68,88,48,52,95
00000e72 45414c5f5349 
00000e78 5a45202b204e 
00000e7e 564d5f434154 
00000e84 30315f494458 
00000e8a 30335f524541 
00000e90 4c5f53495a45 
00000e96 202b204e564d 
00000e9c 5f4341543031 
00000ea2 5f4944583034 
00000ea8 5f 
00000ea9 5245414c5f53   8410 	.byte	82,69,65,76,95,83,73,90,69,32,43,32,78,86,77,95,67,65,84,48,49,95,73,68,88,48,53,95,82,69,65,76,95,83,73,90,69,32,43,32,78,86,77,95,67,65,84,48,49,95,73,68,88,48,54,95,82,69,65,76,95

                                                                      Page 176
                                                              C:\Users\nhuliyap\AppData\Local\Temp\gh_00008cs1.s
00000eaf 495a45202b20 
00000eb5 4e564d5f4341 
00000ebb 5430315f4944 
00000ec1 5830355f5245 
00000ec7 414c5f53495a 
00000ecd 45202b204e56 
00000ed3 4d5f43415430 
00000ed9 315f49445830 
00000edf 365f5245414c 
00000ee5 5f 
00000ee6 53495a45202b   8411 	.byte	83,73,90,69,32,43,32,78,86,77,95,67,65,84,48,49,95,73,68,88,48,55,95,82,69,65,76,95,83,73,90,69,32,43,32,78,86,77,95,67,65,84,48,49,95,73,68,88,48,56,95,82,69,65,76,95,83,73,90,69,32
00000eec 204e564d5f43 
00000ef2 415430315f49 
00000ef8 445830375f52 
00000efe 45414c5f5349 
00000f04 5a45202b204e 
00000f0a 564d5f434154 
00000f10 30315f494458 
00000f16 30385f524541 
00000f1c 4c5f53495a45 
00000f22 20 
00000f23 2b204e564d5f   8412 	.byte	43,32,78,86,77,95,67,65,84,48,49,95,73,68,88,48,57,95,82,69,65,76,95,83,73,90,69,32,43,32,78,86,77,95,67,65,84,48,49,95,73,68,88,49,48,95,82,69,65,76,95,83,73,90,69,41,0
00000f29 43415430315f 
00000f2f 49445830395f 
00000f35 5245414c5f53 
00000f3b 495a45202b20 
00000f41 4e564d5f4341 
00000f47 5430315f4944 
00000f4d 5831305f5245 
00000f53 414c5f53495a 
00000f59 452900 
00000f5c 01             8413 	.byte	1
00000f5d 3e             8414 	.byte	62
00000f5e 4e564d5f4341   8415 	.strz	"NVM_CAT02_IDX01_REAL_SIZE 1U"
00000f64 5430325f4944 
00000f6a 5830315f5245 
00000f70 414c5f53495a 
00000f76 4520315500 
00000f7b 01             8416 	.byte	1
00000f7c 3f             8417 	.byte	63
00000f7d 4e564d5f4341   8418 	.strz	"NVM_CAT02_IDX02_REAL_SIZE 1U"
00000f83 5430325f4944 
00000f89 5830325f5245 
00000f8f 414c5f53495a 
00000f95 4520315500 
00000f9a 01             8419 	.byte	1
00000f9b 40             8420 	.byte	64
00000f9c 4e564d5f4341   8421 	.strz	"NVM_CAT02_IDX03_REAL_SIZE 10U"
00000fa2 5430325f4944 
00000fa8 5830335f5245 
00000fae 414c5f53495a 
00000fb4 452031305500 
00000fba 01             8422 	.byte	1
00000fbb 41             8423 	.byte	65
00000fbc 4e564d5f4341   8424 	.strz	"NVM_CAT02_IDX04_REAL_SIZE 10U"
00000fc2 5430325f4944 
00000fc8 5830345f5245 
00000fce 414c5f53495a 
00000fd4 452031305500 
00000fda 01             8425 	.byte	1
00000fdb 42             8426 	.byte	66

                                                                      Page 177
                                                              C:\Users\nhuliyap\AppData\Local\Temp\gh_00008cs1.s
00000fdc 4e564d5f4341   8427 	.strz	"NVM_CAT02_IDX05_REAL_SIZE 10U"
00000fe2 5430325f4944 
00000fe8 5830355f5245 
00000fee 414c5f53495a 
00000ff4 452031305500 
00000ffa 01             8428 	.byte	1
00000ffb 43             8429 	.byte	67
00000ffc 4e564d5f4341   8430 	.strz	"NVM_CAT02_IDX06_REAL_SIZE 1U"
00001002 5430325f4944 
00001008 5830365f5245 
0000100e 414c5f53495a 
00001014 4520315500 
00001019 01             8431 	.byte	1
0000101a 44             8432 	.byte	68
0000101b 4e564d5f4341   8433 	.strz	"NVM_CAT02_IDX07_REAL_SIZE 1U"
00001021 5430325f4944 
00001027 5830375f5245 
0000102d 414c5f53495a 
00001033 4520315500 
00001038 01             8434 	.byte	1
00001039 45             8435 	.byte	69
0000103a 4e564d5f4341   8436 	.strz	"NVM_CAT02_IDX08_REAL_SIZE 1U"
00001040 5430325f4944 
00001046 5830385f5245 
0000104c 414c5f53495a 
00001052 4520315500 
00001057 01             8437 	.byte	1
00001058 46             8438 	.byte	70
00001059 4e564d5f4341   8439 	.strz	"NVM_CAT02_IDX09_REAL_SIZE 1U"
0000105f 5430325f4944 
00001065 5830395f5245 
0000106b 414c5f53495a 
00001071 4520315500 
00001076 01             8440 	.byte	1
00001077 47             8441 	.byte	71
00001078 4e564d5f4341   8442 	.strz	"NVM_CAT02_IDX10_REAL_SIZE 1U"
0000107e 5430325f4944 
00001084 5831305f5245 
0000108a 414c5f53495a 
00001090 4520315500 
00001095 01             8443 	.byte	1
00001096 48             8444 	.byte	72
00001097 4e564d5f4341   8445 	.strz	"NVM_CAT02_IDX11_REAL_SIZE 3U"
0000109d 5430325f4944 
000010a3 5831315f5245 
000010a9 414c5f53495a 
000010af 4520335500 
000010b4 01             8446 	.byte	1
000010b5 49             8447 	.byte	73
000010b6 4e564d5f4341   8448 	.strz	"NVM_CAT02_IDX12_REAL_SIZE 12U"
000010bc 5430325f4944 
000010c2 5831325f5245 
000010c8 414c5f53495a 
000010ce 452031325500 
000010d4 01             8449 	.byte	1
000010d5 4b             8450 	.byte	75
000010d6 4e564d5f4341   8451 	.byte	78,86,77,95,67,65,84,48,50,95,83,73,90,69,95,66,89,84,69,83,32,40,78,86,77,95,67,65,84,48,50,95,73,68,88,48,49,95,82,69,65,76,95,83,73,90,69,32,43,32,78,86,77,95,67,65,84,48,50,95,73
000010dc 5430325f5349 
000010e2 5a455f425954 
000010e8 455320284e56 
000010ee 4d5f43415430 

                                                                      Page 178
                                                              C:\Users\nhuliyap\AppData\Local\Temp\gh_00008cs1.s
000010f4 325f49445830 
000010fa 315f5245414c 
00001100 5f53495a4520 
00001106 2b204e564d5f 
0000110c 43415430325f 
00001112 49 
00001113 445830325f52   8452 	.byte	68,88,48,50,95,82,69,65,76,95,83,73,90,69,32,43,32,78,86,77,95,67,65,84,48,50,95,73,68,88,48,51,95,82,69,65,76,95,83,73,90,69,32,43,32,78,86,77,95,67,65,84,48,50,95,73,68,88,48,52,95
00001119 45414c5f5349 
0000111f 5a45202b204e 
00001125 564d5f434154 
0000112b 30325f494458 
00001131 30335f524541 
00001137 4c5f53495a45 
0000113d 202b204e564d 
00001143 5f4341543032 
00001149 5f4944583034 
0000114f 5f 
00001150 5245414c5f53   8453 	.byte	82,69,65,76,95,83,73,90,69,32,43,32,78,86,77,95,67,65,84,48,50,95,73,68,88,48,53,95,82,69,65,76,95,83,73,90,69,32,43,32,78,86,77,95,67,65,84,48,50,95,73,68,88,48,54,95,82,69,65,76,95
00001156 495a45202b20 
0000115c 4e564d5f4341 
00001162 5430325f4944 
00001168 5830355f5245 
0000116e 414c5f53495a 
00001174 45202b204e56 
0000117a 4d5f43415430 
00001180 325f49445830 
00001186 365f5245414c 
0000118c 5f 
0000118d 53495a45202b   8454 	.byte	83,73,90,69,32,43,32,78,86,77,95,67,65,84,48,50,95,73,68,88,48,55,95,82,69,65,76,95,83,73,90,69,32,43,32,78,86,77,95,67,65,84,48,50,95,73,68,88,48,56,95,82,69,65,76,95,83,73,90,69,32
00001193 204e564d5f43 
00001199 415430325f49 
0000119f 445830375f52 
000011a5 45414c5f5349 
000011ab 5a45202b204e 
000011b1 564d5f434154 
000011b7 30325f494458 
000011bd 30385f524541 
000011c3 4c5f53495a45 
000011c9 20 
000011ca 2b204e564d5f   8455 	.byte	43,32,78,86,77,95,67,65,84,48,50,95,73,68,88,48,57,95,82,69,65,76,95,83,73,90,69,32,43,32,78,86,77,95,67,65,84,48,50,95,73,68,88,49,48,95,82,69,65,76,95,83,73,90,69,32,43,32,78,86,77
000011d0 43415430325f 
000011d6 49445830395f 
000011dc 5245414c5f53 
000011e2 495a45202b20 
000011e8 4e564d5f4341 
000011ee 5430325f4944 
000011f4 5831305f5245 
000011fa 414c5f53495a 
00001200 45202b204e56 
00001206 4d 
00001207 5f4341543032   8456 	.byte	95,67,65,84,48,50,95,73,68,88,49,49,95,82,69,65,76,95,83,73,90,69,32,43,32,78,86,77,95,67,65,84,48,50,95,73,68,88,49,50,95,82,69,65,76,95,83,73,90,69,41,0
0000120d 5f4944583131 
00001213 5f5245414c5f 
00001219 53495a45202b 
0000121f 204e564d5f43 
00001225 415430325f49 
0000122b 445831325f52 
00001231 45414c5f5349 
00001237 5a452900 
0000123b 01             8457 	.byte	1
0000123c 60             8458 	.byte	96

                                                                      Page 179
                                                              C:\Users\nhuliyap\AppData\Local\Temp\gh_00008cs1.s
0000123d 4e564d5f4341   8459 	.strz	"NVM_CAT03_IDX01_REAL_SIZE 16U"
00001243 5430335f4944 
00001249 5830315f5245 
0000124f 414c5f53495a 
00001255 452031365500 
0000125b 01             8460 	.byte	1
0000125c 61             8461 	.byte	97
0000125d 4e564d5f4341   8462 	.strz	"NVM_CAT03_IDX02_REAL_SIZE 4U"
00001263 5430335f4944 
00001269 5830325f5245 
0000126f 414c5f53495a 
00001275 4520345500 
0000127a 01             8463 	.byte	1
0000127b 62             8464 	.byte	98
0000127c 4e564d5f4341   8465 	.strz	"NVM_CAT03_IDX03_REAL_SIZE 25U"
00001282 5430335f4944 
00001288 5830335f5245 
0000128e 414c5f53495a 
00001294 452032355500 
0000129a 01             8466 	.byte	1
0000129b 63             8467 	.byte	99
0000129c 4e564d5f4341   8468 	.strz	"NVM_CAT03_IDX04_REAL_SIZE 2U"
000012a2 5430335f4944 
000012a8 5830345f5245 
000012ae 414c5f53495a 
000012b4 4520325500 
000012b9 01             8469 	.byte	1
000012ba 64             8470 	.byte	100
000012bb 4e564d5f4341   8471 	.strz	"NVM_CAT03_IDX05_REAL_SIZE 1U"
000012c1 5430335f4944 
000012c7 5830355f5245 
000012cd 414c5f53495a 
000012d3 4520315500 
000012d8 01             8472 	.byte	1
000012d9 65             8473 	.byte	101
000012da 4e564d5f4341   8474 	.strz	"NVM_CAT03_IDX06_REAL_SIZE 1U"
000012e0 5430335f4944 
000012e6 5830365f5245 
000012ec 414c5f53495a 
000012f2 4520315500 
000012f7 01             8475 	.byte	1
000012f8 66             8476 	.byte	102
000012f9 4e564d5f4341   8477 	.strz	"NVM_CAT03_IDX07_REAL_SIZE 1U"
000012ff 5430335f4944 
00001305 5830375f5245 
0000130b 414c5f53495a 
00001311 4520315500 
00001316 01             8478 	.byte	1
00001317 67             8479 	.byte	103
00001318 4e564d5f4341   8480 	.strz	"NVM_CAT03_IDX08_REAL_SIZE 1U"
0000131e 5430335f4944 
00001324 5830385f5245 
0000132a 414c5f53495a 
00001330 4520315500 
00001335 01             8481 	.byte	1
00001336 6c             8482 	.byte	108
00001337 4e564d5f4341   8483 	.strz	"NVM_CAT03_IDX09_REAL_SIZE 41U"
0000133d 5430335f4944 
00001343 5830395f5245 
00001349 414c5f53495a 
0000134f 452034315500 

                                                                      Page 180
                                                              C:\Users\nhuliyap\AppData\Local\Temp\gh_00008cs1.s
00001355 01             8484 	.byte	1
00001356 6d             8485 	.byte	109
00001357 4e564d5f4341   8486 	.strz	"NVM_CAT03_IDX10_REAL_SIZE 2U"
0000135d 5430335f4944 
00001363 5831305f5245 
00001369 414c5f53495a 
0000136f 4520325500 
00001374 01             8487 	.byte	1
00001375 6e             8488 	.byte	110
00001376 4e564d5f4341   8489 	.strz	"NVM_CAT03_IDX11_REAL_SIZE 2U"
0000137c 5430335f4944 
00001382 5831315f5245 
00001388 414c5f53495a 
0000138e 4520325500 
00001393 01             8490 	.byte	1
00001394 70             8491 	.byte	112
00001395 4e564d5f4341   8492 	.byte	78,86,77,95,67,65,84,48,51,95,83,73,90,69,95,66,89,84,69,83,32,40,78,86,77,95,67,65,84,48,51,95,73,68,88,48,49,95,82,69,65,76,95,83,73,90,69,32,43,32,78,86,77,95,67,65,84,48,51,95,73
0000139b 5430335f5349 
000013a1 5a455f425954 
000013a7 455320284e56 
000013ad 4d5f43415430 
000013b3 335f49445830 
000013b9 315f5245414c 
000013bf 5f53495a4520 
000013c5 2b204e564d5f 
000013cb 43415430335f 
000013d1 49 
000013d2 445830325f52   8493 	.byte	68,88,48,50,95,82,69,65,76,95,83,73,90,69,32,43,32,78,86,77,95,67,65,84,48,51,95,73,68,88,48,51,95,82,69,65,76,95,83,73,90,69,32,43,32,78,86,77,95,67,65,84,48,51,95,73,68,88,48,52,95
000013d8 45414c5f5349 
000013de 5a45202b204e 
000013e4 564d5f434154 
000013ea 30335f494458 
000013f0 30335f524541 
000013f6 4c5f53495a45 
000013fc 202b204e564d 
00001402 5f4341543033 
00001408 5f4944583034 
0000140e 5f 
0000140f 5245414c5f53   8494 	.byte	82,69,65,76,95,83,73,90,69,32,43,32,78,86,77,95,67,65,84,48,51,95,73,68,88,48,53,95,82,69,65,76,95,83,73,90,69,32,43,32,78,86,77,95,67,65,84,48,51,95,73,68,88,48,54,95,82,69,65,76,95
00001415 495a45202b20 
0000141b 4e564d5f4341 
00001421 5430335f4944 
00001427 5830355f5245 
0000142d 414c5f53495a 
00001433 45202b204e56 
00001439 4d5f43415430 
0000143f 335f49445830 
00001445 365f5245414c 
0000144b 5f 
0000144c 53495a45202b   8495 	.byte	83,73,90,69,32,43,32,78,86,77,95,67,65,84,48,51,95,73,68,88,48,55,95,82,69,65,76,95,83,73,90,69,32,43,32,78,86,77,95,67,65,84,48,51,95,73,68,88,48,56,95,82,69,65,76,95,83,73,90,69,32
00001452 204e564d5f43 
00001458 415430335f49 
0000145e 445830375f52 
00001464 45414c5f5349 
0000146a 5a45202b204e 
00001470 564d5f434154 
00001476 30335f494458 
0000147c 30385f524541 
00001482 4c5f53495a45 
00001488 20 
00001489 2b204e564d5f   8496 	.byte	43,32,78,86,77,95,67,65,84,48,51,95,73,68,88,48,57,95,82,69,65,76,95,83,73,90,69,32,43,32,78,86,77,95,67,65,84,48,51,95,73,68,88,49,48,95,82,69,65,76,95,83,73,90,69,32,43,32,78,86,77

                                                                      Page 181
                                                              C:\Users\nhuliyap\AppData\Local\Temp\gh_00008cs1.s
0000148f 43415430335f 
00001495 49445830395f 
0000149b 5245414c5f53 
000014a1 495a45202b20 
000014a7 4e564d5f4341 
000014ad 5430335f4944 
000014b3 5831305f5245 
000014b9 414c5f53495a 
000014bf 45202b204e56 
000014c5 4d 
000014c6 5f4341543033   8497 	.byte	95,67,65,84,48,51,95,73,68,88,49,49,95,82,69,65,76,95,83,73,90,69,41,0
000014cc 5f4944583131 
000014d2 5f5245414c5f 
000014d8 53495a452900 
000014de 01             8498 	.byte	1
000014df 8401           8499 	.byte	132,1
000014e1 4e564d5f4341   8500 	.strz	"NVM_CAT04_IDX01_REAL_SIZE 1U"
000014e7 5430345f4944 
000014ed 5830315f5245 
000014f3 414c5f53495a 
000014f9 4520315500 
000014fe 01             8501 	.byte	1
000014ff 8501           8502 	.byte	133,1
00001501 4e564d5f4341   8503 	.strz	"NVM_CAT04_IDX02_REAL_SIZE 1U"
00001507 5430345f4944 
0000150d 5830325f5245 
00001513 414c5f53495a 
00001519 4520315500 
0000151e 01             8504 	.byte	1
0000151f 8601           8505 	.byte	134,1
00001521 4e564d5f4341   8506 	.strz	"NVM_CAT04_IDX03_REAL_SIZE 1U"
00001527 5430345f4944 
0000152d 5830335f5245 
00001533 414c5f53495a 
00001539 4520315500 
0000153e 01             8507 	.byte	1
0000153f 8701           8508 	.byte	135,1
00001541 4e564d5f4341   8509 	.strz	"NVM_CAT04_IDX04_REAL_SIZE 1U"
00001547 5430345f4944 
0000154d 5830345f5245 
00001553 414c5f53495a 
00001559 4520315500 
0000155e 01             8510 	.byte	1
0000155f 8801           8511 	.byte	136,1
00001561 4e564d5f4341   8512 	.strz	"NVM_CAT04_IDX05_REAL_SIZE 16U"
00001567 5430345f4944 
0000156d 5830355f5245 
00001573 414c5f53495a 
00001579 452031365500 
0000157f 01             8513 	.byte	1
00001580 8a01           8514 	.byte	138,1
00001582 4e564d5f4341   8515 	.strz	"NVM_CAT04_SIZE_BYTES (NVM_CAT04_IDX01_REAL_SIZE + NVM_CAT04_IDX02_REAL_SIZE + NVM_CAT04_IDX03_REAL_SIZE + NVM_CAT04_IDX04_REAL_SIZE + NVM_CAT04_IDX05_REAL_SIZE)"
00001588 5430345f5349 
0000158e 5a455f425954 
00001594 455320284e56 
0000159a 4d5f43415430 
000015a0 345f49445830 
000015a6 315f5245414c 
000015ac 5f53495a4520 
000015b2 2b204e564d5f 
000015b8 43415430345f 

                                                                      Page 182
                                                              C:\Users\nhuliyap\AppData\Local\Temp\gh_00008cs1.s
000015be 49445830325f 
000015c4 5245414c5f53 
000015ca 495a45202b20 
000015d0 4e564d5f4341 
000015d6 5430345f4944 
000015dc 5830335f5245 
000015e2 414c5f53495a 
000015e8 45202b204e56 
000015ee 4d5f43415430 
000015f4 345f49445830 
000015fa 345f5245414c 
00001600 5f53495a4520 
00001606 2b204e564d5f 
0000160c 43415430345f 
00001612 49445830355f 
00001618 5245414c5f53 
0000161e 495a452900 
00001623 01             8516 	.byte	1
00001624 a001           8517 	.byte	160,1
00001626 4e564d5f4341   8518 	.strz	"NVM_CAT05_IDX01_REAL_SIZE 1U"
0000162c 5430355f4944 
00001632 5830315f5245 
00001638 414c5f53495a 
0000163e 4520315500 
00001643 01             8519 	.byte	1
00001644 a101           8520 	.byte	161,1
00001646 4e564d5f4341   8521 	.strz	"NVM_CAT05_IDX02_REAL_SIZE 1U"
0000164c 5430355f4944 
00001652 5830325f5245 
00001658 414c5f53495a 
0000165e 4520315500 
00001663 01             8522 	.byte	1
00001664 a201           8523 	.byte	162,1
00001666 4e564d5f4341   8524 	.strz	"NVM_CAT05_IDX03_REAL_SIZE 1U"
0000166c 5430355f4944 
00001672 5830335f5245 
00001678 414c5f53495a 
0000167e 4520315500 
00001683 01             8525 	.byte	1
00001684 a301           8526 	.byte	163,1
00001686 4e564d5f4341   8527 	.strz	"NVM_CAT05_IDX04_REAL_SIZE 1U"
0000168c 5430355f4944 
00001692 5830345f5245 
00001698 414c5f53495a 
0000169e 4520315500 
000016a3 01             8528 	.byte	1
000016a4 a401           8529 	.byte	164,1
000016a6 4e564d5f4341   8530 	.strz	"NVM_CAT05_IDX05_REAL_SIZE 1U"
000016ac 5430355f4944 
000016b2 5830355f5245 
000016b8 414c5f53495a 
000016be 4520315500 
000016c3 01             8531 	.byte	1
000016c4 a501           8532 	.byte	165,1
000016c6 4e564d5f4341   8533 	.strz	"NVM_CAT05_IDX06_REAL_SIZE 1U"
000016cc 5430355f4944 
000016d2 5830365f5245 
000016d8 414c5f53495a 
000016de 4520315500 
000016e3 01             8534 	.byte	1
000016e4 a601           8535 	.byte	166,1

                                                                      Page 183
                                                              C:\Users\nhuliyap\AppData\Local\Temp\gh_00008cs1.s
000016e6 4e564d5f4341   8536 	.strz	"NVM_CAT05_IDX07_REAL_SIZE 1U"
000016ec 5430355f4944 
000016f2 5830375f5245 
000016f8 414c5f53495a 
000016fe 4520315500 
00001703 01             8537 	.byte	1
00001704 a701           8538 	.byte	167,1
00001706 4e564d5f4341   8539 	.strz	"NVM_CAT05_IDX08_REAL_SIZE 1U"
0000170c 5430355f4944 
00001712 5830385f5245 
00001718 414c5f53495a 
0000171e 4520315500 
00001723 01             8540 	.byte	1
00001724 a801           8541 	.byte	168,1
00001726 4e564d5f4341   8542 	.strz	"NVM_CAT05_IDX09_REAL_SIZE 1U"
0000172c 5430355f4944 
00001732 5830395f5245 
00001738 414c5f53495a 
0000173e 4520315500 
00001743 01             8543 	.byte	1
00001744 a901           8544 	.byte	169,1
00001746 4e564d5f4341   8545 	.strz	"NVM_CAT05_IDX10_REAL_SIZE 39U"
0000174c 5430355f4944 
00001752 5831305f5245 
00001758 414c5f53495a 
0000175e 452033395500 
00001764 01             8546 	.byte	1
00001765 ad01           8547 	.byte	173,1
00001767 4e564d5f4341   8548 	.byte	78,86,77,95,67,65,84,48,53,95,83,73,90,69,95,66,89,84,69,83,32,40,78,86,77,95,67,65,84,48,53,95,73,68,88,48,49,95,82,69,65,76,95,83,73,90,69,32,43,32,78,86,77,95,67,65,84,48,53,95,73
0000176d 5430355f5349 
00001773 5a455f425954 
00001779 455320284e56 
0000177f 4d5f43415430 
00001785 355f49445830 
0000178b 315f5245414c 
00001791 5f53495a4520 
00001797 2b204e564d5f 
0000179d 43415430355f 
000017a3 49 
000017a4 445830325f52   8549 	.byte	68,88,48,50,95,82,69,65,76,95,83,73,90,69,32,43,32,78,86,77,95,67,65,84,48,53,95,73,68,88,48,51,95,82,69,65,76,95,83,73,90,69,32,43,32,78,86,77,95,67,65,84,48,53,95,73,68,88,48,52,95
000017aa 45414c5f5349 
000017b0 5a45202b204e 
000017b6 564d5f434154 
000017bc 30355f494458 
000017c2 30335f524541 
000017c8 4c5f53495a45 
000017ce 202b204e564d 
000017d4 5f4341543035 
000017da 5f4944583034 
000017e0 5f 
000017e1 5245414c5f53   8550 	.byte	82,69,65,76,95,83,73,90,69,32,43,32,78,86,77,95,67,65,84,48,53,95,73,68,88,48,53,95,82,69,65,76,95,83,73,90,69,32,43,32,78,86,77,95,67,65,84,48,53,95,73,68,88,48,54,95,82,69,65,76,95
000017e7 495a45202b20 
000017ed 4e564d5f4341 
000017f3 5430355f4944 
000017f9 5830355f5245 
000017ff 414c5f53495a 
00001805 45202b204e56 
0000180b 4d5f43415430 
00001811 355f49445830 
00001817 365f5245414c 
0000181d 5f 

                                                                      Page 184
                                                              C:\Users\nhuliyap\AppData\Local\Temp\gh_00008cs1.s
0000181e 53495a45202b   8551 	.byte	83,73,90,69,32,43,32,78,86,77,95,67,65,84,48,53,95,73,68,88,48,55,95,82,69,65,76,95,83,73,90,69,32,43,32,78,86,77,95,67,65,84,48,53,95,73,68,88,48,56,95,82,69,65,76,95,83,73,90,69,32
00001824 204e564d5f43 
0000182a 415430355f49 
00001830 445830375f52 
00001836 45414c5f5349 
0000183c 5a45202b204e 
00001842 564d5f434154 
00001848 30355f494458 
0000184e 30385f524541 
00001854 4c5f53495a45 
0000185a 20 
0000185b 2b204e564d5f   8552 	.byte	43,32,78,86,77,95,67,65,84,48,53,95,73,68,88,48,57,95,82,69,65,76,95,83,73,90,69,32,43,32,78,86,77,95,67,65,84,48,53,95,73,68,88,49,48,95,82,69,65,76,95,83,73,90,69,41,0
00001861 43415430355f 
00001867 49445830395f 
0000186d 5245414c5f53 
00001873 495a45202b20 
00001879 4e564d5f4341 
0000187f 5430355f4944 
00001885 5831305f5245 
0000188b 414c5f53495a 
00001891 452900 
00001894 01             8553 	.byte	1
00001895 ba01           8554 	.byte	186,1
00001897 4e564d5f4341   8555 	.strz	"NVM_CAT06_IDX01_REAL_SIZE 48U"
0000189d 5430365f4944 
000018a3 5830315f5245 
000018a9 414c5f53495a 
000018af 452034385500 
000018b5 01             8556 	.byte	1
000018b6 bb01           8557 	.byte	187,1
000018b8 4e564d5f4341   8558 	.strz	"NVM_CAT06_SIZE_BYTES (NVM_CAT06_IDX01_REAL_SIZE)"
000018be 5430365f5349 
000018c4 5a455f425954 
000018ca 455320284e56 
000018d0 4d5f43415430 
000018d6 365f49445830 
000018dc 315f5245414c 
000018e2 5f53495a4529 
000018e8 00 
000018e9 01             8559 	.byte	1
000018ea bf01           8560 	.byte	191,1
000018ec 4e564d5f4341   8561 	.strz	"NVM_CAT07_IDX01_REAL_SIZE 24U"
000018f2 5430375f4944 
000018f8 5830315f5245 
000018fe 414c5f53495a 
00001904 452032345500 
0000190a 01             8562 	.byte	1
0000190b c001           8563 	.byte	192,1
0000190d 4e564d5f4341   8564 	.strz	"NVM_CAT07_SIZE_BYTES (NVM_CAT07_IDX01_REAL_SIZE)"
00001913 5430375f5349 
00001919 5a455f425954 
0000191f 455320284e56 
00001925 4d5f43415430 
0000192b 375f49445830 
00001931 315f5245414c 
00001937 5f53495a4529 
0000193d 00 
0000193e 01             8565 	.byte	1
0000193f c401           8566 	.byte	196,1
00001941 4e564d5f4341   8567 	.strz	"NVM_CAT08_IDX01_REAL_SIZE 24U"
00001947 5430385f4944 

                                                                      Page 185
                                                              C:\Users\nhuliyap\AppData\Local\Temp\gh_00008cs1.s
0000194d 5830315f5245 
00001953 414c5f53495a 
00001959 452032345500 
0000195f 01             8568 	.byte	1
00001960 c501           8569 	.byte	197,1
00001962 4e564d5f4341   8570 	.strz	"NVM_CAT08_SIZE_BYTES (NVM_CAT08_IDX01_REAL_SIZE)"
00001968 5430385f5349 
0000196e 5a455f425954 
00001974 455320284e56 
0000197a 4d5f43415430 
00001980 385f49445830 
00001986 315f5245414c 
0000198c 5f53495a4529 
00001992 00 
00001993 01             8571 	.byte	1
00001994 c901           8572 	.byte	201,1
00001996 4e564d5f4341   8573 	.strz	"NVM_CAT09_IDX01_REAL_SIZE 32U"
0000199c 5430395f4944 
000019a2 5830315f5245 
000019a8 414c5f53495a 
000019ae 452033325500 
000019b4 01             8574 	.byte	1
000019b5 ca01           8575 	.byte	202,1
000019b7 4e564d5f4341   8576 	.strz	"NVM_CAT09_SIZE_BYTES (NVM_CAT09_IDX01_REAL_SIZE)"
000019bd 5430395f5349 
000019c3 5a455f425954 
000019c9 455320284e56 
000019cf 4d5f43415430 
000019d5 395f49445830 
000019db 315f5245414c 
000019e1 5f53495a4529 
000019e7 00 
000019e8 01             8577 	.byte	1
000019e9 d301           8578 	.byte	211,1
000019eb 4e564d5f4341   8579 	.strz	"NVM_CAT10_IDX01_REAL_SIZE 1U"
000019f1 5431305f4944 
000019f7 5830315f5245 
000019fd 414c5f53495a 
00001a03 4520315500 
00001a08 01             8580 	.byte	1
00001a09 d401           8581 	.byte	212,1
00001a0b 4e564d5f4341   8582 	.strz	"NVM_CAT10_IDX02_REAL_SIZE 1U"
00001a11 5431305f4944 
00001a17 5830325f5245 
00001a1d 414c5f53495a 
00001a23 4520315500 
00001a28 01             8583 	.byte	1
00001a29 d501           8584 	.byte	213,1
00001a2b 4e564d5f4341   8585 	.strz	"NVM_CAT10_IDX03_REAL_SIZE 1U"
00001a31 5431305f4944 
00001a37 5830335f5245 
00001a3d 414c5f53495a 
00001a43 4520315500 
00001a48 01             8586 	.byte	1
00001a49 d601           8587 	.byte	214,1
00001a4b 4e564d5f4341   8588 	.strz	"NVM_CAT10_IDX04_REAL_SIZE 1U"
00001a51 5431305f4944 
00001a57 5830345f5245 
00001a5d 414c5f53495a 
00001a63 4520315500 
00001a68 01             8589 	.byte	1

                                                                      Page 186
                                                              C:\Users\nhuliyap\AppData\Local\Temp\gh_00008cs1.s
00001a69 d801           8590 	.byte	216,1
00001a6b 4e564d5f4341   8591 	.strz	"NVM_CAT10_SIZE_BYTES (NVM_CAT10_IDX01_REAL_SIZE + NVM_CAT10_IDX02_REAL_SIZE + NVM_CAT10_IDX03_REAL_SIZE + NVM_CAT10_IDX04_REAL_SIZE )"
00001a71 5431305f5349 
00001a77 5a455f425954 
00001a7d 455320284e56 
00001a83 4d5f43415431 
00001a89 305f49445830 
00001a8f 315f5245414c 
00001a95 5f53495a4520 
00001a9b 2b204e564d5f 
00001aa1 43415431305f 
00001aa7 49445830325f 
00001aad 5245414c5f53 
00001ab3 495a45202b20 
00001ab9 4e564d5f4341 
00001abf 5431305f4944 
00001ac5 5830335f5245 
00001acb 414c5f53495a 
00001ad1 45202b204e56 
00001ad7 4d5f43415431 
00001add 305f49445830 
00001ae3 345f5245414c 
00001ae9 5f53495a4520 
00001aef 2900 
00001af1 04             8592 	.byte	4
00001af2 03             8593 	.byte	3
00001af3 07             8594 	.byte	7
00001af4 17             8595 	.byte	23
00001af5 03             8596 	.byte	3
00001af6 06             8597 	.byte	6
00001af7 18             8598 	.byte	24
00001af8 01             8599 	.byte	1
00001af9 0e             8600 	.byte	14
00001afa 50524f445543   8601 	.strz	"PRODUCTION_SW 0x0"
00001b00 54494f4e5f53 
00001b06 572030783000 
00001b0c 01             8602 	.byte	1
00001b0d 0f             8603 	.byte	15
00001b0e 444556454c4f   8604 	.strz	"DEVELOPMENT_SW 0x1"
00001b14 504d454e545f 
00001b1a 535720307831 
00001b20 00 
00001b21 01             8605 	.byte	1
00001b22 10             8606 	.byte	16
00001b23 53575f434154   8607 	.strz	"SW_CATEGORY PRODUCTION_SW"
00001b29 45474f525920 
00001b2f 50524f445543 
00001b35 54494f4e5f53 
00001b3b 5700 
00001b3d 04             8608 	.byte	4
00001b3e 01             8609 	.byte	1
00001b3f 08             8610 	.byte	8
00001b40 4d41585f5349   8611 	.strz	"MAX_SIZE_WS_TELEGRAM 16U"
00001b46 5a455f57535f 
00001b4c 54454c454752 
00001b52 414d20313655 
00001b58 00 
00001b59 01             8612 	.byte	1
00001b5a 10             8613 	.byte	16
00001b5b 4e564d5f424c   8614 	.strz	"NVM_BLOCK_SIZE 4U"
00001b61 4f434b5f5349 

                                                                      Page 187
                                                              C:\Users\nhuliyap\AppData\Local\Temp\gh_00008cs1.s
00001b67 5a4520345500 
00001b6d 01             8615 	.byte	1
00001b6e 11             8616 	.byte	17
00001b6f 4e564d5f424c   8617 	.strz	"NVM_BLOCK_TYPE uint32"
00001b75 4f434b5f5459 
00001b7b 50452075696e 
00001b81 74333200 
00001b85 01             8618 	.byte	1
00001b86 12             8619 	.byte	18
00001b87 4e564d5f4855   8620 	.strz	"NVM_HUF_DATA_MAX_BYTE_SIZE 400U"
00001b8d 465f44415441 
00001b93 5f4d41585f42 
00001b99 5954455f5349 
00001b9f 5a4520343030 
00001ba5 5500 
00001ba7 01             8621 	.byte	1
00001ba8 13             8622 	.byte	19
00001ba9 4e564d5f4d41   8623 	.strz	"NVM_MAX_CATEGORYS 10U"
00001baf 585f43415445 
00001bb5 474f52595320 
00001bbb 31305500 
00001bbf 04             8624 	.byte	4
00001bc0 01             8625 	.byte	1
00001bc1 09             8626 	.byte	9
00001bc2 4e564d5f424c   8627 	.strz	"NVM_BLOCK_SIZE_BSW_DATA (uint16)64"
00001bc8 4f434b5f5349 
00001bce 5a455f425357 
00001bd4 5f4441544120 
00001bda 2875696e7431 
00001be0 3629363400 
00001be5 01             8628 	.byte	1
00001be6 24             8629 	.byte	36
00001be7 4e764d426c6f   8630 	.strz	"NvMBlock_CAT01_Consistent 0x000001"
00001bed 636b5f434154 
00001bf3 30315f436f6e 
00001bf9 73697374656e 
00001bff 742030783030 
00001c05 3030303100 
00001c0a 01             8631 	.byte	1
00001c0b 25             8632 	.byte	37
00001c0c 4e764d426c6f   8633 	.strz	"NvMBlock_CAT02_Consistent 0x000002"
00001c12 636b5f434154 
00001c18 30325f436f6e 
00001c1e 73697374656e 
00001c24 742030783030 
00001c2a 3030303200 
00001c2f 01             8634 	.byte	1
00001c30 26             8635 	.byte	38
00001c31 4e764d426c6f   8636 	.strz	"NvMBlock_CAT03_Consistent 0x000004"
00001c37 636b5f434154 
00001c3d 30335f436f6e 
00001c43 73697374656e 
00001c49 742030783030 
00001c4f 3030303400 
00001c54 01             8637 	.byte	1
00001c55 27             8638 	.byte	39
00001c56 4e764d426c6f   8639 	.strz	"NvMBlock_CAT04_Consistent 0x000008"
00001c5c 636b5f434154 
00001c62 30345f436f6e 
00001c68 73697374656e 
00001c6e 742030783030 

                                                                      Page 188
                                                              C:\Users\nhuliyap\AppData\Local\Temp\gh_00008cs1.s
00001c74 3030303800 
00001c79 01             8640 	.byte	1
00001c7a 28             8641 	.byte	40
00001c7b 4e764d426c6f   8642 	.strz	"NvMBlock_CAT05_Consistent 0x000010"
00001c81 636b5f434154 
00001c87 30355f436f6e 
00001c8d 73697374656e 
00001c93 742030783030 
00001c99 3030313000 
00001c9e 01             8643 	.byte	1
00001c9f 29             8644 	.byte	41
00001ca0 4e764d426c6f   8645 	.strz	"NvMBlock_CAT06_Consistent 0x000020"
00001ca6 636b5f434154 
00001cac 30365f436f6e 
00001cb2 73697374656e 
00001cb8 742030783030 
00001cbe 3030323000 
00001cc3 01             8646 	.byte	1
00001cc4 2a             8647 	.byte	42
00001cc5 4e764d426c6f   8648 	.strz	"NvMBlock_CAT07_Consistent 0x000040"
00001ccb 636b5f434154 
00001cd1 30375f436f6e 
00001cd7 73697374656e 
00001cdd 742030783030 
00001ce3 3030343000 
00001ce8 01             8649 	.byte	1
00001ce9 2b             8650 	.byte	43
00001cea 4e764d426c6f   8651 	.strz	"NvMBlock_CAT08_Consistent 0x000080"
00001cf0 636b5f434154 
00001cf6 30385f436f6e 
00001cfc 73697374656e 
00001d02 742030783030 
00001d08 3030383000 
00001d0d 01             8652 	.byte	1
00001d0e 2c             8653 	.byte	44
00001d0f 4e764d426c6f   8654 	.strz	"NvMBlock_CAT09_Consistent 0x000100"
00001d15 636b5f434154 
00001d1b 30395f436f6e 
00001d21 73697374656e 
00001d27 742030783030 
00001d2d 3031303000 
00001d32 01             8655 	.byte	1
00001d33 2d             8656 	.byte	45
00001d34 4e764d426c6f   8657 	.strz	"NvMBlock_CAT10_Consistent 0x000200"
00001d3a 636b5f434154 
00001d40 31305f436f6e 
00001d46 73697374656e 
00001d4c 742030783030 
00001d52 3032303000 
00001d57 01             8658 	.byte	1
00001d58 2e             8659 	.byte	46
00001d59 4e764d426c6f   8660 	.strz	"NvMBlock_DemNvm_IdEvStatusByte_Consistent 0x000400"
00001d5f 636b5f44656d 
00001d65 4e766d5f4964 
00001d6b 457653746174 
00001d71 757342797465 
00001d77 5f436f6e7369 
00001d7d 7374656e7420 
00001d83 307830303034 
00001d89 303000 
00001d8c 01             8661 	.byte	1

                                                                      Page 189
                                                              C:\Users\nhuliyap\AppData\Local\Temp\gh_00008cs1.s
00001d8d 2f             8662 	.byte	47
00001d8e 4e764d426c6f   8663 	.strz	"NvMBlock_DemNvm_IdEvMemLoc0_Consistent 0x000800"
00001d94 636b5f44656d 
00001d9a 4e766d5f4964 
00001da0 45764d656d4c 
00001da6 6f63305f436f 
00001dac 6e7369737465 
00001db2 6e7420307830 
00001db8 303038303000 
00001dbe 01             8664 	.byte	1
00001dbf 30             8665 	.byte	48
00001dc0 4e764d426c6f   8666 	.strz	"NvMBlock_DemNvm_IdEvMemLoc1_Consistent 0x001000"
00001dc6 636b5f44656d 
00001dcc 4e766d5f4964 
00001dd2 45764d656d4c 
00001dd8 6f63315f436f 
00001dde 6e7369737465 
00001de4 6e7420307830 
00001dea 303130303000 
00001df0 01             8667 	.byte	1
00001df1 31             8668 	.byte	49
00001df2 4e764d426c6f   8669 	.strz	"NvMBlock_DemNvm_IdEvMemLoc2_Consistent 0x002000"
00001df8 636b5f44656d 
00001dfe 4e766d5f4964 
00001e04 45764d656d4c 
00001e0a 6f63325f436f 
00001e10 6e7369737465 
00001e16 6e7420307830 
00001e1c 303230303000 
00001e22 01             8670 	.byte	1
00001e23 32             8671 	.byte	50
00001e24 4e764d426c6f   8672 	.strz	"NvMBlock_DemNvm_IdEvMemLoc3_Consistent 0x004000"
00001e2a 636b5f44656d 
00001e30 4e766d5f4964 
00001e36 45764d656d4c 
00001e3c 6f63335f436f 
00001e42 6e7369737465 
00001e48 6e7420307830 
00001e4e 303430303000 
00001e54 01             8673 	.byte	1
00001e55 33             8674 	.byte	51
00001e56 4e764d426c6f   8675 	.strz	"NvMBlock_DemNvm_IdEvMemLoc4_Consistent 0x008000"
00001e5c 636b5f44656d 
00001e62 4e766d5f4964 
00001e68 45764d656d4c 
00001e6e 6f63345f436f 
00001e74 6e7369737465 
00001e7a 6e7420307830 
00001e80 303830303000 
00001e86 01             8676 	.byte	1
00001e87 34             8677 	.byte	52
00001e88 4e764d426c6f   8678 	.strz	"NvMBlock_DemNvm_IdEvMemLoc5_Consistent 0x010000"
00001e8e 636b5f44656d 
00001e94 4e766d5f4964 
00001e9a 45764d656d4c 
00001ea0 6f63355f436f 
00001ea6 6e7369737465 
00001eac 6e7420307830 
00001eb2 313030303000 
00001eb8 01             8679 	.byte	1
00001eb9 35             8680 	.byte	53

                                                                      Page 190
                                                              C:\Users\nhuliyap\AppData\Local\Temp\gh_00008cs1.s
00001eba 4e764d426c6f   8681 	.strz	"NvMBlock_DemNvm_IdEvMemLoc6_Consistent 0x020000"
00001ec0 636b5f44656d 
00001ec6 4e766d5f4964 
00001ecc 45764d656d4c 
00001ed2 6f63365f436f 
00001ed8 6e7369737465 
00001ede 6e7420307830 
00001ee4 323030303000 
00001eea 01             8682 	.byte	1
00001eeb 36             8683 	.byte	54
00001eec 4e764d426c6f   8684 	.strz	"NvMBlock_DemNvm_IdEvMemLoc7_Consistent 0x040000"
00001ef2 636b5f44656d 
00001ef8 4e766d5f4964 
00001efe 45764d656d4c 
00001f04 6f63375f436f 
00001f0a 6e7369737465 
00001f10 6e7420307830 
00001f16 343030303000 
00001f1c 01             8685 	.byte	1
00001f1d 37             8686 	.byte	55
00001f1e 4e764d426c6f   8687 	.strz	"NvMBlock_DemNvm_IdEvMemLoc8_Consistent 0x080000"
00001f24 636b5f44656d 
00001f2a 4e766d5f4964 
00001f30 45764d656d4c 
00001f36 6f63385f436f 
00001f3c 6e7369737465 
00001f42 6e7420307830 
00001f48 383030303000 
00001f4e 01             8688 	.byte	1
00001f4f 38             8689 	.byte	56
00001f50 4e764d426c6f   8690 	.strz	"NvMBlock_DemNvm_IdEvMemLoc9_Consistent 0x100000"
00001f56 636b5f44656d 
00001f5c 4e766d5f4964 
00001f62 45764d656d4c 
00001f68 6f63395f436f 
00001f6e 6e7369737465 
00001f74 6e7420307831 
00001f7a 303030303000 
00001f80 01             8691 	.byte	1
00001f81 39             8692 	.byte	57
00001f82 4e764d426c6f   8693 	.strz	"NvMBlock_DemNvm_IdDemGenericNvData_Consistent 0x200000"
00001f88 636b5f44656d 
00001f8e 4e766d5f4964 
00001f94 44656d47656e 
00001f9a 657269634e76 
00001fa0 446174615f43 
00001fa6 6f6e73697374 
00001fac 656e74203078 
00001fb2 323030303030 
00001fb8 00 
00001fb9 01             8694 	.byte	1
00001fba 3a             8695 	.byte	58
00001fbb 4e764d426c6f   8696 	.strz	"NvMBlock_ECUM_CFG_NVM_BLOCK_Consistent 0x400000"
00001fc1 636b5f454355 
00001fc7 4d5f4346475f 
00001fcd 4e564d5f424c 
00001fd3 4f434b5f436f 
00001fd9 6e7369737465 
00001fdf 6e7420307834 
00001fe5 303030303000 
00001feb 01             8697 	.byte	1

                                                                      Page 191
                                                              C:\Users\nhuliyap\AppData\Local\Temp\gh_00008cs1.s
00001fec 3b             8698 	.byte	59
00001fed 4e764d426c6f   8699 	.strz	"NvMBlock_BSW_Data_Consistent 0x800000"
00001ff3 636b5f425357 
00001ff9 5f446174615f 
00001fff 436f6e736973 
00002005 74656e742030 
0000200b 783830303030 
00002011 3000 
00002013 04             8700 	.byte	4
00002014 03             8701 	.byte	3
00002015 02             8702 	.byte	2
00002016 19             8703 	.byte	25
00002017 03             8704 	.byte	3
00002018 05             8705 	.byte	5
00002019 1a             8706 	.byte	26
0000201a 04             8707 	.byte	4
0000201b 03             8708 	.byte	3
0000201c 06             8709 	.byte	6
0000201d 1b             8710 	.byte	27
0000201e 04             8711 	.byte	4
0000201f 01             8712 	.byte	1
00002020 29             8713 	.byte	41
00002021 4645455f3330   8714 	.strz	"FEE_30_SMALLSECTOR_START_SEC_VAR_NOINIT_UNSPECIFIED "
00002027 5f534d414c4c 
0000202d 534543544f52 
00002033 5f5354415254 
00002039 5f5345435f56 
0000203f 41525f4e4f49 
00002045 4e49545f554e 
0000204b 535045434946 
00002051 4945442000 
00002056 03             8715 	.byte	3
00002057 2a             8716 	.byte	42
00002058 1c             8717 	.byte	28
00002059 01             8718 	.byte	1
0000205a 02             8719 	.byte	2
0000205b 4d454d4d4150   8720 	.strz	"MEMMAP_VENDOR_ID (30u)"
00002061 5f56454e444f 
00002067 525f49442028 
0000206d 3330752900 
00002072 01             8721 	.byte	1
00002073 08             8722 	.byte	8
00002074 4d454d4d4150   8723 	.strz	"MEMMAP_AR_RELEASE_MAJOR_VERSION (4u)"
0000207a 5f41525f5245 
00002080 4c454153455f 
00002086 4d414a4f525f 
0000208c 56455253494f 
00002092 4e2028347529 
00002098 00 
00002099 01             8724 	.byte	1
0000209a 09             8725 	.byte	9
0000209b 4d454d4d4150   8726 	.strz	"MEMMAP_AR_RELEASE_MINOR_VERSION (0u)"
000020a1 5f41525f5245 
000020a7 4c454153455f 
000020ad 4d494e4f525f 
000020b3 56455253494f 
000020b9 4e2028307529 
000020bf 00 
000020c0 01             8727 	.byte	1
000020c1 0a             8728 	.byte	10
000020c2 4d454d4d4150   8729 	.strz	"MEMMAP_AR_RELEASE_REVISION_VERSION (3u)"

                                                                      Page 192
                                                              C:\Users\nhuliyap\AppData\Local\Temp\gh_00008cs1.s
000020c8 5f41525f5245 
000020ce 4c454153455f 
000020d4 524556495349 
000020da 4f4e5f564552 
000020e0 53494f4e2028 
000020e6 33752900 
000020ea 01             8730 	.byte	1
000020eb 10             8731 	.byte	16
000020ec 4d454d5f4152   8732 	.strz	"MEM_AR_RELEASE_MAJOR_VERSION MEMMAP_AR_RELEASE_MAJOR_VERSION"
000020f2 5f52454c4541 
000020f8 53455f4d414a 
000020fe 4f525f564552 
00002104 53494f4e204d 
0000210a 454d4d41505f 
00002110 41525f52454c 
00002116 454153455f4d 
0000211c 414a4f525f56 
00002122 455253494f4e 
00002128 00 
00002129 01             8733 	.byte	1
0000212a 11             8734 	.byte	17
0000212b 4d454d5f4152   8735 	.strz	"MEM_AR_RELEASE_MINOR_VERSION MEMMAP_AR_RELEASE_MINOR_VERSION"
00002131 5f52454c4541 
00002137 53455f4d494e 
0000213d 4f525f564552 
00002143 53494f4e204d 
00002149 454d4d41505f 
0000214f 41525f52454c 
00002155 454153455f4d 
0000215b 494e4f525f56 
00002161 455253494f4e 
00002167 00 
00002168 01             8736 	.byte	1
00002169 12             8737 	.byte	18
0000216a 4d454d5f4152   8738 	.strz	"MEM_AR_RELEASE_PATCH_VERSION MEMMAP_AR_RELEASE_REVISION_VERSION"
00002170 5f52454c4541 
00002176 53455f504154 
0000217c 43485f564552 
00002182 53494f4e204d 
00002188 454d4d41505f 
0000218e 41525f52454c 
00002194 454153455f52 
0000219a 45564953494f 
000021a0 4e5f56455253 
000021a6 494f4e00 
000021aa 01             8739 	.byte	1
000021ab 18             8740 	.byte	24
000021ac 4d454d4d4150   8741 	.strz	"MEMMAP_SW_MAJOR_VERSION (1u)"
000021b2 5f53575f4d41 
000021b8 4a4f525f5645 
000021be 5253494f4e20 
000021c4 2831752900 
000021c9 01             8742 	.byte	1
000021ca 19             8743 	.byte	25
000021cb 4d454d4d4150   8744 	.strz	"MEMMAP_SW_MINOR_VERSION (11u)"
000021d1 5f53575f4d49 
000021d7 4e4f525f5645 
000021dd 5253494f4e20 
000021e3 283131752900 
000021e9 01             8745 	.byte	1
000021ea 1a             8746 	.byte	26

                                                                      Page 193
                                                              C:\Users\nhuliyap\AppData\Local\Temp\gh_00008cs1.s
000021eb 4d454d4d4150   8747 	.strz	"MEMMAP_SW_PATCH_VERSION (0u)"
000021f1 5f53575f5041 
000021f7 5443485f5645 
000021fd 5253494f4e20 
00002203 2830752900 
00002208 01             8748 	.byte	1
00002209 20             8749 	.byte	32
0000220a 4d454d5f5357   8750 	.strz	"MEM_SW_MAJOR_VERSION MEMMAP_SW_MAJOR_VERSION"
00002210 5f4d414a4f52 
00002216 5f5645525349 
0000221c 4f4e204d454d 
00002222 4d41505f5357 
00002228 5f4d414a4f52 
0000222e 5f5645525349 
00002234 4f4e00 
00002237 01             8751 	.byte	1
00002238 21             8752 	.byte	33
00002239 4d454d5f5357   8753 	.strz	"MEM_SW_MINOR_VERSION MEMMAP_SW_MINOR_VERSION"
0000223f 5f4d494e4f52 
00002245 5f5645525349 
0000224b 4f4e204d454d 
00002251 4d41505f5357 
00002257 5f4d494e4f52 
0000225d 5f5645525349 
00002263 4f4e00 
00002266 01             8754 	.byte	1
00002267 22             8755 	.byte	34
00002268 4d454d5f5357   8756 	.strz	"MEM_SW_PATCH_VERSION MEMMAP_SW_PATCH_VERSION"
0000226e 5f5041544348 
00002274 5f5645525349 
0000227a 4f4e204d454d 
00002280 4d41505f5357 
00002286 5f5041544348 
0000228c 5f5645525349 
00002292 4f4e00 
00002295 01             8757 	.byte	1
00002296 24             8758 	.byte	36
00002297 4d454d4d4150   8759 	.strz	"MEMMAP_ERROR "
0000229d 5f4552524f52 
000022a3 2000 
000022a5 01             8760 	.byte	1
000022a6 5e             8761 	.byte	94
000022a7 53544152545f   8762 	.strz	"START_SEC_VAR_NOINIT_UNSPECIFIED "
000022ad 5345435f5641 
000022b3 525f4e4f494e 
000022b9 49545f554e53 
000022bf 504543494649 
000022c5 45442000 
000022c9 03             8763 	.byte	3
000022ca f403           8764 	.byte	244,3
000022cc 15             8765 	.byte	21
000022cd 01             8766 	.byte	1
000022ce cf09           8767 	.byte	207,9
000022d0 5641525f5345   8768 	.strz	"VAR_SEC_OPEN "
000022d6 435f4f50454e 
000022dc 2000 
000022de 04             8769 	.byte	4
000022df 04             8770 	.byte	4
000022e0 01             8771 	.byte	1
000022e1 42             8772 	.byte	66
000022e2 4645455f3330   8773 	.strz	"FEE_30_SMALLSECTOR_STOP_SEC_VAR_NOINIT_UNSPECIFIED "

                                                                      Page 194
                                                              C:\Users\nhuliyap\AppData\Local\Temp\gh_00008cs1.s
000022e8 5f534d414c4c 
000022ee 534543544f52 
000022f4 5f53544f505f 
000022fa 5345435f5641 
00002300 525f4e4f494e 
00002306 49545f554e53 
0000230c 504543494649 
00002312 45442000 
00002316 03             8774 	.byte	3
00002317 43             8775 	.byte	67
00002318 1c             8776 	.byte	28
00002319 01             8777 	.byte	1
0000231a 02             8778 	.byte	2
0000231b 4d454d4d4150   8779 	.strz	"MEMMAP_VENDOR_ID (30u)"
00002321 5f56454e444f 
00002327 525f49442028 
0000232d 3330752900 
00002332 01             8780 	.byte	1
00002333 08             8781 	.byte	8
00002334 4d454d4d4150   8782 	.strz	"MEMMAP_AR_RELEASE_MAJOR_VERSION (4u)"
0000233a 5f41525f5245 
00002340 4c454153455f 
00002346 4d414a4f525f 
0000234c 56455253494f 
00002352 4e2028347529 
00002358 00 
00002359 01             8783 	.byte	1
0000235a 09             8784 	.byte	9
0000235b 4d454d4d4150   8785 	.strz	"MEMMAP_AR_RELEASE_MINOR_VERSION (0u)"
00002361 5f41525f5245 
00002367 4c454153455f 
0000236d 4d494e4f525f 
00002373 56455253494f 
00002379 4e2028307529 
0000237f 00 
00002380 01             8786 	.byte	1
00002381 0a             8787 	.byte	10
00002382 4d454d4d4150   8788 	.strz	"MEMMAP_AR_RELEASE_REVISION_VERSION (3u)"
00002388 5f41525f5245 
0000238e 4c454153455f 
00002394 524556495349 
0000239a 4f4e5f564552 
000023a0 53494f4e2028 
000023a6 33752900 
000023aa 01             8789 	.byte	1
000023ab 10             8790 	.byte	16
000023ac 4d454d5f4152   8791 	.strz	"MEM_AR_RELEASE_MAJOR_VERSION MEMMAP_AR_RELEASE_MAJOR_VERSION"
000023b2 5f52454c4541 
000023b8 53455f4d414a 
000023be 4f525f564552 
000023c4 53494f4e204d 
000023ca 454d4d41505f 
000023d0 41525f52454c 
000023d6 454153455f4d 
000023dc 414a4f525f56 
000023e2 455253494f4e 
000023e8 00 
000023e9 01             8792 	.byte	1
000023ea 11             8793 	.byte	17
000023eb 4d454d5f4152   8794 	.strz	"MEM_AR_RELEASE_MINOR_VERSION MEMMAP_AR_RELEASE_MINOR_VERSION"
000023f1 5f52454c4541 

                                                                      Page 195
                                                              C:\Users\nhuliyap\AppData\Local\Temp\gh_00008cs1.s
000023f7 53455f4d494e 
000023fd 4f525f564552 
00002403 53494f4e204d 
00002409 454d4d41505f 
0000240f 41525f52454c 
00002415 454153455f4d 
0000241b 494e4f525f56 
00002421 455253494f4e 
00002427 00 
00002428 01             8795 	.byte	1
00002429 12             8796 	.byte	18
0000242a 4d454d5f4152   8797 	.strz	"MEM_AR_RELEASE_PATCH_VERSION MEMMAP_AR_RELEASE_REVISION_VERSION"
00002430 5f52454c4541 
00002436 53455f504154 
0000243c 43485f564552 
00002442 53494f4e204d 
00002448 454d4d41505f 
0000244e 41525f52454c 
00002454 454153455f52 
0000245a 45564953494f 
00002460 4e5f56455253 
00002466 494f4e00 
0000246a 01             8798 	.byte	1
0000246b 18             8799 	.byte	24
0000246c 4d454d4d4150   8800 	.strz	"MEMMAP_SW_MAJOR_VERSION (1u)"
00002472 5f53575f4d41 
00002478 4a4f525f5645 
0000247e 5253494f4e20 
00002484 2831752900 
00002489 01             8801 	.byte	1
0000248a 19             8802 	.byte	25
0000248b 4d454d4d4150   8803 	.strz	"MEMMAP_SW_MINOR_VERSION (11u)"
00002491 5f53575f4d49 
00002497 4e4f525f5645 
0000249d 5253494f4e20 
000024a3 283131752900 
000024a9 01             8804 	.byte	1
000024aa 1a             8805 	.byte	26
000024ab 4d454d4d4150   8806 	.strz	"MEMMAP_SW_PATCH_VERSION (0u)"
000024b1 5f53575f5041 
000024b7 5443485f5645 
000024bd 5253494f4e20 
000024c3 2830752900 
000024c8 01             8807 	.byte	1
000024c9 20             8808 	.byte	32
000024ca 4d454d5f5357   8809 	.strz	"MEM_SW_MAJOR_VERSION MEMMAP_SW_MAJOR_VERSION"
000024d0 5f4d414a4f52 
000024d6 5f5645525349 
000024dc 4f4e204d454d 
000024e2 4d41505f5357 
000024e8 5f4d414a4f52 
000024ee 5f5645525349 
000024f4 4f4e00 
000024f7 01             8810 	.byte	1
000024f8 21             8811 	.byte	33
000024f9 4d454d5f5357   8812 	.strz	"MEM_SW_MINOR_VERSION MEMMAP_SW_MINOR_VERSION"
000024ff 5f4d494e4f52 
00002505 5f5645525349 
0000250b 4f4e204d454d 
00002511 4d41505f5357 
00002517 5f4d494e4f52 

                                                                      Page 196
                                                              C:\Users\nhuliyap\AppData\Local\Temp\gh_00008cs1.s
0000251d 5f5645525349 
00002523 4f4e00 
00002526 01             8813 	.byte	1
00002527 22             8814 	.byte	34
00002528 4d454d5f5357   8815 	.strz	"MEM_SW_PATCH_VERSION MEMMAP_SW_PATCH_VERSION"
0000252e 5f5041544348 
00002534 5f5645525349 
0000253a 4f4e204d454d 
00002540 4d41505f5357 
00002546 5f5041544348 
0000254c 5f5645525349 
00002552 4f4e00 
00002555 01             8816 	.byte	1
00002556 24             8817 	.byte	36
00002557 4d454d4d4150   8818 	.strz	"MEMMAP_ERROR "
0000255d 5f4552524f52 
00002563 2000 
00002565 01             8819 	.byte	1
00002566 62             8820 	.byte	98
00002567 53544f505f53   8821 	.strz	"STOP_SEC_VAR "
0000256d 45435f564152 
00002573 2000 
00002575 03             8822 	.byte	3
00002576 f403           8823 	.byte	244,3
00002578 15             8824 	.byte	21
00002579 04             8825 	.byte	4
0000257a 04             8826 	.byte	4
0000257b 01             8827 	.byte	1
0000257c 45             8828 	.byte	69
0000257d 4645455f3330   8829 	.strz	"FEE_30_SMALLSECTOR_START_SEC_CODE "
00002583 5f534d414c4c 
00002589 534543544f52 
0000258f 5f5354415254 
00002595 5f5345435f43 
0000259b 4f44452000 
000025a0 03             8830 	.byte	3
000025a1 46             8831 	.byte	70
000025a2 1c             8832 	.byte	28
000025a3 01             8833 	.byte	1
000025a4 02             8834 	.byte	2
000025a5 4d454d4d4150   8835 	.strz	"MEMMAP_VENDOR_ID (30u)"
000025ab 5f56454e444f 
000025b1 525f49442028 
000025b7 3330752900 
000025bc 01             8836 	.byte	1
000025bd 08             8837 	.byte	8
000025be 4d454d4d4150   8838 	.strz	"MEMMAP_AR_RELEASE_MAJOR_VERSION (4u)"
000025c4 5f41525f5245 
000025ca 4c454153455f 
000025d0 4d414a4f525f 
000025d6 56455253494f 
000025dc 4e2028347529 
000025e2 00 
000025e3 01             8839 	.byte	1
000025e4 09             8840 	.byte	9
000025e5 4d454d4d4150   8841 	.strz	"MEMMAP_AR_RELEASE_MINOR_VERSION (0u)"
000025eb 5f41525f5245 
000025f1 4c454153455f 
000025f7 4d494e4f525f 
000025fd 56455253494f 
00002603 4e2028307529 

                                                                      Page 197
                                                              C:\Users\nhuliyap\AppData\Local\Temp\gh_00008cs1.s
00002609 00 
0000260a 01             8842 	.byte	1
0000260b 0a             8843 	.byte	10
0000260c 4d454d4d4150   8844 	.strz	"MEMMAP_AR_RELEASE_REVISION_VERSION (3u)"
00002612 5f41525f5245 
00002618 4c454153455f 
0000261e 524556495349 
00002624 4f4e5f564552 
0000262a 53494f4e2028 
00002630 33752900 
00002634 01             8845 	.byte	1
00002635 10             8846 	.byte	16
00002636 4d454d5f4152   8847 	.strz	"MEM_AR_RELEASE_MAJOR_VERSION MEMMAP_AR_RELEASE_MAJOR_VERSION"
0000263c 5f52454c4541 
00002642 53455f4d414a 
00002648 4f525f564552 
0000264e 53494f4e204d 
00002654 454d4d41505f 
0000265a 41525f52454c 
00002660 454153455f4d 
00002666 414a4f525f56 
0000266c 455253494f4e 
00002672 00 
00002673 01             8848 	.byte	1
00002674 11             8849 	.byte	17
00002675 4d454d5f4152   8850 	.strz	"MEM_AR_RELEASE_MINOR_VERSION MEMMAP_AR_RELEASE_MINOR_VERSION"
0000267b 5f52454c4541 
00002681 53455f4d494e 
00002687 4f525f564552 
0000268d 53494f4e204d 
00002693 454d4d41505f 
00002699 41525f52454c 
0000269f 454153455f4d 
000026a5 494e4f525f56 
000026ab 455253494f4e 
000026b1 00 
000026b2 01             8851 	.byte	1
000026b3 12             8852 	.byte	18
000026b4 4d454d5f4152   8853 	.strz	"MEM_AR_RELEASE_PATCH_VERSION MEMMAP_AR_RELEASE_REVISION_VERSION"
000026ba 5f52454c4541 
000026c0 53455f504154 
000026c6 43485f564552 
000026cc 53494f4e204d 
000026d2 454d4d41505f 
000026d8 41525f52454c 
000026de 454153455f52 
000026e4 45564953494f 
000026ea 4e5f56455253 
000026f0 494f4e00 
000026f4 01             8854 	.byte	1
000026f5 18             8855 	.byte	24
000026f6 4d454d4d4150   8856 	.strz	"MEMMAP_SW_MAJOR_VERSION (1u)"
000026fc 5f53575f4d41 
00002702 4a4f525f5645 
00002708 5253494f4e20 
0000270e 2831752900 
00002713 01             8857 	.byte	1
00002714 19             8858 	.byte	25
00002715 4d454d4d4150   8859 	.strz	"MEMMAP_SW_MINOR_VERSION (11u)"
0000271b 5f53575f4d49 
00002721 4e4f525f5645 

                                                                      Page 198
                                                              C:\Users\nhuliyap\AppData\Local\Temp\gh_00008cs1.s
00002727 5253494f4e20 
0000272d 283131752900 
00002733 01             8860 	.byte	1
00002734 1a             8861 	.byte	26
00002735 4d454d4d4150   8862 	.strz	"MEMMAP_SW_PATCH_VERSION (0u)"
0000273b 5f53575f5041 
00002741 5443485f5645 
00002747 5253494f4e20 
0000274d 2830752900 
00002752 01             8863 	.byte	1
00002753 20             8864 	.byte	32
00002754 4d454d5f5357   8865 	.strz	"MEM_SW_MAJOR_VERSION MEMMAP_SW_MAJOR_VERSION"
0000275a 5f4d414a4f52 
00002760 5f5645525349 
00002766 4f4e204d454d 
0000276c 4d41505f5357 
00002772 5f4d414a4f52 
00002778 5f5645525349 
0000277e 4f4e00 
00002781 01             8866 	.byte	1
00002782 21             8867 	.byte	33
00002783 4d454d5f5357   8868 	.strz	"MEM_SW_MINOR_VERSION MEMMAP_SW_MINOR_VERSION"
00002789 5f4d494e4f52 
0000278f 5f5645525349 
00002795 4f4e204d454d 
0000279b 4d41505f5357 
000027a1 5f4d494e4f52 
000027a7 5f5645525349 
000027ad 4f4e00 
000027b0 01             8869 	.byte	1
000027b1 22             8870 	.byte	34
000027b2 4d454d5f5357   8871 	.strz	"MEM_SW_PATCH_VERSION MEMMAP_SW_PATCH_VERSION"
000027b8 5f5041544348 
000027be 5f5645525349 
000027c4 4f4e204d454d 
000027ca 4d41505f5357 
000027d0 5f5041544348 
000027d6 5f5645525349 
000027dc 4f4e00 
000027df 01             8872 	.byte	1
000027e0 24             8873 	.byte	36
000027e1 4d454d4d4150   8874 	.strz	"MEMMAP_ERROR "
000027e7 5f4552524f52 
000027ed 2000 
000027ef 01             8875 	.byte	1
000027f0 31             8876 	.byte	49
000027f1 53544152545f   8877 	.strz	"START_SEC_CODE "
000027f7 5345435f434f 
000027fd 44452000 
00002801 03             8878 	.byte	3
00002802 f403           8879 	.byte	244,3
00002804 15             8880 	.byte	21
00002805 01             8881 	.byte	1
00002806 f407           8882 	.byte	244,7
00002808 434f44455f53   8883 	.strz	"CODE_SEC_OPEN "
0000280e 45435f4f5045 
00002814 4e2000 
00002817 04             8884 	.byte	4
00002818 04             8885 	.byte	4
00002819 01             8886 	.byte	1
0000281a 56             8887 	.byte	86

                                                                      Page 199
                                                              C:\Users\nhuliyap\AppData\Local\Temp\gh_00008cs1.s
0000281b 4645455f3330   8888 	.strz	"FEE_30_SMALLSECTOR_STOP_SEC_CODE "
00002821 5f534d414c4c 
00002827 534543544f52 
0000282d 5f53544f505f 
00002833 5345435f434f 
00002839 44452000 
0000283d 03             8889 	.byte	3
0000283e 57             8890 	.byte	87
0000283f 1c             8891 	.byte	28
00002840 01             8892 	.byte	1
00002841 02             8893 	.byte	2
00002842 4d454d4d4150   8894 	.strz	"MEMMAP_VENDOR_ID (30u)"
00002848 5f56454e444f 
0000284e 525f49442028 
00002854 3330752900 
00002859 01             8895 	.byte	1
0000285a 08             8896 	.byte	8
0000285b 4d454d4d4150   8897 	.strz	"MEMMAP_AR_RELEASE_MAJOR_VERSION (4u)"
00002861 5f41525f5245 
00002867 4c454153455f 
0000286d 4d414a4f525f 
00002873 56455253494f 
00002879 4e2028347529 
0000287f 00 
00002880 01             8898 	.byte	1
00002881 09             8899 	.byte	9
00002882 4d454d4d4150   8900 	.strz	"MEMMAP_AR_RELEASE_MINOR_VERSION (0u)"
00002888 5f41525f5245 
0000288e 4c454153455f 
00002894 4d494e4f525f 
0000289a 56455253494f 
000028a0 4e2028307529 
000028a6 00 
000028a7 01             8901 	.byte	1
000028a8 0a             8902 	.byte	10
000028a9 4d454d4d4150   8903 	.strz	"MEMMAP_AR_RELEASE_REVISION_VERSION (3u)"
000028af 5f41525f5245 
000028b5 4c454153455f 
000028bb 524556495349 
000028c1 4f4e5f564552 
000028c7 53494f4e2028 
000028cd 33752900 
000028d1 01             8904 	.byte	1
000028d2 10             8905 	.byte	16
000028d3 4d454d5f4152   8906 	.strz	"MEM_AR_RELEASE_MAJOR_VERSION MEMMAP_AR_RELEASE_MAJOR_VERSION"
000028d9 5f52454c4541 
000028df 53455f4d414a 
000028e5 4f525f564552 
000028eb 53494f4e204d 
000028f1 454d4d41505f 
000028f7 41525f52454c 
000028fd 454153455f4d 
00002903 414a4f525f56 
00002909 455253494f4e 
0000290f 00 
00002910 01             8907 	.byte	1
00002911 11             8908 	.byte	17
00002912 4d454d5f4152   8909 	.strz	"MEM_AR_RELEASE_MINOR_VERSION MEMMAP_AR_RELEASE_MINOR_VERSION"
00002918 5f52454c4541 
0000291e 53455f4d494e 
00002924 4f525f564552 

                                                                      Page 200
                                                              C:\Users\nhuliyap\AppData\Local\Temp\gh_00008cs1.s
0000292a 53494f4e204d 
00002930 454d4d41505f 
00002936 41525f52454c 
0000293c 454153455f4d 
00002942 494e4f525f56 
00002948 455253494f4e 
0000294e 00 
0000294f 01             8910 	.byte	1
00002950 12             8911 	.byte	18
00002951 4d454d5f4152   8912 	.strz	"MEM_AR_RELEASE_PATCH_VERSION MEMMAP_AR_RELEASE_REVISION_VERSION"
00002957 5f52454c4541 
0000295d 53455f504154 
00002963 43485f564552 
00002969 53494f4e204d 
0000296f 454d4d41505f 
00002975 41525f52454c 
0000297b 454153455f52 
00002981 45564953494f 
00002987 4e5f56455253 
0000298d 494f4e00 
00002991 01             8913 	.byte	1
00002992 18             8914 	.byte	24
00002993 4d454d4d4150   8915 	.strz	"MEMMAP_SW_MAJOR_VERSION (1u)"
00002999 5f53575f4d41 
0000299f 4a4f525f5645 
000029a5 5253494f4e20 
000029ab 2831752900 
000029b0 01             8916 	.byte	1
000029b1 19             8917 	.byte	25
000029b2 4d454d4d4150   8918 	.strz	"MEMMAP_SW_MINOR_VERSION (11u)"
000029b8 5f53575f4d49 
000029be 4e4f525f5645 
000029c4 5253494f4e20 
000029ca 283131752900 
000029d0 01             8919 	.byte	1
000029d1 1a             8920 	.byte	26
000029d2 4d454d4d4150   8921 	.strz	"MEMMAP_SW_PATCH_VERSION (0u)"
000029d8 5f53575f5041 
000029de 5443485f5645 
000029e4 5253494f4e20 
000029ea 2830752900 
000029ef 01             8922 	.byte	1
000029f0 20             8923 	.byte	32
000029f1 4d454d5f5357   8924 	.strz	"MEM_SW_MAJOR_VERSION MEMMAP_SW_MAJOR_VERSION"
000029f7 5f4d414a4f52 
000029fd 5f5645525349 
00002a03 4f4e204d454d 
00002a09 4d41505f5357 
00002a0f 5f4d414a4f52 
00002a15 5f5645525349 
00002a1b 4f4e00 
00002a1e 01             8925 	.byte	1
00002a1f 21             8926 	.byte	33
00002a20 4d454d5f5357   8927 	.strz	"MEM_SW_MINOR_VERSION MEMMAP_SW_MINOR_VERSION"
00002a26 5f4d494e4f52 
00002a2c 5f5645525349 
00002a32 4f4e204d454d 
00002a38 4d41505f5357 
00002a3e 5f4d494e4f52 
00002a44 5f5645525349 
00002a4a 4f4e00 

                                                                      Page 201
                                                              C:\Users\nhuliyap\AppData\Local\Temp\gh_00008cs1.s
00002a4d 01             8928 	.byte	1
00002a4e 22             8929 	.byte	34
00002a4f 4d454d5f5357   8930 	.strz	"MEM_SW_PATCH_VERSION MEMMAP_SW_PATCH_VERSION"
00002a55 5f5041544348 
00002a5b 5f5645525349 
00002a61 4f4e204d454d 
00002a67 4d41505f5357 
00002a6d 5f5041544348 
00002a73 5f5645525349 
00002a79 4f4e00 
00002a7c 01             8931 	.byte	1
00002a7d 24             8932 	.byte	36
00002a7e 4d454d4d4150   8933 	.strz	"MEMMAP_ERROR "
00002a84 5f4552524f52 
00002a8a 2000 
00002a8c 01             8934 	.byte	1
00002a8d 35             8935 	.byte	53
00002a8e 53544f505f53   8936 	.strz	"STOP_SEC_CODE "
00002a94 45435f434f44 
00002a9a 452000 
00002a9d 03             8937 	.byte	3
00002a9e f403           8938 	.byte	244,3
00002aa0 15             8939 	.byte	21
00002aa1 04             8940 	.byte	4
00002aa2 04             8941 	.byte	4
00002aa3 04             8942 	.byte	4
00002aa4 03             8943 	.byte	3
00002aa5 03             8944 	.byte	3
00002aa6 1d             8945 	.byte	29
00002aa7 01             8946 	.byte	1
00002aa8 06             8947 	.byte	6
00002aa9 464c535f4152   8948 	.strz	"FLS_AR_FOUR_ZERO_THREE 403"
00002aaf 5f464f55525f 
00002ab5 5a45524f5f54 
00002abb 485245452034 
00002ac1 303300 
00002ac4 01             8949 	.byte	1
00002ac5 07             8950 	.byte	7
00002ac6 464c535f4152   8951 	.strz	"FLS_AR_THREE_TWO_TWO 322"
00002acc 5f5448524545 
00002ad2 5f54574f5f54 
00002ad8 574f20333232 
00002ade 00 
00002adf 01             8952 	.byte	1
00002ae0 09             8953 	.byte	9
00002ae1 464c535f4152   8954 	.strz	"FLS_AR_HIGHER_VERSION FLS_AR_FOUR_ZERO_THREE"
00002ae7 5f4849474845 
00002aed 525f56455253 
00002af3 494f4e20464c 
00002af9 535f41525f46 
00002aff 4f55525f5a45 
00002b05 524f5f544852 
00002b0b 454500 
00002b0e 01             8955 	.byte	1
00002b0f 0a             8956 	.byte	10
00002b10 464c535f4152   8957 	.strz	"FLS_AR_LOWER_VERSION FLS_AR_THREE_TWO_TWO"
00002b16 5f4c4f574552 
00002b1c 5f5645525349 
00002b22 4f4e20464c53 
00002b28 5f41525f5448 
00002b2e 5245455f5457 

                                                                      Page 202
                                                              C:\Users\nhuliyap\AppData\Local\Temp\gh_00008cs1.s
00002b34 4f5f54574f00 
00002b3a 03             8958 	.byte	3
00002b3b 0e             8959 	.byte	14
00002b3c 1e             8960 	.byte	30
00002b3d 01             8961 	.byte	1
00002b3e 2d             8962 	.byte	45
00002b3f 464c535f4152   8963 	.strz	"FLS_AR_VERSION FLS_AR_LOWER_VERSION"
00002b45 5f5645525349 
00002b4b 4f4e20464c53 
00002b51 5f41525f4c4f 
00002b57 5745525f5645 
00002b5d 5253494f4e00 
00002b63 01             8964 	.byte	1
00002b64 2e             8965 	.byte	46
00002b65 464c535f464c   8966 	.strz	"FLS_FLASH_ACCESS FLS_DATAFLASH_ACCESS"
00002b6b 4153485f4143 
00002b71 434553532046 
00002b77 4c535f444154 
00002b7d 41464c415348 
00002b83 5f4143434553 
00002b89 5300 
00002b8b 01             8967 	.byte	1
00002b8c 2f             8968 	.byte	47
00002b8d 464c535f4445   8969 	.strz	"FLS_DEV_ERROR_DETECT STD_OFF"
00002b93 565f4552524f 
00002b99 525f44455445 
00002b9f 435420535444 
00002ba5 5f4f464600 
00002baa 01             8970 	.byte	1
00002bab 30             8971 	.byte	48
00002bac 464c535f5645   8972 	.strz	"FLS_VERSION_INFO_API STD_OFF"
00002bb2 5253494f4e5f 
00002bb8 494e464f5f41 
00002bbe 504920535444 
00002bc4 5f4f464600 
00002bc9 01             8973 	.byte	1
00002bca 31             8974 	.byte	49
00002bcb 464c535f4341   8975 	.strz	"FLS_CANCEL_API STD_ON"
00002bd1 4e43454c5f41 
00002bd7 504920535444 
00002bdd 5f4f4e00 
00002be1 01             8976 	.byte	1
00002be2 32             8977 	.byte	50
00002be3 464c535f434f   8978 	.strz	"FLS_COMPARE_API STD_ON"
00002be9 4d504152455f 
00002bef 415049205354 
00002bf5 445f4f4e00 
00002bfa 01             8979 	.byte	1
00002bfb 33             8980 	.byte	51
00002bfc 464c535f5345   8981 	.strz	"FLS_SET_MODE_API STD_OFF"
00002c02 545f4d4f4445 
00002c08 5f4150492053 
00002c0e 54445f4f4646 
00002c14 00 
00002c15 01             8982 	.byte	1
00002c16 34             8983 	.byte	52
00002c17 464c535f4745   8984 	.strz	"FLS_GET_STATUS_API STD_ON"
00002c1d 545f53544154 
00002c23 55535f415049 
00002c29 205354445f4f 
00002c2f 4e00 

                                                                      Page 203
                                                              C:\Users\nhuliyap\AppData\Local\Temp\gh_00008cs1.s
00002c31 01             8985 	.byte	1
00002c32 35             8986 	.byte	53
00002c33 464c535f4745   8987 	.strz	"FLS_GET_JOB_RESULT_API STD_ON"
00002c39 545f4a4f425f 
00002c3f 524553554c54 
00002c45 5f4150492053 
00002c4b 54445f4f4e00 
00002c51 01             8988 	.byte	1
00002c52 3b             8989 	.byte	59
00002c53 464c535f5449   8990 	.strz	"FLS_TIMEOUT_MONITORING STD_OFF"
00002c59 4d454f55545f 
00002c5f 4d4f4e49544f 
00002c65 52494e472053 
00002c6b 54445f4f4646 
00002c71 00 
00002c72 01             8991 	.byte	1
00002c73 3c             8992 	.byte	60
00002c74 464c535f424c   8993 	.strz	"FLS_BLANKCHECK_API STD_ON"
00002c7a 414e4b434845 
00002c80 434b5f415049 
00002c86 205354445f4f 
00002c8c 4e00 
00002c8e 01             8994 	.byte	1
00002c8f 3d             8995 	.byte	61
00002c90 464c535f5245   8996 	.strz	"FLS_READIMMEDIATE_API STD_OFF"
00002c96 4144494d4d45 
00002c9c 44494154455f 
00002ca2 415049205354 
00002ca8 445f4f464600 
00002cae 01             8997 	.byte	1
00002caf 3e             8998 	.byte	62
00002cb0 464c535f494e   8999 	.strz	"FLS_INTERRUPT_MODE STD_OFF"
00002cb6 544552525550 
00002cbc 545f4d4f4445 
00002cc2 205354445f4f 
00002cc8 464600 
00002ccb 01             9000 	.byte	1
00002ccc 40             9001 	.byte	64
00002ccd 464c535f5355   9002 	.strz	"FLS_SUSPEND_API STD_OFF"
00002cd3 5350454e445f 
00002cd9 415049205354 
00002cdf 445f4f464600 
00002ce5 01             9003 	.byte	1
00002ce6 41             9004 	.byte	65
00002ce7 464c535f5245   9005 	.strz	"FLS_RESUME_API STD_OFF"
00002ced 53554d455f41 
00002cf3 504920535444 
00002cf9 5f4f464600 
00002cfe 01             9006 	.byte	1
00002cff 49             9007 	.byte	73
00002d00 464c535f4648   9008 	.strz	"FLS_FHVE_REGS NOT_SUPPORTED"
00002d06 56455f524547 
00002d0c 53204e4f545f 
00002d12 535550504f52 
00002d18 54454400 
00002d1c 01             9009 	.byte	1
00002d1d 4a             9010 	.byte	74
00002d1e 464c535f464c   9011 	.strz	"FLS_FLMD_REGS SUPPORTED"
00002d24 4d445f524547 
00002d2a 532053555050 
00002d30 4f5254454400 

                                                                      Page 204
                                                              C:\Users\nhuliyap\AppData\Local\Temp\gh_00008cs1.s
00002d36 01             9012 	.byte	1
00002d37 52             9013 	.byte	82
00002d38 466c73436f6e   9014 	.strz	"FlsConfigSet (&Fls_GstConfiguration[0])"
00002d3e 666967536574 
00002d44 202826466c73 
00002d4a 5f477374436f 
00002d50 6e6669677572 
00002d56 6174696f6e5b 
00002d5c 305d2900 
00002d60 04             9015 	.byte	4
00002d61 03             9016 	.byte	3
00002d62 10             9017 	.byte	16
00002d63 1f             9018 	.byte	31
00002d64 03             9019 	.byte	3
00002d65 08             9020 	.byte	8
00002d66 20             9021 	.byte	32
00002d67 01             9022 	.byte	1
00002d68 2a             9023 	.byte	42
00002d69 535550504f52   9024 	.strz	"SUPPORTED 0"
00002d6f 544544203000 
00002d75 01             9025 	.byte	1
00002d76 2b             9026 	.byte	43
00002d77 4e4f545f5355   9027 	.strz	"NOT_SUPPORTED 1"
00002d7d 50504f525445 
00002d83 44203100 
00002d87 01             9028 	.byte	1
00002d88 40             9029 	.byte	64
00002d89 464c535f4441   9030 	.strz	"FLS_DATAFLASH_ACCESS 0"
00002d8f 5441464c4153 
00002d95 485f41434345 
00002d9b 5353203000 
00002da0 01             9031 	.byte	1
00002da1 41             9032 	.byte	65
00002da2 464c535f434f   9033 	.strz	"FLS_CODEFLASH_ACCESS 1"
00002da8 4445464c4153 
00002dae 485f41434345 
00002db4 5353203100 
00002db9 01             9034 	.byte	1
00002dba 42             9035 	.byte	66
00002dbb 464c535f4346   9036 	.strz	"FLS_CFDF_ACCESS 2"
00002dc1 44465f414343 
00002dc7 455353203200 
00002dcd 01             9037 	.byte	1
00002dce 6b             9038 	.byte	107
00002dcf 464c535f5354   9039 	.strz	"FLS_START_SEC_BUFFER_CODE "
00002dd5 4152545f5345 
00002ddb 435f42554646 
00002de1 45525f434f44 
00002de7 452000 
00002dea 03             9040 	.byte	3
00002deb 6c             9041 	.byte	108
00002dec 1c             9042 	.byte	28
00002ded 01             9043 	.byte	1
00002dee 02             9044 	.byte	2
00002def 4d454d4d4150   9045 	.strz	"MEMMAP_VENDOR_ID (30u)"
00002df5 5f56454e444f 
00002dfb 525f49442028 
00002e01 3330752900 
00002e06 01             9046 	.byte	1
00002e07 08             9047 	.byte	8
00002e08 4d454d4d4150   9048 	.strz	"MEMMAP_AR_RELEASE_MAJOR_VERSION (4u)"

                                                                      Page 205
                                                              C:\Users\nhuliyap\AppData\Local\Temp\gh_00008cs1.s
00002e0e 5f41525f5245 
00002e14 4c454153455f 
00002e1a 4d414a4f525f 
00002e20 56455253494f 
00002e26 4e2028347529 
00002e2c 00 
00002e2d 01             9049 	.byte	1
00002e2e 09             9050 	.byte	9
00002e2f 4d454d4d4150   9051 	.strz	"MEMMAP_AR_RELEASE_MINOR_VERSION (0u)"
00002e35 5f41525f5245 
00002e3b 4c454153455f 
00002e41 4d494e4f525f 
00002e47 56455253494f 
00002e4d 4e2028307529 
00002e53 00 
00002e54 01             9052 	.byte	1
00002e55 0a             9053 	.byte	10
00002e56 4d454d4d4150   9054 	.strz	"MEMMAP_AR_RELEASE_REVISION_VERSION (3u)"
00002e5c 5f41525f5245 
00002e62 4c454153455f 
00002e68 524556495349 
00002e6e 4f4e5f564552 
00002e74 53494f4e2028 
00002e7a 33752900 
00002e7e 01             9055 	.byte	1
00002e7f 10             9056 	.byte	16
00002e80 4d454d5f4152   9057 	.strz	"MEM_AR_RELEASE_MAJOR_VERSION MEMMAP_AR_RELEASE_MAJOR_VERSION"
00002e86 5f52454c4541 
00002e8c 53455f4d414a 
00002e92 4f525f564552 
00002e98 53494f4e204d 
00002e9e 454d4d41505f 
00002ea4 41525f52454c 
00002eaa 454153455f4d 
00002eb0 414a4f525f56 
00002eb6 455253494f4e 
00002ebc 00 
00002ebd 01             9058 	.byte	1
00002ebe 11             9059 	.byte	17
00002ebf 4d454d5f4152   9060 	.strz	"MEM_AR_RELEASE_MINOR_VERSION MEMMAP_AR_RELEASE_MINOR_VERSION"
00002ec5 5f52454c4541 
00002ecb 53455f4d494e 
00002ed1 4f525f564552 
00002ed7 53494f4e204d 
00002edd 454d4d41505f 
00002ee3 41525f52454c 
00002ee9 454153455f4d 
00002eef 494e4f525f56 
00002ef5 455253494f4e 
00002efb 00 
00002efc 01             9061 	.byte	1
00002efd 12             9062 	.byte	18
00002efe 4d454d5f4152   9063 	.strz	"MEM_AR_RELEASE_PATCH_VERSION MEMMAP_AR_RELEASE_REVISION_VERSION"
00002f04 5f52454c4541 
00002f0a 53455f504154 
00002f10 43485f564552 
00002f16 53494f4e204d 
00002f1c 454d4d41505f 
00002f22 41525f52454c 
00002f28 454153455f52 
00002f2e 45564953494f 

                                                                      Page 206
                                                              C:\Users\nhuliyap\AppData\Local\Temp\gh_00008cs1.s
00002f34 4e5f56455253 
00002f3a 494f4e00 
00002f3e 01             9064 	.byte	1
00002f3f 18             9065 	.byte	24
00002f40 4d454d4d4150   9066 	.strz	"MEMMAP_SW_MAJOR_VERSION (1u)"
00002f46 5f53575f4d41 
00002f4c 4a4f525f5645 
00002f52 5253494f4e20 
00002f58 2831752900 
00002f5d 01             9067 	.byte	1
00002f5e 19             9068 	.byte	25
00002f5f 4d454d4d4150   9069 	.strz	"MEMMAP_SW_MINOR_VERSION (11u)"
00002f65 5f53575f4d49 
00002f6b 4e4f525f5645 
00002f71 5253494f4e20 
00002f77 283131752900 
00002f7d 01             9070 	.byte	1
00002f7e 1a             9071 	.byte	26
00002f7f 4d454d4d4150   9072 	.strz	"MEMMAP_SW_PATCH_VERSION (0u)"
00002f85 5f53575f5041 
00002f8b 5443485f5645 
00002f91 5253494f4e20 
00002f97 2830752900 
00002f9c 01             9073 	.byte	1
00002f9d 20             9074 	.byte	32
00002f9e 4d454d5f5357   9075 	.strz	"MEM_SW_MAJOR_VERSION MEMMAP_SW_MAJOR_VERSION"
00002fa4 5f4d414a4f52 
00002faa 5f5645525349 
00002fb0 4f4e204d454d 
00002fb6 4d41505f5357 
00002fbc 5f4d414a4f52 
00002fc2 5f5645525349 
00002fc8 4f4e00 
00002fcb 01             9076 	.byte	1
00002fcc 21             9077 	.byte	33
00002fcd 4d454d5f5357   9078 	.strz	"MEM_SW_MINOR_VERSION MEMMAP_SW_MINOR_VERSION"
00002fd3 5f4d494e4f52 
00002fd9 5f5645525349 
00002fdf 4f4e204d454d 
00002fe5 4d41505f5357 
00002feb 5f4d494e4f52 
00002ff1 5f5645525349 
00002ff7 4f4e00 
00002ffa 01             9079 	.byte	1
00002ffb 22             9080 	.byte	34
00002ffc 4d454d5f5357   9081 	.strz	"MEM_SW_PATCH_VERSION MEMMAP_SW_PATCH_VERSION"
00003002 5f5041544348 
00003008 5f5645525349 
0000300e 4f4e204d454d 
00003014 4d41505f5357 
0000301a 5f5041544348 
00003020 5f5645525349 
00003026 4f4e00 
00003029 01             9082 	.byte	1
0000302a 24             9083 	.byte	36
0000302b 4d454d4d4150   9084 	.strz	"MEMMAP_ERROR "
00003031 5f4552524f52 
00003037 2000 
00003039 01             9085 	.byte	1
0000303a 9502           9086 	.byte	149,2
0000303c 53544152545f   9087 	.strz	"START_SEC_CODE "

                                                                      Page 207
                                                              C:\Users\nhuliyap\AppData\Local\Temp\gh_00008cs1.s
00003042 5345435f434f 
00003048 44452000 
0000304c 03             9088 	.byte	3
0000304d f403           9089 	.byte	244,3
0000304f 15             9090 	.byte	21
00003050 01             9091 	.byte	1
00003051 f407           9092 	.byte	244,7
00003053 434f44455f53   9093 	.strz	"CODE_SEC_OPEN "
00003059 45435f4f5045 
0000305f 4e2000 
00003062 04             9094 	.byte	4
00003063 04             9095 	.byte	4
00003064 01             9096 	.byte	1
00003065 70             9097 	.byte	112
00003066 464c535f5354   9098 	.strz	"FLS_STOP_SEC_BUFFER_CODE "
0000306c 4f505f534543 
00003072 5f4255464645 
00003078 525f434f4445 
0000307e 2000 
00003080 03             9099 	.byte	3
00003081 71             9100 	.byte	113
00003082 1c             9101 	.byte	28
00003083 01             9102 	.byte	1
00003084 02             9103 	.byte	2
00003085 4d454d4d4150   9104 	.strz	"MEMMAP_VENDOR_ID (30u)"
0000308b 5f56454e444f 
00003091 525f49442028 
00003097 3330752900 
0000309c 01             9105 	.byte	1
0000309d 08             9106 	.byte	8
0000309e 4d454d4d4150   9107 	.strz	"MEMMAP_AR_RELEASE_MAJOR_VERSION (4u)"
000030a4 5f41525f5245 
000030aa 4c454153455f 
000030b0 4d414a4f525f 
000030b6 56455253494f 
000030bc 4e2028347529 
000030c2 00 
000030c3 01             9108 	.byte	1
000030c4 09             9109 	.byte	9
000030c5 4d454d4d4150   9110 	.strz	"MEMMAP_AR_RELEASE_MINOR_VERSION (0u)"
000030cb 5f41525f5245 
000030d1 4c454153455f 
000030d7 4d494e4f525f 
000030dd 56455253494f 
000030e3 4e2028307529 
000030e9 00 
000030ea 01             9111 	.byte	1
000030eb 0a             9112 	.byte	10
000030ec 4d454d4d4150   9113 	.strz	"MEMMAP_AR_RELEASE_REVISION_VERSION (3u)"
000030f2 5f41525f5245 
000030f8 4c454153455f 
000030fe 524556495349 
00003104 4f4e5f564552 
0000310a 53494f4e2028 
00003110 33752900 
00003114 01             9114 	.byte	1
00003115 10             9115 	.byte	16
00003116 4d454d5f4152   9116 	.strz	"MEM_AR_RELEASE_MAJOR_VERSION MEMMAP_AR_RELEASE_MAJOR_VERSION"
0000311c 5f52454c4541 
00003122 53455f4d414a 
00003128 4f525f564552 

                                                                      Page 208
                                                              C:\Users\nhuliyap\AppData\Local\Temp\gh_00008cs1.s
0000312e 53494f4e204d 
00003134 454d4d41505f 
0000313a 41525f52454c 
00003140 454153455f4d 
00003146 414a4f525f56 
0000314c 455253494f4e 
00003152 00 
00003153 01             9117 	.byte	1
00003154 11             9118 	.byte	17
00003155 4d454d5f4152   9119 	.strz	"MEM_AR_RELEASE_MINOR_VERSION MEMMAP_AR_RELEASE_MINOR_VERSION"
0000315b 5f52454c4541 
00003161 53455f4d494e 
00003167 4f525f564552 
0000316d 53494f4e204d 
00003173 454d4d41505f 
00003179 41525f52454c 
0000317f 454153455f4d 
00003185 494e4f525f56 
0000318b 455253494f4e 
00003191 00 
00003192 01             9120 	.byte	1
00003193 12             9121 	.byte	18
00003194 4d454d5f4152   9122 	.strz	"MEM_AR_RELEASE_PATCH_VERSION MEMMAP_AR_RELEASE_REVISION_VERSION"
0000319a 5f52454c4541 
000031a0 53455f504154 
000031a6 43485f564552 
000031ac 53494f4e204d 
000031b2 454d4d41505f 
000031b8 41525f52454c 
000031be 454153455f52 
000031c4 45564953494f 
000031ca 4e5f56455253 
000031d0 494f4e00 
000031d4 01             9123 	.byte	1
000031d5 18             9124 	.byte	24
000031d6 4d454d4d4150   9125 	.strz	"MEMMAP_SW_MAJOR_VERSION (1u)"
000031dc 5f53575f4d41 
000031e2 4a4f525f5645 
000031e8 5253494f4e20 
000031ee 2831752900 
000031f3 01             9126 	.byte	1
000031f4 19             9127 	.byte	25
000031f5 4d454d4d4150   9128 	.strz	"MEMMAP_SW_MINOR_VERSION (11u)"
000031fb 5f53575f4d49 
00003201 4e4f525f5645 
00003207 5253494f4e20 
0000320d 283131752900 
00003213 01             9129 	.byte	1
00003214 1a             9130 	.byte	26
00003215 4d454d4d4150   9131 	.strz	"MEMMAP_SW_PATCH_VERSION (0u)"
0000321b 5f53575f5041 
00003221 5443485f5645 
00003227 5253494f4e20 
0000322d 2830752900 
00003232 01             9132 	.byte	1
00003233 20             9133 	.byte	32
00003234 4d454d5f5357   9134 	.strz	"MEM_SW_MAJOR_VERSION MEMMAP_SW_MAJOR_VERSION"
0000323a 5f4d414a4f52 
00003240 5f5645525349 
00003246 4f4e204d454d 
0000324c 4d41505f5357 

                                                                      Page 209
                                                              C:\Users\nhuliyap\AppData\Local\Temp\gh_00008cs1.s
00003252 5f4d414a4f52 
00003258 5f5645525349 
0000325e 4f4e00 
00003261 01             9135 	.byte	1
00003262 21             9136 	.byte	33
00003263 4d454d5f5357   9137 	.strz	"MEM_SW_MINOR_VERSION MEMMAP_SW_MINOR_VERSION"
00003269 5f4d494e4f52 
0000326f 5f5645525349 
00003275 4f4e204d454d 
0000327b 4d41505f5357 
00003281 5f4d494e4f52 
00003287 5f5645525349 
0000328d 4f4e00 
00003290 01             9138 	.byte	1
00003291 22             9139 	.byte	34
00003292 4d454d5f5357   9140 	.strz	"MEM_SW_PATCH_VERSION MEMMAP_SW_PATCH_VERSION"
00003298 5f5041544348 
0000329e 5f5645525349 
000032a4 4f4e204d454d 
000032aa 4d41505f5357 
000032b0 5f5041544348 
000032b6 5f5645525349 
000032bc 4f4e00 
000032bf 01             9141 	.byte	1
000032c0 24             9142 	.byte	36
000032c1 4d454d4d4150   9143 	.strz	"MEMMAP_ERROR "
000032c7 5f4552524f52 
000032cd 2000 
000032cf 01             9144 	.byte	1
000032d0 9902           9145 	.byte	153,2
000032d2 53544f505f53   9146 	.strz	"STOP_SEC_CODE "
000032d8 45435f434f44 
000032de 452000 
000032e1 03             9147 	.byte	3
000032e2 f403           9148 	.byte	244,3
000032e4 15             9149 	.byte	21
000032e5 04             9150 	.byte	4
000032e6 04             9151 	.byte	4
000032e7 04             9152 	.byte	4
000032e8 03             9153 	.byte	3
000032e9 09             9154 	.byte	9
000032ea 21             9155 	.byte	33
000032eb 04             9156 	.byte	4
000032ec 03             9157 	.byte	3
000032ed 10             9158 	.byte	16
000032ee 22             9159 	.byte	34
000032ef 04             9160 	.byte	4
000032f0 04             9161 	.byte	4
000032f1 03             9162 	.byte	3
000032f2 1d             9163 	.byte	29
000032f3 23             9164 	.byte	35
000032f4 04             9165 	.byte	4
000032f5 01             9166 	.byte	1
000032f6 72             9167 	.byte	114
000032f7 464c535f5354   9168 	.strz	"FLS_START_SEC_PUBLIC_CODE "
000032fd 4152545f5345 
00003303 435f5055424c 
00003309 49435f434f44 
0000330f 452000 
00003312 03             9169 	.byte	3
00003313 73             9170 	.byte	115

                                                                      Page 210
                                                              C:\Users\nhuliyap\AppData\Local\Temp\gh_00008cs1.s
00003314 1c             9171 	.byte	28
00003315 01             9172 	.byte	1
00003316 02             9173 	.byte	2
00003317 4d454d4d4150   9174 	.strz	"MEMMAP_VENDOR_ID (30u)"
0000331d 5f56454e444f 
00003323 525f49442028 
00003329 3330752900 
0000332e 01             9175 	.byte	1
0000332f 08             9176 	.byte	8
00003330 4d454d4d4150   9177 	.strz	"MEMMAP_AR_RELEASE_MAJOR_VERSION (4u)"
00003336 5f41525f5245 
0000333c 4c454153455f 
00003342 4d414a4f525f 
00003348 56455253494f 
0000334e 4e2028347529 
00003354 00 
00003355 01             9178 	.byte	1
00003356 09             9179 	.byte	9
00003357 4d454d4d4150   9180 	.strz	"MEMMAP_AR_RELEASE_MINOR_VERSION (0u)"
0000335d 5f41525f5245 
00003363 4c454153455f 
00003369 4d494e4f525f 
0000336f 56455253494f 
00003375 4e2028307529 
0000337b 00 
0000337c 01             9181 	.byte	1
0000337d 0a             9182 	.byte	10
0000337e 4d454d4d4150   9183 	.strz	"MEMMAP_AR_RELEASE_REVISION_VERSION (3u)"
00003384 5f41525f5245 
0000338a 4c454153455f 
00003390 524556495349 
00003396 4f4e5f564552 
0000339c 53494f4e2028 
000033a2 33752900 
000033a6 01             9184 	.byte	1
000033a7 10             9185 	.byte	16
000033a8 4d454d5f4152   9186 	.strz	"MEM_AR_RELEASE_MAJOR_VERSION MEMMAP_AR_RELEASE_MAJOR_VERSION"
000033ae 5f52454c4541 
000033b4 53455f4d414a 
000033ba 4f525f564552 
000033c0 53494f4e204d 
000033c6 454d4d41505f 
000033cc 41525f52454c 
000033d2 454153455f4d 
000033d8 414a4f525f56 
000033de 455253494f4e 
000033e4 00 
000033e5 01             9187 	.byte	1
000033e6 11             9188 	.byte	17
000033e7 4d454d5f4152   9189 	.strz	"MEM_AR_RELEASE_MINOR_VERSION MEMMAP_AR_RELEASE_MINOR_VERSION"
000033ed 5f52454c4541 
000033f3 53455f4d494e 
000033f9 4f525f564552 
000033ff 53494f4e204d 
00003405 454d4d41505f 
0000340b 41525f52454c 
00003411 454153455f4d 
00003417 494e4f525f56 
0000341d 455253494f4e 
00003423 00 
00003424 01             9190 	.byte	1

                                                                      Page 211
                                                              C:\Users\nhuliyap\AppData\Local\Temp\gh_00008cs1.s
00003425 12             9191 	.byte	18
00003426 4d454d5f4152   9192 	.strz	"MEM_AR_RELEASE_PATCH_VERSION MEMMAP_AR_RELEASE_REVISION_VERSION"
0000342c 5f52454c4541 
00003432 53455f504154 
00003438 43485f564552 
0000343e 53494f4e204d 
00003444 454d4d41505f 
0000344a 41525f52454c 
00003450 454153455f52 
00003456 45564953494f 
0000345c 4e5f56455253 
00003462 494f4e00 
00003466 01             9193 	.byte	1
00003467 18             9194 	.byte	24
00003468 4d454d4d4150   9195 	.strz	"MEMMAP_SW_MAJOR_VERSION (1u)"
0000346e 5f53575f4d41 
00003474 4a4f525f5645 
0000347a 5253494f4e20 
00003480 2831752900 
00003485 01             9196 	.byte	1
00003486 19             9197 	.byte	25
00003487 4d454d4d4150   9198 	.strz	"MEMMAP_SW_MINOR_VERSION (11u)"
0000348d 5f53575f4d49 
00003493 4e4f525f5645 
00003499 5253494f4e20 
0000349f 283131752900 
000034a5 01             9199 	.byte	1
000034a6 1a             9200 	.byte	26
000034a7 4d454d4d4150   9201 	.strz	"MEMMAP_SW_PATCH_VERSION (0u)"
000034ad 5f53575f5041 
000034b3 5443485f5645 
000034b9 5253494f4e20 
000034bf 2830752900 
000034c4 01             9202 	.byte	1
000034c5 20             9203 	.byte	32
000034c6 4d454d5f5357   9204 	.strz	"MEM_SW_MAJOR_VERSION MEMMAP_SW_MAJOR_VERSION"
000034cc 5f4d414a4f52 
000034d2 5f5645525349 
000034d8 4f4e204d454d 
000034de 4d41505f5357 
000034e4 5f4d414a4f52 
000034ea 5f5645525349 
000034f0 4f4e00 
000034f3 01             9205 	.byte	1
000034f4 21             9206 	.byte	33
000034f5 4d454d5f5357   9207 	.strz	"MEM_SW_MINOR_VERSION MEMMAP_SW_MINOR_VERSION"
000034fb 5f4d494e4f52 
00003501 5f5645525349 
00003507 4f4e204d454d 
0000350d 4d41505f5357 
00003513 5f4d494e4f52 
00003519 5f5645525349 
0000351f 4f4e00 
00003522 01             9208 	.byte	1
00003523 22             9209 	.byte	34
00003524 4d454d5f5357   9210 	.strz	"MEM_SW_PATCH_VERSION MEMMAP_SW_PATCH_VERSION"
0000352a 5f5041544348 
00003530 5f5645525349 
00003536 4f4e204d454d 
0000353c 4d41505f5357 
00003542 5f5041544348 

                                                                      Page 212
                                                              C:\Users\nhuliyap\AppData\Local\Temp\gh_00008cs1.s
00003548 5f5645525349 
0000354e 4f4e00 
00003551 01             9211 	.byte	1
00003552 24             9212 	.byte	36
00003553 4d454d4d4150   9213 	.strz	"MEMMAP_ERROR "
00003559 5f4552524f52 
0000355f 2000 
00003561 01             9214 	.byte	1
00003562 f101           9215 	.byte	241,1
00003564 53544152545f   9216 	.strz	"START_SEC_CODE "
0000356a 5345435f434f 
00003570 44452000 
00003574 03             9217 	.byte	3
00003575 f403           9218 	.byte	244,3
00003577 15             9219 	.byte	21
00003578 01             9220 	.byte	1
00003579 f407           9221 	.byte	244,7
0000357b 434f44455f53   9222 	.strz	"CODE_SEC_OPEN "
00003581 45435f4f5045 
00003587 4e2000 
0000358a 04             9223 	.byte	4
0000358b 04             9224 	.byte	4
0000358c 01             9225 	.byte	1
0000358d d001           9226 	.byte	208,1
0000358f 464c535f5354   9227 	.strz	"FLS_STOP_SEC_PUBLIC_CODE "
00003595 4f505f534543 
0000359b 5f5055424c49 
000035a1 435f434f4445 
000035a7 2000 
000035a9 03             9228 	.byte	3
000035aa d101           9229 	.byte	209,1
000035ac 1c             9230 	.byte	28
000035ad 01             9231 	.byte	1
000035ae 02             9232 	.byte	2
000035af 4d454d4d4150   9233 	.strz	"MEMMAP_VENDOR_ID (30u)"
000035b5 5f56454e444f 
000035bb 525f49442028 
000035c1 3330752900 
000035c6 01             9234 	.byte	1
000035c7 08             9235 	.byte	8
000035c8 4d454d4d4150   9236 	.strz	"MEMMAP_AR_RELEASE_MAJOR_VERSION (4u)"
000035ce 5f41525f5245 
000035d4 4c454153455f 
000035da 4d414a4f525f 
000035e0 56455253494f 
000035e6 4e2028347529 
000035ec 00 
000035ed 01             9237 	.byte	1
000035ee 09             9238 	.byte	9
000035ef 4d454d4d4150   9239 	.strz	"MEMMAP_AR_RELEASE_MINOR_VERSION (0u)"
000035f5 5f41525f5245 
000035fb 4c454153455f 
00003601 4d494e4f525f 
00003607 56455253494f 
0000360d 4e2028307529 
00003613 00 
00003614 01             9240 	.byte	1
00003615 0a             9241 	.byte	10
00003616 4d454d4d4150   9242 	.strz	"MEMMAP_AR_RELEASE_REVISION_VERSION (3u)"
0000361c 5f41525f5245 
00003622 4c454153455f 

                                                                      Page 213
                                                              C:\Users\nhuliyap\AppData\Local\Temp\gh_00008cs1.s
00003628 524556495349 
0000362e 4f4e5f564552 
00003634 53494f4e2028 
0000363a 33752900 
0000363e 01             9243 	.byte	1
0000363f 10             9244 	.byte	16
00003640 4d454d5f4152   9245 	.strz	"MEM_AR_RELEASE_MAJOR_VERSION MEMMAP_AR_RELEASE_MAJOR_VERSION"
00003646 5f52454c4541 
0000364c 53455f4d414a 
00003652 4f525f564552 
00003658 53494f4e204d 
0000365e 454d4d41505f 
00003664 41525f52454c 
0000366a 454153455f4d 
00003670 414a4f525f56 
00003676 455253494f4e 
0000367c 00 
0000367d 01             9246 	.byte	1
0000367e 11             9247 	.byte	17
0000367f 4d454d5f4152   9248 	.strz	"MEM_AR_RELEASE_MINOR_VERSION MEMMAP_AR_RELEASE_MINOR_VERSION"
00003685 5f52454c4541 
0000368b 53455f4d494e 
00003691 4f525f564552 
00003697 53494f4e204d 
0000369d 454d4d41505f 
000036a3 41525f52454c 
000036a9 454153455f4d 
000036af 494e4f525f56 
000036b5 455253494f4e 
000036bb 00 
000036bc 01             9249 	.byte	1
000036bd 12             9250 	.byte	18
000036be 4d454d5f4152   9251 	.strz	"MEM_AR_RELEASE_PATCH_VERSION MEMMAP_AR_RELEASE_REVISION_VERSION"
000036c4 5f52454c4541 
000036ca 53455f504154 
000036d0 43485f564552 
000036d6 53494f4e204d 
000036dc 454d4d41505f 
000036e2 41525f52454c 
000036e8 454153455f52 
000036ee 45564953494f 
000036f4 4e5f56455253 
000036fa 494f4e00 
000036fe 01             9252 	.byte	1
000036ff 18             9253 	.byte	24
00003700 4d454d4d4150   9254 	.strz	"MEMMAP_SW_MAJOR_VERSION (1u)"
00003706 5f53575f4d41 
0000370c 4a4f525f5645 
00003712 5253494f4e20 
00003718 2831752900 
0000371d 01             9255 	.byte	1
0000371e 19             9256 	.byte	25
0000371f 4d454d4d4150   9257 	.strz	"MEMMAP_SW_MINOR_VERSION (11u)"
00003725 5f53575f4d49 
0000372b 4e4f525f5645 
00003731 5253494f4e20 
00003737 283131752900 
0000373d 01             9258 	.byte	1
0000373e 1a             9259 	.byte	26
0000373f 4d454d4d4150   9260 	.strz	"MEMMAP_SW_PATCH_VERSION (0u)"
00003745 5f53575f5041 

                                                                      Page 214
                                                              C:\Users\nhuliyap\AppData\Local\Temp\gh_00008cs1.s
0000374b 5443485f5645 
00003751 5253494f4e20 
00003757 2830752900 
0000375c 01             9261 	.byte	1
0000375d 20             9262 	.byte	32
0000375e 4d454d5f5357   9263 	.strz	"MEM_SW_MAJOR_VERSION MEMMAP_SW_MAJOR_VERSION"
00003764 5f4d414a4f52 
0000376a 5f5645525349 
00003770 4f4e204d454d 
00003776 4d41505f5357 
0000377c 5f4d414a4f52 
00003782 5f5645525349 
00003788 4f4e00 
0000378b 01             9264 	.byte	1
0000378c 21             9265 	.byte	33
0000378d 4d454d5f5357   9266 	.strz	"MEM_SW_MINOR_VERSION MEMMAP_SW_MINOR_VERSION"
00003793 5f4d494e4f52 
00003799 5f5645525349 
0000379f 4f4e204d454d 
000037a5 4d41505f5357 
000037ab 5f4d494e4f52 
000037b1 5f5645525349 
000037b7 4f4e00 
000037ba 01             9267 	.byte	1
000037bb 22             9268 	.byte	34
000037bc 4d454d5f5357   9269 	.strz	"MEM_SW_PATCH_VERSION MEMMAP_SW_PATCH_VERSION"
000037c2 5f5041544348 
000037c8 5f5645525349 
000037ce 4f4e204d454d 
000037d4 4d41505f5357 
000037da 5f5041544348 
000037e0 5f5645525349 
000037e6 4f4e00 
000037e9 01             9270 	.byte	1
000037ea 24             9271 	.byte	36
000037eb 4d454d4d4150   9272 	.strz	"MEMMAP_ERROR "
000037f1 5f4552524f52 
000037f7 2000 
000037f9 01             9273 	.byte	1
000037fa f501           9274 	.byte	245,1
000037fc 53544f505f53   9275 	.strz	"STOP_SEC_CODE "
00003802 45435f434f44 
00003808 452000 
0000380b 03             9276 	.byte	3
0000380c f403           9277 	.byte	244,3
0000380e 15             9278 	.byte	21
0000380f 04             9279 	.byte	4
00003810 04             9280 	.byte	4
00003811 01             9281 	.byte	1
00003812 d301           9282 	.byte	211,1
00003814 464c535f5354   9283 	.strz	"FLS_START_SEC_DBTOC_DATA_UNSPECIFIED "
0000381a 4152545f5345 
00003820 435f4442544f 
00003826 435f44415441 
0000382c 5f554e535045 
00003832 434946494544 
00003838 2000 
0000383a 03             9284 	.byte	3
0000383b d401           9285 	.byte	212,1
0000383d 1c             9286 	.byte	28
0000383e 01             9287 	.byte	1

                                                                      Page 215
                                                              C:\Users\nhuliyap\AppData\Local\Temp\gh_00008cs1.s
0000383f 02             9288 	.byte	2
00003840 4d454d4d4150   9289 	.strz	"MEMMAP_VENDOR_ID (30u)"
00003846 5f56454e444f 
0000384c 525f49442028 
00003852 3330752900 
00003857 01             9290 	.byte	1
00003858 08             9291 	.byte	8
00003859 4d454d4d4150   9292 	.strz	"MEMMAP_AR_RELEASE_MAJOR_VERSION (4u)"
0000385f 5f41525f5245 
00003865 4c454153455f 
0000386b 4d414a4f525f 
00003871 56455253494f 
00003877 4e2028347529 
0000387d 00 
0000387e 01             9293 	.byte	1
0000387f 09             9294 	.byte	9
00003880 4d454d4d4150   9295 	.strz	"MEMMAP_AR_RELEASE_MINOR_VERSION (0u)"
00003886 5f41525f5245 
0000388c 4c454153455f 
00003892 4d494e4f525f 
00003898 56455253494f 
0000389e 4e2028307529 
000038a4 00 
000038a5 01             9296 	.byte	1
000038a6 0a             9297 	.byte	10
000038a7 4d454d4d4150   9298 	.strz	"MEMMAP_AR_RELEASE_REVISION_VERSION (3u)"
000038ad 5f41525f5245 
000038b3 4c454153455f 
000038b9 524556495349 
000038bf 4f4e5f564552 
000038c5 53494f4e2028 
000038cb 33752900 
000038cf 01             9299 	.byte	1
000038d0 10             9300 	.byte	16
000038d1 4d454d5f4152   9301 	.strz	"MEM_AR_RELEASE_MAJOR_VERSION MEMMAP_AR_RELEASE_MAJOR_VERSION"
000038d7 5f52454c4541 
000038dd 53455f4d414a 
000038e3 4f525f564552 
000038e9 53494f4e204d 
000038ef 454d4d41505f 
000038f5 41525f52454c 
000038fb 454153455f4d 
00003901 414a4f525f56 
00003907 455253494f4e 
0000390d 00 
0000390e 01             9302 	.byte	1
0000390f 11             9303 	.byte	17
00003910 4d454d5f4152   9304 	.strz	"MEM_AR_RELEASE_MINOR_VERSION MEMMAP_AR_RELEASE_MINOR_VERSION"
00003916 5f52454c4541 
0000391c 53455f4d494e 
00003922 4f525f564552 
00003928 53494f4e204d 
0000392e 454d4d41505f 
00003934 41525f52454c 
0000393a 454153455f4d 
00003940 494e4f525f56 
00003946 455253494f4e 
0000394c 00 
0000394d 01             9305 	.byte	1
0000394e 12             9306 	.byte	18
0000394f 4d454d5f4152   9307 	.strz	"MEM_AR_RELEASE_PATCH_VERSION MEMMAP_AR_RELEASE_REVISION_VERSION"

                                                                      Page 216
                                                              C:\Users\nhuliyap\AppData\Local\Temp\gh_00008cs1.s
00003955 5f52454c4541 
0000395b 53455f504154 
00003961 43485f564552 
00003967 53494f4e204d 
0000396d 454d4d41505f 
00003973 41525f52454c 
00003979 454153455f52 
0000397f 45564953494f 
00003985 4e5f56455253 
0000398b 494f4e00 
0000398f 01             9308 	.byte	1
00003990 18             9309 	.byte	24
00003991 4d454d4d4150   9310 	.strz	"MEMMAP_SW_MAJOR_VERSION (1u)"
00003997 5f53575f4d41 
0000399d 4a4f525f5645 
000039a3 5253494f4e20 
000039a9 2831752900 
000039ae 01             9311 	.byte	1
000039af 19             9312 	.byte	25
000039b0 4d454d4d4150   9313 	.strz	"MEMMAP_SW_MINOR_VERSION (11u)"
000039b6 5f53575f4d49 
000039bc 4e4f525f5645 
000039c2 5253494f4e20 
000039c8 283131752900 
000039ce 01             9314 	.byte	1
000039cf 1a             9315 	.byte	26
000039d0 4d454d4d4150   9316 	.strz	"MEMMAP_SW_PATCH_VERSION (0u)"
000039d6 5f53575f5041 
000039dc 5443485f5645 
000039e2 5253494f4e20 
000039e8 2830752900 
000039ed 01             9317 	.byte	1
000039ee 20             9318 	.byte	32
000039ef 4d454d5f5357   9319 	.strz	"MEM_SW_MAJOR_VERSION MEMMAP_SW_MAJOR_VERSION"
000039f5 5f4d414a4f52 
000039fb 5f5645525349 
00003a01 4f4e204d454d 
00003a07 4d41505f5357 
00003a0d 5f4d414a4f52 
00003a13 5f5645525349 
00003a19 4f4e00 
00003a1c 01             9320 	.byte	1
00003a1d 21             9321 	.byte	33
00003a1e 4d454d5f5357   9322 	.strz	"MEM_SW_MINOR_VERSION MEMMAP_SW_MINOR_VERSION"
00003a24 5f4d494e4f52 
00003a2a 5f5645525349 
00003a30 4f4e204d454d 
00003a36 4d41505f5357 
00003a3c 5f4d494e4f52 
00003a42 5f5645525349 
00003a48 4f4e00 
00003a4b 01             9323 	.byte	1
00003a4c 22             9324 	.byte	34
00003a4d 4d454d5f5357   9325 	.strz	"MEM_SW_PATCH_VERSION MEMMAP_SW_PATCH_VERSION"
00003a53 5f5041544348 
00003a59 5f5645525349 
00003a5f 4f4e204d454d 
00003a65 4d41505f5357 
00003a6b 5f5041544348 
00003a71 5f5645525349 
00003a77 4f4e00 

                                                                      Page 217
                                                              C:\Users\nhuliyap\AppData\Local\Temp\gh_00008cs1.s
00003a7a 01             9326 	.byte	1
00003a7b 24             9327 	.byte	36
00003a7c 4d454d4d4150   9328 	.strz	"MEMMAP_ERROR "
00003a82 5f4552524f52 
00003a88 2000 
00003a8a 01             9329 	.byte	1
00003a8b dd02           9330 	.byte	221,2
00003a8d 53544152545f   9331 	.strz	"START_SEC_CONST_UNSPECIFIED "
00003a93 5345435f434f 
00003a99 4e53545f554e 
00003a9f 535045434946 
00003aa5 4945442000 
00003aaa 03             9332 	.byte	3
00003aab f403           9333 	.byte	244,3
00003aad 15             9334 	.byte	21
00003aae 01             9335 	.byte	1
00003aaf b508           9336 	.byte	181,8
00003ab1 434f4e53545f   9337 	.strz	"CONST_SEC_OPEN "
00003ab7 5345435f4f50 
00003abd 454e2000 
00003ac1 04             9338 	.byte	4
00003ac2 04             9339 	.byte	4
00003ac3 01             9340 	.byte	1
00003ac4 d801           9341 	.byte	216,1
00003ac6 464c535f5354   9342 	.strz	"FLS_STOP_SEC_DBTOC_DATA_UNSPECIFIED "
00003acc 4f505f534543 
00003ad2 5f4442544f43 
00003ad8 5f444154415f 
00003ade 554e53504543 
00003ae4 494649454420 
00003aea 00 
00003aeb 03             9343 	.byte	3
00003aec d901           9344 	.byte	217,1
00003aee 1c             9345 	.byte	28
00003aef 01             9346 	.byte	1
00003af0 02             9347 	.byte	2
00003af1 4d454d4d4150   9348 	.strz	"MEMMAP_VENDOR_ID (30u)"
00003af7 5f56454e444f 
00003afd 525f49442028 
00003b03 3330752900 
00003b08 01             9349 	.byte	1
00003b09 08             9350 	.byte	8
00003b0a 4d454d4d4150   9351 	.strz	"MEMMAP_AR_RELEASE_MAJOR_VERSION (4u)"
00003b10 5f41525f5245 
00003b16 4c454153455f 
00003b1c 4d414a4f525f 
00003b22 56455253494f 
00003b28 4e2028347529 
00003b2e 00 
00003b2f 01             9352 	.byte	1
00003b30 09             9353 	.byte	9
00003b31 4d454d4d4150   9354 	.strz	"MEMMAP_AR_RELEASE_MINOR_VERSION (0u)"
00003b37 5f41525f5245 
00003b3d 4c454153455f 
00003b43 4d494e4f525f 
00003b49 56455253494f 
00003b4f 4e2028307529 
00003b55 00 
00003b56 01             9355 	.byte	1
00003b57 0a             9356 	.byte	10
00003b58 4d454d4d4150   9357 	.strz	"MEMMAP_AR_RELEASE_REVISION_VERSION (3u)"

                                                                      Page 218
                                                              C:\Users\nhuliyap\AppData\Local\Temp\gh_00008cs1.s
00003b5e 5f41525f5245 
00003b64 4c454153455f 
00003b6a 524556495349 
00003b70 4f4e5f564552 
00003b76 53494f4e2028 
00003b7c 33752900 
00003b80 01             9358 	.byte	1
00003b81 10             9359 	.byte	16
00003b82 4d454d5f4152   9360 	.strz	"MEM_AR_RELEASE_MAJOR_VERSION MEMMAP_AR_RELEASE_MAJOR_VERSION"
00003b88 5f52454c4541 
00003b8e 53455f4d414a 
00003b94 4f525f564552 
00003b9a 53494f4e204d 
00003ba0 454d4d41505f 
00003ba6 41525f52454c 
00003bac 454153455f4d 
00003bb2 414a4f525f56 
00003bb8 455253494f4e 
00003bbe 00 
00003bbf 01             9361 	.byte	1
00003bc0 11             9362 	.byte	17
00003bc1 4d454d5f4152   9363 	.strz	"MEM_AR_RELEASE_MINOR_VERSION MEMMAP_AR_RELEASE_MINOR_VERSION"
00003bc7 5f52454c4541 
00003bcd 53455f4d494e 
00003bd3 4f525f564552 
00003bd9 53494f4e204d 
00003bdf 454d4d41505f 
00003be5 41525f52454c 
00003beb 454153455f4d 
00003bf1 494e4f525f56 
00003bf7 455253494f4e 
00003bfd 00 
00003bfe 01             9364 	.byte	1
00003bff 12             9365 	.byte	18
00003c00 4d454d5f4152   9366 	.strz	"MEM_AR_RELEASE_PATCH_VERSION MEMMAP_AR_RELEASE_REVISION_VERSION"
00003c06 5f52454c4541 
00003c0c 53455f504154 
00003c12 43485f564552 
00003c18 53494f4e204d 
00003c1e 454d4d41505f 
00003c24 41525f52454c 
00003c2a 454153455f52 
00003c30 45564953494f 
00003c36 4e5f56455253 
00003c3c 494f4e00 
00003c40 01             9367 	.byte	1
00003c41 18             9368 	.byte	24
00003c42 4d454d4d4150   9369 	.strz	"MEMMAP_SW_MAJOR_VERSION (1u)"
00003c48 5f53575f4d41 
00003c4e 4a4f525f5645 
00003c54 5253494f4e20 
00003c5a 2831752900 
00003c5f 01             9370 	.byte	1
00003c60 19             9371 	.byte	25
00003c61 4d454d4d4150   9372 	.strz	"MEMMAP_SW_MINOR_VERSION (11u)"
00003c67 5f53575f4d49 
00003c6d 4e4f525f5645 
00003c73 5253494f4e20 
00003c79 283131752900 
00003c7f 01             9373 	.byte	1
00003c80 1a             9374 	.byte	26

                                                                      Page 219
                                                              C:\Users\nhuliyap\AppData\Local\Temp\gh_00008cs1.s
00003c81 4d454d4d4150   9375 	.strz	"MEMMAP_SW_PATCH_VERSION (0u)"
00003c87 5f53575f5041 
00003c8d 5443485f5645 
00003c93 5253494f4e20 
00003c99 2830752900 
00003c9e 01             9376 	.byte	1
00003c9f 20             9377 	.byte	32
00003ca0 4d454d5f5357   9378 	.strz	"MEM_SW_MAJOR_VERSION MEMMAP_SW_MAJOR_VERSION"
00003ca6 5f4d414a4f52 
00003cac 5f5645525349 
00003cb2 4f4e204d454d 
00003cb8 4d41505f5357 
00003cbe 5f4d414a4f52 
00003cc4 5f5645525349 
00003cca 4f4e00 
00003ccd 01             9379 	.byte	1
00003cce 21             9380 	.byte	33
00003ccf 4d454d5f5357   9381 	.strz	"MEM_SW_MINOR_VERSION MEMMAP_SW_MINOR_VERSION"
00003cd5 5f4d494e4f52 
00003cdb 5f5645525349 
00003ce1 4f4e204d454d 
00003ce7 4d41505f5357 
00003ced 5f4d494e4f52 
00003cf3 5f5645525349 
00003cf9 4f4e00 
00003cfc 01             9382 	.byte	1
00003cfd 22             9383 	.byte	34
00003cfe 4d454d5f5357   9384 	.strz	"MEM_SW_PATCH_VERSION MEMMAP_SW_PATCH_VERSION"
00003d04 5f5041544348 
00003d0a 5f5645525349 
00003d10 4f4e204d454d 
00003d16 4d41505f5357 
00003d1c 5f5041544348 
00003d22 5f5645525349 
00003d28 4f4e00 
00003d2b 01             9385 	.byte	1
00003d2c 24             9386 	.byte	36
00003d2d 4d454d4d4150   9387 	.strz	"MEMMAP_ERROR "
00003d33 5f4552524f52 
00003d39 2000 
00003d3b 01             9388 	.byte	1
00003d3c e102           9389 	.byte	225,2
00003d3e 53544f505f53   9390 	.strz	"STOP_SEC_CONST "
00003d44 45435f434f4e 
00003d4a 53542000 
00003d4e 03             9391 	.byte	3
00003d4f f403           9392 	.byte	244,3
00003d51 15             9393 	.byte	21
00003d52 04             9394 	.byte	4
00003d53 04             9395 	.byte	4
00003d54 04             9396 	.byte	4
00003d55 03             9397 	.byte	3
00003d56 04             9398 	.byte	4
00003d57 24             9399 	.byte	36
00003d58 01             9400 	.byte	1
00003d59 04             9401 	.byte	4
00003d5a 4e564d5f485f   9402 	.strz	"NVM_H_ "
00003d60 2000 
00003d62 03             9403 	.byte	3
00003d63 13             9404 	.byte	19
00003d64 25             9405 	.byte	37

                                                                      Page 220
                                                              C:\Users\nhuliyap\AppData\Local\Temp\gh_00008cs1.s
00003d65 03             9406 	.byte	3
00003d66 20             9407 	.byte	32
00003d67 26             9408 	.byte	38
00003d68 01             9409 	.byte	1
00003d69 13             9410 	.byte	19
00003d6a 4e564d5f5245   9411 	.strz	"NVM_REQ_OK (0u)"
00003d70 515f4f4b2028 
00003d76 30752900 
00003d7a 01             9412 	.byte	1
00003d7b 16             9413 	.byte	22
00003d7c 4e564d5f5245   9414 	.strz	"NVM_REQ_NOT_OK (1u)"
00003d82 515f4e4f545f 
00003d88 4f4b20283175 
00003d8e 2900 
00003d90 01             9415 	.byte	1
00003d91 19             9416 	.byte	25
00003d92 4e564d5f5245   9417 	.strz	"NVM_REQ_PENDING (2u)"
00003d98 515f50454e44 
00003d9e 494e47202832 
00003da4 752900 
00003da7 01             9418 	.byte	1
00003da8 1c             9419 	.byte	28
00003da9 4e564d5f5245   9420 	.strz	"NVM_REQ_INTEGRITY_FAILED (3u)"
00003daf 515f494e5445 
00003db5 47524954595f 
00003dbb 4641494c4544 
00003dc1 202833752900 
00003dc7 01             9421 	.byte	1
00003dc8 1f             9422 	.byte	31
00003dc9 4e564d5f5245   9423 	.strz	"NVM_REQ_BLOCK_SKIPPED (4u)"
00003dcf 515f424c4f43 
00003dd5 4b5f534b4950 
00003ddb 504544202834 
00003de1 752900 
00003de4 01             9424 	.byte	1
00003de5 22             9425 	.byte	34
00003de6 4e564d5f5245   9426 	.strz	"NVM_REQ_NV_INVALIDATED (5u)"
00003dec 515f4e565f49 
00003df2 4e56414c4944 
00003df8 415445442028 
00003dfe 35752900 
00003e02 01             9427 	.byte	1
00003e03 25             9428 	.byte	37
00003e04 4e564d5f5245   9429 	.strz	"NVM_REQ_CANCELED (6u)"
00003e0a 515f43414e43 
00003e10 454c45442028 
00003e16 36752900 
00003e1a 01             9430 	.byte	1
00003e1b 28             9431 	.byte	40
00003e1c 4e564d5f5245   9432 	.strz	"NVM_REQ_REDUNDANCY_FAILED (7u)"
00003e22 515f52454455 
00003e28 4e44414e4359 
00003e2e 5f4641494c45 
00003e34 442028377529 
00003e3a 00 
00003e3b 01             9433 	.byte	1
00003e3c 2b             9434 	.byte	43
00003e3d 4e564d5f5245   9435 	.strz	"NVM_REQ_RESTORED_FROM_ROM (8u)"
00003e43 515f52455354 
00003e49 4f5245445f46 
00003e4f 524f4d5f524f 

                                                                      Page 221
                                                              C:\Users\nhuliyap\AppData\Local\Temp\gh_00008cs1.s
00003e55 4d2028387529 
00003e5b 00 
00003e5c 04             9436 	.byte	4
00003e5d 01             9437 	.byte	1
00003e5e 27             9438 	.byte	39
00003e5f 4e564d5f4150   9439 	.strz	"NVM_API_CONFIG_CLASS_1 (1u)"
00003e65 495f434f4e46 
00003e6b 49475f434c41 
00003e71 53535f312028 
00003e77 31752900 
00003e7b 01             9440 	.byte	1
00003e7c 29             9441 	.byte	41
00003e7d 4e564d5f4150   9442 	.strz	"NVM_API_CONFIG_CLASS_3 (7u)"
00003e83 495f434f4e46 
00003e89 49475f434c41 
00003e8f 53535f332028 
00003e95 37752900 
00003e99 01             9443 	.byte	1
00003e9a 2a             9444 	.byte	42
00003e9b 4e564d5f4150   9445 	.strz	"NVM_API_CONFIG_CLASS (NVM_API_CONFIG_CLASS_3)"
00003ea1 495f434f4e46 
00003ea7 49475f434c41 
00003ead 535320284e56 
00003eb3 4d5f4150495f 
00003eb9 434f4e464947 
00003ebf 5f434c415353 
00003ec5 5f332900 
00003ec9 01             9446 	.byte	1
00003eca 32             9447 	.byte	50
00003ecb 4e564d5f5645   9448 	.strz	"NVM_VERSION_INFO_API (STD_ON)"
00003ed1 5253494f4e5f 
00003ed7 494e464f5f41 
00003edd 504920285354 
00003ee3 445f4f4e2900 
00003ee9 01             9449 	.byte	1
00003eea 33             9450 	.byte	51
00003eeb 4e564d5f5345   9451 	.strz	"NVM_SET_RAM_BLOCK_STATUS_API (STD_ON)"
00003ef1 545f52414d5f 
00003ef7 424c4f434b5f 
00003efd 535441545553 
00003f03 5f4150492028 
00003f09 5354445f4f4e 
00003f0f 2900 
00003f11 01             9452 	.byte	1
00003f12 34             9453 	.byte	52
00003f13 4e564d5f4b49   9454 	.strz	"NVM_KILL_WRITEALL_API (STD_ON)"
00003f19 4c4c5f575249 
00003f1f 5445414c4c5f 
00003f25 415049202853 
00003f2b 54445f4f4e29 
00003f31 00 
00003f32 01             9455 	.byte	1
00003f33 35             9456 	.byte	53
00003f34 4e564d5f5245   9457 	.strz	"NVM_REPAIR_REDUNDANT_BLOCKS_API (STD_OFF)"
00003f3a 504149525f52 
00003f40 4544554e4441 
00003f46 4e545f424c4f 
00003f4c 434b535f4150 
00003f52 492028535444 
00003f58 5f4f46462900 
00003f5e 01             9458 	.byte	1

                                                                      Page 222
                                                              C:\Users\nhuliyap\AppData\Local\Temp\gh_00008cs1.s
00003f5f 39             9459 	.byte	57
00003f60 4e764d436f6e   9460 	.strz	"NvMConf___MultiBlockRequest (0U)"
00003f66 665f5f5f4d75 
00003f6c 6c7469426c6f 
00003f72 636b52657175 
00003f78 657374202830 
00003f7e 552900 
00003f81 01             9461 	.byte	1
00003f82 3b             9462 	.byte	59
00003f83 4e764d436f6e   9463 	.strz	"NvMConf_NvMBlockDescriptor_NvMBlock_CAT01 (2UL)"
00003f89 665f4e764d42 
00003f8f 6c6f636b4465 
00003f95 736372697074 
00003f9b 6f725f4e764d 
00003fa1 426c6f636b5f 
00003fa7 434154303120 
00003fad 2832554c2900 
00003fb3 01             9464 	.byte	1
00003fb4 3c             9465 	.byte	60
00003fb5 4e764d436f6e   9466 	.strz	"NvMConf_NvMBlockDescriptor_NvMBlock_CAT02 (3UL)"
00003fbb 665f4e764d42 
00003fc1 6c6f636b4465 
00003fc7 736372697074 
00003fcd 6f725f4e764d 
00003fd3 426c6f636b5f 
00003fd9 434154303220 
00003fdf 2833554c2900 
00003fe5 01             9467 	.byte	1
00003fe6 3d             9468 	.byte	61
00003fe7 4e764d436f6e   9469 	.strz	"NvMConf_NvMBlockDescriptor_NvMBlock_CAT03 (4UL)"
00003fed 665f4e764d42 
00003ff3 6c6f636b4465 
00003ff9 736372697074 
00003fff 6f725f4e764d 
00004005 426c6f636b5f 
0000400b 434154303320 
00004011 2834554c2900 
00004017 01             9470 	.byte	1
00004018 3e             9471 	.byte	62
00004019 4e764d436f6e   9472 	.strz	"NvMConf_NvMBlockDescriptor_NvMBlock_CAT04 (5UL)"
0000401f 665f4e764d42 
00004025 6c6f636b4465 
0000402b 736372697074 
00004031 6f725f4e764d 
00004037 426c6f636b5f 
0000403d 434154303420 
00004043 2835554c2900 
00004049 01             9473 	.byte	1
0000404a 3f             9474 	.byte	63
0000404b 4e764d436f6e   9475 	.strz	"NvMConf_NvMBlockDescriptor_NvMBlock_CAT05 (6UL)"
00004051 665f4e764d42 
00004057 6c6f636b4465 
0000405d 736372697074 
00004063 6f725f4e764d 
00004069 426c6f636b5f 
0000406f 434154303520 
00004075 2836554c2900 
0000407b 01             9476 	.byte	1
0000407c 40             9477 	.byte	64
0000407d 4e764d436f6e   9478 	.strz	"NvMConf_NvMBlockDescriptor_NvMBlock_CAT06 (7UL)"
00004083 665f4e764d42 

                                                                      Page 223
                                                              C:\Users\nhuliyap\AppData\Local\Temp\gh_00008cs1.s
00004089 6c6f636b4465 
0000408f 736372697074 
00004095 6f725f4e764d 
0000409b 426c6f636b5f 
000040a1 434154303620 
000040a7 2837554c2900 
000040ad 01             9479 	.byte	1
000040ae 41             9480 	.byte	65
000040af 4e764d436f6e   9481 	.strz	"NvMConf_NvMBlockDescriptor_NvMBlock_CAT07 (8UL)"
000040b5 665f4e764d42 
000040bb 6c6f636b4465 
000040c1 736372697074 
000040c7 6f725f4e764d 
000040cd 426c6f636b5f 
000040d3 434154303720 
000040d9 2838554c2900 
000040df 01             9482 	.byte	1
000040e0 42             9483 	.byte	66
000040e1 4e764d436f6e   9484 	.strz	"NvMConf_NvMBlockDescriptor_NvMBlock_CAT08 (9UL)"
000040e7 665f4e764d42 
000040ed 6c6f636b4465 
000040f3 736372697074 
000040f9 6f725f4e764d 
000040ff 426c6f636b5f 
00004105 434154303820 
0000410b 2839554c2900 
00004111 01             9485 	.byte	1
00004112 43             9486 	.byte	67
00004113 4e764d436f6e   9487 	.strz	"NvMConf_NvMBlockDescriptor_NvMBlock_CAT09 (10UL)"
00004119 665f4e764d42 
0000411f 6c6f636b4465 
00004125 736372697074 
0000412b 6f725f4e764d 
00004131 426c6f636b5f 
00004137 434154303920 
0000413d 283130554c29 
00004143 00 
00004144 01             9488 	.byte	1
00004145 44             9489 	.byte	68
00004146 4e764d436f6e   9490 	.strz	"NvMConf_NvMBlockDescriptor_NvMBlock_CAT10 (11UL)"
0000414c 665f4e764d42 
00004152 6c6f636b4465 
00004158 736372697074 
0000415e 6f725f4e764d 
00004164 426c6f636b5f 
0000416a 434154313020 
00004170 283131554c29 
00004176 00 
00004177 01             9491 	.byte	1
00004178 45             9492 	.byte	69
00004179 4e764d436f6e   9493 	.strz	"NvMConf_NvMBlockDescriptor_NvMBlock_BSW_Data (12UL)"
0000417f 665f4e764d42 
00004185 6c6f636b4465 
0000418b 736372697074 
00004191 6f725f4e764d 
00004197 426c6f636b5f 
0000419d 4253575f4461 
000041a3 746120283132 
000041a9 554c2900 
000041ad 01             9494 	.byte	1
000041ae 46             9495 	.byte	70

                                                                      Page 224
                                                              C:\Users\nhuliyap\AppData\Local\Temp\gh_00008cs1.s
000041af 4e764d436f6e   9496 	.strz	"NvMConf_NvMBlockDescriptor_ECUM_CFG_NVM_BLOCK (13UL)"
000041b5 665f4e764d42 
000041bb 6c6f636b4465 
000041c1 736372697074 
000041c7 6f725f454355 
000041cd 4d5f4346475f 
000041d3 4e564d5f424c 
000041d9 4f434b202831 
000041df 33554c2900 
000041e4 01             9497 	.byte	1
000041e5 47             9498 	.byte	71
000041e6 4e764d436f6e   9499 	.strz	"NvMConf_NvMBlockDescriptor_NvMBlock_DemNvm_IdEvStatusByte (14UL)"
000041ec 665f4e764d42 
000041f2 6c6f636b4465 
000041f8 736372697074 
000041fe 6f725f4e764d 
00004204 426c6f636b5f 
0000420a 44656d4e766d 
00004210 5f4964457653 
00004216 746174757342 
0000421c 797465202831 
00004222 34554c2900 
00004227 01             9500 	.byte	1
00004228 48             9501 	.byte	72
00004229 4e764d436f6e   9502 	.strz	"NvMConf_NvMBlockDescriptor_NvMBlock_DemNvm_IdEvMemLoc0 (15UL)"
0000422f 665f4e764d42 
00004235 6c6f636b4465 
0000423b 736372697074 
00004241 6f725f4e764d 
00004247 426c6f636b5f 
0000424d 44656d4e766d 
00004253 5f496445764d 
00004259 656d4c6f6330 
0000425f 20283135554c 
00004265 2900 
00004267 01             9503 	.byte	1
00004268 49             9504 	.byte	73
00004269 4e764d436f6e   9505 	.strz	"NvMConf_NvMBlockDescriptor_NvMBlock_DemNvm_IdEvMemLoc1 (16UL)"
0000426f 665f4e764d42 
00004275 6c6f636b4465 
0000427b 736372697074 
00004281 6f725f4e764d 
00004287 426c6f636b5f 
0000428d 44656d4e766d 
00004293 5f496445764d 
00004299 656d4c6f6331 
0000429f 20283136554c 
000042a5 2900 
000042a7 01             9506 	.byte	1
000042a8 4a             9507 	.byte	74
000042a9 4e764d436f6e   9508 	.strz	"NvMConf_NvMBlockDescriptor_NvMBlock_DemNvm_IdEvMemLoc2 (17UL)"
000042af 665f4e764d42 
000042b5 6c6f636b4465 
000042bb 736372697074 
000042c1 6f725f4e764d 
000042c7 426c6f636b5f 
000042cd 44656d4e766d 
000042d3 5f496445764d 
000042d9 656d4c6f6332 
000042df 20283137554c 
000042e5 2900 

                                                                      Page 225
                                                              C:\Users\nhuliyap\AppData\Local\Temp\gh_00008cs1.s
000042e7 01             9509 	.byte	1
000042e8 4b             9510 	.byte	75
000042e9 4e764d436f6e   9511 	.strz	"NvMConf_NvMBlockDescriptor_NvMBlock_DemNvm_IdEvMemLoc3 (18UL)"
000042ef 665f4e764d42 
000042f5 6c6f636b4465 
000042fb 736372697074 
00004301 6f725f4e764d 
00004307 426c6f636b5f 
0000430d 44656d4e766d 
00004313 5f496445764d 
00004319 656d4c6f6333 
0000431f 20283138554c 
00004325 2900 
00004327 01             9512 	.byte	1
00004328 4c             9513 	.byte	76
00004329 4e764d436f6e   9514 	.strz	"NvMConf_NvMBlockDescriptor_NvMBlock_DemNvm_IdEvMemLoc4 (19UL)"
0000432f 665f4e764d42 
00004335 6c6f636b4465 
0000433b 736372697074 
00004341 6f725f4e764d 
00004347 426c6f636b5f 
0000434d 44656d4e766d 
00004353 5f496445764d 
00004359 656d4c6f6334 
0000435f 20283139554c 
00004365 2900 
00004367 01             9515 	.byte	1
00004368 4d             9516 	.byte	77
00004369 4e764d436f6e   9517 	.strz	"NvMConf_NvMBlockDescriptor_NvMBlock_DemNvm_IdEvMemLoc5 (20UL)"
0000436f 665f4e764d42 
00004375 6c6f636b4465 
0000437b 736372697074 
00004381 6f725f4e764d 
00004387 426c6f636b5f 
0000438d 44656d4e766d 
00004393 5f496445764d 
00004399 656d4c6f6335 
0000439f 20283230554c 
000043a5 2900 
000043a7 01             9518 	.byte	1
000043a8 4e             9519 	.byte	78
000043a9 4e764d436f6e   9520 	.strz	"NvMConf_NvMBlockDescriptor_NvMBlock_DemNvm_IdEvMemLoc6 (21UL)"
000043af 665f4e764d42 
000043b5 6c6f636b4465 
000043bb 736372697074 
000043c1 6f725f4e764d 
000043c7 426c6f636b5f 
000043cd 44656d4e766d 
000043d3 5f496445764d 
000043d9 656d4c6f6336 
000043df 20283231554c 
000043e5 2900 
000043e7 01             9521 	.byte	1
000043e8 4f             9522 	.byte	79
000043e9 4e764d436f6e   9523 	.strz	"NvMConf_NvMBlockDescriptor_NvMBlock_DemNvm_IdEvMemLoc7 (22UL)"
000043ef 665f4e764d42 
000043f5 6c6f636b4465 
000043fb 736372697074 
00004401 6f725f4e764d 
00004407 426c6f636b5f 
0000440d 44656d4e766d 

                                                                      Page 226
                                                              C:\Users\nhuliyap\AppData\Local\Temp\gh_00008cs1.s
00004413 5f496445764d 
00004419 656d4c6f6337 
0000441f 20283232554c 
00004425 2900 
00004427 01             9524 	.byte	1
00004428 50             9525 	.byte	80
00004429 4e764d436f6e   9526 	.strz	"NvMConf_NvMBlockDescriptor_NvMBlock_DemNvm_IdEvMemLoc8 (23UL)"
0000442f 665f4e764d42 
00004435 6c6f636b4465 
0000443b 736372697074 
00004441 6f725f4e764d 
00004447 426c6f636b5f 
0000444d 44656d4e766d 
00004453 5f496445764d 
00004459 656d4c6f6338 
0000445f 20283233554c 
00004465 2900 
00004467 01             9527 	.byte	1
00004468 51             9528 	.byte	81
00004469 4e764d436f6e   9529 	.strz	"NvMConf_NvMBlockDescriptor_NvMBlock_DemNvm_IdEvMemLoc9 (24UL)"
0000446f 665f4e764d42 
00004475 6c6f636b4465 
0000447b 736372697074 
00004481 6f725f4e764d 
00004487 426c6f636b5f 
0000448d 44656d4e766d 
00004493 5f496445764d 
00004499 656d4c6f6339 
0000449f 20283234554c 
000044a5 2900 
000044a7 01             9530 	.byte	1
000044a8 52             9531 	.byte	82
000044a9 4e764d436f6e   9532 	.strz	"NvMConf_NvMBlockDescriptor_NvMBlock_DemNvm_IdDemGenericNvData (25UL)"
000044af 665f4e764d42 
000044b5 6c6f636b4465 
000044bb 736372697074 
000044c1 6f725f4e764d 
000044c7 426c6f636b5f 
000044cd 44656d4e766d 
000044d3 5f496444656d 
000044d9 47656e657269 
000044df 634e76446174 
000044e5 612028323555 
000044eb 4c2900 
000044ee 01             9533 	.byte	1
000044ef a001           9534 	.byte	160,1
000044f1 4e564d5f5354   9535 	.strz	"NVM_START_SEC_CONST_DESCRIPTOR_TABLE "
000044f7 4152545f5345 
000044fd 435f434f4e53 
00004503 545f44455343 
00004509 524950544f52 
0000450f 5f5441424c45 
00004515 2000 
00004517 03             9536 	.byte	3
00004518 a101           9537 	.byte	161,1
0000451a 1c             9538 	.byte	28
0000451b 01             9539 	.byte	1
0000451c 02             9540 	.byte	2
0000451d 4d454d4d4150   9541 	.strz	"MEMMAP_VENDOR_ID (30u)"
00004523 5f56454e444f 
00004529 525f49442028 

                                                                      Page 227
                                                              C:\Users\nhuliyap\AppData\Local\Temp\gh_00008cs1.s
0000452f 3330752900 
00004534 01             9542 	.byte	1
00004535 08             9543 	.byte	8
00004536 4d454d4d4150   9544 	.strz	"MEMMAP_AR_RELEASE_MAJOR_VERSION (4u)"
0000453c 5f41525f5245 
00004542 4c454153455f 
00004548 4d414a4f525f 
0000454e 56455253494f 
00004554 4e2028347529 
0000455a 00 
0000455b 01             9545 	.byte	1
0000455c 09             9546 	.byte	9
0000455d 4d454d4d4150   9547 	.strz	"MEMMAP_AR_RELEASE_MINOR_VERSION (0u)"
00004563 5f41525f5245 
00004569 4c454153455f 
0000456f 4d494e4f525f 
00004575 56455253494f 
0000457b 4e2028307529 
00004581 00 
00004582 01             9548 	.byte	1
00004583 0a             9549 	.byte	10
00004584 4d454d4d4150   9550 	.strz	"MEMMAP_AR_RELEASE_REVISION_VERSION (3u)"
0000458a 5f41525f5245 
00004590 4c454153455f 
00004596 524556495349 
0000459c 4f4e5f564552 
000045a2 53494f4e2028 
000045a8 33752900 
000045ac 01             9551 	.byte	1
000045ad 10             9552 	.byte	16
000045ae 4d454d5f4152   9553 	.strz	"MEM_AR_RELEASE_MAJOR_VERSION MEMMAP_AR_RELEASE_MAJOR_VERSION"
000045b4 5f52454c4541 
000045ba 53455f4d414a 
000045c0 4f525f564552 
000045c6 53494f4e204d 
000045cc 454d4d41505f 
000045d2 41525f52454c 
000045d8 454153455f4d 
000045de 414a4f525f56 
000045e4 455253494f4e 
000045ea 00 
000045eb 01             9554 	.byte	1
000045ec 11             9555 	.byte	17
000045ed 4d454d5f4152   9556 	.strz	"MEM_AR_RELEASE_MINOR_VERSION MEMMAP_AR_RELEASE_MINOR_VERSION"
000045f3 5f52454c4541 
000045f9 53455f4d494e 
000045ff 4f525f564552 
00004605 53494f4e204d 
0000460b 454d4d41505f 
00004611 41525f52454c 
00004617 454153455f4d 
0000461d 494e4f525f56 
00004623 455253494f4e 
00004629 00 
0000462a 01             9557 	.byte	1
0000462b 12             9558 	.byte	18
0000462c 4d454d5f4152   9559 	.strz	"MEM_AR_RELEASE_PATCH_VERSION MEMMAP_AR_RELEASE_REVISION_VERSION"
00004632 5f52454c4541 
00004638 53455f504154 
0000463e 43485f564552 
00004644 53494f4e204d 

                                                                      Page 228
                                                              C:\Users\nhuliyap\AppData\Local\Temp\gh_00008cs1.s
0000464a 454d4d41505f 
00004650 41525f52454c 
00004656 454153455f52 
0000465c 45564953494f 
00004662 4e5f56455253 
00004668 494f4e00 
0000466c 01             9560 	.byte	1
0000466d 18             9561 	.byte	24
0000466e 4d454d4d4150   9562 	.strz	"MEMMAP_SW_MAJOR_VERSION (1u)"
00004674 5f53575f4d41 
0000467a 4a4f525f5645 
00004680 5253494f4e20 
00004686 2831752900 
0000468b 01             9563 	.byte	1
0000468c 19             9564 	.byte	25
0000468d 4d454d4d4150   9565 	.strz	"MEMMAP_SW_MINOR_VERSION (11u)"
00004693 5f53575f4d49 
00004699 4e4f525f5645 
0000469f 5253494f4e20 
000046a5 283131752900 
000046ab 01             9566 	.byte	1
000046ac 1a             9567 	.byte	26
000046ad 4d454d4d4150   9568 	.strz	"MEMMAP_SW_PATCH_VERSION (0u)"
000046b3 5f53575f5041 
000046b9 5443485f5645 
000046bf 5253494f4e20 
000046c5 2830752900 
000046ca 01             9569 	.byte	1
000046cb 20             9570 	.byte	32
000046cc 4d454d5f5357   9571 	.strz	"MEM_SW_MAJOR_VERSION MEMMAP_SW_MAJOR_VERSION"
000046d2 5f4d414a4f52 
000046d8 5f5645525349 
000046de 4f4e204d454d 
000046e4 4d41505f5357 
000046ea 5f4d414a4f52 
000046f0 5f5645525349 
000046f6 4f4e00 
000046f9 01             9572 	.byte	1
000046fa 21             9573 	.byte	33
000046fb 4d454d5f5357   9574 	.strz	"MEM_SW_MINOR_VERSION MEMMAP_SW_MINOR_VERSION"
00004701 5f4d494e4f52 
00004707 5f5645525349 
0000470d 4f4e204d454d 
00004713 4d41505f5357 
00004719 5f4d494e4f52 
0000471f 5f5645525349 
00004725 4f4e00 
00004728 01             9575 	.byte	1
00004729 22             9576 	.byte	34
0000472a 4d454d5f5357   9577 	.strz	"MEM_SW_PATCH_VERSION MEMMAP_SW_PATCH_VERSION"
00004730 5f5041544348 
00004736 5f5645525349 
0000473c 4f4e204d454d 
00004742 4d41505f5357 
00004748 5f5041544348 
0000474e 5f5645525349 
00004754 4f4e00 
00004757 01             9578 	.byte	1
00004758 24             9579 	.byte	36
00004759 4d454d4d4150   9580 	.strz	"MEMMAP_ERROR "
0000475f 5f4552524f52 

                                                                      Page 229
                                                              C:\Users\nhuliyap\AppData\Local\Temp\gh_00008cs1.s
00004765 2000 
00004767 01             9581 	.byte	1
00004768 b201           9582 	.byte	178,1
0000476a 53544152545f   9583 	.strz	"START_SEC_CONST_UNSPECIFIED "
00004770 5345435f434f 
00004776 4e53545f554e 
0000477c 535045434946 
00004782 4945442000 
00004787 03             9584 	.byte	3
00004788 f403           9585 	.byte	244,3
0000478a 15             9586 	.byte	21
0000478b 01             9587 	.byte	1
0000478c b508           9588 	.byte	181,8
0000478e 434f4e53545f   9589 	.strz	"CONST_SEC_OPEN "
00004794 5345435f4f50 
0000479a 454e2000 
0000479e 04             9590 	.byte	4
0000479f 04             9591 	.byte	4
000047a0 01             9592 	.byte	1
000047a1 a401           9593 	.byte	164,1
000047a3 4e564d5f5354   9594 	.strz	"NVM_STOP_SEC_CONST_DESCRIPTOR_TABLE "
000047a9 4f505f534543 
000047af 5f434f4e5354 
000047b5 5f4445534352 
000047bb 4950544f525f 
000047c1 5441424c4520 
000047c7 00 
000047c8 03             9595 	.byte	3
000047c9 a501           9596 	.byte	165,1
000047cb 1c             9597 	.byte	28
000047cc 01             9598 	.byte	1
000047cd 02             9599 	.byte	2
000047ce 4d454d4d4150   9600 	.strz	"MEMMAP_VENDOR_ID (30u)"
000047d4 5f56454e444f 
000047da 525f49442028 
000047e0 3330752900 
000047e5 01             9601 	.byte	1
000047e6 08             9602 	.byte	8
000047e7 4d454d4d4150   9603 	.strz	"MEMMAP_AR_RELEASE_MAJOR_VERSION (4u)"
000047ed 5f41525f5245 
000047f3 4c454153455f 
000047f9 4d414a4f525f 
000047ff 56455253494f 
00004805 4e2028347529 
0000480b 00 
0000480c 01             9604 	.byte	1
0000480d 09             9605 	.byte	9
0000480e 4d454d4d4150   9606 	.strz	"MEMMAP_AR_RELEASE_MINOR_VERSION (0u)"
00004814 5f41525f5245 
0000481a 4c454153455f 
00004820 4d494e4f525f 
00004826 56455253494f 
0000482c 4e2028307529 
00004832 00 
00004833 01             9607 	.byte	1
00004834 0a             9608 	.byte	10
00004835 4d454d4d4150   9609 	.strz	"MEMMAP_AR_RELEASE_REVISION_VERSION (3u)"
0000483b 5f41525f5245 
00004841 4c454153455f 
00004847 524556495349 
0000484d 4f4e5f564552 

                                                                      Page 230
                                                              C:\Users\nhuliyap\AppData\Local\Temp\gh_00008cs1.s
00004853 53494f4e2028 
00004859 33752900 
0000485d 01             9610 	.byte	1
0000485e 10             9611 	.byte	16
0000485f 4d454d5f4152   9612 	.strz	"MEM_AR_RELEASE_MAJOR_VERSION MEMMAP_AR_RELEASE_MAJOR_VERSION"
00004865 5f52454c4541 
0000486b 53455f4d414a 
00004871 4f525f564552 
00004877 53494f4e204d 
0000487d 454d4d41505f 
00004883 41525f52454c 
00004889 454153455f4d 
0000488f 414a4f525f56 
00004895 455253494f4e 
0000489b 00 
0000489c 01             9613 	.byte	1
0000489d 11             9614 	.byte	17
0000489e 4d454d5f4152   9615 	.strz	"MEM_AR_RELEASE_MINOR_VERSION MEMMAP_AR_RELEASE_MINOR_VERSION"
000048a4 5f52454c4541 
000048aa 53455f4d494e 
000048b0 4f525f564552 
000048b6 53494f4e204d 
000048bc 454d4d41505f 
000048c2 41525f52454c 
000048c8 454153455f4d 
000048ce 494e4f525f56 
000048d4 455253494f4e 
000048da 00 
000048db 01             9616 	.byte	1
000048dc 12             9617 	.byte	18
000048dd 4d454d5f4152   9618 	.strz	"MEM_AR_RELEASE_PATCH_VERSION MEMMAP_AR_RELEASE_REVISION_VERSION"
000048e3 5f52454c4541 
000048e9 53455f504154 
000048ef 43485f564552 
000048f5 53494f4e204d 
000048fb 454d4d41505f 
00004901 41525f52454c 
00004907 454153455f52 
0000490d 45564953494f 
00004913 4e5f56455253 
00004919 494f4e00 
0000491d 01             9619 	.byte	1
0000491e 18             9620 	.byte	24
0000491f 4d454d4d4150   9621 	.strz	"MEMMAP_SW_MAJOR_VERSION (1u)"
00004925 5f53575f4d41 
0000492b 4a4f525f5645 
00004931 5253494f4e20 
00004937 2831752900 
0000493c 01             9622 	.byte	1
0000493d 19             9623 	.byte	25
0000493e 4d454d4d4150   9624 	.strz	"MEMMAP_SW_MINOR_VERSION (11u)"
00004944 5f53575f4d49 
0000494a 4e4f525f5645 
00004950 5253494f4e20 
00004956 283131752900 
0000495c 01             9625 	.byte	1
0000495d 1a             9626 	.byte	26
0000495e 4d454d4d4150   9627 	.strz	"MEMMAP_SW_PATCH_VERSION (0u)"
00004964 5f53575f5041 
0000496a 5443485f5645 
00004970 5253494f4e20 

                                                                      Page 231
                                                              C:\Users\nhuliyap\AppData\Local\Temp\gh_00008cs1.s
00004976 2830752900 
0000497b 01             9628 	.byte	1
0000497c 20             9629 	.byte	32
0000497d 4d454d5f5357   9630 	.strz	"MEM_SW_MAJOR_VERSION MEMMAP_SW_MAJOR_VERSION"
00004983 5f4d414a4f52 
00004989 5f5645525349 
0000498f 4f4e204d454d 
00004995 4d41505f5357 
0000499b 5f4d414a4f52 
000049a1 5f5645525349 
000049a7 4f4e00 
000049aa 01             9631 	.byte	1
000049ab 21             9632 	.byte	33
000049ac 4d454d5f5357   9633 	.strz	"MEM_SW_MINOR_VERSION MEMMAP_SW_MINOR_VERSION"
000049b2 5f4d494e4f52 
000049b8 5f5645525349 
000049be 4f4e204d454d 
000049c4 4d41505f5357 
000049ca 5f4d494e4f52 
000049d0 5f5645525349 
000049d6 4f4e00 
000049d9 01             9634 	.byte	1
000049da 22             9635 	.byte	34
000049db 4d454d5f5357   9636 	.strz	"MEM_SW_PATCH_VERSION MEMMAP_SW_PATCH_VERSION"
000049e1 5f5041544348 
000049e7 5f5645525349 
000049ed 4f4e204d454d 
000049f3 4d41505f5357 
000049f9 5f5041544348 
000049ff 5f5645525349 
00004a05 4f4e00 
00004a08 01             9637 	.byte	1
00004a09 24             9638 	.byte	36
00004a0a 4d454d4d4150   9639 	.strz	"MEMMAP_ERROR "
00004a10 5f4552524f52 
00004a16 2000 
00004a18 01             9640 	.byte	1
00004a19 b601           9641 	.byte	182,1
00004a1b 53544f505f53   9642 	.strz	"STOP_SEC_CONST "
00004a21 45435f434f4e 
00004a27 53542000 
00004a2b 03             9643 	.byte	3
00004a2c f403           9644 	.byte	244,3
00004a2e 15             9645 	.byte	21
00004a2f 04             9646 	.byte	4
00004a30 04             9647 	.byte	4
00004a31 04             9648 	.byte	4
00004a32 01             9649 	.byte	1
00004a33 21             9650 	.byte	33
00004a34 4e564d5f5354   9651 	.strz	"NVM_START_SEC_CODE "
00004a3a 4152545f5345 
00004a40 435f434f4445 
00004a46 2000 
00004a48 03             9652 	.byte	3
00004a49 22             9653 	.byte	34
00004a4a 1c             9654 	.byte	28
00004a4b 01             9655 	.byte	1
00004a4c 02             9656 	.byte	2
00004a4d 4d454d4d4150   9657 	.strz	"MEMMAP_VENDOR_ID (30u)"
00004a53 5f56454e444f 
00004a59 525f49442028 

                                                                      Page 232
                                                              C:\Users\nhuliyap\AppData\Local\Temp\gh_00008cs1.s
00004a5f 3330752900 
00004a64 01             9658 	.byte	1
00004a65 08             9659 	.byte	8
00004a66 4d454d4d4150   9660 	.strz	"MEMMAP_AR_RELEASE_MAJOR_VERSION (4u)"
00004a6c 5f41525f5245 
00004a72 4c454153455f 
00004a78 4d414a4f525f 
00004a7e 56455253494f 
00004a84 4e2028347529 
00004a8a 00 
00004a8b 01             9661 	.byte	1
00004a8c 09             9662 	.byte	9
00004a8d 4d454d4d4150   9663 	.strz	"MEMMAP_AR_RELEASE_MINOR_VERSION (0u)"
00004a93 5f41525f5245 
00004a99 4c454153455f 
00004a9f 4d494e4f525f 
00004aa5 56455253494f 
00004aab 4e2028307529 
00004ab1 00 
00004ab2 01             9664 	.byte	1
00004ab3 0a             9665 	.byte	10
00004ab4 4d454d4d4150   9666 	.strz	"MEMMAP_AR_RELEASE_REVISION_VERSION (3u)"
00004aba 5f41525f5245 
00004ac0 4c454153455f 
00004ac6 524556495349 
00004acc 4f4e5f564552 
00004ad2 53494f4e2028 
00004ad8 33752900 
00004adc 01             9667 	.byte	1
00004add 10             9668 	.byte	16
00004ade 4d454d5f4152   9669 	.strz	"MEM_AR_RELEASE_MAJOR_VERSION MEMMAP_AR_RELEASE_MAJOR_VERSION"
00004ae4 5f52454c4541 
00004aea 53455f4d414a 
00004af0 4f525f564552 
00004af6 53494f4e204d 
00004afc 454d4d41505f 
00004b02 41525f52454c 
00004b08 454153455f4d 
00004b0e 414a4f525f56 
00004b14 455253494f4e 
00004b1a 00 
00004b1b 01             9670 	.byte	1
00004b1c 11             9671 	.byte	17
00004b1d 4d454d5f4152   9672 	.strz	"MEM_AR_RELEASE_MINOR_VERSION MEMMAP_AR_RELEASE_MINOR_VERSION"
00004b23 5f52454c4541 
00004b29 53455f4d494e 
00004b2f 4f525f564552 
00004b35 53494f4e204d 
00004b3b 454d4d41505f 
00004b41 41525f52454c 
00004b47 454153455f4d 
00004b4d 494e4f525f56 
00004b53 455253494f4e 
00004b59 00 
00004b5a 01             9673 	.byte	1
00004b5b 12             9674 	.byte	18
00004b5c 4d454d5f4152   9675 	.strz	"MEM_AR_RELEASE_PATCH_VERSION MEMMAP_AR_RELEASE_REVISION_VERSION"
00004b62 5f52454c4541 
00004b68 53455f504154 
00004b6e 43485f564552 
00004b74 53494f4e204d 

                                                                      Page 233
                                                              C:\Users\nhuliyap\AppData\Local\Temp\gh_00008cs1.s
00004b7a 454d4d41505f 
00004b80 41525f52454c 
00004b86 454153455f52 
00004b8c 45564953494f 
00004b92 4e5f56455253 
00004b98 494f4e00 
00004b9c 01             9676 	.byte	1
00004b9d 18             9677 	.byte	24
00004b9e 4d454d4d4150   9678 	.strz	"MEMMAP_SW_MAJOR_VERSION (1u)"
00004ba4 5f53575f4d41 
00004baa 4a4f525f5645 
00004bb0 5253494f4e20 
00004bb6 2831752900 
00004bbb 01             9679 	.byte	1
00004bbc 19             9680 	.byte	25
00004bbd 4d454d4d4150   9681 	.strz	"MEMMAP_SW_MINOR_VERSION (11u)"
00004bc3 5f53575f4d49 
00004bc9 4e4f525f5645 
00004bcf 5253494f4e20 
00004bd5 283131752900 
00004bdb 01             9682 	.byte	1
00004bdc 1a             9683 	.byte	26
00004bdd 4d454d4d4150   9684 	.strz	"MEMMAP_SW_PATCH_VERSION (0u)"
00004be3 5f53575f5041 
00004be9 5443485f5645 
00004bef 5253494f4e20 
00004bf5 2830752900 
00004bfa 01             9685 	.byte	1
00004bfb 20             9686 	.byte	32
00004bfc 4d454d5f5357   9687 	.strz	"MEM_SW_MAJOR_VERSION MEMMAP_SW_MAJOR_VERSION"
00004c02 5f4d414a4f52 
00004c08 5f5645525349 
00004c0e 4f4e204d454d 
00004c14 4d41505f5357 
00004c1a 5f4d414a4f52 
00004c20 5f5645525349 
00004c26 4f4e00 
00004c29 01             9688 	.byte	1
00004c2a 21             9689 	.byte	33
00004c2b 4d454d5f5357   9690 	.strz	"MEM_SW_MINOR_VERSION MEMMAP_SW_MINOR_VERSION"
00004c31 5f4d494e4f52 
00004c37 5f5645525349 
00004c3d 4f4e204d454d 
00004c43 4d41505f5357 
00004c49 5f4d494e4f52 
00004c4f 5f5645525349 
00004c55 4f4e00 
00004c58 01             9691 	.byte	1
00004c59 22             9692 	.byte	34
00004c5a 4d454d5f5357   9693 	.strz	"MEM_SW_PATCH_VERSION MEMMAP_SW_PATCH_VERSION"
00004c60 5f5041544348 
00004c66 5f5645525349 
00004c6c 4f4e204d454d 
00004c72 4d41505f5357 
00004c78 5f5041544348 
00004c7e 5f5645525349 
00004c84 4f4e00 
00004c87 01             9694 	.byte	1
00004c88 24             9695 	.byte	36
00004c89 4d454d4d4150   9696 	.strz	"MEMMAP_ERROR "
00004c8f 5f4552524f52 

                                                                      Page 234
                                                              C:\Users\nhuliyap\AppData\Local\Temp\gh_00008cs1.s
00004c95 2000 
00004c97 01             9697 	.byte	1
00004c98 8e01           9698 	.byte	142,1
00004c9a 53544152545f   9699 	.strz	"START_SEC_CODE "
00004ca0 5345435f434f 
00004ca6 44452000 
00004caa 03             9700 	.byte	3
00004cab f403           9701 	.byte	244,3
00004cad 15             9702 	.byte	21
00004cae 01             9703 	.byte	1
00004caf f407           9704 	.byte	244,7
00004cb1 434f44455f53   9705 	.strz	"CODE_SEC_OPEN "
00004cb7 45435f4f5045 
00004cbd 4e2000 
00004cc0 04             9706 	.byte	4
00004cc1 04             9707 	.byte	4
00004cc2 01             9708 	.byte	1
00004cc3 9401           9709 	.byte	148,1
00004cc5 4e564d5f5354   9710 	.strz	"NVM_STOP_SEC_CODE "
00004ccb 4f505f534543 
00004cd1 5f434f444520 
00004cd7 00 
00004cd8 03             9711 	.byte	3
00004cd9 9501           9712 	.byte	149,1
00004cdb 1c             9713 	.byte	28
00004cdc 01             9714 	.byte	1
00004cdd 24             9715 	.byte	36
00004cde 4d454d4d4150   9716 	.strz	"MEMMAP_ERROR "
00004ce4 5f4552524f52 
00004cea 2000 
00004cec 01             9717 	.byte	1
00004ced 9201           9718 	.byte	146,1
00004cef 53544f505f53   9719 	.strz	"STOP_SEC_CODE "
00004cf5 45435f434f44 
00004cfb 452000 
00004cfe 03             9720 	.byte	3
00004cff f403           9721 	.byte	244,3
00004d01 15             9722 	.byte	21
00004d02 04             9723 	.byte	4
00004d03 04             9724 	.byte	4
00004d04 04             9725 	.byte	4
00004d05 03             9726 	.byte	3
00004d06 05             9727 	.byte	5
00004d07 27             9728 	.byte	39
00004d08 03             9729 	.byte	3
00004d09 1b             9730 	.byte	27
00004d0a 28             9731 	.byte	40
00004d0b 03             9732 	.byte	3
00004d0c 07             9733 	.byte	7
00004d0d 29             9734 	.byte	41
00004d0e 03             9735 	.byte	3
00004d0f 06             9736 	.byte	6
00004d10 2a             9737 	.byte	42
00004d11 01             9738 	.byte	1
00004d12 20             9739 	.byte	32
00004d13 44454d5f4346   9740 	.strz	"DEM_CFG_BUILDTARGET_ECU 1"
00004d19 475f4255494c 
00004d1f 445441524745 
00004d25 545f45435520 
00004d2b 3100 
00004d2d 01             9741 	.byte	1

                                                                      Page 235
                                                              C:\Users\nhuliyap\AppData\Local\Temp\gh_00008cs1.s
00004d2e 21             9742 	.byte	33
00004d2f 44454d5f4346   9743 	.strz	"DEM_CFG_BUILDTARGET_DEMTESTSUITE 2"
00004d35 475f4255494c 
00004d3b 445441524745 
00004d41 545f44454d54 
00004d47 455354535549 
00004d4d 5445203200 
00004d52 01             9744 	.byte	1
00004d53 2a             9745 	.byte	42
00004d54 44454d5f4346   9746 	.strz	"DEM_CFG_BUILDTARGET DEM_CFG_BUILDTARGET_ECU"
00004d5a 475f4255494c 
00004d60 445441524745 
00004d66 542044454d5f 
00004d6c 4346475f4255 
00004d72 494c44544152 
00004d78 4745545f4543 
00004d7e 5500 
00004d80 01             9747 	.byte	1
00004d81 2f             9748 	.byte	47
00004d82 44454d5f4346   9749 	.strz	"DEM_CFG_DEVERRORDETECT_OFF STD_OFF"
00004d88 475f44455645 
00004d8e 52524f524445 
00004d94 544543545f4f 
00004d9a 464620535444 
00004da0 5f4f464600 
00004da5 01             9750 	.byte	1
00004da6 30             9751 	.byte	48
00004da7 44454d5f4346   9752 	.strz	"DEM_CFG_DEVERRORDETECT_ON STD_ON"
00004dad 475f44455645 
00004db3 52524f524445 
00004db9 544543545f4f 
00004dbf 4e205354445f 
00004dc5 4f4e00 
00004dc8 01             9753 	.byte	1
00004dc9 31             9754 	.byte	49
00004dca 44454d5f4346   9755 	.strz	"DEM_CFG_DEVERRORDETECT DEM_CFG_DEVERRORDETECT_OFF"
00004dd0 475f44455645 
00004dd6 52524f524445 
00004ddc 544543542044 
00004de2 454d5f434647 
00004de8 5f4445564552 
00004dee 524f52444554 
00004df4 4543545f4f46 
00004dfa 4600 
00004dfc 01             9756 	.byte	1
00004dfd 32             9757 	.byte	50
00004dfe 44454d5f4e4f   9758 	.strz	"DEM_NO_SUPPRESSION STD_OFF"
00004e04 5f5355505052 
00004e0a 455353494f4e 
00004e10 205354445f4f 
00004e16 464600 
00004e19 01             9759 	.byte	1
00004e1a 33             9760 	.byte	51
00004e1b 44454d5f4556   9761 	.strz	"DEM_EVENT_SUPPRESSION STD_ON"
00004e21 454e545f5355 
00004e27 505052455353 
00004e2d 494f4e205354 
00004e33 445f4f4e00 
00004e38 01             9762 	.byte	1
00004e39 34             9763 	.byte	52
00004e3a 44454d5f4454   9764 	.strz	"DEM_DTC_SUPPRESSION (STD_ON+STD_OFF+1)"

                                                                      Page 236
                                                              C:\Users\nhuliyap\AppData\Local\Temp\gh_00008cs1.s
00004e40 435f53555050 
00004e46 52455353494f 
00004e4c 4e2028535444 
00004e52 5f4f4e2b5354 
00004e58 445f4f46462b 
00004e5e 312900 
00004e61 01             9765 	.byte	1
00004e62 35             9766 	.byte	53
00004e63 44454d5f4556   9767 	.strz	"DEM_EVENT_AND_DTC_SUPPRESSION (DEM_DTC_SUPPRESSION+1)"
00004e69 454e545f414e 
00004e6f 445f4454435f 
00004e75 535550505245 
00004e7b 5353494f4e20 
00004e81 2844454d5f44 
00004e87 54435f535550 
00004e8d 505245535349 
00004e93 4f4e2b312900 
00004e99 01             9768 	.byte	1
00004e9a 36             9769 	.byte	54
00004e9b 44454d5f4346   9770 	.strz	"DEM_CFG_SUPPRESSION DEM_EVENT_SUPPRESSION"
00004ea1 475f53555050 
00004ea7 52455353494f 
00004ead 4e2044454d5f 
00004eb3 4556454e545f 
00004eb9 535550505245 
00004ebf 5353494f4e00 
00004ec5 04             9771 	.byte	4
00004ec6 01             9772 	.byte	1
00004ec7 14             9773 	.byte	20
00004ec8 44454d5f4445   9774 	.strz	"DEM_DET(APIID,ERRORID,EVENTID) do { }while(0)"
00004ece 542841504949 
00004ed4 442c4552524f 
00004eda 5249442c4556 
00004ee0 454e54494429 
00004ee6 20646f207b20 
00004eec 7d7768696c65 
00004ef2 28302900 
00004ef6 01             9775 	.byte	1
00004ef7 1d             9776 	.byte	29
00004ef8 44454d5f4153   9777 	.strz	"DEM_ASSERT(C,APIID,ERRORID) do { if(!(C)) { DEM_DET(APIID,ERRORID,0); }}while(0)"
00004efe 534552542843 
00004f04 2c4150494944 
00004f0a 2c4552524f52 
00004f10 49442920646f 
00004f16 207b20696628 
00004f1c 212843292920 
00004f22 7b2044454d5f 
00004f28 444554284150 
00004f2e 4949442c4552 
00004f34 524f5249442c 
00004f3a 30293b207d7d 
00004f40 7768696c6528 
00004f46 302900 
00004f49 01             9778 	.byte	1
00004f4a 75             9779 	.byte	117
00004f4b 44454d5f4445   9780 	.strz	"DEM_DET_APIID_ENVDACAPTURE 0xA7"
00004f51 545f41504949 
00004f57 445f454e5644 
00004f5d 414341505455 
00004f63 524520307841 
00004f69 3700 

                                                                      Page 237
                                                              C:\Users\nhuliyap\AppData\Local\Temp\gh_00008cs1.s
00004f6b 01             9781 	.byte	1
00004f6c 76             9782 	.byte	118
00004f6d 44454d5f4445   9783 	.strz	"DEM_DET_APIID_ENVDASKIP 0xA8"
00004f73 545f41504949 
00004f79 445f454e5644 
00004f7f 41534b495020 
00004f85 3078413800 
00004f8a 01             9784 	.byte	1
00004f8b 77             9785 	.byte	119
00004f8c 44454d5f4445   9786 	.strz	"DEM_DET_APIID_ENVDAUPDATE 0xA9"
00004f92 545f41504949 
00004f98 445f454e5644 
00004f9e 415550444154 
00004fa4 452030784139 
00004faa 00 
00004fab 04             9787 	.byte	4
00004fac 03             9788 	.byte	3
00004fad 08             9789 	.byte	8
00004fae 2b             9790 	.byte	43
00004faf 03             9791 	.byte	3
00004fb0 07             9792 	.byte	7
00004fb1 2c             9793 	.byte	44
00004fb2 01             9794 	.byte	1
00004fb3 0b             9795 	.byte	11
00004fb4 5242415f4253   9796 	.strz	"RBA_BSWSRV_H "
00004fba 575352565f48 
00004fc0 2000 
00004fc2 01             9797 	.byte	1
00004fc3 1c             9798 	.byte	28
00004fc4 5242415f4253   9799 	.strz	"RBA_BSWSRV_START_SEC_CODE "
00004fca 575352565f53 
00004fd0 544152545f53 
00004fd6 45435f434f44 
00004fdc 452000 
00004fdf 03             9800 	.byte	3
00004fe0 1d             9801 	.byte	29
00004fe1 2d             9802 	.byte	45
00004fe2 01             9803 	.byte	1
00004fe3 37             9804 	.byte	55
00004fe4 4253575f5354   9805 	.strz	"BSW_START_SEC_DEFAULT_CODE "
00004fea 4152545f5345 
00004ff0 435f44454641 
00004ff6 554c545f434f 
00004ffc 44452000 
00005000 03             9806 	.byte	3
00005001 38             9807 	.byte	56
00005002 14             9808 	.byte	20
00005003 01             9809 	.byte	1
00005004 dd08           9810 	.byte	221,8
00005006 53544152545f   9811 	.strz	"START_SEC_CODE "
0000500c 5345435f434f 
00005012 44452000 
00005016 03             9812 	.byte	3
00005017 c509           9813 	.byte	197,9
00005019 15             9814 	.byte	21
0000501a 01             9815 	.byte	1
0000501b f407           9816 	.byte	244,7
0000501d 434f44455f53   9817 	.strz	"CODE_SEC_OPEN "
00005023 45435f4f5045 
00005029 4e2000 
0000502c 04             9818 	.byte	4

                                                                      Page 238
                                                              C:\Users\nhuliyap\AppData\Local\Temp\gh_00008cs1.s
0000502d 04             9819 	.byte	4
0000502e 04             9820 	.byte	4
0000502f 01             9821 	.byte	1
00005030 21             9822 	.byte	33
00005031 5242415f4253   9823 	.strz	"RBA_BSWSRV_STOP_SEC_CODE "
00005037 575352565f53 
0000503d 544f505f5345 
00005043 435f434f4445 
00005049 2000 
0000504b 03             9824 	.byte	3
0000504c 22             9825 	.byte	34
0000504d 2d             9826 	.byte	45
0000504e 01             9827 	.byte	1
0000504f 3b             9828 	.byte	59
00005050 4253575f5354   9829 	.strz	"BSW_STOP_SEC_DEFAULT_CODE "
00005056 4f505f534543 
0000505c 5f4445464155 
00005062 4c545f434f44 
00005068 452000 
0000506b 03             9830 	.byte	3
0000506c 3c             9831 	.byte	60
0000506d 14             9832 	.byte	20
0000506e 01             9833 	.byte	1
0000506f e008           9834 	.byte	224,8
00005071 53544f505f53   9835 	.strz	"STOP_SEC_CODE "
00005077 45435f434f44 
0000507d 452000 
00005080 03             9836 	.byte	3
00005081 c509           9837 	.byte	197,9
00005083 15             9838 	.byte	21
00005084 04             9839 	.byte	4
00005085 04             9840 	.byte	4
00005086 04             9841 	.byte	4
00005087 04             9842 	.byte	4
00005088 01             9843 	.byte	1
00005089 09             9844 	.byte	9
0000508a 5242415f4449   9845 	.strz	"RBA_DIAGLIB_MEMCPY(xDest_p,xSrc_pc,numBytes_u32) rba_DiagLib_MemUtils_MemCpy((uint8*)(xDest_p),(const uint8*)(xSrc_pc),(uint32)(numBytes_u32))"
00005090 41474c49425f 
00005096 4d454d435059 
0000509c 287844657374 
000050a2 5f702c785372 
000050a8 635f70632c6e 
000050ae 756d42797465 
000050b4 735f75333229 
000050ba 207262615f44 
000050c0 6961674c6962 
000050c6 5f4d656d5574 
000050cc 696c735f4d65 
000050d2 6d4370792828 
000050d8 75696e74382a 
000050de 292878446573 
000050e4 745f70292c28 
000050ea 636f6e737420 
000050f0 75696e74382a 
000050f6 292878537263 
000050fc 5f7063292c28 
00005102 75696e743332 
00005108 29286e756d42 
0000510e 797465735f75 
00005114 3332292900 
00005119 01             9846 	.byte	1

                                                                      Page 239
                                                              C:\Users\nhuliyap\AppData\Local\Temp\gh_00008cs1.s
0000511a 0a             9847 	.byte	10
0000511b 5242415f4449   9848 	.strz	"RBA_DIAGLIB_MEMSET(xDest_p,xPattern_u32,numBytes_u32) rba_DiagLib_MemUtils_MemSet((uint8*)(xDest_p),(sint32)(xPattern_u32),(uint32)(numBytes_u32))"
00005121 41474c49425f 
00005127 4d454d534554 
0000512d 287844657374 
00005133 5f702c785061 
00005139 747465726e5f 
0000513f 7533322c6e75 
00005145 6d4279746573 
0000514b 5f7533322920 
00005151 7262615f4469 
00005157 61674c69625f 
0000515d 4d656d557469 
00005163 6c735f4d656d 
00005169 536574282875 
0000516f 696e74382a29 
00005175 287844657374 
0000517b 5f70292c2873 
00005181 696e74333229 
00005187 287850617474 
0000518d 65726e5f7533 
00005193 32292c287569 
00005199 6e7433322928 
0000519f 6e756d427974 
000051a5 65735f753332 
000051ab 292900 
000051ae 01             9849 	.byte	1
000051af 0d             9850 	.byte	13
000051b0 5242415f4449   9851 	.strz	"RBA_DIAGLIB_START_SEC_CODE "
000051b6 41474c49425f 
000051bc 53544152545f 
000051c2 5345435f434f 
000051c8 44452000 
000051cc 03             9852 	.byte	3
000051cd 0e             9853 	.byte	14
000051ce 2e             9854 	.byte	46
000051cf 01             9855 	.byte	1
000051d0 06             9856 	.byte	6
000051d1 4d454d4d4150   9857 	.strz	"MEMMAP_ERROR "
000051d7 5f4552524f52 
000051dd 2000 
000051df 01             9858 	.byte	1
000051e0 4b             9859 	.byte	75
000051e1 4253575f5354   9860 	.strz	"BSW_START_SEC_DEFAULT_CODE "
000051e7 4152545f5345 
000051ed 435f44454641 
000051f3 554c545f434f 
000051f9 44452000 
000051fd 03             9861 	.byte	3
000051fe 4c             9862 	.byte	76
000051ff 14             9863 	.byte	20
00005200 01             9864 	.byte	1
00005201 dd08           9865 	.byte	221,8
00005203 53544152545f   9866 	.strz	"START_SEC_CODE "
00005209 5345435f434f 
0000520f 44452000 
00005213 03             9867 	.byte	3
00005214 c509           9868 	.byte	197,9
00005216 15             9869 	.byte	21
00005217 01             9870 	.byte	1
00005218 f407           9871 	.byte	244,7

                                                                      Page 240
                                                              C:\Users\nhuliyap\AppData\Local\Temp\gh_00008cs1.s
0000521a 434f44455f53   9872 	.strz	"CODE_SEC_OPEN "
00005220 45435f4f5045 
00005226 4e2000 
00005229 04             9873 	.byte	4
0000522a 04             9874 	.byte	4
0000522b 01             9875 	.byte	1
0000522c 50             9876 	.byte	80
0000522d 5242415f4449   9877 	.strz	"RBA_DIAGLIB_WAS_STARTED_SEC_CODE "
00005233 41474c49425f 
00005239 5741535f5354 
0000523f 41525445445f 
00005245 5345435f434f 
0000524b 44452000 
0000524f 04             9878 	.byte	4
00005250 01             9879 	.byte	1
00005251 22             9880 	.byte	34
00005252 5242415f4449   9881 	.strz	"RBA_DIAGLIB_STOP_SEC_CODE "
00005258 41474c49425f 
0000525e 53544f505f53 
00005264 45435f434f44 
0000526a 452000 
0000526d 03             9882 	.byte	3
0000526e 23             9883 	.byte	35
0000526f 2e             9884 	.byte	46
00005270 01             9885 	.byte	1
00005271 06             9886 	.byte	6
00005272 4d454d4d4150   9887 	.strz	"MEMMAP_ERROR "
00005278 5f4552524f52 
0000527e 2000 
00005280 01             9888 	.byte	1
00005281 57             9889 	.byte	87
00005282 4253575f5354   9890 	.strz	"BSW_STOP_SEC_DEFAULT_CODE "
00005288 4f505f534543 
0000528e 5f4445464155 
00005294 4c545f434f44 
0000529a 452000 
0000529d 03             9891 	.byte	3
0000529e 58             9892 	.byte	88
0000529f 14             9893 	.byte	20
000052a0 01             9894 	.byte	1
000052a1 e008           9895 	.byte	224,8
000052a3 53544f505f53   9896 	.strz	"STOP_SEC_CODE "
000052a9 45435f434f44 
000052af 452000 
000052b2 03             9897 	.byte	3
000052b3 c509           9898 	.byte	197,9
000052b5 15             9899 	.byte	21
000052b6 04             9900 	.byte	4
000052b7 04             9901 	.byte	4
000052b8 04             9902 	.byte	4
000052b9 04             9903 	.byte	4
000052ba 01             9904 	.byte	1
000052bb 0b             9905 	.byte	11
000052bc 44454d5f5354   9906 	.strz	"DEM_STATIC_ASSERT(COND,MSG) typedef uint8 Dem_static_assertion_ ## MSG[(2*(((COND)!=(FALSE))?1:0))-1]"
000052c2 415449435f41 
000052c8 535345525428 
000052ce 434f4e442c4d 
000052d4 534729207479 
000052da 706564656620 
000052e0 75696e743820 
000052e6 44656d5f7374 

                                                                      Page 241
                                                              C:\Users\nhuliyap\AppData\Local\Temp\gh_00008cs1.s
000052ec 617469635f61 
000052f2 737365727469 
000052f8 6f6e5f202323 
000052fe 204d53475b28 
00005304 322a28282843 
0000530a 4f4e4429213d 
00005310 2846414c5345 
00005316 29293f313a30 
0000531c 29292d315d00 
00005322 01             9907 	.byte	1
00005323 0d             9908 	.byte	13
00005324 44454d5f4d45   9909 	.strz	"DEM_MEMCPY RBA_DIAGLIB_MEMCPY"
0000532a 4d4350592052 
00005330 42415f444941 
00005336 474c49425f4d 
0000533c 454d43505900 
00005342 01             9910 	.byte	1
00005343 0e             9911 	.byte	14
00005344 44454d5f4d45   9912 	.strz	"DEM_MEMSET RBA_DIAGLIB_MEMSET"
0000534a 4d5345542052 
00005350 42415f444941 
00005356 474c49425f4d 
0000535c 454d53455400 
00005362 01             9913 	.byte	1
00005363 13             9914 	.byte	19
00005364 44454d5f4153   9915 	.strz	"DEM_ASSERT_RANGECHECK(CONDITION) do {}while(0)"
0000536a 534552545f52 
00005370 414e47454348 
00005376 45434b28434f 
0000537c 4e444954494f 
00005382 4e2920646f20 
00005388 7b7d7768696c 
0000538e 6528302900 
00005393 04             9916 	.byte	4
00005394 03             9917 	.byte	3
00005395 1c             9918 	.byte	28
00005396 2f             9919 	.byte	47
00005397 03             9920 	.byte	3
00005398 06             9921 	.byte	6
00005399 30             9922 	.byte	48
0000539a 03             9923 	.byte	3
0000539b 07             9924 	.byte	7
0000539c 31             9925 	.byte	49
0000539d 04             9926 	.byte	4
0000539e 01             9927 	.byte	1
0000539f 09             9928 	.byte	9
000053a0 44454d5f4953   9929 	.strz	"DEM_ISO14229_TESTFAILED 0u"
000053a6 4f3134323239 
000053ac 5f5445535446 
000053b2 41494c454420 
000053b8 307500 
000053bb 01             9930 	.byte	1
000053bc 0a             9931 	.byte	10
000053bd 44454d5f4953   9932 	.strz	"DEM_ISO14229_TESTFAILED_TOC 1u"
000053c3 4f3134323239 
000053c9 5f5445535446 
000053cf 41494c45445f 
000053d5 544f43203175 
000053db 00 
000053dc 01             9933 	.byte	1
000053dd 0b             9934 	.byte	11

                                                                      Page 242
                                                              C:\Users\nhuliyap\AppData\Local\Temp\gh_00008cs1.s
000053de 44454d5f4953   9935 	.strz	"DEM_ISO14229_TESTFAILED_SLC 5u"
000053e4 4f3134323239 
000053ea 5f5445535446 
000053f0 41494c45445f 
000053f6 534c43203575 
000053fc 00 
000053fd 01             9936 	.byte	1
000053fe 0c             9937 	.byte	12
000053ff 44454d5f4953   9938 	.strz	"DEM_ISO14229_TESTNOTCOMPLETE_TOC 6u"
00005405 4f3134323239 
0000540b 5f544553544e 
00005411 4f54434f4d50 
00005417 4c4554455f54 
0000541d 4f4320367500 
00005423 01             9939 	.byte	1
00005424 0d             9940 	.byte	13
00005425 44454d5f4953   9941 	.strz	"DEM_ISO14229_TESTNOTCOMPLETE_SLC 4u"
0000542b 4f3134323239 
00005431 5f544553544e 
00005437 4f54434f4d50 
0000543d 4c4554455f53 
00005443 4c4320347500 
00005449 01             9942 	.byte	1
0000544a 0e             9943 	.byte	14
0000544b 44454d5f4953   9944 	.strz	"DEM_ISO14229_PENDINGDTC 2u"
00005451 4f3134323239 
00005457 5f50454e4449 
0000545d 4e4744544320 
00005463 327500 
00005466 01             9945 	.byte	1
00005467 0f             9946 	.byte	15
00005468 44454d5f4953   9947 	.strz	"DEM_ISO14229_CONFIRMEDDTC 3u"
0000546e 4f3134323239 
00005474 5f434f4e4649 
0000547a 524d45444454 
00005480 4320337500 
00005485 01             9948 	.byte	1
00005486 10             9949 	.byte	16
00005487 44454d5f4953   9950 	.strz	"DEM_ISO14229_WARNINGINDICATOR 7u"
0000548d 4f3134323239 
00005493 5f5741524e49 
00005499 4e47494e4449 
0000549f 4341544f5220 
000054a5 377500 
000054a8 01             9951 	.byte	1
000054a9 12             9952 	.byte	18
000054aa 44454d5f4953   9953 	.strz	"DEM_ISO14229_BM_TESTFAILED (1u<<DEM_ISO14229_TESTFAILED)"
000054b0 4f3134323239 
000054b6 5f424d5f5445 
000054bc 53544641494c 
000054c2 454420283175 
000054c8 3c3c44454d5f 
000054ce 49534f313432 
000054d4 32395f544553 
000054da 544641494c45 
000054e0 442900 
000054e3 01             9954 	.byte	1
000054e4 13             9955 	.byte	19
000054e5 44454d5f4953   9956 	.strz	"DEM_ISO14229_BM_TESTFAILED_TOC (1u<<DEM_ISO14229_TESTFAILED_TOC)"
000054eb 4f3134323239 
000054f1 5f424d5f5445 

                                                                      Page 243
                                                              C:\Users\nhuliyap\AppData\Local\Temp\gh_00008cs1.s
000054f7 53544641494c 
000054fd 45445f544f43 
00005503 202831753c3c 
00005509 44454d5f4953 
0000550f 4f3134323239 
00005515 5f5445535446 
0000551b 41494c45445f 
00005521 544f432900 
00005526 01             9957 	.byte	1
00005527 14             9958 	.byte	20
00005528 44454d5f4953   9959 	.strz	"DEM_ISO14229_BM_TESTFAILED_SLC (1u<<DEM_ISO14229_TESTFAILED_SLC)"
0000552e 4f3134323239 
00005534 5f424d5f5445 
0000553a 53544641494c 
00005540 45445f534c43 
00005546 202831753c3c 
0000554c 44454d5f4953 
00005552 4f3134323239 
00005558 5f5445535446 
0000555e 41494c45445f 
00005564 534c432900 
00005569 01             9960 	.byte	1
0000556a 15             9961 	.byte	21
0000556b 44454d5f4953   9962 	.strz	"DEM_ISO14229_BM_TESTNOTCOMPLETE_TOC (1u<<DEM_ISO14229_TESTNOTCOMPLETE_TOC)"
00005571 4f3134323239 
00005577 5f424d5f5445 
0000557d 53544e4f5443 
00005583 4f4d504c4554 
00005589 455f544f4320 
0000558f 2831753c3c44 
00005595 454d5f49534f 
0000559b 31343232395f 
000055a1 544553544e4f 
000055a7 54434f4d504c 
000055ad 4554455f544f 
000055b3 432900 
000055b6 01             9963 	.byte	1
000055b7 16             9964 	.byte	22
000055b8 44454d5f4953   9965 	.strz	"DEM_ISO14229_BM_TESTNOTCOMPLETE_SLC (1u<<DEM_ISO14229_TESTNOTCOMPLETE_SLC)"
000055be 4f3134323239 
000055c4 5f424d5f5445 
000055ca 53544e4f5443 
000055d0 4f4d504c4554 
000055d6 455f534c4320 
000055dc 2831753c3c44 
000055e2 454d5f49534f 
000055e8 31343232395f 
000055ee 544553544e4f 
000055f4 54434f4d504c 
000055fa 4554455f534c 
00005600 432900 
00005603 01             9966 	.byte	1
00005604 17             9967 	.byte	23
00005605 44454d5f4953   9968 	.strz	"DEM_ISO14229_BM_PENDINGDTC (1u<<DEM_ISO14229_PENDINGDTC)"
0000560b 4f3134323239 
00005611 5f424d5f5045 
00005617 4e44494e4744 
0000561d 544320283175 
00005623 3c3c44454d5f 
00005629 49534f313432 
0000562f 32395f50454e 

                                                                      Page 244
                                                              C:\Users\nhuliyap\AppData\Local\Temp\gh_00008cs1.s
00005635 44494e474454 
0000563b 432900 
0000563e 01             9969 	.byte	1
0000563f 18             9970 	.byte	24
00005640 44454d5f4953   9971 	.strz	"DEM_ISO14229_BM_CONFIRMEDDTC (1u<<DEM_ISO14229_CONFIRMEDDTC)"
00005646 4f3134323239 
0000564c 5f424d5f434f 
00005652 4e4649524d45 
00005658 444454432028 
0000565e 31753c3c4445 
00005664 4d5f49534f31 
0000566a 343232395f43 
00005670 4f4e4649524d 
00005676 454444544329 
0000567c 00 
0000567d 01             9972 	.byte	1
0000567e 19             9973 	.byte	25
0000567f 44454d5f4953   9974 	.strz	"DEM_ISO14229_BM_WARNINGINDICATOR (1u<<DEM_ISO14229_WARNINGINDICATOR)"
00005685 4f3134323239 
0000568b 5f424d5f5741 
00005691 524e494e4749 
00005697 4e4449434154 
0000569d 4f5220283175 
000056a3 3c3c44454d5f 
000056a9 49534f313432 
000056af 32395f574152 
000056b5 4e494e47494e 
000056bb 44494341544f 
000056c1 522900 
000056c4 01             9975 	.byte	1
000056c5 3b             9976 	.byte	59
000056c6 44454d5f4953   9977 	.strz	"DEM_ISO14229BYTE_INITVALUE ( (DEM_ISO14229_BM_TESTNOTCOMPLETE_TOC)|(DEM_ISO14229_BM_TESTNOTCOMPLETE_SLC) )"
000056cc 4f3134323239 
000056d2 425954455f49 
000056d8 4e495456414c 
000056de 554520282028 
000056e4 44454d5f4953 
000056ea 4f3134323239 
000056f0 5f424d5f5445 
000056f6 53544e4f5443 
000056fc 4f4d504c4554 
00005702 455f544f4329 
00005708 7c2844454d5f 
0000570e 49534f313432 
00005714 32395f424d5f 
0000571a 544553544e4f 
00005720 54434f4d504c 
00005726 4554455f534c 
0000572c 4329202900 
00005731 04             9978 	.byte	4
00005732 03             9979 	.byte	3
00005733 07             9980 	.byte	7
00005734 32             9981 	.byte	50
00005735 01             9982 	.byte	1
00005736 0c             9983 	.byte	12
00005737 44454d5f4152   9984 	.strz	"DEM_ARRAY_DECLARE(TYPE,NAME,SIZE) extern TYPE NAME[SIZE]"
0000573d 5241595f4445 
00005743 434c41524528 
00005749 545950452c4e 
0000574f 414d452c5349 
00005755 5a4529206578 

                                                                      Page 245
                                                              C:\Users\nhuliyap\AppData\Local\Temp\gh_00008cs1.s
0000575b 7465726e2054 
00005761 595045204e41 
00005767 4d455b53495a 
0000576d 455d00 
00005770 01             9985 	.byte	1
00005771 0e             9986 	.byte	14
00005772 44454d5f4152   9987 	.strz	"DEM_ARRAY_DECLARE_CONST(TYPE,NAME,SIZE) extern const TYPE NAME[SIZE]"
00005778 5241595f4445 
0000577e 434c4152455f 
00005784 434f4e535428 
0000578a 545950452c4e 
00005790 414d452c5349 
00005796 5a4529206578 
0000579c 7465726e2063 
000057a2 6f6e73742054 
000057a8 595045204e41 
000057ae 4d455b53495a 
000057b4 455d00 
000057b7 01             9988 	.byte	1
000057b8 14             9989 	.byte	20
000057b9 44454d5f4152   9990 	.strz	"DEM_ARRAY_FUNCPARAM(TYPE,NAME) TYPE NAME[]"
000057bf 5241595f4655 
000057c5 4e4350415241 
000057cb 4d2854595045 
000057d1 2c4e414d4529 
000057d7 205459504520 
000057dd 4e414d455b5d 
000057e3 00 
000057e4 01             9991 	.byte	1
000057e5 16             9992 	.byte	22
000057e6 44454d5f4152   9993 	.strz	"DEM_ARRAY_CONSTFUNCPARAM(TYPE,NAME) const TYPE NAME[]"
000057ec 5241595f434f 
000057f2 4e535446554e 
000057f8 43504152414d 
000057fe 28545950452c 
00005804 4e414d452920 
0000580a 636f6e737420 
00005810 54595045204e 
00005816 414d455b5d00 
0000581c 01             9994 	.byte	1
0000581d 18             9995 	.byte	24
0000581e 44454d5f5349   9996 	.strz	"DEM_SIZEOF_VAR(x) sizeof(x)"
00005824 5a454f465f56 
0000582a 415228782920 
00005830 73697a656f66 
00005836 28782900 
0000583a 01             9997 	.byte	1
0000583b 1a             9998 	.byte	26
0000583c 44454d5f5349   9999 	.strz	"DEM_SIZEOF_TYPE(x) sizeof(x)"
00005842 5a454f465f54 
00005848 595045287829 
0000584e 2073697a656f 
00005854 6628782900 
00005859 04            10000 	.byte	4
0000585a 03            10001 	.byte	3
0000585b 08            10002 	.byte	8
0000585c 33            10003 	.byte	51
0000585d 03            10004 	.byte	3
0000585e 1b            10005 	.byte	27
0000585f 34            10006 	.byte	52
00005860 01            10007 	.byte	1

                                                                      Page 246
                                                              C:\Users\nhuliyap\AppData\Local\Temp\gh_00008cs1.s
00005861 20            10008 	.byte	32
00005862 44454d5f4556  10009 	.strz	"DEM_EVENTID_COUNT 34u"
00005868 454e5449445f 
0000586e 434f554e5420 
00005874 33347500 
00005878 01            10010 	.byte	1
00005879 21            10011 	.byte	33
0000587a 44454d5f4556  10012 	.strz	"DEM_EVENTID_ARRAYLENGTH (DEM_EVENTID_COUNT+1u)"
00005880 454e5449445f 
00005886 41525241594c 
0000588c 454e47544820 
00005892 2844454d5f45 
00005898 56454e544944 
0000589e 5f434f554e54 
000058a4 2b31752900 
000058a9 04            10013 	.byte	4
000058aa 01            10014 	.byte	1
000058ab 2c            10015 	.byte	44
000058ac 44454d5f4346  10016 	.strz	"DEM_CFG_ALLOW_HISTORY_ON STD_ON"
000058b2 475f414c4c4f 
000058b8 575f48495354 
000058be 4f52595f4f4e 
000058c4 205354445f4f 
000058ca 4e00 
000058cc 01            10017 	.byte	1
000058cd 2d            10018 	.byte	45
000058ce 44454d5f4346  10019 	.strz	"DEM_CFG_ALLOW_HISTORY_OFF STD_OFF"
000058d4 475f414c4c4f 
000058da 575f48495354 
000058e0 4f52595f4f46 
000058e6 46205354445f 
000058ec 4f464600 
000058f0 01            10020 	.byte	1
000058f1 2e            10021 	.byte	46
000058f2 44454d5f4346  10022 	.strz	"DEM_CFG_ALLOW_HISTORY DEM_CFG_ALLOW_HISTORY_OFF"
000058f8 475f414c4c4f 
000058fe 575f48495354 
00005904 4f5259204445 
0000590a 4d5f4346475f 
00005910 414c4c4f575f 
00005916 484953544f52 
0000591c 595f4f464600 
00005922 01            10023 	.byte	1
00005923 2f            10024 	.byte	47
00005924 44454d5f4346  10025 	.strz	"DEM_CFG_LOCK_ALLFAILUREINFO_ON STD_ON"
0000592a 475f4c4f434b 
00005930 5f414c4c4641 
00005936 494c55524549 
0000593c 4e464f5f4f4e 
00005942 205354445f4f 
00005948 4e00 
0000594a 01            10026 	.byte	1
0000594b 30            10027 	.byte	48
0000594c 44454d5f4346  10028 	.strz	"DEM_CFG_LOCK_ALLFAILUREINFO_OFF STD_OFF"
00005952 475f4c4f434b 
00005958 5f414c4c4641 
0000595e 494c55524549 
00005964 4e464f5f4f46 
0000596a 46205354445f 
00005970 4f464600 
00005974 01            10029 	.byte	1

                                                                      Page 247
                                                              C:\Users\nhuliyap\AppData\Local\Temp\gh_00008cs1.s
00005975 31            10030 	.byte	49
00005976 44454d5f4346  10031 	.strz	"DEM_CFG_LOCK_ALLFAILUREINFO DEM_CFG_LOCK_ALLFAILUREINFO_OFF"
0000597c 475f4c4f434b 
00005982 5f414c4c4641 
00005988 494c55524549 
0000598e 4e464f204445 
00005994 4d5f4346475f 
0000599a 4c4f434b5f41 
000059a0 4c4c4641494c 
000059a6 555245494e46 
000059ac 4f5f4f464600 
000059b2 01            10032 	.byte	1
000059b3 32            10033 	.byte	50
000059b4 44454d5f4346  10034 	.strz	"DEM_CFG_SUPPORTEVENTMEMORYENTRY_ONFDCTHRESHOLD_ON STD_ON"
000059ba 475f53555050 
000059c0 4f5254455645 
000059c6 4e544d454d4f 
000059cc 5259454e5452 
000059d2 595f4f4e4644 
000059d8 435448524553 
000059de 484f4c445f4f 
000059e4 4e205354445f 
000059ea 4f4e00 
000059ed 01            10035 	.byte	1
000059ee 33            10036 	.byte	51
000059ef 44454d5f4346  10037 	.strz	"DEM_CFG_SUPPORTEVENTMEMORYENTRY_ONFDCTHRESHOLD_OFF STD_OFF"
000059f5 475f53555050 
000059fb 4f5254455645 
00005a01 4e544d454d4f 
00005a07 5259454e5452 
00005a0d 595f4f4e4644 
00005a13 435448524553 
00005a19 484f4c445f4f 
00005a1f 464620535444 
00005a25 5f4f464600 
00005a2a 01            10038 	.byte	1
00005a2b 34            10039 	.byte	52
00005a2c 44454d5f4346  10040 	.strz	"DEM_CFG_SUPPORTEVENTMEMORYENTRY_ONFDCTHRESHOLD DEM_CFG_SUPPORTEVENTMEMORYENTRY_ONFDCTHRESHOLD_OFF"
00005a32 475f53555050 
00005a38 4f5254455645 
00005a3e 4e544d454d4f 
00005a44 5259454e5452 
00005a4a 595f4f4e4644 
00005a50 435448524553 
00005a56 484f4c442044 
00005a5c 454d5f434647 
00005a62 5f535550504f 
00005a68 52544556454e 
00005a6e 544d454d4f52 
00005a74 59454e545259 
00005a7a 5f4f4e464443 
00005a80 544852455348 
00005a86 4f4c445f4f46 
00005a8c 4600 
00005a8e 01            10041 	.byte	1
00005a8f 35            10042 	.byte	53
00005a90 44454d5f4346  10043 	.strz	"DEM_CFG_SUPPORT_EVENT_FDCTHRESHOLDREACHED FALSE"
00005a96 475f53555050 
00005a9c 4f52545f4556 
00005aa2 454e545f4644 
00005aa8 435448524553 

                                                                      Page 248
                                                              C:\Users\nhuliyap\AppData\Local\Temp\gh_00008cs1.s
00005aae 484f4c445245 
00005ab4 414348454420 
00005aba 46414c534500 
00005ac0 01            10044 	.byte	1
00005ac1 42            10045 	.byte	66
00005ac2 44454d5f4346  10046 	.strz	"DEM_CFG_CUSTOMIZABLEDTCSTATUSBYTE FALSE"
00005ac8 475f43555354 
00005ace 4f4d495a4142 
00005ad4 4c4544544353 
00005ada 544154555342 
00005ae0 595445204641 
00005ae6 4c534500 
00005aea 01            10047 	.byte	1
00005aeb 43            10048 	.byte	67
00005aec 44454d5f4346  10049 	.strz	"DEM_CFG_CLEARDTCCLEARSALLBITS TRUE"
00005af2 475f434c4541 
00005af8 52445443434c 
00005afe 45415253414c 
00005b04 4c4249545320 
00005b0a 5452554500 
00005b0f 01            10050 	.byte	1
00005b10 44            10051 	.byte	68
00005b11 44454d5f4346  10052 	.strz	"DEM_CFG_DTCSETTINGBLOCKSREPORTING TRUE"
00005b17 475f44544353 
00005b1d 455454494e47 
00005b23 424c4f434b53 
00005b29 5245504f5254 
00005b2f 494e47205452 
00005b35 554500 
00005b38 01            10053 	.byte	1
00005b39 45            10054 	.byte	69
00005b3a 44454d5f4346  10055 	.strz	"DEM_CFG_PRJSPECIFICEVENTSTATUSHANDLING FALSE"
00005b40 475f50524a53 
00005b46 504543494649 
00005b4c 434556454e54 
00005b52 535441545553 
00005b58 48414e444c49 
00005b5e 4e472046414c 
00005b64 534500 
00005b67 01            10056 	.byte	1
00005b68 4b            10057 	.byte	75
00005b69 44454d5f4346  10058 	.strz	"DEM_CFG_EVT_CLEARALLOWEDCALLBACK_OFF STD_OFF"
00005b6f 475f4556545f 
00005b75 434c45415241 
00005b7b 4c4c4f574544 
00005b81 43414c4c4241 
00005b87 434b5f4f4646 
00005b8d 205354445f4f 
00005b93 464600 
00005b96 01            10059 	.byte	1
00005b97 4d            10060 	.byte	77
00005b98 44454d5f4346  10061 	.strz	"DEM_CFG_EVT_CLEARALLOWEDCALLBACK DEM_CFG_EVT_CLEARALLOWEDCALLBACK_OFF"
00005b9e 475f4556545f 
00005ba4 434c45415241 
00005baa 4c4c4f574544 
00005bb0 43414c4c4241 
00005bb6 434b2044454d 
00005bbc 5f4346475f45 
00005bc2 56545f434c45 
00005bc8 4152414c4c4f 
00005bce 57454443414c 

                                                                      Page 249
                                                              C:\Users\nhuliyap\AppData\Local\Temp\gh_00008cs1.s
00005bd4 4c4241434b5f 
00005bda 4f464600 
00005bde 01            10062 	.byte	1
00005bdf 51            10063 	.byte	81
00005be0 44454d5f4346  10064 	.strz	"DEM_CFG_EVT_GLOBALINITMONITORINGCALLBACK_OFF STD_OFF"
00005be6 475f4556545f 
00005bec 474c4f42414c 
00005bf2 494e49544d4f 
00005bf8 4e49544f5249 
00005bfe 4e4743414c4c 
00005c04 4241434b5f4f 
00005c0a 464620535444 
00005c10 5f4f464600 
00005c15 01            10065 	.byte	1
00005c16 53            10066 	.byte	83
00005c17 44454d5f4346  10067 	.strz	"DEM_CFG_EVT_GLOBALINITMONITORINGCALLBACK DEM_CFG_EVT_GLOBALINITMONITORINGCALLBACK_OFF"
00005c1d 475f4556545f 
00005c23 474c4f42414c 
00005c29 494e49544d4f 
00005c2f 4e49544f5249 
00005c35 4e4743414c4c 
00005c3b 4241434b2044 
00005c41 454d5f434647 
00005c47 5f4556545f47 
00005c4d 4c4f42414c49 
00005c53 4e49544d4f4e 
00005c59 49544f52494e 
00005c5f 4743414c4c42 
00005c65 41434b5f4f46 
00005c6b 4600 
00005c6d 01            10068 	.byte	1
00005c6e 5c            10069 	.byte	92
00005c6f 44454d5f4346  10070 	.strz	"DEM_CFG_EVT_STATUS_CHANGE_NUM_CALLBACKS 0u"
00005c75 475f4556545f 
00005c7b 535441545553 
00005c81 5f4348414e47 
00005c87 455f4e554d5f 
00005c8d 43414c4c4241 
00005c93 434b53203075 
00005c99 00 
00005c9a 01            10071 	.byte	1
00005c9b 5d            10072 	.byte	93
00005c9c 44454d5f4346  10073 	.strz	"DEM_CFG_TFSLC_RESET_AFTER_AGING_AND_DISPLACEMENT FALSE"
00005ca2 475f5446534c 
00005ca8 435f52455345 
00005cae 545f41465445 
00005cb4 525f4147494e 
00005cba 475f414e445f 
00005cc0 444953504c41 
00005cc6 43454d454e54 
00005ccc 2046414c5345 
00005cd2 00 
00005cd3 01            10074 	.byte	1
00005cd4 5e            10075 	.byte	94
00005cd5 44454d5f4346  10076 	.strz	"DEM_CFG_EVT_ATTRIBUTE_OFF STD_OFF"
00005cdb 475f4556545f 
00005ce1 415454524942 
00005ce7 5554455f4f46 
00005ced 46205354445f 
00005cf3 4f464600 
00005cf7 01            10077 	.byte	1

                                                                      Page 250
                                                              C:\Users\nhuliyap\AppData\Local\Temp\gh_00008cs1.s
00005cf8 5f            10078 	.byte	95
00005cf9 44454d5f4346  10079 	.strz	"DEM_CFG_EVT_ATTRIBUTE_ON STD_ON"
00005cff 475f4556545f 
00005d05 415454524942 
00005d0b 5554455f4f4e 
00005d11 205354445f4f 
00005d17 4e00 
00005d19 01            10080 	.byte	1
00005d1a 60            10081 	.byte	96
00005d1b 44454d5f4346  10082 	.strz	"DEM_CFG_EVT_ATTRIBUTE DEM_CFG_EVT_ATTRIBUTE_OFF"
00005d21 475f4556545f 
00005d27 415454524942 
00005d2d 555445204445 
00005d33 4d5f4346475f 
00005d39 4556545f4154 
00005d3f 545249425554 
00005d45 455f4f464600 
00005d4b 01            10083 	.byte	1
00005d4c 61            10084 	.byte	97
00005d4d 44454d5f4556  10085 	.strz	"DEM_EVT_BP_STATE_CAUSALFAULT 0u"
00005d53 545f42505f53 
00005d59 544154455f43 
00005d5f 415553414c46 
00005d65 41554c542030 
00005d6b 7500 
00005d6d 01            10086 	.byte	1
00005d6e 62            10087 	.byte	98
00005d6f 44454d5f4556  10088 	.strz	"DEM_EVT_BP_STATE_SUSPICIONLEVEL 1u"
00005d75 545f42505f53 
00005d7b 544154455f53 
00005d81 555350494349 
00005d87 4f4e4c455645 
00005d8d 4c20317500 
00005d92 01            10089 	.byte	1
00005d93 63            10090 	.byte	99
00005d94 44454d5f4556  10091 	.strz	"DEM_EVT_BP_STATE_NOTAVAILABLE 2u"
00005d9a 545f42505f53 
00005da0 544154455f4e 
00005da6 4f5441564149 
00005dac 4c41424c4520 
00005db2 327500 
00005db5 01            10092 	.byte	1
00005db6 64            10093 	.byte	100
00005db7 44454d5f4556  10094 	.strz	"DEM_EVT_BP_STATE_INITMONITORING 3u"
00005dbd 545f42505f53 
00005dc3 544154455f49 
00005dc9 4e49544d4f4e 
00005dcf 49544f52494e 
00005dd5 4720337500 
00005dda 01            10095 	.byte	1
00005ddb 66            10096 	.byte	102
00005ddc 44454d5f4556  10097 	.strz	"DEM_EVT_BP_STATE_INITMONITORING_SIZE 3u"
00005de2 545f42505f53 
00005de8 544154455f49 
00005dee 4e49544d4f4e 
00005df4 49544f52494e 
00005dfa 475f53495a45 
00005e00 20337500 
00005e04 01            10098 	.byte	1
00005e05 67            10099 	.byte	103
00005e06 44454d5f4556  10100 	.strz	"DEM_EVT_BP_STATE_WIRSTATUS_EXTERNAL 6u"

                                                                      Page 251
                                                              C:\Users\nhuliyap\AppData\Local\Temp\gh_00008cs1.s
00005e0c 545f42505f53 
00005e12 544154455f57 
00005e18 495253544154 
00005e1e 55535f455854 
00005e24 45524e414c20 
00005e2a 367500 
00005e2d 01            10101 	.byte	1
00005e2e 68            10102 	.byte	104
00005e2f 44454d5f4556  10103 	.strz	"DEM_EVT_BP_STATE_NXT_REPORT_IS_RELEVANT 7u"
00005e35 545f42505f53 
00005e3b 544154455f4e 
00005e41 58545f524550 
00005e47 4f52545f4953 
00005e4d 5f52454c4556 
00005e53 414e54203775 
00005e59 00 
00005e5a 01            10104 	.byte	1
00005e5b 6a            10105 	.byte	106
00005e5c 44454d5f4556  10106 	.strz	"DEM_EVTSTATE_ISBITSET rba_DiagLib_Bit8IsBitSet"
00005e62 545354415445 
00005e68 5f4953424954 
00005e6e 534554207262 
00005e74 615f44696167 
00005e7a 4c69625f4269 
00005e80 743849734269 
00005e86 7453657400 
00005e8b 01            10107 	.byte	1
00005e8c 6b            10108 	.byte	107
00005e8d 44454d5f4556  10109 	.strz	"DEM_EVTSTATE_OVERWRITEBIT rba_DiagLib_Bit8OverwriteBit"
00005e93 545354415445 
00005e99 5f4f56455257 
00005e9f 524954454249 
00005ea5 54207262615f 
00005eab 446961674c69 
00005eb1 625f42697438 
00005eb7 4f7665727772 
00005ebd 697465426974 
00005ec3 00 
00005ec4 01            10110 	.byte	1
00005ec5 6c            10111 	.byte	108
00005ec6 44454d5f4556  10112 	.strz	"DEM_EVTSTATE_OVERWRITEBITS rba_DiagLib_Bit8OverwriteBits"
00005ecc 545354415445 
00005ed2 5f4f56455257 
00005ed8 524954454249 
00005ede 545320726261 
00005ee4 5f446961674c 
00005eea 69625f426974 
00005ef0 384f76657277 
00005ef6 726974654269 
00005efc 747300 
00005eff 01            10113 	.byte	1
00005f00 6f            10114 	.byte	111
00005f01 44454d5f4556  10115 	.strz	"DEM_EVTSTATE_GETBITS rba_DiagLib_Bit8GetBits"
00005f07 545354415445 
00005f0d 5f4745544249 
00005f13 545320726261 
00005f19 5f446961674c 
00005f1f 69625f426974 
00005f25 384765744269 
00005f2b 747300 
00005f2e 01            10116 	.byte	1

                                                                      Page 252
                                                              C:\Users\nhuliyap\AppData\Local\Temp\gh_00008cs1.s
00005f2f 70            10117 	.byte	112
00005f30 44454d5f4556  10118 	.strz	"DEM_EVTSTATE_CLEARBITS rba_DiagLib_Bit8ClearBits"
00005f36 545354415445 
00005f3c 5f434c454152 
00005f42 424954532072 
00005f48 62615f446961 
00005f4e 674c69625f42 
00005f54 697438436c65 
00005f5a 617242697473 
00005f60 00 
00005f61 01            10119 	.byte	1
00005f62 73            10120 	.byte	115
00005f63 44454d5f4346  10121 	.strz	"DEM_CFG_CALLBACK_INIT_MON_FOR_EVENT_SUPPORTED TRUE"
00005f69 475f43414c4c 
00005f6f 4241434b5f49 
00005f75 4e49545f4d4f 
00005f7b 4e5f464f525f 
00005f81 4556454e545f 
00005f87 535550504f52 
00005f8d 544544205452 
00005f93 554500 
00005f96 01            10122 	.byte	1
00005f97 74            10123 	.byte	116
00005f98 44454d5f4346  10124 	.strz	"DEM_CFG_CALLBACK_INITMFORE_LISTLENGTH 34u"
00005f9e 475f43414c4c 
00005fa4 4241434b5f49 
00005faa 4e49544d464f 
00005fb0 52455f4c4953 
00005fb6 544c454e4754 
00005fbc 482033347500 
00005fc2 04            10125 	.byte	4
00005fc3 03            10126 	.byte	3
00005fc4 0a            10127 	.byte	10
00005fc5 35            10128 	.byte	53
00005fc6 03            10129 	.byte	3
00005fc7 1c            10130 	.byte	28
00005fc8 36            10131 	.byte	54
00005fc9 04            10132 	.byte	4
00005fca 03            10133 	.byte	3
00005fcb 1d            10134 	.byte	29
00005fcc 37            10135 	.byte	55
00005fcd 01            10136 	.byte	1
00005fce 09            10137 	.byte	9
00005fcf 5242415f4449  10138 	.strz	"RBA_DIAGLIB_ISBITSET32 rba_DiagLib_Bit32IsBitSet"
00005fd5 41474c49425f 
00005fdb 495342495453 
00005fe1 455433322072 
00005fe7 62615f446961 
00005fed 674c69625f42 
00005ff3 697433324973 
00005ff9 426974536574 
00005fff 00 
00006000 01            10139 	.byte	1
00006001 0a            10140 	.byte	10
00006002 5242415f4449  10141 	.strz	"RBA_DIAGLIB_GETSINGLEBIT32 rba_DiagLib_Bit32GetSingleBit"
00006008 41474c49425f 
0000600e 47455453494e 
00006014 474c45424954 
0000601a 333220726261 
00006020 5f446961674c 
00006026 69625f426974 

                                                                      Page 253
                                                              C:\Users\nhuliyap\AppData\Local\Temp\gh_00008cs1.s
0000602c 333247657453 
00006032 696e676c6542 
00006038 697400 
0000603b 01            10142 	.byte	1
0000603c 0b            10143 	.byte	11
0000603d 5242415f4449  10144 	.strz	"RBA_DIAGLIB_GETBITS32 rba_DiagLib_Bit32GetBits"
00006043 41474c49425f 
00006049 474554424954 
0000604f 533332207262 
00006055 615f44696167 
0000605b 4c69625f4269 
00006061 743332476574 
00006067 4269747300 
0000606c 04            10145 	.byte	4
0000606d 01            10146 	.byte	1
0000606e 26            10147 	.byte	38
0000606f 44454d5f4f50  10148 	.strz	"DEM_OPERATIONCYCLE_COUNT 3"
00006075 45524154494f 
0000607b 4e4359434c45 
00006081 5f434f554e54 
00006087 203300 
0000608a 01            10149 	.byte	1
0000608b 2d            10150 	.byte	45
0000608c 44454d5f4f50  10151 	.strz	"DEM_OPERATIONCYCLE_ISBITSET rba_DiagLib_Bit8IsBitSet"
00006092 45524154494f 
00006098 4e4359434c45 
0000609e 5f4953424954 
000060a4 534554207262 
000060aa 615f44696167 
000060b0 4c69625f4269 
000060b6 743849734269 
000060bc 7453657400 
000060c1 04            10152 	.byte	4
000060c2 03            10153 	.byte	3
000060c3 0b            10154 	.byte	11
000060c4 38            10155 	.byte	56
000060c5 03            10156 	.byte	3
000060c6 1c            10157 	.byte	28
000060c7 39            10158 	.byte	57
000060c8 01            10159 	.byte	1
000060c9 20            10160 	.byte	32
000060ca 44454d5f4346  10161 	.strz	"DEM_CFG_EVCOMB_DISABLED 1u"
000060d0 475f4556434f 
000060d6 4d425f444953 
000060dc 41424c454420 
000060e2 317500 
000060e5 01            10162 	.byte	1
000060e6 23            10163 	.byte	35
000060e7 44454d5f4346  10164 	.strz	"DEM_CFG_EVCOMB DEM_CFG_EVCOMB_DISABLED"
000060ed 475f4556434f 
000060f3 4d422044454d 
000060f9 5f4346475f45 
000060ff 56434f4d425f 
00006105 44495341424c 
0000610b 454400 
0000610e 01            10165 	.byte	1
0000610f 25            10166 	.byte	37
00006110 44454d5f4454  10167 	.strz	"DEM_DTCID_INVALID 0u"
00006116 4349445f494e 
0000611c 56414c494420 
00006122 307500 

                                                                      Page 254
                                                              C:\Users\nhuliyap\AppData\Local\Temp\gh_00008cs1.s
00006125 01            10168 	.byte	1
00006126 26            10169 	.byte	38
00006127 44454d5f4454  10170 	.strz	"DEM_DTCID_COUNT 34u"
0000612d 4349445f434f 
00006133 554e54203334 
00006139 7500 
0000613b 01            10171 	.byte	1
0000613c 27            10172 	.byte	39
0000613d 44454d5f4454  10173 	.strz	"DEM_DTCID_ARRAYLENGTH (DEM_DTCID_COUNT+1u)"
00006143 4349445f4152 
00006149 5241594c454e 
0000614f 475448202844 
00006155 454d5f445443 
0000615b 49445f434f55 
00006161 4e542b317529 
00006167 00 
00006168 01            10174 	.byte	1
00006169 4c            10175 	.byte	76
0000616a 44454d5f4454  10176 	.strz	"DEM_DTCGROUPID_INVALID 0u"
00006170 4347524f5550 
00006176 49445f494e56 
0000617c 414c49442030 
00006182 7500 
00006184 01            10177 	.byte	1
00006185 4d            10178 	.byte	77
00006186 44454d5f4454  10179 	.strz	"DEM_DTCGROUPID_COUNT 1u"
0000618c 4347524f5550 
00006192 49445f434f55 
00006198 4e5420317500 
0000619e 01            10180 	.byte	1
0000619f 4e            10181 	.byte	78
000061a0 44454d5f4454  10182 	.strz	"DEM_DTCGROUPID_ARRAYLENGTH (DEM_DTCGROUPID_COUNT+1u)"
000061a6 4347524f5550 
000061ac 49445f415252 
000061b2 41594c454e47 
000061b8 544820284445 
000061be 4d5f44544347 
000061c4 524f55504944 
000061ca 5f434f554e54 
000061d0 2b31752900 
000061d5 04            10183 	.byte	4
000061d6 01            10184 	.byte	1
000061d7 29            10185 	.byte	41
000061d8 44454d5f4346  10186 	.strz	"DEM_CFG_EVMEM_STORAGE_TESTFAILED_SUPPORTED TRUE"
000061de 475f45564d45 
000061e4 4d5f53544f52 
000061ea 4147455f5445 
000061f0 53544641494c 
000061f6 45445f535550 
000061fc 504f52544544 
00006202 205452554500 
00006208 01            10187 	.byte	1
00006209 2e            10188 	.byte	46
0000620a 44454d5f4346  10189 	.strz	"DEM_CFG_EVMEM_EXTENDED_DATA_SUPPORTED TRUE"
00006210 475f45564d45 
00006216 4d5f45585445 
0000621c 4e4445445f44 
00006222 4154415f5355 
00006228 50504f525445 
0000622e 442054525545 
00006234 00 

                                                                      Page 255
                                                              C:\Users\nhuliyap\AppData\Local\Temp\gh_00008cs1.s
00006235 01            10190 	.byte	1
00006236 32            10191 	.byte	50
00006237 44454d5f4346  10192 	.strz	"DEM_CFG_EVMEM_FREEZE_FRAME_SUPPORTED TRUE"
0000623d 475f45564d45 
00006243 4d5f46524545 
00006249 5a455f465241 
0000624f 4d455f535550 
00006255 504f52544544 
0000625b 205452554500 
00006261 01            10193 	.byte	1
00006262 38            10194 	.byte	56
00006263 44454d5f4346  10195 	.strz	"DEM_CFG_MAX_NUMBER_EVENT_ENTRY_SECONDARY 0u"
00006269 475f4d41585f 
0000626f 4e554d424552 
00006275 5f4556454e54 
0000627b 5f454e545259 
00006281 5f5345434f4e 
00006287 444152592030 
0000628d 7500 
0000628f 01            10196 	.byte	1
00006290 3a            10197 	.byte	58
00006291 44454d5f4346  10198 	.strz	"DEM_CFG_MAX_NUMBER_EVENT_ENTRY_MIRROR 0u"
00006297 475f4d41585f 
0000629d 4e554d424552 
000062a3 5f4556454e54 
000062a9 5f454e545259 
000062af 5f4d4952524f 
000062b5 5220307500 
000062ba 01            10199 	.byte	1
000062bb 3e            10200 	.byte	62
000062bc 44454d5f4346  10201 	.strz	"DEM_CFG_EVMEM_MIRROR_MEMORY_DTC_STATUS_STORED FALSE"
000062c2 475f45564d45 
000062c8 4d5f4d495252 
000062ce 4f525f4d454d 
000062d4 4f52595f4454 
000062da 435f53544154 
000062e0 55535f53544f 
000062e6 524544204641 
000062ec 4c534500 
000062f0 01            10202 	.byte	1
000062f1 3f            10203 	.byte	63
000062f2 44454d5f4346  10204 	.strz	"DEM_CFG_EVMEM_SHADOW_MEMORY_SUPPORTED FALSE"
000062f8 475f45564d45 
000062fe 4d5f53484144 
00006304 4f575f4d454d 
0000630a 4f52595f5355 
00006310 50504f525445 
00006316 442046414c53 
0000631c 4500 
0000631e 01            10205 	.byte	1
0000631f 41            10206 	.byte	65
00006320 44454d5f4346  10207 	.strz	"DEM_CFG_EVMEM_SHADOW_ENTRIES_VISIBLE FALSE"
00006326 475f45564d45 
0000632c 4d5f53484144 
00006332 4f575f454e54 
00006338 524945535f56 
0000633e 495349424c45 
00006344 2046414c5345 
0000634a 00 
0000634b 01            10208 	.byte	1
0000634c 50            10209 	.byte	80

                                                                      Page 256
                                                              C:\Users\nhuliyap\AppData\Local\Temp\gh_00008cs1.s
0000634d 44454d5f4346  10210 	.strz	"DEM_CFG_EVMEM_AGING_COUNTER_SUPPORTED TRUE"
00006353 475f45564d45 
00006359 4d5f4147494e 
0000635f 475f434f554e 
00006365 5445525f5355 
0000636b 50504f525445 
00006371 442054525545 
00006377 00 
00006378 01            10211 	.byte	1
00006379 54            10212 	.byte	84
0000637a 44454d5f4346  10213 	.strz	"DEM_CFG_EVMEM_AGING_COUNTER_MAX 0xFF"
00006380 475f45564d45 
00006386 4d5f4147494e 
0000638c 475f434f554e 
00006392 5445525f4d41 
00006398 582030784646 
0000639e 00 
0000639f 01            10214 	.byte	1
000063a0 55            10215 	.byte	85
000063a1 44454d5f4346  10216 	.strz	"DEM_CFG_EVMEM_OCCURRENCE_COUNTER_SUPPORTED TRUE"
000063a7 475f45564d45 
000063ad 4d5f4f434355 
000063b3 5252454e4345 
000063b9 5f434f554e54 
000063bf 45525f535550 
000063c5 504f52544544 
000063cb 205452554500 
000063d1 01            10217 	.byte	1
000063d2 58            10218 	.byte	88
000063d3 44454d5f4346  10219 	.strz	"DEM_CFG_EVMEM_RESET_CONFIRMED_BIT_ON_OVERFLOW FALSE"
000063d9 475f45564d45 
000063df 4d5f52455345 
000063e5 545f434f4e46 
000063eb 49524d45445f 
000063f1 4249545f4f4e 
000063f7 5f4f56455246 
000063fd 4c4f57204641 
00006403 4c534500 
00006407 01            10220 	.byte	1
00006408 59            10221 	.byte	89
00006409 44454d5f4346  10222 	.strz	"DEM_CFG_EVMEM_PROJECT_EXTENSION FALSE"
0000640f 475f45564d45 
00006415 4d5f50524f4a 
0000641b 4543545f4558 
00006421 54454e53494f 
00006427 4e2046414c53 
0000642d 4500 
0000642f 01            10223 	.byte	1
00006430 5a            10224 	.byte	90
00006431 44454d5f4346  10225 	.strz	"DEM_CFG_EVMEM_READ_FROM_DIFFERENT_TASK FALSE"
00006437 475f45564d45 
0000643d 4d5f52454144 
00006443 5f46524f4d5f 
00006449 444946464552 
0000644f 454e545f5441 
00006455 534b2046414c 
0000645b 534500 
0000645e 01            10226 	.byte	1
0000645f 5f            10227 	.byte	95
00006460 44454d5f4346  10228 	.strz	"DEM_CFG_EVMEM_DEBUG_BITFIELDS FALSE"
00006466 475f45564d45 

                                                                      Page 257
                                                              C:\Users\nhuliyap\AppData\Local\Temp\gh_00008cs1.s
0000646c 4d5f44454255 
00006472 475f42495446 
00006478 49454c445320 
0000647e 46414c534500 
00006484 01            10229 	.byte	1
00006485 68            10230 	.byte	104
00006486 44454d5f4346  10231 	.strz	"DEM_CFG_EVMEM_OCCURRENCE_COUNTER_MAX 0xFFu"
0000648c 475f45564d45 
00006492 4d5f4f434355 
00006498 5252454e4345 
0000649e 5f434f554e54 
000064a4 45525f4d4158 
000064aa 203078464675 
000064b0 00 
000064b1 01            10232 	.byte	1
000064b2 8e01          10233 	.byte	142,1
000064b4 44454d5f4346  10234 	.strz	"DEM_CFG_EVMEM_MIRROR_MEMORY_SUPPORTED FALSE"
000064ba 475f45564d45 
000064c0 4d5f4d495252 
000064c6 4f525f4d454d 
000064cc 4f52595f5355 
000064d2 50504f525445 
000064d8 442046414c53 
000064de 4500 
000064e0 04            10235 	.byte	4
000064e1 03            10236 	.byte	3
000064e2 0c            10237 	.byte	12
000064e3 3a            10238 	.byte	58
000064e4 04            10239 	.byte	4
000064e5 03            10240 	.byte	3
000064e6 0d            10241 	.byte	13
000064e7 3b            10242 	.byte	59
000064e8 03            10243 	.byte	3
000064e9 06            10244 	.byte	6
000064ea 3c            10245 	.byte	60
000064eb 03            10246 	.byte	3
000064ec 0a            10247 	.byte	10
000064ed 3d            10248 	.byte	61
000064ee 04            10249 	.byte	4
000064ef 03            10250 	.byte	3
000064f0 0b            10251 	.byte	11
000064f1 3e            10252 	.byte	62
000064f2 01            10253 	.byte	1
000064f3 20            10254 	.byte	32
000064f4 44454d5f4346  10255 	.strz	"DEM_CFG_ENABLECONDITION_ON STD_ON"
000064fa 475f454e4142 
00006500 4c45434f4e44 
00006506 4954494f4e5f 
0000650c 4f4e20535444 
00006512 5f4f4e00 
00006516 01            10256 	.byte	1
00006517 21            10257 	.byte	33
00006518 44454d5f4346  10258 	.strz	"DEM_CFG_ENABLECONDITION_OFF STD_OFF"
0000651e 475f454e4142 
00006524 4c45434f4e44 
0000652a 4954494f4e5f 
00006530 4f4646205354 
00006536 445f4f464600 
0000653c 01            10259 	.byte	1
0000653d 22            10260 	.byte	34
0000653e 44454d5f4346  10261 	.strz	"DEM_CFG_ENABLECONDITION DEM_CFG_ENABLECONDITION_OFF"

                                                                      Page 258
                                                              C:\Users\nhuliyap\AppData\Local\Temp\gh_00008cs1.s
00006544 475f454e4142 
0000654a 4c45434f4e44 
00006550 4954494f4e20 
00006556 44454d5f4346 
0000655c 475f454e4142 
00006562 4c45434f4e44 
00006568 4954494f4e5f 
0000656e 4f464600 
00006572 01            10262 	.byte	1
00006573 24            10263 	.byte	36
00006574 44454d5f454e  10264 	.strz	"DEM_ENABLECONDITION_COUNT 0u"
0000657a 41424c45434f 
00006580 4e444954494f 
00006586 4e5f434f554e 
0000658c 5420307500 
00006591 01            10265 	.byte	1
00006592 25            10266 	.byte	37
00006593 44454d5f454e  10267 	.strz	"DEM_ENABLECONDITION_ARRAYLENGTH (DEM_ENABLECONDITION_COUNT)"
00006599 41424c45434f 
0000659f 4e444954494f 
000065a5 4e5f41525241 
000065ab 594c454e4754 
000065b1 48202844454d 
000065b7 5f454e41424c 
000065bd 45434f4e4449 
000065c3 54494f4e5f43 
000065c9 4f554e542900 
000065cf 04            10268 	.byte	4
000065d0 03            10269 	.byte	3
000065d1 0c            10270 	.byte	12
000065d2 3f            10271 	.byte	63
000065d3 01            10272 	.byte	1
000065d4 20            10273 	.byte	32
000065d5 44454d5f4346  10274 	.strz	"DEM_CFG_EVTCATEGORY_OFF STD_OFF"
000065db 475f45565443 
000065e1 415445474f52 
000065e7 595f4f464620 
000065ed 5354445f4f46 
000065f3 4600 
000065f5 01            10275 	.byte	1
000065f6 21            10276 	.byte	33
000065f7 44454d5f4346  10277 	.strz	"DEM_CFG_EVTCATEGORY_ON STD_ON"
000065fd 475f45565443 
00006603 415445474f52 
00006609 595f4f4e2053 
0000660f 54445f4f4e00 
00006615 01            10278 	.byte	1
00006616 23            10279 	.byte	35
00006617 44454d5f4346  10280 	.strz	"DEM_CFG_EVTCATEGORY DEM_CFG_EVTCATEGORY_OFF"
0000661d 475f45565443 
00006623 415445474f52 
00006629 592044454d5f 
0000662f 4346475f4556 
00006635 544341544547 
0000663b 4f52595f4f46 
00006641 4600 
00006643 04            10281 	.byte	4
00006644 03            10282 	.byte	3
00006645 0d            10283 	.byte	13
00006646 40            10284 	.byte	64
00006647 01            10285 	.byte	1

                                                                      Page 259
                                                              C:\Users\nhuliyap\AppData\Local\Temp\gh_00008cs1.s
00006648 1f            10286 	.byte	31
00006649 44454d5f4346  10287 	.strz	"DEM_CFG_EVT_INDICATOR_OFF 0u"
0000664f 475f4556545f 
00006655 494e44494341 
0000665b 544f525f4f46 
00006661 4620307500 
00006666 01            10288 	.byte	1
00006667 20            10289 	.byte	32
00006668 44454d5f4346  10290 	.strz	"DEM_CFG_EVT_INDICATOR_ON 1u"
0000666e 475f4556545f 
00006674 494e44494341 
0000667a 544f525f4f4e 
00006680 20317500 
00006684 01            10291 	.byte	1
00006685 21            10292 	.byte	33
00006686 44454d5f4346  10293 	.strz	"DEM_CFG_EVT_INDICATOR_PROJECTSPECIFIC 2u"
0000668c 475f4556545f 
00006692 494e44494341 
00006698 544f525f5052 
0000669e 4f4a45435453 
000066a4 504543494649 
000066aa 4320327500 
000066af 01            10294 	.byte	1
000066b0 22            10295 	.byte	34
000066b1 44454d5f4346  10296 	.strz	"DEM_CFG_EVT_INDICATOR DEM_CFG_EVT_INDICATOR_OFF"
000066b7 475f4556545f 
000066bd 494e44494341 
000066c3 544f52204445 
000066c9 4d5f4346475f 
000066cf 4556545f494e 
000066d5 44494341544f 
000066db 525f4f464600 
000066e1 04            10297 	.byte	4
000066e2 03            10298 	.byte	3
000066e3 0f            10299 	.byte	15
000066e4 41            10300 	.byte	65
000066e5 01            10301 	.byte	1
000066e6 20            10302 	.byte	32
000066e7 44454d5f4346  10303 	.strz	"DEM_CFG_STORAGECONDITION_ON STD_ON"
000066ed 475f53544f52 
000066f3 414745434f4e 
000066f9 444954494f4e 
000066ff 5f4f4e205354 
00006705 445f4f4e00 
0000670a 01            10304 	.byte	1
0000670b 21            10305 	.byte	33
0000670c 44454d5f4346  10306 	.strz	"DEM_CFG_STORAGECONDITION_OFF STD_OFF"
00006712 475f53544f52 
00006718 414745434f4e 
0000671e 444954494f4e 
00006724 5f4f46462053 
0000672a 54445f4f4646 
00006730 00 
00006731 01            10307 	.byte	1
00006732 22            10308 	.byte	34
00006733 44454d5f4346  10309 	.strz	"DEM_CFG_STORAGECONDITION DEM_CFG_STORAGECONDITION_OFF"
00006739 475f53544f52 
0000673f 414745434f4e 
00006745 444954494f4e 
0000674b 2044454d5f43 
00006751 46475f53544f 

                                                                      Page 260
                                                              C:\Users\nhuliyap\AppData\Local\Temp\gh_00008cs1.s
00006757 52414745434f 
0000675d 4e444954494f 
00006763 4e5f4f464600 
00006769 01            10310 	.byte	1
0000676a 24            10311 	.byte	36
0000676b 44454d5f5354  10312 	.strz	"DEM_STORAGECONDITION_COUNT 0u"
00006771 4f5241474543 
00006777 4f4e44495449 
0000677d 4f4e5f434f55 
00006783 4e5420307500 
00006789 01            10313 	.byte	1
0000678a 25            10314 	.byte	37
0000678b 44454d5f5354  10315 	.strz	"DEM_STORAGECONDITION_ARRAYLENGTH (DEM_STORAGECONDITION_COUNT)"
00006791 4f5241474543 
00006797 4f4e44495449 
0000679d 4f4e5f415252 
000067a3 41594c454e47 
000067a9 544820284445 
000067af 4d5f53544f52 
000067b5 414745434f4e 
000067bb 444954494f4e 
000067c1 5f434f554e54 
000067c7 2900 
000067c9 04            10316 	.byte	4
000067ca 03            10317 	.byte	3
000067cb 10            10318 	.byte	16
000067cc 42            10319 	.byte	66
000067cd 01            10320 	.byte	1
000067ce 08            10321 	.byte	8
000067cf 44454d5f5354  10322 	.strz	"DEM_START_SEC_CODE "
000067d5 4152545f5345 
000067db 435f434f4445 
000067e1 2000 
000067e3 03            10323 	.byte	3
000067e4 09            10324 	.byte	9
000067e5 12            10325 	.byte	18
000067e6 03            10326 	.byte	3
000067e7 08            10327 	.byte	8
000067e8 13            10328 	.byte	19
000067e9 01            10329 	.byte	1
000067ea 06            10330 	.byte	6
000067eb 44454d5f4d45  10331 	.strz	"DEM_MEMMAP_ERROR "
000067f1 4d4d41505f45 
000067f7 52524f522000 
000067fd 01            10332 	.byte	1
000067fe 51            10333 	.byte	81
000067ff 4253575f5354  10334 	.strz	"BSW_START_SEC_CODE "
00006805 4152545f5345 
0000680b 435f434f4445 
00006811 2000 
00006813 03            10335 	.byte	3
00006814 52            10336 	.byte	82
00006815 14            10337 	.byte	20
00006816 01            10338 	.byte	1
00006817 e408          10339 	.byte	228,8
00006819 53544152545f  10340 	.strz	"START_SEC_CODE "
0000681f 5345435f434f 
00006825 44452000 
00006829 03            10341 	.byte	3
0000682a c509          10342 	.byte	197,9
0000682c 15            10343 	.byte	21

                                                                      Page 261
                                                              C:\Users\nhuliyap\AppData\Local\Temp\gh_00008cs1.s
0000682d 01            10344 	.byte	1
0000682e f407          10345 	.byte	244,7
00006830 434f44455f53  10346 	.strz	"CODE_SEC_OPEN "
00006836 45435f4f5045 
0000683c 4e2000 
0000683f 04            10347 	.byte	4
00006840 04            10348 	.byte	4
00006841 01            10349 	.byte	1
00006842 56            10350 	.byte	86
00006843 44454d5f5741  10351 	.strz	"DEM_WAS_STARTED_SEC_CODE "
00006849 535f53544152 
0000684f 5445445f5345 
00006855 435f434f4445 
0000685b 2000 
0000685d 04            10352 	.byte	4
0000685e 04            10353 	.byte	4
0000685f 01            10354 	.byte	1
00006860 0f            10355 	.byte	15
00006861 44454d5f5354  10356 	.strz	"DEM_STOP_SEC_CODE "
00006867 4f505f534543 
0000686d 5f434f444520 
00006873 00 
00006874 03            10357 	.byte	3
00006875 10            10358 	.byte	16
00006876 12            10359 	.byte	18
00006877 03            10360 	.byte	3
00006878 08            10361 	.byte	8
00006879 13            10362 	.byte	19
0000687a 01            10363 	.byte	1
0000687b 06            10364 	.byte	6
0000687c 44454d5f4d45  10365 	.strz	"DEM_MEMMAP_ERROR "
00006882 4d4d41505f45 
00006888 52524f522000 
0000688e 01            10366 	.byte	1
0000688f 5e            10367 	.byte	94
00006890 4253575f5354  10368 	.strz	"BSW_STOP_SEC_CODE "
00006896 4f505f534543 
0000689c 5f434f444520 
000068a2 00 
000068a3 03            10369 	.byte	3
000068a4 5f            10370 	.byte	95
000068a5 14            10371 	.byte	20
000068a6 01            10372 	.byte	1
000068a7 e808          10373 	.byte	232,8
000068a9 53544f505f53  10374 	.strz	"STOP_SEC_CODE "
000068af 45435f434f44 
000068b5 452000 
000068b8 03            10375 	.byte	3
000068b9 c509          10376 	.byte	197,9
000068bb 15            10377 	.byte	21
000068bc 04            10378 	.byte	4
000068bd 04            10379 	.byte	4
000068be 04            10380 	.byte	4
000068bf 04            10381 	.byte	4
000068c0 04            10382 	.byte	4
000068c1 03            10383 	.byte	3
000068c2 11            10384 	.byte	17
000068c3 43            10385 	.byte	67
000068c4 03            10386 	.byte	3
000068c5 0d            10387 	.byte	13
000068c6 44            10388 	.byte	68

                                                                      Page 262
                                                              C:\Users\nhuliyap\AppData\Local\Temp\gh_00008cs1.s
000068c7 03            10389 	.byte	3
000068c8 07            10390 	.byte	7
000068c9 45            10391 	.byte	69
000068ca 03            10392 	.byte	3
000068cb 06            10393 	.byte	6
000068cc 46            10394 	.byte	70
000068cd 04            10395 	.byte	4
000068ce 04            10396 	.byte	4
000068cf 01            10397 	.byte	1
000068d0 0d            10398 	.byte	13
000068d1 44454d5f5354  10399 	.strz	"DEM_START_SEC_CODE "
000068d7 4152545f5345 
000068dd 435f434f4445 
000068e3 2000 
000068e5 03            10400 	.byte	3
000068e6 0e            10401 	.byte	14
000068e7 12            10402 	.byte	18
000068e8 03            10403 	.byte	3
000068e9 08            10404 	.byte	8
000068ea 13            10405 	.byte	19
000068eb 01            10406 	.byte	1
000068ec 06            10407 	.byte	6
000068ed 44454d5f4d45  10408 	.strz	"DEM_MEMMAP_ERROR "
000068f3 4d4d41505f45 
000068f9 52524f522000 
000068ff 01            10409 	.byte	1
00006900 51            10410 	.byte	81
00006901 4253575f5354  10411 	.strz	"BSW_START_SEC_CODE "
00006907 4152545f5345 
0000690d 435f434f4445 
00006913 2000 
00006915 03            10412 	.byte	3
00006916 52            10413 	.byte	82
00006917 14            10414 	.byte	20
00006918 01            10415 	.byte	1
00006919 e408          10416 	.byte	228,8
0000691b 53544152545f  10417 	.strz	"START_SEC_CODE "
00006921 5345435f434f 
00006927 44452000 
0000692b 03            10418 	.byte	3
0000692c c509          10419 	.byte	197,9
0000692e 15            10420 	.byte	21
0000692f 01            10421 	.byte	1
00006930 f407          10422 	.byte	244,7
00006932 434f44455f53  10423 	.strz	"CODE_SEC_OPEN "
00006938 45435f4f5045 
0000693e 4e2000 
00006941 04            10424 	.byte	4
00006942 04            10425 	.byte	4
00006943 01            10426 	.byte	1
00006944 56            10427 	.byte	86
00006945 44454d5f5741  10428 	.strz	"DEM_WAS_STARTED_SEC_CODE "
0000694b 535f53544152 
00006951 5445445f5345 
00006957 435f434f4445 
0000695d 2000 
0000695f 04            10429 	.byte	4
00006960 04            10430 	.byte	4
00006961 01            10431 	.byte	1
00006962 57            10432 	.byte	87
00006963 44454d5f5354  10433 	.strz	"DEM_STOP_SEC_CODE "

                                                                      Page 263
                                                              C:\Users\nhuliyap\AppData\Local\Temp\gh_00008cs1.s
00006969 4f505f534543 
0000696f 5f434f444520 
00006975 00 
00006976 03            10434 	.byte	3
00006977 58            10435 	.byte	88
00006978 12            10436 	.byte	18
00006979 03            10437 	.byte	3
0000697a 08            10438 	.byte	8
0000697b 13            10439 	.byte	19
0000697c 01            10440 	.byte	1
0000697d 06            10441 	.byte	6
0000697e 44454d5f4d45  10442 	.strz	"DEM_MEMMAP_ERROR "
00006984 4d4d41505f45 
0000698a 52524f522000 
00006990 01            10443 	.byte	1
00006991 5e            10444 	.byte	94
00006992 4253575f5354  10445 	.strz	"BSW_STOP_SEC_CODE "
00006998 4f505f534543 
0000699e 5f434f444520 
000069a4 00 
000069a5 03            10446 	.byte	3
000069a6 5f            10447 	.byte	95
000069a7 14            10448 	.byte	20
000069a8 01            10449 	.byte	1
000069a9 e808          10450 	.byte	232,8
000069ab 53544f505f53  10451 	.strz	"STOP_SEC_CODE "
000069b1 45435f434f44 
000069b7 452000 
000069ba 03            10452 	.byte	3
000069bb c509          10453 	.byte	197,9
000069bd 15            10454 	.byte	21
000069be 04            10455 	.byte	4
000069bf 04            10456 	.byte	4
000069c0 04            10457 	.byte	4
000069c1 04            10458 	.byte	4
000069c2 04            10459 	.byte	4
000069c3 04            10460 	.byte	4
000069c4 03            10461 	.byte	3
000069c5 12            10462 	.byte	18
000069c6 47            10463 	.byte	71
000069c7 04            10464 	.byte	4
000069c8 01            10465 	.byte	1
000069c9 20            10466 	.byte	32
000069ca 44454d5f5354  10467 	.strz	"DEM_START_SEC_CODE "
000069d0 4152545f5345 
000069d6 435f434f4445 
000069dc 2000 
000069de 03            10468 	.byte	3
000069df 21            10469 	.byte	33
000069e0 12            10470 	.byte	18
000069e1 03            10471 	.byte	3
000069e2 08            10472 	.byte	8
000069e3 13            10473 	.byte	19
000069e4 01            10474 	.byte	1
000069e5 06            10475 	.byte	6
000069e6 44454d5f4d45  10476 	.strz	"DEM_MEMMAP_ERROR "
000069ec 4d4d41505f45 
000069f2 52524f522000 
000069f8 01            10477 	.byte	1
000069f9 51            10478 	.byte	81
000069fa 4253575f5354  10479 	.strz	"BSW_START_SEC_CODE "

                                                                      Page 264
                                                              C:\Users\nhuliyap\AppData\Local\Temp\gh_00008cs1.s
00006a00 4152545f5345 
00006a06 435f434f4445 
00006a0c 2000 
00006a0e 03            10480 	.byte	3
00006a0f 52            10481 	.byte	82
00006a10 14            10482 	.byte	20
00006a11 01            10483 	.byte	1
00006a12 e408          10484 	.byte	228,8
00006a14 53544152545f  10485 	.strz	"START_SEC_CODE "
00006a1a 5345435f434f 
00006a20 44452000 
00006a24 03            10486 	.byte	3
00006a25 c509          10487 	.byte	197,9
00006a27 15            10488 	.byte	21
00006a28 01            10489 	.byte	1
00006a29 f407          10490 	.byte	244,7
00006a2b 434f44455f53  10491 	.strz	"CODE_SEC_OPEN "
00006a31 45435f4f5045 
00006a37 4e2000 
00006a3a 04            10492 	.byte	4
00006a3b 04            10493 	.byte	4
00006a3c 01            10494 	.byte	1
00006a3d 56            10495 	.byte	86
00006a3e 44454d5f5741  10496 	.strz	"DEM_WAS_STARTED_SEC_CODE "
00006a44 535f53544152 
00006a4a 5445445f5345 
00006a50 435f434f4445 
00006a56 2000 
00006a58 04            10497 	.byte	4
00006a59 04            10498 	.byte	4
00006a5a 01            10499 	.byte	1
00006a5b d501          10500 	.byte	213,1
00006a5d 44454d5f5354  10501 	.strz	"DEM_STOP_SEC_CODE "
00006a63 4f505f534543 
00006a69 5f434f444520 
00006a6f 00 
00006a70 03            10502 	.byte	3
00006a71 d601          10503 	.byte	214,1
00006a73 12            10504 	.byte	18
00006a74 03            10505 	.byte	3
00006a75 08            10506 	.byte	8
00006a76 13            10507 	.byte	19
00006a77 01            10508 	.byte	1
00006a78 06            10509 	.byte	6
00006a79 44454d5f4d45  10510 	.strz	"DEM_MEMMAP_ERROR "
00006a7f 4d4d41505f45 
00006a85 52524f522000 
00006a8b 01            10511 	.byte	1
00006a8c 5e            10512 	.byte	94
00006a8d 4253575f5354  10513 	.strz	"BSW_STOP_SEC_CODE "
00006a93 4f505f534543 
00006a99 5f434f444520 
00006a9f 00 
00006aa0 03            10514 	.byte	3
00006aa1 5f            10515 	.byte	95
00006aa2 14            10516 	.byte	20
00006aa3 01            10517 	.byte	1
00006aa4 e808          10518 	.byte	232,8
00006aa6 53544f505f53  10519 	.strz	"STOP_SEC_CODE "
00006aac 45435f434f44 
00006ab2 452000 

                                                                      Page 265
                                                              C:\Users\nhuliyap\AppData\Local\Temp\gh_00008cs1.s
00006ab5 03            10520 	.byte	3
00006ab6 c509          10521 	.byte	197,9
00006ab8 15            10522 	.byte	21
00006ab9 04            10523 	.byte	4
00006aba 04            10524 	.byte	4
00006abb 04            10525 	.byte	4
00006abc 04            10526 	.byte	4
00006abd 01            10527 	.byte	1
00006abe d801          10528 	.byte	216,1
00006ac0 44454d5f5354  10529 	.strz	"DEM_START_SEC_CONST "
00006ac6 4152545f5345 
00006acc 435f434f4e53 
00006ad2 542000 
00006ad5 03            10530 	.byte	3
00006ad6 d901          10531 	.byte	217,1
00006ad8 12            10532 	.byte	18
00006ad9 03            10533 	.byte	3
00006ada 08            10534 	.byte	8
00006adb 13            10535 	.byte	19
00006adc 01            10536 	.byte	1
00006add 06            10537 	.byte	6
00006ade 44454d5f4d45  10538 	.strz	"DEM_MEMMAP_ERROR "
00006ae4 4d4d41505f45 
00006aea 52524f522000 
00006af0 01            10539 	.byte	1
00006af1 3a            10540 	.byte	58
00006af2 4253575f5354  10541 	.strz	"BSW_START_SEC_CONST_UNSPECIFIED "
00006af8 4152545f5345 
00006afe 435f434f4e53 
00006b04 545f554e5350 
00006b0a 454349464945 
00006b10 442000 
00006b13 03            10542 	.byte	3
00006b14 3b            10543 	.byte	59
00006b15 14            10544 	.byte	20
00006b16 01            10545 	.byte	1
00006b17 fa05          10546 	.byte	250,5
00006b19 53544152545f  10547 	.strz	"START_SEC_CONST_UNSPECIFIED "
00006b1f 5345435f434f 
00006b25 4e53545f554e 
00006b2b 535045434946 
00006b31 4945442000 
00006b36 03            10548 	.byte	3
00006b37 c509          10549 	.byte	197,9
00006b39 15            10550 	.byte	21
00006b3a 01            10551 	.byte	1
00006b3b b508          10552 	.byte	181,8
00006b3d 434f4e53545f  10553 	.strz	"CONST_SEC_OPEN "
00006b43 5345435f4f50 
00006b49 454e2000 
00006b4d 04            10554 	.byte	4
00006b4e 04            10555 	.byte	4
00006b4f 01            10556 	.byte	1
00006b50 3f            10557 	.byte	63
00006b51 44454d5f5741  10558 	.strz	"DEM_WAS_STARTED_SEC_CONST "
00006b57 535f53544152 
00006b5d 5445445f5345 
00006b63 435f434f4e53 
00006b69 542000 
00006b6c 04            10559 	.byte	4
00006b6d 04            10560 	.byte	4

                                                                      Page 266
                                                              C:\Users\nhuliyap\AppData\Local\Temp\gh_00008cs1.s
00006b6e 01            10561 	.byte	1
00006b6f db01          10562 	.byte	219,1
00006b71 44454d5f5354  10563 	.strz	"DEM_STOP_SEC_CONST "
00006b77 4f505f534543 
00006b7d 5f434f4e5354 
00006b83 2000 
00006b85 03            10564 	.byte	3
00006b86 dc01          10565 	.byte	220,1
00006b88 12            10566 	.byte	18
00006b89 03            10567 	.byte	3
00006b8a 08            10568 	.byte	8
00006b8b 13            10569 	.byte	19
00006b8c 01            10570 	.byte	1
00006b8d 06            10571 	.byte	6
00006b8e 44454d5f4d45  10572 	.strz	"DEM_MEMMAP_ERROR "
00006b94 4d4d41505f45 
00006b9a 52524f522000 
00006ba0 01            10573 	.byte	1
00006ba1 47            10574 	.byte	71
00006ba2 4253575f5354  10575 	.strz	"BSW_STOP_SEC_CONST_UNSPECIFIED "
00006ba8 4f505f534543 
00006bae 5f434f4e5354 
00006bb4 5f554e535045 
00006bba 434946494544 
00006bc0 2000 
00006bc2 03            10576 	.byte	3
00006bc3 48            10577 	.byte	72
00006bc4 14            10578 	.byte	20
00006bc5 01            10579 	.byte	1
00006bc6 fe05          10580 	.byte	254,5
00006bc8 53544f505f53  10581 	.strz	"STOP_SEC_CONST "
00006bce 45435f434f4e 
00006bd4 53542000 
00006bd8 03            10582 	.byte	3
00006bd9 c509          10583 	.byte	197,9
00006bdb 15            10584 	.byte	21
00006bdc 04            10585 	.byte	4
00006bdd 04            10586 	.byte	4
00006bde 04            10587 	.byte	4
00006bdf 04            10588 	.byte	4
00006be0 01            10589 	.byte	1
00006be1 de01          10590 	.byte	222,1
00006be3 44454d5f5354  10591 	.strz	"DEM_START_SEC_CODE "
00006be9 4152545f5345 
00006bef 435f434f4445 
00006bf5 2000 
00006bf7 03            10592 	.byte	3
00006bf8 df01          10593 	.byte	223,1
00006bfa 12            10594 	.byte	18
00006bfb 03            10595 	.byte	3
00006bfc 08            10596 	.byte	8
00006bfd 13            10597 	.byte	19
00006bfe 01            10598 	.byte	1
00006bff 06            10599 	.byte	6
00006c00 44454d5f4d45  10600 	.strz	"DEM_MEMMAP_ERROR "
00006c06 4d4d41505f45 
00006c0c 52524f522000 
00006c12 01            10601 	.byte	1
00006c13 51            10602 	.byte	81
00006c14 4253575f5354  10603 	.strz	"BSW_START_SEC_CODE "
00006c1a 4152545f5345 

                                                                      Page 267
                                                              C:\Users\nhuliyap\AppData\Local\Temp\gh_00008cs1.s
00006c20 435f434f4445 
00006c26 2000 
00006c28 03            10604 	.byte	3
00006c29 52            10605 	.byte	82
00006c2a 14            10606 	.byte	20
00006c2b 01            10607 	.byte	1
00006c2c e408          10608 	.byte	228,8
00006c2e 53544152545f  10609 	.strz	"START_SEC_CODE "
00006c34 5345435f434f 
00006c3a 44452000 
00006c3e 03            10610 	.byte	3
00006c3f c509          10611 	.byte	197,9
00006c41 15            10612 	.byte	21
00006c42 01            10613 	.byte	1
00006c43 f407          10614 	.byte	244,7
00006c45 434f44455f53  10615 	.strz	"CODE_SEC_OPEN "
00006c4b 45435f4f5045 
00006c51 4e2000 
00006c54 04            10616 	.byte	4
00006c55 04            10617 	.byte	4
00006c56 01            10618 	.byte	1
00006c57 56            10619 	.byte	86
00006c58 44454d5f5741  10620 	.strz	"DEM_WAS_STARTED_SEC_CODE "
00006c5e 535f53544152 
00006c64 5445445f5345 
00006c6a 435f434f4445 
00006c70 2000 
00006c72 04            10621 	.byte	4
00006c73 04            10622 	.byte	4
00006c74 01            10623 	.byte	1
00006c75 e301          10624 	.byte	227,1
00006c77 44454d5f5354  10625 	.strz	"DEM_STOP_SEC_CODE "
00006c7d 4f505f534543 
00006c83 5f434f444520 
00006c89 00 
00006c8a 03            10626 	.byte	3
00006c8b e401          10627 	.byte	228,1
00006c8d 12            10628 	.byte	18
00006c8e 03            10629 	.byte	3
00006c8f 08            10630 	.byte	8
00006c90 13            10631 	.byte	19
00006c91 01            10632 	.byte	1
00006c92 06            10633 	.byte	6
00006c93 44454d5f4d45  10634 	.strz	"DEM_MEMMAP_ERROR "
00006c99 4d4d41505f45 
00006c9f 52524f522000 
00006ca5 01            10635 	.byte	1
00006ca6 5e            10636 	.byte	94
00006ca7 4253575f5354  10637 	.strz	"BSW_STOP_SEC_CODE "
00006cad 4f505f534543 
00006cb3 5f434f444520 
00006cb9 00 
00006cba 03            10638 	.byte	3
00006cbb 5f            10639 	.byte	95
00006cbc 14            10640 	.byte	20
00006cbd 01            10641 	.byte	1
00006cbe e808          10642 	.byte	232,8
00006cc0 53544f505f53  10643 	.strz	"STOP_SEC_CODE "
00006cc6 45435f434f44 
00006ccc 452000 
00006ccf 03            10644 	.byte	3

                                                                      Page 268
                                                              C:\Users\nhuliyap\AppData\Local\Temp\gh_00008cs1.s
00006cd0 c509          10645 	.byte	197,9
00006cd2 15            10646 	.byte	21
00006cd3 04            10647 	.byte	4
00006cd4 04            10648 	.byte	4
00006cd5 04            10649 	.byte	4
00006cd6 04            10650 	.byte	4
00006cd7 04            10651 	.byte	4
00006cd8 03            10652 	.byte	3
00006cd9 09            10653 	.byte	9
00006cda 48            10654 	.byte	72
00006cdb 03            10655 	.byte	3
00006cdc 08            10656 	.byte	8
00006cdd 49            10657 	.byte	73
00006cde 03            10658 	.byte	3
00006cdf 08            10659 	.byte	8
00006ce0 4a            10660 	.byte	74
00006ce1 01            10661 	.byte	1
00006ce2 0d            10662 	.byte	13
00006ce3 44454d5f4f50  10663 	.strz	"DEM_OPMO_STATE_INITIALIZED 2"
00006ce9 4d4f5f535441 
00006cef 54455f494e49 
00006cf5 5449414c495a 
00006cfb 4544203200 
00006d00 01            10664 	.byte	1
00006d01 16            10665 	.byte	22
00006d02 44454d5f4649  10666 	.strz	"DEM_FIM_STATE_INITIALIZED 2"
00006d08 4d5f53544154 
00006d0e 455f494e4954 
00006d14 49414c495a45 
00006d1a 44203200 
00006d1e 01            10667 	.byte	1
00006d1f 18            10668 	.byte	24
00006d20 44454d5f5354  10669 	.strz	"DEM_START_SEC_VAR_INIT "
00006d26 4152545f5345 
00006d2c 435f5641525f 
00006d32 494e49542000 
00006d38 03            10670 	.byte	3
00006d39 19            10671 	.byte	25
00006d3a 12            10672 	.byte	18
00006d3b 03            10673 	.byte	3
00006d3c 08            10674 	.byte	8
00006d3d 13            10675 	.byte	19
00006d3e 01            10676 	.byte	1
00006d3f 06            10677 	.byte	6
00006d40 44454d5f4d45  10678 	.strz	"DEM_MEMMAP_ERROR "
00006d46 4d4d41505f45 
00006d4c 52524f522000 
00006d52 01            10679 	.byte	1
00006d53 23            10680 	.byte	35
00006d54 4253575f5354  10681 	.strz	"BSW_START_SEC_VAR_INIT_UNSPECIFIED "
00006d5a 4152545f5345 
00006d60 435f5641525f 
00006d66 494e49545f55 
00006d6c 4e5350454349 
00006d72 464945442000 
00006d78 03            10682 	.byte	3
00006d79 24            10683 	.byte	36
00006d7a 14            10684 	.byte	20
00006d7b 01            10685 	.byte	1
00006d7c 8601          10686 	.byte	134,1
00006d7e 53544152545f  10687 	.strz	"START_SEC_VAR_INIT_UNSPECIFIED "

                                                                      Page 269
                                                              C:\Users\nhuliyap\AppData\Local\Temp\gh_00008cs1.s
00006d84 5345435f5641 
00006d8a 525f494e4954 
00006d90 5f554e535045 
00006d96 434946494544 
00006d9c 2000 
00006d9e 03            10688 	.byte	3
00006d9f c509          10689 	.byte	197,9
00006da1 15            10690 	.byte	21
00006da2 01            10691 	.byte	1
00006da3 a209          10692 	.byte	162,9
00006da5 5641525f5345  10693 	.strz	"VAR_SEC_OPEN "
00006dab 435f4f50454e 
00006db1 2000 
00006db3 04            10694 	.byte	4
00006db4 04            10695 	.byte	4
00006db5 01            10696 	.byte	1
00006db6 28            10697 	.byte	40
00006db7 44454d5f5741  10698 	.strz	"DEM_WAS_STARTED_SEC_VAR_INIT "
00006dbd 535f53544152 
00006dc3 5445445f5345 
00006dc9 435f5641525f 
00006dcf 494e49542000 
00006dd5 04            10699 	.byte	4
00006dd6 04            10700 	.byte	4
00006dd7 01            10701 	.byte	1
00006dd8 1e            10702 	.byte	30
00006dd9 44454d5f5354  10703 	.strz	"DEM_STOP_SEC_VAR_INIT "
00006ddf 4f505f534543 
00006de5 5f5641525f49 
00006deb 4e49542000 
00006df0 03            10704 	.byte	3
00006df1 1f            10705 	.byte	31
00006df2 12            10706 	.byte	18
00006df3 03            10707 	.byte	3
00006df4 08            10708 	.byte	8
00006df5 13            10709 	.byte	19
00006df6 01            10710 	.byte	1
00006df7 06            10711 	.byte	6
00006df8 44454d5f4d45  10712 	.strz	"DEM_MEMMAP_ERROR "
00006dfe 4d4d41505f45 
00006e04 52524f522000 
00006e0a 01            10713 	.byte	1
00006e0b 30            10714 	.byte	48
00006e0c 4253575f5354  10715 	.strz	"BSW_STOP_SEC_VAR_INIT_UNSPECIFIED "
00006e12 4f505f534543 
00006e18 5f5641525f49 
00006e1e 4e49545f554e 
00006e24 535045434946 
00006e2a 4945442000 
00006e2f 03            10716 	.byte	3
00006e30 31            10717 	.byte	49
00006e31 14            10718 	.byte	20
00006e32 01            10719 	.byte	1
00006e33 8a01          10720 	.byte	138,1
00006e35 53544f505f53  10721 	.strz	"STOP_SEC_VAR "
00006e3b 45435f564152 
00006e41 2000 
00006e43 03            10722 	.byte	3
00006e44 c509          10723 	.byte	197,9
00006e46 15            10724 	.byte	21
00006e47 04            10725 	.byte	4

                                                                      Page 270
                                                              C:\Users\nhuliyap\AppData\Local\Temp\gh_00008cs1.s
00006e48 04            10726 	.byte	4
00006e49 04            10727 	.byte	4
00006e4a 04            10728 	.byte	4
00006e4b 04            10729 	.byte	4
00006e4c 03            10730 	.byte	3
00006e4d 0c            10731 	.byte	12
00006e4e 4b            10732 	.byte	75
00006e4f 03            10733 	.byte	3
00006e50 1b            10734 	.byte	27
00006e51 4c            10735 	.byte	76
00006e52 03            10736 	.byte	3
00006e53 06            10737 	.byte	6
00006e54 4d            10738 	.byte	77
00006e55 03            10739 	.byte	3
00006e56 44            10740 	.byte	68
00006e57 4e            10741 	.byte	78
00006e58 01            10742 	.byte	1
00006e59 17            10743 	.byte	23
00006e5a 505241474d41  10744 	.strz	"PRAGMA(x) _Pragma(#x)"
00006e60 287829205f50 
00006e66 7261676d6128 
00006e6c 23782900 
00006e70 01            10745 	.byte	1
00006e71 18            10746 	.byte	24
00006e72 5f5f52454144  10747 	.strz	"__READ volatile const"
00006e78 20766f6c6174 
00006e7e 696c6520636f 
00006e84 6e737400 
00006e88 01            10748 	.byte	1
00006e89 1a            10749 	.byte	26
00006e8a 5f5f52454144  10750 	.strz	"__READ_WRITE volatile"
00006e90 5f5752495445 
00006e96 20766f6c6174 
00006e9c 696c6500 
00006ea0 01            10751 	.byte	1
00006ea1 1c            10752 	.byte	28
00006ea2 5f5f494f5245  10753 	.strz	"__IOREG(reg,addr,attrib,type) PRAGMA(ghs io reg addr) extern attrib type reg;"
00006ea8 47287265672c 
00006eae 616464722c61 
00006eb4 74747269622c 
00006eba 747970652920 
00006ec0 505241474d41 
00006ec6 286768732069 
00006ecc 6f2072656720 
00006ed2 616464722920 
00006ed8 65787465726e 
00006ede 206174747269 
00006ee4 622074797065 
00006eea 207265673b00 
00006ef0 01            10754 	.byte	1
00006ef1 1f            10755 	.byte	31
00006ef2 5f5f494f5245  10756 	.strz	"__IOREGARRAY(reg,array,addr,attrib,type) PRAGMA(ghs io reg addr) extern attrib type reg[array];"
00006ef8 474152524159 
00006efe 287265672c61 
00006f04 727261792c61 
00006f0a 6464722c6174 
00006f10 747269622c74 
00006f16 797065292050 
00006f1c 5241474d4128 
00006f22 67687320696f 
00006f28 207265672061 

                                                                      Page 271
                                                              C:\Users\nhuliyap\AppData\Local\Temp\gh_00008cs1.s
00006f2e 646472292065 
00006f34 787465726e20 
00006f3a 617474726962 
00006f40 207479706520 
00006f46 7265675b6172 
00006f4c 7261795d3b00 
00006f52 04            10757 	.byte	4
00006f53 03            10758 	.byte	3
00006f54 45            10759 	.byte	69
00006f55 4f            10760 	.byte	79
00006f56 01            10761 	.byte	1
00006f57 08            10762 	.byte	8
00006f58 5f494e4c494e  10763 	.strz	"_INLINE_ __inline"
00006f5e 455f205f5f69 
00006f64 6e6c696e6500 
00006f6a 03            10764 	.byte	3
00006f6b 0b            10765 	.byte	11
00006f6c 50            10766 	.byte	80
00006f6d 01            10767 	.byte	1
00006f6e 0f            10768 	.byte	15
00006f6f 5f5f41545452  10769 	.strz	"__ATTRIBUTE(x) __attribute__(x)"
00006f75 494255544528 
00006f7b 7829205f5f61 
00006f81 747472696275 
00006f87 74655f5f2878 
00006f8d 2900 
00006f8f 01            10770 	.byte	1
00006f90 74            10771 	.byte	116
00006f91 5f5f47455453  10772 	.strz	"__GETSP_macro() asm (\"mov sp, %0\" : \"=r\" (result));"
00006f97 505f6d616372 
00006f9d 6f2829206173 
00006fa3 6d2028226d6f 
00006fa9 762073702c20 
00006faf 253022203a20 
00006fb5 223d72222028 
00006fbb 726573756c74 
00006fc1 29293b00 
00006fc5 04            10773 	.byte	4
00006fc6 01            10774 	.byte	1
00006fc7 14            10775 	.byte	20
00006fc8 7533325f5420  10776 	.strz	"u32_T unsigned long"
00006fce 756e7369676e 
00006fd4 6564206c6f6e 
00006fda 6700 
00006fdc 01            10777 	.byte	1
00006fdd c402          10778 	.byte	196,2
00006fdf 50535720352c  10779 	.strz	"PSW 5, 0"
00006fe5 203000 
00006fe8 01            10780 	.byte	1
00006fe9 ce02          10781 	.byte	206,2
00006feb 4d4346473020  10782 	.strz	"MCFG0 0, 1"
00006ff1 302c203100 
00006ff6 01            10783 	.byte	1
00006ff7 d002          10784 	.byte	208,2
00006ff9 454241534520  10785 	.strz	"EBASE 3, 1"
00006fff 332c203100 
00007004 01            10786 	.byte	1
00007005 d102          10787 	.byte	209,2
00007007 494e54425020  10788 	.strz	"INTBP 4, 1"
0000700d 342c203100 
00007012 01            10789 	.byte	1

                                                                      Page 272
                                                              C:\Users\nhuliyap\AppData\Local\Temp\gh_00008cs1.s
00007013 d202          10790 	.byte	210,2
00007015 4d43544c2035  10791 	.strz	"MCTL 5, 1"
0000701b 2c203100 
0000701f 01            10792 	.byte	1
00007020 d402          10793 	.byte	212,2
00007022 534343464720  10794 	.strz	"SCCFG 11, 1"
00007028 31312c203100 
0000702e 01            10795 	.byte	1
0000702f d902          10796 	.byte	217,2
00007031 415349442037  10797 	.strz	"ASID 7, 2"
00007037 2c203200 
0000703b 01            10798 	.byte	1
0000703c db02          10799 	.byte	219,2
0000703e 495350522031  10800 	.strz	"ISPR 10, 2"
00007044 302c203200 
00007049 01            10801 	.byte	1
0000704a dc02          10802 	.byte	220,2
0000704c 504d52203131  10803 	.strz	"PMR 11, 2"
00007052 2c203200 
00007056 01            10804 	.byte	1
00007057 dd02          10805 	.byte	221,2
00007059 494353522031  10806 	.strz	"ICSR 12, 2"
0000705f 322c203200 
00007064 01            10807 	.byte	1
00007065 de02          10808 	.byte	222,2
00007067 494e54434647  10809 	.strz	"INTCFG 13, 2"
0000706d 2031332c2032 
00007073 00 
00007074 01            10810 	.byte	1
00007075 e002          10811 	.byte	224,2
00007077 4d504d20302c  10812 	.strz	"MPM 0, 5"
0000707d 203500 
00007080 01            10813 	.byte	1
00007081 e102          10814 	.byte	225,2
00007083 4d5052432031  10815 	.strz	"MPRC 1, 5"
00007089 2c203500 
0000708d 01            10816 	.byte	1
0000708e e202          10817 	.byte	226,2
00007090 4d504252474e  10818 	.strz	"MPBRGN 4, 5"
00007096 20342c203500 
0000709c 01            10819 	.byte	1
0000709d e302          10820 	.byte	227,2
0000709f 4d505452474e  10821 	.strz	"MPTRGN 5, 5"
000070a5 20352c203500 
000070ab 01            10822 	.byte	1
000070ac e402          10823 	.byte	228,2
000070ae 4d434120382c  10824 	.strz	"MCA 8, 5"
000070b4 203500 
000070b7 01            10825 	.byte	1
000070b8 e502          10826 	.byte	229,2
000070ba 4d435320392c  10827 	.strz	"MCS 9, 5"
000070c0 203500 
000070c3 01            10828 	.byte	1
000070c4 e602          10829 	.byte	230,2
000070c6 4d4343203130  10830 	.strz	"MCC 10, 5"
000070cc 2c203500 
000070d0 01            10831 	.byte	1
000070d1 e702          10832 	.byte	231,2
000070d3 4d4352203131  10833 	.strz	"MCR 11, 5"
000070d9 2c203500 
000070dd 01            10834 	.byte	1

                                                                      Page 273
                                                              C:\Users\nhuliyap\AppData\Local\Temp\gh_00008cs1.s
000070de e902          10835 	.byte	233,2
000070e0 4d504c413020  10836 	.strz	"MPLA0 0, 6"
000070e6 302c203600 
000070eb 01            10837 	.byte	1
000070ec ea02          10838 	.byte	234,2
000070ee 4d5055413020  10839 	.strz	"MPUA0 1, 6"
000070f4 312c203600 
000070f9 01            10840 	.byte	1
000070fa eb02          10841 	.byte	235,2
000070fc 4d5041543020  10842 	.strz	"MPAT0 2, 6"
00007102 322c203600 
00007107 01            10843 	.byte	1
00007108 ec02          10844 	.byte	236,2
0000710a 4d504c413120  10845 	.strz	"MPLA1 4, 6"
00007110 342c203600 
00007115 01            10846 	.byte	1
00007116 ed02          10847 	.byte	237,2
00007118 4d5055413120  10848 	.strz	"MPUA1 5, 6"
0000711e 352c203600 
00007123 01            10849 	.byte	1
00007124 ee02          10850 	.byte	238,2
00007126 4d5041543120  10851 	.strz	"MPAT1 6, 6"
0000712c 362c203600 
00007131 01            10852 	.byte	1
00007132 ef02          10853 	.byte	239,2
00007134 4d504c413220  10854 	.strz	"MPLA2 8, 6"
0000713a 382c203600 
0000713f 01            10855 	.byte	1
00007140 f002          10856 	.byte	240,2
00007142 4d5055413220  10857 	.strz	"MPUA2 9, 6"
00007148 392c203600 
0000714d 01            10858 	.byte	1
0000714e f102          10859 	.byte	241,2
00007150 4d5041543220  10860 	.strz	"MPAT2 10, 6"
00007156 31302c203600 
0000715c 01            10861 	.byte	1
0000715d f202          10862 	.byte	242,2
0000715f 4d504c413320  10863 	.strz	"MPLA3 12, 6"
00007165 31322c203600 
0000716b 01            10864 	.byte	1
0000716c f302          10865 	.byte	243,2
0000716e 4d5055413320  10866 	.strz	"MPUA3 13, 6"
00007174 31332c203600 
0000717a 01            10867 	.byte	1
0000717b f402          10868 	.byte	244,2
0000717d 4d5041543320  10869 	.strz	"MPAT3 14, 6"
00007183 31342c203600 
00007189 01            10870 	.byte	1
0000718a f502          10871 	.byte	245,2
0000718c 4d504c413420  10872 	.strz	"MPLA4 16, 6"
00007192 31362c203600 
00007198 01            10873 	.byte	1
00007199 f602          10874 	.byte	246,2
0000719b 4d5055413420  10875 	.strz	"MPUA4 17, 6"
000071a1 31372c203600 
000071a7 01            10876 	.byte	1
000071a8 f702          10877 	.byte	247,2
000071aa 4d5041543420  10878 	.strz	"MPAT4 18, 6"
000071b0 31382c203600 
000071b6 01            10879 	.byte	1
000071b7 f802          10880 	.byte	248,2

                                                                      Page 274
                                                              C:\Users\nhuliyap\AppData\Local\Temp\gh_00008cs1.s
000071b9 4d504c413520  10881 	.strz	"MPLA5 20, 6"
000071bf 32302c203600 
000071c5 01            10882 	.byte	1
000071c6 f902          10883 	.byte	249,2
000071c8 4d5055413520  10884 	.strz	"MPUA5 21, 6"
000071ce 32312c203600 
000071d4 01            10885 	.byte	1
000071d5 fa02          10886 	.byte	250,2
000071d7 4d5041543520  10887 	.strz	"MPAT5 22, 6"
000071dd 32322c203600 
000071e3 01            10888 	.byte	1
000071e4 fb02          10889 	.byte	251,2
000071e6 4d504c413620  10890 	.strz	"MPLA6 24, 6"
000071ec 32342c203600 
000071f2 01            10891 	.byte	1
000071f3 fc02          10892 	.byte	252,2
000071f5 4d5055413620  10893 	.strz	"MPUA6 25, 6"
000071fb 32352c203600 
00007201 01            10894 	.byte	1
00007202 fd02          10895 	.byte	253,2
00007204 4d5041543620  10896 	.strz	"MPAT6 26, 6"
0000720a 32362c203600 
00007210 01            10897 	.byte	1
00007211 fe02          10898 	.byte	254,2
00007213 4d4c55413720  10899 	.strz	"MLUA7 28, 6"
00007219 32382c203600 
0000721f 01            10900 	.byte	1
00007220 ff02          10901 	.byte	255,2
00007222 4d5055413720  10902 	.strz	"MPUA7 29, 6"
00007228 32392c203600 
0000722e 01            10903 	.byte	1
0000722f 8003          10904 	.byte	128,3
00007231 4d5041543720  10905 	.strz	"MPAT7 30, 6"
00007237 33302c203600 
0000723d 01            10906 	.byte	1
0000723e 8103          10907 	.byte	129,3
00007240 4d504c413820  10908 	.strz	"MPLA8 0, 7"
00007246 302c203700 
0000724b 01            10909 	.byte	1
0000724c 8203          10910 	.byte	130,3
0000724e 4d5055413820  10911 	.strz	"MPUA8 1, 7"
00007254 312c203700 
00007259 01            10912 	.byte	1
0000725a 8303          10913 	.byte	131,3
0000725c 4d5041543820  10914 	.strz	"MPAT8 2, 7"
00007262 322c203700 
00007267 01            10915 	.byte	1
00007268 8403          10916 	.byte	132,3
0000726a 4d504c413920  10917 	.strz	"MPLA9 4, 7"
00007270 342c203700 
00007275 01            10918 	.byte	1
00007276 8503          10919 	.byte	133,3
00007278 4d5055413920  10920 	.strz	"MPUA9 5, 7"
0000727e 352c203700 
00007283 01            10921 	.byte	1
00007284 8603          10922 	.byte	134,3
00007286 4d5041543920  10923 	.strz	"MPAT9 6, 7"
0000728c 362c203700 
00007291 01            10924 	.byte	1
00007292 8703          10925 	.byte	135,3
00007294 4d504c413130  10926 	.strz	"MPLA10 8, 7"

                                                                      Page 275
                                                              C:\Users\nhuliyap\AppData\Local\Temp\gh_00008cs1.s
0000729a 20382c203700 
000072a0 01            10927 	.byte	1
000072a1 8803          10928 	.byte	136,3
000072a3 4d5055413130  10929 	.strz	"MPUA10 9, 7"
000072a9 20392c203700 
000072af 01            10930 	.byte	1
000072b0 8903          10931 	.byte	137,3
000072b2 4d5041543130  10932 	.strz	"MPAT10 10, 7"
000072b8 2031302c2037 
000072be 00 
000072bf 01            10933 	.byte	1
000072c0 8a03          10934 	.byte	138,3
000072c2 4d504c413131  10935 	.strz	"MPLA11 12, 7"
000072c8 2031322c2037 
000072ce 00 
000072cf 01            10936 	.byte	1
000072d0 8b03          10937 	.byte	139,3
000072d2 4d5055413131  10938 	.strz	"MPUA11 13, 7"
000072d8 2031332c2037 
000072de 00 
000072df 01            10939 	.byte	1
000072e0 8c03          10940 	.byte	140,3
000072e2 4d5041543131  10941 	.strz	"MPAT11 14, 7"
000072e8 2031342c2037 
000072ee 00 
000072ef 01            10942 	.byte	1
000072f0 8d03          10943 	.byte	141,3
000072f2 4d504c413132  10944 	.strz	"MPLA12 16, 7"
000072f8 2031362c2037 
000072fe 00 
000072ff 01            10945 	.byte	1
00007300 8e03          10946 	.byte	142,3
00007302 4d5055413132  10947 	.strz	"MPUA12 17, 7"
00007308 2031372c2037 
0000730e 00 
0000730f 01            10948 	.byte	1
00007310 8f03          10949 	.byte	143,3
00007312 4d5041543132  10950 	.strz	"MPAT12 18, 7"
00007318 2031382c2037 
0000731e 00 
0000731f 01            10951 	.byte	1
00007320 9003          10952 	.byte	144,3
00007322 4d504c413133  10953 	.strz	"MPLA13 20, 7"
00007328 2032302c2037 
0000732e 00 
0000732f 01            10954 	.byte	1
00007330 9103          10955 	.byte	145,3
00007332 4d5055413133  10956 	.strz	"MPUA13 21, 7"
00007338 2032312c2037 
0000733e 00 
0000733f 01            10957 	.byte	1
00007340 9203          10958 	.byte	146,3
00007342 4d5041543133  10959 	.strz	"MPAT13 22, 7"
00007348 2032322c2037 
0000734e 00 
0000734f 01            10960 	.byte	1
00007350 9303          10961 	.byte	147,3
00007352 4d504c413134  10962 	.strz	"MPLA14 24, 7"
00007358 2032342c2037 
0000735e 00 
0000735f 01            10963 	.byte	1

                                                                      Page 276
                                                              C:\Users\nhuliyap\AppData\Local\Temp\gh_00008cs1.s
00007360 9403          10964 	.byte	148,3
00007362 4d5055413134  10965 	.strz	"MPUA14 25, 7"
00007368 2032352c2037 
0000736e 00 
0000736f 01            10966 	.byte	1
00007370 9503          10967 	.byte	149,3
00007372 4d5041543134  10968 	.strz	"MPAT14 26, 7"
00007378 2032362c2037 
0000737e 00 
0000737f 01            10969 	.byte	1
00007380 9603          10970 	.byte	150,3
00007382 4d504c413135  10971 	.strz	"MPLA15 28, 7"
00007388 2032382c2037 
0000738e 00 
0000738f 01            10972 	.byte	1
00007390 9703          10973 	.byte	151,3
00007392 4d5055413135  10974 	.strz	"MPUA15 29, 7"
00007398 2032392c2037 
0000739e 00 
0000739f 01            10975 	.byte	1
000073a0 9803          10976 	.byte	152,3
000073a2 4d5041543135  10977 	.strz	"MPAT15 30, 7"
000073a8 2033302c2037 
000073ae 00 
000073af 04            10978 	.byte	4
000073b0 04            10979 	.byte	4
000073b1 04            10980 	.byte	4
000073b2 01            10981 	.byte	1
000073b3 24            10982 	.byte	36
000073b4 5363684d5f45  10983 	.strz	"SchM_Enter_Dem_Monitoring() do { SCHM_ENTER_DEFAULT(); }while(0)"
000073ba 6e7465725f44 
000073c0 656d5f4d6f6e 
000073c6 69746f72696e 
000073cc 67282920646f 
000073d2 207b20534348 
000073d8 4d5f454e5445 
000073de 525f44454641 
000073e4 554c5428293b 
000073ea 207d7768696c 
000073f0 6528302900 
000073f5 01            10984 	.byte	1
000073f6 25            10985 	.byte	37
000073f7 5363684d5f45  10986 	.strz	"SchM_Exit_Dem_Monitoring() do { SCHM_EXIT_DEFAULT(); }while(0)"
000073fd 7869745f4465 
00007403 6d5f4d6f6e69 
00007409 746f72696e67 
0000740f 282920646f20 
00007415 7b205343484d 
0000741b 5f455849545f 
00007421 44454641554c 
00007427 5428293b207d 
0000742d 7768696c6528 
00007433 302900 
00007436 04            10987 	.byte	4
00007437 01            10988 	.byte	1
00007438 0e            10989 	.byte	14
00007439 44454d5f454e  10990 	.strz	"DEM_ENTERLOCK_MON() SchM_Enter_Dem_Monitoring()"
0000743f 5445524c4f43 
00007445 4b5f4d4f4e28 
0000744b 29205363684d 
00007451 5f456e746572 

                                                                      Page 277
                                                              C:\Users\nhuliyap\AppData\Local\Temp\gh_00008cs1.s
00007457 5f44656d5f4d 
0000745d 6f6e69746f72 
00007463 696e67282900 
00007469 01            10991 	.byte	1
0000746a 0f            10992 	.byte	15
0000746b 44454d5f4558  10993 	.strz	"DEM_EXITLOCK_MON() SchM_Exit_Dem_Monitoring()"
00007471 49544c4f434b 
00007477 5f4d4f4e2829 
0000747d 205363684d5f 
00007483 457869745f44 
00007489 656d5f4d6f6e 
0000748f 69746f72696e 
00007495 67282900 
00007499 01            10994 	.byte	1
0000749a 14            10995 	.byte	20
0000749b 44454d5f4153  10996 	.strz	"DEM_ASSERT_ISLOCKED() do {}while(0)"
000074a1 534552545f49 
000074a7 534c4f434b45 
000074ad 44282920646f 
000074b3 207b7d776869 
000074b9 6c6528302900 
000074bf 04            10997 	.byte	4
000074c0 01            10998 	.byte	1
000074c1 0a            10999 	.byte	10
000074c2 44454d5f4249  11000 	.strz	"DEM_BITARRAY_DATAELEMENTS(BITCOUNT) ((((BITCOUNT)-1u) >> 5u)+1UL)"
000074c8 544152524159 
000074ce 5f4441544145 
000074d4 4c454d454e54 
000074da 532842495443 
000074e0 4f554e542920 
000074e6 282828284249 
000074ec 54434f554e54 
000074f2 292d31752920 
000074f8 3e3e20357529 
000074fe 2b31554c2900 
00007504 01            11001 	.byte	1
00007505 0c            11002 	.byte	12
00007506 44454d5f4249  11003 	.strz	"DEM_BITARRAY_DECLARE(VARNAME,BITCOUNT) DEM_ARRAY_DECLARE(uint32, VARNAME, DEM_BITARRAY_DATAELEMENTS(BITCOUNT))"
0000750c 544152524159 
00007512 5f4445434c41 
00007518 524528564152 
0000751e 4e414d452c42 
00007524 4954434f554e 
0000752a 54292044454d 
00007530 5f4152524159 
00007536 5f4445434c41 
0000753c 52452875696e 
00007542 7433322c2056 
00007548 41524e414d45 
0000754e 2c2044454d5f 
00007554 424954415252 
0000755a 41595f444154 
00007560 41454c454d45 
00007566 4e5453284249 
0000756c 54434f554e54 
00007572 292900 
00007575 01            11004 	.byte	1
00007576 11            11005 	.byte	17
00007577 44454d5f4249  11006 	.strz	"DEM_BITARRAY_FUNCPARAM(VARNAME) DEM_ARRAY_FUNCPARAM(uint32,VARNAME)"
0000757d 544152524159 
00007583 5f46554e4350 

                                                                      Page 278
                                                              C:\Users\nhuliyap\AppData\Local\Temp\gh_00008cs1.s
00007589 4152414d2856 
0000758f 41524e414d45 
00007595 292044454d5f 
0000759b 41525241595f 
000075a1 46554e435041 
000075a7 52414d287569 
000075ad 6e7433322c56 
000075b3 41524e414d45 
000075b9 2900 
000075bb 01            11007 	.byte	1
000075bc 12            11008 	.byte	18
000075bd 44454d5f4249  11009 	.strz	"DEM_BITARRAY_CONSTFUNCPARAM(VARNAME) DEM_ARRAY_CONSTFUNCPARAM(uint32,VARNAME)"
000075c3 544152524159 
000075c9 5f434f4e5354 
000075cf 46554e435041 
000075d5 52414d285641 
000075db 524e414d4529 
000075e1 2044454d5f41 
000075e7 525241595f43 
000075ed 4f4e53544655 
000075f3 4e4350415241 
000075f9 4d2875696e74 
000075ff 33322c564152 
00007605 4e414d452900 
0000760b 01            11010 	.byte	1
0000760c 14            11011 	.byte	20
0000760d 44454d5f4249  11012 	.strz	"DEM_BITARRAY_ELEMENT_BITSIZE (DEM_SIZEOF_TYPE(uint32) * 8u)"
00007613 544152524159 
00007619 5f454c454d45 
0000761f 4e545f424954 
00007625 53495a452028 
0000762b 44454d5f5349 
00007631 5a454f465f54 
00007637 595045287569 
0000763d 6e7433322920 
00007643 2a2038752900 
00007649 04            11013 	.byte	4
0000764a 03            11014 	.byte	3
0000764b 0f            11015 	.byte	15
0000764c 51            11016 	.byte	81
0000764d 03            11017 	.byte	3
0000764e 09            11018 	.byte	9
0000764f 52            11019 	.byte	82
00007650 03            11020 	.byte	3
00007651 0c            11021 	.byte	12
00007652 53            11022 	.byte	83
00007653 04            11023 	.byte	4
00007654 01            11024 	.byte	1
00007655 16            11025 	.byte	22
00007656 44454d5f4556  11026 	.strz	"DEM_EVENTIDITERATORNEW 1"
0000765c 454e54494449 
00007662 54455241544f 
00007668 524e45572031 
0000766e 00 
0000766f 01            11027 	.byte	1
00007670 73            11028 	.byte	115
00007671 44454d5f5354  11029 	.strz	"DEM_START_SEC_CONST "
00007677 4152545f5345 
0000767d 435f434f4e53 
00007683 542000 
00007686 03            11030 	.byte	3

                                                                      Page 279
                                                              C:\Users\nhuliyap\AppData\Local\Temp\gh_00008cs1.s
00007687 74            11031 	.byte	116
00007688 12            11032 	.byte	18
00007689 03            11033 	.byte	3
0000768a 08            11034 	.byte	8
0000768b 13            11035 	.byte	19
0000768c 01            11036 	.byte	1
0000768d 06            11037 	.byte	6
0000768e 44454d5f4d45  11038 	.strz	"DEM_MEMMAP_ERROR "
00007694 4d4d41505f45 
0000769a 52524f522000 
000076a0 01            11039 	.byte	1
000076a1 3a            11040 	.byte	58
000076a2 4253575f5354  11041 	.strz	"BSW_START_SEC_CONST_UNSPECIFIED "
000076a8 4152545f5345 
000076ae 435f434f4e53 
000076b4 545f554e5350 
000076ba 454349464945 
000076c0 442000 
000076c3 03            11042 	.byte	3
000076c4 3b            11043 	.byte	59
000076c5 14            11044 	.byte	20
000076c6 01            11045 	.byte	1
000076c7 fa05          11046 	.byte	250,5
000076c9 53544152545f  11047 	.strz	"START_SEC_CONST_UNSPECIFIED "
000076cf 5345435f434f 
000076d5 4e53545f554e 
000076db 535045434946 
000076e1 4945442000 
000076e6 03            11048 	.byte	3
000076e7 c509          11049 	.byte	197,9
000076e9 15            11050 	.byte	21
000076ea 01            11051 	.byte	1
000076eb b508          11052 	.byte	181,8
000076ed 434f4e53545f  11053 	.strz	"CONST_SEC_OPEN "
000076f3 5345435f4f50 
000076f9 454e2000 
000076fd 04            11054 	.byte	4
000076fe 04            11055 	.byte	4
000076ff 01            11056 	.byte	1
00007700 3f            11057 	.byte	63
00007701 44454d5f5741  11058 	.strz	"DEM_WAS_STARTED_SEC_CONST "
00007707 535f53544152 
0000770d 5445445f5345 
00007713 435f434f4e53 
00007719 542000 
0000771c 04            11059 	.byte	4
0000771d 04            11060 	.byte	4
0000771e 01            11061 	.byte	1
0000771f 77            11062 	.byte	119
00007720 44454d5f5354  11063 	.strz	"DEM_STOP_SEC_CONST "
00007726 4f505f534543 
0000772c 5f434f4e5354 
00007732 2000 
00007734 03            11064 	.byte	3
00007735 78            11065 	.byte	120
00007736 12            11066 	.byte	18
00007737 03            11067 	.byte	3
00007738 08            11068 	.byte	8
00007739 13            11069 	.byte	19
0000773a 01            11070 	.byte	1
0000773b 06            11071 	.byte	6

                                                                      Page 280
                                                              C:\Users\nhuliyap\AppData\Local\Temp\gh_00008cs1.s
0000773c 44454d5f4d45  11072 	.strz	"DEM_MEMMAP_ERROR "
00007742 4d4d41505f45 
00007748 52524f522000 
0000774e 01            11073 	.byte	1
0000774f 47            11074 	.byte	71
00007750 4253575f5354  11075 	.strz	"BSW_STOP_SEC_CONST_UNSPECIFIED "
00007756 4f505f534543 
0000775c 5f434f4e5354 
00007762 5f554e535045 
00007768 434946494544 
0000776e 2000 
00007770 03            11076 	.byte	3
00007771 48            11077 	.byte	72
00007772 14            11078 	.byte	20
00007773 01            11079 	.byte	1
00007774 fe05          11080 	.byte	254,5
00007776 53544f505f53  11081 	.strz	"STOP_SEC_CONST "
0000777c 45435f434f4e 
00007782 53542000 
00007786 03            11082 	.byte	3
00007787 c509          11083 	.byte	197,9
00007789 15            11084 	.byte	21
0000778a 04            11085 	.byte	4
0000778b 04            11086 	.byte	4
0000778c 04            11087 	.byte	4
0000778d 04            11088 	.byte	4
0000778e 01            11089 	.byte	1
0000778f a701          11090 	.byte	167,1
00007791 44454d5f4454  11091 	.strz	"DEM_DTCIDITERATOR_NEW() 1"
00007797 434944495445 
0000779d 5241544f525f 
000077a3 4e4557282920 
000077a9 3100 
000077ab 01            11092 	.byte	1
000077ac c301          11093 	.byte	195,1
000077ae 44454d5f4454  11094 	.strz	"DEM_DTCGROUPIDITERATOR_NEW() 1"
000077b4 4347524f5550 
000077ba 494449544552 
000077c0 41544f525f4e 
000077c6 455728292031 
000077cc 00 
000077cd 01            11095 	.byte	1
000077ce ad02          11096 	.byte	173,2
000077d0 44454d5f5354  11097 	.strz	"DEM_START_SEC_CONST "
000077d6 4152545f5345 
000077dc 435f434f4e53 
000077e2 542000 
000077e5 03            11098 	.byte	3
000077e6 ae02          11099 	.byte	174,2
000077e8 12            11100 	.byte	18
000077e9 03            11101 	.byte	3
000077ea 08            11102 	.byte	8
000077eb 13            11103 	.byte	19
000077ec 01            11104 	.byte	1
000077ed 06            11105 	.byte	6
000077ee 44454d5f4d45  11106 	.strz	"DEM_MEMMAP_ERROR "
000077f4 4d4d41505f45 
000077fa 52524f522000 
00007800 01            11107 	.byte	1
00007801 3a            11108 	.byte	58
00007802 4253575f5354  11109 	.strz	"BSW_START_SEC_CONST_UNSPECIFIED "

                                                                      Page 281
                                                              C:\Users\nhuliyap\AppData\Local\Temp\gh_00008cs1.s
00007808 4152545f5345 
0000780e 435f434f4e53 
00007814 545f554e5350 
0000781a 454349464945 
00007820 442000 
00007823 03            11110 	.byte	3
00007824 3b            11111 	.byte	59
00007825 14            11112 	.byte	20
00007826 01            11113 	.byte	1
00007827 fa05          11114 	.byte	250,5
00007829 53544152545f  11115 	.strz	"START_SEC_CONST_UNSPECIFIED "
0000782f 5345435f434f 
00007835 4e53545f554e 
0000783b 535045434946 
00007841 4945442000 
00007846 03            11116 	.byte	3
00007847 c509          11117 	.byte	197,9
00007849 15            11118 	.byte	21
0000784a 01            11119 	.byte	1
0000784b b508          11120 	.byte	181,8
0000784d 434f4e53545f  11121 	.strz	"CONST_SEC_OPEN "
00007853 5345435f4f50 
00007859 454e2000 
0000785d 04            11122 	.byte	4
0000785e 04            11123 	.byte	4
0000785f 01            11124 	.byte	1
00007860 3f            11125 	.byte	63
00007861 44454d5f5741  11126 	.strz	"DEM_WAS_STARTED_SEC_CONST "
00007867 535f53544152 
0000786d 5445445f5345 
00007873 435f434f4e53 
00007879 542000 
0000787c 04            11127 	.byte	4
0000787d 04            11128 	.byte	4
0000787e 01            11129 	.byte	1
0000787f b002          11130 	.byte	176,2
00007881 44454d5f5354  11131 	.strz	"DEM_STOP_SEC_CONST "
00007887 4f505f534543 
0000788d 5f434f4e5354 
00007893 2000 
00007895 03            11132 	.byte	3
00007896 b102          11133 	.byte	177,2
00007898 12            11134 	.byte	18
00007899 03            11135 	.byte	3
0000789a 08            11136 	.byte	8
0000789b 13            11137 	.byte	19
0000789c 01            11138 	.byte	1
0000789d 06            11139 	.byte	6
0000789e 44454d5f4d45  11140 	.strz	"DEM_MEMMAP_ERROR "
000078a4 4d4d41505f45 
000078aa 52524f522000 
000078b0 01            11141 	.byte	1
000078b1 47            11142 	.byte	71
000078b2 4253575f5354  11143 	.strz	"BSW_STOP_SEC_CONST_UNSPECIFIED "
000078b8 4f505f534543 
000078be 5f434f4e5354 
000078c4 5f554e535045 
000078ca 434946494544 
000078d0 2000 
000078d2 03            11144 	.byte	3
000078d3 48            11145 	.byte	72

                                                                      Page 282
                                                              C:\Users\nhuliyap\AppData\Local\Temp\gh_00008cs1.s
000078d4 14            11146 	.byte	20
000078d5 01            11147 	.byte	1
000078d6 fe05          11148 	.byte	254,5
000078d8 53544f505f53  11149 	.strz	"STOP_SEC_CONST "
000078de 45435f434f4e 
000078e4 53542000 
000078e8 03            11150 	.byte	3
000078e9 c509          11151 	.byte	197,9
000078eb 15            11152 	.byte	21
000078ec 04            11153 	.byte	4
000078ed 04            11154 	.byte	4
000078ee 04            11155 	.byte	4
000078ef 04            11156 	.byte	4
000078f0 04            11157 	.byte	4
000078f1 01            11158 	.byte	1
000078f2 0b            11159 	.byte	11
000078f3 44454d5f5354  11160 	.strz	"DEM_START_SEC_CODE "
000078f9 4152545f5345 
000078ff 435f434f4445 
00007905 2000 
00007907 03            11161 	.byte	3
00007908 0c            11162 	.byte	12
00007909 12            11163 	.byte	18
0000790a 03            11164 	.byte	3
0000790b 08            11165 	.byte	8
0000790c 13            11166 	.byte	19
0000790d 01            11167 	.byte	1
0000790e 06            11168 	.byte	6
0000790f 44454d5f4d45  11169 	.strz	"DEM_MEMMAP_ERROR "
00007915 4d4d41505f45 
0000791b 52524f522000 
00007921 01            11170 	.byte	1
00007922 51            11171 	.byte	81
00007923 4253575f5354  11172 	.strz	"BSW_START_SEC_CODE "
00007929 4152545f5345 
0000792f 435f434f4445 
00007935 2000 
00007937 03            11173 	.byte	3
00007938 52            11174 	.byte	82
00007939 14            11175 	.byte	20
0000793a 01            11176 	.byte	1
0000793b e408          11177 	.byte	228,8
0000793d 53544152545f  11178 	.strz	"START_SEC_CODE "
00007943 5345435f434f 
00007949 44452000 
0000794d 03            11179 	.byte	3
0000794e c509          11180 	.byte	197,9
00007950 15            11181 	.byte	21
00007951 01            11182 	.byte	1
00007952 f407          11183 	.byte	244,7
00007954 434f44455f53  11184 	.strz	"CODE_SEC_OPEN "
0000795a 45435f4f5045 
00007960 4e2000 
00007963 04            11185 	.byte	4
00007964 04            11186 	.byte	4
00007965 01            11187 	.byte	1
00007966 56            11188 	.byte	86
00007967 44454d5f5741  11189 	.strz	"DEM_WAS_STARTED_SEC_CODE "
0000796d 535f53544152 
00007973 5445445f5345 
00007979 435f434f4445 

                                                                      Page 283
                                                              C:\Users\nhuliyap\AppData\Local\Temp\gh_00008cs1.s
0000797f 2000 
00007981 04            11190 	.byte	4
00007982 04            11191 	.byte	4
00007983 01            11192 	.byte	1
00007984 11            11193 	.byte	17
00007985 44454d5f5354  11194 	.strz	"DEM_STOP_SEC_CODE "
0000798b 4f505f534543 
00007991 5f434f444520 
00007997 00 
00007998 03            11195 	.byte	3
00007999 12            11196 	.byte	18
0000799a 12            11197 	.byte	18
0000799b 03            11198 	.byte	3
0000799c 08            11199 	.byte	8
0000799d 13            11200 	.byte	19
0000799e 01            11201 	.byte	1
0000799f 06            11202 	.byte	6
000079a0 44454d5f4d45  11203 	.strz	"DEM_MEMMAP_ERROR "
000079a6 4d4d41505f45 
000079ac 52524f522000 
000079b2 01            11204 	.byte	1
000079b3 5e            11205 	.byte	94
000079b4 4253575f5354  11206 	.strz	"BSW_STOP_SEC_CODE "
000079ba 4f505f534543 
000079c0 5f434f444520 
000079c6 00 
000079c7 03            11207 	.byte	3
000079c8 5f            11208 	.byte	95
000079c9 14            11209 	.byte	20
000079ca 01            11210 	.byte	1
000079cb e808          11211 	.byte	232,8
000079cd 53544f505f53  11212 	.strz	"STOP_SEC_CODE "
000079d3 45435f434f44 
000079d9 452000 
000079dc 03            11213 	.byte	3
000079dd c509          11214 	.byte	197,9
000079df 15            11215 	.byte	21
000079e0 04            11216 	.byte	4
000079e1 04            11217 	.byte	4
000079e2 04            11218 	.byte	4
000079e3 04            11219 	.byte	4
000079e4 04            11220 	.byte	4
000079e5 03            11221 	.byte	3
000079e6 12            11222 	.byte	18
000079e7 54            11223 	.byte	84
000079e8 04            11224 	.byte	4
000079e9 03            11225 	.byte	3
000079ea 14            11226 	.byte	20
000079eb 55            11227 	.byte	85
000079ec 04            11228 	.byte	4
000079ed 03            11229 	.byte	3
000079ee 15            11230 	.byte	21
000079ef 56            11231 	.byte	86
000079f0 03            11232 	.byte	3
000079f1 09            11233 	.byte	9
000079f2 57            11234 	.byte	87
000079f3 04            11235 	.byte	4
000079f4 01            11236 	.byte	1
000079f5 28            11237 	.byte	40
000079f6 44454d5f5354  11238 	.strz	"DEM_START_SEC_CODE "
000079fc 4152545f5345 

                                                                      Page 284
                                                              C:\Users\nhuliyap\AppData\Local\Temp\gh_00008cs1.s
00007a02 435f434f4445 
00007a08 2000 
00007a0a 03            11239 	.byte	3
00007a0b 29            11240 	.byte	41
00007a0c 12            11241 	.byte	18
00007a0d 03            11242 	.byte	3
00007a0e 08            11243 	.byte	8
00007a0f 13            11244 	.byte	19
00007a10 01            11245 	.byte	1
00007a11 06            11246 	.byte	6
00007a12 44454d5f4d45  11247 	.strz	"DEM_MEMMAP_ERROR "
00007a18 4d4d41505f45 
00007a1e 52524f522000 
00007a24 01            11248 	.byte	1
00007a25 51            11249 	.byte	81
00007a26 4253575f5354  11250 	.strz	"BSW_START_SEC_CODE "
00007a2c 4152545f5345 
00007a32 435f434f4445 
00007a38 2000 
00007a3a 03            11251 	.byte	3
00007a3b 52            11252 	.byte	82
00007a3c 14            11253 	.byte	20
00007a3d 01            11254 	.byte	1
00007a3e e408          11255 	.byte	228,8
00007a40 53544152545f  11256 	.strz	"START_SEC_CODE "
00007a46 5345435f434f 
00007a4c 44452000 
00007a50 03            11257 	.byte	3
00007a51 c509          11258 	.byte	197,9
00007a53 15            11259 	.byte	21
00007a54 01            11260 	.byte	1
00007a55 f407          11261 	.byte	244,7
00007a57 434f44455f53  11262 	.strz	"CODE_SEC_OPEN "
00007a5d 45435f4f5045 
00007a63 4e2000 
00007a66 04            11263 	.byte	4
00007a67 04            11264 	.byte	4
00007a68 01            11265 	.byte	1
00007a69 56            11266 	.byte	86
00007a6a 44454d5f5741  11267 	.strz	"DEM_WAS_STARTED_SEC_CODE "
00007a70 535f53544152 
00007a76 5445445f5345 
00007a7c 435f434f4445 
00007a82 2000 
00007a84 04            11268 	.byte	4
00007a85 04            11269 	.byte	4
00007a86 01            11270 	.byte	1
00007a87 69            11271 	.byte	105
00007a88 44454d5f5354  11272 	.strz	"DEM_STOP_SEC_CODE "
00007a8e 4f505f534543 
00007a94 5f434f444520 
00007a9a 00 
00007a9b 03            11273 	.byte	3
00007a9c 6a            11274 	.byte	106
00007a9d 12            11275 	.byte	18
00007a9e 03            11276 	.byte	3
00007a9f 08            11277 	.byte	8
00007aa0 13            11278 	.byte	19
00007aa1 01            11279 	.byte	1
00007aa2 06            11280 	.byte	6
00007aa3 44454d5f4d45  11281 	.strz	"DEM_MEMMAP_ERROR "

                                                                      Page 285
                                                              C:\Users\nhuliyap\AppData\Local\Temp\gh_00008cs1.s
00007aa9 4d4d41505f45 
00007aaf 52524f522000 
00007ab5 01            11282 	.byte	1
00007ab6 5e            11283 	.byte	94
00007ab7 4253575f5354  11284 	.strz	"BSW_STOP_SEC_CODE "
00007abd 4f505f534543 
00007ac3 5f434f444520 
00007ac9 00 
00007aca 03            11285 	.byte	3
00007acb 5f            11286 	.byte	95
00007acc 14            11287 	.byte	20
00007acd 01            11288 	.byte	1
00007ace e808          11289 	.byte	232,8
00007ad0 53544f505f53  11290 	.strz	"STOP_SEC_CODE "
00007ad6 45435f434f44 
00007adc 452000 
00007adf 03            11291 	.byte	3
00007ae0 c509          11292 	.byte	197,9
00007ae2 15            11293 	.byte	21
00007ae3 04            11294 	.byte	4
00007ae4 04            11295 	.byte	4
00007ae5 04            11296 	.byte	4
00007ae6 04            11297 	.byte	4
00007ae7 04            11298 	.byte	4
00007ae8 03            11299 	.byte	3
00007ae9 16            11300 	.byte	22
00007aea 58            11301 	.byte	88
00007aeb 04            11302 	.byte	4
00007aec 03            11303 	.byte	3
00007aed 19            11304 	.byte	25
00007aee 59            11305 	.byte	89
00007aef 01            11306 	.byte	1
00007af0 1f            11307 	.byte	31
00007af1 44454d5f4346  11308 	.strz	"DEM_CFG_DISTURBANCE_MEMORY_ON STD_ON"
00007af7 475f44495354 
00007afd 555242414e43 
00007b03 455f4d454d4f 
00007b09 52595f4f4e20 
00007b0f 5354445f4f4e 
00007b15 00 
00007b16 01            11309 	.byte	1
00007b17 20            11310 	.byte	32
00007b18 44454d5f4346  11311 	.strz	"DEM_CFG_DISTURBANCE_MEMORY_OFF STD_OFF"
00007b1e 475f44495354 
00007b24 555242414e43 
00007b2a 455f4d454d4f 
00007b30 52595f4f4646 
00007b36 205354445f4f 
00007b3c 464600 
00007b3f 01            11312 	.byte	1
00007b40 21            11313 	.byte	33
00007b41 44454d5f4346  11314 	.strz	"DEM_CFG_DISTURBANCE_MEMORY DEM_CFG_DISTURBANCE_MEMORY_OFF"
00007b47 475f44495354 
00007b4d 555242414e43 
00007b53 455f4d454d4f 
00007b59 52592044454d 
00007b5f 5f4346475f44 
00007b65 495354555242 
00007b6b 414e43455f4d 
00007b71 454d4f52595f 
00007b77 4f464600 

                                                                      Page 286
                                                              C:\Users\nhuliyap\AppData\Local\Temp\gh_00008cs1.s
00007b7b 01            11315 	.byte	1
00007b7c 23            11316 	.byte	35
00007b7d 44454d5f4346  11317 	.strz	"DEM_CFG_DIST_MEM_CALLBACK_ON_DISTURBANCE_ON STD_ON"
00007b83 475f44495354 
00007b89 5f4d454d5f43 
00007b8f 414c4c424143 
00007b95 4b5f4f4e5f44 
00007b9b 495354555242 
00007ba1 414e43455f4f 
00007ba7 4e205354445f 
00007bad 4f4e00 
00007bb0 01            11318 	.byte	1
00007bb1 24            11319 	.byte	36
00007bb2 44454d5f4346  11320 	.strz	"DEM_CFG_DIST_MEM_CALLBACK_ON_DISTURBANCE_OFF STD_OFF"
00007bb8 475f44495354 
00007bbe 5f4d454d5f43 
00007bc4 414c4c424143 
00007bca 4b5f4f4e5f44 
00007bd0 495354555242 
00007bd6 414e43455f4f 
00007bdc 464620535444 
00007be2 5f4f464600 
00007be7 01            11321 	.byte	1
00007be8 25            11322 	.byte	37
00007be9 44454d5f4346  11323 	.strz	"DEM_CFG_DIST_MEM_CALLBACK_ON_DISTURBANCE DEM_CFG_DIST_MEM_CALLBACK_ON_DISTURBANCE_OFF"
00007bef 475f44495354 
00007bf5 5f4d454d5f43 
00007bfb 414c4c424143 
00007c01 4b5f4f4e5f44 
00007c07 495354555242 
00007c0d 414e43452044 
00007c13 454d5f434647 
00007c19 5f444953545f 
00007c1f 4d454d5f4341 
00007c25 4c4c4241434b 
00007c2b 5f4f4e5f4449 
00007c31 535455524241 
00007c37 4e43455f4f46 
00007c3d 4600 
00007c3f 04            11324 	.byte	4
00007c40 03            11325 	.byte	3
00007c41 1b            11326 	.byte	27
00007c42 5a            11327 	.byte	90
00007c43 03            11328 	.byte	3
00007c44 06            11329 	.byte	6
00007c45 24            11330 	.byte	36
00007c46 04            11331 	.byte	4
00007c47 03            11332 	.byte	3
00007c48 08            11333 	.byte	8
00007c49 5b            11334 	.byte	91
00007c4a 03            11335 	.byte	3
00007c4b 06            11336 	.byte	6
00007c4c 5c            11337 	.byte	92
00007c4d 01            11338 	.byte	1
00007c4e 2b            11339 	.byte	43
00007c4f 44454d5f4e56  11340 	.strz	"DEM_NVM_CFG_BLOCKID_TYPE uint8"
00007c55 4d5f4346475f 
00007c5b 424c4f434b49 
00007c61 445f54595045 
00007c67 2075696e7438 
00007c6d 00 

                                                                      Page 287
                                                              C:\Users\nhuliyap\AppData\Local\Temp\gh_00008cs1.s
00007c6e 01            11341 	.byte	1
00007c6f 2c            11342 	.byte	44
00007c70 44454d5f4e56  11343 	.strz	"DEM_NVM_CFG_NUM_BLOCKS_TOTAL 12"
00007c76 4d5f4346475f 
00007c7c 4e554d5f424c 
00007c82 4f434b535f54 
00007c88 4f54414c2031 
00007c8e 3200 
00007c90 01            11344 	.byte	1
00007c91 2d            11345 	.byte	45
00007c92 44454d5f4e56  11346 	.strz	"DEM_NVM_CFG_NUM_BLOCKS_EXTENDED 11"
00007c98 4d5f4346475f 
00007c9e 4e554d5f424c 
00007ca4 4f434b535f45 
00007caa 5854454e4445 
00007cb0 4420313100 
00007cb5 01            11347 	.byte	1
00007cb6 4e            11348 	.byte	78
00007cb7 44454d5f4e56  11349 	.strz	"DEM_NVM_CFG_NUM_STORAGEBUFFER 2"
00007cbd 4d5f4346475f 
00007cc3 4e554d5f5354 
00007cc9 4f5241474542 
00007ccf 554646455220 
00007cd5 3200 
00007cd7 01            11350 	.byte	1
00007cd8 50            11351 	.byte	80
00007cd9 44454d5f4e56  11352 	.strz	"DEM_NVM_CFG_COPYFCT_NUM 1"
00007cdf 4d5f4346475f 
00007ce5 434f50594643 
00007ceb 545f4e554d20 
00007cf1 3100 
00007cf3 04            11353 	.byte	4
00007cf4 03            11354 	.byte	3
00007cf5 08            11355 	.byte	8
00007cf6 5d            11356 	.byte	93
00007cf7 03            11357 	.byte	3
00007cf8 08            11358 	.byte	8
00007cf9 5e            11359 	.byte	94
00007cfa 01            11360 	.byte	1
00007cfb 21            11361 	.byte	33
00007cfc 44454d5f4346  11362 	.strz	"DEM_CFG_ENVMINSIZE_OF_MULTIPLE_RAWENVDATA (33u + 0u + 0u)"
00007d02 475f454e564d 
00007d08 494e53495a45 
00007d0e 5f4f465f4d55 
00007d14 4c5449504c45 
00007d1a 5f524157454e 
00007d20 564441544120 
00007d26 28333375202b 
00007d2c 203075202b20 
00007d32 30752900 
00007d36 04            11363 	.byte	4
00007d37 03            11364 	.byte	3
00007d38 09            11365 	.byte	9
00007d39 5f            11366 	.byte	95
00007d3a 03            11367 	.byte	3
00007d3b 1c            11368 	.byte	28
00007d3c 60            11369 	.byte	96
00007d3d 03            11370 	.byte	3
00007d3e 1c            11371 	.byte	28
00007d3f 61            11372 	.byte	97
00007d40 04            11373 	.byte	4

                                                                      Page 288
                                                              C:\Users\nhuliyap\AppData\Local\Temp\gh_00008cs1.s
00007d41 04            11374 	.byte	4
00007d42 01            11375 	.byte	1
00007d43 22            11376 	.byte	34
00007d44 44454d5f4346  11377 	.strz	"DEM_CFG_ENV_DATAELEMENTS_EXTERN_AVAILABILITY STD_ON"
00007d4a 475f454e565f 
00007d50 44415441454c 
00007d56 454d454e5453 
00007d5c 5f4558544552 
00007d62 4e5f41564149 
00007d68 4c4142494c49 
00007d6e 545920535444 
00007d74 5f4f4e00 
00007d78 01            11378 	.byte	1
00007d79 23            11379 	.byte	35
00007d7a 44454d5f4346  11380 	.strz	"DEM_CFG_ENV_DATAELEMENTS_INTERN_AVAILABILITY STD_OFF"
00007d80 475f454e565f 
00007d86 44415441454c 
00007d8c 454d454e5453 
00007d92 5f494e544552 
00007d98 4e5f41564149 
00007d9e 4c4142494c49 
00007da4 545920535444 
00007daa 5f4f464600 
00007daf 01            11381 	.byte	1
00007db0 24            11382 	.byte	36
00007db1 44454d5f4346  11383 	.strz	"DEM_CFG_READDEM_AGINGCTR_UPCNT_SUPPORTED FALSE"
00007db7 475f52454144 
00007dbd 44454d5f4147 
00007dc3 494e47435452 
00007dc9 5f5550434e54 
00007dcf 5f535550504f 
00007dd5 525445442046 
00007ddb 414c534500 
00007de0 01            11384 	.byte	1
00007de1 25            11385 	.byte	37
00007de2 44454d5f4346  11386 	.strz	"DEM_CFG_READDEM_AGINGCTR_DOWNCNT_SUPPORTED FALSE"
00007de8 475f52454144 
00007dee 44454d5f4147 
00007df4 494e47435452 
00007dfa 5f444f574e43 
00007e00 4e545f535550 
00007e06 504f52544544 
00007e0c 2046414c5345 
00007e12 00 
00007e13 01            11387 	.byte	1
00007e14 26            11388 	.byte	38
00007e15 44454d5f4346  11389 	.strz	"DEM_CFG_READDEM_OCCCTR_SUPPORTED FALSE"
00007e1b 475f52454144 
00007e21 44454d5f4f43 
00007e27 434354525f53 
00007e2d 5550504f5254 
00007e33 45442046414c 
00007e39 534500 
00007e3c 01            11390 	.byte	1
00007e3d 27            11391 	.byte	39
00007e3e 44454d5f4346  11392 	.strz	"DEM_CFG_READDEM_OVFLIND_SUPPORTED FALSE"
00007e44 475f52454144 
00007e4a 44454d5f4f56 
00007e50 464c494e445f 
00007e56 535550504f52 
00007e5c 544544204641 

                                                                      Page 289
                                                              C:\Users\nhuliyap\AppData\Local\Temp\gh_00008cs1.s
00007e62 4c534500 
00007e66 01            11393 	.byte	1
00007e67 28            11394 	.byte	40
00007e68 44454d5f4346  11395 	.strz	"DEM_CFG_READDEM_SIGNIFICANCE_SUPPORTED FALSE"
00007e6e 475f52454144 
00007e74 44454d5f5349 
00007e7a 474e49464943 
00007e80 414e43455f53 
00007e86 5550504f5254 
00007e8c 45442046414c 
00007e92 534500 
00007e95 01            11396 	.byte	1
00007e96 29            11397 	.byte	41
00007e97 44454d5f4346  11398 	.strz	"DEM_CFG_READDEM_DEBUG0_SUPPORTED FALSE"
00007e9d 475f52454144 
00007ea3 44454d5f4445 
00007ea9 425547305f53 
00007eaf 5550504f5254 
00007eb5 45442046414c 
00007ebb 534500 
00007ebe 01            11399 	.byte	1
00007ebf 2a            11400 	.byte	42
00007ec0 44454d5f4346  11401 	.strz	"DEM_CFG_READDEM_DEBUG1_SUPPORTED FALSE"
00007ec6 475f52454144 
00007ecc 44454d5f4445 
00007ed2 425547315f53 
00007ed8 5550504f5254 
00007ede 45442046414c 
00007ee4 534500 
00007ee7 01            11402 	.byte	1
00007ee8 2b            11403 	.byte	43
00007ee9 44454d5f4346  11404 	.strz	"DEM_CFG_READDEM_EVENT_ID_SUPPORTED FALSE"
00007eef 475f52454144 
00007ef5 44454d5f4556 
00007efb 454e545f4944 
00007f01 5f535550504f 
00007f07 525445442046 
00007f0d 414c534500 
00007f12 01            11405 	.byte	1
00007f13 2c            11406 	.byte	44
00007f14 44454d5f4346  11407 	.strz	"DEM_CFG_READDEM_CURRENT_FDC_SUPPORTED FALSE"
00007f1a 475f52454144 
00007f20 44454d5f4355 
00007f26 5252454e545f 
00007f2c 4644435f5355 
00007f32 50504f525445 
00007f38 442046414c53 
00007f3e 4500 
00007f40 01            11408 	.byte	1
00007f41 2d            11409 	.byte	45
00007f42 44454d5f4346  11410 	.strz	"DEM_CFG_READDEM_MAX_FDC_DURING_CURRENT_CYCLE_SUPPORTED FALSE"
00007f48 475f52454144 
00007f4e 44454d5f4d41 
00007f54 585f4644435f 
00007f5a 445552494e47 
00007f60 5f4355525245 
00007f66 4e545f435943 
00007f6c 4c455f535550 
00007f72 504f52544544 
00007f78 2046414c5345 
00007f7e 00 

                                                                      Page 290
                                                              C:\Users\nhuliyap\AppData\Local\Temp\gh_00008cs1.s
00007f7f 01            11411 	.byte	1
00007f80 2e            11412 	.byte	46
00007f81 44454d5f4346  11413 	.strz	"DEM_CFG_READDEM_MAX_FDC_SINCE_LAST_CLEAR_SUPPORTED FALSE"
00007f87 475f52454144 
00007f8d 44454d5f4d41 
00007f93 585f4644435f 
00007f99 53494e43455f 
00007f9f 4c4153545f43 
00007fa5 4c4541525f53 
00007fab 5550504f5254 
00007fb1 45442046414c 
00007fb7 534500 
00007fba 01            11414 	.byte	1
00007fbb 2f            11415 	.byte	47
00007fbc 44454d5f4346  11416 	.strz	"DEM_CFG_READDEM_CYCLES_SINCE_FIRST_FAILED_SUPPORTED FALSE"
00007fc2 475f52454144 
00007fc8 44454d5f4359 
00007fce 434c45535f53 
00007fd4 494e43455f46 
00007fda 495253545f46 
00007fe0 41494c45445f 
00007fe6 535550504f52 
00007fec 544544204641 
00007ff2 4c534500 
00007ff6 01            11417 	.byte	1
00007ff7 30            11418 	.byte	48
00007ff8 44454d5f4346  11419 	.strz	"DEM_CFG_READDEM_CYCLES_SINCE_LAST_FAILED_SUPPORTED FALSE"
00007ffe 475f52454144 
00008004 44454d5f4359 
0000800a 434c45535f53 
00008010 494e43455f4c 
00008016 4153545f4641 
0000801c 494c45445f53 
00008022 5550504f5254 
00008028 45442046414c 
0000802e 534500 
00008031 01            11420 	.byte	1
00008032 31            11421 	.byte	49
00008033 44454d5f4346  11422 	.strz	"DEM_CFG_READDEM_CYCLES_SINCE_LAST_FAILED_EXCLUDING_TNC_SUPPORTED FALSE"
00008039 475f52454144 
0000803f 44454d5f4359 
00008045 434c45535f53 
0000804b 494e43455f4c 
00008051 4153545f4641 
00008057 494c45445f45 
0000805d 58434c554449 
00008063 4e475f544e43 
00008069 5f535550504f 
0000806f 525445442046 
00008075 414c534500 
0000807a 01            11423 	.byte	1
0000807b 32            11424 	.byte	50
0000807c 44454d5f4346  11425 	.strz	"DEM_CFG_READDEM_FAILED_CYCLES_SUPPORTED FALSE"
00008082 475f52454144 
00008088 44454d5f4641 
0000808e 494c45445f43 
00008094 59434c45535f 
0000809a 535550504f52 
000080a0 544544204641 
000080a6 4c534500 
000080aa 01            11426 	.byte	1

                                                                      Page 291
                                                              C:\Users\nhuliyap\AppData\Local\Temp\gh_00008cs1.s
000080ab 52            11427 	.byte	82
000080ac 44454d5f4346  11428 	.strz	"DEM_CFG_ENV_DATAELEMENTS_ARRAYLENGTH (11+1)"
000080b2 475f454e565f 
000080b8 44415441454c 
000080be 454d454e5453 
000080c4 5f4152524159 
000080ca 4c454e475448 
000080d0 202831312b31 
000080d6 2900 
000080d8 04            11429 	.byte	4
000080d9 03            11430 	.byte	3
000080da 0b            11431 	.byte	11
000080db 62            11432 	.byte	98
000080dc 01            11433 	.byte	1
000080dd 25            11434 	.byte	37
000080de 44454d5f4346  11435 	.strz	"DEM_CFG_REPORT_CHRONOLOGICAL_ORDER_HOOKS_ENABLED FALSE"
000080e4 475f5245504f 
000080ea 52545f434852 
000080f0 4f4e4f4c4f47 
000080f6 4943414c5f4f 
000080fc 524445525f48 
00008102 4f4f4b535f45 
00008108 4e41424c4544 
0000810e 2046414c5345 
00008114 00 
00008115 04            11436 	.byte	4
00008116 03            11437 	.byte	3
00008117 0d            11438 	.byte	13
00008118 63            11439 	.byte	99
00008119 03            11440 	.byte	3
0000811a 1f            11441 	.byte	31
0000811b 64            11442 	.byte	100
0000811c 03            11443 	.byte	3
0000811d 09            11444 	.byte	9
0000811e 65            11445 	.byte	101
0000811f 03            11446 	.byte	3
00008120 08            11447 	.byte	8
00008121 2c            11448 	.byte	44
00008122 04            11449 	.byte	4
00008123 01            11450 	.byte	1
00008124 0a            11451 	.byte	10
00008125 5242415f4449  11452 	.strz	"RBA_DIAGLIB_START_SEC_CODE "
0000812b 41474c49425f 
00008131 53544152545f 
00008137 5345435f434f 
0000813d 44452000 
00008141 03            11453 	.byte	3
00008142 0b            11454 	.byte	11
00008143 2e            11455 	.byte	46
00008144 01            11456 	.byte	1
00008145 06            11457 	.byte	6
00008146 4d454d4d4150  11458 	.strz	"MEMMAP_ERROR "
0000814c 5f4552524f52 
00008152 2000 
00008154 01            11459 	.byte	1
00008155 4b            11460 	.byte	75
00008156 4253575f5354  11461 	.strz	"BSW_START_SEC_DEFAULT_CODE "
0000815c 4152545f5345 
00008162 435f44454641 
00008168 554c545f434f 
0000816e 44452000 

                                                                      Page 292
                                                              C:\Users\nhuliyap\AppData\Local\Temp\gh_00008cs1.s
00008172 03            11462 	.byte	3
00008173 4c            11463 	.byte	76
00008174 14            11464 	.byte	20
00008175 01            11465 	.byte	1
00008176 dd08          11466 	.byte	221,8
00008178 53544152545f  11467 	.strz	"START_SEC_CODE "
0000817e 5345435f434f 
00008184 44452000 
00008188 03            11468 	.byte	3
00008189 c509          11469 	.byte	197,9
0000818b 15            11470 	.byte	21
0000818c 01            11471 	.byte	1
0000818d f407          11472 	.byte	244,7
0000818f 434f44455f53  11473 	.strz	"CODE_SEC_OPEN "
00008195 45435f4f5045 
0000819b 4e2000 
0000819e 04            11474 	.byte	4
0000819f 04            11475 	.byte	4
000081a0 01            11476 	.byte	1
000081a1 50            11477 	.byte	80
000081a2 5242415f4449  11478 	.strz	"RBA_DIAGLIB_WAS_STARTED_SEC_CODE "
000081a8 41474c49425f 
000081ae 5741535f5354 
000081b4 41525445445f 
000081ba 5345435f434f 
000081c0 44452000 
000081c4 04            11479 	.byte	4
000081c5 01            11480 	.byte	1
000081c6 47            11481 	.byte	71
000081c7 5242415f4449  11482 	.strz	"RBA_DIAGLIB_STOP_SEC_CODE "
000081cd 41474c49425f 
000081d3 53544f505f53 
000081d9 45435f434f44 
000081df 452000 
000081e2 03            11483 	.byte	3
000081e3 48            11484 	.byte	72
000081e4 2e            11485 	.byte	46
000081e5 01            11486 	.byte	1
000081e6 06            11487 	.byte	6
000081e7 4d454d4d4150  11488 	.strz	"MEMMAP_ERROR "
000081ed 5f4552524f52 
000081f3 2000 
000081f5 01            11489 	.byte	1
000081f6 57            11490 	.byte	87
000081f7 4253575f5354  11491 	.strz	"BSW_STOP_SEC_DEFAULT_CODE "
000081fd 4f505f534543 
00008203 5f4445464155 
00008209 4c545f434f44 
0000820f 452000 
00008212 03            11492 	.byte	3
00008213 58            11493 	.byte	88
00008214 14            11494 	.byte	20
00008215 01            11495 	.byte	1
00008216 e008          11496 	.byte	224,8
00008218 53544f505f53  11497 	.strz	"STOP_SEC_CODE "
0000821e 45435f434f44 
00008224 452000 
00008227 03            11498 	.byte	3
00008228 c509          11499 	.byte	197,9
0000822a 15            11500 	.byte	21
0000822b 04            11501 	.byte	4

                                                                      Page 293
                                                              C:\Users\nhuliyap\AppData\Local\Temp\gh_00008cs1.s
0000822c 04            11502 	.byte	4
0000822d 04            11503 	.byte	4
0000822e 04            11504 	.byte	4
0000822f 04            11505 	.byte	4
00008230 01            11506 	.byte	1
00008231 24            11507 	.byte	36
00008232 44454d5f494e  11508 	.strz	"DEM_INVALID_DTC 0xAA000000u"
00008238 56414c49445f 
0000823e 445443203078 
00008244 414130303030 
0000824a 30307500 
0000824e 01            11509 	.byte	1
0000824f 38            11510 	.byte	56
00008250 44454d5f5354  11511 	.strz	"DEM_START_SEC_CONST "
00008256 4152545f5345 
0000825c 435f434f4e53 
00008262 542000 
00008265 03            11512 	.byte	3
00008266 39            11513 	.byte	57
00008267 12            11514 	.byte	18
00008268 03            11515 	.byte	3
00008269 08            11516 	.byte	8
0000826a 13            11517 	.byte	19
0000826b 01            11518 	.byte	1
0000826c 06            11519 	.byte	6
0000826d 44454d5f4d45  11520 	.strz	"DEM_MEMMAP_ERROR "
00008273 4d4d41505f45 
00008279 52524f522000 
0000827f 01            11521 	.byte	1
00008280 3a            11522 	.byte	58
00008281 4253575f5354  11523 	.strz	"BSW_START_SEC_CONST_UNSPECIFIED "
00008287 4152545f5345 
0000828d 435f434f4e53 
00008293 545f554e5350 
00008299 454349464945 
0000829f 442000 
000082a2 03            11524 	.byte	3
000082a3 3b            11525 	.byte	59
000082a4 14            11526 	.byte	20
000082a5 01            11527 	.byte	1
000082a6 fa05          11528 	.byte	250,5
000082a8 53544152545f  11529 	.strz	"START_SEC_CONST_UNSPECIFIED "
000082ae 5345435f434f 
000082b4 4e53545f554e 
000082ba 535045434946 
000082c0 4945442000 
000082c5 03            11530 	.byte	3
000082c6 c509          11531 	.byte	197,9
000082c8 15            11532 	.byte	21
000082c9 01            11533 	.byte	1
000082ca b508          11534 	.byte	181,8
000082cc 434f4e53545f  11535 	.strz	"CONST_SEC_OPEN "
000082d2 5345435f4f50 
000082d8 454e2000 
000082dc 04            11536 	.byte	4
000082dd 04            11537 	.byte	4
000082de 01            11538 	.byte	1
000082df 3f            11539 	.byte	63
000082e0 44454d5f5741  11540 	.strz	"DEM_WAS_STARTED_SEC_CONST "
000082e6 535f53544152 
000082ec 5445445f5345 

                                                                      Page 294
                                                              C:\Users\nhuliyap\AppData\Local\Temp\gh_00008cs1.s
000082f2 435f434f4e53 
000082f8 542000 
000082fb 04            11541 	.byte	4
000082fc 04            11542 	.byte	4
000082fd 01            11543 	.byte	1
000082fe 5f            11544 	.byte	95
000082ff 44454d5f5354  11545 	.strz	"DEM_STOP_SEC_CONST "
00008305 4f505f534543 
0000830b 5f434f4e5354 
00008311 2000 
00008313 03            11546 	.byte	3
00008314 60            11547 	.byte	96
00008315 12            11548 	.byte	18
00008316 03            11549 	.byte	3
00008317 08            11550 	.byte	8
00008318 13            11551 	.byte	19
00008319 01            11552 	.byte	1
0000831a 06            11553 	.byte	6
0000831b 44454d5f4d45  11554 	.strz	"DEM_MEMMAP_ERROR "
00008321 4d4d41505f45 
00008327 52524f522000 
0000832d 01            11555 	.byte	1
0000832e 47            11556 	.byte	71
0000832f 4253575f5354  11557 	.strz	"BSW_STOP_SEC_CONST_UNSPECIFIED "
00008335 4f505f534543 
0000833b 5f434f4e5354 
00008341 5f554e535045 
00008347 434946494544 
0000834d 2000 
0000834f 03            11558 	.byte	3
00008350 48            11559 	.byte	72
00008351 14            11560 	.byte	20
00008352 01            11561 	.byte	1
00008353 fe05          11562 	.byte	254,5
00008355 53544f505f53  11563 	.strz	"STOP_SEC_CONST "
0000835b 45435f434f4e 
00008361 53542000 
00008365 03            11564 	.byte	3
00008366 c509          11565 	.byte	197,9
00008368 15            11566 	.byte	21
00008369 04            11567 	.byte	4
0000836a 04            11568 	.byte	4
0000836b 04            11569 	.byte	4
0000836c 04            11570 	.byte	4
0000836d 04            11571 	.byte	4
0000836e 04            11572 	.byte	4
0000836f 03            11573 	.byte	3
00008370 09            11574 	.byte	9
00008371 66            11575 	.byte	102
00008372 03            11576 	.byte	3
00008373 06            11577 	.byte	6
00008374 67            11578 	.byte	103
00008375 03            11579 	.byte	3
00008376 07            11580 	.byte	7
00008377 68            11581 	.byte	104
00008378 01            11582 	.byte	1
00008379 32            11583 	.byte	50
0000837a 44454d5f5354  11584 	.strz	"DEM_START_SEC_CONST "
00008380 4152545f5345 
00008386 435f434f4e53 
0000838c 542000 

                                                                      Page 295
                                                              C:\Users\nhuliyap\AppData\Local\Temp\gh_00008cs1.s
0000838f 03            11585 	.byte	3
00008390 33            11586 	.byte	51
00008391 12            11587 	.byte	18
00008392 03            11588 	.byte	3
00008393 08            11589 	.byte	8
00008394 13            11590 	.byte	19
00008395 01            11591 	.byte	1
00008396 06            11592 	.byte	6
00008397 44454d5f4d45  11593 	.strz	"DEM_MEMMAP_ERROR "
0000839d 4d4d41505f45 
000083a3 52524f522000 
000083a9 01            11594 	.byte	1
000083aa 3a            11595 	.byte	58
000083ab 4253575f5354  11596 	.strz	"BSW_START_SEC_CONST_UNSPECIFIED "
000083b1 4152545f5345 
000083b7 435f434f4e53 
000083bd 545f554e5350 
000083c3 454349464945 
000083c9 442000 
000083cc 03            11597 	.byte	3
000083cd 3b            11598 	.byte	59
000083ce 14            11599 	.byte	20
000083cf 01            11600 	.byte	1
000083d0 fa05          11601 	.byte	250,5
000083d2 53544152545f  11602 	.strz	"START_SEC_CONST_UNSPECIFIED "
000083d8 5345435f434f 
000083de 4e53545f554e 
000083e4 535045434946 
000083ea 4945442000 
000083ef 03            11603 	.byte	3
000083f0 c509          11604 	.byte	197,9
000083f2 15            11605 	.byte	21
000083f3 01            11606 	.byte	1
000083f4 b508          11607 	.byte	181,8
000083f6 434f4e53545f  11608 	.strz	"CONST_SEC_OPEN "
000083fc 5345435f4f50 
00008402 454e2000 
00008406 04            11609 	.byte	4
00008407 04            11610 	.byte	4
00008408 01            11611 	.byte	1
00008409 3f            11612 	.byte	63
0000840a 44454d5f5741  11613 	.strz	"DEM_WAS_STARTED_SEC_CONST "
00008410 535f53544152 
00008416 5445445f5345 
0000841c 435f434f4e53 
00008422 542000 
00008425 04            11614 	.byte	4
00008426 04            11615 	.byte	4
00008427 01            11616 	.byte	1
00008428 35            11617 	.byte	53
00008429 44454d5f5354  11618 	.strz	"DEM_STOP_SEC_CONST "
0000842f 4f505f534543 
00008435 5f434f4e5354 
0000843b 2000 
0000843d 03            11619 	.byte	3
0000843e 36            11620 	.byte	54
0000843f 12            11621 	.byte	18
00008440 03            11622 	.byte	3
00008441 08            11623 	.byte	8
00008442 13            11624 	.byte	19
00008443 01            11625 	.byte	1

                                                                      Page 296
                                                              C:\Users\nhuliyap\AppData\Local\Temp\gh_00008cs1.s
00008444 06            11626 	.byte	6
00008445 44454d5f4d45  11627 	.strz	"DEM_MEMMAP_ERROR "
0000844b 4d4d41505f45 
00008451 52524f522000 
00008457 01            11628 	.byte	1
00008458 47            11629 	.byte	71
00008459 4253575f5354  11630 	.strz	"BSW_STOP_SEC_CONST_UNSPECIFIED "
0000845f 4f505f534543 
00008465 5f434f4e5354 
0000846b 5f554e535045 
00008471 434946494544 
00008477 2000 
00008479 03            11631 	.byte	3
0000847a 48            11632 	.byte	72
0000847b 14            11633 	.byte	20
0000847c 01            11634 	.byte	1
0000847d fe05          11635 	.byte	254,5
0000847f 53544f505f53  11636 	.strz	"STOP_SEC_CONST "
00008485 45435f434f4e 
0000848b 53542000 
0000848f 03            11637 	.byte	3
00008490 c509          11638 	.byte	197,9
00008492 15            11639 	.byte	21
00008493 04            11640 	.byte	4
00008494 04            11641 	.byte	4
00008495 04            11642 	.byte	4
00008496 04            11643 	.byte	4
00008497 04            11644 	.byte	4
00008498 01            11645 	.byte	1
00008499 0a            11646 	.byte	10
0000849a 44454d5f5354  11647 	.strz	"DEM_START_SEC_VAR_CLEARED "
000084a0 4152545f5345 
000084a6 435f5641525f 
000084ac 434c45415245 
000084b2 442000 
000084b5 03            11648 	.byte	3
000084b6 0b            11649 	.byte	11
000084b7 12            11650 	.byte	18
000084b8 03            11651 	.byte	3
000084b9 08            11652 	.byte	8
000084ba 13            11653 	.byte	19
000084bb 01            11654 	.byte	1
000084bc 06            11655 	.byte	6
000084bd 44454d5f4d45  11656 	.strz	"DEM_MEMMAP_ERROR "
000084c3 4d4d41505f45 
000084c9 52524f522000 
000084cf 01            11657 	.byte	1
000084d0 0c            11658 	.byte	12
000084d1 4253575f5354  11659 	.strz	"BSW_START_SEC_VAR_CLEARED_UNSPECIFIED "
000084d7 4152545f5345 
000084dd 435f5641525f 
000084e3 434c45415245 
000084e9 445f554e5350 
000084ef 454349464945 
000084f5 442000 
000084f8 03            11660 	.byte	3
000084f9 0d            11661 	.byte	13
000084fa 14            11662 	.byte	20
000084fb 01            11663 	.byte	1
000084fc 48            11664 	.byte	72
000084fd 53544152545f  11665 	.strz	"START_SEC_VAR_CLEARED_UNSPECIFIED "

                                                                      Page 297
                                                              C:\Users\nhuliyap\AppData\Local\Temp\gh_00008cs1.s
00008503 5345435f5641 
00008509 525f434c4541 
0000850f 5245445f554e 
00008515 535045434946 
0000851b 4945442000 
00008520 03            11666 	.byte	3
00008521 c509          11667 	.byte	197,9
00008523 15            11668 	.byte	21
00008524 01            11669 	.byte	1
00008525 56            11670 	.byte	86
00008526 53544152545f  11671 	.strz	"START_SEC_VAR_ZERO_INIT_UNSPECIFIED "
0000852c 5345435f5641 
00008532 525f5a45524f 
00008538 5f494e49545f 
0000853e 554e53504543 
00008544 494649454420 
0000854a 00 
0000854b 01            11672 	.byte	1
0000854c 850a          11673 	.byte	133,10
0000854e 5641525f5345  11674 	.strz	"VAR_SEC_OPEN "
00008554 435f4f50454e 
0000855a 2000 
0000855c 04            11675 	.byte	4
0000855d 04            11676 	.byte	4
0000855e 01            11677 	.byte	1
0000855f 11            11678 	.byte	17
00008560 44454d5f5741  11679 	.strz	"DEM_WAS_STARTED_SEC_VAR_CLEARED "
00008566 535f53544152 
0000856c 5445445f5345 
00008572 435f5641525f 
00008578 434c45415245 
0000857e 442000 
00008581 04            11680 	.byte	4
00008582 04            11681 	.byte	4
00008583 01            11682 	.byte	1
00008584 0f            11683 	.byte	15
00008585 44454d5f5354  11684 	.strz	"DEM_STOP_SEC_VAR_CLEARED "
0000858b 4f505f534543 
00008591 5f5641525f43 
00008597 4c4541524544 
0000859d 2000 
0000859f 03            11685 	.byte	3
000085a0 10            11686 	.byte	16
000085a1 12            11687 	.byte	18
000085a2 03            11688 	.byte	3
000085a3 08            11689 	.byte	8
000085a4 13            11690 	.byte	19
000085a5 01            11691 	.byte	1
000085a6 06            11692 	.byte	6
000085a7 44454d5f4d45  11693 	.strz	"DEM_MEMMAP_ERROR "
000085ad 4d4d41505f45 
000085b3 52524f522000 
000085b9 01            11694 	.byte	1
000085ba 19            11695 	.byte	25
000085bb 4253575f5354  11696 	.strz	"BSW_STOP_SEC_VAR_CLEARED_UNSPECIFIED "
000085c1 4f505f534543 
000085c7 5f5641525f43 
000085cd 4c4541524544 
000085d3 5f554e535045 
000085d9 434946494544 
000085df 2000 

                                                                      Page 298
                                                              C:\Users\nhuliyap\AppData\Local\Temp\gh_00008cs1.s
000085e1 03            11697 	.byte	3
000085e2 1a            11698 	.byte	26
000085e3 14            11699 	.byte	20
000085e4 01            11700 	.byte	1
000085e5 4c            11701 	.byte	76
000085e6 53544f505f53  11702 	.strz	"STOP_SEC_VAR "
000085ec 45435f564152 
000085f2 2000 
000085f4 03            11703 	.byte	3
000085f5 c509          11704 	.byte	197,9
000085f7 15            11705 	.byte	21
000085f8 04            11706 	.byte	4
000085f9 04            11707 	.byte	4
000085fa 04            11708 	.byte	4
000085fb 04            11709 	.byte	4
000085fc 01            11710 	.byte	1
000085fd 12            11711 	.byte	18
000085fe 44454d5f5354  11712 	.strz	"DEM_START_SEC_CODE "
00008604 4152545f5345 
0000860a 435f434f4445 
00008610 2000 
00008612 03            11713 	.byte	3
00008613 13            11714 	.byte	19
00008614 12            11715 	.byte	18
00008615 03            11716 	.byte	3
00008616 08            11717 	.byte	8
00008617 13            11718 	.byte	19
00008618 01            11719 	.byte	1
00008619 06            11720 	.byte	6
0000861a 44454d5f4d45  11721 	.strz	"DEM_MEMMAP_ERROR "
00008620 4d4d41505f45 
00008626 52524f522000 
0000862c 01            11722 	.byte	1
0000862d 51            11723 	.byte	81
0000862e 4253575f5354  11724 	.strz	"BSW_START_SEC_CODE "
00008634 4152545f5345 
0000863a 435f434f4445 
00008640 2000 
00008642 03            11725 	.byte	3
00008643 52            11726 	.byte	82
00008644 14            11727 	.byte	20
00008645 01            11728 	.byte	1
00008646 e408          11729 	.byte	228,8
00008648 53544152545f  11730 	.strz	"START_SEC_CODE "
0000864e 5345435f434f 
00008654 44452000 
00008658 03            11731 	.byte	3
00008659 c509          11732 	.byte	197,9
0000865b 15            11733 	.byte	21
0000865c 01            11734 	.byte	1
0000865d f407          11735 	.byte	244,7
0000865f 434f44455f53  11736 	.strz	"CODE_SEC_OPEN "
00008665 45435f4f5045 
0000866b 4e2000 
0000866e 04            11737 	.byte	4
0000866f 04            11738 	.byte	4
00008670 01            11739 	.byte	1
00008671 56            11740 	.byte	86
00008672 44454d5f5741  11741 	.strz	"DEM_WAS_STARTED_SEC_CODE "
00008678 535f53544152 
0000867e 5445445f5345 

                                                                      Page 299
                                                              C:\Users\nhuliyap\AppData\Local\Temp\gh_00008cs1.s
00008684 435f434f4445 
0000868a 2000 
0000868c 04            11742 	.byte	4
0000868d 04            11743 	.byte	4
0000868e 01            11744 	.byte	1
0000868f 1f            11745 	.byte	31
00008690 44454d5f5354  11746 	.strz	"DEM_STOP_SEC_CODE "
00008696 4f505f534543 
0000869c 5f434f444520 
000086a2 00 
000086a3 03            11747 	.byte	3
000086a4 20            11748 	.byte	32
000086a5 12            11749 	.byte	18
000086a6 03            11750 	.byte	3
000086a7 08            11751 	.byte	8
000086a8 13            11752 	.byte	19
000086a9 01            11753 	.byte	1
000086aa 06            11754 	.byte	6
000086ab 44454d5f4d45  11755 	.strz	"DEM_MEMMAP_ERROR "
000086b1 4d4d41505f45 
000086b7 52524f522000 
000086bd 01            11756 	.byte	1
000086be 5e            11757 	.byte	94
000086bf 4253575f5354  11758 	.strz	"BSW_STOP_SEC_CODE "
000086c5 4f505f534543 
000086cb 5f434f444520 
000086d1 00 
000086d2 03            11759 	.byte	3
000086d3 5f            11760 	.byte	95
000086d4 14            11761 	.byte	20
000086d5 01            11762 	.byte	1
000086d6 e808          11763 	.byte	232,8
000086d8 53544f505f53  11764 	.strz	"STOP_SEC_CODE "
000086de 45435f434f44 
000086e4 452000 
000086e7 03            11765 	.byte	3
000086e8 c509          11766 	.byte	197,9
000086ea 15            11767 	.byte	21
000086eb 04            11768 	.byte	4
000086ec 04            11769 	.byte	4
000086ed 04            11770 	.byte	4
000086ee 04            11771 	.byte	4
000086ef 04            11772 	.byte	4
000086f0 03            11773 	.byte	3
000086f1 07            11774 	.byte	7
000086f2 69            11775 	.byte	105
000086f3 01            11776 	.byte	1
000086f4 08            11777 	.byte	8
000086f5 44454d5f4556  11778 	.strz	"DEM_EVMEMGEN_DTCIDS_BY_OCCURRENCE_TIME_ARRAYSIZE 7u"
000086fb 4d454d47454e 
00008701 5f4454434944 
00008707 535f42595f4f 
0000870d 434355525245 
00008713 4e43455f5449 
00008719 4d455f415252 
0000871f 415953495a45 
00008725 20377500 
00008729 01            11779 	.byte	1
0000872a 09            11780 	.byte	9
0000872b 44454d5f4556  11781 	.strz	"DEM_EVMEMGEN_OVERFLOW_ARRAYSIZE 6u"
00008731 4d454d47454e 

                                                                      Page 300
                                                              C:\Users\nhuliyap\AppData\Local\Temp\gh_00008cs1.s
00008737 5f4f56455246 
0000873d 4c4f575f4152 
00008743 52415953495a 
00008749 4520367500 
0000874e 04            11782 	.byte	4
0000874f 01            11783 	.byte	1
00008750 19            11784 	.byte	25
00008751 44454d5f5354  11785 	.strz	"DEM_START_SEC_VAR_SAVED_ZONE "
00008757 4152545f5345 
0000875d 435f5641525f 
00008763 53415645445f 
00008769 5a4f4e452000 
0000876f 03            11786 	.byte	3
00008770 1a            11787 	.byte	26
00008771 12            11788 	.byte	18
00008772 03            11789 	.byte	3
00008773 08            11790 	.byte	8
00008774 13            11791 	.byte	19
00008775 01            11792 	.byte	1
00008776 06            11793 	.byte	6
00008777 44454d5f4d45  11794 	.strz	"DEM_MEMMAP_ERROR "
0000877d 4d4d41505f45 
00008783 52524f522000 
00008789 01            11795 	.byte	1
0000878a 9601          11796 	.byte	150,1
0000878c 4253575f5354  11797 	.strz	"BSW_START_SEC_VAR_SAVED_ZONE_UNSPECIFIED "
00008792 4152545f5345 
00008798 435f5641525f 
0000879e 53415645445f 
000087a4 5a4f4e455f55 
000087aa 4e5350454349 
000087b0 464945442000 
000087b6 03            11798 	.byte	3
000087b7 9701          11799 	.byte	151,1
000087b9 14            11800 	.byte	20
000087ba 03            11801 	.byte	3
000087bb c509          11802 	.byte	197,9
000087bd 15            11803 	.byte	21
000087be 04            11804 	.byte	4
000087bf 04            11805 	.byte	4
000087c0 01            11806 	.byte	1
000087c1 9b01          11807 	.byte	155,1
000087c3 44454d5f5741  11808 	.strz	"DEM_WAS_STARTED_SEC_VAR_SAVED_ZONE "
000087c9 535f53544152 
000087cf 5445445f5345 
000087d5 435f5641525f 
000087db 53415645445f 
000087e1 5a4f4e452000 
000087e7 04            11809 	.byte	4
000087e8 04            11810 	.byte	4
000087e9 01            11811 	.byte	1
000087ea 1c            11812 	.byte	28
000087eb 44454d5f5354  11813 	.strz	"DEM_STOP_SEC_VAR_SAVED_ZONE "
000087f1 4f505f534543 
000087f7 5f5641525f53 
000087fd 415645445f5a 
00008803 4f4e452000 
00008808 03            11814 	.byte	3
00008809 1d            11815 	.byte	29
0000880a 12            11816 	.byte	18
0000880b 03            11817 	.byte	3

                                                                      Page 301
                                                              C:\Users\nhuliyap\AppData\Local\Temp\gh_00008cs1.s
0000880c 08            11818 	.byte	8
0000880d 13            11819 	.byte	19
0000880e 01            11820 	.byte	1
0000880f 06            11821 	.byte	6
00008810 44454d5f4d45  11822 	.strz	"DEM_MEMMAP_ERROR "
00008816 4d4d41505f45 
0000881c 52524f522000 
00008822 01            11823 	.byte	1
00008823 a301          11824 	.byte	163,1
00008825 4253575f5354  11825 	.strz	"BSW_STOP_SEC_VAR_SAVED_ZONE_UNSPECIFIED "
0000882b 4f505f534543 
00008831 5f5641525f53 
00008837 415645445f5a 
0000883d 4f4e455f554e 
00008843 535045434946 
00008849 4945442000 
0000884e 03            11826 	.byte	3
0000884f a401          11827 	.byte	164,1
00008851 14            11828 	.byte	20
00008852 03            11829 	.byte	3
00008853 c509          11830 	.byte	197,9
00008855 15            11831 	.byte	21
00008856 04            11832 	.byte	4
00008857 04            11833 	.byte	4
00008858 04            11834 	.byte	4
00008859 04            11835 	.byte	4
0000885a 04            11836 	.byte	4
0000885b 03            11837 	.byte	3
0000885c 0a            11838 	.byte	10
0000885d 24            11839 	.byte	36
0000885e 04            11840 	.byte	4
0000885f 03            11841 	.byte	3
00008860 0b            11842 	.byte	11
00008861 6a            11843 	.byte	106
00008862 04            11844 	.byte	4
00008863 01            11845 	.byte	1
00008864 36            11846 	.byte	54
00008865 44454d5f4e56  11847 	.strz	"DEM_NVM_STATUSBITMASK_NONE 0x00u"
0000886b 4d5f53544154 
00008871 55534249544d 
00008877 41534b5f4e4f 
0000887d 4e4520307830 
00008883 307500 
00008886 01            11848 	.byte	1
00008887 37            11849 	.byte	55
00008888 44454d5f4e56  11850 	.strz	"DEM_NVM_STATUSBITMASK_SHUTDOWN 0x01u"
0000888e 4d5f53544154 
00008894 55534249544d 
0000889a 41534b5f5348 
000088a0 5554444f574e 
000088a6 203078303175 
000088ac 00 
000088ad 01            11851 	.byte	1
000088ae 38            11852 	.byte	56
000088af 44454d5f4e56  11853 	.strz	"DEM_NVM_STATUSBITMASK_IMMEDIATE 0x02u"
000088b5 4d5f53544154 
000088bb 55534249544d 
000088c1 41534b5f494d 
000088c7 4d4544494154 
000088cd 452030783032 
000088d3 7500 

                                                                      Page 302
                                                              C:\Users\nhuliyap\AppData\Local\Temp\gh_00008cs1.s
000088d5 01            11854 	.byte	1
000088d6 3a            11855 	.byte	58
000088d7 44454d5f4e56  11856 	.strz	"DEM_NVM_STATUSBITMASK_CLEAR 0x08u"
000088dd 4d5f53544154 
000088e3 55534249544d 
000088e9 41534b5f434c 
000088ef 454152203078 
000088f5 30387500 
000088f9 01            11857 	.byte	1
000088fa 3b            11858 	.byte	59
000088fb 44454d5f4e56  11859 	.strz	"DEM_NVM_STATUSBITMASK_INVALIDATE 0x10u"
00008901 4d5f53544154 
00008907 55534249544d 
0000890d 41534b5f494e 
00008913 56414c494441 
00008919 544520307831 
0000891f 307500 
00008922 01            11860 	.byte	1
00008923 3d            11861 	.byte	61
00008924 44454d5f4e56  11862 	.strz	"DEM_NVM_STATUSBITMASK_EXCLUDE 0x40u"
0000892a 4d5f53544154 
00008930 55534249544d 
00008936 41534b5f4558 
0000893c 434c55444520 
00008942 307834307500 
00008948 01            11863 	.byte	1
00008949 41            11864 	.byte	65
0000894a 44454d5f4e56  11865 	.strz	"DEM_NVM_STATUSINDEX_SHUTDOWN 1u"
00008950 4d5f53544154 
00008956 5553494e4445 
0000895c 585f53485554 
00008962 444f574e2031 
00008968 7500 
0000896a 01            11866 	.byte	1
0000896b 42            11867 	.byte	66
0000896c 44454d5f4e56  11868 	.strz	"DEM_NVM_STATUSINDEX_IMMEDIATE 2u"
00008972 4d5f53544154 
00008978 5553494e4445 
0000897e 585f494d4d45 
00008984 444941544520 
0000898a 327500 
0000898d 01            11869 	.byte	1
0000898e 43            11870 	.byte	67
0000898f 44454d5f4e56  11871 	.strz	"DEM_NVM_STATUSINDEX_CLEAR 3u"
00008995 4d5f53544154 
0000899b 5553494e4445 
000089a1 585f434c4541 
000089a7 5220337500 
000089ac 01            11872 	.byte	1
000089ad 44            11873 	.byte	68
000089ae 44454d5f4e56  11874 	.strz	"DEM_NVM_STATUSINDEX_EXCLUDE 4u"
000089b4 4d5f53544154 
000089ba 5553494e4445 
000089c0 585f4558434c 
000089c6 554445203475 
000089cc 00 
000089cd 01            11875 	.byte	1
000089ce 47            11876 	.byte	71
000089cf 44454d5f4e56  11877 	.strz	"DEM_NVM_PENDING NVM_REQ_PENDING"
000089d5 4d5f50454e44 
000089db 494e47204e56 

                                                                      Page 303
                                                              C:\Users\nhuliyap\AppData\Local\Temp\gh_00008cs1.s
000089e1 4d5f5245515f 
000089e7 50454e44494e 
000089ed 4700 
000089ef 01            11878 	.byte	1
000089f0 48            11879 	.byte	72
000089f1 44454d5f4e56  11880 	.strz	"DEM_NVM_SUCCESS NVM_REQ_OK"
000089f7 4d5f53554343 
000089fd 455353204e56 
00008a03 4d5f5245515f 
00008a09 4f4b00 
00008a0c 01            11881 	.byte	1
00008a0d 49            11882 	.byte	73
00008a0e 44454d5f4e56  11883 	.strz	"DEM_NVM_CANCELED NVM_REQ_CANCELED"
00008a14 4d5f43414e43 
00008a1a 454c4544204e 
00008a20 564d5f524551 
00008a26 5f43414e4345 
00008a2c 4c454400 
00008a30 01            11884 	.byte	1
00008a31 4a            11885 	.byte	74
00008a32 44454d5f4e56  11886 	.strz	"DEM_NVM_FAILED NVM_REQ_NOT_OK"
00008a38 4d5f4641494c 
00008a3e 4544204e564d 
00008a44 5f5245515f4e 
00008a4a 4f545f4f4b00 
00008a50 01            11887 	.byte	1
00008a51 4b            11888 	.byte	75
00008a52 44454d5f4e56  11889 	.strz	"DEM_NVM_INVALID NVM_REQ_NV_INVALIDATED"
00008a58 4d5f494e5641 
00008a5e 4c4944204e56 
00008a64 4d5f5245515f 
00008a6a 4e565f494e56 
00008a70 414c49444154 
00008a76 454400 
00008a79 01            11890 	.byte	1
00008a7a 4c            11891 	.byte	76
00008a7b 44454d5f4e56  11892 	.strz	"DEM_NVM_INTEGRITY_FAILED NVM_REQ_INTEGRITY_FAILED"
00008a81 4d5f494e5445 
00008a87 47524954595f 
00008a8d 4641494c4544 
00008a93 204e564d5f52 
00008a99 45515f494e54 
00008a9f 454752495459 
00008aa5 5f4641494c45 
00008aab 4400 
00008aad 01            11893 	.byte	1
00008aae 4d            11894 	.byte	77
00008aaf 44454d5f4e56  11895 	.strz	"DEM_NVM_BLOCK_SKIPPED NVM_REQ_BLOCK_SKIPPED"
00008ab5 4d5f424c4f43 
00008abb 4b5f534b4950 
00008ac1 504544204e56 
00008ac7 4d5f5245515f 
00008acd 424c4f434b5f 
00008ad3 534b49505045 
00008ad9 4400 
00008adb 04            11896 	.byte	4
00008adc 03            11897 	.byte	3
00008add 0d            11898 	.byte	13
00008ade 6b            11899 	.byte	107
00008adf 01            11900 	.byte	1
00008ae0 0d            11901 	.byte	13

                                                                      Page 304
                                                              C:\Users\nhuliyap\AppData\Local\Temp\gh_00008cs1.s
00008ae1 44454d5f5354  11902 	.strz	"DEM_START_SEC_VAR_SAVED_ZONE "
00008ae7 4152545f5345 
00008aed 435f5641525f 
00008af3 53415645445f 
00008af9 5a4f4e452000 
00008aff 03            11903 	.byte	3
00008b00 0e            11904 	.byte	14
00008b01 12            11905 	.byte	18
00008b02 03            11906 	.byte	3
00008b03 08            11907 	.byte	8
00008b04 13            11908 	.byte	19
00008b05 01            11909 	.byte	1
00008b06 06            11910 	.byte	6
00008b07 44454d5f4d45  11911 	.strz	"DEM_MEMMAP_ERROR "
00008b0d 4d4d41505f45 
00008b13 52524f522000 
00008b19 01            11912 	.byte	1
00008b1a 9601          11913 	.byte	150,1
00008b1c 4253575f5354  11914 	.strz	"BSW_START_SEC_VAR_SAVED_ZONE_UNSPECIFIED "
00008b22 4152545f5345 
00008b28 435f5641525f 
00008b2e 53415645445f 
00008b34 5a4f4e455f55 
00008b3a 4e5350454349 
00008b40 464945442000 
00008b46 03            11915 	.byte	3
00008b47 9701          11916 	.byte	151,1
00008b49 14            11917 	.byte	20
00008b4a 03            11918 	.byte	3
00008b4b c509          11919 	.byte	197,9
00008b4d 15            11920 	.byte	21
00008b4e 04            11921 	.byte	4
00008b4f 04            11922 	.byte	4
00008b50 01            11923 	.byte	1
00008b51 9b01          11924 	.byte	155,1
00008b53 44454d5f5741  11925 	.strz	"DEM_WAS_STARTED_SEC_VAR_SAVED_ZONE "
00008b59 535f53544152 
00008b5f 5445445f5345 
00008b65 435f5641525f 
00008b6b 53415645445f 
00008b71 5a4f4e452000 
00008b77 04            11926 	.byte	4
00008b78 04            11927 	.byte	4
00008b79 01            11928 	.byte	1
00008b7a 14            11929 	.byte	20
00008b7b 44454d5f5354  11930 	.strz	"DEM_STOP_SEC_VAR_SAVED_ZONE "
00008b81 4f505f534543 
00008b87 5f5641525f53 
00008b8d 415645445f5a 
00008b93 4f4e452000 
00008b98 03            11931 	.byte	3
00008b99 15            11932 	.byte	21
00008b9a 12            11933 	.byte	18
00008b9b 03            11934 	.byte	3
00008b9c 08            11935 	.byte	8
00008b9d 13            11936 	.byte	19
00008b9e 01            11937 	.byte	1
00008b9f 06            11938 	.byte	6
00008ba0 44454d5f4d45  11939 	.strz	"DEM_MEMMAP_ERROR "
00008ba6 4d4d41505f45 
00008bac 52524f522000 

                                                                      Page 305
                                                              C:\Users\nhuliyap\AppData\Local\Temp\gh_00008cs1.s
00008bb2 01            11940 	.byte	1
00008bb3 a301          11941 	.byte	163,1
00008bb5 4253575f5354  11942 	.strz	"BSW_STOP_SEC_VAR_SAVED_ZONE_UNSPECIFIED "
00008bbb 4f505f534543 
00008bc1 5f5641525f53 
00008bc7 415645445f5a 
00008bcd 4f4e455f554e 
00008bd3 535045434946 
00008bd9 4945442000 
00008bde 03            11943 	.byte	3
00008bdf a401          11944 	.byte	164,1
00008be1 14            11945 	.byte	20
00008be2 03            11946 	.byte	3
00008be3 c509          11947 	.byte	197,9
00008be5 15            11948 	.byte	21
00008be6 04            11949 	.byte	4
00008be7 04            11950 	.byte	4
00008be8 04            11951 	.byte	4
00008be9 04            11952 	.byte	4
00008bea 04            11953 	.byte	4
00008beb 01            11954 	.byte	1
00008bec 0f            11955 	.byte	15
00008bed 44454d5f5354  11956 	.strz	"DEM_START_SEC_VAR_CLEARED "
00008bf3 4152545f5345 
00008bf9 435f5641525f 
00008bff 434c45415245 
00008c05 442000 
00008c08 03            11957 	.byte	3
00008c09 10            11958 	.byte	16
00008c0a 12            11959 	.byte	18
00008c0b 03            11960 	.byte	3
00008c0c 08            11961 	.byte	8
00008c0d 13            11962 	.byte	19
00008c0e 01            11963 	.byte	1
00008c0f 06            11964 	.byte	6
00008c10 44454d5f4d45  11965 	.strz	"DEM_MEMMAP_ERROR "
00008c16 4d4d41505f45 
00008c1c 52524f522000 
00008c22 01            11966 	.byte	1
00008c23 0c            11967 	.byte	12
00008c24 4253575f5354  11968 	.strz	"BSW_START_SEC_VAR_CLEARED_UNSPECIFIED "
00008c2a 4152545f5345 
00008c30 435f5641525f 
00008c36 434c45415245 
00008c3c 445f554e5350 
00008c42 454349464945 
00008c48 442000 
00008c4b 03            11969 	.byte	3
00008c4c 0d            11970 	.byte	13
00008c4d 14            11971 	.byte	20
00008c4e 01            11972 	.byte	1
00008c4f 48            11973 	.byte	72
00008c50 53544152545f  11974 	.strz	"START_SEC_VAR_CLEARED_UNSPECIFIED "
00008c56 5345435f5641 
00008c5c 525f434c4541 
00008c62 5245445f554e 
00008c68 535045434946 
00008c6e 4945442000 
00008c73 03            11975 	.byte	3
00008c74 c509          11976 	.byte	197,9
00008c76 15            11977 	.byte	21

                                                                      Page 306
                                                              C:\Users\nhuliyap\AppData\Local\Temp\gh_00008cs1.s
00008c77 01            11978 	.byte	1
00008c78 56            11979 	.byte	86
00008c79 53544152545f  11980 	.strz	"START_SEC_VAR_ZERO_INIT_UNSPECIFIED "
00008c7f 5345435f5641 
00008c85 525f5a45524f 
00008c8b 5f494e49545f 
00008c91 554e53504543 
00008c97 494649454420 
00008c9d 00 
00008c9e 01            11981 	.byte	1
00008c9f 850a          11982 	.byte	133,10
00008ca1 5641525f5345  11983 	.strz	"VAR_SEC_OPEN "
00008ca7 435f4f50454e 
00008cad 2000 
00008caf 04            11984 	.byte	4
00008cb0 04            11985 	.byte	4
00008cb1 01            11986 	.byte	1
00008cb2 11            11987 	.byte	17
00008cb3 44454d5f5741  11988 	.strz	"DEM_WAS_STARTED_SEC_VAR_CLEARED "
00008cb9 535f53544152 
00008cbf 5445445f5345 
00008cc5 435f5641525f 
00008ccb 434c45415245 
00008cd1 442000 
00008cd4 04            11989 	.byte	4
00008cd5 04            11990 	.byte	4
00008cd6 01            11991 	.byte	1
00008cd7 1b            11992 	.byte	27
00008cd8 44454d5f5354  11993 	.strz	"DEM_STOP_SEC_VAR_CLEARED "
00008cde 4f505f534543 
00008ce4 5f5641525f43 
00008cea 4c4541524544 
00008cf0 2000 
00008cf2 03            11994 	.byte	3
00008cf3 1c            11995 	.byte	28
00008cf4 12            11996 	.byte	18
00008cf5 03            11997 	.byte	3
00008cf6 08            11998 	.byte	8
00008cf7 13            11999 	.byte	19
00008cf8 01            12000 	.byte	1
00008cf9 06            12001 	.byte	6
00008cfa 44454d5f4d45  12002 	.strz	"DEM_MEMMAP_ERROR "
00008d00 4d4d41505f45 
00008d06 52524f522000 
00008d0c 01            12003 	.byte	1
00008d0d 19            12004 	.byte	25
00008d0e 4253575f5354  12005 	.strz	"BSW_STOP_SEC_VAR_CLEARED_UNSPECIFIED "
00008d14 4f505f534543 
00008d1a 5f5641525f43 
00008d20 4c4541524544 
00008d26 5f554e535045 
00008d2c 434946494544 
00008d32 2000 
00008d34 03            12006 	.byte	3
00008d35 1a            12007 	.byte	26
00008d36 14            12008 	.byte	20
00008d37 01            12009 	.byte	1
00008d38 4c            12010 	.byte	76
00008d39 53544f505f53  12011 	.strz	"STOP_SEC_VAR "
00008d3f 45435f564152 
00008d45 2000 

                                                                      Page 307
                                                              C:\Users\nhuliyap\AppData\Local\Temp\gh_00008cs1.s
00008d47 03            12012 	.byte	3
00008d48 c509          12013 	.byte	197,9
00008d4a 15            12014 	.byte	21
00008d4b 04            12015 	.byte	4
00008d4c 04            12016 	.byte	4
00008d4d 04            12017 	.byte	4
00008d4e 04            12018 	.byte	4
00008d4f 01            12019 	.byte	1
00008d50 1e            12020 	.byte	30
00008d51 44454d5f5354  12021 	.strz	"DEM_START_SEC_CONST "
00008d57 4152545f5345 
00008d5d 435f434f4e53 
00008d63 542000 
00008d66 03            12022 	.byte	3
00008d67 1f            12023 	.byte	31
00008d68 12            12024 	.byte	18
00008d69 03            12025 	.byte	3
00008d6a 08            12026 	.byte	8
00008d6b 13            12027 	.byte	19
00008d6c 01            12028 	.byte	1
00008d6d 06            12029 	.byte	6
00008d6e 44454d5f4d45  12030 	.strz	"DEM_MEMMAP_ERROR "
00008d74 4d4d41505f45 
00008d7a 52524f522000 
00008d80 01            12031 	.byte	1
00008d81 3a            12032 	.byte	58
00008d82 4253575f5354  12033 	.strz	"BSW_START_SEC_CONST_UNSPECIFIED "
00008d88 4152545f5345 
00008d8e 435f434f4e53 
00008d94 545f554e5350 
00008d9a 454349464945 
00008da0 442000 
00008da3 03            12034 	.byte	3
00008da4 3b            12035 	.byte	59
00008da5 14            12036 	.byte	20
00008da6 01            12037 	.byte	1
00008da7 fa05          12038 	.byte	250,5
00008da9 53544152545f  12039 	.strz	"START_SEC_CONST_UNSPECIFIED "
00008daf 5345435f434f 
00008db5 4e53545f554e 
00008dbb 535045434946 
00008dc1 4945442000 
00008dc6 03            12040 	.byte	3
00008dc7 c509          12041 	.byte	197,9
00008dc9 15            12042 	.byte	21
00008dca 01            12043 	.byte	1
00008dcb b508          12044 	.byte	181,8
00008dcd 434f4e53545f  12045 	.strz	"CONST_SEC_OPEN "
00008dd3 5345435f4f50 
00008dd9 454e2000 
00008ddd 04            12046 	.byte	4
00008dde 04            12047 	.byte	4
00008ddf 01            12048 	.byte	1
00008de0 3f            12049 	.byte	63
00008de1 44454d5f5741  12050 	.strz	"DEM_WAS_STARTED_SEC_CONST "
00008de7 535f53544152 
00008ded 5445445f5345 
00008df3 435f434f4e53 
00008df9 542000 
00008dfc 04            12051 	.byte	4
00008dfd 04            12052 	.byte	4

                                                                      Page 308
                                                              C:\Users\nhuliyap\AppData\Local\Temp\gh_00008cs1.s
00008dfe 01            12053 	.byte	1
00008dff 28            12054 	.byte	40
00008e00 44454d5f5354  12055 	.strz	"DEM_STOP_SEC_CONST "
00008e06 4f505f534543 
00008e0c 5f434f4e5354 
00008e12 2000 
00008e14 03            12056 	.byte	3
00008e15 29            12057 	.byte	41
00008e16 12            12058 	.byte	18
00008e17 03            12059 	.byte	3
00008e18 08            12060 	.byte	8
00008e19 13            12061 	.byte	19
00008e1a 01            12062 	.byte	1
00008e1b 06            12063 	.byte	6
00008e1c 44454d5f4d45  12064 	.strz	"DEM_MEMMAP_ERROR "
00008e22 4d4d41505f45 
00008e28 52524f522000 
00008e2e 01            12065 	.byte	1
00008e2f 47            12066 	.byte	71
00008e30 4253575f5354  12067 	.strz	"BSW_STOP_SEC_CONST_UNSPECIFIED "
00008e36 4f505f534543 
00008e3c 5f434f4e5354 
00008e42 5f554e535045 
00008e48 434946494544 
00008e4e 2000 
00008e50 03            12068 	.byte	3
00008e51 48            12069 	.byte	72
00008e52 14            12070 	.byte	20
00008e53 01            12071 	.byte	1
00008e54 fe05          12072 	.byte	254,5
00008e56 53544f505f53  12073 	.strz	"STOP_SEC_CONST "
00008e5c 45435f434f4e 
00008e62 53542000 
00008e66 03            12074 	.byte	3
00008e67 c509          12075 	.byte	197,9
00008e69 15            12076 	.byte	21
00008e6a 04            12077 	.byte	4
00008e6b 04            12078 	.byte	4
00008e6c 04            12079 	.byte	4
00008e6d 04            12080 	.byte	4
00008e6e 04            12081 	.byte	4
00008e6f 03            12082 	.byte	3
00008e70 1c            12083 	.byte	28
00008e71 6c            12084 	.byte	108
00008e72 03            12085 	.byte	3
00008e73 0f            12086 	.byte	15
00008e74 6d            12087 	.byte	109
00008e75 04            12088 	.byte	4
00008e76 03            12089 	.byte	3
00008e77 11            12090 	.byte	17
00008e78 6e            12091 	.byte	110
00008e79 03            12092 	.byte	3
00008e7a 06            12093 	.byte	6
00008e7b 6f            12094 	.byte	111
00008e7c 04            12095 	.byte	4
00008e7d 04            12096 	.byte	4
00008e7e 04            12097 	.byte	4
00008e7f 03            12098 	.byte	3
00008e80 1e            12099 	.byte	30
00008e81 70            12100 	.byte	112
00008e82 01            12101 	.byte	1

                                                                      Page 309
                                                              C:\Users\nhuliyap\AppData\Local\Temp\gh_00008cs1.s
00008e83 0b            12102 	.byte	11
00008e84 44454d5f5354  12103 	.strz	"DEM_START_SEC_VAR_SAVED_ZONE "
00008e8a 4152545f5345 
00008e90 435f5641525f 
00008e96 53415645445f 
00008e9c 5a4f4e452000 
00008ea2 03            12104 	.byte	3
00008ea3 0c            12105 	.byte	12
00008ea4 12            12106 	.byte	18
00008ea5 03            12107 	.byte	3
00008ea6 08            12108 	.byte	8
00008ea7 13            12109 	.byte	19
00008ea8 01            12110 	.byte	1
00008ea9 06            12111 	.byte	6
00008eaa 44454d5f4d45  12112 	.strz	"DEM_MEMMAP_ERROR "
00008eb0 4d4d41505f45 
00008eb6 52524f522000 
00008ebc 01            12113 	.byte	1
00008ebd 9601          12114 	.byte	150,1
00008ebf 4253575f5354  12115 	.strz	"BSW_START_SEC_VAR_SAVED_ZONE_UNSPECIFIED "
00008ec5 4152545f5345 
00008ecb 435f5641525f 
00008ed1 53415645445f 
00008ed7 5a4f4e455f55 
00008edd 4e5350454349 
00008ee3 464945442000 
00008ee9 03            12116 	.byte	3
00008eea 9701          12117 	.byte	151,1
00008eec 14            12118 	.byte	20
00008eed 03            12119 	.byte	3
00008eee c509          12120 	.byte	197,9
00008ef0 15            12121 	.byte	21
00008ef1 04            12122 	.byte	4
00008ef2 04            12123 	.byte	4
00008ef3 01            12124 	.byte	1
00008ef4 9b01          12125 	.byte	155,1
00008ef6 44454d5f5741  12126 	.strz	"DEM_WAS_STARTED_SEC_VAR_SAVED_ZONE "
00008efc 535f53544152 
00008f02 5445445f5345 
00008f08 435f5641525f 
00008f0e 53415645445f 
00008f14 5a4f4e452000 
00008f1a 04            12127 	.byte	4
00008f1b 04            12128 	.byte	4
00008f1c 01            12129 	.byte	1
00008f1d 14            12130 	.byte	20
00008f1e 44454d5f5354  12131 	.strz	"DEM_STOP_SEC_VAR_SAVED_ZONE "
00008f24 4f505f534543 
00008f2a 5f5641525f53 
00008f30 415645445f5a 
00008f36 4f4e452000 
00008f3b 03            12132 	.byte	3
00008f3c 15            12133 	.byte	21
00008f3d 12            12134 	.byte	18
00008f3e 03            12135 	.byte	3
00008f3f 08            12136 	.byte	8
00008f40 13            12137 	.byte	19
00008f41 01            12138 	.byte	1
00008f42 06            12139 	.byte	6
00008f43 44454d5f4d45  12140 	.strz	"DEM_MEMMAP_ERROR "
00008f49 4d4d41505f45 

                                                                      Page 310
                                                              C:\Users\nhuliyap\AppData\Local\Temp\gh_00008cs1.s
00008f4f 52524f522000 
00008f55 01            12141 	.byte	1
00008f56 a301          12142 	.byte	163,1
00008f58 4253575f5354  12143 	.strz	"BSW_STOP_SEC_VAR_SAVED_ZONE_UNSPECIFIED "
00008f5e 4f505f534543 
00008f64 5f5641525f53 
00008f6a 415645445f5a 
00008f70 4f4e455f554e 
00008f76 535045434946 
00008f7c 4945442000 
00008f81 03            12144 	.byte	3
00008f82 a401          12145 	.byte	164,1
00008f84 14            12146 	.byte	20
00008f85 03            12147 	.byte	3
00008f86 c509          12148 	.byte	197,9
00008f88 15            12149 	.byte	21
00008f89 04            12150 	.byte	4
00008f8a 04            12151 	.byte	4
00008f8b 04            12152 	.byte	4
00008f8c 04            12153 	.byte	4
00008f8d 04            12154 	.byte	4
00008f8e 03            12155 	.byte	3
00008f8f 20            12156 	.byte	32
00008f90 71            12157 	.byte	113
00008f91 03            12158 	.byte	3
00008f92 21            12159 	.byte	33
00008f93 72            12160 	.byte	114
00008f94 04            12161 	.byte	4
00008f95 03            12162 	.byte	3
00008f96 22            12163 	.byte	34
00008f97 73            12164 	.byte	115
00008f98 03            12165 	.byte	3
00008f99 06            12166 	.byte	6
00008f9a 74            12167 	.byte	116
00008f9b 03            12168 	.byte	3
00008f9c 09            12169 	.byte	9
00008f9d 75            12170 	.byte	117
00008f9e 04            12171 	.byte	4
00008f9f 01            12172 	.byte	1
00008fa0 25            12173 	.byte	37
00008fa1 44454d5f5354  12174 	.strz	"DEM_START_SEC_CONST "
00008fa7 4152545f5345 
00008fad 435f434f4e53 
00008fb3 542000 
00008fb6 03            12175 	.byte	3
00008fb7 26            12176 	.byte	38
00008fb8 12            12177 	.byte	18
00008fb9 03            12178 	.byte	3
00008fba 08            12179 	.byte	8
00008fbb 13            12180 	.byte	19
00008fbc 01            12181 	.byte	1
00008fbd 06            12182 	.byte	6
00008fbe 44454d5f4d45  12183 	.strz	"DEM_MEMMAP_ERROR "
00008fc4 4d4d41505f45 
00008fca 52524f522000 
00008fd0 01            12184 	.byte	1
00008fd1 3a            12185 	.byte	58
00008fd2 4253575f5354  12186 	.strz	"BSW_START_SEC_CONST_UNSPECIFIED "
00008fd8 4152545f5345 
00008fde 435f434f4e53 
00008fe4 545f554e5350 

                                                                      Page 311
                                                              C:\Users\nhuliyap\AppData\Local\Temp\gh_00008cs1.s
00008fea 454349464945 
00008ff0 442000 
00008ff3 03            12187 	.byte	3
00008ff4 3b            12188 	.byte	59
00008ff5 14            12189 	.byte	20
00008ff6 01            12190 	.byte	1
00008ff7 fa05          12191 	.byte	250,5
00008ff9 53544152545f  12192 	.strz	"START_SEC_CONST_UNSPECIFIED "
00008fff 5345435f434f 
00009005 4e53545f554e 
0000900b 535045434946 
00009011 4945442000 
00009016 03            12193 	.byte	3
00009017 c509          12194 	.byte	197,9
00009019 15            12195 	.byte	21
0000901a 01            12196 	.byte	1
0000901b b508          12197 	.byte	181,8
0000901d 434f4e53545f  12198 	.strz	"CONST_SEC_OPEN "
00009023 5345435f4f50 
00009029 454e2000 
0000902d 04            12199 	.byte	4
0000902e 04            12200 	.byte	4
0000902f 01            12201 	.byte	1
00009030 3f            12202 	.byte	63
00009031 44454d5f5741  12203 	.strz	"DEM_WAS_STARTED_SEC_CONST "
00009037 535f53544152 
0000903d 5445445f5345 
00009043 435f434f4e53 
00009049 542000 
0000904c 04            12204 	.byte	4
0000904d 04            12205 	.byte	4
0000904e 01            12206 	.byte	1
0000904f 28            12207 	.byte	40
00009050 44454d5f5354  12208 	.strz	"DEM_STOP_SEC_CONST "
00009056 4f505f534543 
0000905c 5f434f4e5354 
00009062 2000 
00009064 03            12209 	.byte	3
00009065 29            12210 	.byte	41
00009066 12            12211 	.byte	18
00009067 03            12212 	.byte	3
00009068 08            12213 	.byte	8
00009069 13            12214 	.byte	19
0000906a 01            12215 	.byte	1
0000906b 06            12216 	.byte	6
0000906c 44454d5f4d45  12217 	.strz	"DEM_MEMMAP_ERROR "
00009072 4d4d41505f45 
00009078 52524f522000 
0000907e 01            12218 	.byte	1
0000907f 47            12219 	.byte	71
00009080 4253575f5354  12220 	.strz	"BSW_STOP_SEC_CONST_UNSPECIFIED "
00009086 4f505f534543 
0000908c 5f434f4e5354 
00009092 5f554e535045 
00009098 434946494544 
0000909e 2000 
000090a0 03            12221 	.byte	3
000090a1 48            12222 	.byte	72
000090a2 14            12223 	.byte	20
000090a3 01            12224 	.byte	1
000090a4 fe05          12225 	.byte	254,5

                                                                      Page 312
                                                              C:\Users\nhuliyap\AppData\Local\Temp\gh_00008cs1.s
000090a6 53544f505f53  12226 	.strz	"STOP_SEC_CONST "
000090ac 45435f434f4e 
000090b2 53542000 
000090b6 03            12227 	.byte	3
000090b7 c509          12228 	.byte	197,9
000090b9 15            12229 	.byte	21
000090ba 04            12230 	.byte	4
000090bb 04            12231 	.byte	4
000090bc 04            12232 	.byte	4
000090bd 04            12233 	.byte	4
000090be 01            12234 	.byte	1
000090bf 8d01          12235 	.byte	141,1
000090c1 44454d5f5354  12236 	.strz	"DEM_START_SEC_CODE "
000090c7 4152545f5345 
000090cd 435f434f4445 
000090d3 2000 
000090d5 03            12237 	.byte	3
000090d6 8e01          12238 	.byte	142,1
000090d8 12            12239 	.byte	18
000090d9 03            12240 	.byte	3
000090da 08            12241 	.byte	8
000090db 13            12242 	.byte	19
000090dc 01            12243 	.byte	1
000090dd 06            12244 	.byte	6
000090de 44454d5f4d45  12245 	.strz	"DEM_MEMMAP_ERROR "
000090e4 4d4d41505f45 
000090ea 52524f522000 
000090f0 01            12246 	.byte	1
000090f1 51            12247 	.byte	81
000090f2 4253575f5354  12248 	.strz	"BSW_START_SEC_CODE "
000090f8 4152545f5345 
000090fe 435f434f4445 
00009104 2000 
00009106 03            12249 	.byte	3
00009107 52            12250 	.byte	82
00009108 14            12251 	.byte	20
00009109 01            12252 	.byte	1
0000910a e408          12253 	.byte	228,8
0000910c 53544152545f  12254 	.strz	"START_SEC_CODE "
00009112 5345435f434f 
00009118 44452000 
0000911c 03            12255 	.byte	3
0000911d c509          12256 	.byte	197,9
0000911f 15            12257 	.byte	21
00009120 01            12258 	.byte	1
00009121 f407          12259 	.byte	244,7
00009123 434f44455f53  12260 	.strz	"CODE_SEC_OPEN "
00009129 45435f4f5045 
0000912f 4e2000 
00009132 04            12261 	.byte	4
00009133 04            12262 	.byte	4
00009134 01            12263 	.byte	1
00009135 56            12264 	.byte	86
00009136 44454d5f5741  12265 	.strz	"DEM_WAS_STARTED_SEC_CODE "
0000913c 535f53544152 
00009142 5445445f5345 
00009148 435f434f4445 
0000914e 2000 
00009150 04            12266 	.byte	4
00009151 04            12267 	.byte	4
00009152 01            12268 	.byte	1

                                                                      Page 313
                                                              C:\Users\nhuliyap\AppData\Local\Temp\gh_00008cs1.s
00009153 cd01          12269 	.byte	205,1
00009155 44454d5f5354  12270 	.strz	"DEM_STOP_SEC_CODE "
0000915b 4f505f534543 
00009161 5f434f444520 
00009167 00 
00009168 03            12271 	.byte	3
00009169 ce01          12272 	.byte	206,1
0000916b 12            12273 	.byte	18
0000916c 03            12274 	.byte	3
0000916d 08            12275 	.byte	8
0000916e 13            12276 	.byte	19
0000916f 01            12277 	.byte	1
00009170 06            12278 	.byte	6
00009171 44454d5f4d45  12279 	.strz	"DEM_MEMMAP_ERROR "
00009177 4d4d41505f45 
0000917d 52524f522000 
00009183 01            12280 	.byte	1
00009184 5e            12281 	.byte	94
00009185 4253575f5354  12282 	.strz	"BSW_STOP_SEC_CODE "
0000918b 4f505f534543 
00009191 5f434f444520 
00009197 00 
00009198 03            12283 	.byte	3
00009199 5f            12284 	.byte	95
0000919a 14            12285 	.byte	20
0000919b 01            12286 	.byte	1
0000919c e808          12287 	.byte	232,8
0000919e 53544f505f53  12288 	.strz	"STOP_SEC_CODE "
000091a4 45435f434f44 
000091aa 452000 
000091ad 03            12289 	.byte	3
000091ae c509          12290 	.byte	197,9
000091b0 15            12291 	.byte	21
000091b1 04            12292 	.byte	4
000091b2 04            12293 	.byte	4
000091b3 04            12294 	.byte	4
000091b4 04            12295 	.byte	4
000091b5 04            12296 	.byte	4
000091b6 04            12297 	.byte	4
000091b7 03            12298 	.byte	3
000091b8 23            12299 	.byte	35
000091b9 76            12300 	.byte	118
000091ba 01            12301 	.byte	1
000091bb 06            12302 	.byte	6
000091bc 44656d5f4d61  12303 	.strz	"Dem_MaxDataValueTypeSize 8"
000091c2 784461746156 
000091c8 616c75655479 
000091ce 706553697a65 
000091d4 203800 
000091d7 04            12304 	.byte	4
000091d8 01            12305 	.byte	1
000091d9 32            12306 	.byte	50
000091da 44454d5f4e4f  12307 	.strz	"DEM_NO_STATUS_BYTE_CHANGE (0u)"
000091e0 5f5354415455 
000091e6 535f42595445 
000091ec 5f4348414e47 
000091f2 452028307529 
000091f8 00 
000091f9 01            12308 	.byte	1
000091fa 48            12309 	.byte	72
000091fb 44454d5f5354  12310 	.strz	"DEM_START_SEC_CONST "

                                                                      Page 314
                                                              C:\Users\nhuliyap\AppData\Local\Temp\gh_00008cs1.s
00009201 4152545f5345 
00009207 435f434f4e53 
0000920d 542000 
00009210 03            12311 	.byte	3
00009211 49            12312 	.byte	73
00009212 12            12313 	.byte	18
00009213 03            12314 	.byte	3
00009214 08            12315 	.byte	8
00009215 13            12316 	.byte	19
00009216 01            12317 	.byte	1
00009217 06            12318 	.byte	6
00009218 44454d5f4d45  12319 	.strz	"DEM_MEMMAP_ERROR "
0000921e 4d4d41505f45 
00009224 52524f522000 
0000922a 01            12320 	.byte	1
0000922b 3a            12321 	.byte	58
0000922c 4253575f5354  12322 	.strz	"BSW_START_SEC_CONST_UNSPECIFIED "
00009232 4152545f5345 
00009238 435f434f4e53 
0000923e 545f554e5350 
00009244 454349464945 
0000924a 442000 
0000924d 03            12323 	.byte	3
0000924e 3b            12324 	.byte	59
0000924f 14            12325 	.byte	20
00009250 01            12326 	.byte	1
00009251 fa05          12327 	.byte	250,5
00009253 53544152545f  12328 	.strz	"START_SEC_CONST_UNSPECIFIED "
00009259 5345435f434f 
0000925f 4e53545f554e 
00009265 535045434946 
0000926b 4945442000 
00009270 03            12329 	.byte	3
00009271 c509          12330 	.byte	197,9
00009273 15            12331 	.byte	21
00009274 01            12332 	.byte	1
00009275 b508          12333 	.byte	181,8
00009277 434f4e53545f  12334 	.strz	"CONST_SEC_OPEN "
0000927d 5345435f4f50 
00009283 454e2000 
00009287 04            12335 	.byte	4
00009288 04            12336 	.byte	4
00009289 01            12337 	.byte	1
0000928a 3f            12338 	.byte	63
0000928b 44454d5f5741  12339 	.strz	"DEM_WAS_STARTED_SEC_CONST "
00009291 535f53544152 
00009297 5445445f5345 
0000929d 435f434f4e53 
000092a3 542000 
000092a6 04            12340 	.byte	4
000092a7 04            12341 	.byte	4
000092a8 01            12342 	.byte	1
000092a9 e701          12343 	.byte	231,1
000092ab 44454d5f5354  12344 	.strz	"DEM_STOP_SEC_CONST "
000092b1 4f505f534543 
000092b7 5f434f4e5354 
000092bd 2000 
000092bf 03            12345 	.byte	3
000092c0 e801          12346 	.byte	232,1
000092c2 12            12347 	.byte	18
000092c3 03            12348 	.byte	3

                                                                      Page 315
                                                              C:\Users\nhuliyap\AppData\Local\Temp\gh_00008cs1.s
000092c4 08            12349 	.byte	8
000092c5 13            12350 	.byte	19
000092c6 01            12351 	.byte	1
000092c7 06            12352 	.byte	6
000092c8 44454d5f4d45  12353 	.strz	"DEM_MEMMAP_ERROR "
000092ce 4d4d41505f45 
000092d4 52524f522000 
000092da 01            12354 	.byte	1
000092db 47            12355 	.byte	71
000092dc 4253575f5354  12356 	.strz	"BSW_STOP_SEC_CONST_UNSPECIFIED "
000092e2 4f505f534543 
000092e8 5f434f4e5354 
000092ee 5f554e535045 
000092f4 434946494544 
000092fa 2000 
000092fc 03            12357 	.byte	3
000092fd 48            12358 	.byte	72
000092fe 14            12359 	.byte	20
000092ff 01            12360 	.byte	1
00009300 fe05          12361 	.byte	254,5
00009302 53544f505f53  12362 	.strz	"STOP_SEC_CONST "
00009308 45435f434f4e 
0000930e 53542000 
00009312 03            12363 	.byte	3
00009313 c509          12364 	.byte	197,9
00009315 15            12365 	.byte	21
00009316 04            12366 	.byte	4
00009317 04            12367 	.byte	4
00009318 04            12368 	.byte	4
00009319 04            12369 	.byte	4
0000931a 04            12370 	.byte	4
0000931b 01            12371 	.byte	1
0000931c 64            12372 	.byte	100
0000931d 44454d5f5354  12373 	.strz	"DEM_START_SEC_CONST "
00009323 4152545f5345 
00009329 435f434f4e53 
0000932f 542000 
00009332 03            12374 	.byte	3
00009333 65            12375 	.byte	101
00009334 12            12376 	.byte	18
00009335 03            12377 	.byte	3
00009336 08            12378 	.byte	8
00009337 13            12379 	.byte	19
00009338 01            12380 	.byte	1
00009339 06            12381 	.byte	6
0000933a 44454d5f4d45  12382 	.strz	"DEM_MEMMAP_ERROR "
00009340 4d4d41505f45 
00009346 52524f522000 
0000934c 01            12383 	.byte	1
0000934d 3a            12384 	.byte	58
0000934e 4253575f5354  12385 	.strz	"BSW_START_SEC_CONST_UNSPECIFIED "
00009354 4152545f5345 
0000935a 435f434f4e53 
00009360 545f554e5350 
00009366 454349464945 
0000936c 442000 
0000936f 03            12386 	.byte	3
00009370 3b            12387 	.byte	59
00009371 14            12388 	.byte	20
00009372 01            12389 	.byte	1
00009373 fa05          12390 	.byte	250,5

                                                                      Page 316
                                                              C:\Users\nhuliyap\AppData\Local\Temp\gh_00008cs1.s
00009375 53544152545f  12391 	.strz	"START_SEC_CONST_UNSPECIFIED "
0000937b 5345435f434f 
00009381 4e53545f554e 
00009387 535045434946 
0000938d 4945442000 
00009392 03            12392 	.byte	3
00009393 c509          12393 	.byte	197,9
00009395 15            12394 	.byte	21
00009396 01            12395 	.byte	1
00009397 b508          12396 	.byte	181,8
00009399 434f4e53545f  12397 	.strz	"CONST_SEC_OPEN "
0000939f 5345435f4f50 
000093a5 454e2000 
000093a9 04            12398 	.byte	4
000093aa 04            12399 	.byte	4
000093ab 01            12400 	.byte	1
000093ac 3f            12401 	.byte	63
000093ad 44454d5f5741  12402 	.strz	"DEM_WAS_STARTED_SEC_CONST "
000093b3 535f53544152 
000093b9 5445445f5345 
000093bf 435f434f4e53 
000093c5 542000 
000093c8 04            12403 	.byte	4
000093c9 04            12404 	.byte	4
000093ca 01            12405 	.byte	1
000093cb 77            12406 	.byte	119
000093cc 44454d5f5354  12407 	.strz	"DEM_STOP_SEC_CONST "
000093d2 4f505f534543 
000093d8 5f434f4e5354 
000093de 2000 
000093e0 03            12408 	.byte	3
000093e1 78            12409 	.byte	120
000093e2 12            12410 	.byte	18
000093e3 03            12411 	.byte	3
000093e4 08            12412 	.byte	8
000093e5 13            12413 	.byte	19
000093e6 01            12414 	.byte	1
000093e7 06            12415 	.byte	6
000093e8 44454d5f4d45  12416 	.strz	"DEM_MEMMAP_ERROR "
000093ee 4d4d41505f45 
000093f4 52524f522000 
000093fa 01            12417 	.byte	1
000093fb 47            12418 	.byte	71
000093fc 4253575f5354  12419 	.strz	"BSW_STOP_SEC_CONST_UNSPECIFIED "
00009402 4f505f534543 
00009408 5f434f4e5354 
0000940e 5f554e535045 
00009414 434946494544 
0000941a 2000 
0000941c 03            12420 	.byte	3
0000941d 48            12421 	.byte	72
0000941e 14            12422 	.byte	20
0000941f 01            12423 	.byte	1
00009420 fe05          12424 	.byte	254,5
00009422 53544f505f53  12425 	.strz	"STOP_SEC_CONST "
00009428 45435f434f4e 
0000942e 53542000 
00009432 03            12426 	.byte	3
00009433 c509          12427 	.byte	197,9
00009435 15            12428 	.byte	21
00009436 04            12429 	.byte	4

                                                                      Page 317
                                                              C:\Users\nhuliyap\AppData\Local\Temp\gh_00008cs1.s
00009437 04            12430 	.byte	4
00009438 04            12431 	.byte	4
00009439 04            12432 	.byte	4
0000943a 01            12433 	.byte	1
0000943b 7a            12434 	.byte	122
0000943c 44454d5f5354  12435 	.strz	"DEM_START_SEC_VAR_CLEARED "
00009442 4152545f5345 
00009448 435f5641525f 
0000944e 434c45415245 
00009454 442000 
00009457 03            12436 	.byte	3
00009458 7b            12437 	.byte	123
00009459 12            12438 	.byte	18
0000945a 03            12439 	.byte	3
0000945b 08            12440 	.byte	8
0000945c 13            12441 	.byte	19
0000945d 01            12442 	.byte	1
0000945e 06            12443 	.byte	6
0000945f 44454d5f4d45  12444 	.strz	"DEM_MEMMAP_ERROR "
00009465 4d4d41505f45 
0000946b 52524f522000 
00009471 01            12445 	.byte	1
00009472 0c            12446 	.byte	12
00009473 4253575f5354  12447 	.strz	"BSW_START_SEC_VAR_CLEARED_UNSPECIFIED "
00009479 4152545f5345 
0000947f 435f5641525f 
00009485 434c45415245 
0000948b 445f554e5350 
00009491 454349464945 
00009497 442000 
0000949a 03            12448 	.byte	3
0000949b 0d            12449 	.byte	13
0000949c 14            12450 	.byte	20
0000949d 01            12451 	.byte	1
0000949e 48            12452 	.byte	72
0000949f 53544152545f  12453 	.strz	"START_SEC_VAR_CLEARED_UNSPECIFIED "
000094a5 5345435f5641 
000094ab 525f434c4541 
000094b1 5245445f554e 
000094b7 535045434946 
000094bd 4945442000 
000094c2 03            12454 	.byte	3
000094c3 c509          12455 	.byte	197,9
000094c5 15            12456 	.byte	21
000094c6 01            12457 	.byte	1
000094c7 56            12458 	.byte	86
000094c8 53544152545f  12459 	.strz	"START_SEC_VAR_ZERO_INIT_UNSPECIFIED "
000094ce 5345435f5641 
000094d4 525f5a45524f 
000094da 5f494e49545f 
000094e0 554e53504543 
000094e6 494649454420 
000094ec 00 
000094ed 01            12460 	.byte	1
000094ee 850a          12461 	.byte	133,10
000094f0 5641525f5345  12462 	.strz	"VAR_SEC_OPEN "
000094f6 435f4f50454e 
000094fc 2000 
000094fe 04            12463 	.byte	4
000094ff 04            12464 	.byte	4
00009500 01            12465 	.byte	1

                                                                      Page 318
                                                              C:\Users\nhuliyap\AppData\Local\Temp\gh_00008cs1.s
00009501 11            12466 	.byte	17
00009502 44454d5f5741  12467 	.strz	"DEM_WAS_STARTED_SEC_VAR_CLEARED "
00009508 535f53544152 
0000950e 5445445f5345 
00009514 435f5641525f 
0000951a 434c45415245 
00009520 442000 
00009523 04            12468 	.byte	4
00009524 04            12469 	.byte	4
00009525 01            12470 	.byte	1
00009526 8501          12471 	.byte	133,1
00009528 44454d5f5354  12472 	.strz	"DEM_STOP_SEC_VAR_CLEARED "
0000952e 4f505f534543 
00009534 5f5641525f43 
0000953a 4c4541524544 
00009540 2000 
00009542 03            12473 	.byte	3
00009543 8601          12474 	.byte	134,1
00009545 12            12475 	.byte	18
00009546 03            12476 	.byte	3
00009547 08            12477 	.byte	8
00009548 13            12478 	.byte	19
00009549 01            12479 	.byte	1
0000954a 06            12480 	.byte	6
0000954b 44454d5f4d45  12481 	.strz	"DEM_MEMMAP_ERROR "
00009551 4d4d41505f45 
00009557 52524f522000 
0000955d 01            12482 	.byte	1
0000955e 19            12483 	.byte	25
0000955f 4253575f5354  12484 	.strz	"BSW_STOP_SEC_VAR_CLEARED_UNSPECIFIED "
00009565 4f505f534543 
0000956b 5f5641525f43 
00009571 4c4541524544 
00009577 5f554e535045 
0000957d 434946494544 
00009583 2000 
00009585 03            12485 	.byte	3
00009586 1a            12486 	.byte	26
00009587 14            12487 	.byte	20
00009588 01            12488 	.byte	1
00009589 4c            12489 	.byte	76
0000958a 53544f505f53  12490 	.strz	"STOP_SEC_VAR "
00009590 45435f564152 
00009596 2000 
00009598 03            12491 	.byte	3
00009599 c509          12492 	.byte	197,9
0000959b 15            12493 	.byte	21
0000959c 04            12494 	.byte	4
0000959d 04            12495 	.byte	4
0000959e 04            12496 	.byte	4
0000959f 04            12497 	.byte	4
000095a0 01            12498 	.byte	1
000095a1 e201          12499 	.byte	226,1
000095a3 44454d5f5354  12500 	.strz	"DEM_START_SEC_CODE "
000095a9 4152545f5345 
000095af 435f434f4445 
000095b5 2000 
000095b7 03            12501 	.byte	3
000095b8 e301          12502 	.byte	227,1
000095ba 12            12503 	.byte	18
000095bb 03            12504 	.byte	3

                                                                      Page 319
                                                              C:\Users\nhuliyap\AppData\Local\Temp\gh_00008cs1.s
000095bc 08            12505 	.byte	8
000095bd 13            12506 	.byte	19
000095be 01            12507 	.byte	1
000095bf 06            12508 	.byte	6
000095c0 44454d5f4d45  12509 	.strz	"DEM_MEMMAP_ERROR "
000095c6 4d4d41505f45 
000095cc 52524f522000 
000095d2 01            12510 	.byte	1
000095d3 51            12511 	.byte	81
000095d4 4253575f5354  12512 	.strz	"BSW_START_SEC_CODE "
000095da 4152545f5345 
000095e0 435f434f4445 
000095e6 2000 
000095e8 03            12513 	.byte	3
000095e9 52            12514 	.byte	82
000095ea 14            12515 	.byte	20
000095eb 01            12516 	.byte	1
000095ec e408          12517 	.byte	228,8
000095ee 53544152545f  12518 	.strz	"START_SEC_CODE "
000095f4 5345435f434f 
000095fa 44452000 
000095fe 03            12519 	.byte	3
000095ff c509          12520 	.byte	197,9
00009601 15            12521 	.byte	21
00009602 01            12522 	.byte	1
00009603 f407          12523 	.byte	244,7
00009605 434f44455f53  12524 	.strz	"CODE_SEC_OPEN "
0000960b 45435f4f5045 
00009611 4e2000 
00009614 04            12525 	.byte	4
00009615 04            12526 	.byte	4
00009616 01            12527 	.byte	1
00009617 56            12528 	.byte	86
00009618 44454d5f5741  12529 	.strz	"DEM_WAS_STARTED_SEC_CODE "
0000961e 535f53544152 
00009624 5445445f5345 
0000962a 435f434f4445 
00009630 2000 
00009632 04            12530 	.byte	4
00009633 04            12531 	.byte	4
00009634 01            12532 	.byte	1
00009635 f401          12533 	.byte	244,1
00009637 44454d5f5354  12534 	.strz	"DEM_STOP_SEC_CODE "
0000963d 4f505f534543 
00009643 5f434f444520 
00009649 00 
0000964a 03            12535 	.byte	3
0000964b f501          12536 	.byte	245,1
0000964d 12            12537 	.byte	18
0000964e 03            12538 	.byte	3
0000964f 08            12539 	.byte	8
00009650 13            12540 	.byte	19
00009651 01            12541 	.byte	1
00009652 06            12542 	.byte	6
00009653 44454d5f4d45  12543 	.strz	"DEM_MEMMAP_ERROR "
00009659 4d4d41505f45 
0000965f 52524f522000 
00009665 01            12544 	.byte	1
00009666 5e            12545 	.byte	94
00009667 4253575f5354  12546 	.strz	"BSW_STOP_SEC_CODE "
0000966d 4f505f534543 

                                                                      Page 320
                                                              C:\Users\nhuliyap\AppData\Local\Temp\gh_00008cs1.s
00009673 5f434f444520 
00009679 00 
0000967a 03            12547 	.byte	3
0000967b 5f            12548 	.byte	95
0000967c 14            12549 	.byte	20
0000967d 01            12550 	.byte	1
0000967e e808          12551 	.byte	232,8
00009680 53544f505f53  12552 	.strz	"STOP_SEC_CODE "
00009686 45435f434f44 
0000968c 452000 
0000968f 03            12553 	.byte	3
00009690 c509          12554 	.byte	197,9
00009692 15            12555 	.byte	21
00009693 04            12556 	.byte	4
00009694 04            12557 	.byte	4
00009695 04            12558 	.byte	4
00009696 04            12559 	.byte	4
00009697 04            12560 	.byte	4
00009698 03            12561 	.byte	3
00009699 0f            12562 	.byte	15
0000969a 77            12563 	.byte	119
0000969b 01            12564 	.byte	1
0000969c 09            12565 	.byte	9
0000969d 44454d5f4346  12566 	.strz	"DEM_CFG_SETTING_PENDINGDTC_INDEPENDENT_FROM_STOCO FALSE"
000096a3 475f53455454 
000096a9 494e475f5045 
000096af 4e44494e4744 
000096b5 54435f494e44 
000096bb 4550454e4445 
000096c1 4e545f46524f 
000096c7 4d5f53544f43 
000096cd 4f2046414c53 
000096d3 4500 
000096d5 04            12567 	.byte	4
000096d6 01            12568 	.byte	1
000096d7 11            12569 	.byte	17
000096d8 44454d5f5354  12570 	.strz	"DEM_START_SEC_VAR_CLEARED "
000096de 4152545f5345 
000096e4 435f5641525f 
000096ea 434c45415245 
000096f0 442000 
000096f3 03            12571 	.byte	3
000096f4 12            12572 	.byte	18
000096f5 12            12573 	.byte	18
000096f6 03            12574 	.byte	3
000096f7 08            12575 	.byte	8
000096f8 13            12576 	.byte	19
000096f9 01            12577 	.byte	1
000096fa 06            12578 	.byte	6
000096fb 44454d5f4d45  12579 	.strz	"DEM_MEMMAP_ERROR "
00009701 4d4d41505f45 
00009707 52524f522000 
0000970d 01            12580 	.byte	1
0000970e 0c            12581 	.byte	12
0000970f 4253575f5354  12582 	.strz	"BSW_START_SEC_VAR_CLEARED_UNSPECIFIED "
00009715 4152545f5345 
0000971b 435f5641525f 
00009721 434c45415245 
00009727 445f554e5350 
0000972d 454349464945 
00009733 442000 

                                                                      Page 321
                                                              C:\Users\nhuliyap\AppData\Local\Temp\gh_00008cs1.s
00009736 03            12583 	.byte	3
00009737 0d            12584 	.byte	13
00009738 14            12585 	.byte	20
00009739 01            12586 	.byte	1
0000973a 48            12587 	.byte	72
0000973b 53544152545f  12588 	.strz	"START_SEC_VAR_CLEARED_UNSPECIFIED "
00009741 5345435f5641 
00009747 525f434c4541 
0000974d 5245445f554e 
00009753 535045434946 
00009759 4945442000 
0000975e 03            12589 	.byte	3
0000975f c509          12590 	.byte	197,9
00009761 15            12591 	.byte	21
00009762 01            12592 	.byte	1
00009763 56            12593 	.byte	86
00009764 53544152545f  12594 	.strz	"START_SEC_VAR_ZERO_INIT_UNSPECIFIED "
0000976a 5345435f5641 
00009770 525f5a45524f 
00009776 5f494e49545f 
0000977c 554e53504543 
00009782 494649454420 
00009788 00 
00009789 01            12595 	.byte	1
0000978a 850a          12596 	.byte	133,10
0000978c 5641525f5345  12597 	.strz	"VAR_SEC_OPEN "
00009792 435f4f50454e 
00009798 2000 
0000979a 04            12598 	.byte	4
0000979b 04            12599 	.byte	4
0000979c 01            12600 	.byte	1
0000979d 11            12601 	.byte	17
0000979e 44454d5f5741  12602 	.strz	"DEM_WAS_STARTED_SEC_VAR_CLEARED "
000097a4 535f53544152 
000097aa 5445445f5345 
000097b0 435f5641525f 
000097b6 434c45415245 
000097bc 442000 
000097bf 04            12603 	.byte	4
000097c0 04            12604 	.byte	4
000097c1 01            12605 	.byte	1
000097c2 18            12606 	.byte	24
000097c3 44454d5f5354  12607 	.strz	"DEM_STOP_SEC_VAR_CLEARED "
000097c9 4f505f534543 
000097cf 5f5641525f43 
000097d5 4c4541524544 
000097db 2000 
000097dd 03            12608 	.byte	3
000097de 19            12609 	.byte	25
000097df 12            12610 	.byte	18
000097e0 03            12611 	.byte	3
000097e1 08            12612 	.byte	8
000097e2 13            12613 	.byte	19
000097e3 01            12614 	.byte	1
000097e4 06            12615 	.byte	6
000097e5 44454d5f4d45  12616 	.strz	"DEM_MEMMAP_ERROR "
000097eb 4d4d41505f45 
000097f1 52524f522000 
000097f7 01            12617 	.byte	1
000097f8 19            12618 	.byte	25
000097f9 4253575f5354  12619 	.strz	"BSW_STOP_SEC_VAR_CLEARED_UNSPECIFIED "

                                                                      Page 322
                                                              C:\Users\nhuliyap\AppData\Local\Temp\gh_00008cs1.s
000097ff 4f505f534543 
00009805 5f5641525f43 
0000980b 4c4541524544 
00009811 5f554e535045 
00009817 434946494544 
0000981d 2000 
0000981f 03            12620 	.byte	3
00009820 1a            12621 	.byte	26
00009821 14            12622 	.byte	20
00009822 01            12623 	.byte	1
00009823 4c            12624 	.byte	76
00009824 53544f505f53  12625 	.strz	"STOP_SEC_VAR "
0000982a 45435f564152 
00009830 2000 
00009832 03            12626 	.byte	3
00009833 c509          12627 	.byte	197,9
00009835 15            12628 	.byte	21
00009836 04            12629 	.byte	4
00009837 04            12630 	.byte	4
00009838 04            12631 	.byte	4
00009839 04            12632 	.byte	4
0000983a 01            12633 	.byte	1
0000983b 1b            12634 	.byte	27
0000983c 44454d5f5354  12635 	.strz	"DEM_START_SEC_CODE "
00009842 4152545f5345 
00009848 435f434f4445 
0000984e 2000 
00009850 03            12636 	.byte	3
00009851 1c            12637 	.byte	28
00009852 12            12638 	.byte	18
00009853 03            12639 	.byte	3
00009854 08            12640 	.byte	8
00009855 13            12641 	.byte	19
00009856 01            12642 	.byte	1
00009857 06            12643 	.byte	6
00009858 44454d5f4d45  12644 	.strz	"DEM_MEMMAP_ERROR "
0000985e 4d4d41505f45 
00009864 52524f522000 
0000986a 01            12645 	.byte	1
0000986b 51            12646 	.byte	81
0000986c 4253575f5354  12647 	.strz	"BSW_START_SEC_CODE "
00009872 4152545f5345 
00009878 435f434f4445 
0000987e 2000 
00009880 03            12648 	.byte	3
00009881 52            12649 	.byte	82
00009882 14            12650 	.byte	20
00009883 01            12651 	.byte	1
00009884 e408          12652 	.byte	228,8
00009886 53544152545f  12653 	.strz	"START_SEC_CODE "
0000988c 5345435f434f 
00009892 44452000 
00009896 03            12654 	.byte	3
00009897 c509          12655 	.byte	197,9
00009899 15            12656 	.byte	21
0000989a 01            12657 	.byte	1
0000989b f407          12658 	.byte	244,7
0000989d 434f44455f53  12659 	.strz	"CODE_SEC_OPEN "
000098a3 45435f4f5045 
000098a9 4e2000 
000098ac 04            12660 	.byte	4

                                                                      Page 323
                                                              C:\Users\nhuliyap\AppData\Local\Temp\gh_00008cs1.s
000098ad 04            12661 	.byte	4
000098ae 01            12662 	.byte	1
000098af 56            12663 	.byte	86
000098b0 44454d5f5741  12664 	.strz	"DEM_WAS_STARTED_SEC_CODE "
000098b6 535f53544152 
000098bc 5445445f5345 
000098c2 435f434f4445 
000098c8 2000 
000098ca 04            12665 	.byte	4
000098cb 04            12666 	.byte	4
000098cc 01            12667 	.byte	1
000098cd 29            12668 	.byte	41
000098ce 44454d5f5354  12669 	.strz	"DEM_STOP_SEC_CODE "
000098d4 4f505f534543 
000098da 5f434f444520 
000098e0 00 
000098e1 03            12670 	.byte	3
000098e2 2a            12671 	.byte	42
000098e3 12            12672 	.byte	18
000098e4 03            12673 	.byte	3
000098e5 08            12674 	.byte	8
000098e6 13            12675 	.byte	19
000098e7 01            12676 	.byte	1
000098e8 06            12677 	.byte	6
000098e9 44454d5f4d45  12678 	.strz	"DEM_MEMMAP_ERROR "
000098ef 4d4d41505f45 
000098f5 52524f522000 
000098fb 01            12679 	.byte	1
000098fc 5e            12680 	.byte	94
000098fd 4253575f5354  12681 	.strz	"BSW_STOP_SEC_CODE "
00009903 4f505f534543 
00009909 5f434f444520 
0000990f 00 
00009910 03            12682 	.byte	3
00009911 5f            12683 	.byte	95
00009912 14            12684 	.byte	20
00009913 01            12685 	.byte	1
00009914 e808          12686 	.byte	232,8
00009916 53544f505f53  12687 	.strz	"STOP_SEC_CODE "
0000991c 45435f434f44 
00009922 452000 
00009925 03            12688 	.byte	3
00009926 c509          12689 	.byte	197,9
00009928 15            12690 	.byte	21
00009929 04            12691 	.byte	4
0000992a 04            12692 	.byte	4
0000992b 04            12693 	.byte	4
0000992c 04            12694 	.byte	4
0000992d 01            12695 	.byte	1
0000992e 30            12696 	.byte	48
0000992f 44454d5f5354  12697 	.strz	"DEM_START_SEC_CODE "
00009935 4152545f5345 
0000993b 435f434f4445 
00009941 2000 
00009943 03            12698 	.byte	3
00009944 31            12699 	.byte	49
00009945 12            12700 	.byte	18
00009946 03            12701 	.byte	3
00009947 08            12702 	.byte	8
00009948 13            12703 	.byte	19
00009949 01            12704 	.byte	1

                                                                      Page 324
                                                              C:\Users\nhuliyap\AppData\Local\Temp\gh_00008cs1.s
0000994a 06            12705 	.byte	6
0000994b 44454d5f4d45  12706 	.strz	"DEM_MEMMAP_ERROR "
00009951 4d4d41505f45 
00009957 52524f522000 
0000995d 01            12707 	.byte	1
0000995e 51            12708 	.byte	81
0000995f 4253575f5354  12709 	.strz	"BSW_START_SEC_CODE "
00009965 4152545f5345 
0000996b 435f434f4445 
00009971 2000 
00009973 03            12710 	.byte	3
00009974 52            12711 	.byte	82
00009975 14            12712 	.byte	20
00009976 01            12713 	.byte	1
00009977 e408          12714 	.byte	228,8
00009979 53544152545f  12715 	.strz	"START_SEC_CODE "
0000997f 5345435f434f 
00009985 44452000 
00009989 03            12716 	.byte	3
0000998a c509          12717 	.byte	197,9
0000998c 15            12718 	.byte	21
0000998d 01            12719 	.byte	1
0000998e f407          12720 	.byte	244,7
00009990 434f44455f53  12721 	.strz	"CODE_SEC_OPEN "
00009996 45435f4f5045 
0000999c 4e2000 
0000999f 04            12722 	.byte	4
000099a0 04            12723 	.byte	4
000099a1 01            12724 	.byte	1
000099a2 56            12725 	.byte	86
000099a3 44454d5f5741  12726 	.strz	"DEM_WAS_STARTED_SEC_CODE "
000099a9 535f53544152 
000099af 5445445f5345 
000099b5 435f434f4445 
000099bb 2000 
000099bd 04            12727 	.byte	4
000099be 04            12728 	.byte	4
000099bf 01            12729 	.byte	1
000099c0 33            12730 	.byte	51
000099c1 44454d5f5354  12731 	.strz	"DEM_STATUSBYTE_EVENT_UNAVAILABLE (0x00)"
000099c7 415455534259 
000099cd 54455f455645 
000099d3 4e545f554e41 
000099d9 5641494c4142 
000099df 4c4520283078 
000099e5 30302900 
000099e9 01            12732 	.byte	1
000099ea 34            12733 	.byte	52
000099eb 44454d5f5354  12734 	.strz	"DEM_STATUSBYTE_NEW_OPERATIONCYCLE_SETMASK (DEM_ISO14229_BM_TESTNOTCOMPLETE_TOC)"
000099f1 415455534259 
000099f7 54455f4e4557 
000099fd 5f4f50455241 
00009a03 54494f4e4359 
00009a09 434c455f5345 
00009a0f 544d41534b20 
00009a15 2844454d5f49 
00009a1b 534f31343232 
00009a21 395f424d5f54 
00009a27 4553544e4f54 
00009a2d 434f4d504c45 
00009a33 54455f544f43 

                                                                      Page 325
                                                              C:\Users\nhuliyap\AppData\Local\Temp\gh_00008cs1.s
00009a39 2900 
00009a3b 01            12735 	.byte	1
00009a3c 35            12736 	.byte	53
00009a3d 44454d5f5354  12737 	.strz	"DEM_STATUSBYTE_NEW_OPERATIONCYCLE_CLEARMASK (DEM_ISO14229_BM_TESTFAILED_TOC)"
00009a43 415455534259 
00009a49 54455f4e4557 
00009a4f 5f4f50455241 
00009a55 54494f4e4359 
00009a5b 434c455f434c 
00009a61 4541524d4153 
00009a67 4b202844454d 
00009a6d 5f49534f3134 
00009a73 3232395f424d 
00009a79 5f5445535446 
00009a7f 41494c45445f 
00009a85 544f432900 
00009a8a 01            12738 	.byte	1
00009a8b ae03          12739 	.byte	174,3
00009a8d 44454d5f5354  12740 	.strz	"DEM_STOP_SEC_CODE "
00009a93 4f505f534543 
00009a99 5f434f444520 
00009a9f 00 
00009aa0 03            12741 	.byte	3
00009aa1 af03          12742 	.byte	175,3
00009aa3 12            12743 	.byte	18
00009aa4 03            12744 	.byte	3
00009aa5 08            12745 	.byte	8
00009aa6 13            12746 	.byte	19
00009aa7 01            12747 	.byte	1
00009aa8 06            12748 	.byte	6
00009aa9 44454d5f4d45  12749 	.strz	"DEM_MEMMAP_ERROR "
00009aaf 4d4d41505f45 
00009ab5 52524f522000 
00009abb 01            12750 	.byte	1
00009abc 5e            12751 	.byte	94
00009abd 4253575f5354  12752 	.strz	"BSW_STOP_SEC_CODE "
00009ac3 4f505f534543 
00009ac9 5f434f444520 
00009acf 00 
00009ad0 03            12753 	.byte	3
00009ad1 5f            12754 	.byte	95
00009ad2 14            12755 	.byte	20
00009ad3 01            12756 	.byte	1
00009ad4 e808          12757 	.byte	232,8
00009ad6 53544f505f53  12758 	.strz	"STOP_SEC_CODE "
00009adc 45435f434f44 
00009ae2 452000 
00009ae5 03            12759 	.byte	3
00009ae6 c509          12760 	.byte	197,9
00009ae8 15            12761 	.byte	21
00009ae9 04            12762 	.byte	4
00009aea 04            12763 	.byte	4
00009aeb 04            12764 	.byte	4
00009aec 04            12765 	.byte	4
00009aed 04            12766 	.byte	4
00009aee 03            12767 	.byte	3
00009aef 1e            12768 	.byte	30
00009af0 78            12769 	.byte	120
00009af1 03            12770 	.byte	3
00009af2 0e            12771 	.byte	14
00009af3 79            12772 	.byte	121

                                                                      Page 326
                                                              C:\Users\nhuliyap\AppData\Local\Temp\gh_00008cs1.s
00009af4 03            12773 	.byte	3
00009af5 06            12774 	.byte	6
00009af6 7a            12775 	.byte	122
00009af7 04            12776 	.byte	4
00009af8 04            12777 	.byte	4
00009af9 04            12778 	.byte	4
00009afa 03            12779 	.byte	3
00009afb 1f            12780 	.byte	31
00009afc 7b            12781 	.byte	123
00009afd 04            12782 	.byte	4
00009afe 01            12783 	.byte	1
00009aff 24            12784 	.byte	36
00009b00 44454d5f4346  12785 	.strz	"DEM_CFG_STATIC_ASSERTION_FOR_NVM_BLOCKLENGTH_ON STD_ON"
00009b06 475f53544154 
00009b0c 49435f415353 
00009b12 455254494f4e 
00009b18 5f464f525f4e 
00009b1e 564d5f424c4f 
00009b24 434b4c454e47 
00009b2a 54485f4f4e20 
00009b30 5354445f4f4e 
00009b36 00 
00009b37 01            12786 	.byte	1
00009b38 26            12787 	.byte	38
00009b39 44454d5f4346  12788 	.strz	"DEM_CFG_STATIC_ASSERTION_FOR_NVM_BLOCKLENGTH DEM_CFG_STATIC_ASSERTION_FOR_NVM_BLOCKLENGTH_ON"
00009b3f 475f53544154 
00009b45 49435f415353 
00009b4b 455254494f4e 
00009b51 5f464f525f4e 
00009b57 564d5f424c4f 
00009b5d 434b4c454e47 
00009b63 54482044454d 
00009b69 5f4346475f53 
00009b6f 54415449435f 
00009b75 415353455254 
00009b7b 494f4e5f464f 
00009b81 525f4e564d5f 
00009b87 424c4f434b4c 
00009b8d 454e4754485f 
00009b93 4f4e00 
00009b96 01            12789 	.byte	1
00009b97 29            12790 	.byte	41
00009b98 44454d5f4e56  12791 	.strz	"DEM_NVM_ID_DEM_GENERIC_NV_DATA_SIZE 22"
00009b9e 4d5f49445f44 
00009ba4 454d5f47454e 
00009baa 455249435f4e 
00009bb0 565f44415441 
00009bb6 5f53495a4520 
00009bbc 323200 
00009bbf 01            12792 	.byte	1
00009bc0 2a            12793 	.byte	42
00009bc1 44454d5f4e56  12794 	.strz	"DEM_NVM_ID_EVMEM_LOC_0_SIZE 48"
00009bc7 4d5f49445f45 
00009bcd 564d454d5f4c 
00009bd3 4f435f305f53 
00009bd9 495a45203438 
00009bdf 00 
00009be0 01            12795 	.byte	1
00009be1 2b            12796 	.byte	43
00009be2 44454d5f4e56  12797 	.strz	"DEM_NVM_ID_EVMEM_LOC_1_SIZE 48"
00009be8 4d5f49445f45 

                                                                      Page 327
                                                              C:\Users\nhuliyap\AppData\Local\Temp\gh_00008cs1.s
00009bee 564d454d5f4c 
00009bf4 4f435f315f53 
00009bfa 495a45203438 
00009c00 00 
00009c01 01            12798 	.byte	1
00009c02 2c            12799 	.byte	44
00009c03 44454d5f4e56  12800 	.strz	"DEM_NVM_ID_EVMEM_LOC_2_SIZE 48"
00009c09 4d5f49445f45 
00009c0f 564d454d5f4c 
00009c15 4f435f325f53 
00009c1b 495a45203438 
00009c21 00 
00009c22 01            12801 	.byte	1
00009c23 2d            12802 	.byte	45
00009c24 44454d5f4e56  12803 	.strz	"DEM_NVM_ID_EVMEM_LOC_3_SIZE 48"
00009c2a 4d5f49445f45 
00009c30 564d454d5f4c 
00009c36 4f435f335f53 
00009c3c 495a45203438 
00009c42 00 
00009c43 01            12804 	.byte	1
00009c44 2e            12805 	.byte	46
00009c45 44454d5f4e56  12806 	.strz	"DEM_NVM_ID_EVMEM_LOC_4_SIZE 48"
00009c4b 4d5f49445f45 
00009c51 564d454d5f4c 
00009c57 4f435f345f53 
00009c5d 495a45203438 
00009c63 00 
00009c64 01            12807 	.byte	1
00009c65 2f            12808 	.byte	47
00009c66 44454d5f4e56  12809 	.strz	"DEM_NVM_ID_EVMEM_LOC_5_SIZE 48"
00009c6c 4d5f49445f45 
00009c72 564d454d5f4c 
00009c78 4f435f355f53 
00009c7e 495a45203438 
00009c84 00 
00009c85 01            12810 	.byte	1
00009c86 30            12811 	.byte	48
00009c87 44454d5f4e56  12812 	.strz	"DEM_NVM_ID_EVMEM_LOC_6_SIZE 48"
00009c8d 4d5f49445f45 
00009c93 564d454d5f4c 
00009c99 4f435f365f53 
00009c9f 495a45203438 
00009ca5 00 
00009ca6 01            12813 	.byte	1
00009ca7 31            12814 	.byte	49
00009ca8 44454d5f4e56  12815 	.strz	"DEM_NVM_ID_EVMEM_LOC_7_SIZE 48"
00009cae 4d5f49445f45 
00009cb4 564d454d5f4c 
00009cba 4f435f375f53 
00009cc0 495a45203438 
00009cc6 00 
00009cc7 01            12816 	.byte	1
00009cc8 32            12817 	.byte	50
00009cc9 44454d5f4e56  12818 	.strz	"DEM_NVM_ID_EVMEM_LOC_8_SIZE 48"
00009ccf 4d5f49445f45 
00009cd5 564d454d5f4c 
00009cdb 4f435f385f53 
00009ce1 495a45203438 
00009ce7 00 
00009ce8 01            12819 	.byte	1

                                                                      Page 328
                                                              C:\Users\nhuliyap\AppData\Local\Temp\gh_00008cs1.s
00009ce9 33            12820 	.byte	51
00009cea 44454d5f4e56  12821 	.strz	"DEM_NVM_ID_EVMEM_LOC_9_SIZE 48"
00009cf0 4d5f49445f45 
00009cf6 564d454d5f4c 
00009cfc 4f435f395f53 
00009d02 495a45203438 
00009d08 00 
00009d09 01            12822 	.byte	1
00009d0a 34            12823 	.byte	52
00009d0b 44454d5f4e56  12824 	.strz	"DEM_NVM_ID_EVT_STATUSBYTE_SIZE 35"
00009d11 4d5f49445f45 
00009d17 56545f535441 
00009d1d 545553425954 
00009d23 455f53495a45 
00009d29 20333500 
00009d2d 04            12825 	.byte	4
00009d2e 01            12826 	.byte	1
00009d2f 0f            12827 	.byte	15
00009d30 4e564d5f424c  12828 	.strz	"NVM_BLOCK_MEMBERS_CATEGORY_01 (NVM_CAT01_SIZE_BYTES / NVM_BLOCK_SIZE)"
00009d36 4f434b5f4d45 
00009d3c 4d424552535f 
00009d42 43415445474f 
00009d48 52595f303120 
00009d4e 284e564d5f43 
00009d54 415430315f53 
00009d5a 495a455f4259 
00009d60 544553202f20 
00009d66 4e564d5f424c 
00009d6c 4f434b5f5349 
00009d72 5a452900 
00009d76 01            12829 	.byte	1
00009d77 10            12830 	.byte	16
00009d78 4e564d5f424c  12831 	.strz	"NVM_BLOCK_MEMBERS_CATEGORY_02 (NVM_CAT02_SIZE_BYTES / NVM_BLOCK_SIZE)"
00009d7e 4f434b5f4d45 
00009d84 4d424552535f 
00009d8a 43415445474f 
00009d90 52595f303220 
00009d96 284e564d5f43 
00009d9c 415430325f53 
00009da2 495a455f4259 
00009da8 544553202f20 
00009dae 4e564d5f424c 
00009db4 4f434b5f5349 
00009dba 5a452900 
00009dbe 01            12832 	.byte	1
00009dbf 11            12833 	.byte	17
00009dc0 4e564d5f424c  12834 	.strz	"NVM_BLOCK_MEMBERS_CATEGORY_03 (NVM_CAT03_SIZE_BYTES / NVM_BLOCK_SIZE)"
00009dc6 4f434b5f4d45 
00009dcc 4d424552535f 
00009dd2 43415445474f 
00009dd8 52595f303320 
00009dde 284e564d5f43 
00009de4 415430335f53 
00009dea 495a455f4259 
00009df0 544553202f20 
00009df6 4e564d5f424c 
00009dfc 4f434b5f5349 
00009e02 5a452900 
00009e06 01            12835 	.byte	1
00009e07 12            12836 	.byte	18
00009e08 4e564d5f424c  12837 	.strz	"NVM_BLOCK_MEMBERS_CATEGORY_04 (NVM_CAT04_SIZE_BYTES / NVM_BLOCK_SIZE)"

                                                                      Page 329
                                                              C:\Users\nhuliyap\AppData\Local\Temp\gh_00008cs1.s
00009e0e 4f434b5f4d45 
00009e14 4d424552535f 
00009e1a 43415445474f 
00009e20 52595f303420 
00009e26 284e564d5f43 
00009e2c 415430345f53 
00009e32 495a455f4259 
00009e38 544553202f20 
00009e3e 4e564d5f424c 
00009e44 4f434b5f5349 
00009e4a 5a452900 
00009e4e 01            12838 	.byte	1
00009e4f 13            12839 	.byte	19
00009e50 4e564d5f424c  12840 	.strz	"NVM_BLOCK_MEMBERS_CATEGORY_05 (NVM_CAT05_SIZE_BYTES / NVM_BLOCK_SIZE)"
00009e56 4f434b5f4d45 
00009e5c 4d424552535f 
00009e62 43415445474f 
00009e68 52595f303520 
00009e6e 284e564d5f43 
00009e74 415430355f53 
00009e7a 495a455f4259 
00009e80 544553202f20 
00009e86 4e564d5f424c 
00009e8c 4f434b5f5349 
00009e92 5a452900 
00009e96 01            12841 	.byte	1
00009e97 14            12842 	.byte	20
00009e98 4e564d5f424c  12843 	.strz	"NVM_BLOCK_MEMBERS_CATEGORY_06 (NVM_CAT06_SIZE_BYTES / NVM_BLOCK_SIZE)"
00009e9e 4f434b5f4d45 
00009ea4 4d424552535f 
00009eaa 43415445474f 
00009eb0 52595f303620 
00009eb6 284e564d5f43 
00009ebc 415430365f53 
00009ec2 495a455f4259 
00009ec8 544553202f20 
00009ece 4e564d5f424c 
00009ed4 4f434b5f5349 
00009eda 5a452900 
00009ede 01            12844 	.byte	1
00009edf 15            12845 	.byte	21
00009ee0 4e564d5f424c  12846 	.strz	"NVM_BLOCK_MEMBERS_CATEGORY_07 (NVM_CAT07_SIZE_BYTES / NVM_BLOCK_SIZE)"
00009ee6 4f434b5f4d45 
00009eec 4d424552535f 
00009ef2 43415445474f 
00009ef8 52595f303720 
00009efe 284e564d5f43 
00009f04 415430375f53 
00009f0a 495a455f4259 
00009f10 544553202f20 
00009f16 4e564d5f424c 
00009f1c 4f434b5f5349 
00009f22 5a452900 
00009f26 01            12847 	.byte	1
00009f27 16            12848 	.byte	22
00009f28 4e564d5f424c  12849 	.strz	"NVM_BLOCK_MEMBERS_CATEGORY_08 (NVM_CAT08_SIZE_BYTES / NVM_BLOCK_SIZE)"
00009f2e 4f434b5f4d45 
00009f34 4d424552535f 
00009f3a 43415445474f 
00009f40 52595f303820 
00009f46 284e564d5f43 

                                                                      Page 330
                                                              C:\Users\nhuliyap\AppData\Local\Temp\gh_00008cs1.s
00009f4c 415430385f53 
00009f52 495a455f4259 
00009f58 544553202f20 
00009f5e 4e564d5f424c 
00009f64 4f434b5f5349 
00009f6a 5a452900 
00009f6e 01            12850 	.byte	1
00009f6f 17            12851 	.byte	23
00009f70 4e564d5f424c  12852 	.strz	"NVM_BLOCK_MEMBERS_CATEGORY_09 (NVM_CAT09_SIZE_BYTES / NVM_BLOCK_SIZE)"
00009f76 4f434b5f4d45 
00009f7c 4d424552535f 
00009f82 43415445474f 
00009f88 52595f303920 
00009f8e 284e564d5f43 
00009f94 415430395f53 
00009f9a 495a455f4259 
00009fa0 544553202f20 
00009fa6 4e564d5f424c 
00009fac 4f434b5f5349 
00009fb2 5a452900 
00009fb6 01            12853 	.byte	1
00009fb7 18            12854 	.byte	24
00009fb8 4e564d5f424c  12855 	.strz	"NVM_BLOCK_MEMBERS_CATEGORY_10 (NVM_CAT10_SIZE_BYTES / NVM_BLOCK_SIZE)"
00009fbe 4f434b5f4d45 
00009fc4 4d424552535f 
00009fca 43415445474f 
00009fd0 52595f313020 
00009fd6 284e564d5f43 
00009fdc 415431305f53 
00009fe2 495a455f4259 
00009fe8 544553202f20 
00009fee 4e564d5f424c 
00009ff4 4f434b5f5349 
00009ffa 5a452900 
00009ffe 01            12856 	.byte	1
00009fff 1a            12857 	.byte	26
0000a000 4e564d5f4355  12858 	.strz	"NVM_CUMULATED_BLOCKS_CAT01 NVM_BLOCK_MEMBERS_CATEGORY_01"
0000a006 4d554c415445 
0000a00c 445f424c4f43 
0000a012 4b535f434154 
0000a018 3031204e564d 
0000a01e 5f424c4f434b 
0000a024 5f4d454d4245 
0000a02a 52535f434154 
0000a030 45474f52595f 
0000a036 303100 
0000a039 01            12859 	.byte	1
0000a03a 1b            12860 	.byte	27
0000a03b 4e564d5f4355  12861 	.strz	"NVM_CUMULATED_BLOCKS_CAT02 (NVM_CUMULATED_BLOCKS_CAT01 + NVM_BLOCK_MEMBERS_CATEGORY_02)"
0000a041 4d554c415445 
0000a047 445f424c4f43 
0000a04d 4b535f434154 
0000a053 303220284e56 
0000a059 4d5f43554d55 
0000a05f 4c415445445f 
0000a065 424c4f434b53 
0000a06b 5f4341543031 
0000a071 202b204e564d 
0000a077 5f424c4f434b 
0000a07d 5f4d454d4245 
0000a083 52535f434154 

                                                                      Page 331
                                                              C:\Users\nhuliyap\AppData\Local\Temp\gh_00008cs1.s
0000a089 45474f52595f 
0000a08f 30322900 
0000a093 01            12862 	.byte	1
0000a094 1c            12863 	.byte	28
0000a095 4e564d5f4355  12864 	.strz	"NVM_CUMULATED_BLOCKS_CAT03 (NVM_CUMULATED_BLOCKS_CAT02 + NVM_BLOCK_MEMBERS_CATEGORY_03)"
0000a09b 4d554c415445 
0000a0a1 445f424c4f43 
0000a0a7 4b535f434154 
0000a0ad 303320284e56 
0000a0b3 4d5f43554d55 
0000a0b9 4c415445445f 
0000a0bf 424c4f434b53 
0000a0c5 5f4341543032 
0000a0cb 202b204e564d 
0000a0d1 5f424c4f434b 
0000a0d7 5f4d454d4245 
0000a0dd 52535f434154 
0000a0e3 45474f52595f 
0000a0e9 30332900 
0000a0ed 01            12865 	.byte	1
0000a0ee 1d            12866 	.byte	29
0000a0ef 4e564d5f4355  12867 	.strz	"NVM_CUMULATED_BLOCKS_CAT04 (NVM_CUMULATED_BLOCKS_CAT03 + NVM_BLOCK_MEMBERS_CATEGORY_04)"
0000a0f5 4d554c415445 
0000a0fb 445f424c4f43 
0000a101 4b535f434154 
0000a107 303420284e56 
0000a10d 4d5f43554d55 
0000a113 4c415445445f 
0000a119 424c4f434b53 
0000a11f 5f4341543033 
0000a125 202b204e564d 
0000a12b 5f424c4f434b 
0000a131 5f4d454d4245 
0000a137 52535f434154 
0000a13d 45474f52595f 
0000a143 30342900 
0000a147 01            12868 	.byte	1
0000a148 1e            12869 	.byte	30
0000a149 4e564d5f4355  12870 	.strz	"NVM_CUMULATED_BLOCKS_CAT05 (NVM_CUMULATED_BLOCKS_CAT04 + NVM_BLOCK_MEMBERS_CATEGORY_05)"
0000a14f 4d554c415445 
0000a155 445f424c4f43 
0000a15b 4b535f434154 
0000a161 303520284e56 
0000a167 4d5f43554d55 
0000a16d 4c415445445f 
0000a173 424c4f434b53 
0000a179 5f4341543034 
0000a17f 202b204e564d 
0000a185 5f424c4f434b 
0000a18b 5f4d454d4245 
0000a191 52535f434154 
0000a197 45474f52595f 
0000a19d 30352900 
0000a1a1 01            12871 	.byte	1
0000a1a2 1f            12872 	.byte	31
0000a1a3 4e564d5f4355  12873 	.strz	"NVM_CUMULATED_BLOCKS_CAT06 (NVM_CUMULATED_BLOCKS_CAT05 + NVM_BLOCK_MEMBERS_CATEGORY_06)"
0000a1a9 4d554c415445 
0000a1af 445f424c4f43 
0000a1b5 4b535f434154 
0000a1bb 303620284e56 
0000a1c1 4d5f43554d55 

                                                                      Page 332
                                                              C:\Users\nhuliyap\AppData\Local\Temp\gh_00008cs1.s
0000a1c7 4c415445445f 
0000a1cd 424c4f434b53 
0000a1d3 5f4341543035 
0000a1d9 202b204e564d 
0000a1df 5f424c4f434b 
0000a1e5 5f4d454d4245 
0000a1eb 52535f434154 
0000a1f1 45474f52595f 
0000a1f7 30362900 
0000a1fb 01            12874 	.byte	1
0000a1fc 20            12875 	.byte	32
0000a1fd 4e564d5f4355  12876 	.strz	"NVM_CUMULATED_BLOCKS_CAT07 (NVM_CUMULATED_BLOCKS_CAT06 + NVM_BLOCK_MEMBERS_CATEGORY_07)"
0000a203 4d554c415445 
0000a209 445f424c4f43 
0000a20f 4b535f434154 
0000a215 303720284e56 
0000a21b 4d5f43554d55 
0000a221 4c415445445f 
0000a227 424c4f434b53 
0000a22d 5f4341543036 
0000a233 202b204e564d 
0000a239 5f424c4f434b 
0000a23f 5f4d454d4245 
0000a245 52535f434154 
0000a24b 45474f52595f 
0000a251 30372900 
0000a255 01            12877 	.byte	1
0000a256 21            12878 	.byte	33
0000a257 4e564d5f4355  12879 	.strz	"NVM_CUMULATED_BLOCKS_CAT08 (NVM_CUMULATED_BLOCKS_CAT07 + NVM_BLOCK_MEMBERS_CATEGORY_08)"
0000a25d 4d554c415445 
0000a263 445f424c4f43 
0000a269 4b535f434154 
0000a26f 303820284e56 
0000a275 4d5f43554d55 
0000a27b 4c415445445f 
0000a281 424c4f434b53 
0000a287 5f4341543037 
0000a28d 202b204e564d 
0000a293 5f424c4f434b 
0000a299 5f4d454d4245 
0000a29f 52535f434154 
0000a2a5 45474f52595f 
0000a2ab 30382900 
0000a2af 01            12880 	.byte	1
0000a2b0 22            12881 	.byte	34
0000a2b1 4e564d5f4355  12882 	.strz	"NVM_CUMULATED_BLOCKS_CAT09 (NVM_CUMULATED_BLOCKS_CAT08 + NVM_BLOCK_MEMBERS_CATEGORY_09)"
0000a2b7 4d554c415445 
0000a2bd 445f424c4f43 
0000a2c3 4b535f434154 
0000a2c9 303920284e56 
0000a2cf 4d5f43554d55 
0000a2d5 4c415445445f 
0000a2db 424c4f434b53 
0000a2e1 5f4341543038 
0000a2e7 202b204e564d 
0000a2ed 5f424c4f434b 
0000a2f3 5f4d454d4245 
0000a2f9 52535f434154 
0000a2ff 45474f52595f 
0000a305 30392900 
0000a309 01            12883 	.byte	1

                                                                      Page 333
                                                              C:\Users\nhuliyap\AppData\Local\Temp\gh_00008cs1.s
0000a30a 23            12884 	.byte	35
0000a30b 4e564d5f4355  12885 	.strz	"NVM_CUMULATED_BLOCKS_CAT10 (NVM_CUMULATED_BLOCKS_CAT09 + NVM_BLOCK_MEMBERS_CATEGORY_10)"
0000a311 4d554c415445 
0000a317 445f424c4f43 
0000a31d 4b535f434154 
0000a323 313020284e56 
0000a329 4d5f43554d55 
0000a32f 4c415445445f 
0000a335 424c4f434b53 
0000a33b 5f4341543039 
0000a341 202b204e564d 
0000a347 5f424c4f434b 
0000a34d 5f4d454d4245 
0000a353 52535f434154 
0000a359 45474f52595f 
0000a35f 31302900 
0000a363 04            12886 	.byte	4
0000a364 00            12887 	.byte	0
                       12888 	.section	.debug_abbrev
0000019f 00            12889 	.byte	0
                       12890 	.section	.debug_info
                       12891 .Ldw_end:
                       12892 .rh850_flags REGMODE32,DATA_ALIGN8,GP_FIX,EP_NONFIX,TP_FIX,REG2_RESERVE,G3K,GHS_MISALIGN,SDA_EXTRA_REGS_0
