                                                                      Page 1
                                                              C:\Users\nhuliyap\AppData\Local\Temp\gh_0000bnc1.s
Command Line: C:\ghs\comp_201517\ease850.exe -w -elf -b0 -I../source/common -I../source/ProjectCompiler -I../source/ProjectCfg -I../source/SwcApplTpms -I../source/SwcApplTpms/Intface -I../source/SwcApplEcuM -I../source/SwcServiceEcuM -I../source/SwcServiceNvM -I../source/SwcServiceOs -I../source/SwcServiceStartUp -I../source/McalAdc -I../source/McalDio -I../source/McalGpt -I../source/McalMcu -I../source/McalWdg -I../source/wrappers -I../source/wrappers/McalAta -I../source/McalLin -I../source/McalCan -I../source/wrappers/OS -I../source/McalFls -I../source/EcuabFee -I../source/EcuabMemIf -I../source/wrappers/VStdLib -I../source/wrappers/Crc -I../source/wrappers/FBL_APPL -I../source/wrappers/CAN_MANAGER -I../source/wrappers/NVM_MANAGER -I../source/wrappers/DEM_MANAGER -I../source/wrappers/RDC_MANAGER -I../source/wrappers/ENV_MANAGER -I../source/wrappers/SYS_MANAGER -I../source/wrappers/EcuabCanIf -I../source/wrappers/SwcServiceCanSM -I../source/wrappers/SwcServiceCanTp -I../source/wrappers/SwcServiceCanTp_PreCompile -I../source/wrappers/SwcServiceCom -I../source/wrappers/SwcServiceComM -I../source/wrappers/SwcServiceComStack -I../source/wrappers/SwcServiceDcm -I../source/wrappers/SwcServicePduR -I../source/wrappers/SwcServiceEcuM -I../source/wrappers/Bfx -I../source/wrappers/SwcServiceDem -I../source/SwcServiceDet -I../source/SwcServiceFiM -I../source/wrappers/LibAutosarDiag -I../source/wrappers/rba_BswSrv -I../source/SwcServiceSchM -I../source/wrappers/SwcServiceComM/Integration -I../source/wrappers/SwcServicePduR/Integration -I../source/wrappers/EcuabCanIf/Integration -I../source/wrappers/SwcServiceCom/Integration -I../source/wrappers/SwcServiceCanTp/Integration -I../source/wrappers/SwcServiceEcuM/Integration -I../source/SwcServiceDet/Integration -I../source/wrappers/SwcServiceDcm/Integration -I../source/wrappers/SwcServiceDem/Integration -I../source/SwcServiceFiM/Integration -I../source/wrappers/EcuabCanIf/api -I../source/wrappers/SwcServiceCom/api -I../source/wrappers/SwcServiceComM/api -I../source/wrappers/SwcServicePduR/api -I../source/wrappers/Bfx/api -I../source/SwcServiceDet/api -I../source/SwcServiceFiM/api -I../source/wrappers/LibAutosarDiag/api -I../source/wrappers/rba_BswSrv/api -IC:\ghs\comp_201517\lib\rh850 -cg_underscore -cpu=rh850g3k -no_v850_simd -rh850_fpsimd=none -nomacro -patch_dbo=C:\_ECU2\ECU_Rivian_A1\Target\repo_projects\pRealEcu\cL_LATEST\make\output\objects\sha2.dbo -source=sha2.c -o output\objects\gh_0000bnc1.o -list=output\list\sha2.lst C:\Users\nhuliyap\AppData\Local\Temp\gh_0000bnc1.s 
Original File: C:\Users\nhuliyap\AppData\Local\Temp\gh_0000bnc1.s
Source File: sha2.c
Directory: C:\_ECU2\ECU_Rivian_A1\Target\repo_projects\pRealEcu\cL_LATEST\make
Host OS: Windows
EASE: Copyright (C) 1983-2015 Green Hills Software.  All Rights Reserved.
Release: Compiler v2015.1.7
Build Directory: [Directory] BTOWORKER6:c:/build_2015_1_bto/2015-10-21.2100-2015_1_bto/win32-comp-ecom
Revision: [VCInfo] http://toolsvc/branches/release-branch-70-bto/src@544153 (built by build)
Revision Date: Thu Oct 22 07:50:13 2015

Release Date: Thu Oct 22 09:32:32 2015

                           1 --Driver Command: ccv850 ../source/wrappers/FBL_APPL/sha2.c -cpu=rh850 -fhard
                           2 --		-ignore_callt_state_in_interrupts -large_sda -misalign_pack
                           3 --		-nofarcalls -nofloatio -no_callt -Ogeneral -Onounroll
                           4 --		-prepare_dispose -registermode=32 -reserve_r2 -sda=0
                           5 --		-shorten_loads -Wshadow --brief_diagnostics --no_commons
                           6 --		--no_wrap_diagnostics --prototype_errors --short_enum -list -G
                           7 --		-dual_debug -dwarf -X5523 -lnk=-no_xda_modifications -D
                           8 --		NOT_READY_FOR_TESTING_OR_DEPLOYMENT -D IBTCM_SW_ANPASSUNGEN -D
                           9 --		BUILD_LORDSTOWN -c -inline_prologue -I../source/common
                          10 --		-I../source/ProjectCompiler -I../source/ProjectCfg
                          11 --		-I../source/SwcApplTpms -I../source/SwcApplTpms/Intface
                          12 --		-I../source/SwcApplEcuM -I../source/SwcServiceEcuM
                          13 --		-I../source/SwcServiceNvM -I../source/SwcServiceOs
                          14 --		-I../source/SwcServiceStartUp -I../source/McalAdc
                          15 --		-I../source/McalDio -I../source/McalGpt -I../source/McalMcu
                          16 --		-I../source/McalWdg -I../source/wrappers
                          17 --		-I../source/wrappers/McalAta -I../source/McalLin
                          18 --		-I../source/McalCan -I../source/wrappers/OS -I../source/McalFls
                          19 --		-I../source/EcuabFee -I../source/EcuabMemIf
                          20 --		-I../source/wrappers/VStdLib -I../source/wrappers
                          21 --		-I../source/wrappers/Crc -I../source/wrappers/FBL_APPL
                          22 --		-I../source/wrappers/CAN_MANAGER -I../source/wrappers/NVM_MANAGER
                          23 --		-I../source/wrappers/DEM_MANAGER -I../source/wrappers/RDC_MANAGER
                          24 --		-I../source/wrappers/ENV_MANAGER -I../source/wrappers/SYS_MANAGER
                          25 --		-I../source/wrappers/EcuabCanIf
                          26 --		-I../source/wrappers/SwcServiceCanSM
                          27 --		-I../source/wrappers/SwcServiceCanTp
                          28 --		-I../source/wrappers/SwcServiceCanTp_PreCompile
                          29 --		-I../source/wrappers/SwcServiceCom
                          30 --		-I../source/wrappers/SwcServiceComM
                          31 --		-I../source/wrappers/SwcServiceComStack
                          32 --		-I../source/wrappers/SwcServiceDcm
                          33 --		-I../source/wrappers/SwcServicePduR
                          34 --		-I../source/wrappers/SwcServiceEcuM -I../source/wrappers/Bfx
                          35 --		-I../source/wrappers/SwcServiceDem -I../source/SwcServiceDet
                          36 --		-I../source/SwcServiceFiM -I../source/wrappers/LibAutosarDiag
                          37 --		-I../source/wrappers/rba_BswSrv -I../source/SwcServiceSchM
                          38 --		-I../source/wrappers/SwcServiceComM/Integration
                          39 --		-I../source/wrappers/SwcServicePduR/Integration
                          40 --		-I../source/wrappers/EcuabCanIf/Integration
                          41 --		-I../source/wrappers/SwcServiceCom/Integration
                          42 --		-I../source/wrappers/SwcServiceCanTp/Integration
                          43 --		-I../source/wrappers/SwcServiceEcuM/Integration
                          44 --		-I../source/SwcServiceDet/Integration
                          45 --		-I../source/wrappers/SwcServiceDcm/Integration
                          46 --		-I../source/wrappers/SwcServiceDem/Integration
                          47 --		-I../source/SwcServiceFiM/Integration
                          48 --		-I../source/wrappers/EcuabCanIf/api
                          49 --		-I../source/wrappers/SwcServiceCom/api
                          50 --		-I../source/wrappers/SwcServiceComM/api

                                                                      Page 2
                                                              C:\Users\nhuliyap\AppData\Local\Temp\gh_0000bnc1.s
                          51 --		-I../source/wrappers/SwcServicePduR/api
                          52 --		-I../source/wrappers/Bfx/api -I../source/SwcServiceDet/api
                          53 --		-I../source/SwcServiceFiM/api
                          54 --		-I../source/wrappers/LibAutosarDiag/api
                          55 --		-I../source/wrappers/rba_BswSrv/api -object_dir=output/objects
                          56 --		-list_dir=output/list
                          57 --Source File:   ../source/wrappers/FBL_APPL/sha2.c
                          58 --Directory:     
                          59 --		C:\_ECU2\ECU_Rivian_A1\Target\repo_projects\pRealEcu\cL_LATEST\make
                          60 --Compile Date:  Wed Sep 06 09:44:55 2023
                          61 --Host OS:       Win32
                          62 --Version:       C-RH850 2015.1.7 RELEASE VERSION
                          63 --Release:       Compiler v2015.1.7
                          64 --Revision Date: Thu Oct 22 08:06:12 2015
                          65 --Release Date:  Thu Oct 22 09:34:32 2015
                          66 -- ecom  -g -w -OM
                          67 	.text
                          68 ..bof.C.3A.5C_ECU2.5CECU_Rivian_A1.5CTarget.5Crepo_projects.5CpRealEcu.5CcL_LATEST.5Cmake.5Coutput.5Cobjects.5Csha2...43.3A.5C_ECU2.5CECU_Rivian_A1.5CTarget.5Crepo_projects.5CpRealEcu.5CcL_LATEST.5Cmake..64F82DF7..0::
                          69 	.align	2
                          70 ..gh.f.f.1.e.0:
                          71 	.type	..gh.f.f.1.e.0,@object
                          72 	.size	..gh.f.f.1.e.0,0
                          73 	.global	_sha256_transf
                          74 _sha256_transf:
00000000 be07c110         75 	prepare	{r27,r28,r29},31
00000004 031e5cff         76 	addi	-164,sp,sp
00000008 06e8             77 	mov	r6,r29
0000000a 07e0             78 	mov	r7,r28
0000000c 08d8             79 	mov	r8,r27
                          80 --	    .bf
                          81 .LDW01:
0000000e 000a             82 	mov	0,r1
00000010 80073401*        83 	br	.L7
                          84 .L6:
                          85 --line191
                          86 ..lin.C.3A.5C_ECU2.5CECU_Rivian_A1.5CTarget.5Crepo_projects.5CpRealEcu.5CcL_LATEST.5Cmake.5Coutput.5Cobjects.5Csha2.1::
                          87 .LDWlin1:
00000014 0150             88 	mov	r1,r10
00000016 c652             89 	shl	6,r10
00000018 dc51             90 	add	r28,r10
0000001a 0092             91 	mov	0,r18
                          92 .L10:
0000001c 12f0             93 	mov	r18,ep
0000001e c2f2             94 	shl	2,ep
00000020 1e58             95 	mov	ep,r11
00000022 caf1             96 	add	r10,ep
00000024 6240             97 	sld.bu	2[ep],r8
00000026 6398             98 	sld.bu	3[ep],r19
00000028 6138             99 	sld.bu	1[ep],r7
0000002a 6030            100 	sld.bu	0[ep],r6
0000002c c842            101 	shl	8,r8
0000002e 1341            102 	or	r19,r8
00000030 d03a            103 	shl	16,r7
00000032 0839            104 	or	r8,r7
00000034 d832            105 	shl	24,r6
00000036 c359            106 	add	sp,r11
00000038 0731            107 	or	r7,r6
0000003a 4192            108 	add	1,r18
0000003c 6b372100        109 	st.w	r6,32[r11]
00000040 1206f0ff        110 	addi	-16,r18,zero
00000044 c6ed*           111 	blt	.L10

                                                                      Page 3
                                                              C:\Users\nhuliyap\AppData\Local\Temp\gh_0000bnc1.s
                         112 --line198
                         113 ..lin.C.3A.5C_ECU2.5CECU_Rivian_A1.5CTarget.5Crepo_projects.5CpRealEcu.5CcL_LATEST.5Cmake.5Coutput.5Cobjects.5Csha2.2::
                         114 .LDWlin2:
00000046 20961000        115 	movea	16,zero,r18
                         116 .L13:
0000004a 12f0            117 	mov	r18,ep
0000004c c2f2            118 	shl	2,ep
0000004e c3f1            119 	add	sp,ep
00000050 0c7d            120 	sld.w	24[ep],r15
00000052 024d            121 	sld.w	4[ep],r9
00000054 3e8fe5ff        122 	ld.w	-28[ep],r17
00000058 3e3fe1ff        123 	ld.w	-32[ep],r7
0000005c ef7fc480        124 	rotl	15,r15,r16
00000060 ed7fc450        125 	rotl	13,r15,r10
00000064 3051            126 	xor	r16,r10
00000066 8a7a            127 	shr	10,r15
00000068 2a79            128 	xor	r10,r15
0000006a cf49            129 	add	r15,r9
0000006c f98fc478        130 	rotl	25,r17,r15
00000070 ee8fc440        131 	rotl	14,r17,r8
00000074 2f41            132 	xor	r15,r8
00000076 838a            133 	shr	3,r17
00000078 2889            134 	xor	r8,r17
0000007a c989            135 	add	r9,r17
0000007c d139            136 	add	r17,r7
0000007e 4192            137 	add	1,r18
00000080 113d            138 	sst.w	r7,32[ep]
00000082 1206c0ff        139 	addi	-64,r18,zero
00000086 a6e5*           140 	blt	.L13
                         141 --line202
                         142 ..lin.C.3A.5C_ECU2.5CECU_Rivian_A1.5CTarget.5Crepo_projects.5CpRealEcu.5CcL_LATEST.5Cmake.5Coutput.5Cobjects.5Csha2.3::
                         143 .LDWlin3:
00000088 0092            144 	mov	0,r18
                         145 .L16:
0000008a 1260            146 	mov	r18,r12
0000008c c262            147 	shl	2,r12
0000008e 03f0            148 	mov	sp,ep
00000090 ccf1            149 	add	r12,ep
00000092 dd61            150 	add	r29,r12
00000094 2c778900        151 	ld.w	136[r12],r14
00000098 4192            152 	add	1,r18
0000009a 6892            153 	cmp	8,r18
0000009c 0175            154 	sst.w	r14,0[ep]
0000009e e6f5*           155 	blt	.L16
                         156 --line206
                         157 ..lin.C.3A.5C_ECU2.5CECU_Rivian_A1.5CTarget.5Crepo_projects.5CpRealEcu.5CcL_LATEST.5Cmake.5Coutput.5Cobjects.5Csha2.4::
                         158 .LDWlin4:
000000a0 0092            159 	mov	0,r18
                         160 .L19:
000000a2 03f0            161 	mov	sp,ep
000000a4 086d            162 	sld.w	16[ep],r13
000000a6 0a3d            163 	sld.w	20[ep],r7
000000a8 0c45            164 	sld.w	24[ep],r8
000000aa 1258            165 	mov	r18,r11
000000ac 0e55            166 	sld.w	28[ep],r10
000000ae c25a            167 	shl	2,r11
000000b0 3e0600000000*   168 	mov	_sha256_k,ep
000000b6 fa6fc460        169 	rotl	26,r13,r12
000000ba f56fc430        170 	rotl	21,r13,r6
000000be cbf1            171 	add	r11,ep
000000c0 2c31            172 	xor	r12,r6

                                                                      Page 4
                                                              C:\Users\nhuliyap\AppData\Local\Temp\gh_0000bnc1.s
000000c2 e76fc498        173 	rotl	7,r13,r19
000000c6 0788            174 	mov	r7,r17
000000c8 2d70            175 	not	r13,r14
000000ca 0085            176 	sld.w	0[ep],r16
000000cc 2699            177 	xor	r6,r19
000000ce 4d89            178 	and	r13,r17
000000d0 4871            179 	and	r8,r14
000000d2 ca99            180 	add	r10,r19
000000d4 3171            181 	xor	r17,r14
000000d6 c359            182 	add	sp,r11
000000d8 d371            183 	add	r19,r14
000000da 2b7f2100        184 	ld.w	32[r11],r15
000000de ce81            185 	add	r14,r16
                         186 --line209
                         187 ..lin.C.3A.5C_ECU2.5CECU_Rivian_A1.5CTarget.5Crepo_projects.5CpRealEcu.5CcL_LATEST.5Cmake.5Coutput.5Cobjects.5Csha2.5::
                         188 .LDWlin5:
000000e0 03f0            189 	mov	sp,ep
000000e2 0475            190 	sld.w	8[ep],r14
000000e4 004d            191 	sld.w	0[ep],r9
000000e6 0265            192 	sld.w	4[ep],r12
000000e8 d079            193 	add	r16,r15
000000ea 0e88            194 	mov	r14,r17
000000ec 0f45            195 	sst.w	r8,28[ep]
000000ee fe4fc430        196 	rotl	30,r9,r6
000000f2 f34fc458        197 	rotl	19,r9,r11
000000f6 2c89            198 	xor	r12,r17
000000f8 0e80            199 	mov	r14,r16
000000fa 0645            200 	sld.w	12[ep],r8
000000fc 2659            201 	xor	r6,r11
000000fe ea4fc450        202 	rotl	10,r9,r10
00000102 4989            203 	and	r9,r17
00000104 4c81            204 	and	r12,r16
00000106 2b51            205 	xor	r11,r10
00000108 3181            206 	xor	r17,r16
0000010a ca81            207 	add	r10,r16
0000010c cf41            208 	add	r15,r8
0000010e cf81            209 	add	r15,r16
00000110 4192            210 	add	1,r18
00000112 0d3d            211 	sst.w	r7,24[ep]
00000114 0b6d            212 	sst.w	r13,20[ep]
00000116 0945            213 	sst.w	r8,16[ep]
00000118 0775            214 	sst.w	r14,12[ep]
0000011a 0565            215 	sst.w	r12,8[ep]
0000011c 034d            216 	sst.w	r9,4[ep]
0000011e 0185            217 	sst.w	r16,0[ep]
00000120 1206c0ff        218 	addi	-64,r18,zero
00000124 f6bd*           219 	blt	.L19
                         220 --line220
                         221 ..lin.C.3A.5C_ECU2.5CECU_Rivian_A1.5CTarget.5Crepo_projects.5CpRealEcu.5CcL_LATEST.5Cmake.5Coutput.5Cobjects.5Csha2.6::
                         222 .LDWlin6:
00000126 0092            223 	mov	0,r18
                         224 .L22:
00000128 12f0            225 	mov	r18,ep
0000012a c2f2            226 	shl	2,ep
0000012c 0338            227 	mov	sp,r7
0000012e de39            228 	add	ep,r7
00000130 ddf1            229 	add	r29,ep
00000132 4435            230 	sld.w	136[ep],r6
00000134 278f0100        231 	ld.w	0[r7],r17
00000138 4192            232 	add	1,r18
0000013a d131            233 	add	r17,r6

                                                                      Page 5
                                                              C:\Users\nhuliyap\AppData\Local\Temp\gh_0000bnc1.s
0000013c 4535            234 	sst.w	r6,136[ep]
0000013e 6892            235 	cmp	8,r18
00000140 c6f5*           236 	blt	.L22
                         237 --line190
                         238 ..lin.C.3A.5C_ECU2.5CECU_Rivian_A1.5CTarget.5Crepo_projects.5CpRealEcu.5CcL_LATEST.5Cmake.5Coutput.5Cobjects.5Csha2.7::
                         239 .LDWlin7:
00000142 410a            240 	add	1,r1
                         241 .L7:
00000144 fb09            242 	cmp	r27,r1
00000146 f607cffe*       243 	blt	.L6
                         244 --	    .ef
                         245 .LDW11:
                         246 --line290
                         247 ..lin.C.3A.5C_ECU2.5CECU_Rivian_A1.5CTarget.5Crepo_projects.5CpRealEcu.5CcL_LATEST.5Cmake.5Coutput.5Cobjects.5Csha2.8::
                         248 .LDWlin8:
0000014a 031ea400        249 	addi	164,sp,sp
0000014e 7e06df10        250 	dispose	31,{r27,r28,r29},[lp]
                         251 	.global	___ghs_eofn_sha256_transf
                         252 ___ghs_eofn_sha256_transf:
                         253 	.type	_sha256_transf,@function
                         254 	.size	_sha256_transf,.-_sha256_transf
                         255 	.align	2
                         256 --_w	32[sp]	local
                         257 --_wv	0[sp]	local
                         258 --_t1	r15	local
                         259 --_sub_block	r10	local
                         260 --_i	r1	local
                         261 --_j	r18	local
                         262 
                         263 --_ctx	r29	param
                         264 --_message	r28	param
                         265 --_block_nb	r27	param
                         266 
                         267 	.section ".bss","awb"
                         268 .L124:
                         269 	.type	.L124,@object
                         270 	.size	.L124,0
                         271 	.data
                         272 	.text
                         273 	.align	2
                         274 	.align	2
                         275 ..gh.f.f.1.e.1:
                         276 	.type	..gh.f.f.1.e.1,@object
                         277 	.size	..gh.f.f.1.e.1,0
                         278 	.global	_sha256_init
                         279 _sha256_init:
                         280 --	    .bf
                         281 .LDW21:
00000152 008a            282 	mov	0,r17
                         283 .L260:
00000154 1190            284 	mov	r17,r18
00000156 c292            285 	shl	2,r18
00000158 12f0            286 	mov	r18,ep
0000015a 409e0000*       287 	movhi	hi(_sha256_h0),zero,r19
0000015e d391            288 	add	r19,r18
00000160 32970100*       289 	ld.w	lo(_sha256_h0)[r18],r18
00000164 c6f1            290 	add	r6,ep
                         291 --line305
                         292 ..lin.C.3A.5C_ECU2.5CECU_Rivian_A1.5CTarget.5Crepo_projects.5CpRealEcu.5CcL_LATEST.5Cmake.5Coutput.5Cobjects.5Csha2.9::
                         293 .LDWlin9:
00000166 418a            294 	add	1,r17

                                                                      Page 6
                                                              C:\Users\nhuliyap\AppData\Local\Temp\gh_0000bnc1.s
00000168 688a            295 	cmp	8,r17
0000016a 4595            296 	sst.w	r18,136[ep]
0000016c c6f5*           297 	blt	.L260
                         298 --line315
                         299 ..lin.C.3A.5C_ECU2.5CECU_Rivian_A1.5CTarget.5Crepo_projects.5CpRealEcu.5CcL_LATEST.5Cmake.5Coutput.5Cobjects.5Csha2.10::
                         300 .LDWlin10:
0000016e 06f0            301 	mov	r6,ep
00000170 0305            302 	sst.w	zero,4[ep]
00000172 0105            303 	sst.w	zero,0[ep]
                         304 --	    .ef
                         305 .LDW31:
00000174 7f00            306 	jmp	[lp]
                         307 	.global	___ghs_eofn_sha256_init
                         308 ___ghs_eofn_sha256_init:
                         309 	.type	_sha256_init,@function
                         310 	.size	_sha256_init,.-_sha256_init
                         311 	.align	2
                         312 --_i	r17	local
                         313 
                         314 --_ctx	r6	param
                         315 
                         316 	.section ".bss","awb"
                         317 .L299:
                         318 	.type	.L299,@object
                         319 	.size	.L299,0
                         320 	.data
                         321 	.text
                         322 	.align	2
                         323 	.align	2
                         324 ..gh.f.f.1.e.2:
                         325 	.type	..gh.f.f.1.e.2,@object
                         326 	.size	..gh.f.f.1.e.2,0
                         327 	.global	_sha256_update
                         328 _sha256_update:
00000176 8007e1f0        329 	prepare	{r24,r25,r26,r27,r28,r29,r31},0
0000017a 06e8            330 	mov	r6,r29
0000017c 07c8            331 	mov	r7,r25
0000017e 08e0            332 	mov	r8,r28
                         333 --	    .bf
                         334 .LDW41:
00000180 26770500        335 	ld.w	4[r6],r14
00000184 208e4000        336 	movea	64,zero,r17
00000188 ae89            337 	sub	r14,r17
0000018a e889            338 	cmp	r8,r17
0000018c e88f32d3        339 	cmovnl	r8,r17,r26
00000190 4832            340 	add	8,r6
00000192 ce31            341 	add	r14,r6
00000194 1a40            342 	mov	r26,r8
                         343 	jarl	_memcpy,lp
                         343 <EXPANSION BEGIN>
                         343 jarl22 _memcpy , lp 
00000196 80ff0000*       343 <EXPANSION END>
                         344 --line331
                         345 ..lin.C.3A.5C_ECU2.5CECU_Rivian_A1.5CTarget.5Crepo_projects.5CpRealEcu.5CcL_LATEST.5Cmake.5Coutput.5Cobjects.5Csha2.11::
                         346 .LDWlin11:
0000019a 3d970500        347 	ld.w	4[r29],r18
0000019e dc91            348 	add	r28,r18
000001a0 1206c0ff        349 	addi	-64,r18,zero
000001a4 d105*           350 	bl	.L337
                         351 --line332
                         352 ..lin.C.3A.5C_ECU2.5CECU_Rivian_A1.5CTarget.5Crepo_projects.5CpRealEcu.5CcL_LATEST.5Cmake.5Coutput.5Cobjects.5Csha2.12::

                                                                      Page 7
                                                              C:\Users\nhuliyap\AppData\Local\Temp\gh_0000bnc1.s
                         353 .LDWlin12:
000001a6 7d970500        354 	st.w	r18,4[r29]
000001aa 4006fff0        355 	dispose	0,{r24,r25,r26,r27,r28,r29,r31},[lp]
                         356 .L337:
                         357 --line336
                         358 ..lin.C.3A.5C_ECU2.5CECU_Rivian_A1.5CTarget.5Crepo_projects.5CpRealEcu.5CcL_LATEST.5Cmake.5Coutput.5Cobjects.5Csha2.13::
                         359 .LDWlin13:
000001ae bae1            360 	sub	r26,r28
000001b0 1cd8            361 	mov	r28,r27
000001b2 86da            362 	shr	6,r27
000001b4 dac9            363 	add	r26,r25
000001b6 1d30            364 	mov	r29,r6
000001b8 1d3e0800        365 	addi	8,r29,r7
000001bc 0142            366 	mov	1,r8
                         367 	jarl	_sha256_transf,lp
                         367 <EXPANSION BEGIN>
                         367 jarl22 _sha256_transf , lp 
000001be bfff42fe*       367 <EXPANSION END>
                         368 --line342
                         369 ..lin.C.3A.5C_ECU2.5CECU_Rivian_A1.5CTarget.5Crepo_projects.5CpRealEcu.5CcL_LATEST.5Cmake.5Coutput.5Cobjects.5Csha2.14::
                         370 .LDWlin14:
000001c2 1d30            371 	mov	r29,r6
000001c4 1938            372 	mov	r25,r7
000001c6 1b40            373 	mov	r27,r8
                         374 	jarl	_sha256_transf,lp
                         374 <EXPANSION BEGIN>
                         374 jarl22 _sha256_transf , lp 
000001c8 bfff38fe*       374 <EXPANSION END>
                         375 --line346
                         376 ..lin.C.3A.5C_ECU2.5CECU_Rivian_A1.5CTarget.5Crepo_projects.5CpRealEcu.5CcL_LATEST.5Cmake.5Coutput.5Cobjects.5Csha2.15::
                         377 .LDWlin15:
000001cc 1b38            378 	mov	r27,r7
000001ce dcd63f00        379 	andi	63,r28,r26
000001d2 c63a            380 	shl	6,r7
000001d4 1d360800        381 	addi	8,r29,r6
000001d8 d939            382 	add	r25,r7
000001da 1a40            383 	mov	r26,r8
                         384 	jarl	_memcpy,lp
                         384 <EXPANSION BEGIN>
                         384 jarl22 _memcpy , lp 
000001dc 80ff0000*       384 <EXPANSION END>
                         385 --line349
                         386 ..lin.C.3A.5C_ECU2.5CECU_Rivian_A1.5CTarget.5Crepo_projects.5CpRealEcu.5CcL_LATEST.5Cmake.5Coutput.5Cobjects.5Csha2.16::
                         387 .LDWlin16:
000001e0 1df0            388 	mov	r29,ep
000001e2 007d            389 	sld.w	0[ep],r15
000001e4 1b860100        390 	addi	1,r27,r16
000001e8 c682            391 	shl	6,r16
000001ea 03d5            392 	sst.w	r26,4[ep]
000001ec d079            393 	add	r16,r15
000001ee 017d            394 	sst.w	r15,0[ep]
                         395 --	    .ef
                         396 .LDW51:
000001f0 4006fff0        397 	dispose	0,{r24,r25,r26,r27,r28,r29,r31},[lp]
                         398 	.global	___ghs_eofn_sha256_update
                         399 ___ghs_eofn_sha256_update:
                         400 	.type	_sha256_update,@function
                         401 	.size	_sha256_update,.-_sha256_update
                         402 	.align	2
                         403 --_block_nb	r27	local
                         404 --_rem_len	r26	local

                                                                      Page 8
                                                              C:\Users\nhuliyap\AppData\Local\Temp\gh_0000bnc1.s
                         405 --_shifted_message	r25	local
                         406 
                         407 --_ctx	r29	param
                         408 --_message	r24	param
                         409 --_len	r28	param
                         410 
                         411 	.section ".bss","awb"
                         412 .L379:
                         413 	.type	.L379,@object
                         414 	.size	.L379,0
                         415 	.data
                         416 	.text
                         417 	.align	2
                         418 	.align	2
                         419 ..gh.f.f.1.e.3:
                         420 	.type	..gh.f.f.1.e.3,@object
                         421 	.size	..gh.f.f.1.e.3,0
                         422 	.global	_sha256_final
                         423 _sha256_final:
000001f4 8007e1f0        424 	prepare	{r24,r25,r26,r27,r28,r29,r31},0
000001f8 06d8            425 	mov	r6,r27
000001fa 07c0            426 	mov	r7,r24
                         427 --	    .bf
                         428 .LDW61:
000001fc 06f0            429 	mov	r6,ep
000001fe 0285            430 	sld.w	4[ep],r16
00000200 00ed            431 	sld.w	0[ep],r29
00000202 d04e3f00        432 	andi	63,r16,r9
00000206 0906c8ff        433 	addi	-56,r9,zero
0000020a e1570000        434 	setfl	r10
0000020e 0ace0100        435 	addi	1,r10,r25
00000212 19e0            436 	mov	r25,r28
00000214 c6e2            437 	shl	6,r28
00000216 06d60800        438 	addi	8,r6,r26
0000021a d0e9            439 	add	r16,r29
0000021c 1030            440 	mov	r16,r6
0000021e 1c38            441 	mov	r28,r7
00000220 c3ea            442 	shl	3,r29
00000222 da31            443 	add	r26,r6
00000224 b039            444 	sub	r16,r7
                         445 	jarl	___gh_memclr,lp
                         445 <EXPANSION BEGIN>
                         445 jarl22 ___gh_memclr , lp 
00000226 80ff0000*       445 <EXPANSION END>
                         446 --line370
                         447 ..lin.C.3A.5C_ECU2.5CECU_Rivian_A1.5CTarget.5Crepo_projects.5CpRealEcu.5CcL_LATEST.5Cmake.5Coutput.5Cobjects.5Csha2.17::
                         448 .LDWlin17:
0000022a 3bf70500        449 	ld.w	4[r27],ep
0000022e 20468000        450 	movea	128,zero,r8
00000232 dae1            451 	add	r26,r28
00000234 1d78            452 	mov	r29,r15
00000236 daf1            453 	add	r26,ep
00000238 8043            454 	sst.b	r8,0[ep]
0000023a 3cf6fcff        455 	movea	-4,r28,ep
0000023e 83eb            456 	sst.b	r29,3[ep]
00000240 1d70            457 	mov	r29,r14
00000242 887a            458 	shr	8,r15
00000244 9072            459 	shr	16,r14
00000246 98ea            460 	shr	24,r29
00000248 1a38            461 	mov	r26,r7
0000024a 827b            462 	sst.b	r15,2[ep]

                                                                      Page 9
                                                              C:\Users\nhuliyap\AppData\Local\Temp\gh_0000bnc1.s
0000024c 8173            463 	sst.b	r14,1[ep]
0000024e 80eb            464 	sst.b	r29,0[ep]
00000250 1b30            465 	mov	r27,r6
00000252 1940            466 	mov	r25,r8
                         467 	jarl	_sha256_transf,lp
                         467 <EXPANSION BEGIN>
                         467 jarl22 _sha256_transf , lp 
00000254 bfffacfd*       467 <EXPANSION END>
                         468 --line376
                         469 ..lin.C.3A.5C_ECU2.5CECU_Rivian_A1.5CTarget.5Crepo_projects.5CpRealEcu.5CcL_LATEST.5Cmake.5Coutput.5Cobjects.5Csha2.18::
                         470 .LDWlin18:
00000258 008a            471 	mov	0,r17
                         472 .L425:
0000025a 11f0            473 	mov	r17,ep
0000025c c2f2            474 	shl	2,ep
0000025e 1e90            475 	mov	ep,r18
00000260 db91            476 	add	r27,r18
00000262 323f8900        477 	ld.w	136[r18],r7
00000266 d8f1            478 	add	r24,ep
00000268 418a            479 	add	1,r17
0000026a 833b            480 	sst.b	r7,3[ep]
0000026c 326f8900        481 	ld.w	136[r18],r13
00000270 886a            482 	shr	8,r13
00000272 826b            483 	sst.b	r13,2[ep]
00000274 32678900        484 	ld.w	136[r18],r12
00000278 9062            485 	shr	16,r12
0000027a 8163            486 	sst.b	r12,1[ep]
0000027c 325f8900        487 	ld.w	136[r18],r11
00000280 985a            488 	shr	24,r11
00000282 805b            489 	sst.b	r11,0[ep]
00000284 688a            490 	cmp	8,r17
00000286 a6ed*           491 	blt	.L425
                         492 --	    .ef
                         493 .LDW71:
                         494 --line389
                         495 ..lin.C.3A.5C_ECU2.5CECU_Rivian_A1.5CTarget.5Crepo_projects.5CpRealEcu.5CcL_LATEST.5Cmake.5Coutput.5Cobjects.5Csha2.19::
                         496 .LDWlin19:
00000288 4006fff0        497 	dispose	0,{r24,r25,r26,r27,r28,r29,r31},[lp]
                         498 	.global	___ghs_eofn_sha256_final
                         499 ___ghs_eofn_sha256_final:
                         500 	.type	_sha256_final,@function
                         501 	.size	_sha256_final,.-_sha256_final
                         502 	.align	2
                         503 --_block_nb	r25	local
                         504 --_len_b	r29	local
                         505 --_i	r17	local
                         506 
                         507 --_ctx	r27	param
                         508 --_digest	r24	param
                         509 
                         510 	.section ".bss","awb"
                         511 .L458:
                         512 	.type	.L458,@object
                         513 	.size	.L458,0
                         514 	.data
                         515 	.text
                         516 	.align	2
                         517 	.align	2
                         518 ..gh.f.f.1.e.4:
                         519 	.type	..gh.f.f.1.e.4,@object
                         520 	.size	..gh.f.f.1.e.4,0

                                                                      Page 10
                                                              C:\Users\nhuliyap\AppData\Local\Temp\gh_0000bnc1.s
                         521 	.global	_sha256
                         522 _sha256:
0000028c be076110        523 	prepare	{r27,r29,r31},31
00000290 031ed0ff        524 	addi	-48,sp,sp
00000294 06e8            525 	mov	r6,r29
00000296 08d8            526 	mov	r8,r27
                         527 --	    .bf
                         528 .LDW81:
00000298 0330            529 	mov	sp,r6
                         530 	jarl	_sha256_init,lp
                         530 <EXPANSION BEGIN>
                         530 jarl22 _sha256_init , lp 
0000029a bfffb8fe*       530 <EXPANSION END>
                         531 --line297
                         532 ..lin.C.3A.5C_ECU2.5CECU_Rivian_A1.5CTarget.5Crepo_projects.5CpRealEcu.5CcL_LATEST.5Cmake.5Coutput.5Cobjects.5Csha2.20::
                         533 .LDWlin20:
0000029e 0740            534 	mov	r7,r8
000002a0 1d38            535 	mov	r29,r7
                         536 	jarl	_sha256_update,lp
                         536 <EXPANSION BEGIN>
                         536 jarl22 _sha256_update , lp 
000002a2 bfffd4fe*       536 <EXPANSION END>
                         537 --line298
                         538 ..lin.C.3A.5C_ECU2.5CECU_Rivian_A1.5CTarget.5Crepo_projects.5CpRealEcu.5CcL_LATEST.5Cmake.5Coutput.5Cobjects.5Csha2.21::
                         539 .LDWlin21:
000002a6 1b38            540 	mov	r27,r7
000002a8 0330            541 	mov	sp,r6
                         542 	jarl	_sha256_final,lp
                         542 <EXPANSION BEGIN>
                         542 jarl22 _sha256_final , lp 
000002aa bfff4aff*       542 <EXPANSION END>
                         543 --	    .ef
                         544 .LDW91:
                         545 --line299
                         546 ..lin.C.3A.5C_ECU2.5CECU_Rivian_A1.5CTarget.5Crepo_projects.5CpRealEcu.5CcL_LATEST.5Cmake.5Coutput.5Cobjects.5Csha2.22::
                         547 .LDWlin22:
000002ae 031e3000        548 	addi	48,sp,sp
000002b2 7e067f10        549 	dispose	31,{r27,r29,r31},[lp]
                         550 	.global	___ghs_eofn_sha256
                         551 ___ghs_eofn_sha256:
                         552 	.type	_sha256,@function
                         553 	.size	_sha256,.-_sha256
                         554 	.align	2
                         555 --_ctx	0[sp]	local
                         556 
                         557 --_message	r29	param
                         558 --_len	r28	param
                         559 --_digest	r27	param
                         560 
                         561 	.section ".bss","awb"
                         562 .L513:
                         563 	.type	.L513,@object
                         564 	.size	.L513,0
                         565 	.data
                         566 	.text
                         567 	.align	2
                         568 	.align	2
                         569 ..gh.f.f.1.e.5:
                         570 	.type	..gh.f.f.1.e.5,@object
                         571 	.size	..gh.f.f.1.e.5,0
                         572 	.global	_sha512_transf

                                                                      Page 11
                                                              C:\Users\nhuliyap\AppData\Local\Temp\gh_0000bnc1.s
                         573 _sha512_transf:
000002b6 be07e1ff        574 	prepare	{r20,r21,r22,r23,r24,r25,r26,r27,r28,r29,r31},31
000002ba 031eacfd        575 	addi	-596,sp,sp
000002be 03f0            576 	mov	sp,ep
000002c0 06c0            577 	mov	r6,r24
000002c2 013d            578 	sst.w	r7,0[ep]
000002c4 0345            579 	sst.w	r8,4[ep]
                         580 --	    .bf
                         581 .LDW02:
000002c6 00ca            582 	mov	0,r25
000002c8 8007fc02*       583 	br	.L536
                         584 .L535:
                         585 --line401
                         586 ..lin.C.3A.5C_ECU2.5CECU_Rivian_A1.5CTarget.5Crepo_projects.5CpRealEcu.5CcL_LATEST.5Cmake.5Coutput.5Cobjects.5Csha2.23::
                         587 .LDWlin23:
000002cc 235f0100        588 	ld.w	0[sp],r11
000002d0 1978            589 	mov	r25,r15
000002d2 c77a            590 	shl	7,r15
000002d4 000a            591 	mov	0,r1
000002d6 cb79            592 	add	r11,r15
                         593 .L539:
000002d8 01f0            594 	mov	r1,ep
000002da c3f2            595 	shl	3,ep
000002dc 23ee5000        596 	movea	80,sp,r29
000002e0 dee9            597 	add	ep,r29
000002e2 cff1            598 	add	r15,ep
000002e4 6298            599 	sld.bu	2[ep],r19
000002e6 6338            600 	sld.bu	3[ep],r7
000002e8 6658            601 	sld.bu	6[ep],r11
000002ea 6740            602 	sld.bu	7[ep],r8
000002ec c89a            603 	shl	8,r19
000002ee 0799            604 	or	r7,r19
000002f0 6138            605 	sld.bu	1[ep],r7
000002f2 c85a            606 	shl	8,r11
000002f4 0859            607 	or	r8,r11
000002f6 6590            608 	sld.bu	5[ep],r18
000002f8 d03a            609 	shl	16,r7
000002fa 1339            610 	or	r19,r7
000002fc 6440            611 	sld.bu	4[ep],r8
000002fe 6098            612 	sld.bu	0[ep],r19
00000300 d092            613 	shl	16,r18
00000302 0b91            614 	or	r11,r18
00000304 d842            615 	shl	24,r8
00000306 d89a            616 	shl	24,r19
00000308 0891            617 	or	r8,r18
0000030a 0799            618 	or	r7,r19
0000030c 410a            619 	add	1,r1
0000030e bd070f900000    620 	st.dw	r18,0[r29]
00000314 0106f0ff        621 	addi	-16,r1,zero
00000318 86e5*           622 	blt	.L539
                         623 --line408
                         624 ..lin.C.3A.5C_ECU2.5CECU_Rivian_A1.5CTarget.5Crepo_projects.5CpRealEcu.5CcL_LATEST.5Cmake.5Coutput.5Cobjects.5Csha2.24::
                         625 .LDWlin24:
0000031a 200e1000        626 	movea	16,zero,r1
                         627 .L542:
0000031e 0130            628 	mov	r1,r6
00000320 c332            629 	shl	3,r6
00000322 034e4000        630 	addi	64,sp,r9
00000326 c649            631 	add	r6,r9
00000328 a90709500000    632 	ld.dw	0[r9],r10
0000032e 0346d8ff        633 	addi	-40,sp,r8

                                                                      Page 12
                                                              C:\Users\nhuliyap\AppData\Local\Temp\gh_0000bnc1.s
00000332 c641            634 	add	r6,r8
00000334 a80709900000    635 	ld.dw	0[r8],r18
0000033a 0a78            636 	mov	r10,r15
0000033c 0b80            637 	mov	r11,r16
0000033e 937a            638 	shr	19,r15
00000340 cd82            639 	shl	13,r16
00000342 0f81            640 	or	r15,r16
00000344 0b78            641 	mov	r11,r15
00000346 0a88            642 	mov	r10,r17
00000348 937a            643 	shr	19,r15
0000034a cd8a            644 	shl	13,r17
0000034c 0f89            645 	or	r15,r17
0000034e 0bd0            646 	mov	r11,r26
00000350 0a40            647 	mov	r10,r8
00000352 9dd2            648 	shr	29,r26
00000354 0a78            649 	mov	r10,r15
00000356 c342            650 	shl	3,r8
00000358 0b60            651 	mov	r11,r12
0000035a 233e5000        652 	movea	80,sp,r7
0000035e 1a41            653 	or	r26,r8
00000360 8652            654 	shr	6,r10
00000362 da62            655 	shl	26,r12
00000364 3041            656 	xor	r16,r8
00000366 0a61            657 	or	r10,r12
00000368 076ec8ff        658 	addi	-56,r7,r13
0000036c 0b70            659 	mov	r11,r14
0000036e 2861            660 	xor	r8,r12
00000370 c669            661 	add	r6,r13
00000372 c372            662 	shl	3,r14
00000374 9d7a            663 	shr	29,r15
00000376 ad0709400000    664 	ld.dw	0[r13],r8
0000037c 0e79            665 	or	r14,r15
0000037e 06e8            666 	mov	r6,r29
00000380 3179            667 	xor	r17,r15
00000382 865a            668 	shr	6,r11
00000384 c7e9            669 	add	r7,r29
00000386 2f59            670 	xor	r15,r11
00000388 cc41            671 	add	r12,r8
0000038a eb4fa28b        672 	adfl	r11,r9,r17
0000038e 1368            673 	mov	r19,r13
00000390 1248            674 	mov	r18,r9
00000392 816a            675 	shr	1,r13
00000394 df4a            676 	shl	31,r9
00000396 0d49            677 	or	r13,r9
00000398 1260            678 	mov	r18,r12
0000039a 1370            679 	mov	r19,r14
0000039c 1368            680 	mov	r19,r13
0000039e 1278            681 	mov	r18,r15
000003a0 8162            682 	shr	1,r12
000003a2 df72            683 	shl	31,r14
000003a4 886a            684 	shr	8,r13
000003a6 d87a            685 	shl	24,r15
000003a8 0c71            686 	or	r12,r14
000003aa 0d79            687 	or	r13,r15
000003ac 1258            688 	mov	r18,r11
000003ae 1360            689 	mov	r19,r12
000003b0 2979            690 	xor	r9,r15
000003b2 885a            691 	shr	8,r11
000003b4 d862            692 	shl	24,r12
000003b6 1348            693 	mov	r19,r9
000003b8 0b61            694 	or	r11,r12

                                                                      Page 13
                                                              C:\Users\nhuliyap\AppData\Local\Temp\gh_0000bnc1.s
000003ba 8792            695 	shr	7,r18
000003bc d94a            696 	shl	25,r9
000003be 2e61            697 	xor	r14,r12
000003c0 1249            698 	or	r18,r9
000003c2 879a            699 	shr	7,r19
000003c4 2c49            700 	xor	r12,r9
000003c6 2f99            701 	xor	r15,r19
000003c8 c849            702 	add	r8,r9
000003ca f19fa27b        703 	adfl	r17,r19,r15
000003ce 078680ff        704 	addi	-128,r7,r16
000003d2 d031            705 	add	r16,r6
000003d4 a60709500000    706 	ld.dw	0[r6],r10
000003da 00da            707 	mov	0,r27
000003dc 0a60            708 	mov	r10,r12
000003de c961            709 	add	r9,r12
000003e0 ef5fa26b        710 	adfl	r15,r11,r13
                         711 --line408
                         712 ..lin.C.3A.5C_ECU2.5CECU_Rivian_A1.5CTarget.5Crepo_projects.5CpRealEcu.5CcL_LATEST.5Cmake.5Coutput.5Cobjects.5Csha2.25::
                         713 .LDWlin25:
000003e4 410a            714 	add	1,r1
000003e6 bd070f600000    715 	st.dw	r12,0[r29]
000003ec 0106b0ff        716 	addi	-80,r1,zero
000003f0 f695*           717 	blt	.L542
                         718 --line412
                         719 ..lin.C.3A.5C_ECU2.5CECU_Rivian_A1.5CTarget.5Crepo_projects.5CpRealEcu.5CcL_LATEST.5Cmake.5Coutput.5Cobjects.5Csha2.26::
                         720 .LDWlin26:
000003f2 1b08            721 	mov	r27,r1
                         722 .L545:
000003f4 0168            723 	mov	r1,r13
000003f6 c36a            724 	shl	3,r13
000003f8 23561000        725 	movea	16,sp,r10
000003fc cd51            726 	add	r13,r10
000003fe 187e0801        727 	addi	264,r24,r15
00000402 cf69            728 	add	r15,r13
00000404 ad0709700000    729 	ld.dw	0[r13],r14
                         730 --line412
                         731 ..lin.C.3A.5C_ECU2.5CECU_Rivian_A1.5CTarget.5Crepo_projects.5CpRealEcu.5CcL_LATEST.5Cmake.5Coutput.5Cobjects.5Csha2.27::
                         732 .LDWlin27:
0000040a 410a            733 	add	1,r1
0000040c 680a            734 	cmp	8,r1
0000040e aa070f700000    735 	st.dw	r14,0[r10]
00000414 86f5*           736 	blt	.L545
                         737 --line416
                         738 ..lin.C.3A.5C_ECU2.5CECU_Rivian_A1.5CTarget.5Crepo_projects.5CpRealEcu.5CcL_LATEST.5Cmake.5Coutput.5Cobjects.5Csha2.28::
                         739 .LDWlin28:
00000416 1b08            740 	mov	r27,r1
                         741 .L548:
00000418 a30709630000    742 	ld.dw	48[sp],r12
0000041e a30789440000    743 	ld.dw	72[sp],r8
00000424 01e8            744 	mov	r1,r29
00000426 a30789a30000    745 	ld.dw	56[sp],r20
0000042c 0c38            746 	mov	r12,r7
0000042e 0d70            747 	mov	r13,r14
00000430 0c30            748 	mov	r12,r6
00000432 0d80            749 	mov	r13,r16
00000434 8e3a            750 	shr	14,r7
00000436 d272            751 	shl	18,r14
00000438 0d98            752 	mov	r13,r19
0000043a 0c78            753 	mov	r12,r15
0000043c 9232            754 	shr	18,r6
0000043e ce82            755 	shl	14,r16

                                                                      Page 14
                                                              C:\Users\nhuliyap\AppData\Local\Temp\gh_0000bnc1.s
00000440 0771            756 	or	r7,r14
00000442 8e9a            757 	shr	14,r19
00000444 d27a            758 	shl	18,r15
00000446 1031            759 	or	r16,r6
00000448 1379            760 	or	r19,r15
0000044a 0d88            761 	mov	r13,r17
0000044c 0c38            762 	mov	r12,r7
0000044e 2671            763 	xor	r6,r14
00000450 928a            764 	shr	18,r17
00000452 ce3a            765 	shl	14,r7
00000454 0d50            766 	mov	r13,r10
00000456 0d90            767 	mov	r13,r18
00000458 0c98            768 	mov	r12,r19
0000045a 0c30            769 	mov	r12,r6
0000045c 1139            770 	or	r17,r7
0000045e 8952            771 	shr	9,r10
00000460 d792            772 	shl	23,r18
00000462 899a            773 	shr	9,r19
00000464 d732            774 	shl	23,r6
00000466 2f39            775 	xor	r15,r7
00000468 1299            776 	or	r18,r19
0000046a 0651            777 	or	r6,r10
0000046c c3ea            778 	shl	3,r29
0000046e 2e51            779 	xor	r14,r10
00000470 2799            780 	xor	r7,r19
00000472 a30709b40000    781 	ld.dw	64[sp],r22
00000478 c851            782 	add	r8,r10
0000047a e99fa25b        783 	adfl	r9,r19,r11
0000047e 1480            784 	mov	r20,r16
00000480 1588            785 	mov	r21,r17
00000482 2c40            786 	not	r12,r8
00000484 2d38            787 	not	r13,r7
00000486 4c81            788 	and	r12,r16
00000488 4d89            789 	and	r13,r17
0000048a 5641            790 	and	r22,r8
0000048c 5739            791 	and	r23,r7
0000048e 3041            792 	xor	r16,r8
00000490 3139            793 	xor	r17,r7
00000492 ca41            794 	add	r10,r8
00000494 eb3fa24b        795 	adfl	r11,r7,r9
00000498 310600000000*   796 	mov	_sha512_k,r17
0000049e dd89            797 	add	r29,r17
000004a0 b10709900000    798 	ld.dw	0[r17],r18
                         799 --line419
                         800 ..lin.C.3A.5C_ECU2.5CECU_Rivian_A1.5CTarget.5Crepo_projects.5CpRealEcu.5CcL_LATEST.5Cmake.5Coutput.5Cobjects.5Csha2.29::
                         801 .LDWlin29:
000004a6 a30789d10000    802 	ld.dw	24[sp],r26
000004ac 1230            803 	mov	r18,r6
000004ae c831            804 	add	r8,r6
000004b0 e99fa23b        805 	adfl	r9,r19,r7
000004b4 234e5000        806 	movea	80,sp,r9
000004b8 c9e9            807 	add	r9,r29
000004ba bd0709900000    808 	ld.dw	0[r29],r18
000004c0 a30709410000    809 	ld.dw	16[sp],r8
000004c6 a30709e20000    810 	ld.dw	32[sp],r28
000004cc 03f0            811 	mov	sp,ep
000004ce c691            812 	add	r6,r18
000004d0 e79fa2fb        813 	adfl	r7,r19,lp
000004d4 0880            814 	mov	r8,r16
000004d6 0970            815 	mov	r9,r14
000004d8 0978            816 	mov	r9,r15

                                                                      Page 15
                                                              C:\Users\nhuliyap\AppData\Local\Temp\gh_0000bnc1.s
000004da 0888            817 	mov	r8,r17
000004dc 9c82            818 	shr	28,r16
000004de c472            819 	shl	4,r14
000004e0 9c7a            820 	shr	28,r15
000004e2 c48a            821 	shl	4,r17
000004e4 0e81            822 	or	r14,r16
000004e6 0f89            823 	or	r15,r17
000004e8 a3078f800000    824 	st.dw	r16,8[sp]
000004ee 045d            825 	sld.w	8[ep],r11
000004f0 0950            826 	mov	r9,r10
000004f2 0830            827 	mov	r8,r6
000004f4 8252            828 	shr	2,r10
000004f6 de32            829 	shl	30,r6
000004f8 0a31            830 	or	r10,r6
000004fa 2b31            831 	xor	r11,r6
000004fc 065d            832 	sld.w	12[ep],r11
000004fe 0978            833 	mov	r9,r15
00000500 0888            834 	mov	r8,r17
00000502 de7a            835 	shl	30,r15
00000504 828a            836 	shr	2,r17
00000506 0f89            837 	or	r15,r17
00000508 3159            838 	xor	r17,r11
0000050a 0980            839 	mov	r9,r16
0000050c 0950            840 	mov	r9,r10
0000050e 0888            841 	mov	r8,r17
00000510 0870            842 	mov	r8,r14
00000512 8782            843 	shr	7,r16
00000514 d952            844 	shl	25,r10
00000516 878a            845 	shr	7,r17
00000518 d972            846 	shl	25,r14
0000051a 0a89            847 	or	r10,r17
0000051c 0e81            848 	or	r14,r16
0000051e 2b89            849 	xor	r11,r17
00000520 1c70            850 	mov	r28,r14
00000522 1d78            851 	mov	r29,r15
00000524 3a71            852 	xor	r26,r14
00000526 3b79            853 	xor	r27,r15
00000528 1c50            854 	mov	r28,r10
0000052a 1d58            855 	mov	r29,r11
0000052c 4871            856 	and	r8,r14
0000052e 4979            857 	and	r9,r15
00000530 5a51            858 	and	r26,r10
00000532 5b59            859 	and	r27,r11
00000534 2e51            860 	xor	r14,r10
00000536 2f59            861 	xor	r15,r11
                         862 --line423
                         863 ..lin.C.3A.5C_ECU2.5CECU_Rivian_A1.5CTarget.5Crepo_projects.5CpRealEcu.5CcL_LATEST.5Cmake.5Coutput.5Cobjects.5Csha2.30::
                         864 .LDWlin30:
00000538 a30789720000    865 	ld.dw	40[sp],r14
0000053e 2681            866 	xor	r6,r16
00000540 d051            867 	add	r16,r10
00000542 f15fa23b        868 	adfl	r17,r11,r7
00000546 1280            869 	mov	r18,r16
00000548 ce81            870 	add	r14,r16
0000054a efffa28b        871 	adfl	r15,lp,r17
                         872 --line427
                         873 ..lin.C.3A.5C_ECU2.5CECU_Rivian_A1.5CTarget.5Crepo_projects.5CpRealEcu.5CcL_LATEST.5Cmake.5Coutput.5Cobjects.5Csha2.31::
                         874 .LDWlin31:
0000054e 0a70            875 	mov	r10,r14
00000550 d271            876 	add	r18,r14
00000552 ff3fa27b        877 	adfl	lp,r7,r15

                                                                      Page 16
                                                              C:\Users\nhuliyap\AppData\Local\Temp\gh_0000bnc1.s
00000556 410a            878 	add	1,r1
00000558 a3078fb40000    879 	st.dw	r22,72[sp]
                         880 --line421
                         881 ..lin.C.3A.5C_ECU2.5CECU_Rivian_A1.5CTarget.5Crepo_projects.5CpRealEcu.5CcL_LATEST.5Cmake.5Coutput.5Cobjects.5Csha2.32::
                         882 .LDWlin32:
0000055e a3070fa40000    883 	st.dw	r20,64[sp]
                         884 --line422
                         885 ..lin.C.3A.5C_ECU2.5CECU_Rivian_A1.5CTarget.5Crepo_projects.5CpRealEcu.5CcL_LATEST.5Cmake.5Coutput.5Cobjects.5Csha2.33::
                         886 .LDWlin33:
00000564 a3078f630000    887 	st.dw	r12,56[sp]
0000056a a3070f830000    888 	st.dw	r16,48[sp]
                         889 --line424
                         890 ..lin.C.3A.5C_ECU2.5CECU_Rivian_A1.5CTarget.5Crepo_projects.5CpRealEcu.5CcL_LATEST.5Cmake.5Coutput.5Cobjects.5Csha2.34::
                         891 .LDWlin34:
00000570 a3078fe20000    892 	st.dw	r28,40[sp]
                         893 --line425
                         894 ..lin.C.3A.5C_ECU2.5CECU_Rivian_A1.5CTarget.5Crepo_projects.5CpRealEcu.5CcL_LATEST.5Cmake.5Coutput.5Cobjects.5Csha2.35::
                         895 .LDWlin35:
00000576 a3070fd20000    896 	st.dw	r26,32[sp]
                         897 --line426
                         898 ..lin.C.3A.5C_ECU2.5CECU_Rivian_A1.5CTarget.5Crepo_projects.5CpRealEcu.5CcL_LATEST.5Cmake.5Coutput.5Cobjects.5Csha2.36::
                         899 .LDWlin36:
0000057c a3078f410000    900 	st.dw	r8,24[sp]
00000582 a3070f710000    901 	st.dw	r14,16[sp]
00000588 0106b0ff        902 	addi	-80,r1,zero
0000058c f6078dfe*       903 	blt	.L548
                         904 --line430
                         905 ..lin.C.3A.5C_ECU2.5CECU_Rivian_A1.5CTarget.5Crepo_projects.5CpRealEcu.5CcL_LATEST.5Cmake.5Coutput.5Cobjects.5Csha2.37::
                         906 .LDWlin37:
00000590 000a            907 	mov	0,r1
                         908 .L551:
00000592 0168            909 	mov	r1,r13
00000594 c36a            910 	shl	3,r13
00000596 189e0801        911 	addi	264,r24,r19
0000059a cd99            912 	add	r13,r19
0000059c 23361000        913 	movea	16,sp,r6
000005a0 c669            914 	add	r6,r13
000005a2 ad0709400000    915 	ld.dw	0[r13],r8
000005a8 b30709500000    916 	ld.dw	0[r19],r10
000005ae 0860            917 	mov	r8,r12
000005b0 ca61            918 	add	r10,r12
000005b2 eb4fa26b        919 	adfl	r11,r9,r13
                         920 --line430
                         921 ..lin.C.3A.5C_ECU2.5CECU_Rivian_A1.5CTarget.5Crepo_projects.5CpRealEcu.5CcL_LATEST.5Cmake.5Coutput.5Cobjects.5Csha2.38::
                         922 .LDWlin38:
000005b6 410a            923 	add	1,r1
000005b8 b3070f600000    924 	st.dw	r12,0[r19]
000005be 680a            925 	cmp	8,r1
000005c0 96ed*           926 	blt	.L551
                         927 --line400
                         928 ..lin.C.3A.5C_ECU2.5CECU_Rivian_A1.5CTarget.5Crepo_projects.5CpRealEcu.5CcL_LATEST.5Cmake.5Coutput.5Cobjects.5Csha2.39::
                         929 .LDWlin39:
000005c2 41ca            930 	add	1,r25
                         931 .L536:
000005c4 235f0500        932 	ld.w	4[sp],r11
000005c8 ebc9            933 	cmp	r11,r25
000005ca f60703fd*       934 	blt	.L535
                         935 --	    .ef
                         936 .LDW12:
                         937 --line484
                         938 ..lin.C.3A.5C_ECU2.5CECU_Rivian_A1.5CTarget.5Crepo_projects.5CpRealEcu.5CcL_LATEST.5Cmake.5Coutput.5Cobjects.5Csha2.40::

                                                                      Page 17
                                                              C:\Users\nhuliyap\AppData\Local\Temp\gh_0000bnc1.s
                         939 .LDWlin40:
000005ce 031e5402        940 	addi	596,sp,sp
000005d2 7e06ffff        941 	dispose	31,{r20,r21,r22,r23,r24,r25,r26,r27,r28,r29,r31},[lp]
                         942 	.global	___ghs_eofn_sha512_transf
                         943 ___ghs_eofn_sha512_transf:
                         944 	.type	_sha512_transf,@function
                         945 	.size	_sha512_transf,.-_sha512_transf
                         946 	.align	2
                         947 --_w	80[sp]	local
                         948 --_wv	16[sp]	local
                         949 --_t1	r16	local
                         950 --_t2	r14	local
                         951 --_sub_block	r15	local
                         952 --_i	r25	local
                         953 --_j	r1	local
                         954 
                         955 --_ctx	r24	param
                         956 --_message	0[sp]	param
                         957 --_block_nb	4[sp]	param
                         958 
                         959 	.section ".bss","awb"
                         960 .L652:
                         961 	.type	.L652,@object
                         962 	.size	.L652,0
                         963 	.data
                         964 	.text
                         965 	.align	2
                         966 	.align	2
                         967 ..gh.f.f.1.e.6:
                         968 	.type	..gh.f.f.1.e.6,@object
                         969 	.size	..gh.f.f.1.e.6,0
                         970 	.global	_sha512_init
                         971 _sha512_init:
000005d6 06f0            972 	mov	r6,ep
                         973 --	    .bf
                         974 .LDW22:
000005d8 008a            975 	mov	0,r17
                         976 .L788:
000005da 1190            977 	mov	r17,r18
000005dc c392            978 	shl	3,r18
000005de 06860801        979 	addi	264,r6,r16
000005e2 d281            980 	add	r18,r16
000005e4 2f0600000000*   981 	mov	_sha512_h0,r15
000005ea cf91            982 	add	r15,r18
000005ec b20709700000    983 	ld.dw	0[r18],r14
                         984 --line500
                         985 ..lin.C.3A.5C_ECU2.5CECU_Rivian_A1.5CTarget.5Crepo_projects.5CpRealEcu.5CcL_LATEST.5Cmake.5Coutput.5Cobjects.5Csha2.41::
                         986 .LDWlin41:
000005f2 418a            987 	add	1,r17
000005f4 688a            988 	cmp	8,r17
000005f6 b0070f700000    989 	st.dw	r14,0[r16]
000005fc f6ed*           990 	blt	.L788
                         991 --line510
                         992 ..lin.C.3A.5C_ECU2.5CECU_Rivian_A1.5CTarget.5Crepo_projects.5CpRealEcu.5CcL_LATEST.5Cmake.5Coutput.5Cobjects.5Csha2.42::
                         993 .LDWlin42:
000005fe 0305            994 	sst.w	zero,4[ep]
00000600 0105            995 	sst.w	zero,0[ep]
                         996 --	    .ef
                         997 .LDW32:
00000602 7f00            998 	jmp	[lp]
                         999 	.global	___ghs_eofn_sha512_init

                                                                      Page 18
                                                              C:\Users\nhuliyap\AppData\Local\Temp\gh_0000bnc1.s
                        1000 ___ghs_eofn_sha512_init:
                        1001 	.type	_sha512_init,@function
                        1002 	.size	_sha512_init,.-_sha512_init
                        1003 	.align	2
                        1004 --_i	r17	local
                        1005 
                        1006 --_ctx	ep	param
                        1007 
                        1008 	.section ".bss","awb"
                        1009 .L827:
                        1010 	.type	.L827,@object
                        1011 	.size	.L827,0
                        1012 	.data
                        1013 	.text
                        1014 	.align	2
                        1015 	.align	2
                        1016 ..gh.f.f.1.e.7:
                        1017 	.type	..gh.f.f.1.e.7,@object
                        1018 	.size	..gh.f.f.1.e.7,0
                        1019 	.global	_sha512_update
                        1020 _sha512_update:
00000604 8007e1f0       1021 	prepare	{r24,r25,r26,r27,r28,r29,r31},0
00000608 06e8           1022 	mov	r6,r29
0000060a 07c8           1023 	mov	r7,r25
0000060c 08e0           1024 	mov	r8,r28
                        1025 --	    .bf
                        1026 .LDW42:
0000060e 26770500       1027 	ld.w	4[r6],r14
00000612 208e8000       1028 	movea	128,zero,r17
00000616 ae89           1029 	sub	r14,r17
00000618 e889           1030 	cmp	r8,r17
0000061a e88f32d3       1031 	cmovnl	r8,r17,r26
0000061e 4832           1032 	add	8,r6
00000620 ce31           1033 	add	r14,r6
00000622 1a40           1034 	mov	r26,r8
                        1035 	jarl	_memcpy,lp
                        1035 <EXPANSION BEGIN>
                        1035 jarl22 _memcpy , lp 
00000624 80ff0000*      1035 <EXPANSION END>
                        1036 --line526
                        1037 ..lin.C.3A.5C_ECU2.5CECU_Rivian_A1.5CTarget.5Crepo_projects.5CpRealEcu.5CcL_LATEST.5Cmake.5Coutput.5Cobjects.5Csha2.43::
                        1038 .LDWlin43:
00000628 3d970500       1039 	ld.w	4[r29],r18
0000062c dc91           1040 	add	r28,r18
0000062e 120680ff       1041 	addi	-128,r18,zero
00000632 d105*          1042 	bl	.L865
                        1043 --line527
                        1044 ..lin.C.3A.5C_ECU2.5CECU_Rivian_A1.5CTarget.5Crepo_projects.5CpRealEcu.5CcL_LATEST.5Cmake.5Coutput.5Cobjects.5Csha2.44::
                        1045 .LDWlin44:
00000634 7d970500       1046 	st.w	r18,4[r29]
00000638 4006fff0       1047 	dispose	0,{r24,r25,r26,r27,r28,r29,r31},[lp]
                        1048 .L865:
                        1049 --line531
                        1050 ..lin.C.3A.5C_ECU2.5CECU_Rivian_A1.5CTarget.5Crepo_projects.5CpRealEcu.5CcL_LATEST.5Cmake.5Coutput.5Cobjects.5Csha2.45::
                        1051 .LDWlin45:
0000063c bae1           1052 	sub	r26,r28
0000063e 1cd8           1053 	mov	r28,r27
00000640 87da           1054 	shr	7,r27
00000642 dac9           1055 	add	r26,r25
00000644 1d30           1056 	mov	r29,r6
00000646 1d3e0800       1057 	addi	8,r29,r7

                                                                      Page 19
                                                              C:\Users\nhuliyap\AppData\Local\Temp\gh_0000bnc1.s
0000064a 0142           1058 	mov	1,r8
                        1059 	jarl	_sha512_transf,lp
                        1059 <EXPANSION BEGIN>
                        1059 jarl22 _sha512_transf , lp 
0000064c bfff6afc*      1059 <EXPANSION END>
                        1060 --line537
                        1061 ..lin.C.3A.5C_ECU2.5CECU_Rivian_A1.5CTarget.5Crepo_projects.5CpRealEcu.5CcL_LATEST.5Cmake.5Coutput.5Cobjects.5Csha2.46::
                        1062 .LDWlin46:
00000650 1d30           1063 	mov	r29,r6
00000652 1938           1064 	mov	r25,r7
00000654 1b40           1065 	mov	r27,r8
                        1066 	jarl	_sha512_transf,lp
                        1066 <EXPANSION BEGIN>
                        1066 jarl22 _sha512_transf , lp 
00000656 bfff60fc*      1066 <EXPANSION END>
                        1067 --line541
                        1068 ..lin.C.3A.5C_ECU2.5CECU_Rivian_A1.5CTarget.5Crepo_projects.5CpRealEcu.5CcL_LATEST.5Cmake.5Coutput.5Cobjects.5Csha2.47::
                        1069 .LDWlin47:
0000065a 1b38           1070 	mov	r27,r7
0000065c dcd67f00       1071 	andi	127,r28,r26
00000660 c73a           1072 	shl	7,r7
00000662 1d360800       1073 	addi	8,r29,r6
00000666 d939           1074 	add	r25,r7
00000668 1a40           1075 	mov	r26,r8
                        1076 	jarl	_memcpy,lp
                        1076 <EXPANSION BEGIN>
                        1076 jarl22 _memcpy , lp 
0000066a 80ff0000*      1076 <EXPANSION END>
                        1077 --line544
                        1078 ..lin.C.3A.5C_ECU2.5CECU_Rivian_A1.5CTarget.5Crepo_projects.5CpRealEcu.5CcL_LATEST.5Cmake.5Coutput.5Cobjects.5Csha2.48::
                        1079 .LDWlin48:
0000066e 1df0           1080 	mov	r29,ep
00000670 007d           1081 	sld.w	0[ep],r15
00000672 1b860100       1082 	addi	1,r27,r16
00000676 c782           1083 	shl	7,r16
00000678 03d5           1084 	sst.w	r26,4[ep]
0000067a d079           1085 	add	r16,r15
0000067c 017d           1086 	sst.w	r15,0[ep]
                        1087 --	    .ef
                        1088 .LDW52:
0000067e 4006fff0       1089 	dispose	0,{r24,r25,r26,r27,r28,r29,r31},[lp]
                        1090 	.global	___ghs_eofn_sha512_update
                        1091 ___ghs_eofn_sha512_update:
                        1092 	.type	_sha512_update,@function
                        1093 	.size	_sha512_update,.-_sha512_update
                        1094 	.align	2
                        1095 --_block_nb	r27	local
                        1096 --_rem_len	r26	local
                        1097 --_shifted_message	r25	local
                        1098 
                        1099 --_ctx	r29	param
                        1100 --_message	r24	param
                        1101 --_len	r28	param
                        1102 
                        1103 	.section ".bss","awb"
                        1104 .L907:
                        1105 	.type	.L907,@object
                        1106 	.size	.L907,0
                        1107 	.data
                        1108 	.text
                        1109 	.align	2

                                                                      Page 20
                                                              C:\Users\nhuliyap\AppData\Local\Temp\gh_0000bnc1.s
                        1110 	.align	2
                        1111 ..gh.f.f.1.e.8:
                        1112 	.type	..gh.f.f.1.e.8,@object
                        1113 	.size	..gh.f.f.1.e.8,0
                        1114 	.global	_sha512_final
                        1115 _sha512_final:
00000682 8007e1f0       1116 	prepare	{r24,r25,r26,r27,r28,r29,r31},0
00000686 06d8           1117 	mov	r6,r27
00000688 07c0           1118 	mov	r7,r24
                        1119 --	    .bf
                        1120 .LDW62:
0000068a 06f0           1121 	mov	r6,ep
0000068c 0255           1122 	sld.w	4[ep],r10
0000068e 00ed           1123 	sld.w	0[ep],r29
00000690 ca667f00       1124 	andi	127,r10,r12
00000694 0c0690ff       1125 	addi	-112,r12,zero
00000698 e16f0000       1126 	setfl	r13
0000069c 0dce0100       1127 	addi	1,r13,r25
000006a0 19e0           1128 	mov	r25,r28
000006a2 c7e2           1129 	shl	7,r28
000006a4 06d60800       1130 	addi	8,r6,r26
000006a8 cae9           1131 	add	r10,r29
000006aa 0a30           1132 	mov	r10,r6
000006ac 1c38           1133 	mov	r28,r7
000006ae c3ea           1134 	shl	3,r29
000006b0 da31           1135 	add	r26,r6
000006b2 aa39           1136 	sub	r10,r7
                        1137 	jarl	___gh_memclr,lp
                        1137 <EXPANSION BEGIN>
                        1137 jarl22 ___gh_memclr , lp 
000006b4 80ff0000*      1137 <EXPANSION END>
                        1138 --line565
                        1139 ..lin.C.3A.5C_ECU2.5CECU_Rivian_A1.5CTarget.5Crepo_projects.5CpRealEcu.5CcL_LATEST.5Cmake.5Coutput.5Cobjects.5Csha2.49::
                        1140 .LDWlin49:
000006b8 3bf70500       1141 	ld.w	4[r27],ep
000006bc 205e8000       1142 	movea	128,zero,r11
000006c0 dae1           1143 	add	r26,r28
000006c2 1d40           1144 	mov	r29,r8
000006c4 daf1           1145 	add	r26,ep
000006c6 805b           1146 	sst.b	r11,0[ep]
000006c8 3cf6fcff       1147 	movea	-4,r28,ep
000006cc 83eb           1148 	sst.b	r29,3[ep]
000006ce 1d48           1149 	mov	r29,r9
000006d0 9042           1150 	shr	16,r8
000006d2 884a           1151 	shr	8,r9
000006d4 8143           1152 	sst.b	r8,1[ep]
000006d6 98ea           1153 	shr	24,r29
000006d8 1a38           1154 	mov	r26,r7
000006da 824b           1155 	sst.b	r9,2[ep]
000006dc 80eb           1156 	sst.b	r29,0[ep]
000006de 1b30           1157 	mov	r27,r6
000006e0 1940           1158 	mov	r25,r8
                        1159 	jarl	_sha512_transf,lp
                        1159 <EXPANSION BEGIN>
                        1159 jarl22 _sha512_transf , lp 
000006e2 bfffd4fb*      1159 <EXPANSION END>
                        1160 --line571
                        1161 ..lin.C.3A.5C_ECU2.5CECU_Rivian_A1.5CTarget.5Crepo_projects.5CpRealEcu.5CcL_LATEST.5Cmake.5Coutput.5Cobjects.5Csha2.50::
                        1162 .LDWlin50:
000006e6 005a           1163 	mov	0,r11
                        1164 .L953:

                                                                      Page 21
                                                              C:\Users\nhuliyap\AppData\Local\Temp\gh_0000bnc1.s
000006e8 0bf0           1165 	mov	r11,ep
000006ea c3f2           1166 	shl	3,ep
000006ec 1b960801       1167 	addi	264,r27,r18
000006f0 de91           1168 	add	ep,r18
000006f2 b20709400000   1169 	ld.dw	0[r18],r8
000006f8 d8f1           1170 	add	r24,ep
                        1171 --line571
                        1172 ..lin.C.3A.5C_ECU2.5CECU_Rivian_A1.5CTarget.5Crepo_projects.5CpRealEcu.5CcL_LATEST.5Cmake.5Coutput.5Cobjects.5Csha2.51::
                        1173 .LDWlin51:
000006fa 415a           1174 	add	1,r11
000006fc 8743           1175 	sst.b	r8,7[ep]
000006fe b20709800000   1176 	ld.dw	0[r18],r16
00000704 8882           1177 	shr	8,r16
00000706 8683           1178 	sst.b	r16,6[ep]
00000708 b20709700000   1179 	ld.dw	0[r18],r14
0000070e 9072           1180 	shr	16,r14
00000710 8573           1181 	sst.b	r14,5[ep]
00000712 b20709600000   1182 	ld.dw	0[r18],r12
00000718 9862           1183 	shr	24,r12
0000071a 8463           1184 	sst.b	r12,4[ep]
0000071c b20709300000   1185 	ld.dw	0[r18],r6
00000722 833b           1186 	sst.b	r7,3[ep]
00000724 b20709300000   1187 	ld.dw	0[r18],r6
0000072a 883a           1188 	shr	8,r7
0000072c 823b           1189 	sst.b	r7,2[ep]
0000072e b20709800000   1190 	ld.dw	0[r18],r16
00000734 908a           1191 	shr	16,r17
00000736 818b           1192 	sst.b	r17,1[ep]
00000738 b20709700000   1193 	ld.dw	0[r18],r14
0000073e 987a           1194 	shr	24,r15
00000740 807b           1195 	sst.b	r15,0[ep]
00000742 685a           1196 	cmp	8,r11
00000744 a6d5*          1197 	blt	.L953
                        1198 --	    .ef
                        1199 .LDW72:
                        1200 --line584
                        1201 ..lin.C.3A.5C_ECU2.5CECU_Rivian_A1.5CTarget.5Crepo_projects.5CpRealEcu.5CcL_LATEST.5Cmake.5Coutput.5Cobjects.5Csha2.52::
                        1202 .LDWlin52:
00000746 4006fff0       1203 	dispose	0,{r24,r25,r26,r27,r28,r29,r31},[lp]
                        1204 	.global	___ghs_eofn_sha512_final
                        1205 ___ghs_eofn_sha512_final:
                        1206 	.type	_sha512_final,@function
                        1207 	.size	_sha512_final,.-_sha512_final
                        1208 	.align	2
                        1209 --_block_nb	r25	local
                        1210 --_len_b	r29	local
                        1211 --_i	r11	local
                        1212 
                        1213 --_ctx	r27	param
                        1214 --_digest	r24	param
                        1215 
                        1216 	.section ".bss","awb"
                        1217 .L986:
                        1218 	.type	.L986,@object
                        1219 	.size	.L986,0
                        1220 	.data
                        1221 	.text
                        1222 	.align	2
                        1223 	.align	2
                        1224 ..gh.f.f.1.e.9:
                        1225 	.type	..gh.f.f.1.e.9,@object

                                                                      Page 22
                                                              C:\Users\nhuliyap\AppData\Local\Temp\gh_0000bnc1.s
                        1226 	.size	..gh.f.f.1.e.9,0
                        1227 	.global	_sha512
                        1228 _sha512:
0000074a be076110       1229 	prepare	{r27,r29,r31},31
0000074e 031e30ff       1230 	addi	-208,sp,sp
00000752 06e8           1231 	mov	r6,r29
00000754 08d8           1232 	mov	r8,r27
                        1233 --	    .bf
                        1234 .LDW82:
00000756 0330           1235 	mov	sp,r6
                        1236 	jarl	_sha512_init,lp
                        1236 <EXPANSION BEGIN>
                        1236 jarl22 _sha512_init , lp 
00000758 bfff7efe*      1236 <EXPANSION END>
                        1237 --line492
                        1238 ..lin.C.3A.5C_ECU2.5CECU_Rivian_A1.5CTarget.5Crepo_projects.5CpRealEcu.5CcL_LATEST.5Cmake.5Coutput.5Cobjects.5Csha2.53::
                        1239 .LDWlin53:
0000075c 0740           1240 	mov	r7,r8
0000075e 1d38           1241 	mov	r29,r7
                        1242 	jarl	_sha512_update,lp
                        1242 <EXPANSION BEGIN>
                        1242 jarl22 _sha512_update , lp 
00000760 bfffa4fe*      1242 <EXPANSION END>
                        1243 --line493
                        1244 ..lin.C.3A.5C_ECU2.5CECU_Rivian_A1.5CTarget.5Crepo_projects.5CpRealEcu.5CcL_LATEST.5Cmake.5Coutput.5Cobjects.5Csha2.54::
                        1245 .LDWlin54:
00000764 1b38           1246 	mov	r27,r7
00000766 0330           1247 	mov	sp,r6
                        1248 	jarl	_sha512_final,lp
                        1248 <EXPANSION BEGIN>
                        1248 jarl22 _sha512_final , lp 
00000768 bfff1aff*      1248 <EXPANSION END>
                        1249 --	    .ef
                        1250 .LDW92:
                        1251 --line494
                        1252 ..lin.C.3A.5C_ECU2.5CECU_Rivian_A1.5CTarget.5Crepo_projects.5CpRealEcu.5CcL_LATEST.5Cmake.5Coutput.5Cobjects.5Csha2.55::
                        1253 .LDWlin55:
0000076c 031ed000       1254 	addi	208,sp,sp
00000770 7e067f10       1255 	dispose	31,{r27,r29,r31},[lp]
                        1256 	.global	___ghs_eofn_sha512
                        1257 ___ghs_eofn_sha512:
                        1258 	.type	_sha512,@function
                        1259 	.size	_sha512,.-_sha512
                        1260 	.align	2
                        1261 --_ctx	0[sp]	local
                        1262 
                        1263 --_message	r29	param
                        1264 --_len	r28	param
                        1265 --_digest	r27	param
                        1266 
                        1267 	.section ".bss","awb"
                        1268 .L1041:
                        1269 	.type	.L1041,@object
                        1270 	.size	.L1041,0
                        1271 	.data
                        1272 	.text
                        1273 	.align	2
                        1274 	.align	2
                        1275 ..gh.f.f.1.e.10:
                        1276 	.type	..gh.f.f.1.e.10,@object
                        1277 	.size	..gh.f.f.1.e.10,0

                                                                      Page 23
                                                              C:\Users\nhuliyap\AppData\Local\Temp\gh_0000bnc1.s
                        1278 	.global	_sha384_init
                        1279 _sha384_init:
00000774 06f0           1280 	mov	r6,ep
                        1281 --	    .bf
                        1282 .LDW03:
00000776 008a           1283 	mov	0,r17
                        1284 .L1063:
00000778 1190           1285 	mov	r17,r18
0000077a c392           1286 	shl	3,r18
0000077c 06860801       1287 	addi	264,r6,r16
00000780 d281           1288 	add	r18,r16
00000782 2f0600000000*  1289 	mov	_sha384_h0,r15
00000788 cf91           1290 	add	r15,r18
0000078a b20709700000   1291 	ld.dw	0[r18],r14
                        1292 --line600
                        1293 ..lin.C.3A.5C_ECU2.5CECU_Rivian_A1.5CTarget.5Crepo_projects.5CpRealEcu.5CcL_LATEST.5Cmake.5Coutput.5Cobjects.5Csha2.56::
                        1294 .LDWlin56:
00000790 418a           1295 	add	1,r17
00000792 688a           1296 	cmp	8,r17
00000794 b0070f700000   1297 	st.dw	r14,0[r16]
0000079a f6ed*          1298 	blt	.L1063
                        1299 --line610
                        1300 ..lin.C.3A.5C_ECU2.5CECU_Rivian_A1.5CTarget.5Crepo_projects.5CpRealEcu.5CcL_LATEST.5Cmake.5Coutput.5Cobjects.5Csha2.57::
                        1301 .LDWlin57:
0000079c 0305           1302 	sst.w	zero,4[ep]
0000079e 0105           1303 	sst.w	zero,0[ep]
                        1304 --	    .ef
                        1305 .LDW13:
000007a0 7f00           1306 	jmp	[lp]
                        1307 	.global	___ghs_eofn_sha384_init
                        1308 ___ghs_eofn_sha384_init:
                        1309 	.type	_sha384_init,@function
                        1310 	.size	_sha384_init,.-_sha384_init
                        1311 	.align	2
                        1312 --_i	r17	local
                        1313 
                        1314 --_ctx	ep	param
                        1315 
                        1316 	.section ".bss","awb"
                        1317 .L1099:
                        1318 	.type	.L1099,@object
                        1319 	.size	.L1099,0
                        1320 	.data
                        1321 	.text
                        1322 	.align	2
                        1323 	.align	2
                        1324 ..gh.f.f.1.e.11:
                        1325 	.type	..gh.f.f.1.e.11,@object
                        1326 	.size	..gh.f.f.1.e.11,0
                        1327 	.global	_sha384_update
                        1328 _sha384_update:
000007a2 8007e1f0       1329 	prepare	{r24,r25,r26,r27,r28,r29,r31},0
000007a6 06e8           1330 	mov	r6,r29
000007a8 07c8           1331 	mov	r7,r25
000007aa 08e0           1332 	mov	r8,r28
                        1333 --	    .bf
                        1334 .LDW23:
000007ac 26770500       1335 	ld.w	4[r6],r14
000007b0 208e8000       1336 	movea	128,zero,r17
000007b4 ae89           1337 	sub	r14,r17
000007b6 e889           1338 	cmp	r8,r17

                                                                      Page 24
                                                              C:\Users\nhuliyap\AppData\Local\Temp\gh_0000bnc1.s
000007b8 e88f32d3       1339 	cmovnl	r8,r17,r26
000007bc 4832           1340 	add	8,r6
000007be ce31           1341 	add	r14,r6
000007c0 1a40           1342 	mov	r26,r8
                        1343 	jarl	_memcpy,lp
                        1343 <EXPANSION BEGIN>
                        1343 jarl22 _memcpy , lp 
000007c2 80ff0000*      1343 <EXPANSION END>
                        1344 --line626
                        1345 ..lin.C.3A.5C_ECU2.5CECU_Rivian_A1.5CTarget.5Crepo_projects.5CpRealEcu.5CcL_LATEST.5Cmake.5Coutput.5Cobjects.5Csha2.58::
                        1346 .LDWlin58:
000007c6 3d970500       1347 	ld.w	4[r29],r18
000007ca dc91           1348 	add	r28,r18
000007cc 120680ff       1349 	addi	-128,r18,zero
000007d0 d105*          1350 	bl	.L1137
                        1351 --line627
                        1352 ..lin.C.3A.5C_ECU2.5CECU_Rivian_A1.5CTarget.5Crepo_projects.5CpRealEcu.5CcL_LATEST.5Cmake.5Coutput.5Cobjects.5Csha2.59::
                        1353 .LDWlin59:
000007d2 7d970500       1354 	st.w	r18,4[r29]
000007d6 4006fff0       1355 	dispose	0,{r24,r25,r26,r27,r28,r29,r31},[lp]
                        1356 .L1137:
                        1357 --line631
                        1358 ..lin.C.3A.5C_ECU2.5CECU_Rivian_A1.5CTarget.5Crepo_projects.5CpRealEcu.5CcL_LATEST.5Cmake.5Coutput.5Cobjects.5Csha2.60::
                        1359 .LDWlin60:
000007da bae1           1360 	sub	r26,r28
000007dc 1cd8           1361 	mov	r28,r27
000007de 87da           1362 	shr	7,r27
000007e0 dac9           1363 	add	r26,r25
000007e2 1d30           1364 	mov	r29,r6
000007e4 1d3e0800       1365 	addi	8,r29,r7
000007e8 0142           1366 	mov	1,r8
                        1367 	jarl	_sha512_transf,lp
                        1367 <EXPANSION BEGIN>
                        1367 jarl22 _sha512_transf , lp 
000007ea bfffccfa*      1367 <EXPANSION END>
                        1368 --line637
                        1369 ..lin.C.3A.5C_ECU2.5CECU_Rivian_A1.5CTarget.5Crepo_projects.5CpRealEcu.5CcL_LATEST.5Cmake.5Coutput.5Cobjects.5Csha2.61::
                        1370 .LDWlin61:
000007ee 1d30           1371 	mov	r29,r6
000007f0 1938           1372 	mov	r25,r7
000007f2 1b40           1373 	mov	r27,r8
                        1374 	jarl	_sha512_transf,lp
                        1374 <EXPANSION BEGIN>
                        1374 jarl22 _sha512_transf , lp 
000007f4 bfffc2fa*      1374 <EXPANSION END>
                        1375 --line641
                        1376 ..lin.C.3A.5C_ECU2.5CECU_Rivian_A1.5CTarget.5Crepo_projects.5CpRealEcu.5CcL_LATEST.5Cmake.5Coutput.5Cobjects.5Csha2.62::
                        1377 .LDWlin62:
000007f8 1b38           1378 	mov	r27,r7
000007fa dcd67f00       1379 	andi	127,r28,r26
000007fe c73a           1380 	shl	7,r7
00000800 1d360800       1381 	addi	8,r29,r6
00000804 d939           1382 	add	r25,r7
00000806 1a40           1383 	mov	r26,r8
                        1384 	jarl	_memcpy,lp
                        1384 <EXPANSION BEGIN>
                        1384 jarl22 _memcpy , lp 
00000808 80ff0000*      1384 <EXPANSION END>
                        1385 --line644
                        1386 ..lin.C.3A.5C_ECU2.5CECU_Rivian_A1.5CTarget.5Crepo_projects.5CpRealEcu.5CcL_LATEST.5Cmake.5Coutput.5Cobjects.5Csha2.63::
                        1387 .LDWlin63:

                                                                      Page 25
                                                              C:\Users\nhuliyap\AppData\Local\Temp\gh_0000bnc1.s
0000080c 1df0           1388 	mov	r29,ep
0000080e 007d           1389 	sld.w	0[ep],r15
00000810 1b860100       1390 	addi	1,r27,r16
00000814 c782           1391 	shl	7,r16
00000816 03d5           1392 	sst.w	r26,4[ep]
00000818 d079           1393 	add	r16,r15
0000081a 017d           1394 	sst.w	r15,0[ep]
                        1395 --	    .ef
                        1396 .LDW33:
0000081c 4006fff0       1397 	dispose	0,{r24,r25,r26,r27,r28,r29,r31},[lp]
                        1398 	.global	___ghs_eofn_sha384_update
                        1399 ___ghs_eofn_sha384_update:
                        1400 	.type	_sha384_update,@function
                        1401 	.size	_sha384_update,.-_sha384_update
                        1402 	.align	2
                        1403 --_block_nb	r27	local
                        1404 --_rem_len	r26	local
                        1405 --_shifted_message	r25	local
                        1406 
                        1407 --_ctx	r29	param
                        1408 --_message	r24	param
                        1409 --_len	r28	param
                        1410 
                        1411 	.section ".bss","awb"
                        1412 .L1179:
                        1413 	.type	.L1179,@object
                        1414 	.size	.L1179,0
                        1415 	.data
                        1416 	.text
                        1417 	.align	2
                        1418 	.align	2
                        1419 ..gh.f.f.1.e.12:
                        1420 	.type	..gh.f.f.1.e.12,@object
                        1421 	.size	..gh.f.f.1.e.12,0
                        1422 	.global	_sha384_final
                        1423 _sha384_final:
00000820 8007e1f0       1424 	prepare	{r24,r25,r26,r27,r28,r29,r31},0
00000824 06d8           1425 	mov	r6,r27
00000826 07c0           1426 	mov	r7,r24
                        1427 --	    .bf
                        1428 .LDW43:
00000828 06f0           1429 	mov	r6,ep
0000082a 0255           1430 	sld.w	4[ep],r10
0000082c 00ed           1431 	sld.w	0[ep],r29
0000082e ca667f00       1432 	andi	127,r10,r12
00000832 0c0690ff       1433 	addi	-112,r12,zero
00000836 e16f0000       1434 	setfl	r13
0000083a 0dce0100       1435 	addi	1,r13,r25
0000083e 19e0           1436 	mov	r25,r28
00000840 c7e2           1437 	shl	7,r28
00000842 06d60800       1438 	addi	8,r6,r26
00000846 cae9           1439 	add	r10,r29
00000848 0a30           1440 	mov	r10,r6
0000084a 1c38           1441 	mov	r28,r7
0000084c c3ea           1442 	shl	3,r29
0000084e da31           1443 	add	r26,r6
00000850 aa39           1444 	sub	r10,r7
                        1445 	jarl	___gh_memclr,lp
                        1445 <EXPANSION BEGIN>
                        1445 jarl22 ___gh_memclr , lp 
00000852 80ff0000*      1445 <EXPANSION END>

                                                                      Page 26
                                                              C:\Users\nhuliyap\AppData\Local\Temp\gh_0000bnc1.s
                        1446 --line665
                        1447 ..lin.C.3A.5C_ECU2.5CECU_Rivian_A1.5CTarget.5Crepo_projects.5CpRealEcu.5CcL_LATEST.5Cmake.5Coutput.5Cobjects.5Csha2.64::
                        1448 .LDWlin64:
00000856 3bf70500       1449 	ld.w	4[r27],ep
0000085a 205e8000       1450 	movea	128,zero,r11
0000085e dae1           1451 	add	r26,r28
00000860 1d40           1452 	mov	r29,r8
00000862 daf1           1453 	add	r26,ep
00000864 805b           1454 	sst.b	r11,0[ep]
00000866 3cf6fcff       1455 	movea	-4,r28,ep
0000086a 83eb           1456 	sst.b	r29,3[ep]
0000086c 1d48           1457 	mov	r29,r9
0000086e 9042           1458 	shr	16,r8
00000870 884a           1459 	shr	8,r9
00000872 8143           1460 	sst.b	r8,1[ep]
00000874 98ea           1461 	shr	24,r29
00000876 1a38           1462 	mov	r26,r7
00000878 824b           1463 	sst.b	r9,2[ep]
0000087a 80eb           1464 	sst.b	r29,0[ep]
0000087c 1b30           1465 	mov	r27,r6
0000087e 1940           1466 	mov	r25,r8
                        1467 	jarl	_sha512_transf,lp
                        1467 <EXPANSION BEGIN>
                        1467 jarl22 _sha512_transf , lp 
00000880 bfff36fa*      1467 <EXPANSION END>
                        1468 --line671
                        1469 ..lin.C.3A.5C_ECU2.5CECU_Rivian_A1.5CTarget.5Crepo_projects.5CpRealEcu.5CcL_LATEST.5Cmake.5Coutput.5Cobjects.5Csha2.65::
                        1470 .LDWlin65:
00000884 005a           1471 	mov	0,r11
                        1472 .L1225:
00000886 0bf0           1473 	mov	r11,ep
00000888 c3f2           1474 	shl	3,ep
0000088a 1b960801       1475 	addi	264,r27,r18
0000088e de91           1476 	add	ep,r18
00000890 b20709400000   1477 	ld.dw	0[r18],r8
00000896 d8f1           1478 	add	r24,ep
                        1479 --line671
                        1480 ..lin.C.3A.5C_ECU2.5CECU_Rivian_A1.5CTarget.5Crepo_projects.5CpRealEcu.5CcL_LATEST.5Cmake.5Coutput.5Cobjects.5Csha2.66::
                        1481 .LDWlin66:
00000898 415a           1482 	add	1,r11
0000089a 8743           1483 	sst.b	r8,7[ep]
0000089c b20709800000   1484 	ld.dw	0[r18],r16
000008a2 8882           1485 	shr	8,r16
000008a4 8683           1486 	sst.b	r16,6[ep]
000008a6 b20709700000   1487 	ld.dw	0[r18],r14
000008ac 9072           1488 	shr	16,r14
000008ae 8573           1489 	sst.b	r14,5[ep]
000008b0 b20709600000   1490 	ld.dw	0[r18],r12
000008b6 9862           1491 	shr	24,r12
000008b8 8463           1492 	sst.b	r12,4[ep]
000008ba b20709300000   1493 	ld.dw	0[r18],r6
000008c0 833b           1494 	sst.b	r7,3[ep]
000008c2 b20709300000   1495 	ld.dw	0[r18],r6
000008c8 883a           1496 	shr	8,r7
000008ca 823b           1497 	sst.b	r7,2[ep]
000008cc b20709800000   1498 	ld.dw	0[r18],r16
000008d2 908a           1499 	shr	16,r17
000008d4 818b           1500 	sst.b	r17,1[ep]
000008d6 b20709700000   1501 	ld.dw	0[r18],r14
000008dc 987a           1502 	shr	24,r15
000008de 807b           1503 	sst.b	r15,0[ep]

                                                                      Page 27
                                                              C:\Users\nhuliyap\AppData\Local\Temp\gh_0000bnc1.s
000008e0 665a           1504 	cmp	6,r11
000008e2 a6d5*          1505 	blt	.L1225
                        1506 --	    .ef
                        1507 .LDW53:
                        1508 --line682
                        1509 ..lin.C.3A.5C_ECU2.5CECU_Rivian_A1.5CTarget.5Crepo_projects.5CpRealEcu.5CcL_LATEST.5Cmake.5Coutput.5Cobjects.5Csha2.67::
                        1510 .LDWlin67:
000008e4 4006fff0       1511 	dispose	0,{r24,r25,r26,r27,r28,r29,r31},[lp]
                        1512 	.global	___ghs_eofn_sha384_final
                        1513 ___ghs_eofn_sha384_final:
                        1514 	.type	_sha384_final,@function
                        1515 	.size	_sha384_final,.-_sha384_final
                        1516 	.align	2
                        1517 --_block_nb	r25	local
                        1518 --_len_b	r29	local
                        1519 --_i	r11	local
                        1520 
                        1521 --_ctx	r27	param
                        1522 --_digest	r24	param
                        1523 
                        1524 	.section ".bss","awb"
                        1525 .L1258:
                        1526 	.type	.L1258,@object
                        1527 	.size	.L1258,0
                        1528 	.data
                        1529 	.text
                        1530 	.align	2
                        1531 	.align	2
                        1532 ..gh.f.f.1.e.13:
                        1533 	.type	..gh.f.f.1.e.13,@object
                        1534 	.size	..gh.f.f.1.e.13,0
                        1535 	.global	_sha384
                        1536 _sha384:
000008e8 be076110       1537 	prepare	{r27,r29,r31},31
000008ec 031e30ff       1538 	addi	-208,sp,sp
000008f0 06e8           1539 	mov	r6,r29
000008f2 08d8           1540 	mov	r8,r27
                        1541 --	    .bf
                        1542 .LDW63:
000008f4 0330           1543 	mov	sp,r6
                        1544 	jarl	_sha384_init,lp
                        1544 <EXPANSION BEGIN>
                        1544 jarl22 _sha384_init , lp 
000008f6 bfff7efe*      1544 <EXPANSION END>
                        1545 --line592
                        1546 ..lin.C.3A.5C_ECU2.5CECU_Rivian_A1.5CTarget.5Crepo_projects.5CpRealEcu.5CcL_LATEST.5Cmake.5Coutput.5Cobjects.5Csha2.68::
                        1547 .LDWlin68:
000008fa 0740           1548 	mov	r7,r8
000008fc 1d38           1549 	mov	r29,r7
                        1550 	jarl	_sha384_update,lp
                        1550 <EXPANSION BEGIN>
                        1550 jarl22 _sha384_update , lp 
000008fe bfffa4fe*      1550 <EXPANSION END>
                        1551 --line593
                        1552 ..lin.C.3A.5C_ECU2.5CECU_Rivian_A1.5CTarget.5Crepo_projects.5CpRealEcu.5CcL_LATEST.5Cmake.5Coutput.5Cobjects.5Csha2.69::
                        1553 .LDWlin69:
00000902 1b38           1554 	mov	r27,r7
00000904 0330           1555 	mov	sp,r6
                        1556 	jarl	_sha384_final,lp
                        1556 <EXPANSION BEGIN>
                        1556 jarl22 _sha384_final , lp 

                                                                      Page 28
                                                              C:\Users\nhuliyap\AppData\Local\Temp\gh_0000bnc1.s
00000906 bfff1aff*      1556 <EXPANSION END>
                        1557 --	    .ef
                        1558 .LDW73:
                        1559 --line594
                        1560 ..lin.C.3A.5C_ECU2.5CECU_Rivian_A1.5CTarget.5Crepo_projects.5CpRealEcu.5CcL_LATEST.5Cmake.5Coutput.5Cobjects.5Csha2.70::
                        1561 .LDWlin70:
0000090a 031ed000       1562 	addi	208,sp,sp
0000090e 7e067f10       1563 	dispose	31,{r27,r29,r31},[lp]
                        1564 	.global	___ghs_eofn_sha384
                        1565 ___ghs_eofn_sha384:
                        1566 	.type	_sha384,@function
                        1567 	.size	_sha384,.-_sha384
                        1568 	.align	2
                        1569 --_ctx	0[sp]	local
                        1570 
                        1571 --_message	r29	param
                        1572 --_len	r28	param
                        1573 --_digest	r27	param
                        1574 
                        1575 	.section ".bss","awb"
                        1576 .L1313:
                        1577 	.type	.L1313,@object
                        1578 	.size	.L1313,0
                        1579 	.data
                        1580 	.text
                        1581 	.align	2
                        1582 	.align	2
                        1583 ..gh.f.f.1.e.14:
                        1584 	.type	..gh.f.f.1.e.14,@object
                        1585 	.size	..gh.f.f.1.e.14,0
                        1586 	.global	_sha224_init
                        1587 _sha224_init:
                        1588 --	    .bf
                        1589 .LDW83:
00000912 008a           1590 	mov	0,r17
                        1591 .L1335:
00000914 1190           1592 	mov	r17,r18
00000916 c292           1593 	shl	2,r18
00000918 12f0           1594 	mov	r18,ep
0000091a 409e0000*      1595 	movhi	hi(_sha224_h0),zero,r19
0000091e d391           1596 	add	r19,r18
00000920 32970100*      1597 	ld.w	lo(_sha224_h0)[r18],r18
00000924 c6f1           1598 	add	r6,ep
                        1599 --line698
                        1600 ..lin.C.3A.5C_ECU2.5CECU_Rivian_A1.5CTarget.5Crepo_projects.5CpRealEcu.5CcL_LATEST.5Cmake.5Coutput.5Cobjects.5Csha2.71::
                        1601 .LDWlin71:
00000926 418a           1602 	add	1,r17
00000928 688a           1603 	cmp	8,r17
0000092a 4595           1604 	sst.w	r18,136[ep]
0000092c c6f5*          1605 	blt	.L1335
                        1606 --line708
                        1607 ..lin.C.3A.5C_ECU2.5CECU_Rivian_A1.5CTarget.5Crepo_projects.5CpRealEcu.5CcL_LATEST.5Cmake.5Coutput.5Cobjects.5Csha2.72::
                        1608 .LDWlin72:
0000092e 06f0           1609 	mov	r6,ep
00000930 0305           1610 	sst.w	zero,4[ep]
00000932 0105           1611 	sst.w	zero,0[ep]
                        1612 --	    .ef
                        1613 .LDW93:
00000934 7f00           1614 	jmp	[lp]
                        1615 	.global	___ghs_eofn_sha224_init
                        1616 ___ghs_eofn_sha224_init:

                                                                      Page 29
                                                              C:\Users\nhuliyap\AppData\Local\Temp\gh_0000bnc1.s
                        1617 	.type	_sha224_init,@function
                        1618 	.size	_sha224_init,.-_sha224_init
                        1619 	.align	2
                        1620 --_i	r17	local
                        1621 
                        1622 --_ctx	r6	param
                        1623 
                        1624 	.section ".bss","awb"
                        1625 .L1371:
                        1626 	.type	.L1371,@object
                        1627 	.size	.L1371,0
                        1628 	.data
                        1629 	.text
                        1630 	.align	2
                        1631 	.align	2
                        1632 ..gh.f.f.1.e.15:
                        1633 	.type	..gh.f.f.1.e.15,@object
                        1634 	.size	..gh.f.f.1.e.15,0
                        1635 	.global	_sha224_update
                        1636 _sha224_update:
00000936 8007e1f0       1637 	prepare	{r24,r25,r26,r27,r28,r29,r31},0
0000093a 06e8           1638 	mov	r6,r29
0000093c 07c8           1639 	mov	r7,r25
0000093e 08e0           1640 	mov	r8,r28
                        1641 --	    .bf
                        1642 .LDW04:
00000940 26770500       1643 	ld.w	4[r6],r14
00000944 208e4000       1644 	movea	64,zero,r17
00000948 ae89           1645 	sub	r14,r17
0000094a e889           1646 	cmp	r8,r17
0000094c e88f32d3       1647 	cmovnl	r8,r17,r26
00000950 4832           1648 	add	8,r6
00000952 ce31           1649 	add	r14,r6
00000954 1a40           1650 	mov	r26,r8
                        1651 	jarl	_memcpy,lp
                        1651 <EXPANSION BEGIN>
                        1651 jarl22 _memcpy , lp 
00000956 80ff0000*      1651 <EXPANSION END>
                        1652 --line724
                        1653 ..lin.C.3A.5C_ECU2.5CECU_Rivian_A1.5CTarget.5Crepo_projects.5CpRealEcu.5CcL_LATEST.5Cmake.5Coutput.5Cobjects.5Csha2.73::
                        1654 .LDWlin73:
0000095a 3d970500       1655 	ld.w	4[r29],r18
0000095e dc91           1656 	add	r28,r18
00000960 1206c0ff       1657 	addi	-64,r18,zero
00000964 d105*          1658 	bl	.L1409
                        1659 --line725
                        1660 ..lin.C.3A.5C_ECU2.5CECU_Rivian_A1.5CTarget.5Crepo_projects.5CpRealEcu.5CcL_LATEST.5Cmake.5Coutput.5Cobjects.5Csha2.74::
                        1661 .LDWlin74:
00000966 7d970500       1662 	st.w	r18,4[r29]
0000096a 4006fff0       1663 	dispose	0,{r24,r25,r26,r27,r28,r29,r31},[lp]
                        1664 .L1409:
                        1665 --line729
                        1666 ..lin.C.3A.5C_ECU2.5CECU_Rivian_A1.5CTarget.5Crepo_projects.5CpRealEcu.5CcL_LATEST.5Cmake.5Coutput.5Cobjects.5Csha2.75::
                        1667 .LDWlin75:
0000096e bae1           1668 	sub	r26,r28
00000970 1cd8           1669 	mov	r28,r27
00000972 86da           1670 	shr	6,r27
00000974 dac9           1671 	add	r26,r25
00000976 1d30           1672 	mov	r29,r6
00000978 1d3e0800       1673 	addi	8,r29,r7
0000097c 0142           1674 	mov	1,r8

                                                                      Page 30
                                                              C:\Users\nhuliyap\AppData\Local\Temp\gh_0000bnc1.s
                        1675 	jarl	_sha256_transf,lp
                        1675 <EXPANSION BEGIN>
                        1675 jarl22 _sha256_transf , lp 
0000097e bfff82f6*      1675 <EXPANSION END>
                        1676 --line735
                        1677 ..lin.C.3A.5C_ECU2.5CECU_Rivian_A1.5CTarget.5Crepo_projects.5CpRealEcu.5CcL_LATEST.5Cmake.5Coutput.5Cobjects.5Csha2.76::
                        1678 .LDWlin76:
00000982 1d30           1679 	mov	r29,r6
00000984 1938           1680 	mov	r25,r7
00000986 1b40           1681 	mov	r27,r8
                        1682 	jarl	_sha256_transf,lp
                        1682 <EXPANSION BEGIN>
                        1682 jarl22 _sha256_transf , lp 
00000988 bfff78f6*      1682 <EXPANSION END>
                        1683 --line739
                        1684 ..lin.C.3A.5C_ECU2.5CECU_Rivian_A1.5CTarget.5Crepo_projects.5CpRealEcu.5CcL_LATEST.5Cmake.5Coutput.5Cobjects.5Csha2.77::
                        1685 .LDWlin77:
0000098c 1b38           1686 	mov	r27,r7
0000098e dcd63f00       1687 	andi	63,r28,r26
00000992 c63a           1688 	shl	6,r7
00000994 1d360800       1689 	addi	8,r29,r6
00000998 d939           1690 	add	r25,r7
0000099a 1a40           1691 	mov	r26,r8
                        1692 	jarl	_memcpy,lp
                        1692 <EXPANSION BEGIN>
                        1692 jarl22 _memcpy , lp 
0000099c 80ff0000*      1692 <EXPANSION END>
                        1693 --line742
                        1694 ..lin.C.3A.5C_ECU2.5CECU_Rivian_A1.5CTarget.5Crepo_projects.5CpRealEcu.5CcL_LATEST.5Cmake.5Coutput.5Cobjects.5Csha2.78::
                        1695 .LDWlin78:
000009a0 1df0           1696 	mov	r29,ep
000009a2 007d           1697 	sld.w	0[ep],r15
000009a4 1b860100       1698 	addi	1,r27,r16
000009a8 c682           1699 	shl	6,r16
000009aa 03d5           1700 	sst.w	r26,4[ep]
000009ac d079           1701 	add	r16,r15
000009ae 017d           1702 	sst.w	r15,0[ep]
                        1703 --	    .ef
                        1704 .LDW14:
000009b0 4006fff0       1705 	dispose	0,{r24,r25,r26,r27,r28,r29,r31},[lp]
                        1706 	.global	___ghs_eofn_sha224_update
                        1707 ___ghs_eofn_sha224_update:
                        1708 	.type	_sha224_update,@function
                        1709 	.size	_sha224_update,.-_sha224_update
                        1710 	.align	2
                        1711 --_block_nb	r27	local
                        1712 --_rem_len	r26	local
                        1713 --_shifted_message	r25	local
                        1714 
                        1715 --_ctx	r29	param
                        1716 --_message	r24	param
                        1717 --_len	r28	param
                        1718 
                        1719 	.section ".bss","awb"
                        1720 .L1451:
                        1721 	.type	.L1451,@object
                        1722 	.size	.L1451,0
                        1723 	.data
                        1724 	.text
                        1725 	.align	2
                        1726 	.align	2

                                                                      Page 31
                                                              C:\Users\nhuliyap\AppData\Local\Temp\gh_0000bnc1.s
                        1727 ..gh.f.f.1.e.16:
                        1728 	.type	..gh.f.f.1.e.16,@object
                        1729 	.size	..gh.f.f.1.e.16,0
                        1730 	.global	_sha224_final
                        1731 _sha224_final:
000009b4 8007e1f0       1732 	prepare	{r24,r25,r26,r27,r28,r29,r31},0
000009b8 06d8           1733 	mov	r6,r27
000009ba 07c0           1734 	mov	r7,r24
                        1735 --	    .bf
                        1736 .LDW24:
000009bc 06f0           1737 	mov	r6,ep
000009be 0285           1738 	sld.w	4[ep],r16
000009c0 00ed           1739 	sld.w	0[ep],r29
000009c2 d04e3f00       1740 	andi	63,r16,r9
000009c6 0906c8ff       1741 	addi	-56,r9,zero
000009ca e1570000       1742 	setfl	r10
000009ce 0ace0100       1743 	addi	1,r10,r25
000009d2 19e0           1744 	mov	r25,r28
000009d4 c6e2           1745 	shl	6,r28
000009d6 06d60800       1746 	addi	8,r6,r26
000009da d0e9           1747 	add	r16,r29
000009dc 1030           1748 	mov	r16,r6
000009de 1c38           1749 	mov	r28,r7
000009e0 c3ea           1750 	shl	3,r29
000009e2 da31           1751 	add	r26,r6
000009e4 b039           1752 	sub	r16,r7
                        1753 	jarl	___gh_memclr,lp
                        1753 <EXPANSION BEGIN>
                        1753 jarl22 ___gh_memclr , lp 
000009e6 80ff0000*      1753 <EXPANSION END>
                        1754 --line763
                        1755 ..lin.C.3A.5C_ECU2.5CECU_Rivian_A1.5CTarget.5Crepo_projects.5CpRealEcu.5CcL_LATEST.5Cmake.5Coutput.5Cobjects.5Csha2.79::
                        1756 .LDWlin79:
000009ea 3bf70500       1757 	ld.w	4[r27],ep
000009ee 20468000       1758 	movea	128,zero,r8
000009f2 dae1           1759 	add	r26,r28
000009f4 1d78           1760 	mov	r29,r15
000009f6 daf1           1761 	add	r26,ep
000009f8 8043           1762 	sst.b	r8,0[ep]
000009fa 3cf6fcff       1763 	movea	-4,r28,ep
000009fe 83eb           1764 	sst.b	r29,3[ep]
00000a00 1d70           1765 	mov	r29,r14
00000a02 887a           1766 	shr	8,r15
00000a04 9072           1767 	shr	16,r14
00000a06 98ea           1768 	shr	24,r29
00000a08 1a38           1769 	mov	r26,r7
00000a0a 827b           1770 	sst.b	r15,2[ep]
00000a0c 8173           1771 	sst.b	r14,1[ep]
00000a0e 80eb           1772 	sst.b	r29,0[ep]
00000a10 1b30           1773 	mov	r27,r6
00000a12 1940           1774 	mov	r25,r8
                        1775 	jarl	_sha256_transf,lp
                        1775 <EXPANSION BEGIN>
                        1775 jarl22 _sha256_transf , lp 
00000a14 bfffecf5*      1775 <EXPANSION END>
                        1776 --line769
                        1777 ..lin.C.3A.5C_ECU2.5CECU_Rivian_A1.5CTarget.5Crepo_projects.5CpRealEcu.5CcL_LATEST.5Cmake.5Coutput.5Cobjects.5Csha2.80::
                        1778 .LDWlin80:
00000a18 008a           1779 	mov	0,r17
                        1780 .L1497:
00000a1a 11f0           1781 	mov	r17,ep

                                                                      Page 32
                                                              C:\Users\nhuliyap\AppData\Local\Temp\gh_0000bnc1.s
00000a1c c2f2           1782 	shl	2,ep
00000a1e 1e90           1783 	mov	ep,r18
00000a20 db91           1784 	add	r27,r18
00000a22 323f8900       1785 	ld.w	136[r18],r7
00000a26 d8f1           1786 	add	r24,ep
00000a28 418a           1787 	add	1,r17
00000a2a 833b           1788 	sst.b	r7,3[ep]
00000a2c 326f8900       1789 	ld.w	136[r18],r13
00000a30 886a           1790 	shr	8,r13
00000a32 826b           1791 	sst.b	r13,2[ep]
00000a34 32678900       1792 	ld.w	136[r18],r12
00000a38 9062           1793 	shr	16,r12
00000a3a 8163           1794 	sst.b	r12,1[ep]
00000a3c 325f8900       1795 	ld.w	136[r18],r11
00000a40 985a           1796 	shr	24,r11
00000a42 805b           1797 	sst.b	r11,0[ep]
00000a44 678a           1798 	cmp	7,r17
00000a46 a6ed*          1799 	blt	.L1497
                        1800 --	    .ef
                        1801 .LDW34:
                        1802 --line781
                        1803 ..lin.C.3A.5C_ECU2.5CECU_Rivian_A1.5CTarget.5Crepo_projects.5CpRealEcu.5CcL_LATEST.5Cmake.5Coutput.5Cobjects.5Csha2.81::
                        1804 .LDWlin81:
00000a48 4006fff0       1805 	dispose	0,{r24,r25,r26,r27,r28,r29,r31},[lp]
                        1806 	.global	___ghs_eofn_sha224_final
                        1807 ___ghs_eofn_sha224_final:
                        1808 	.type	_sha224_final,@function
                        1809 	.size	_sha224_final,.-_sha224_final
                        1810 	.align	2
                        1811 --_block_nb	r25	local
                        1812 --_len_b	r29	local
                        1813 --_i	r17	local
                        1814 
                        1815 --_ctx	r27	param
                        1816 --_digest	r24	param
                        1817 
                        1818 	.section ".bss","awb"
                        1819 .L1530:
                        1820 	.type	.L1530,@object
                        1821 	.size	.L1530,0
                        1822 	.data
                        1823 	.text
                        1824 	.align	2
                        1825 	.align	2
                        1826 ..gh.f.f.1.e.17:
                        1827 	.type	..gh.f.f.1.e.17,@object
                        1828 	.size	..gh.f.f.1.e.17,0
                        1829 	.global	_sha224
                        1830 _sha224:
00000a4c be076110       1831 	prepare	{r27,r29,r31},31
00000a50 031ed0ff       1832 	addi	-48,sp,sp
00000a54 06e8           1833 	mov	r6,r29
00000a56 08d8           1834 	mov	r8,r27
                        1835 --	    .bf
                        1836 .LDW44:
00000a58 0330           1837 	mov	sp,r6
                        1838 	jarl	_sha224_init,lp
                        1838 <EXPANSION BEGIN>
                        1838 jarl22 _sha224_init , lp 
00000a5a bfffb8fe*      1838 <EXPANSION END>
                        1839 --line690

                                                                      Page 33
                                                              C:\Users\nhuliyap\AppData\Local\Temp\gh_0000bnc1.s
                        1840 ..lin.C.3A.5C_ECU2.5CECU_Rivian_A1.5CTarget.5Crepo_projects.5CpRealEcu.5CcL_LATEST.5Cmake.5Coutput.5Cobjects.5Csha2.82::
                        1841 .LDWlin82:
00000a5e 0740           1842 	mov	r7,r8
00000a60 1d38           1843 	mov	r29,r7
                        1844 	jarl	_sha224_update,lp
                        1844 <EXPANSION BEGIN>
                        1844 jarl22 _sha224_update , lp 
00000a62 bfffd4fe*      1844 <EXPANSION END>
                        1845 --line691
                        1846 ..lin.C.3A.5C_ECU2.5CECU_Rivian_A1.5CTarget.5Crepo_projects.5CpRealEcu.5CcL_LATEST.5Cmake.5Coutput.5Cobjects.5Csha2.83::
                        1847 .LDWlin83:
00000a66 1b38           1848 	mov	r27,r7
00000a68 0330           1849 	mov	sp,r6
                        1850 	jarl	_sha224_final,lp
                        1850 <EXPANSION BEGIN>
                        1850 jarl22 _sha224_final , lp 
00000a6a bfff4aff*      1850 <EXPANSION END>
                        1851 --	    .ef
                        1852 .LDW54:
                        1853 --line692
                        1854 ..lin.C.3A.5C_ECU2.5CECU_Rivian_A1.5CTarget.5Crepo_projects.5CpRealEcu.5CcL_LATEST.5Cmake.5Coutput.5Cobjects.5Csha2.84::
                        1855 .LDWlin84:
00000a6e 031e3000       1856 	addi	48,sp,sp
00000a72 7e067f10       1857 	dispose	31,{r27,r29,r31},[lp]
                        1858 	.global	___ghs_eofn_sha224
                        1859 ___ghs_eofn_sha224:
                        1860 	.type	_sha224,@function
                        1861 	.size	_sha224,.-_sha224
                        1862 	.align	2
                        1863 --_ctx	0[sp]	local
                        1864 
                        1865 --_message	r29	param
                        1866 --_len	r28	param
                        1867 --_digest	r27	param
                        1868 
                        1869 	.section ".bss","awb"
                        1870 .L1585:
                        1871 	.type	.L1585,@object
                        1872 	.size	.L1585,0
                        1873 	.data
                        1874 	.text
                        1875 	.align	2
                        1876 
                        1877 	.data
                        1878 	.align	8
                        1879 	.global	_sha224_h0
00000000 d89e05c1       1880 _sha224_h0:	.byte	216,158,5,193
00000004 07d57c36       1881 	.byte	7,213,124,54
00000008 17dd7030       1882 	.byte	23,221,112,48
0000000c 39590ef7       1883 	.byte	57,89,14,247
00000010 310bc0ff       1884 	.byte	49,11,192,255
00000014 11155868       1885 	.byte	17,21,88,104
00000018 a78ff964       1886 	.byte	167,143,249,100
0000001c a44ffabe       1887 	.byte	164,79,250,190
                        1888 	.type	_sha224_h0,@object
                        1889 	.size	_sha224_h0,32
                        1890 	.global	_sha256_h0
00000020 67e6096a       1891 _sha256_h0:	.byte	103,230,9,106
00000024 85ae67bb       1892 	.byte	133,174,103,187
00000028 72f36e3c       1893 	.byte	114,243,110,60
0000002c 3af54fa5       1894 	.byte	58,245,79,165

                                                                      Page 34
                                                              C:\Users\nhuliyap\AppData\Local\Temp\gh_0000bnc1.s
00000030 7f520e51       1895 	.byte	127,82,14,81
00000034 8c68059b       1896 	.byte	140,104,5,155
00000038 abd9831f       1897 	.byte	171,217,131,31
0000003c 19cde05b       1898 	.byte	25,205,224,91
                        1899 	.type	_sha256_h0,@object
                        1900 	.size	_sha256_h0,32
                        1901 	.global	_sha384_h0
00000040 d89e05c1       1902 _sha384_h0:	.byte	216,158,5,193
00000044 5d9dbbcb       1903 	.byte	93,157,187,203
00000048 07d57c36       1904 	.byte	7,213,124,54
0000004c 2a299a62       1905 	.byte	42,41,154,98
00000050 17dd7030       1906 	.byte	23,221,112,48
00000054 5a015991       1907 	.byte	90,1,89,145
00000058 39590ef7       1908 	.byte	57,89,14,247
0000005c d8ec2f15       1909 	.byte	216,236,47,21
00000060 310bc0ff       1910 	.byte	49,11,192,255
00000064 67263367       1911 	.byte	103,38,51,103
00000068 11155868       1912 	.byte	17,21,88,104
0000006c 874ab48e       1913 	.byte	135,74,180,142
00000070 a78ff964       1914 	.byte	167,143,249,100
00000074 0d2e0cdb       1915 	.byte	13,46,12,219
00000078 a44ffabe       1916 	.byte	164,79,250,190
0000007c 1d48b547       1917 	.byte	29,72,181,71
                        1918 	.type	_sha384_h0,@object
                        1919 	.size	_sha384_h0,64
                        1920 	.global	_sha512_h0
00000080 08c9bcf3       1921 _sha512_h0:	.byte	8,201,188,243
00000084 67e6096a       1922 	.byte	103,230,9,106
00000088 3ba7ca84       1923 	.byte	59,167,202,132
0000008c 85ae67bb       1924 	.byte	133,174,103,187
00000090 2bf894fe       1925 	.byte	43,248,148,254
00000094 72f36e3c       1926 	.byte	114,243,110,60
00000098 f1361d5f       1927 	.byte	241,54,29,95
0000009c 3af54fa5       1928 	.byte	58,245,79,165
000000a0 d182e6ad       1929 	.byte	209,130,230,173
000000a4 7f520e51       1930 	.byte	127,82,14,81
000000a8 1f6c3e2b       1931 	.byte	31,108,62,43
000000ac 8c68059b       1932 	.byte	140,104,5,155
000000b0 6bbd41fb       1933 	.byte	107,189,65,251
000000b4 abd9831f       1934 	.byte	171,217,131,31
000000b8 79217e13       1935 	.byte	121,33,126,19
000000bc 19cde05b       1936 	.byte	25,205,224,91
                        1937 	.type	_sha512_h0,@object
                        1938 	.size	_sha512_h0,64
                        1939 	.global	_sha256_k
000000c0 982f8a42       1940 _sha256_k:	.byte	152,47,138,66
000000c4 91443771       1941 	.byte	145,68,55,113
000000c8 cffbc0b5       1942 	.byte	207,251,192,181
000000cc a5dbb5e9       1943 	.byte	165,219,181,233
000000d0 5bc25639       1944 	.byte	91,194,86,57
000000d4 f111f159       1945 	.byte	241,17,241,89
000000d8 a4823f92       1946 	.byte	164,130,63,146
000000dc d55e1cab       1947 	.byte	213,94,28,171
000000e0 98aa07d8       1948 	.byte	152,170,7,216
000000e4 015b8312       1949 	.byte	1,91,131,18
000000e8 be853124       1950 	.byte	190,133,49,36
000000ec c37d0c55       1951 	.byte	195,125,12,85
000000f0 745dbe72       1952 	.byte	116,93,190,114
000000f4 feb1de80       1953 	.byte	254,177,222,128
000000f8 a706dc9b       1954 	.byte	167,6,220,155
000000fc 74f19bc1       1955 	.byte	116,241,155,193

                                                                      Page 35
                                                              C:\Users\nhuliyap\AppData\Local\Temp\gh_0000bnc1.s
00000100 c1699be4       1956 	.byte	193,105,155,228
00000104 8647beef       1957 	.byte	134,71,190,239
00000108 c69dc10f       1958 	.byte	198,157,193,15
0000010c cca10c24       1959 	.byte	204,161,12,36
00000110 6f2ce92d       1960 	.byte	111,44,233,45
00000114 aa84744a       1961 	.byte	170,132,116,74
00000118 dca9b05c       1962 	.byte	220,169,176,92
0000011c da88f976       1963 	.byte	218,136,249,118
00000120 52513e98       1964 	.byte	82,81,62,152
00000124 6dc631a8       1965 	.byte	109,198,49,168
00000128 c82703b0       1966 	.byte	200,39,3,176
0000012c c77f59bf       1967 	.byte	199,127,89,191
00000130 f30be0c6       1968 	.byte	243,11,224,198
00000134 4791a7d5       1969 	.byte	71,145,167,213
00000138 5163ca06       1970 	.byte	81,99,202,6
0000013c 67292914       1971 	.byte	103,41,41,20
00000140 850ab727       1972 	.byte	133,10,183,39
00000144 38211b2e       1973 	.byte	56,33,27,46
00000148 fc6d2c4d       1974 	.byte	252,109,44,77
0000014c 130d3853       1975 	.byte	19,13,56,83
00000150 54730a65       1976 	.byte	84,115,10,101
00000154 bb0a6a76       1977 	.byte	187,10,106,118
00000158 2ec9c281       1978 	.byte	46,201,194,129
0000015c 852c7292       1979 	.byte	133,44,114,146
00000160 a1e8bfa2       1980 	.byte	161,232,191,162
00000164 4b661aa8       1981 	.byte	75,102,26,168
00000168 708b4bc2       1982 	.byte	112,139,75,194
0000016c a3516cc7       1983 	.byte	163,81,108,199
00000170 19e892d1       1984 	.byte	25,232,146,209
00000174 240699d6       1985 	.byte	36,6,153,214
00000178 85350ef4       1986 	.byte	133,53,14,244
0000017c 70a06a10       1987 	.byte	112,160,106,16
00000180 16c1a419       1988 	.byte	22,193,164,25
00000184 086c371e       1989 	.byte	8,108,55,30
00000188 4c774827       1990 	.byte	76,119,72,39
0000018c b5bcb034       1991 	.byte	181,188,176,52
00000190 b30c1c39       1992 	.byte	179,12,28,57
00000194 4aaad84e       1993 	.byte	74,170,216,78
00000198 4fca9c5b       1994 	.byte	79,202,156,91
0000019c f36f2e68       1995 	.byte	243,111,46,104
000001a0 ee828f74       1996 	.byte	238,130,143,116
000001a4 6f63a578       1997 	.byte	111,99,165,120
000001a8 1478c884       1998 	.byte	20,120,200,132
000001ac 0802c78c       1999 	.byte	8,2,199,140
000001b0 faffbe90       2000 	.byte	250,255,190,144
000001b4 eb6c50a4       2001 	.byte	235,108,80,164
000001b8 f7a3f9be       2002 	.byte	247,163,249,190
000001bc f27871c6       2003 	.byte	242,120,113,198
                        2004 	.type	_sha256_k,@object
                        2005 	.size	_sha256_k,256
                        2006 	.global	_sha512_k
000001c0 22ae28d7       2007 _sha512_k:	.byte	34,174,40,215
000001c4 982f8a42       2008 	.byte	152,47,138,66
000001c8 cd65ef23       2009 	.byte	205,101,239,35
000001cc 91443771       2010 	.byte	145,68,55,113
000001d0 2f3b4dec       2011 	.byte	47,59,77,236
000001d4 cffbc0b5       2012 	.byte	207,251,192,181
000001d8 bcdb8981       2013 	.byte	188,219,137,129
000001dc a5dbb5e9       2014 	.byte	165,219,181,233
000001e0 38b548f3       2015 	.byte	56,181,72,243
000001e4 5bc25639       2016 	.byte	91,194,86,57

                                                                      Page 36
                                                              C:\Users\nhuliyap\AppData\Local\Temp\gh_0000bnc1.s
000001e8 19d005b6       2017 	.byte	25,208,5,182
000001ec f111f159       2018 	.byte	241,17,241,89
000001f0 9b4f19af       2019 	.byte	155,79,25,175
000001f4 a4823f92       2020 	.byte	164,130,63,146
000001f8 18816dda       2021 	.byte	24,129,109,218
000001fc d55e1cab       2022 	.byte	213,94,28,171
00000200 420203a3       2023 	.byte	66,2,3,163
00000204 98aa07d8       2024 	.byte	152,170,7,216
00000208 be6f7045       2025 	.byte	190,111,112,69
0000020c 015b8312       2026 	.byte	1,91,131,18
00000210 8cb2e44e       2027 	.byte	140,178,228,78
00000214 be853124       2028 	.byte	190,133,49,36
00000218 e2b4ffd5       2029 	.byte	226,180,255,213
0000021c c37d0c55       2030 	.byte	195,125,12,85
00000220 6f897bf2       2031 	.byte	111,137,123,242
00000224 745dbe72       2032 	.byte	116,93,190,114
00000228 b196163b       2033 	.byte	177,150,22,59
0000022c feb1de80       2034 	.byte	254,177,222,128
00000230 3512c725       2035 	.byte	53,18,199,37
00000234 a706dc9b       2036 	.byte	167,6,220,155
00000238 942669cf       2037 	.byte	148,38,105,207
0000023c 74f19bc1       2038 	.byte	116,241,155,193
00000240 d24af19e       2039 	.byte	210,74,241,158
00000244 c1699be4       2040 	.byte	193,105,155,228
00000248 e3254f38       2041 	.byte	227,37,79,56
0000024c 8647beef       2042 	.byte	134,71,190,239
00000250 b5d58c8b       2043 	.byte	181,213,140,139
00000254 c69dc10f       2044 	.byte	198,157,193,15
00000258 659cac77       2045 	.byte	101,156,172,119
0000025c cca10c24       2046 	.byte	204,161,12,36
00000260 75022b59       2047 	.byte	117,2,43,89
00000264 6f2ce92d       2048 	.byte	111,44,233,45
00000268 83e4a66e       2049 	.byte	131,228,166,110
0000026c aa84744a       2050 	.byte	170,132,116,74
00000270 d4fb41bd       2051 	.byte	212,251,65,189
00000274 dca9b05c       2052 	.byte	220,169,176,92
00000278 b5531183       2053 	.byte	181,83,17,131
0000027c da88f976       2054 	.byte	218,136,249,118
00000280 abdf66ee       2055 	.byte	171,223,102,238
00000284 52513e98       2056 	.byte	82,81,62,152
00000288 1032b42d       2057 	.byte	16,50,180,45
0000028c 6dc631a8       2058 	.byte	109,198,49,168
00000290 3f21fb98       2059 	.byte	63,33,251,152
00000294 c82703b0       2060 	.byte	200,39,3,176
00000298 e40eefbe       2061 	.byte	228,14,239,190
0000029c c77f59bf       2062 	.byte	199,127,89,191
000002a0 c28fa83d       2063 	.byte	194,143,168,61
000002a4 f30be0c6       2064 	.byte	243,11,224,198
000002a8 25a70a93       2065 	.byte	37,167,10,147
000002ac 4791a7d5       2066 	.byte	71,145,167,213
000002b0 6f8203e0       2067 	.byte	111,130,3,224
000002b4 5163ca06       2068 	.byte	81,99,202,6
000002b8 706e0e0a       2069 	.byte	112,110,14,10
000002bc 67292914       2070 	.byte	103,41,41,20
000002c0 fc2fd246       2071 	.byte	252,47,210,70
000002c4 850ab727       2072 	.byte	133,10,183,39
000002c8 26c9265c       2073 	.byte	38,201,38,92
000002cc 38211b2e       2074 	.byte	56,33,27,46
000002d0 ed2ac45a       2075 	.byte	237,42,196,90
000002d4 fc6d2c4d       2076 	.byte	252,109,44,77
000002d8 dfb3959d       2077 	.byte	223,179,149,157

                                                                      Page 37
                                                              C:\Users\nhuliyap\AppData\Local\Temp\gh_0000bnc1.s
000002dc 130d3853       2078 	.byte	19,13,56,83
000002e0 de63af8b       2079 	.byte	222,99,175,139
000002e4 54730a65       2080 	.byte	84,115,10,101
000002e8 a8b2773c       2081 	.byte	168,178,119,60
000002ec bb0a6a76       2082 	.byte	187,10,106,118
000002f0 e6aeed47       2083 	.byte	230,174,237,71
000002f4 2ec9c281       2084 	.byte	46,201,194,129
000002f8 3b358214       2085 	.byte	59,53,130,20
000002fc 852c7292       2086 	.byte	133,44,114,146
00000300 6403f14c       2087 	.byte	100,3,241,76
00000304 a1e8bfa2       2088 	.byte	161,232,191,162
00000308 013042bc       2089 	.byte	1,48,66,188
0000030c 4b661aa8       2090 	.byte	75,102,26,168
00000310 9197f8d0       2091 	.byte	145,151,248,208
00000314 708b4bc2       2092 	.byte	112,139,75,194
00000318 30be5406       2093 	.byte	48,190,84,6
0000031c a3516cc7       2094 	.byte	163,81,108,199
00000320 1852efd6       2095 	.byte	24,82,239,214
00000324 19e892d1       2096 	.byte	25,232,146,209
00000328 10a96555       2097 	.byte	16,169,101,85
0000032c 240699d6       2098 	.byte	36,6,153,214
00000330 2a207157       2099 	.byte	42,32,113,87
00000334 85350ef4       2100 	.byte	133,53,14,244
00000338 b8d1bb32       2101 	.byte	184,209,187,50
0000033c 70a06a10       2102 	.byte	112,160,106,16
00000340 c8d0d2b8       2103 	.byte	200,208,210,184
00000344 16c1a419       2104 	.byte	22,193,164,25
00000348 53ab4151       2105 	.byte	83,171,65,81
0000034c 086c371e       2106 	.byte	8,108,55,30
00000350 99eb8edf       2107 	.byte	153,235,142,223
00000354 4c774827       2108 	.byte	76,119,72,39
00000358 a8489be1       2109 	.byte	168,72,155,225
0000035c b5bcb034       2110 	.byte	181,188,176,52
00000360 635ac9c5       2111 	.byte	99,90,201,197
00000364 b30c1c39       2112 	.byte	179,12,28,57
00000368 cb8a41e3       2113 	.byte	203,138,65,227
0000036c 4aaad84e       2114 	.byte	74,170,216,78
00000370 73e36377       2115 	.byte	115,227,99,119
00000374 4fca9c5b       2116 	.byte	79,202,156,91
00000378 a3b8b2d6       2117 	.byte	163,184,178,214
0000037c f36f2e68       2118 	.byte	243,111,46,104
00000380 fcb2ef5d       2119 	.byte	252,178,239,93
00000384 ee828f74       2120 	.byte	238,130,143,116
00000388 602f1743       2121 	.byte	96,47,23,67
0000038c 6f63a578       2122 	.byte	111,99,165,120
00000390 72abf0a1       2123 	.byte	114,171,240,161
00000394 1478c884       2124 	.byte	20,120,200,132
00000398 ec39641a       2125 	.byte	236,57,100,26
0000039c 0802c78c       2126 	.byte	8,2,199,140
000003a0 281e6323       2127 	.byte	40,30,99,35
000003a4 faffbe90       2128 	.byte	250,255,190,144
000003a8 e9bd82de       2129 	.byte	233,189,130,222
000003ac eb6c50a4       2130 	.byte	235,108,80,164
000003b0 1579c6b2       2131 	.byte	21,121,198,178
000003b4 f7a3f9be       2132 	.byte	247,163,249,190
000003b8 2b5372e3       2133 	.byte	43,83,114,227
000003bc f27871c6       2134 	.byte	242,120,113,198
000003c0 9c6126ea       2135 	.byte	156,97,38,234
000003c4 ce3e27ca       2136 	.byte	206,62,39,202
000003c8 07c2c021       2137 	.byte	7,194,192,33
000003cc c7b886d1       2138 	.byte	199,184,134,209

                                                                      Page 38
                                                              C:\Users\nhuliyap\AppData\Local\Temp\gh_0000bnc1.s
000003d0 1eebe0cd       2139 	.byte	30,235,224,205
000003d4 d67ddaea       2140 	.byte	214,125,218,234
000003d8 78d16eee       2141 	.byte	120,209,110,238
000003dc 7f4f7df5       2142 	.byte	127,79,125,245
000003e0 ba6f1772       2143 	.byte	186,111,23,114
000003e4 aa67f006       2144 	.byte	170,103,240,6
000003e8 a698c8a2       2145 	.byte	166,152,200,162
000003ec c57d630a       2146 	.byte	197,125,99,10
000003f0 ae0df9be       2147 	.byte	174,13,249,190
000003f4 04983f11       2148 	.byte	4,152,63,17
000003f8 1b471c13       2149 	.byte	27,71,28,19
000003fc 350b711b       2150 	.byte	53,11,113,27
00000400 847d0423       2151 	.byte	132,125,4,35
00000404 f577db28       2152 	.byte	245,119,219,40
00000408 9324c740       2153 	.byte	147,36,199,64
0000040c 7babca32       2154 	.byte	123,171,202,50
00000410 bcbec915       2155 	.byte	188,190,201,21
00000414 0abe9e3c       2156 	.byte	10,190,158,60
00000418 4c0d109c       2157 	.byte	76,13,16,156
0000041c c4671d43       2158 	.byte	196,103,29,67
00000420 b6423ecb       2159 	.byte	182,66,62,203
00000424 bed4c54c       2160 	.byte	190,212,197,76
00000428 2a7e65fc       2161 	.byte	42,126,101,252
0000042c 9c297f59       2162 	.byte	156,41,127,89
00000430 ecfad63a       2163 	.byte	236,250,214,58
00000434 ab6fcb5f       2164 	.byte	171,111,203,95
00000438 1758474a       2165 	.byte	23,88,71,74
0000043c 8c19446c       2166 	.byte	140,25,68,108
                        2167 	.type	_sha512_k,@object
                        2168 	.size	_sha512_k,640
                        2169 	.ghsnote version,17
                        2170 	.ghsnote tools,3
                        2171 	.ghsnote options,144
                        2172 	.text
                        2173 	.align	2
                        2174 ..eof.C.3A.5C_ECU2.5CECU_Rivian_A1.5CTarget.5Crepo_projects.5CpRealEcu.5CcL_LATEST.5Cmake.5Coutput.5Cobjects.5Csha2...43.3A.5C_ECU2.5CECU_Rivian_A1.5CTarget.5Crepo_projects.5CpRealEcu.5CcL_LATEST.5Cmake..64F82DF7..0::
                        2175 	.section	.debug_info
                        2176 .Ldw_begin:
00000000 37100000       2177 	.word	.Ldw_end-.Ldw_begin-4
00000004 0200           2178 	.byte	2,0
00000006 00000000*      2179 	.word	.Ldw_abbr_begin
0000000a 04             2180 	.byte	4
                        2181 	.section	.debug_abbrev
                        2182 .Ldw_abbr_begin:
                        2183 	.section	.debug_info
0000000b 01             2184 	.byte	1
0000000c 00000000*      2185 	.word	..bof.C.3A.5C_ECU2.5CECU_Rivian_A1.5CTarget.5Crepo_projects.5CpRealEcu.5CcL_LATEST.5Cmake.5Coutput.5Cobjects.5Csha2...43.3A.5C_ECU2.5CECU_Rivian_A1.5CTarget.5Crepo_projects.5CpRealEcu.5CcL_LATEST.5Cmake..64F82DF7..0
00000010 00000000*      2186 	.word	..eof.C.3A.5C_ECU2.5CECU_Rivian_A1.5CTarget.5Crepo_projects.5CpRealEcu.5CcL_LATEST.5Cmake.5Coutput.5Cobjects.5Csha2...43.3A.5C_ECU2.5CECU_Rivian_A1.5CTarget.5Crepo_projects.5CpRealEcu.5CcL_LATEST.5Cmake..64F82DF7..0
00000014 2e2e2f736f75   2187 	.strz	"../source/wrappers/FBL_APPL/sha2.c"
0000001a 7263652f7772 
00000020 617070657273 
00000026 2f46424c5f41 
0000002c 50504c2f7368 
00000032 61322e6300 
00000037 433a5c5f4543   2188 	.strz	"C:\\_ECU2\\ECU_Rivian_A1\\Target\\repo_projects\\pRealEcu\\cL_LATEST\\make"
0000003d 55325c454355 
00000043 5f5269766961 
00000049 6e5f41315c54 
0000004f 61726765745c 
00000055 7265706f5f70 
0000005b 726f6a656374 

                                                                      Page 39
                                                              C:\Users\nhuliyap\AppData\Local\Temp\gh_0000bnc1.s
00000061 735c70526561 
00000067 6c4563755c63 
0000006d 4c5f4c415445 
00000073 53545c6d616b 
00000079 6500 
0000007b 474853204320   2189 	.strz	"GHS C 2015.1.7 [dual]"
00000081 323031352e31 
00000087 2e37205b6475 
0000008d 616c5d00 
00000091 0100           2190 	.byte	1,0
00000093 00000000*      2191 	.word	.Ldw_line_begin
00000097 00000000*      2192 	.word	.Ldw_macinfo_begin
0000009b 00             2193 	.byte	0
                        2194 
                        2195 	.section	.debug_abbrev
00000000 01             2196 	.byte	1
00000001 11             2197 	.byte	17
00000002 01             2198 	.byte	1
00000003 1101           2199 	.byte	17,1
00000005 1201           2200 	.byte	18,1
00000007 0308           2201 	.byte	3,8
00000009 1b08           2202 	.byte	27,8
0000000b 2508           2203 	.byte	37,8
0000000d 1305           2204 	.byte	19,5
0000000f 1006           2205 	.byte	16,6
00000011 4306           2206 	.byte	67,6
00000013 420b           2207 	.byte	66,11
00000015 0000           2208 	.byte	0,0
                        2209 
                        2210 	.section	.debug_line
                        2211 .Ldw_line_begin:
00000000 87070000       2212 	.word	.Ldw_line_end-.Ldw_line_begin-4
00000004 0200           2213 	.byte	2,0
00000006 00000000*      2214 	.word	.Ldw_lpro_end-.Ldw_lpro_begin
                        2215 .Ldw_lpro_begin:
0000000a 01             2216 	.byte	1
0000000b 00             2217 	.byte	0
0000000c 00             2218 	.byte	0
0000000d 04             2219 	.byte	4
0000000e 0a             2220 	.byte	10
0000000f 000101         2221 	.byte	0,1,1
00000012 010100         2222 	.byte	1,1,0
00000015 000001         2223 	.byte	0,0,1
00000018 00             2224 	.byte	0
00000019 2e2e2f736f75   2225 	.strz	"../source/wrappers/FBL_APPL/sha2.c"
0000001f 7263652f7772 
00000025 617070657273 
0000002b 2f46424c5f41 
00000031 50504c2f7368 
00000037 61322e6300 
0000003c 000000         2226 	.byte	0,0,0
0000003f 433a5c676873   2227 	.strz	"C:\\ghs\\comp_201517\\ansi\\string.h"
00000045 5c636f6d705f 
0000004b 323031353137 
00000051 5c616e73695c 
00000057 737472696e67 
0000005d 2e6800 
00000060 000000         2228 	.byte	0,0,0
00000063 433a5c676873   2229 	.strz	"C:\\ghs\\comp_201517\\ansi\\ghs_null.h"
00000069 5c636f6d705f 
0000006f 323031353137 

                                                                      Page 40
                                                              C:\Users\nhuliyap\AppData\Local\Temp\gh_0000bnc1.s
00000075 5c616e73695c 
0000007b 6768735f6e75 
00000081 6c6c2e6800 
00000086 000000         2230 	.byte	0,0,0
00000089 433a5c676873   2231 	.strz	"C:\\ghs\\comp_201517\\ansi\\ghs_mem.h"
0000008f 5c636f6d705f 
00000095 323031353137 
0000009b 5c616e73695c 
000000a1 6768735f6d65 
000000a7 6d2e6800 
000000ab 000000         2232 	.byte	0,0,0
000000ae 433a5c676873   2233 	.strz	"C:\\ghs\\comp_201517\\ansi\\ghs_str.h"
000000b4 5c636f6d705f 
000000ba 323031353137 
000000c0 5c616e73695c 
000000c6 6768735f7374 
000000cc 722e6800 
000000d0 000000         2234 	.byte	0,0,0
000000d3 2e2e2f736f75   2235 	.strz	"../source/wrappers/FBL_APPL/sha2.hpp"
000000d9 7263652f7772 
000000df 617070657273 
000000e5 2f46424c5f41 
000000eb 50504c2f7368 
000000f1 61322e687070 
000000f7 00 
000000f8 000000         2236 	.byte	0,0,0
000000fb 2e2e2f736f75   2237 	.strz	"../source/McalMcu/types.hpp"
00000101 7263652f4d63 
00000107 616c4d63752f 
0000010d 74797065732e 
00000113 68707000 
00000117 000000         2238 	.byte	0,0,0
0000011a 2e2e2f736f75   2239 	.strz	"../source/common/Std_Types.hpp"
00000120 7263652f636f 
00000126 6d6d6f6e2f53 
0000012c 74645f547970 
00000132 65732e687070 
00000138 00 
00000139 000000         2240 	.byte	0,0,0
0000013c 2e2e2f736f75   2241 	.strz	"../source/common/Platform_Types.hpp"
00000142 7263652f636f 
00000148 6d6d6f6e2f50 
0000014e 6c6174666f72 
00000154 6d5f54797065 
0000015a 732e68707000 
00000160 000000         2242 	.byte	0,0,0
00000163 2e2e2f736f75   2243 	.strz	"../source/common/Compiler.hpp"
00000169 7263652f636f 
0000016f 6d6d6f6e2f43 
00000175 6f6d70696c65 
0000017b 722e68707000 
00000181 000000         2244 	.byte	0,0,0
00000184 2e2e2f736f75   2245 	.strz	"../source/ProjectCompiler/Compiler_Cfg.hpp"
0000018a 7263652f5072 
00000190 6f6a65637443 
00000196 6f6d70696c65 
0000019c 722f436f6d70 
000001a2 696c65725f43 
000001a8 66672e687070 
000001ae 00 
000001af 000000         2246 	.byte	0,0,0

                                                                      Page 41
                                                              C:\Users\nhuliyap\AppData\Local\Temp\gh_0000bnc1.s
000001b2 2e2e2f736f75   2247 	.strz	"../source/ProjectCompiler/CompilerCfg_SwcServiceOs.hpp"
000001b8 7263652f5072 
000001be 6f6a65637443 
000001c4 6f6d70696c65 
000001ca 722f436f6d70 
000001d0 696c65724366 
000001d6 675f53776353 
000001dc 657276696365 
000001e2 4f732e687070 
000001e8 00 
000001e9 000000         2248 	.byte	0,0,0
000001ec 00             2249 	.byte	0
                        2250 .Ldw_lpro_end:
                        2251 	.section	.debug_macinfo
                        2252 .Ldw_macinfo_begin:
                        2253 	.section	.debug_frame
                        2254 .LDW_4b9d680:
00000000 00000000*      2255 	.word	.LDW_unq_2-.LDW_unq_1
                        2256 .LDW_unq_1:
00000004 ffffffff       2257 	.byte	255,255,255,255
00000008 01             2258 	.byte	1
00000009 00             2259 	.byte	0
0000000a 01             2260 	.byte	1
0000000b 01             2261 	.byte	1
0000000c 1f             2262 	.byte	31
0000000d 0c             2263 	.byte	12
0000000e 03             2264 	.byte	3
0000000f 00             2265 	.byte	0
00000010 07             2266 	.byte	7
00000011 00             2267 	.byte	0
00000012 07             2268 	.byte	7
00000013 01             2269 	.byte	1
00000014 07             2270 	.byte	7
00000015 02             2271 	.byte	2
00000016 07             2272 	.byte	7
00000017 03             2273 	.byte	3
00000018 07             2274 	.byte	7
00000019 04             2275 	.byte	4
0000001a 07             2276 	.byte	7
0000001b 05             2277 	.byte	5
0000001c 07             2278 	.byte	7
0000001d 06             2279 	.byte	6
0000001e 07             2280 	.byte	7
0000001f 07             2281 	.byte	7
00000020 07             2282 	.byte	7
00000021 08             2283 	.byte	8
00000022 07             2284 	.byte	7
00000023 09             2285 	.byte	9
00000024 07             2286 	.byte	7
00000025 0a             2287 	.byte	10
00000026 07             2288 	.byte	7
00000027 0b             2289 	.byte	11
00000028 07             2290 	.byte	7
00000029 0c             2291 	.byte	12
0000002a 07             2292 	.byte	7
0000002b 0d             2293 	.byte	13
0000002c 07             2294 	.byte	7
0000002d 0e             2295 	.byte	14
0000002e 07             2296 	.byte	7
0000002f 0f             2297 	.byte	15
00000030 07             2298 	.byte	7

                                                                      Page 42
                                                              C:\Users\nhuliyap\AppData\Local\Temp\gh_0000bnc1.s
00000031 10             2299 	.byte	16
00000032 07             2300 	.byte	7
00000033 11             2301 	.byte	17
00000034 07             2302 	.byte	7
00000035 12             2303 	.byte	18
00000036 07             2304 	.byte	7
00000037 13             2305 	.byte	19
00000038 08             2306 	.byte	8
00000039 14             2307 	.byte	20
0000003a 08             2308 	.byte	8
0000003b 15             2309 	.byte	21
0000003c 08             2310 	.byte	8
0000003d 16             2311 	.byte	22
0000003e 08             2312 	.byte	8
0000003f 17             2313 	.byte	23
00000040 08             2314 	.byte	8
00000041 18             2315 	.byte	24
00000042 08             2316 	.byte	8
00000043 19             2317 	.byte	25
00000044 08             2318 	.byte	8
00000045 1a             2319 	.byte	26
00000046 08             2320 	.byte	8
00000047 1b             2321 	.byte	27
00000048 08             2322 	.byte	8
00000049 1c             2323 	.byte	28
0000004a 08             2324 	.byte	8
0000004b 1d             2325 	.byte	29
0000004c 07             2326 	.byte	7
0000004d 1e             2327 	.byte	30
0000004e 08             2328 	.byte	8
0000004f 1f             2329 	.byte	31
00000050 07             2330 	.byte	7
00000051 20             2331 	.byte	32
00000052 07             2332 	.byte	7
00000053 21             2333 	.byte	33
00000054 07             2334 	.byte	7
00000055 22             2335 	.byte	34
00000056 07             2336 	.byte	7
00000057 23             2337 	.byte	35
00000058 07             2338 	.byte	7
00000059 24             2339 	.byte	36
0000005a 07             2340 	.byte	7
0000005b 25             2341 	.byte	37
0000005c 07             2342 	.byte	7
0000005d 26             2343 	.byte	38
0000005e 07             2344 	.byte	7
0000005f 27             2345 	.byte	39
00000060 07             2346 	.byte	7
00000061 28             2347 	.byte	40
00000062 07             2348 	.byte	7
00000063 29             2349 	.byte	41
00000064 07             2350 	.byte	7
00000065 2a             2351 	.byte	42
00000066 07             2352 	.byte	7
00000067 2b             2353 	.byte	43
00000068 07             2354 	.byte	7
00000069 2c             2355 	.byte	44
0000006a 07             2356 	.byte	7
0000006b 2d             2357 	.byte	45
0000006c 07             2358 	.byte	7
0000006d 2e             2359 	.byte	46

                                                                      Page 43
                                                              C:\Users\nhuliyap\AppData\Local\Temp\gh_0000bnc1.s
0000006e 07             2360 	.byte	7
0000006f 2f             2361 	.byte	47
00000070 07             2362 	.byte	7
00000071 30             2363 	.byte	48
00000072 07             2364 	.byte	7
00000073 31             2365 	.byte	49
00000074 07             2366 	.byte	7
00000075 32             2367 	.byte	50
00000076 07             2368 	.byte	7
00000077 33             2369 	.byte	51
00000078 07             2370 	.byte	7
00000079 34             2371 	.byte	52
0000007a 07             2372 	.byte	7
0000007b 35             2373 	.byte	53
0000007c 07             2374 	.byte	7
0000007d 36             2375 	.byte	54
0000007e 07             2376 	.byte	7
0000007f 37             2377 	.byte	55
00000080 07             2378 	.byte	7
00000081 38             2379 	.byte	56
00000082 07             2380 	.byte	7
00000083 39             2381 	.byte	57
00000084 07             2382 	.byte	7
00000085 3a             2383 	.byte	58
00000086 07             2384 	.byte	7
00000087 3b             2385 	.byte	59
00000088 07             2386 	.byte	7
00000089 3c             2387 	.byte	60
0000008a 07             2388 	.byte	7
0000008b 3d             2389 	.byte	61
0000008c 07             2390 	.byte	7
0000008d 3e             2391 	.byte	62
0000008e 07             2392 	.byte	7
0000008f 3f             2393 	.byte	63
                        2394 .LDW_unq_2:
                        2395 	.section	.debug_info
                        2396 .LDW_2867340:
0000009c 25             2397 	.byte	37
0000009d 766f69642a00   2398 	.strz	"void*"
000000a3 01             2399 	.byte	1
000000a4 04             2400 	.byte	4
                        2401 
                        2402 	.section	.debug_abbrev
00000017 25             2403 	.byte	37
00000018 24             2404 	.byte	36
00000019 00             2405 	.byte	0
0000001a 0308           2406 	.byte	3,8
0000001c 3e0b           2407 	.byte	62,11
0000001e 0b0b           2408 	.byte	11,11
00000020 0000           2409 	.byte	0,0
                        2410 
                        2411 	.section	.debug_info
                        2412 .LDW_28aef08:
000000a5 2a             2413 	.byte	42
                        2414 
                        2415 	.section	.debug_abbrev
00000022 2a             2416 	.byte	42
00000023 26             2417 	.byte	38
00000024 00             2418 	.byte	0
00000025 0000           2419 	.byte	0,0
                        2420 

                                                                      Page 44
                                                              C:\Users\nhuliyap\AppData\Local\Temp\gh_0000bnc1.s
                        2421 	.section	.debug_info
                        2422 .LDW_28673e8:
000000a6 2f             2423 	.byte	47
000000a7 00000000*      2424 	.word	.LDW_28aef08
                        2425 
                        2426 	.section	.debug_abbrev
00000027 2f             2427 	.byte	47
00000028 0f             2428 	.byte	15
00000029 00             2429 	.byte	0
0000002a 4910           2430 	.byte	73,16
0000002c 0000           2431 	.byte	0,0
                        2432 
                        2433 	.section	.debug_info
                        2434 .LDW_2867068:
000000ab 25             2435 	.byte	37
000000ac 696e7400       2436 	.strz	"int"
000000b0 05             2437 	.byte	5
000000b1 04             2438 	.byte	4
                        2439 
                        2440 .LDW_2866d90:
000000b2 25             2441 	.byte	37
000000b3 756e7369676e   2442 	.strz	"unsigned int"
000000b9 656420696e74 
000000bf 00 
000000c0 07             2443 	.byte	7
000000c1 04             2444 	.byte	4
                        2445 
                        2446 .LDW_2866f18:
000000c2 25             2447 	.byte	37
000000c3 756e7369676e   2448 	.strz	"unsigned char"
000000c9 656420636861 
000000cf 7200 
000000d1 08             2449 	.byte	8
000000d2 01             2450 	.byte	1
                        2451 
                        2452 .LDW_28ad7f0:
000000d3 29             2453 	.byte	41
000000d4 00000000*      2454 	.word	.LDW_2866f18
                        2455 
                        2456 	.section	.debug_abbrev
0000002e 29             2457 	.byte	41
0000002f 26             2458 	.byte	38
00000030 00             2459 	.byte	0
00000031 4910           2460 	.byte	73,16
00000033 0000           2461 	.byte	0,0
                        2462 
                        2463 	.section	.debug_info
                        2464 .LDW_2866f50:
000000d8 2f             2465 	.byte	47
000000d9 00000000*      2466 	.word	.LDW_28ad7f0
                        2467 
                        2468 .LDW_2867458:
000000dd 2f             2469 	.byte	47
000000de 00000000*      2470 	.word	.LDW_4b6ef00
                        2471 
                        2472 .LDW_2867490:
000000e2 45             2473 	.byte	69
000000e3 01             2474 	.byte	1
                        2475 
                        2476 	.section	.debug_abbrev
00000035 45             2477 	.byte	69

                                                                      Page 45
                                                              C:\Users\nhuliyap\AppData\Local\Temp\gh_0000bnc1.s
00000036 15             2478 	.byte	21
00000037 01             2479 	.byte	1
00000038 270c           2480 	.byte	39,12
0000003a 0000           2481 	.byte	0,0
                        2482 
                        2483 	.section	.debug_info
                        2484 .LDW_4b735b8:
000000e4 12             2485 	.byte	18
000000e5 00000000*      2486 	.word	.LDW_2867458
000000e9 00             2487 	.byte	0
                        2488 
                        2489 	.section	.debug_abbrev
0000003c 12             2490 	.byte	18
0000003d 05             2491 	.byte	5
0000003e 00             2492 	.byte	0
0000003f 4910           2493 	.byte	73,16
00000041 4b0c           2494 	.byte	75,12
00000043 0000           2495 	.byte	0,0
                        2496 
                        2497 	.section	.debug_info
                        2498 .LDW_4b73708:
000000ea 12             2499 	.byte	18
000000eb 00000000*      2500 	.word	.LDW_2866f50
000000ef 00             2501 	.byte	0
                        2502 
                        2503 .LDW_4b73648:
000000f0 12             2504 	.byte	18
000000f1 00000000*      2505 	.word	.LDW_2866d90
000000f5 00             2506 	.byte	0
                        2507 
000000f6 00             2508 	.byte	0
                        2509 
                        2510 .LDW_28ab850:
000000f7 25             2511 	.byte	37
000000f8 756e7369676e   2512 	.strz	"unsigned long"
000000fe 6564206c6f6e 
00000104 6700 
00000106 07             2513 	.byte	7
00000107 04             2514 	.byte	4
                        2515 
                        2516 .LDW_28adee0:
00000108 3a             2517 	.byte	58
00000109 00             2518 	.byte	0
0000010a 8002           2519 	.byte	128,2
0000010c 00000000*      2520 	.word	.LDW_4b6ed48
                        2521 
                        2522 	.section	.debug_abbrev
00000045 3a             2523 	.byte	58
00000046 01             2524 	.byte	1
00000047 01             2525 	.byte	1
00000048 090b           2526 	.byte	9,11
0000004a 0b0f           2527 	.byte	11,15
0000004c 4910           2528 	.byte	73,16
0000004e 0000           2529 	.byte	0,0
                        2530 
                        2531 	.section	.debug_info
00000110 32             2532 	.byte	50
00000111 00000000*      2533 	.word	.LDW_2867068
00000115 04             2534 	.byte	4
00000116 00             2535 	.byte	0
00000117 3f             2536 	.byte	63

                                                                      Page 46
                                                              C:\Users\nhuliyap\AppData\Local\Temp\gh_0000bnc1.s
                        2537 
                        2538 	.section	.debug_abbrev
00000050 32             2539 	.byte	50
00000051 21             2540 	.byte	33
00000052 00             2541 	.byte	0
00000053 4910           2542 	.byte	73,16
00000055 0b0f           2543 	.byte	11,15
00000057 220d           2544 	.byte	34,13
00000059 2f0d           2545 	.byte	47,13
0000005b 0000           2546 	.byte	0,0
                        2547 
                        2548 	.section	.debug_info
00000118 00             2549 	.byte	0
                        2550 
                        2551 .LDW_4b56838:
00000119 3a             2552 	.byte	58
0000011a 00             2553 	.byte	0
0000011b 20             2554 	.byte	32
0000011c 00000000*      2555 	.word	.LDW_4b6ed48
                        2556 
00000120 32             2557 	.byte	50
00000121 00000000*      2558 	.word	.LDW_2867068
00000125 04             2559 	.byte	4
00000126 00             2560 	.byte	0
00000127 07             2561 	.byte	7
                        2562 
00000128 00             2563 	.byte	0
                        2564 
                        2565 .LDW_28aba48:
00000129 2f             2566 	.byte	47
0000012a 00000000*      2567 	.word	.LDW_2866f18
                        2568 
                        2569 .LDW_28ab888:
0000012e 45             2570 	.byte	69
0000012f 01             2571 	.byte	1
                        2572 
                        2573 .LDW_4b736a8:
00000130 12             2574 	.byte	18
00000131 00000000*      2575 	.word	.LDW_2866f50
00000135 00             2576 	.byte	0
                        2577 
                        2578 .LDW_4b73738:
00000136 12             2579 	.byte	18
00000137 00000000*      2580 	.word	.LDW_2866d90
0000013b 00             2581 	.byte	0
                        2582 
                        2583 .LDW_4b73768:
0000013c 12             2584 	.byte	18
0000013d 00000000*      2585 	.word	.LDW_28aba48
00000141 00             2586 	.byte	0
                        2587 
00000142 00             2588 	.byte	0
                        2589 
                        2590 .LDW_28ab8c0:
00000143 45             2591 	.byte	69
00000144 01             2592 	.byte	1
                        2593 
                        2594 .LDW_4b737c8:
00000145 12             2595 	.byte	18
00000146 00000000*      2596 	.word	.LDW_2867458
0000014a 00             2597 	.byte	0

                                                                      Page 47
                                                              C:\Users\nhuliyap\AppData\Local\Temp\gh_0000bnc1.s
                        2598 
0000014b 00             2599 	.byte	0
                        2600 
                        2601 .LDW_28ab498:
0000014c 45             2602 	.byte	69
0000014d 01             2603 	.byte	1
                        2604 
                        2605 .LDW_4b72838:
0000014e 12             2606 	.byte	18
0000014f 00000000*      2607 	.word	.LDW_2867458
00000153 00             2608 	.byte	0
                        2609 
                        2610 .LDW_4b72d78:
00000154 12             2611 	.byte	18
00000155 00000000*      2612 	.word	.LDW_2866f50
00000159 00             2613 	.byte	0
                        2614 
                        2615 .LDW_4b72ce8:
0000015a 12             2616 	.byte	18
0000015b 00000000*      2617 	.word	.LDW_2866d90
0000015f 00             2618 	.byte	0
                        2619 
00000160 00             2620 	.byte	0
                        2621 
                        2622 .LDW_28ab8f8:
00000161 45             2623 	.byte	69
00000162 01             2624 	.byte	1
                        2625 
                        2626 .LDW_4b72898:
00000163 12             2627 	.byte	18
00000164 00000000*      2628 	.word	.LDW_2867458
00000168 00             2629 	.byte	0
                        2630 
                        2631 .LDW_4b72988:
00000169 12             2632 	.byte	18
0000016a 00000000*      2633 	.word	.LDW_28aba48
0000016e 00             2634 	.byte	0
                        2635 
0000016f 00             2636 	.byte	0
                        2637 
                        2638 .LDW_28ab930:
00000170 2f             2639 	.byte	47
00000171 00000000*      2640 	.word	.LDW_4b78c80
                        2641 
                        2642 .LDW_28ab690:
00000175 45             2643 	.byte	69
00000176 01             2644 	.byte	1
                        2645 
                        2646 .LDW_4b72d48:
00000177 12             2647 	.byte	18
00000178 00000000*      2648 	.word	.LDW_28ab930
0000017c 00             2649 	.byte	0
                        2650 
                        2651 .LDW_4b72b68:
0000017d 12             2652 	.byte	18
0000017e 00000000*      2653 	.word	.LDW_2866f50
00000182 00             2654 	.byte	0
                        2655 
                        2656 .LDW_4b72cb8:
00000183 12             2657 	.byte	18
00000184 00000000*      2658 	.word	.LDW_2866d90

                                                                      Page 48
                                                              C:\Users\nhuliyap\AppData\Local\Temp\gh_0000bnc1.s
00000188 00             2659 	.byte	0
                        2660 
00000189 00             2661 	.byte	0
                        2662 
                        2663 .LDW_28ab4d0:
0000018a 25             2664 	.byte	37
0000018b 756e7369676e   2665 	.strz	"unsigned long long"
00000191 6564206c6f6e 
00000197 67206c6f6e67 
0000019d 00 
0000019e 07             2666 	.byte	7
0000019f 08             2667 	.byte	8
                        2668 
                        2669 .LDW_4b56bb8:
000001a0 3a             2670 	.byte	58
000001a1 00             2671 	.byte	0
000001a2 8005           2672 	.byte	128,5
000001a4 00000000*      2673 	.word	.LDW_4b78910
                        2674 
000001a8 32             2675 	.byte	50
000001a9 00000000*      2676 	.word	.LDW_2867068
000001ad 04             2677 	.byte	4
000001ae 00             2678 	.byte	0
000001af cf00           2679 	.byte	207,0
                        2680 
000001b1 00             2681 	.byte	0
                        2682 
                        2683 .LDW_4b56c40:
000001b2 3a             2684 	.byte	58
000001b3 00             2685 	.byte	0
000001b4 40             2686 	.byte	64
000001b5 00000000*      2687 	.word	.LDW_4b78910
                        2688 
000001b9 32             2689 	.byte	50
000001ba 00000000*      2690 	.word	.LDW_2867068
000001be 04             2691 	.byte	4
000001bf 00             2692 	.byte	0
000001c0 07             2693 	.byte	7
                        2694 
000001c1 00             2695 	.byte	0
                        2696 
                        2697 .LDW_28ab508:
000001c2 45             2698 	.byte	69
000001c3 01             2699 	.byte	1
                        2700 
                        2701 .LDW_4b72b98:
000001c4 12             2702 	.byte	18
000001c5 00000000*      2703 	.word	.LDW_2866f50
000001c9 00             2704 	.byte	0
                        2705 
                        2706 .LDW_4b72ad8:
000001ca 12             2707 	.byte	18
000001cb 00000000*      2708 	.word	.LDW_2866d90
000001cf 00             2709 	.byte	0
                        2710 
                        2711 .LDW_4b72a78:
000001d0 12             2712 	.byte	18
000001d1 00000000*      2713 	.word	.LDW_28aba48
000001d5 00             2714 	.byte	0
                        2715 
000001d6 00             2716 	.byte	0

                                                                      Page 49
                                                              C:\Users\nhuliyap\AppData\Local\Temp\gh_0000bnc1.s
                        2717 
                        2718 .LDW_28ab5b0:
000001d7 45             2719 	.byte	69
000001d8 01             2720 	.byte	1
                        2721 
                        2722 .LDW_4b72bc8:
000001d9 12             2723 	.byte	18
000001da 00000000*      2724 	.word	.LDW_28ab930
000001de 00             2725 	.byte	0
                        2726 
000001df 00             2727 	.byte	0
                        2728 
                        2729 .LDW_28ab540:
000001e0 45             2730 	.byte	69
000001e1 01             2731 	.byte	1
                        2732 
                        2733 .LDW_4b72bf8:
000001e2 12             2734 	.byte	18
000001e3 00000000*      2735 	.word	.LDW_28ab930
000001e7 00             2736 	.byte	0
                        2737 
                        2738 .LDW_4b72868:
000001e8 12             2739 	.byte	18
000001e9 00000000*      2740 	.word	.LDW_2866f50
000001ed 00             2741 	.byte	0
                        2742 
                        2743 .LDW_4b72c28:
000001ee 12             2744 	.byte	18
000001ef 00000000*      2745 	.word	.LDW_2866d90
000001f3 00             2746 	.byte	0
                        2747 
000001f4 00             2748 	.byte	0
                        2749 
                        2750 .LDW_28ab9a0:
000001f5 45             2751 	.byte	69
000001f6 01             2752 	.byte	1
                        2753 
                        2754 .LDW_4b72928:
000001f7 12             2755 	.byte	18
000001f8 00000000*      2756 	.word	.LDW_28ab930
000001fc 00             2757 	.byte	0
                        2758 
                        2759 .LDW_4b72a48:
000001fd 12             2760 	.byte	18
000001fe 00000000*      2761 	.word	.LDW_28aba48
00000202 00             2762 	.byte	0
                        2763 
00000203 00             2764 	.byte	0
                        2765 
                        2766 .LDW_28ab818:
00000204 45             2767 	.byte	69
00000205 01             2768 	.byte	1
                        2769 
                        2770 .LDW_4b729b8:
00000206 12             2771 	.byte	18
00000207 00000000*      2772 	.word	.LDW_2866f50
0000020b 00             2773 	.byte	0
                        2774 
                        2775 .LDW_4b72958:
0000020c 12             2776 	.byte	18
0000020d 00000000*      2777 	.word	.LDW_2866d90

                                                                      Page 50
                                                              C:\Users\nhuliyap\AppData\Local\Temp\gh_0000bnc1.s
00000211 00             2778 	.byte	0
                        2779 
                        2780 .LDW_4b729e8:
00000212 12             2781 	.byte	18
00000213 00000000*      2782 	.word	.LDW_28aba48
00000217 00             2783 	.byte	0
                        2784 
00000218 00             2785 	.byte	0
                        2786 
                        2787 .LDW_28ab7a8:
00000219 2f             2788 	.byte	47
0000021a 00000000*      2789 	.word	.LDW_4bd8688
                        2790 
                        2791 .LDW_28ab738:
0000021e 45             2792 	.byte	69
0000021f 01             2793 	.byte	1
                        2794 
                        2795 .LDW_4b72c88:
00000220 12             2796 	.byte	18
00000221 00000000*      2797 	.word	.LDW_28ab7a8
00000225 00             2798 	.byte	0
                        2799 
00000226 00             2800 	.byte	0
                        2801 
                        2802 .LDW_28ab3f0:
00000227 45             2803 	.byte	69
00000228 01             2804 	.byte	1
                        2805 
                        2806 .LDW_4b72aa8:
00000229 12             2807 	.byte	18
0000022a 00000000*      2808 	.word	.LDW_28ab7a8
0000022e 00             2809 	.byte	0
                        2810 
                        2811 .LDW_4b72e98:
0000022f 12             2812 	.byte	18
00000230 00000000*      2813 	.word	.LDW_2866f50
00000234 00             2814 	.byte	0
                        2815 
                        2816 .LDW_4b73108:
00000235 12             2817 	.byte	18
00000236 00000000*      2818 	.word	.LDW_2866d90
0000023a 00             2819 	.byte	0
                        2820 
0000023b 00             2821 	.byte	0
                        2822 
                        2823 .LDW_28ab578:
0000023c 45             2824 	.byte	69
0000023d 01             2825 	.byte	1
                        2826 
                        2827 .LDW_4b72f58:
0000023e 12             2828 	.byte	18
0000023f 00000000*      2829 	.word	.LDW_28ab7a8
00000243 00             2830 	.byte	0
                        2831 
                        2832 .LDW_4b72f88:
00000244 12             2833 	.byte	18
00000245 00000000*      2834 	.word	.LDW_28aba48
00000249 00             2835 	.byte	0
                        2836 
0000024a 00             2837 	.byte	0
                        2838 

                                                                      Page 51
                                                              C:\Users\nhuliyap\AppData\Local\Temp\gh_0000bnc1.s
                        2839 .LDW_28ab460:
0000024b 45             2840 	.byte	69
0000024c 01             2841 	.byte	1
                        2842 
                        2843 .LDW_4b733d8:
0000024d 12             2844 	.byte	18
0000024e 00000000*      2845 	.word	.LDW_2866f50
00000252 00             2846 	.byte	0
                        2847 
                        2848 .LDW_4b72f28:
00000253 12             2849 	.byte	18
00000254 00000000*      2850 	.word	.LDW_2866d90
00000258 00             2851 	.byte	0
                        2852 
                        2853 .LDW_4b72e38:
00000259 12             2854 	.byte	18
0000025a 00000000*      2855 	.word	.LDW_28aba48
0000025e 00             2856 	.byte	0
                        2857 
0000025f 00             2858 	.byte	0
                        2859 
                        2860 .LDW_28ab968:
00000260 2f             2861 	.byte	47
00000261 00000000*      2862 	.word	.LDW_4bd7ce8
                        2863 
                        2864 .LDW_28ab6c8:
00000265 45             2865 	.byte	69
00000266 01             2866 	.byte	1
                        2867 
                        2868 .LDW_4b73228:
00000267 12             2869 	.byte	18
00000268 00000000*      2870 	.word	.LDW_28ab968
0000026c 00             2871 	.byte	0
                        2872 
0000026d 00             2873 	.byte	0
                        2874 
                        2875 .LDW_28aba10:
0000026e 45             2876 	.byte	69
0000026f 01             2877 	.byte	1
                        2878 
                        2879 .LDW_4b731f8:
00000270 12             2880 	.byte	18
00000271 00000000*      2881 	.word	.LDW_28ab968
00000275 00             2882 	.byte	0
                        2883 
                        2884 .LDW_4b73378:
00000276 12             2885 	.byte	18
00000277 00000000*      2886 	.word	.LDW_2866f50
0000027b 00             2887 	.byte	0
                        2888 
                        2889 .LDW_4b72ec8:
0000027c 12             2890 	.byte	18
0000027d 00000000*      2891 	.word	.LDW_2866d90
00000281 00             2892 	.byte	0
                        2893 
00000282 00             2894 	.byte	0
                        2895 
                        2896 .LDW_28ab9d8:
00000283 45             2897 	.byte	69
00000284 01             2898 	.byte	1
                        2899 

                                                                      Page 52
                                                              C:\Users\nhuliyap\AppData\Local\Temp\gh_0000bnc1.s
                        2900 .LDW_4b732e8:
00000285 12             2901 	.byte	18
00000286 00000000*      2902 	.word	.LDW_28ab968
0000028a 00             2903 	.byte	0
                        2904 
                        2905 .LDW_4b72ef8:
0000028b 12             2906 	.byte	18
0000028c 00000000*      2907 	.word	.LDW_28aba48
00000290 00             2908 	.byte	0
                        2909 
00000291 00             2910 	.byte	0
                        2911 
                        2912 .LDW_4b56d60:
00000292 3a             2913 	.byte	58
00000293 00             2914 	.byte	0
00000294 8001           2915 	.byte	128,1
00000296 00000000*      2916 	.word	.LDW_2866f18
                        2917 
0000029a 32             2918 	.byte	50
0000029b 00000000*      2919 	.word	.LDW_2867068
0000029f 04             2920 	.byte	4
000002a0 00             2921 	.byte	0
000002a1 ff00           2922 	.byte	255,0
                        2923 
000002a3 00             2924 	.byte	0
                        2925 
                        2926 .LDW_4b56de8:
000002a4 3a             2927 	.byte	58
000002a5 00             2928 	.byte	0
000002a6 20             2929 	.byte	32
000002a7 00000000*      2930 	.word	.LDW_4b6ed48
                        2931 
000002ab 32             2932 	.byte	50
000002ac 00000000*      2933 	.word	.LDW_2867068
000002b0 04             2934 	.byte	4
000002b1 00             2935 	.byte	0
000002b2 07             2936 	.byte	7
                        2937 
000002b3 00             2938 	.byte	0
                        2939 
                        2940 .LDW_4b56e70:
000002b4 3a             2941 	.byte	58
000002b5 00             2942 	.byte	0
000002b6 8002           2943 	.byte	128,2
000002b8 00000000*      2944 	.word	.LDW_2866f18
                        2945 
000002bc 32             2946 	.byte	50
000002bd 00000000*      2947 	.word	.LDW_2867068
000002c1 04             2948 	.byte	4
000002c2 00             2949 	.byte	0
000002c3 ff01           2950 	.byte	255,1
                        2951 
000002c5 00             2952 	.byte	0
                        2953 
                        2954 .LDW_4b56ef8:
000002c6 3a             2955 	.byte	58
000002c7 00             2956 	.byte	0
000002c8 40             2957 	.byte	64
000002c9 00000000*      2958 	.word	.LDW_4b78910
                        2959 
000002cd 32             2960 	.byte	50

                                                                      Page 53
                                                              C:\Users\nhuliyap\AppData\Local\Temp\gh_0000bnc1.s
000002ce 00000000*      2961 	.word	.LDW_2867068
000002d2 04             2962 	.byte	4
000002d3 00             2963 	.byte	0
000002d4 07             2964 	.byte	7
                        2965 
000002d5 00             2966 	.byte	0
                        2967 
                        2968 .LDW_28abf58:
000002d6 3a             2969 	.byte	58
000002d7 00             2970 	.byte	0
000002d8 20             2971 	.byte	32
000002d9 00000000*      2972 	.word	.LDW_4b6ed48
                        2973 
000002dd 32             2974 	.byte	50
000002de 00000000*      2975 	.word	.LDW_2867068
000002e2 04             2976 	.byte	4
000002e3 00             2977 	.byte	0
000002e4 07             2978 	.byte	7
                        2979 
000002e5 00             2980 	.byte	0
                        2981 
                        2982 .LDW_28abfe0:
000002e6 3a             2983 	.byte	58
000002e7 00             2984 	.byte	0
000002e8 20             2985 	.byte	32
000002e9 00000000*      2986 	.word	.LDW_4b6ed48
                        2987 
000002ed 32             2988 	.byte	50
000002ee 00000000*      2989 	.word	.LDW_2867068
000002f2 04             2990 	.byte	4
000002f3 00             2991 	.byte	0
000002f4 07             2992 	.byte	7
                        2993 
000002f5 00             2994 	.byte	0
                        2995 
                        2996 .LDW_28ac068:
000002f6 3a             2997 	.byte	58
000002f7 00             2998 	.byte	0
000002f8 40             2999 	.byte	64
000002f9 00000000*      3000 	.word	.LDW_4b78910
                        3001 
000002fd 32             3002 	.byte	50
000002fe 00000000*      3003 	.word	.LDW_2867068
00000302 04             3004 	.byte	4
00000303 00             3005 	.byte	0
00000304 07             3006 	.byte	7
                        3007 
00000305 00             3008 	.byte	0
                        3009 
                        3010 .LDW_28ac0f0:
00000306 3a             3011 	.byte	58
00000307 00             3012 	.byte	0
00000308 40             3013 	.byte	64
00000309 00000000*      3014 	.word	.LDW_4b78910
                        3015 
0000030d 32             3016 	.byte	50
0000030e 00000000*      3017 	.word	.LDW_2867068
00000312 04             3018 	.byte	4
00000313 00             3019 	.byte	0
00000314 07             3020 	.byte	7
                        3021 

                                                                      Page 54
                                                              C:\Users\nhuliyap\AppData\Local\Temp\gh_0000bnc1.s
00000315 00             3022 	.byte	0
                        3023 
                        3024 .LDW_28ac178:
00000316 3a             3025 	.byte	58
00000317 00             3026 	.byte	0
00000318 8002           3027 	.byte	128,2
0000031a 00000000*      3028 	.word	.LDW_4b6ed48
                        3029 
0000031e 32             3030 	.byte	50
0000031f 00000000*      3031 	.word	.LDW_2867068
00000323 04             3032 	.byte	4
00000324 00             3033 	.byte	0
00000325 3f             3034 	.byte	63
                        3035 
00000326 00             3036 	.byte	0
                        3037 
                        3038 .LDW_4bee738:
00000327 3a             3039 	.byte	58
00000328 00             3040 	.byte	0
00000329 8005           3041 	.byte	128,5
0000032b 00000000*      3042 	.word	.LDW_4b78910
                        3043 
0000032f 32             3044 	.byte	50
00000330 00000000*      3045 	.word	.LDW_2867068
00000334 04             3046 	.byte	4
00000335 00             3047 	.byte	0
00000336 cf00           3048 	.byte	207,0
                        3049 
00000338 00             3050 	.byte	0
                        3051 
                        3052 .LDW_4beed18:
00000339 44             3053 	.byte	68
0000033a 00000000*      3054 	.word	.LDW_2867340
0000033e 01             3055 	.byte	1
                        3056 
                        3057 	.section	.debug_abbrev
0000005d 44             3058 	.byte	68
0000005e 15             3059 	.byte	21
0000005f 01             3060 	.byte	1
00000060 4910           3061 	.byte	73,16
00000062 270c           3062 	.byte	39,12
00000064 0000           3063 	.byte	0,0
                        3064 
                        3065 	.section	.debug_info
                        3066 .LDW_4b732b8:
0000033f 12             3067 	.byte	18
00000340 00000000*      3068 	.word	.LDW_2867340
00000344 00             3069 	.byte	0
                        3070 
                        3071 .LDW_4b733a8:
00000345 12             3072 	.byte	18
00000346 00000000*      3073 	.word	.LDW_28673e8
0000034a 00             3074 	.byte	0
                        3075 
                        3076 .LDW_4bef128:
0000034b 12             3077 	.byte	18
0000034c 00000000*      3078 	.word	.LDW_28aef60
00000350 00             3079 	.byte	0
                        3080 
00000351 00             3081 	.byte	0
                        3082 

                                                                      Page 55
                                                              C:\Users\nhuliyap\AppData\Local\Temp\gh_0000bnc1.s
                        3083 .LDW_4bee960:
00000352 44             3084 	.byte	68
00000353 00000000*      3085 	.word	.LDW_2867340
00000357 01             3086 	.byte	1
                        3087 
                        3088 .LDW_4bef458:
00000358 12             3089 	.byte	18
00000359 00000000*      3090 	.word	.LDW_2867340
0000035d 00             3091 	.byte	0
                        3092 
                        3093 .LDW_4bef158:
0000035e 12             3094 	.byte	18
0000035f 00000000*      3095 	.word	.LDW_2867068
00000363 00             3096 	.byte	0
                        3097 
                        3098 .LDW_4bef3c8:
00000364 12             3099 	.byte	18
00000365 00000000*      3100 	.word	.LDW_28aef60
00000369 00             3101 	.byte	0
                        3102 
0000036a 00             3103 	.byte	0
                        3104 
                        3105 .LDW_28aef60:
0000036b 28             3106 	.byte	40
0000036c 73697a655f74   3107 	.strz	"size_t"
00000372 00 
00000373 31             3108 	.byte	49
00000374 1b             3109 	.byte	27
00000375 03             3110 	.byte	3
00000376 00000000*      3111 	.word	.LDW_2866d90
                        3112 
                        3113 	.section	.debug_abbrev
00000066 28             3114 	.byte	40
00000067 16             3115 	.byte	22
00000068 00             3116 	.byte	0
00000069 0308           3117 	.byte	3,8
0000006b 3b0f           3118 	.byte	59,15
0000006d 390f           3119 	.byte	57,15
0000006f 3a0f           3120 	.byte	58,15
00000071 4910           3121 	.byte	73,16
00000073 0000           3122 	.byte	0,0
                        3123 
                        3124 	.section	.debug_info
                        3125 .LDW_4b30080:
0000037a 28             3126 	.byte	40
0000037b 75696e743800   3127 	.strz	"uint8"
00000381 50             3128 	.byte	80
00000382 4b             3129 	.byte	75
00000383 09             3130 	.byte	9
00000384 00000000*      3131 	.word	.LDW_2866f18
                        3132 
                        3133 .LDW_4b6ed48:
00000388 28             3134 	.byte	40
00000389 75696e743332   3135 	.strz	"uint32"
0000038f 00 
00000390 54             3136 	.byte	84
00000391 4a             3137 	.byte	74
00000392 09             3138 	.byte	9
00000393 00000000*      3139 	.word	.LDW_28ab850
                        3140 
                        3141 .LDW_4b78910:

                                                                      Page 56
                                                              C:\Users\nhuliyap\AppData\Local\Temp\gh_0000bnc1.s
00000397 28             3142 	.byte	40
00000398 75696e743634   3143 	.strz	"uint64"
0000039e 00 
0000039f 60             3144 	.byte	96
000003a0 4a             3145 	.byte	74
000003a1 09             3146 	.byte	9
000003a2 00000000*      3147 	.word	.LDW_28ab4d0
                        3148 
                        3149 .LDW_4b6eb90:
000003a6 41             3150 	.byte	65
000003a7 1d             3151 	.byte	29
000003a8 0f             3152 	.byte	15
000003a9 06             3153 	.byte	6
000003aa a801           3154 	.byte	168,1
000003ac 01             3155 	.byte	1
                        3156 
                        3157 	.section	.debug_abbrev
00000075 41             3158 	.byte	65
00000076 13             3159 	.byte	19
00000077 01             3160 	.byte	1
00000078 3b0f           3161 	.byte	59,15
0000007a 390f           3162 	.byte	57,15
0000007c 3a0f           3163 	.byte	58,15
0000007e 0b0f           3164 	.byte	11,15
00000080 320b           3165 	.byte	50,11
00000082 0000           3166 	.byte	0,0
                        3167 
                        3168 	.section	.debug_info
                        3169 .LDW_4b561b8:
000003ad 23             3170 	.byte	35
000003ae 746f745f6c65   3171 	.strz	"tot_len"
000003b4 6e00 
000003b6 1e             3172 	.byte	30
000003b7 12             3173 	.byte	18
000003b8 06             3174 	.byte	6
000003b9 00000000*      3175 	.word	.LDW_2866d90
000003bd 0223           3176 	.byte	2,35
000003bf 00             3177 	.byte	0
000003c0 01             3178 	.byte	1
                        3179 
                        3180 	.section	.debug_abbrev
00000084 23             3181 	.byte	35
00000085 0d             3182 	.byte	13
00000086 00             3183 	.byte	0
00000087 0308           3184 	.byte	3,8
00000089 3b0f           3185 	.byte	59,15
0000008b 390f           3186 	.byte	57,15
0000008d 3a0f           3187 	.byte	58,15
0000008f 4910           3188 	.byte	73,16
00000091 380a           3189 	.byte	56,10
00000093 320b           3190 	.byte	50,11
00000095 0000           3191 	.byte	0,0
                        3192 
                        3193 	.section	.debug_info
                        3194 .LDW_4b56440:
000003c1 23             3195 	.byte	35
000003c2 6c656e00       3196 	.strz	"len"
000003c6 1f             3197 	.byte	31
000003c7 12             3198 	.byte	18
000003c8 06             3199 	.byte	6
000003c9 00000000*      3200 	.word	.LDW_2866d90

                                                                      Page 57
                                                              C:\Users\nhuliyap\AppData\Local\Temp\gh_0000bnc1.s
000003cd 0223           3201 	.byte	2,35
000003cf 04             3202 	.byte	4
000003d0 01             3203 	.byte	1
                        3204 
                        3205 .LDW_4b56488:
000003d1 23             3206 	.byte	35
000003d2 626c6f636b00   3207 	.strz	"block"
000003d8 20             3208 	.byte	32
000003d9 13             3209 	.byte	19
000003da 06             3210 	.byte	6
000003db 00000000*      3211 	.word	.LDW_4b56d60
000003df 0223           3212 	.byte	2,35
000003e1 08             3213 	.byte	8
000003e2 01             3214 	.byte	1
                        3215 
                        3216 .LDW_4b565a8:
000003e3 23             3217 	.byte	35
000003e4 6800           3218 	.strz	"h"
000003e6 21             3219 	.byte	33
000003e7 0c             3220 	.byte	12
000003e8 06             3221 	.byte	6
000003e9 00000000*      3222 	.word	.LDW_4b56de8
000003ed 0323           3223 	.byte	3,35
000003ef 8801           3224 	.byte	136,1
000003f1 01             3225 	.byte	1
                        3226 
000003f2 00             3227 	.byte	0
                        3228 
                        3229 .LDW_4b6ef00:
000003f3 28             3230 	.byte	40
000003f4 736861323536   3231 	.strz	"sha256_ctx"
000003fa 5f63747800 
000003ff 22             3232 	.byte	34
00000400 02             3233 	.byte	2
00000401 06             3234 	.byte	6
00000402 00000000*      3235 	.word	.LDW_4b6eb90
                        3236 
                        3237 .LDW_4b79258:
00000406 41             3238 	.byte	65
00000407 24             3239 	.byte	36
00000408 0f             3240 	.byte	15
00000409 06             3241 	.byte	6
0000040a c802           3242 	.byte	200,2
0000040c 01             3243 	.byte	1
                        3244 
                        3245 .LDW_4b56170:
0000040d 23             3246 	.byte	35
0000040e 746f745f6c65   3247 	.strz	"tot_len"
00000414 6e00 
00000416 25             3248 	.byte	37
00000417 12             3249 	.byte	18
00000418 06             3250 	.byte	6
00000419 00000000*      3251 	.word	.LDW_2866d90
0000041d 0223           3252 	.byte	2,35
0000041f 00             3253 	.byte	0
00000420 01             3254 	.byte	1
                        3255 
                        3256 .LDW_4becad8:
00000421 23             3257 	.byte	35
00000422 6c656e00       3258 	.strz	"len"
00000426 26             3259 	.byte	38

                                                                      Page 58
                                                              C:\Users\nhuliyap\AppData\Local\Temp\gh_0000bnc1.s
00000427 12             3260 	.byte	18
00000428 06             3261 	.byte	6
00000429 00000000*      3262 	.word	.LDW_2866d90
0000042d 0223           3263 	.byte	2,35
0000042f 04             3264 	.byte	4
00000430 01             3265 	.byte	1
                        3266 
                        3267 .LDW_4becdf0:
00000431 23             3268 	.byte	35
00000432 626c6f636b00   3269 	.strz	"block"
00000438 27             3270 	.byte	39
00000439 13             3271 	.byte	19
0000043a 06             3272 	.byte	6
0000043b 00000000*      3273 	.word	.LDW_4b56e70
0000043f 0223           3274 	.byte	2,35
00000441 08             3275 	.byte	8
00000442 01             3276 	.byte	1
                        3277 
                        3278 .LDW_4bece80:
00000443 23             3279 	.byte	35
00000444 6800           3280 	.strz	"h"
00000446 28             3281 	.byte	40
00000447 0c             3282 	.byte	12
00000448 06             3283 	.byte	6
00000449 00000000*      3284 	.word	.LDW_4b56ef8
0000044d 0323           3285 	.byte	3,35
0000044f 8802           3286 	.byte	136,2
00000451 01             3287 	.byte	1
                        3288 
00000452 00             3289 	.byte	0
                        3290 
                        3291 .LDW_4b78c80:
00000453 28             3292 	.byte	40
00000454 736861353132   3293 	.strz	"sha512_ctx"
0000045a 5f63747800 
0000045f 29             3294 	.byte	41
00000460 02             3295 	.byte	2
00000461 06             3296 	.byte	6
00000462 00000000*      3297 	.word	.LDW_4b79258
                        3298 
                        3299 .LDW_4bd8688:
00000466 28             3300 	.byte	40
00000467 736861333834   3301 	.strz	"sha384_ctx"
0000046d 5f63747800 
00000472 2b             3302 	.byte	43
00000473 14             3303 	.byte	20
00000474 06             3304 	.byte	6
00000475 00000000*      3305 	.word	.LDW_4b78c80
                        3306 
                        3307 .LDW_4bd7ce8:
00000479 28             3308 	.byte	40
0000047a 736861323234   3309 	.strz	"sha224_ctx"
00000480 5f63747800 
00000485 2c             3310 	.byte	44
00000486 14             3311 	.byte	20
00000487 06             3312 	.byte	6
00000488 00000000*      3313 	.word	.LDW_4b6ef00
                        3314 
                        3315 .LDW_4b309c8:
0000048c 04             3316 	.byte	4
0000048d 736861323234   3317 	.strz	"sha224_h0"

                                                                      Page 59
                                                              C:\Users\nhuliyap\AppData\Local\Temp\gh_0000bnc1.s
00000493 5f683000 
00000497 61             3318 	.byte	97
00000498 08             3319 	.byte	8
00000499 01             3320 	.byte	1
0000049a 00000000*      3321 	.word	.LDW_28abf58
0000049e 01             3322 	.byte	1
0000049f 00             3323 	.byte	0
000004a0 0503           3324 	.byte	5,3
000004a2 00000000*      3325 	.word	_sha224_h0
                        3326 
                        3327 	.section	.debug_abbrev
00000097 04             3328 	.byte	4
00000098 34             3329 	.byte	52
00000099 00             3330 	.byte	0
0000009a 0308           3331 	.byte	3,8
0000009c 3b0f           3332 	.byte	59,15
0000009e 390f           3333 	.byte	57,15
000000a0 3a0f           3334 	.byte	58,15
000000a2 4910           3335 	.byte	73,16
000000a4 3f0c           3336 	.byte	63,12
000000a6 3c0c           3337 	.byte	60,12
000000a8 020a           3338 	.byte	2,10
000000aa 0000           3339 	.byte	0,0
                        3340 
                        3341 	.section	.debug_info
                        3342 .LDW_4b30ad0:
000004a6 04             3343 	.byte	4
000004a7 736861323536   3344 	.strz	"sha256_h0"
000004ad 5f683000 
000004b1 65             3345 	.byte	101
000004b2 08             3346 	.byte	8
000004b3 01             3347 	.byte	1
000004b4 00000000*      3348 	.word	.LDW_28abfe0
000004b8 01             3349 	.byte	1
000004b9 00             3350 	.byte	0
000004ba 0503           3351 	.byte	5,3
000004bc 00000000*      3352 	.word	_sha256_h0
                        3353 
                        3354 .LDW_4b30238:
000004c0 04             3355 	.byte	4
000004c1 736861333834   3356 	.strz	"sha384_h0"
000004c7 5f683000 
000004cb 69             3357 	.byte	105
000004cc 08             3358 	.byte	8
000004cd 01             3359 	.byte	1
000004ce 00000000*      3360 	.word	.LDW_28ac068
000004d2 01             3361 	.byte	1
000004d3 00             3362 	.byte	0
000004d4 0503           3363 	.byte	5,3
000004d6 00000000*      3364 	.word	_sha384_h0
                        3365 
                        3366 .LDW_4b300d8:
000004da 04             3367 	.byte	4
000004db 736861353132   3368 	.strz	"sha512_h0"
000004e1 5f683000 
000004e5 6f             3369 	.byte	111
000004e6 08             3370 	.byte	8
000004e7 01             3371 	.byte	1
000004e8 00000000*      3372 	.word	.LDW_28ac0f0
000004ec 01             3373 	.byte	1
000004ed 00             3374 	.byte	0

                                                                      Page 60
                                                              C:\Users\nhuliyap\AppData\Local\Temp\gh_0000bnc1.s
000004ee 0503           3375 	.byte	5,3
000004f0 00000000*      3376 	.word	_sha512_h0
                        3377 
                        3378 .LDW_4b30b28:
000004f4 04             3379 	.byte	4
000004f5 736861323536   3380 	.strz	"sha256_k"
000004fb 5f6b00 
000004fe 75             3381 	.byte	117
000004ff 08             3382 	.byte	8
00000500 01             3383 	.byte	1
00000501 00000000*      3384 	.word	.LDW_28ac178
00000505 01             3385 	.byte	1
00000506 00             3386 	.byte	0
00000507 0503           3387 	.byte	5,3
00000509 00000000*      3388 	.word	_sha256_k
                        3389 
                        3390 .LDW_4b30ff8:
0000050d 04             3391 	.byte	4
0000050e 736861353132   3392 	.strz	"sha512_k"
00000514 5f6b00 
00000517 8701           3393 	.byte	135,1
00000519 08             3394 	.byte	8
0000051a 01             3395 	.byte	1
0000051b 00000000*      3396 	.word	.LDW_4bee738
0000051f 01             3397 	.byte	1
00000520 00             3398 	.byte	0
00000521 0503           3399 	.byte	5,3
00000523 00000000*      3400 	.word	_sha512_k
                        3401 
                        3402 .LDW_4b758d8:
00000527 16             3403 	.byte	22
00000528 6d656d637079   3404 	.strz	"memcpy"
0000052e 00 
0000052f 4c             3405 	.byte	76
00000530 07             3406 	.byte	7
00000531 02             3407 	.byte	2
00000532 00000000*      3408 	.word	.LDW_2867340
00000536 01             3409 	.byte	1
00000537 00             3410 	.byte	0
00000538 01             3411 	.byte	1
00000539 01             3412 	.byte	1
0000053a 00             3413 	.byte	0
0000053b 01             3414 	.byte	1
                        3415 
                        3416 	.section	.debug_abbrev
000000ac 16             3417 	.byte	22
000000ad 2e             3418 	.byte	46
000000ae 01             3419 	.byte	1
000000af 0308           3420 	.byte	3,8
000000b1 3b0f           3421 	.byte	59,15
000000b3 390f           3422 	.byte	57,15
000000b5 3a0f           3423 	.byte	58,15
000000b7 4910           3424 	.byte	73,16
000000b9 3c0c           3425 	.byte	60,12
000000bb 200b           3426 	.byte	32,11
000000bd 3f0c           3427 	.byte	63,12
000000bf 320b           3428 	.byte	50,11
000000c1 4c0b           3429 	.byte	76,11
000000c3 270c           3430 	.byte	39,12
000000c5 0000           3431 	.byte	0,0
                        3432 

                                                                      Page 61
                                                              C:\Users\nhuliyap\AppData\Local\Temp\gh_0000bnc1.s
                        3433 	.section	.debug_info
0000053c 00             3434 	.byte	0
                        3435 
                        3436 .LDW_4b75ff8:
0000053d 16             3437 	.byte	22
0000053e 6d656d736574   3438 	.strz	"memset"
00000544 00 
00000545 4d             3439 	.byte	77
00000546 07             3440 	.byte	7
00000547 02             3441 	.byte	2
00000548 00000000*      3442 	.word	.LDW_2867340
0000054c 01             3443 	.byte	1
0000054d 00             3444 	.byte	0
0000054e 01             3445 	.byte	1
0000054f 01             3446 	.byte	1
00000550 00             3447 	.byte	0
00000551 01             3448 	.byte	1
                        3449 
00000552 00             3450 	.byte	0
                        3451 
                        3452 .LDW_4b567a0:
00000553 13             3453 	.byte	19
00000554 736861323536   3454 	.strz	"sha256_transf"
0000055a 5f7472616e73 
00000560 6600 
00000562 b101           3455 	.byte	177,1
00000564 06             3456 	.byte	6
00000565 01             3457 	.byte	1
00000566 00000000*      3458 	.word	_sha256_transf
0000056a 00000000*      3459 	.word	___ghs_eofn_sha256_transf
0000056e 0153           3460 	.byte	1,83
00000570 828080c003     3461 	.byte	130,128,128,192,3
00000575 0c             3462 	.byte	12
00000576 03             3463 	.byte	3
00000577 ac02           3464 	.byte	172,2
00000579 00             3465 	.byte	0
0000057a 00             3466 	.byte	0
0000057b 00             3467 	.byte	0
0000057c 01             3468 	.byte	1
0000057d 01             3469 	.byte	1
0000057e 00             3470 	.byte	0
0000057f 01             3471 	.byte	1
                        3472 
                        3473 	.section	.debug_abbrev
000000c7 13             3474 	.byte	19
000000c8 2e             3475 	.byte	46
000000c9 01             3476 	.byte	1
000000ca 0308           3477 	.byte	3,8
000000cc 3b0f           3478 	.byte	59,15
000000ce 390f           3479 	.byte	57,15
000000d0 3a0f           3480 	.byte	58,15
000000d2 1101           3481 	.byte	17,1
000000d4 1201           3482 	.byte	18,1
000000d6 400a           3483 	.byte	64,10
000000d8 8341           3484 	.byte	131,65
000000da 0f             3485 	.byte	15
000000db 8741           3486 	.byte	135,65
000000dd 0d             3487 	.byte	13
000000de 8541           3488 	.byte	133,65
000000e0 0f             3489 	.byte	15
000000e1 8641           3490 	.byte	134,65

                                                                      Page 62
                                                              C:\Users\nhuliyap\AppData\Local\Temp\gh_0000bnc1.s
000000e3 0d             3491 	.byte	13
000000e4 9241           3492 	.byte	146,65
000000e6 0f             3493 	.byte	15
000000e7 3c0c           3494 	.byte	60,12
000000e9 200b           3495 	.byte	32,11
000000eb 3f0c           3496 	.byte	63,12
000000ed 320b           3497 	.byte	50,11
000000ef 4c0b           3498 	.byte	76,11
000000f1 270c           3499 	.byte	39,12
000000f3 0000           3500 	.byte	0,0
                        3501 
                        3502 	.section	.debug_frame
                        3503 .LDW_4cddb38:
00000090 00000000*      3504 	.word	.LDW_unq_4-.LDW_unq_3
                        3505 .LDW_unq_3:
00000094 00000000*      3506 	.word	.LDW_4b9d680
00000098 00000000*      3507 	.word	_sha256_transf
0000009c 00000000*      3508 	.word	___ghs_eofn_sha256_transf-_sha256_transf
000000a0 44             3509 	.byte	68
000000a1 9d             3510 	.byte	157
000000a2 5d             3511 	.byte	93
000000a3 40             3512 	.byte	64
000000a4 9c             3513 	.byte	156
000000a5 61             3514 	.byte	97
000000a6 40             3515 	.byte	64
000000a7 9b             3516 	.byte	155
000000a8 65             3517 	.byte	101
000000a9 01             3518 	.byte	1
000000aa 00000000*      3519 	.word	.LDW11
000000ae 00             3520 	.byte	0
000000af 00             3521 	.byte	0
                        3522 .LDW_unq_4:
                        3523 	.section	.debug_line
000001ed 000502         3524 	.byte	0,5,2
000001f0 00000000*      3525 	.word	_sha256_transf
000001f4 03             3526 	.byte	3
000001f5 b201           3527 	.byte	178,1
000001f7 02             3528 	.byte	2
000001f8 00             3529 	.byte	0
000001f9 01             3530 	.byte	1
000001fa 06             3531 	.byte	6
000001fb 03             3532 	.byte	3
000001fc 0b             3533 	.byte	11
000001fd 02             3534 	.byte	2
000001fe 0e             3535 	.byte	14
000001ff 01             3536 	.byte	1
00000200 02             3537 	.byte	2
00000201 02             3538 	.byte	2
00000202 000502         3539 	.byte	0,5,2
00000205 00000000*      3540 	.word	.LDWlin1
00000209 0b             3541 	.byte	11
0000020a 25             3542 	.byte	37
0000020b 02             3543 	.byte	2
0000020c 02             3544 	.byte	2
0000020d 0b             3545 	.byte	11
0000020e 03             3546 	.byte	3
0000020f 7f             3547 	.byte	127
00000210 02             3548 	.byte	2
00000211 1e             3549 	.byte	30
00000212 01             3550 	.byte	1
00000213 000502         3551 	.byte	0,5,2

                                                                      Page 63
                                                              C:\Users\nhuliyap\AppData\Local\Temp\gh_0000bnc1.s
00000216 00000000*      3552 	.word	.LDWlin2
0000021a 0c             3553 	.byte	12
0000021b 0c             3554 	.byte	12
0000021c 02             3555 	.byte	2
0000021d 04             3556 	.byte	4
0000021e 0b             3557 	.byte	11
0000021f 03             3558 	.byte	3
00000220 7f             3559 	.byte	127
00000221 02             3560 	.byte	2
00000222 34             3561 	.byte	52
00000223 01             3562 	.byte	1
00000224 000502         3563 	.byte	0,5,2
00000227 00000000*      3564 	.word	.LDWlin3
0000022b 0c             3565 	.byte	12
0000022c 0c             3566 	.byte	12
0000022d 02             3567 	.byte	2
0000022e 02             3568 	.byte	2
0000022f 0b             3569 	.byte	11
00000230 03             3570 	.byte	3
00000231 7f             3571 	.byte	127
00000232 02             3572 	.byte	2
00000233 0e             3573 	.byte	14
00000234 01             3574 	.byte	1
00000235 000502         3575 	.byte	0,5,2
00000238 00000000*      3576 	.word	.LDWlin4
0000023c 0c             3577 	.byte	12
0000023d 0c             3578 	.byte	12
0000023e 02             3579 	.byte	2
0000023f 02             3580 	.byte	2
00000240 0b             3581 	.byte	11
00000241 000502         3582 	.byte	0,5,2
00000244 00000000*      3583 	.word	.LDWlin5
00000248 0c             3584 	.byte	12
00000249 3b             3585 	.byte	59
0000024a 45             3586 	.byte	69
0000024b 03             3587 	.byte	3
0000024c 04             3588 	.byte	4
0000024d 02             3589 	.byte	2
0000024e 14             3590 	.byte	20
0000024f 01             3591 	.byte	1
00000250 03             3592 	.byte	3
00000251 75             3593 	.byte	117
00000252 02             3594 	.byte	2
00000253 02             3595 	.byte	2
00000254 01             3596 	.byte	1
00000255 03             3597 	.byte	3
00000256 05             3598 	.byte	5
00000257 02             3599 	.byte	2
00000258 02             3600 	.byte	2
00000259 01             3601 	.byte	1
0000025a 13             3602 	.byte	19
0000025b 1c             3603 	.byte	28
0000025c 13             3604 	.byte	19
0000025d 13             3605 	.byte	19
0000025e 000502         3606 	.byte	0,5,2
00000261 00000000*      3607 	.word	.LDWlin6
00000265 0c             3608 	.byte	12
00000266 0c             3609 	.byte	12
00000267 02             3610 	.byte	2
00000268 02             3611 	.byte	2
00000269 0b             3612 	.byte	11

                                                                      Page 64
                                                              C:\Users\nhuliyap\AppData\Local\Temp\gh_0000bnc1.s
0000026a 03             3613 	.byte	3
0000026b 7f             3614 	.byte	127
0000026c 02             3615 	.byte	2
0000026d 10             3616 	.byte	16
0000026e 01             3617 	.byte	1
0000026f 000502         3618 	.byte	0,5,2
00000272 00000000*      3619 	.word	.LDWlin7
00000276 0c             3620 	.byte	12
00000277 03             3621 	.byte	3
00000278 60             3622 	.byte	96
00000279 02             3623 	.byte	2
0000027a 00             3624 	.byte	0
0000027b 01             3625 	.byte	1
0000027c 000502         3626 	.byte	0,5,2
0000027f 00000000*      3627 	.word	.LDWlin8
00000283 03             3628 	.byte	3
00000284 e300           3629 	.byte	227,0
00000286 02             3630 	.byte	2
00000287 00             3631 	.byte	0
00000288 01             3632 	.byte	1
00000289 0b             3633 	.byte	11
0000028a 02             3634 	.byte	2
0000028b 08             3635 	.byte	8
0000028c 000101         3636 	.byte	0,1,1
                        3637 	.section	.debug_info
                        3638 .LDW_4b6efb0:
00000580 0f             3639 	.byte	15
00000581 63747800       3640 	.strz	"ctx"
00000585 b101           3641 	.byte	177,1
00000587 20             3642 	.byte	32
00000588 01             3643 	.byte	1
00000589 00000000*      3644 	.word	.LDW_2867458
0000058d 00             3645 	.byte	0
0000058e 016d           3646 	.byte	1,109
                        3647 
                        3648 	.section	.debug_abbrev
000000f5 0f             3649 	.byte	15
000000f6 05             3650 	.byte	5
000000f7 00             3651 	.byte	0
000000f8 0308           3652 	.byte	3,8
000000fa 3b0f           3653 	.byte	59,15
000000fc 390f           3654 	.byte	57,15
000000fe 3a0f           3655 	.byte	58,15
00000100 4910           3656 	.byte	73,16
00000102 4b0c           3657 	.byte	75,12
00000104 020a           3658 	.byte	2,10
00000106 0000           3659 	.byte	0,0
                        3660 
                        3661 	.section	.debug_info
                        3662 .LDW_4b6edf8:
00000590 0f             3663 	.byte	15
00000591 6d6573736167   3664 	.strz	"message"
00000597 6500 
00000599 b101           3665 	.byte	177,1
0000059b 3a             3666 	.byte	58
0000059c 01             3667 	.byte	1
0000059d 00000000*      3668 	.word	.LDW_2866f50
000005a1 00             3669 	.byte	0
000005a2 016c           3670 	.byte	1,108
                        3671 
                        3672 .LDW_4b6ecf0:

                                                                      Page 65
                                                              C:\Users\nhuliyap\AppData\Local\Temp\gh_0000bnc1.s
000005a4 0f             3673 	.byte	15
000005a5 626c6f636b5f   3674 	.strz	"block_nb"
000005ab 6e6200 
000005ae b201           3675 	.byte	178,1
000005b0 21             3676 	.byte	33
000005b1 01             3677 	.byte	1
000005b2 00000000*      3678 	.word	.LDW_2866d90
000005b6 00             3679 	.byte	0
000005b7 016b           3680 	.byte	1,107
                        3681 
                        3682 .LDW_4b73678:
000005b9 1d             3683 	.byte	29
000005ba 00000000*      3684 	.word	.LDW01
000005be 00000000*      3685 	.word	.LDW11
                        3686 
                        3687 	.section	.debug_abbrev
00000108 1d             3688 	.byte	29
00000109 0b             3689 	.byte	11
0000010a 01             3690 	.byte	1
0000010b 1101           3691 	.byte	17,1
0000010d 1201           3692 	.byte	18,1
0000010f 0000           3693 	.byte	0,0
                        3694 
                        3695 	.section	.debug_info
                        3696 .LDW_4b6f060:
000005c2 04             3697 	.byte	4
000005c3 7700           3698 	.strz	"w"
000005c5 b401           3699 	.byte	180,1
000005c7 0c             3700 	.byte	12
000005c8 01             3701 	.byte	1
000005c9 00000000*      3702 	.word	.LDW_28adee0
000005cd 00             3703 	.byte	0
000005ce 00             3704 	.byte	0
000005cf 0273           3705 	.byte	2,115
000005d1 20             3706 	.byte	32
                        3707 
                        3708 .LDW_4b6e878:
000005d2 04             3709 	.byte	4
000005d3 777600         3710 	.strz	"wv"
000005d6 b501           3711 	.byte	181,1
000005d8 0c             3712 	.byte	12
000005d9 01             3713 	.byte	1
000005da 00000000*      3714 	.word	.LDW_4b56838
000005de 00             3715 	.byte	0
000005df 00             3716 	.byte	0
000005e0 0273           3717 	.byte	2,115
000005e2 00             3718 	.byte	0
                        3719 
                        3720 .LDW_4b6ee50:
000005e3 04             3721 	.byte	4
000005e4 743100         3722 	.strz	"t1"
000005e7 b601           3723 	.byte	182,1
000005e9 0c             3724 	.byte	12
000005ea 01             3725 	.byte	1
000005eb 00000000*      3726 	.word	.LDW_4b6ed48
000005ef 00             3727 	.byte	0
000005f0 00             3728 	.byte	0
000005f1 015f           3729 	.byte	1,95
                        3730 
                        3731 .LDW_4b6f1c0:
000005f3 05             3732 	.byte	5

                                                                      Page 66
                                                              C:\Users\nhuliyap\AppData\Local\Temp\gh_0000bnc1.s
000005f4 743200         3733 	.strz	"t2"
000005f7 b601           3734 	.byte	182,1
000005f9 10             3735 	.byte	16
000005fa 01             3736 	.byte	1
000005fb 00000000*      3737 	.word	.LDW_4b6ed48
000005ff 00             3738 	.byte	0
00000600 00             3739 	.byte	0
                        3740 
                        3741 	.section	.debug_abbrev
00000111 05             3742 	.byte	5
00000112 34             3743 	.byte	52
00000113 00             3744 	.byte	0
00000114 0308           3745 	.byte	3,8
00000116 3b0f           3746 	.byte	59,15
00000118 390f           3747 	.byte	57,15
0000011a 3a0f           3748 	.byte	58,15
0000011c 4910           3749 	.byte	73,16
0000011e 3f0c           3750 	.byte	63,12
00000120 3c0c           3751 	.byte	60,12
00000122 0000           3752 	.byte	0,0
                        3753 
                        3754 	.section	.debug_info
                        3755 .LDW_4b6f008:
00000601 04             3756 	.byte	4
00000602 7375625f626c   3757 	.strz	"sub_block"
00000608 6f636b00 
0000060c b701           3758 	.byte	183,1
0000060e 1a             3759 	.byte	26
0000060f 01             3760 	.byte	1
00000610 00000000*      3761 	.word	.LDW_2866f50
00000614 00             3762 	.byte	0
00000615 00             3763 	.byte	0
00000616 015a           3764 	.byte	1,90
                        3765 
                        3766 .LDW_4b6f218:
00000618 04             3767 	.byte	4
00000619 6900           3768 	.strz	"i"
0000061b b801           3769 	.byte	184,1
0000061d 09             3770 	.byte	9
0000061e 01             3771 	.byte	1
0000061f 00000000*      3772 	.word	.LDW_2867068
00000623 00             3773 	.byte	0
00000624 00             3774 	.byte	0
00000625 0151           3775 	.byte	1,81
                        3776 
                        3777 .LDW_4b6e980:
00000627 04             3778 	.byte	4
00000628 6a00           3779 	.strz	"j"
0000062a bb01           3780 	.byte	187,1
0000062c 09             3781 	.byte	9
0000062d 01             3782 	.byte	1
0000062e 00000000*      3783 	.word	.LDW_2867068
00000632 00             3784 	.byte	0
00000633 00             3785 	.byte	0
00000634 0162           3786 	.byte	1,98
                        3787 
00000636 00             3788 	.byte	0
                        3789 
00000637 00             3790 	.byte	0
                        3791 
                        3792 .LDW_4b568c0:

                                                                      Page 67
                                                              C:\Users\nhuliyap\AppData\Local\Temp\gh_0000bnc1.s
00000638 13             3793 	.byte	19
00000639 736861323536   3794 	.strz	"sha256"
0000063f 00 
00000640 a402           3795 	.byte	164,2
00000642 06             3796 	.byte	6
00000643 01             3797 	.byte	1
00000644 00000000*      3798 	.word	_sha256
00000648 00000000*      3799 	.word	___ghs_eofn_sha256
0000064c 0153           3800 	.byte	1,83
0000064e 828080c00a     3801 	.byte	130,128,128,192,10
00000653 10             3802 	.byte	16
00000654 03             3803 	.byte	3
00000655 b801           3804 	.byte	184,1
00000657 00             3805 	.byte	0
00000658 00             3806 	.byte	0
00000659 00             3807 	.byte	0
0000065a 01             3808 	.byte	1
0000065b 01             3809 	.byte	1
0000065c 00             3810 	.byte	0
0000065d 01             3811 	.byte	1
                        3812 
                        3813 	.section	.debug_frame
                        3814 .LDW_4cb7b08:
000000b0 00000000*      3815 	.word	.LDW_unq_6-.LDW_unq_5
                        3816 .LDW_unq_5:
000000b4 00000000*      3817 	.word	.LDW_4b9d680
000000b8 00000000*      3818 	.word	_sha256
000000bc 00000000*      3819 	.word	___ghs_eofn_sha256-_sha256
000000c0 44             3820 	.byte	68
000000c1 9f             3821 	.byte	159
000000c2 61             3822 	.byte	97
000000c3 40             3823 	.byte	64
000000c4 9d             3824 	.byte	157
000000c5 65             3825 	.byte	101
000000c6 40             3826 	.byte	64
000000c7 9b             3827 	.byte	155
000000c8 69             3828 	.byte	105
000000c9 01             3829 	.byte	1
000000ca 00000000*      3830 	.word	.LDW91
000000ce 44             3831 	.byte	68
000000cf df             3832 	.byte	223
000000d0 40             3833 	.byte	64
000000d1 dd             3834 	.byte	221
000000d2 40             3835 	.byte	64
000000d3 db             3836 	.byte	219
                        3837 .LDW_unq_6:
                        3838 	.section	.debug_line
0000028f 000502         3839 	.byte	0,5,2
00000292 00000000*      3840 	.word	_sha256
00000296 03             3841 	.byte	3
00000297 a402           3842 	.byte	164,2
00000299 02             3843 	.byte	2
0000029a 00             3844 	.byte	0
0000029b 01             3845 	.byte	1
0000029c 06             3846 	.byte	6
0000029d 3d             3847 	.byte	61
0000029e 000502         3848 	.byte	0,5,2
000002a1 00000000*      3849 	.word	.LDWlin20
000002a5 0b             3850 	.byte	11
000002a6 000502         3851 	.byte	0,5,2
000002a9 00000000*      3852 	.word	.LDWlin21

                                                                      Page 68
                                                              C:\Users\nhuliyap\AppData\Local\Temp\gh_0000bnc1.s
000002ad 0b             3853 	.byte	11
000002ae 000502         3854 	.byte	0,5,2
000002b1 00000000*      3855 	.word	.LDWlin22
000002b5 0b             3856 	.byte	11
000002b6 02             3857 	.byte	2
000002b7 08             3858 	.byte	8
000002b8 000101         3859 	.byte	0,1,1
                        3860 	.section	.debug_info
                        3861 .LDW_4b6f270:
0000065e 0f             3862 	.byte	15
0000065f 6d6573736167   3863 	.strz	"message"
00000665 6500 
00000667 a402           3864 	.byte	164,2
00000669 22             3865 	.byte	34
0000066a 01             3866 	.byte	1
0000066b 00000000*      3867 	.word	.LDW_2866f50
0000066f 00             3868 	.byte	0
00000670 016d           3869 	.byte	1,109
                        3870 
                        3871 .LDW_4b6eea8:
00000672 0f             3872 	.byte	15
00000673 6c656e00       3873 	.strz	"len"
00000677 a402           3874 	.byte	164,2
00000679 38             3875 	.byte	56
0000067a 01             3876 	.byte	1
0000067b 00000000*      3877 	.word	.LDW_2866d90
0000067f 00             3878 	.byte	0
00000680 016c           3879 	.byte	1,108
                        3880 
                        3881 .LDW_4b6e9d8:
00000682 0f             3882 	.byte	15
00000683 646967657374   3883 	.strz	"digest"
00000689 00 
0000068a a402           3884 	.byte	164,2
0000068c 4c             3885 	.byte	76
0000068d 01             3886 	.byte	1
0000068e 00000000*      3887 	.word	.LDW_28aba48
00000692 00             3888 	.byte	0
00000693 016b           3889 	.byte	1,107
                        3890 
                        3891 .LDW_4b73798:
00000695 1d             3892 	.byte	29
00000696 00000000*      3893 	.word	.LDW81
0000069a 00000000*      3894 	.word	.LDW91
                        3895 
                        3896 .LDW_4b6e8d0:
0000069e 04             3897 	.byte	4
0000069f 63747800       3898 	.strz	"ctx"
000006a3 a602           3899 	.byte	166,2
000006a5 10             3900 	.byte	16
000006a6 01             3901 	.byte	1
000006a7 00000000*      3902 	.word	.LDW_4b6ef00
000006ab 00             3903 	.byte	0
000006ac 00             3904 	.byte	0
000006ad 0273           3905 	.byte	2,115
000006af 00             3906 	.byte	0
                        3907 
000006b0 00             3908 	.byte	0
                        3909 
000006b1 00             3910 	.byte	0
                        3911 

                                                                      Page 69
                                                              C:\Users\nhuliyap\AppData\Local\Temp\gh_0000bnc1.s
                        3912 .LDW_4b56958:
000006b2 13             3913 	.byte	19
000006b3 736861323536   3914 	.strz	"sha256_init"
000006b9 5f696e697400 
000006bf ad02           3915 	.byte	173,2
000006c1 06             3916 	.byte	6
000006c2 01             3917 	.byte	1
000006c3 00000000*      3918 	.word	_sha256_init
000006c7 00000000*      3919 	.word	___ghs_eofn_sha256_init
000006cb 0153           3920 	.byte	1,83
000006cd 02             3921 	.byte	2
000006ce 00             3922 	.byte	0
000006cf 02             3923 	.byte	2
000006d0 00             3924 	.byte	0
000006d1 00             3925 	.byte	0
000006d2 00             3926 	.byte	0
000006d3 00             3927 	.byte	0
000006d4 01             3928 	.byte	1
000006d5 01             3929 	.byte	1
000006d6 00             3930 	.byte	0
000006d7 01             3931 	.byte	1
                        3932 
                        3933 	.section	.debug_frame
                        3934 .LDW_4cda110:
000000d4 00000000*      3935 	.word	.LDW_unq_8-.LDW_unq_7
                        3936 .LDW_unq_7:
000000d8 00000000*      3937 	.word	.LDW_4b9d680
000000dc 00000000*      3938 	.word	_sha256_init
000000e0 00000000*      3939 	.word	___ghs_eofn_sha256_init-_sha256_init
000000e4 01             3940 	.byte	1
000000e5 00000000*      3941 	.word	.LDW31
000000e9 00             3942 	.byte	0
000000ea 00             3943 	.byte	0
000000eb 00             3944 	.byte	0
                        3945 .LDW_unq_8:
                        3946 	.section	.debug_line
000002bb 000502         3947 	.byte	0,5,2
000002be 00000000*      3948 	.word	_sha256_init
000002c2 06             3949 	.byte	6
000002c3 03             3950 	.byte	3
000002c4 b002           3951 	.byte	176,2
000002c6 02             3952 	.byte	2
000002c7 00             3953 	.byte	0
000002c8 01             3954 	.byte	1
000002c9 02             3955 	.byte	2
000002ca 02             3956 	.byte	2
000002cb 0b             3957 	.byte	11
000002cc 000502         3958 	.byte	0,5,2
000002cf 00000000*      3959 	.word	.LDWlin9
000002d3 03             3960 	.byte	3
000002d4 7f             3961 	.byte	127
000002d5 02             3962 	.byte	2
000002d6 00             3963 	.byte	0
000002d7 01             3964 	.byte	1
000002d8 000502         3965 	.byte	0,5,2
000002db 00000000*      3966 	.word	.LDWlin10
000002df 0c             3967 	.byte	12
000002e0 03             3968 	.byte	3
000002e1 08             3969 	.byte	8
000002e2 02             3970 	.byte	2
000002e3 00             3971 	.byte	0

                                                                      Page 70
                                                              C:\Users\nhuliyap\AppData\Local\Temp\gh_0000bnc1.s
000002e4 01             3972 	.byte	1
000002e5 1b             3973 	.byte	27
000002e6 13             3974 	.byte	19
000002e7 02             3975 	.byte	2
000002e8 02             3976 	.byte	2
000002e9 000101         3977 	.byte	0,1,1
                        3978 	.section	.debug_info
                        3979 .LDW_4b6ea30:
000006d8 0f             3980 	.byte	15
000006d9 63747800       3981 	.strz	"ctx"
000006dd ad02           3982 	.byte	173,2
000006df 1e             3983 	.byte	30
000006e0 01             3984 	.byte	1
000006e1 00000000*      3985 	.word	.LDW_2867458
000006e5 00             3986 	.byte	0
000006e6 0156           3987 	.byte	1,86
                        3988 
                        3989 .LDW_4b72c58:
000006e8 1d             3990 	.byte	29
000006e9 00000000*      3991 	.word	.LDW21
000006ed 00000000*      3992 	.word	.LDW31
                        3993 
                        3994 .LDW_4b79570:
000006f1 04             3995 	.byte	4
000006f2 6900           3996 	.strz	"i"
000006f4 b002           3997 	.byte	176,2
000006f6 09             3998 	.byte	9
000006f7 01             3999 	.byte	1
000006f8 00000000*      4000 	.word	.LDW_2867068
000006fc 00             4001 	.byte	0
000006fd 00             4002 	.byte	0
000006fe 0161           4003 	.byte	1,97
                        4004 
00000700 00             4005 	.byte	0
                        4006 
00000701 00             4007 	.byte	0
                        4008 
                        4009 .LDW_4b569f0:
00000702 13             4010 	.byte	19
00000703 736861323536   4011 	.strz	"sha256_update"
00000709 5f7570646174 
0000070f 6500 
00000711 bf02           4012 	.byte	191,2
00000713 06             4013 	.byte	6
00000714 01             4014 	.byte	1
00000715 00000000*      4015 	.word	_sha256_update
00000719 00000000*      4016 	.word	___ghs_eofn_sha256_update
0000071d 0153           4017 	.byte	1,83
0000071f 828080f80b     4018 	.byte	130,128,128,248,11
00000724 1c             4019 	.byte	28
00000725 03             4020 	.byte	3
00000726 1c             4021 	.byte	28
00000727 00             4022 	.byte	0
00000728 00             4023 	.byte	0
00000729 00             4024 	.byte	0
0000072a 01             4025 	.byte	1
0000072b 01             4026 	.byte	1
0000072c 00             4027 	.byte	0
0000072d 01             4028 	.byte	1
                        4029 
                        4030 	.section	.debug_frame

                                                                      Page 71
                                                              C:\Users\nhuliyap\AppData\Local\Temp\gh_0000bnc1.s
                        4031 .LDW_4cb7c08:
000000ec 00000000*      4032 	.word	.LDW_unq_a-.LDW_unq_9
                        4033 .LDW_unq_9:
000000f0 00000000*      4034 	.word	.LDW_4b9d680
000000f4 00000000*      4035 	.word	_sha256_update
000000f8 00000000*      4036 	.word	___ghs_eofn_sha256_update-_sha256_update
000000fc 44             4037 	.byte	68
000000fd 9f             4038 	.byte	159
000000fe 00             4039 	.byte	0
000000ff 40             4040 	.byte	64
00000100 9d             4041 	.byte	157
00000101 04             4042 	.byte	4
00000102 40             4043 	.byte	64
00000103 9c             4044 	.byte	156
00000104 08             4045 	.byte	8
00000105 40             4046 	.byte	64
00000106 9b             4047 	.byte	155
00000107 0c             4048 	.byte	12
00000108 40             4049 	.byte	64
00000109 9a             4050 	.byte	154
0000010a 10             4051 	.byte	16
0000010b 40             4052 	.byte	64
0000010c 99             4053 	.byte	153
0000010d 14             4054 	.byte	20
0000010e 40             4055 	.byte	64
0000010f 98             4056 	.byte	152
00000110 18             4057 	.byte	24
00000111 01             4058 	.byte	1
00000112 00000000*      4059 	.word	.LDW51
00000116 00             4060 	.byte	0
00000117 00             4061 	.byte	0
                        4062 .LDW_unq_a:
                        4063 	.section	.debug_line
000002ec 000502         4064 	.byte	0,5,2
000002ef 00000000*      4065 	.word	_sha256_update
000002f3 03             4066 	.byte	3
000002f4 c002           4067 	.byte	192,2
000002f6 02             4068 	.byte	2
000002f7 00             4069 	.byte	0
000002f8 01             4070 	.byte	1
000002f9 06             4071 	.byte	6
000002fa 03             4072 	.byte	3
000002fb 06             4073 	.byte	6
000002fc 02             4074 	.byte	2
000002fd 0a             4075 	.byte	10
000002fe 01             4076 	.byte	1
000002ff 4c             4077 	.byte	76
00000300 000502         4078 	.byte	0,5,2
00000303 00000000*      4079 	.word	.LDWlin11
00000307 0c             4080 	.byte	12
00000308 000502         4081 	.byte	0,5,2
0000030b 00000000*      4082 	.word	.LDWlin12
0000030f 02             4083 	.byte	2
00000310 00             4084 	.byte	0
00000311 0b             4085 	.byte	11
00000312 1b             4086 	.byte	27
00000313 000502         4087 	.byte	0,5,2
00000316 00000000*      4088 	.word	.LDWlin13
0000031a 0b             4089 	.byte	11
0000031b 02             4090 	.byte	2
0000031c 00             4091 	.byte	0

                                                                      Page 72
                                                              C:\Users\nhuliyap\AppData\Local\Temp\gh_0000bnc1.s
0000031d 0c             4092 	.byte	12
0000031e 13             4093 	.byte	19
0000031f 1c             4094 	.byte	28
00000320 14             4095 	.byte	20
00000321 000502         4096 	.byte	0,5,2
00000324 00000000*      4097 	.word	.LDWlin14
00000328 0b             4098 	.byte	11
00000329 000502         4099 	.byte	0,5,2
0000032c 00000000*      4100 	.word	.LDWlin15
00000330 03             4101 	.byte	3
00000331 04             4102 	.byte	4
00000332 02             4103 	.byte	2
00000333 00             4104 	.byte	0
00000334 01             4105 	.byte	1
00000335 03             4106 	.byte	3
00000336 7e             4107 	.byte	126
00000337 02             4108 	.byte	2
00000338 02             4109 	.byte	2
00000339 01             4110 	.byte	1
0000033a 000502         4111 	.byte	0,5,2
0000033d 00000000*      4112 	.word	.LDWlin16
00000341 03             4113 	.byte	3
00000342 05             4114 	.byte	5
00000343 02             4115 	.byte	2
00000344 00             4116 	.byte	0
00000345 01             4117 	.byte	1
00000346 13             4118 	.byte	19
00000347 43             4119 	.byte	67
00000348 02             4120 	.byte	2
00000349 04             4121 	.byte	4
0000034a 000101         4122 	.byte	0,1,1
                        4123 	.section	.debug_info
                        4124 .LDW_4b79360:
0000072e 0f             4125 	.byte	15
0000072f 63747800       4126 	.strz	"ctx"
00000733 bf02           4127 	.byte	191,2
00000735 20             4128 	.byte	32
00000736 01             4129 	.byte	1
00000737 00000000*      4130 	.word	.LDW_2867458
0000073b 00             4131 	.byte	0
0000073c 016d           4132 	.byte	1,109
                        4133 
                        4134 .LDW_4b793b8:
0000073e 0f             4135 	.byte	15
0000073f 6d6573736167   4136 	.strz	"message"
00000745 6500 
00000747 bf02           4137 	.byte	191,2
00000749 3a             4138 	.byte	58
0000074a 01             4139 	.byte	1
0000074b 00000000*      4140 	.word	.LDW_2866f50
0000074f 00             4141 	.byte	0
00000750 0168           4142 	.byte	1,104
                        4143 
                        4144 .LDW_4b79728:
00000752 0f             4145 	.byte	15
00000753 6c656e00       4146 	.strz	"len"
00000757 c002           4147 	.byte	192,2
00000759 21             4148 	.byte	33
0000075a 01             4149 	.byte	1
0000075b 00000000*      4150 	.word	.LDW_2866d90
0000075f 00             4151 	.byte	0

                                                                      Page 73
                                                              C:\Users\nhuliyap\AppData\Local\Temp\gh_0000bnc1.s
00000760 016c           4152 	.byte	1,108
                        4153 
                        4154 .LDW_4b72d18:
00000762 1d             4155 	.byte	29
00000763 00000000*      4156 	.word	.LDW41
00000767 00000000*      4157 	.word	.LDW51
                        4158 
                        4159 .LDW_4b79468:
0000076b 04             4160 	.byte	4
0000076c 626c6f636b5f   4161 	.strz	"block_nb"
00000772 6e6200 
00000775 c202           4162 	.byte	194,2
00000777 12             4163 	.byte	18
00000778 01             4164 	.byte	1
00000779 00000000*      4165 	.word	.LDW_2866d90
0000077d 00             4166 	.byte	0
0000077e 00             4167 	.byte	0
0000077f 016b           4168 	.byte	1,107
                        4169 
                        4170 .LDW_4b79518:
00000781 05             4171 	.byte	5
00000782 6e65775f6c65   4172 	.strz	"new_len"
00000788 6e00 
0000078a c302           4173 	.byte	195,2
0000078c 12             4174 	.byte	18
0000078d 01             4175 	.byte	1
0000078e 00000000*      4176 	.word	.LDW_2866d90
00000792 00             4177 	.byte	0
00000793 00             4178 	.byte	0
                        4179 
                        4180 .LDW_4b794c0:
00000794 04             4181 	.byte	4
00000795 72656d5f6c65   4182 	.strz	"rem_len"
0000079b 6e00 
0000079d c302           4183 	.byte	195,2
0000079f 1b             4184 	.byte	27
000007a0 01             4185 	.byte	1
000007a1 00000000*      4186 	.word	.LDW_2866d90
000007a5 00             4187 	.byte	0
000007a6 00             4188 	.byte	0
000007a7 016a           4189 	.byte	1,106
                        4190 
                        4191 .LDW_4b79780:
000007a9 05             4192 	.byte	5
000007aa 746d705f6c65   4193 	.strz	"tmp_len"
000007b0 6e00 
000007b2 c302           4194 	.byte	195,2
000007b4 24             4195 	.byte	36
000007b5 01             4196 	.byte	1
000007b6 00000000*      4197 	.word	.LDW_2866d90
000007ba 00             4198 	.byte	0
000007bb 00             4199 	.byte	0
                        4200 
                        4201 .LDW_4b79410:
000007bc 04             4202 	.byte	4
000007bd 736869667465   4203 	.strz	"shifted_message"
000007c3 645f6d657373 
000007c9 61676500 
000007cd c402           4204 	.byte	196,2
000007cf 1a             4205 	.byte	26
000007d0 01             4206 	.byte	1

                                                                      Page 74
                                                              C:\Users\nhuliyap\AppData\Local\Temp\gh_0000bnc1.s
000007d1 00000000*      4207 	.word	.LDW_2866f50
000007d5 00             4208 	.byte	0
000007d6 00             4209 	.byte	0
000007d7 0169           4210 	.byte	1,105
                        4211 
000007d9 00             4212 	.byte	0
                        4213 
000007da 00             4214 	.byte	0
                        4215 
                        4216 .LDW_4b56a88:
000007db 13             4217 	.byte	19
000007dc 736861323536   4218 	.strz	"sha256_final"
000007e2 5f66696e616c 
000007e8 00 
000007e9 e102           4219 	.byte	225,2
000007eb 06             4220 	.byte	6
000007ec 01             4221 	.byte	1
000007ed 00000000*      4222 	.word	_sha256_final
000007f1 00000000*      4223 	.word	___ghs_eofn_sha256_final
000007f5 0153           4224 	.byte	1,83
000007f7 828080f80b     4225 	.byte	130,128,128,248,11
000007fc 1c             4226 	.byte	28
000007fd 03             4227 	.byte	3
000007fe 1c             4228 	.byte	28
000007ff 00             4229 	.byte	0
00000800 00             4230 	.byte	0
00000801 00             4231 	.byte	0
00000802 01             4232 	.byte	1
00000803 01             4233 	.byte	1
00000804 00             4234 	.byte	0
00000805 01             4235 	.byte	1
                        4236 
                        4237 	.section	.debug_frame
                        4238 .LDW_4cb7788:
00000118 00000000*      4239 	.word	.LDW_unq_c-.LDW_unq_b
                        4240 .LDW_unq_b:
0000011c 00000000*      4241 	.word	.LDW_4b9d680
00000120 00000000*      4242 	.word	_sha256_final
00000124 00000000*      4243 	.word	___ghs_eofn_sha256_final-_sha256_final
00000128 44             4244 	.byte	68
00000129 9f             4245 	.byte	159
0000012a 00             4246 	.byte	0
0000012b 40             4247 	.byte	64
0000012c 9d             4248 	.byte	157
0000012d 04             4249 	.byte	4
0000012e 40             4250 	.byte	64
0000012f 9c             4251 	.byte	156
00000130 08             4252 	.byte	8
00000131 40             4253 	.byte	64
00000132 9b             4254 	.byte	155
00000133 0c             4255 	.byte	12
00000134 40             4256 	.byte	64
00000135 9a             4257 	.byte	154
00000136 10             4258 	.byte	16
00000137 40             4259 	.byte	64
00000138 99             4260 	.byte	153
00000139 14             4261 	.byte	20
0000013a 40             4262 	.byte	64
0000013b 98             4263 	.byte	152
0000013c 18             4264 	.byte	24
0000013d 01             4265 	.byte	1

                                                                      Page 75
                                                              C:\Users\nhuliyap\AppData\Local\Temp\gh_0000bnc1.s
0000013e 00000000*      4266 	.word	.LDW71
00000142 00             4267 	.byte	0
00000143 00             4268 	.byte	0
                        4269 .LDW_unq_c:
                        4270 	.section	.debug_line
0000034d 000502         4271 	.byte	0,5,2
00000350 00000000*      4272 	.word	_sha256_final
00000354 03             4273 	.byte	3
00000355 e102           4274 	.byte	225,2
00000357 02             4275 	.byte	2
00000358 00             4276 	.byte	0
00000359 01             4277 	.byte	1
0000035a 06             4278 	.byte	6
0000035b 03             4279 	.byte	3
0000035c 09             4280 	.byte	9
0000035d 02             4281 	.byte	2
0000035e 08             4282 	.byte	8
0000035f 01             4283 	.byte	1
00000360 1d             4284 	.byte	29
00000361 53             4285 	.byte	83
00000362 1c             4286 	.byte	28
00000363 000502         4287 	.byte	0,5,2
00000366 00000000*      4288 	.word	.LDWlin17
0000036a 0b             4289 	.byte	11
0000036b 2b             4290 	.byte	43
0000036c 84             4291 	.byte	132
0000036d 000502         4292 	.byte	0,5,2
00000370 00000000*      4293 	.word	.LDWlin18
00000374 0d             4294 	.byte	13
00000375 02             4295 	.byte	2
00000376 02             4296 	.byte	2
00000377 0b             4297 	.byte	11
00000378 03             4298 	.byte	3
00000379 7f             4299 	.byte	127
0000037a 02             4300 	.byte	2
0000037b 0e             4301 	.byte	14
0000037c 01             4302 	.byte	1
0000037d 000502         4303 	.byte	0,5,2
00000380 00000000*      4304 	.word	.LDWlin19
00000384 0c             4305 	.byte	12
00000385 03             4306 	.byte	3
00000386 0b             4307 	.byte	11
00000387 02             4308 	.byte	2
00000388 00             4309 	.byte	0
00000389 01             4310 	.byte	1
0000038a 02             4311 	.byte	2
0000038b 04             4312 	.byte	4
0000038c 000101         4313 	.byte	0,1,1
                        4314 	.section	.debug_info
                        4315 .LDW_4b795c8:
00000806 0f             4316 	.byte	15
00000807 63747800       4317 	.strz	"ctx"
0000080b e102           4318 	.byte	225,2
0000080d 1f             4319 	.byte	31
0000080e 01             4320 	.byte	1
0000080f 00000000*      4321 	.word	.LDW_2867458
00000813 00             4322 	.byte	0
00000814 016b           4323 	.byte	1,107
                        4324 
                        4325 .LDW_4b79620:
00000816 0f             4326 	.byte	15

                                                                      Page 76
                                                              C:\Users\nhuliyap\AppData\Local\Temp\gh_0000bnc1.s
00000817 646967657374   4327 	.strz	"digest"
0000081d 00 
0000081e e102           4328 	.byte	225,2
00000820 33             4329 	.byte	51
00000821 01             4330 	.byte	1
00000822 00000000*      4331 	.word	.LDW_28aba48
00000826 00             4332 	.byte	0
00000827 0168           4333 	.byte	1,104
                        4334 
                        4335 .LDW_4b728c8:
00000829 1d             4336 	.byte	29
0000082a 00000000*      4337 	.word	.LDW61
0000082e 00000000*      4338 	.word	.LDW71
                        4339 
                        4340 .LDW_4b797d8:
00000832 04             4341 	.byte	4
00000833 626c6f636b5f   4342 	.strz	"block_nb"
00000839 6e6200 
0000083c e302           4343 	.byte	227,2
0000083e 12             4344 	.byte	18
0000083f 01             4345 	.byte	1
00000840 00000000*      4346 	.word	.LDW_2866d90
00000844 00             4347 	.byte	0
00000845 00             4348 	.byte	0
00000846 0169           4349 	.byte	1,105
                        4350 
                        4351 .LDW_4b79678:
00000848 05             4352 	.byte	5
00000849 706d5f6c656e   4353 	.strz	"pm_len"
0000084f 00 
00000850 e402           4354 	.byte	228,2
00000852 12             4355 	.byte	18
00000853 01             4356 	.byte	1
00000854 00000000*      4357 	.word	.LDW_2866d90
00000858 00             4358 	.byte	0
00000859 00             4359 	.byte	0
                        4360 
                        4361 .LDW_4b796d0:
0000085a 04             4362 	.byte	4
0000085b 6c656e5f6200   4363 	.strz	"len_b"
00000861 e502           4364 	.byte	229,2
00000863 12             4365 	.byte	18
00000864 01             4366 	.byte	1
00000865 00000000*      4367 	.word	.LDW_2866d90
00000869 00             4368 	.byte	0
0000086a 00             4369 	.byte	0
0000086b 016d           4370 	.byte	1,109
                        4371 
                        4372 .LDW_4b78860:
0000086d 04             4373 	.byte	4
0000086e 6900           4374 	.strz	"i"
00000870 e802           4375 	.byte	232,2
00000872 09             4376 	.byte	9
00000873 01             4377 	.byte	1
00000874 00000000*      4378 	.word	.LDW_2867068
00000878 00             4379 	.byte	0
00000879 00             4380 	.byte	0
0000087a 0161           4381 	.byte	1,97
                        4382 
0000087c 00             4383 	.byte	0
                        4384 

                                                                      Page 77
                                                              C:\Users\nhuliyap\AppData\Local\Temp\gh_0000bnc1.s
0000087d 00             4385 	.byte	0
                        4386 
                        4387 .LDW_4b56b20:
0000087e 13             4388 	.byte	19
0000087f 736861353132   4389 	.strz	"sha512_transf"
00000885 5f7472616e73 
0000088b 6600 
0000088d 8703           4390 	.byte	135,3
0000088f 06             4391 	.byte	6
00000890 01             4392 	.byte	1
00000891 00000000*      4393 	.word	_sha512_transf
00000895 00000000*      4394 	.word	___ghs_eofn_sha512_transf
00000899 0153           4395 	.byte	1,83
0000089b 8280c0ff0b     4396 	.byte	130,128,192,255,11
000008a0 2c             4397 	.byte	44
000008a1 03             4398 	.byte	3
000008a2 fc05           4399 	.byte	252,5
000008a4 00             4400 	.byte	0
000008a5 00             4401 	.byte	0
000008a6 00             4402 	.byte	0
000008a7 01             4403 	.byte	1
000008a8 01             4404 	.byte	1
000008a9 00             4405 	.byte	0
000008aa 01             4406 	.byte	1
                        4407 
                        4408 	.section	.debug_frame
                        4409 .LDW_4cb7c88:
00000144 00000000*      4410 	.word	.LDW_unq_e-.LDW_unq_d
                        4411 .LDW_unq_d:
00000148 00000000*      4412 	.word	.LDW_4b9d680
0000014c 00000000*      4413 	.word	_sha512_transf
00000150 00000000*      4414 	.word	___ghs_eofn_sha512_transf-_sha512_transf
00000154 44             4415 	.byte	68
00000155 9f             4416 	.byte	159
00000156 5d             4417 	.byte	93
00000157 40             4418 	.byte	64
00000158 9d             4419 	.byte	157
00000159 61             4420 	.byte	97
0000015a 40             4421 	.byte	64
0000015b 9c             4422 	.byte	156
0000015c 65             4423 	.byte	101
0000015d 40             4424 	.byte	64
0000015e 9b             4425 	.byte	155
0000015f 69             4426 	.byte	105
00000160 40             4427 	.byte	64
00000161 9a             4428 	.byte	154
00000162 6d             4429 	.byte	109
00000163 40             4430 	.byte	64
00000164 99             4431 	.byte	153
00000165 71             4432 	.byte	113
00000166 40             4433 	.byte	64
00000167 98             4434 	.byte	152
00000168 75             4435 	.byte	117
00000169 40             4436 	.byte	64
0000016a 97             4437 	.byte	151
0000016b 79             4438 	.byte	121
0000016c 40             4439 	.byte	64
0000016d 96             4440 	.byte	150
0000016e 7d             4441 	.byte	125
0000016f 40             4442 	.byte	64
00000170 95             4443 	.byte	149

                                                                      Page 78
                                                              C:\Users\nhuliyap\AppData\Local\Temp\gh_0000bnc1.s
00000171 8101           4444 	.byte	129,1
00000173 40             4445 	.byte	64
00000174 94             4446 	.byte	148
00000175 8501           4447 	.byte	133,1
00000177 01             4448 	.byte	1
00000178 00000000*      4449 	.word	.LDW12
                        4450 .LDW_unq_e:
                        4451 	.section	.debug_line
0000038f 000502         4452 	.byte	0,5,2
00000392 00000000*      4453 	.word	_sha512_transf
00000396 03             4454 	.byte	3
00000397 8803           4455 	.byte	136,3
00000399 02             4456 	.byte	2
0000039a 00             4457 	.byte	0
0000039b 01             4458 	.byte	1
0000039c 06             4459 	.byte	6
0000039d 03             4460 	.byte	3
0000039e 07             4461 	.byte	7
0000039f 02             4462 	.byte	2
000003a0 10             4463 	.byte	16
000003a1 01             4464 	.byte	1
000003a2 02             4465 	.byte	2
000003a3 02             4466 	.byte	2
000003a4 000502         4467 	.byte	0,5,2
000003a7 00000000*      4468 	.word	.LDWlin23
000003ab 0b             4469 	.byte	11
000003ac 2d             4470 	.byte	45
000003ad 02             4471 	.byte	2
000003ae 04             4472 	.byte	4
000003af 0b             4473 	.byte	11
000003b0 03             4474 	.byte	3
000003b1 7f             4475 	.byte	127
000003b2 02             4476 	.byte	2
000003b3 34             4477 	.byte	52
000003b4 01             4478 	.byte	1
000003b5 000502         4479 	.byte	0,5,2
000003b8 00000000*      4480 	.word	.LDWlin24
000003bc 0c             4481 	.byte	12
000003bd 0c             4482 	.byte	12
000003be 02             4483 	.byte	2
000003bf 04             4484 	.byte	4
000003c0 0b             4485 	.byte	11
000003c1 000502         4486 	.byte	0,5,2
000003c4 00000000*      4487 	.word	.LDWlin25
000003c8 03             4488 	.byte	3
000003c9 7f             4489 	.byte	127
000003ca 02             4490 	.byte	2
000003cb 00             4491 	.byte	0
000003cc 01             4492 	.byte	1
000003cd 000502         4493 	.byte	0,5,2
000003d0 00000000*      4494 	.word	.LDWlin26
000003d4 0c             4495 	.byte	12
000003d5 0c             4496 	.byte	12
000003d6 02             4497 	.byte	2
000003d7 02             4498 	.byte	2
000003d8 0b             4499 	.byte	11
000003d9 000502         4500 	.byte	0,5,2
000003dc 00000000*      4501 	.word	.LDWlin27
000003e0 03             4502 	.byte	3
000003e1 7f             4503 	.byte	127
000003e2 02             4504 	.byte	2

                                                                      Page 79
                                                              C:\Users\nhuliyap\AppData\Local\Temp\gh_0000bnc1.s
000003e3 00             4505 	.byte	0
000003e4 01             4506 	.byte	1
000003e5 000502         4507 	.byte	0,5,2
000003e8 00000000*      4508 	.word	.LDWlin28
000003ec 0c             4509 	.byte	12
000003ed 0c             4510 	.byte	12
000003ee 02             4511 	.byte	2
000003ef 02             4512 	.byte	2
000003f0 0b             4513 	.byte	11
000003f1 000502         4514 	.byte	0,5,2
000003f4 00000000*      4515 	.word	.LDWlin29
000003f8 0c             4516 	.byte	12
000003f9 000502         4517 	.byte	0,5,2
000003fc 00000000*      4518 	.word	.LDWlin30
00000400 03             4519 	.byte	3
00000401 04             4520 	.byte	4
00000402 02             4521 	.byte	2
00000403 00             4522 	.byte	0
00000404 01             4523 	.byte	1
00000405 000502         4524 	.byte	0,5,2
00000408 00000000*      4525 	.word	.LDWlin31
0000040c 03             4526 	.byte	3
0000040d 04             4527 	.byte	4
0000040e 02             4528 	.byte	2
0000040f 00             4529 	.byte	0
00000410 01             4530 	.byte	1
00000411 03             4531 	.byte	3
00000412 75             4532 	.byte	117
00000413 02             4533 	.byte	2
00000414 08             4534 	.byte	8
00000415 01             4535 	.byte	1
00000416 03             4536 	.byte	3
00000417 04             4537 	.byte	4
00000418 02             4538 	.byte	2
00000419 02             4539 	.byte	2
0000041a 01             4540 	.byte	1
0000041b 000502         4541 	.byte	0,5,2
0000041e 00000000*      4542 	.word	.LDWlin32
00000422 0b             4543 	.byte	11
00000423 000502         4544 	.byte	0,5,2
00000426 00000000*      4545 	.word	.LDWlin33
0000042a 0b             4546 	.byte	11
0000042b 000502         4547 	.byte	0,5,2
0000042e 00000000*      4548 	.word	.LDWlin34
00000432 0c             4549 	.byte	12
00000433 000502         4550 	.byte	0,5,2
00000436 00000000*      4551 	.word	.LDWlin35
0000043a 0b             4552 	.byte	11
0000043b 000502         4553 	.byte	0,5,2
0000043e 00000000*      4554 	.word	.LDWlin36
00000442 0b             4555 	.byte	11
00000443 000502         4556 	.byte	0,5,2
00000446 00000000*      4557 	.word	.LDWlin37
0000044a 0c             4558 	.byte	12
0000044b 0c             4559 	.byte	12
0000044c 02             4560 	.byte	2
0000044d 02             4561 	.byte	2
0000044e 0b             4562 	.byte	11
0000044f 000502         4563 	.byte	0,5,2
00000452 00000000*      4564 	.word	.LDWlin38
00000456 03             4565 	.byte	3

                                                                      Page 80
                                                              C:\Users\nhuliyap\AppData\Local\Temp\gh_0000bnc1.s
00000457 7f             4566 	.byte	127
00000458 02             4567 	.byte	2
00000459 00             4568 	.byte	0
0000045a 01             4569 	.byte	1
0000045b 000502         4570 	.byte	0,5,2
0000045e 00000000*      4571 	.word	.LDWlin39
00000462 0c             4572 	.byte	12
00000463 03             4573 	.byte	3
00000464 60             4574 	.byte	96
00000465 02             4575 	.byte	2
00000466 00             4576 	.byte	0
00000467 01             4577 	.byte	1
00000468 000502         4578 	.byte	0,5,2
0000046b 00000000*      4579 	.word	.LDWlin40
0000046f 03             4580 	.byte	3
00000470 d300           4581 	.byte	211,0
00000472 02             4582 	.byte	2
00000473 00             4583 	.byte	0
00000474 01             4584 	.byte	1
00000475 0b             4585 	.byte	11
00000476 02             4586 	.byte	2
00000477 08             4587 	.byte	8
00000478 000101         4588 	.byte	0,1,1
                        4589 	.section	.debug_info
                        4590 .LDW_4b78ac8:
000008ab 0f             4591 	.byte	15
000008ac 63747800       4592 	.strz	"ctx"
000008b0 8703           4593 	.byte	135,3
000008b2 20             4594 	.byte	32
000008b3 01             4595 	.byte	1
000008b4 00000000*      4596 	.word	.LDW_28ab930
000008b8 00             4597 	.byte	0
000008b9 0168           4598 	.byte	1,104
                        4599 
                        4600 .LDW_4b788b8:
000008bb 0f             4601 	.byte	15
000008bc 6d6573736167   4602 	.strz	"message"
000008c2 6500 
000008c4 8703           4603 	.byte	135,3
000008c6 3a             4604 	.byte	58
000008c7 01             4605 	.byte	1
000008c8 00000000*      4606 	.word	.LDW_2866f50
000008cc 00             4607 	.byte	0
000008cd 0273           4608 	.byte	2,115
000008cf 00             4609 	.byte	0
                        4610 
                        4611 .LDW_4b789c0:
000008d0 0f             4612 	.byte	15
000008d1 626c6f636b5f   4613 	.strz	"block_nb"
000008d7 6e6200 
000008da 8803           4614 	.byte	136,3
000008dc 21             4615 	.byte	33
000008dd 01             4616 	.byte	1
000008de 00000000*      4617 	.word	.LDW_2866d90
000008e2 00             4618 	.byte	0
000008e3 0273           4619 	.byte	2,115
000008e5 04             4620 	.byte	4
                        4621 
                        4622 .LDW_4b72dd8:
000008e6 1d             4623 	.byte	29
000008e7 00000000*      4624 	.word	.LDW02

                                                                      Page 81
                                                              C:\Users\nhuliyap\AppData\Local\Temp\gh_0000bnc1.s
000008eb 00000000*      4625 	.word	.LDW12
                        4626 
                        4627 .LDW_4b78f98:
000008ef 04             4628 	.byte	4
000008f0 7700           4629 	.strz	"w"
000008f2 8a03           4630 	.byte	138,3
000008f4 0c             4631 	.byte	12
000008f5 01             4632 	.byte	1
000008f6 00000000*      4633 	.word	.LDW_4b56bb8
000008fa 00             4634 	.byte	0
000008fb 00             4635 	.byte	0
000008fc 0373           4636 	.byte	3,115
000008fe d000           4637 	.byte	208,0
                        4638 
                        4639 .LDW_4b78bd0:
00000900 04             4640 	.byte	4
00000901 777600         4641 	.strz	"wv"
00000904 8b03           4642 	.byte	139,3
00000906 0c             4643 	.byte	12
00000907 01             4644 	.byte	1
00000908 00000000*      4645 	.word	.LDW_4b56c40
0000090c 00             4646 	.byte	0
0000090d 00             4647 	.byte	0
0000090e 0273           4648 	.byte	2,115
00000910 10             4649 	.byte	16
                        4650 
                        4651 .LDW_4b78f40:
00000911 04             4652 	.byte	4
00000912 743100         4653 	.strz	"t1"
00000915 8c03           4654 	.byte	140,3
00000917 0c             4655 	.byte	12
00000918 01             4656 	.byte	1
00000919 00000000*      4657 	.word	.LDW_4b78910
0000091d 00             4658 	.byte	0
0000091e 00             4659 	.byte	0
0000091f 0160           4660 	.byte	1,96
                        4661 
                        4662 .LDW_4b78968:
00000921 04             4663 	.byte	4
00000922 743200         4664 	.strz	"t2"
00000925 8c03           4665 	.byte	140,3
00000927 10             4666 	.byte	16
00000928 01             4667 	.byte	1
00000929 00000000*      4668 	.word	.LDW_4b78910
0000092d 00             4669 	.byte	0
0000092e 00             4670 	.byte	0
0000092f 015e           4671 	.byte	1,94
                        4672 
                        4673 .LDW_4b792b0:
00000931 04             4674 	.byte	4
00000932 7375625f626c   4675 	.strz	"sub_block"
00000938 6f636b00 
0000093c 8d03           4676 	.byte	141,3
0000093e 1a             4677 	.byte	26
0000093f 01             4678 	.byte	1
00000940 00000000*      4679 	.word	.LDW_2866f50
00000944 00             4680 	.byte	0
00000945 00             4681 	.byte	0
00000946 015f           4682 	.byte	1,95
                        4683 
                        4684 .LDW_4b78b20:

                                                                      Page 82
                                                              C:\Users\nhuliyap\AppData\Local\Temp\gh_0000bnc1.s
00000948 04             4685 	.byte	4
00000949 6900           4686 	.strz	"i"
0000094b 8e03           4687 	.byte	142,3
0000094d 09             4688 	.byte	9
0000094e 01             4689 	.byte	1
0000094f 00000000*      4690 	.word	.LDW_2867068
00000953 00             4691 	.byte	0
00000954 00             4692 	.byte	0
00000955 0169           4693 	.byte	1,105
                        4694 
                        4695 .LDW_4b78a18:
00000957 04             4696 	.byte	4
00000958 6a00           4697 	.strz	"j"
0000095a 8e03           4698 	.byte	142,3
0000095c 0c             4699 	.byte	12
0000095d 01             4700 	.byte	1
0000095e 00000000*      4701 	.word	.LDW_2867068
00000962 00             4702 	.byte	0
00000963 00             4703 	.byte	0
00000964 0151           4704 	.byte	1,81
                        4705 
00000966 00             4706 	.byte	0
                        4707 
00000967 00             4708 	.byte	0
                        4709 
                        4710 .LDW_4b56cc8:
00000968 13             4711 	.byte	19
00000969 736861353132   4712 	.strz	"sha512"
0000096f 00 
00000970 e603           4713 	.byte	230,3
00000972 06             4714 	.byte	6
00000973 01             4715 	.byte	1
00000974 00000000*      4716 	.word	_sha512
00000978 00000000*      4717 	.word	___ghs_eofn_sha512
0000097c 0153           4718 	.byte	1,83
0000097e 828080c00a     4719 	.byte	130,128,128,192,10
00000983 10             4720 	.byte	16
00000984 03             4721 	.byte	3
00000985 d802           4722 	.byte	216,2
00000987 00             4723 	.byte	0
00000988 00             4724 	.byte	0
00000989 00             4725 	.byte	0
0000098a 01             4726 	.byte	1
0000098b 01             4727 	.byte	1
0000098c 00             4728 	.byte	0
0000098d 01             4729 	.byte	1
                        4730 
                        4731 	.section	.debug_frame
                        4732 .LDW_4d19020:
0000017c 00000000*      4733 	.word	.LDW_unq_10-.LDW_unq_f
                        4734 .LDW_unq_f:
00000180 00000000*      4735 	.word	.LDW_4b9d680
00000184 00000000*      4736 	.word	_sha512
00000188 00000000*      4737 	.word	___ghs_eofn_sha512-_sha512
0000018c 44             4738 	.byte	68
0000018d 9f             4739 	.byte	159
0000018e 61             4740 	.byte	97
0000018f 40             4741 	.byte	64
00000190 9d             4742 	.byte	157
00000191 65             4743 	.byte	101
00000192 40             4744 	.byte	64

                                                                      Page 83
                                                              C:\Users\nhuliyap\AppData\Local\Temp\gh_0000bnc1.s
00000193 9b             4745 	.byte	155
00000194 69             4746 	.byte	105
00000195 01             4747 	.byte	1
00000196 00000000*      4748 	.word	.LDW92
0000019a 44             4749 	.byte	68
0000019b df             4750 	.byte	223
0000019c 40             4751 	.byte	64
0000019d dd             4752 	.byte	221
0000019e 40             4753 	.byte	64
0000019f db             4754 	.byte	219
                        4755 .LDW_unq_10:
                        4756 	.section	.debug_line
0000047b 000502         4757 	.byte	0,5,2
0000047e 00000000*      4758 	.word	_sha512
00000482 03             4759 	.byte	3
00000483 e703           4760 	.byte	231,3
00000485 02             4761 	.byte	2
00000486 00             4762 	.byte	0
00000487 01             4763 	.byte	1
00000488 06             4764 	.byte	6
00000489 3d             4765 	.byte	61
0000048a 000502         4766 	.byte	0,5,2
0000048d 00000000*      4767 	.word	.LDWlin53
00000491 0b             4768 	.byte	11
00000492 000502         4769 	.byte	0,5,2
00000495 00000000*      4770 	.word	.LDWlin54
00000499 0b             4771 	.byte	11
0000049a 000502         4772 	.byte	0,5,2
0000049d 00000000*      4773 	.word	.LDWlin55
000004a1 0b             4774 	.byte	11
000004a2 02             4775 	.byte	2
000004a3 08             4776 	.byte	8
000004a4 000101         4777 	.byte	0,1,1
                        4778 	.section	.debug_info
                        4779 .LDW_4b78cd8:
0000098e 0f             4780 	.byte	15
0000098f 6d6573736167   4781 	.strz	"message"
00000995 6500 
00000997 e603           4782 	.byte	230,3
00000999 22             4783 	.byte	34
0000099a 01             4784 	.byte	1
0000099b 00000000*      4785 	.word	.LDW_2866f50
0000099f 00             4786 	.byte	0
000009a0 016d           4787 	.byte	1,109
                        4788 
                        4789 .LDW_4b78c28:
000009a2 0f             4790 	.byte	15
000009a3 6c656e00       4791 	.strz	"len"
000009a7 e603           4792 	.byte	230,3
000009a9 38             4793 	.byte	56
000009aa 01             4794 	.byte	1
000009ab 00000000*      4795 	.word	.LDW_2866d90
000009af 00             4796 	.byte	0
000009b0 016c           4797 	.byte	1,108
                        4798 
                        4799 .LDW_4b78d30:
000009b2 0f             4800 	.byte	15
000009b3 646967657374   4801 	.strz	"digest"
000009b9 00 
000009ba e703           4802 	.byte	231,3
000009bc 1c             4803 	.byte	28

                                                                      Page 84
                                                              C:\Users\nhuliyap\AppData\Local\Temp\gh_0000bnc1.s
000009bd 01             4804 	.byte	1
000009be 00000000*      4805 	.word	.LDW_28aba48
000009c2 00             4806 	.byte	0
000009c3 016b           4807 	.byte	1,107
                        4808 
                        4809 .LDW_4b72b38:
000009c5 1d             4810 	.byte	29
000009c6 00000000*      4811 	.word	.LDW82
000009ca 00000000*      4812 	.word	.LDW92
                        4813 
                        4814 .LDW_4b790f8:
000009ce 04             4815 	.byte	4
000009cf 63747800       4816 	.strz	"ctx"
000009d3 e903           4817 	.byte	233,3
000009d5 10             4818 	.byte	16
000009d6 01             4819 	.byte	1
000009d7 00000000*      4820 	.word	.LDW_4b78c80
000009db 00             4821 	.byte	0
000009dc 00             4822 	.byte	0
000009dd 0273           4823 	.byte	2,115
000009df 00             4824 	.byte	0
                        4825 
000009e0 00             4826 	.byte	0
                        4827 
000009e1 00             4828 	.byte	0
                        4829 
                        4830 .LDW_4b75bd0:
000009e2 13             4831 	.byte	19
000009e3 736861353132   4832 	.strz	"sha512_init"
000009e9 5f696e697400 
000009ef f003           4833 	.byte	240,3
000009f1 06             4834 	.byte	6
000009f2 01             4835 	.byte	1
000009f3 00000000*      4836 	.word	_sha512_init
000009f7 00000000*      4837 	.word	___ghs_eofn_sha512_init
000009fb 0153           4838 	.byte	1,83
000009fd 02             4839 	.byte	2
000009fe 00             4840 	.byte	0
000009ff 02             4841 	.byte	2
00000a00 00             4842 	.byte	0
00000a01 00             4843 	.byte	0
00000a02 00             4844 	.byte	0
00000a03 00             4845 	.byte	0
00000a04 01             4846 	.byte	1
00000a05 01             4847 	.byte	1
00000a06 00             4848 	.byte	0
00000a07 01             4849 	.byte	1
                        4850 
                        4851 	.section	.debug_frame
                        4852 .LDW_4cb79c8:
000001a0 00000000*      4853 	.word	.LDW_unq_12-.LDW_unq_11
                        4854 .LDW_unq_11:
000001a4 00000000*      4855 	.word	.LDW_4b9d680
000001a8 00000000*      4856 	.word	_sha512_init
000001ac 00000000*      4857 	.word	___ghs_eofn_sha512_init-_sha512_init
000001b0 01             4858 	.byte	1
000001b1 00000000*      4859 	.word	.LDW32
000001b5 00             4860 	.byte	0
000001b6 00             4861 	.byte	0
000001b7 00             4862 	.byte	0
                        4863 .LDW_unq_12:

                                                                      Page 85
                                                              C:\Users\nhuliyap\AppData\Local\Temp\gh_0000bnc1.s
                        4864 	.section	.debug_line
000004a7 000502         4865 	.byte	0,5,2
000004aa 00000000*      4866 	.word	_sha512_init
000004ae 03             4867 	.byte	3
000004af f003           4868 	.byte	240,3
000004b1 02             4869 	.byte	2
000004b2 00             4870 	.byte	0
000004b3 01             4871 	.byte	1
000004b4 06             4872 	.byte	6
000004b5 15             4873 	.byte	21
000004b6 02             4874 	.byte	2
000004b7 02             4875 	.byte	2
000004b8 0b             4876 	.byte	11
000004b9 000502         4877 	.byte	0,5,2
000004bc 00000000*      4878 	.word	.LDWlin41
000004c0 03             4879 	.byte	3
000004c1 7f             4880 	.byte	127
000004c2 02             4881 	.byte	2
000004c3 00             4882 	.byte	0
000004c4 01             4883 	.byte	1
000004c5 000502         4884 	.byte	0,5,2
000004c8 00000000*      4885 	.word	.LDWlin42
000004cc 0c             4886 	.byte	12
000004cd 03             4887 	.byte	3
000004ce 08             4888 	.byte	8
000004cf 02             4889 	.byte	2
000004d0 00             4890 	.byte	0
000004d1 01             4891 	.byte	1
000004d2 13             4892 	.byte	19
000004d3 13             4893 	.byte	19
000004d4 02             4894 	.byte	2
000004d5 02             4895 	.byte	2
000004d6 000101         4896 	.byte	0,1,1
                        4897 	.section	.debug_info
                        4898 .LDW_4b78e38:
00000a08 0f             4899 	.byte	15
00000a09 63747800       4900 	.strz	"ctx"
00000a0d f003           4901 	.byte	240,3
00000a0f 1e             4902 	.byte	30
00000a10 01             4903 	.byte	1
00000a11 00000000*      4904 	.word	.LDW_28ab930
00000a15 00             4905 	.byte	0
00000a16 016e           4906 	.byte	1,110
                        4907 
                        4908 .LDW_4b72b08:
00000a18 1d             4909 	.byte	29
00000a19 00000000*      4910 	.word	.LDW22
00000a1d 00000000*      4911 	.word	.LDW32
                        4912 
                        4913 .LDW_4b78b78:
00000a21 04             4914 	.byte	4
00000a22 6900           4915 	.strz	"i"
00000a24 f303           4916 	.byte	243,3
00000a26 09             4917 	.byte	9
00000a27 01             4918 	.byte	1
00000a28 00000000*      4919 	.word	.LDW_2867068
00000a2c 00             4920 	.byte	0
00000a2d 00             4921 	.byte	0
00000a2e 0161           4922 	.byte	1,97
                        4923 
00000a30 00             4924 	.byte	0

                                                                      Page 86
                                                              C:\Users\nhuliyap\AppData\Local\Temp\gh_0000bnc1.s
                        4925 
00000a31 00             4926 	.byte	0
                        4927 
                        4928 .LDW_4b76090:
00000a32 13             4929 	.byte	19
00000a33 736861353132   4930 	.strz	"sha512_update"
00000a39 5f7570646174 
00000a3f 6500 
00000a41 8204           4931 	.byte	130,4
00000a43 06             4932 	.byte	6
00000a44 01             4933 	.byte	1
00000a45 00000000*      4934 	.word	_sha512_update
00000a49 00000000*      4935 	.word	___ghs_eofn_sha512_update
00000a4d 0153           4936 	.byte	1,83
00000a4f 828080f80b     4937 	.byte	130,128,128,248,11
00000a54 1c             4938 	.byte	28
00000a55 03             4939 	.byte	3
00000a56 1c             4940 	.byte	28
00000a57 00             4941 	.byte	0
00000a58 00             4942 	.byte	0
00000a59 00             4943 	.byte	0
00000a5a 01             4944 	.byte	1
00000a5b 01             4945 	.byte	1
00000a5c 00             4946 	.byte	0
00000a5d 01             4947 	.byte	1
                        4948 
                        4949 	.section	.debug_frame
                        4950 .LDW_4cb7648:
000001b8 00000000*      4951 	.word	.LDW_unq_14-.LDW_unq_13
                        4952 .LDW_unq_13:
000001bc 00000000*      4953 	.word	.LDW_4b9d680
000001c0 00000000*      4954 	.word	_sha512_update
000001c4 00000000*      4955 	.word	___ghs_eofn_sha512_update-_sha512_update
000001c8 44             4956 	.byte	68
000001c9 9f             4957 	.byte	159
000001ca 00             4958 	.byte	0
000001cb 40             4959 	.byte	64
000001cc 9d             4960 	.byte	157
000001cd 04             4961 	.byte	4
000001ce 40             4962 	.byte	64
000001cf 9c             4963 	.byte	156
000001d0 08             4964 	.byte	8
000001d1 40             4965 	.byte	64
000001d2 9b             4966 	.byte	155
000001d3 0c             4967 	.byte	12
000001d4 40             4968 	.byte	64
000001d5 9a             4969 	.byte	154
000001d6 10             4970 	.byte	16
000001d7 40             4971 	.byte	64
000001d8 99             4972 	.byte	153
000001d9 14             4973 	.byte	20
000001da 40             4974 	.byte	64
000001db 98             4975 	.byte	152
000001dc 18             4976 	.byte	24
000001dd 01             4977 	.byte	1
000001de 00000000*      4978 	.word	.LDW52
000001e2 00             4979 	.byte	0
000001e3 00             4980 	.byte	0
                        4981 .LDW_unq_14:
                        4982 	.section	.debug_line
000004d9 000502         4983 	.byte	0,5,2

                                                                      Page 87
                                                              C:\Users\nhuliyap\AppData\Local\Temp\gh_0000bnc1.s
000004dc 00000000*      4984 	.word	_sha512_update
000004e0 03             4985 	.byte	3
000004e1 8304           4986 	.byte	131,4
000004e3 02             4987 	.byte	2
000004e4 00             4988 	.byte	0
000004e5 01             4989 	.byte	1
000004e6 06             4990 	.byte	6
000004e7 03             4991 	.byte	3
000004e8 06             4992 	.byte	6
000004e9 02             4993 	.byte	2
000004ea 0a             4994 	.byte	10
000004eb 01             4995 	.byte	1
000004ec 4c             4996 	.byte	76
000004ed 000502         4997 	.byte	0,5,2
000004f0 00000000*      4998 	.word	.LDWlin43
000004f4 0c             4999 	.byte	12
000004f5 000502         5000 	.byte	0,5,2
000004f8 00000000*      5001 	.word	.LDWlin44
000004fc 02             5002 	.byte	2
000004fd 00             5003 	.byte	0
000004fe 0b             5004 	.byte	11
000004ff 1b             5005 	.byte	27
00000500 000502         5006 	.byte	0,5,2
00000503 00000000*      5007 	.word	.LDWlin45
00000507 0b             5008 	.byte	11
00000508 02             5009 	.byte	2
00000509 00             5010 	.byte	0
0000050a 0c             5011 	.byte	12
0000050b 13             5012 	.byte	19
0000050c 1c             5013 	.byte	28
0000050d 14             5014 	.byte	20
0000050e 000502         5015 	.byte	0,5,2
00000511 00000000*      5016 	.word	.LDWlin46
00000515 0b             5017 	.byte	11
00000516 000502         5018 	.byte	0,5,2
00000519 00000000*      5019 	.word	.LDWlin47
0000051d 03             5020 	.byte	3
0000051e 04             5021 	.byte	4
0000051f 02             5022 	.byte	2
00000520 00             5023 	.byte	0
00000521 01             5024 	.byte	1
00000522 03             5025 	.byte	3
00000523 7e             5026 	.byte	126
00000524 02             5027 	.byte	2
00000525 02             5028 	.byte	2
00000526 01             5029 	.byte	1
00000527 000502         5030 	.byte	0,5,2
0000052a 00000000*      5031 	.word	.LDWlin48
0000052e 03             5032 	.byte	3
0000052f 05             5033 	.byte	5
00000530 02             5034 	.byte	2
00000531 00             5035 	.byte	0
00000532 01             5036 	.byte	1
00000533 13             5037 	.byte	19
00000534 43             5038 	.byte	67
00000535 02             5039 	.byte	2
00000536 04             5040 	.byte	4
00000537 000101         5041 	.byte	0,1,1
                        5042 	.section	.debug_info
                        5043 .LDW_4b78a70:
00000a5e 0f             5044 	.byte	15

                                                                      Page 88
                                                              C:\Users\nhuliyap\AppData\Local\Temp\gh_0000bnc1.s
00000a5f 63747800       5045 	.strz	"ctx"
00000a63 8204           5046 	.byte	130,4
00000a65 20             5047 	.byte	32
00000a66 01             5048 	.byte	1
00000a67 00000000*      5049 	.word	.LDW_28ab930
00000a6b 00             5050 	.byte	0
00000a6c 016d           5051 	.byte	1,109
                        5052 
                        5053 .LDW_4b78e90:
00000a6e 0f             5054 	.byte	15
00000a6f 6d6573736167   5055 	.strz	"message"
00000a75 6500 
00000a77 8204           5056 	.byte	130,4
00000a79 3a             5057 	.byte	58
00000a7a 01             5058 	.byte	1
00000a7b 00000000*      5059 	.word	.LDW_2866f50
00000a7f 00             5060 	.byte	0
00000a80 0168           5061 	.byte	1,104
                        5062 
                        5063 .LDW_4b78d88:
00000a82 0f             5064 	.byte	15
00000a83 6c656e00       5065 	.strz	"len"
00000a87 8304           5066 	.byte	131,4
00000a89 21             5067 	.byte	33
00000a8a 01             5068 	.byte	1
00000a8b 00000000*      5069 	.word	.LDW_2866d90
00000a8f 00             5070 	.byte	0
00000a90 016c           5071 	.byte	1,108
                        5072 
                        5073 .LDW_4b728f8:
00000a92 1d             5074 	.byte	29
00000a93 00000000*      5075 	.word	.LDW42
00000a97 00000000*      5076 	.word	.LDW52
                        5077 
                        5078 .LDW_4b791a8:
00000a9b 04             5079 	.byte	4
00000a9c 626c6f636b5f   5080 	.strz	"block_nb"
00000aa2 6e6200 
00000aa5 8504           5081 	.byte	133,4
00000aa7 12             5082 	.byte	18
00000aa8 01             5083 	.byte	1
00000aa9 00000000*      5084 	.word	.LDW_2866d90
00000aad 00             5085 	.byte	0
00000aae 00             5086 	.byte	0
00000aaf 016b           5087 	.byte	1,107
                        5088 
                        5089 .LDW_4b78de0:
00000ab1 05             5090 	.byte	5
00000ab2 6e65775f6c65   5091 	.strz	"new_len"
00000ab8 6e00 
00000aba 8604           5092 	.byte	134,4
00000abc 12             5093 	.byte	18
00000abd 01             5094 	.byte	1
00000abe 00000000*      5095 	.word	.LDW_2866d90
00000ac2 00             5096 	.byte	0
00000ac3 00             5097 	.byte	0
                        5098 
                        5099 .LDW_4b78ee8:
00000ac4 04             5100 	.byte	4
00000ac5 72656d5f6c65   5101 	.strz	"rem_len"
00000acb 6e00 

                                                                      Page 89
                                                              C:\Users\nhuliyap\AppData\Local\Temp\gh_0000bnc1.s
00000acd 8604           5102 	.byte	134,4
00000acf 1b             5103 	.byte	27
00000ad0 01             5104 	.byte	1
00000ad1 00000000*      5105 	.word	.LDW_2866d90
00000ad5 00             5106 	.byte	0
00000ad6 00             5107 	.byte	0
00000ad7 016a           5108 	.byte	1,106
                        5109 
                        5110 .LDW_4b79200:
00000ad9 05             5111 	.byte	5
00000ada 746d705f6c65   5112 	.strz	"tmp_len"
00000ae0 6e00 
00000ae2 8604           5113 	.byte	134,4
00000ae4 24             5114 	.byte	36
00000ae5 01             5115 	.byte	1
00000ae6 00000000*      5116 	.word	.LDW_2866d90
00000aea 00             5117 	.byte	0
00000aeb 00             5118 	.byte	0
                        5119 
                        5120 .LDW_4b790a0:
00000aec 04             5121 	.byte	4
00000aed 736869667465   5122 	.strz	"shifted_message"
00000af3 645f6d657373 
00000af9 61676500 
00000afd 8704           5123 	.byte	135,4
00000aff 1a             5124 	.byte	26
00000b00 01             5125 	.byte	1
00000b01 00000000*      5126 	.word	.LDW_2866f50
00000b05 00             5127 	.byte	0
00000b06 00             5128 	.byte	0
00000b07 0169           5129 	.byte	1,105
                        5130 
00000b09 00             5131 	.byte	0
                        5132 
00000b0a 00             5133 	.byte	0
                        5134 
                        5135 .LDW_4b76718:
00000b0b 13             5136 	.byte	19
00000b0c 736861353132   5137 	.strz	"sha512_final"
00000b12 5f66696e616c 
00000b18 00 
00000b19 a404           5138 	.byte	164,4
00000b1b 06             5139 	.byte	6
00000b1c 01             5140 	.byte	1
00000b1d 00000000*      5141 	.word	_sha512_final
00000b21 00000000*      5142 	.word	___ghs_eofn_sha512_final
00000b25 0153           5143 	.byte	1,83
00000b27 828080f80b     5144 	.byte	130,128,128,248,11
00000b2c 1c             5145 	.byte	28
00000b2d 03             5146 	.byte	3
00000b2e 1c             5147 	.byte	28
00000b2f 00             5148 	.byte	0
00000b30 00             5149 	.byte	0
00000b31 00             5150 	.byte	0
00000b32 01             5151 	.byte	1
00000b33 01             5152 	.byte	1
00000b34 00             5153 	.byte	0
00000b35 01             5154 	.byte	1
                        5155 
                        5156 	.section	.debug_frame
                        5157 .LDW_4cb7ac8:

                                                                      Page 90
                                                              C:\Users\nhuliyap\AppData\Local\Temp\gh_0000bnc1.s
000001e4 00000000*      5158 	.word	.LDW_unq_16-.LDW_unq_15
                        5159 .LDW_unq_15:
000001e8 00000000*      5160 	.word	.LDW_4b9d680
000001ec 00000000*      5161 	.word	_sha512_final
000001f0 00000000*      5162 	.word	___ghs_eofn_sha512_final-_sha512_final
000001f4 44             5163 	.byte	68
000001f5 9f             5164 	.byte	159
000001f6 00             5165 	.byte	0
000001f7 40             5166 	.byte	64
000001f8 9d             5167 	.byte	157
000001f9 04             5168 	.byte	4
000001fa 40             5169 	.byte	64
000001fb 9c             5170 	.byte	156
000001fc 08             5171 	.byte	8
000001fd 40             5172 	.byte	64
000001fe 9b             5173 	.byte	155
000001ff 0c             5174 	.byte	12
00000200 40             5175 	.byte	64
00000201 9a             5176 	.byte	154
00000202 10             5177 	.byte	16
00000203 40             5178 	.byte	64
00000204 99             5179 	.byte	153
00000205 14             5180 	.byte	20
00000206 40             5181 	.byte	64
00000207 98             5182 	.byte	152
00000208 18             5183 	.byte	24
00000209 01             5184 	.byte	1
0000020a 00000000*      5185 	.word	.LDW72
0000020e 00             5186 	.byte	0
0000020f 00             5187 	.byte	0
                        5188 .LDW_unq_16:
                        5189 	.section	.debug_line
0000053a 000502         5190 	.byte	0,5,2
0000053d 00000000*      5191 	.word	_sha512_final
00000541 03             5192 	.byte	3
00000542 a404           5193 	.byte	164,4
00000544 02             5194 	.byte	2
00000545 00             5195 	.byte	0
00000546 01             5196 	.byte	1
00000547 06             5197 	.byte	6
00000548 03             5198 	.byte	3
00000549 09             5199 	.byte	9
0000054a 02             5200 	.byte	2
0000054b 08             5201 	.byte	8
0000054c 01             5202 	.byte	1
0000054d 1d             5203 	.byte	29
0000054e 53             5204 	.byte	83
0000054f 1c             5205 	.byte	28
00000550 000502         5206 	.byte	0,5,2
00000553 00000000*      5207 	.word	.LDWlin49
00000557 0b             5208 	.byte	11
00000558 2b             5209 	.byte	43
00000559 84             5210 	.byte	132
0000055a 000502         5211 	.byte	0,5,2
0000055d 00000000*      5212 	.word	.LDWlin50
00000561 0d             5213 	.byte	13
00000562 02             5214 	.byte	2
00000563 02             5215 	.byte	2
00000564 0b             5216 	.byte	11
00000565 000502         5217 	.byte	0,5,2
00000568 00000000*      5218 	.word	.LDWlin51

                                                                      Page 91
                                                              C:\Users\nhuliyap\AppData\Local\Temp\gh_0000bnc1.s
0000056c 03             5219 	.byte	3
0000056d 7f             5220 	.byte	127
0000056e 02             5221 	.byte	2
0000056f 00             5222 	.byte	0
00000570 01             5223 	.byte	1
00000571 000502         5224 	.byte	0,5,2
00000574 00000000*      5225 	.word	.LDWlin52
00000578 0c             5226 	.byte	12
00000579 03             5227 	.byte	3
0000057a 0b             5228 	.byte	11
0000057b 02             5229 	.byte	2
0000057c 00             5230 	.byte	0
0000057d 01             5231 	.byte	1
0000057e 02             5232 	.byte	2
0000057f 04             5233 	.byte	4
00000580 000101         5234 	.byte	0,1,1
                        5235 	.section	.debug_info
                        5236 .LDW_4b78ff0:
00000b36 0f             5237 	.byte	15
00000b37 63747800       5238 	.strz	"ctx"
00000b3b a404           5239 	.byte	164,4
00000b3d 1f             5240 	.byte	31
00000b3e 01             5241 	.byte	1
00000b3f 00000000*      5242 	.word	.LDW_28ab930
00000b43 00             5243 	.byte	0
00000b44 016b           5244 	.byte	1,107
                        5245 
                        5246 .LDW_4b79308:
00000b46 0f             5247 	.byte	15
00000b47 646967657374   5248 	.strz	"digest"
00000b4d 00 
00000b4e a404           5249 	.byte	164,4
00000b50 33             5250 	.byte	51
00000b51 01             5251 	.byte	1
00000b52 00000000*      5252 	.word	.LDW_28aba48
00000b56 00             5253 	.byte	0
00000b57 0168           5254 	.byte	1,104
                        5255 
                        5256 .LDW_4b72da8:
00000b59 1d             5257 	.byte	29
00000b5a 00000000*      5258 	.word	.LDW62
00000b5e 00000000*      5259 	.word	.LDW72
                        5260 
                        5261 .LDW_4b79048:
00000b62 04             5262 	.byte	4
00000b63 626c6f636b5f   5263 	.strz	"block_nb"
00000b69 6e6200 
00000b6c a604           5264 	.byte	166,4
00000b6e 12             5265 	.byte	18
00000b6f 01             5266 	.byte	1
00000b70 00000000*      5267 	.word	.LDW_2866d90
00000b74 00             5268 	.byte	0
00000b75 00             5269 	.byte	0
00000b76 0169           5270 	.byte	1,105
                        5271 
                        5272 .LDW_4b79150:
00000b78 05             5273 	.byte	5
00000b79 706d5f6c656e   5274 	.strz	"pm_len"
00000b7f 00 
00000b80 a704           5275 	.byte	167,4
00000b82 12             5276 	.byte	18

                                                                      Page 92
                                                              C:\Users\nhuliyap\AppData\Local\Temp\gh_0000bnc1.s
00000b83 01             5277 	.byte	1
00000b84 00000000*      5278 	.word	.LDW_2866d90
00000b88 00             5279 	.byte	0
00000b89 00             5280 	.byte	0
                        5281 
                        5282 .LDW_4bd8840:
00000b8a 04             5283 	.byte	4
00000b8b 6c656e5f6200   5284 	.strz	"len_b"
00000b91 a804           5285 	.byte	168,4
00000b93 12             5286 	.byte	18
00000b94 01             5287 	.byte	1
00000b95 00000000*      5288 	.word	.LDW_2866d90
00000b99 00             5289 	.byte	0
00000b9a 00             5290 	.byte	0
00000b9b 016d           5291 	.byte	1,109
                        5292 
                        5293 .LDW_4bd8478:
00000b9d 04             5294 	.byte	4
00000b9e 6900           5295 	.strz	"i"
00000ba0 ab04           5296 	.byte	171,4
00000ba2 09             5297 	.byte	9
00000ba3 01             5298 	.byte	1
00000ba4 00000000*      5299 	.word	.LDW_2867068
00000ba8 00             5300 	.byte	0
00000ba9 00             5301 	.byte	0
00000baa 015b           5302 	.byte	1,91
                        5303 
00000bac 00             5304 	.byte	0
                        5305 
00000bad 00             5306 	.byte	0
                        5307 
                        5308 .LDW_4b75a08:
00000bae 13             5309 	.byte	19
00000baf 736861333834   5310 	.strz	"sha384"
00000bb5 00 
00000bb6 ca04           5311 	.byte	202,4
00000bb8 06             5312 	.byte	6
00000bb9 01             5313 	.byte	1
00000bba 00000000*      5314 	.word	_sha384
00000bbe 00000000*      5315 	.word	___ghs_eofn_sha384
00000bc2 0153           5316 	.byte	1,83
00000bc4 828080c00a     5317 	.byte	130,128,128,192,10
00000bc9 10             5318 	.byte	16
00000bca 03             5319 	.byte	3
00000bcb d802           5320 	.byte	216,2
00000bcd 00             5321 	.byte	0
00000bce 00             5322 	.byte	0
00000bcf 00             5323 	.byte	0
00000bd0 01             5324 	.byte	1
00000bd1 01             5325 	.byte	1
00000bd2 00             5326 	.byte	0
00000bd3 01             5327 	.byte	1
                        5328 
                        5329 	.section	.debug_frame
                        5330 .LDW_4d18e60:
00000210 00000000*      5331 	.word	.LDW_unq_18-.LDW_unq_17
                        5332 .LDW_unq_17:
00000214 00000000*      5333 	.word	.LDW_4b9d680
00000218 00000000*      5334 	.word	_sha384
0000021c 00000000*      5335 	.word	___ghs_eofn_sha384-_sha384
00000220 44             5336 	.byte	68

                                                                      Page 93
                                                              C:\Users\nhuliyap\AppData\Local\Temp\gh_0000bnc1.s
00000221 9f             5337 	.byte	159
00000222 61             5338 	.byte	97
00000223 40             5339 	.byte	64
00000224 9d             5340 	.byte	157
00000225 65             5341 	.byte	101
00000226 40             5342 	.byte	64
00000227 9b             5343 	.byte	155
00000228 69             5344 	.byte	105
00000229 01             5345 	.byte	1
0000022a 00000000*      5346 	.word	.LDW73
0000022e 44             5347 	.byte	68
0000022f df             5348 	.byte	223
00000230 40             5349 	.byte	64
00000231 dd             5350 	.byte	221
00000232 40             5351 	.byte	64
00000233 db             5352 	.byte	219
                        5353 .LDW_unq_18:
                        5354 	.section	.debug_line
00000583 000502         5355 	.byte	0,5,2
00000586 00000000*      5356 	.word	_sha384
0000058a 03             5357 	.byte	3
0000058b cb04           5358 	.byte	203,4
0000058d 02             5359 	.byte	2
0000058e 00             5360 	.byte	0
0000058f 01             5361 	.byte	1
00000590 06             5362 	.byte	6
00000591 3d             5363 	.byte	61
00000592 000502         5364 	.byte	0,5,2
00000595 00000000*      5365 	.word	.LDWlin68
00000599 0b             5366 	.byte	11
0000059a 000502         5367 	.byte	0,5,2
0000059d 00000000*      5368 	.word	.LDWlin69
000005a1 0b             5369 	.byte	11
000005a2 000502         5370 	.byte	0,5,2
000005a5 00000000*      5371 	.word	.LDWlin70
000005a9 0b             5372 	.byte	11
000005aa 02             5373 	.byte	2
000005ab 08             5374 	.byte	8
000005ac 000101         5375 	.byte	0,1,1
                        5376 	.section	.debug_info
                        5377 .LDW_4bd86e0:
00000bd4 0f             5378 	.byte	15
00000bd5 6d6573736167   5379 	.strz	"message"
00000bdb 6500 
00000bdd ca04           5380 	.byte	202,4
00000bdf 22             5381 	.byte	34
00000be0 01             5382 	.byte	1
00000be1 00000000*      5383 	.word	.LDW_2866f50
00000be5 00             5384 	.byte	0
00000be6 016d           5385 	.byte	1,109
                        5386 
                        5387 .LDW_4bd8790:
00000be8 0f             5388 	.byte	15
00000be9 6c656e00       5389 	.strz	"len"
00000bed ca04           5390 	.byte	202,4
00000bef 38             5391 	.byte	56
00000bf0 01             5392 	.byte	1
00000bf1 00000000*      5393 	.word	.LDW_2866d90
00000bf5 00             5394 	.byte	0
00000bf6 016c           5395 	.byte	1,108
                        5396 

                                                                      Page 94
                                                              C:\Users\nhuliyap\AppData\Local\Temp\gh_0000bnc1.s
                        5397 .LDW_4bd83c8:
00000bf8 0f             5398 	.byte	15
00000bf9 646967657374   5399 	.strz	"digest"
00000bff 00 
00000c00 cb04           5400 	.byte	203,4
00000c02 1c             5401 	.byte	28
00000c03 01             5402 	.byte	1
00000c04 00000000*      5403 	.word	.LDW_28aba48
00000c08 00             5404 	.byte	0
00000c09 016b           5405 	.byte	1,107
                        5406 
                        5407 .LDW_4b72a18:
00000c0b 1d             5408 	.byte	29
00000c0c 00000000*      5409 	.word	.LDW63
00000c10 00000000*      5410 	.word	.LDW73
                        5411 
                        5412 .LDW_4bd8580:
00000c14 04             5413 	.byte	4
00000c15 63747800       5414 	.strz	"ctx"
00000c19 cd04           5415 	.byte	205,4
00000c1b 10             5416 	.byte	16
00000c1c 01             5417 	.byte	1
00000c1d 00000000*      5418 	.word	.LDW_4bd8688
00000c21 00             5419 	.byte	0
00000c22 00             5420 	.byte	0
00000c23 0273           5421 	.byte	2,115
00000c25 00             5422 	.byte	0
                        5423 
00000c26 00             5424 	.byte	0
                        5425 
00000c27 00             5426 	.byte	0
                        5427 
                        5428 .LDW_4b765e8:
00000c28 13             5429 	.byte	19
00000c29 736861333834   5430 	.strz	"sha384_init"
00000c2f 5f696e697400 
00000c35 d404           5431 	.byte	212,4
00000c37 06             5432 	.byte	6
00000c38 01             5433 	.byte	1
00000c39 00000000*      5434 	.word	_sha384_init
00000c3d 00000000*      5435 	.word	___ghs_eofn_sha384_init
00000c41 0153           5436 	.byte	1,83
00000c43 02             5437 	.byte	2
00000c44 00             5438 	.byte	0
00000c45 02             5439 	.byte	2
00000c46 00             5440 	.byte	0
00000c47 00             5441 	.byte	0
00000c48 00             5442 	.byte	0
00000c49 00             5443 	.byte	0
00000c4a 01             5444 	.byte	1
00000c4b 01             5445 	.byte	1
00000c4c 00             5446 	.byte	0
00000c4d 01             5447 	.byte	1
                        5448 
                        5449 	.section	.debug_frame
                        5450 .LDW_4d18e20:
00000234 00000000*      5451 	.word	.LDW_unq_1a-.LDW_unq_19
                        5452 .LDW_unq_19:
00000238 00000000*      5453 	.word	.LDW_4b9d680
0000023c 00000000*      5454 	.word	_sha384_init
00000240 00000000*      5455 	.word	___ghs_eofn_sha384_init-_sha384_init

                                                                      Page 95
                                                              C:\Users\nhuliyap\AppData\Local\Temp\gh_0000bnc1.s
00000244 01             5456 	.byte	1
00000245 00000000*      5457 	.word	.LDW13
00000249 00             5458 	.byte	0
0000024a 00             5459 	.byte	0
0000024b 00             5460 	.byte	0
                        5461 .LDW_unq_1a:
                        5462 	.section	.debug_line
000005af 000502         5463 	.byte	0,5,2
000005b2 00000000*      5464 	.word	_sha384_init
000005b6 03             5465 	.byte	3
000005b7 d404           5466 	.byte	212,4
000005b9 02             5467 	.byte	2
000005ba 00             5468 	.byte	0
000005bb 01             5469 	.byte	1
000005bc 06             5470 	.byte	6
000005bd 15             5471 	.byte	21
000005be 02             5472 	.byte	2
000005bf 02             5473 	.byte	2
000005c0 0b             5474 	.byte	11
000005c1 000502         5475 	.byte	0,5,2
000005c4 00000000*      5476 	.word	.LDWlin56
000005c8 03             5477 	.byte	3
000005c9 7f             5478 	.byte	127
000005ca 02             5479 	.byte	2
000005cb 00             5480 	.byte	0
000005cc 01             5481 	.byte	1
000005cd 000502         5482 	.byte	0,5,2
000005d0 00000000*      5483 	.word	.LDWlin57
000005d4 0c             5484 	.byte	12
000005d5 03             5485 	.byte	3
000005d6 08             5486 	.byte	8
000005d7 02             5487 	.byte	2
000005d8 00             5488 	.byte	0
000005d9 01             5489 	.byte	1
000005da 13             5490 	.byte	19
000005db 13             5491 	.byte	19
000005dc 02             5492 	.byte	2
000005dd 02             5493 	.byte	2
000005de 000101         5494 	.byte	0,1,1
                        5495 	.section	.debug_info
                        5496 .LDW_4bd85d8:
00000c4e 0f             5497 	.byte	15
00000c4f 63747800       5498 	.strz	"ctx"
00000c53 d404           5499 	.byte	212,4
00000c55 1e             5500 	.byte	30
00000c56 01             5501 	.byte	1
00000c57 00000000*      5502 	.word	.LDW_28ab7a8
00000c5b 00             5503 	.byte	0
00000c5c 016e           5504 	.byte	1,110
                        5505 
                        5506 .LDW_4b72e08:
00000c5e 1d             5507 	.byte	29
00000c5f 00000000*      5508 	.word	.LDW03
00000c63 00000000*      5509 	.word	.LDW13
                        5510 
                        5511 .LDW_4bd87e8:
00000c67 04             5512 	.byte	4
00000c68 6900           5513 	.strz	"i"
00000c6a d704           5514 	.byte	215,4
00000c6c 09             5515 	.byte	9
00000c6d 01             5516 	.byte	1

                                                                      Page 96
                                                              C:\Users\nhuliyap\AppData\Local\Temp\gh_0000bnc1.s
00000c6e 00000000*      5517 	.word	.LDW_2867068
00000c72 00             5518 	.byte	0
00000c73 00             5519 	.byte	0
00000c74 0161           5520 	.byte	1,97
                        5521 
00000c76 00             5522 	.byte	0
                        5523 
00000c77 00             5524 	.byte	0
                        5525 
                        5526 .LDW_4b75ec8:
00000c78 13             5527 	.byte	19
00000c79 736861333834   5528 	.strz	"sha384_update"
00000c7f 5f7570646174 
00000c85 6500 
00000c87 e604           5529 	.byte	230,4
00000c89 06             5530 	.byte	6
00000c8a 01             5531 	.byte	1
00000c8b 00000000*      5532 	.word	_sha384_update
00000c8f 00000000*      5533 	.word	___ghs_eofn_sha384_update
00000c93 0153           5534 	.byte	1,83
00000c95 828080f80b     5535 	.byte	130,128,128,248,11
00000c9a 1c             5536 	.byte	28
00000c9b 03             5537 	.byte	3
00000c9c 1c             5538 	.byte	28
00000c9d 00             5539 	.byte	0
00000c9e 00             5540 	.byte	0
00000c9f 00             5541 	.byte	0
00000ca0 01             5542 	.byte	1
00000ca1 01             5543 	.byte	1
00000ca2 00             5544 	.byte	0
00000ca3 01             5545 	.byte	1
                        5546 
                        5547 	.section	.debug_frame
                        5548 .LDW_4d19320:
0000024c 00000000*      5549 	.word	.LDW_unq_1c-.LDW_unq_1b
                        5550 .LDW_unq_1b:
00000250 00000000*      5551 	.word	.LDW_4b9d680
00000254 00000000*      5552 	.word	_sha384_update
00000258 00000000*      5553 	.word	___ghs_eofn_sha384_update-_sha384_update
0000025c 44             5554 	.byte	68
0000025d 9f             5555 	.byte	159
0000025e 00             5556 	.byte	0
0000025f 40             5557 	.byte	64
00000260 9d             5558 	.byte	157
00000261 04             5559 	.byte	4
00000262 40             5560 	.byte	64
00000263 9c             5561 	.byte	156
00000264 08             5562 	.byte	8
00000265 40             5563 	.byte	64
00000266 9b             5564 	.byte	155
00000267 0c             5565 	.byte	12
00000268 40             5566 	.byte	64
00000269 9a             5567 	.byte	154
0000026a 10             5568 	.byte	16
0000026b 40             5569 	.byte	64
0000026c 99             5570 	.byte	153
0000026d 14             5571 	.byte	20
0000026e 40             5572 	.byte	64
0000026f 98             5573 	.byte	152
00000270 18             5574 	.byte	24
00000271 01             5575 	.byte	1

                                                                      Page 97
                                                              C:\Users\nhuliyap\AppData\Local\Temp\gh_0000bnc1.s
00000272 00000000*      5576 	.word	.LDW33
00000276 00             5577 	.byte	0
00000277 00             5578 	.byte	0
                        5579 .LDW_unq_1c:
                        5580 	.section	.debug_line
000005e1 000502         5581 	.byte	0,5,2
000005e4 00000000*      5582 	.word	_sha384_update
000005e8 03             5583 	.byte	3
000005e9 e704           5584 	.byte	231,4
000005eb 02             5585 	.byte	2
000005ec 00             5586 	.byte	0
000005ed 01             5587 	.byte	1
000005ee 06             5588 	.byte	6
000005ef 03             5589 	.byte	3
000005f0 06             5590 	.byte	6
000005f1 02             5591 	.byte	2
000005f2 0a             5592 	.byte	10
000005f3 01             5593 	.byte	1
000005f4 4c             5594 	.byte	76
000005f5 000502         5595 	.byte	0,5,2
000005f8 00000000*      5596 	.word	.LDWlin58
000005fc 0c             5597 	.byte	12
000005fd 000502         5598 	.byte	0,5,2
00000600 00000000*      5599 	.word	.LDWlin59
00000604 02             5600 	.byte	2
00000605 00             5601 	.byte	0
00000606 0b             5602 	.byte	11
00000607 1b             5603 	.byte	27
00000608 000502         5604 	.byte	0,5,2
0000060b 00000000*      5605 	.word	.LDWlin60
0000060f 0b             5606 	.byte	11
00000610 02             5607 	.byte	2
00000611 00             5608 	.byte	0
00000612 0c             5609 	.byte	12
00000613 13             5610 	.byte	19
00000614 1c             5611 	.byte	28
00000615 14             5612 	.byte	20
00000616 000502         5613 	.byte	0,5,2
00000619 00000000*      5614 	.word	.LDWlin61
0000061d 0b             5615 	.byte	11
0000061e 000502         5616 	.byte	0,5,2
00000621 00000000*      5617 	.word	.LDWlin62
00000625 03             5618 	.byte	3
00000626 04             5619 	.byte	4
00000627 02             5620 	.byte	2
00000628 00             5621 	.byte	0
00000629 01             5622 	.byte	1
0000062a 03             5623 	.byte	3
0000062b 7e             5624 	.byte	126
0000062c 02             5625 	.byte	2
0000062d 02             5626 	.byte	2
0000062e 01             5627 	.byte	1
0000062f 000502         5628 	.byte	0,5,2
00000632 00000000*      5629 	.word	.LDWlin63
00000636 03             5630 	.byte	3
00000637 05             5631 	.byte	5
00000638 02             5632 	.byte	2
00000639 00             5633 	.byte	0
0000063a 01             5634 	.byte	1
0000063b 13             5635 	.byte	19
0000063c 43             5636 	.byte	67

                                                                      Page 98
                                                              C:\Users\nhuliyap\AppData\Local\Temp\gh_0000bnc1.s
0000063d 02             5637 	.byte	2
0000063e 04             5638 	.byte	4
0000063f 000101         5639 	.byte	0,1,1
                        5640 	.section	.debug_info
                        5641 .LDW_4bd8420:
00000ca4 0f             5642 	.byte	15
00000ca5 63747800       5643 	.strz	"ctx"
00000ca9 e604           5644 	.byte	230,4
00000cab 20             5645 	.byte	32
00000cac 01             5646 	.byte	1
00000cad 00000000*      5647 	.word	.LDW_28ab7a8
00000cb1 00             5648 	.byte	0
00000cb2 016d           5649 	.byte	1,109
                        5650 
                        5651 .LDW_4bd8630:
00000cb4 0f             5652 	.byte	15
00000cb5 6d6573736167   5653 	.strz	"message"
00000cbb 6500 
00000cbd e604           5654 	.byte	230,4
00000cbf 3a             5655 	.byte	58
00000cc0 01             5656 	.byte	1
00000cc1 00000000*      5657 	.word	.LDW_2866f50
00000cc5 00             5658 	.byte	0
00000cc6 0168           5659 	.byte	1,104
                        5660 
                        5661 .LDW_4bd8528:
00000cc8 0f             5662 	.byte	15
00000cc9 6c656e00       5663 	.strz	"len"
00000ccd e704           5664 	.byte	231,4
00000ccf 21             5665 	.byte	33
00000cd0 01             5666 	.byte	1
00000cd1 00000000*      5667 	.word	.LDW_2866d90
00000cd5 00             5668 	.byte	0
00000cd6 016c           5669 	.byte	1,108
                        5670 
                        5671 .LDW_4b73318:
00000cd8 1d             5672 	.byte	29
00000cd9 00000000*      5673 	.word	.LDW23
00000cdd 00000000*      5674 	.word	.LDW33
                        5675 
                        5676 .LDW_4bd84d0:
00000ce1 04             5677 	.byte	4
00000ce2 626c6f636b5f   5678 	.strz	"block_nb"
00000ce8 6e6200 
00000ceb e904           5679 	.byte	233,4
00000ced 12             5680 	.byte	18
00000cee 01             5681 	.byte	1
00000cef 00000000*      5682 	.word	.LDW_2866d90
00000cf3 00             5683 	.byte	0
00000cf4 00             5684 	.byte	0
00000cf5 016b           5685 	.byte	1,107
                        5686 
                        5687 .LDW_4bd8738:
00000cf7 05             5688 	.byte	5
00000cf8 6e65775f6c65   5689 	.strz	"new_len"
00000cfe 6e00 
00000d00 ea04           5690 	.byte	234,4
00000d02 12             5691 	.byte	18
00000d03 01             5692 	.byte	1
00000d04 00000000*      5693 	.word	.LDW_2866d90
00000d08 00             5694 	.byte	0

                                                                      Page 99
                                                              C:\Users\nhuliyap\AppData\Local\Temp\gh_0000bnc1.s
00000d09 00             5695 	.byte	0
                        5696 
                        5697 .LDW_4bd80b0:
00000d0a 04             5698 	.byte	4
00000d0b 72656d5f6c65   5699 	.strz	"rem_len"
00000d11 6e00 
00000d13 ea04           5700 	.byte	234,4
00000d15 1b             5701 	.byte	27
00000d16 01             5702 	.byte	1
00000d17 00000000*      5703 	.word	.LDW_2866d90
00000d1b 00             5704 	.byte	0
00000d1c 00             5705 	.byte	0
00000d1d 016a           5706 	.byte	1,106
                        5707 
                        5708 .LDW_4bd7c90:
00000d1f 05             5709 	.byte	5
00000d20 746d705f6c65   5710 	.strz	"tmp_len"
00000d26 6e00 
00000d28 ea04           5711 	.byte	234,4
00000d2a 24             5712 	.byte	36
00000d2b 01             5713 	.byte	1
00000d2c 00000000*      5714 	.word	.LDW_2866d90
00000d30 00             5715 	.byte	0
00000d31 00             5716 	.byte	0
                        5717 
                        5718 .LDW_4bd82c0:
00000d32 04             5719 	.byte	4
00000d33 736869667465   5720 	.strz	"shifted_message"
00000d39 645f6d657373 
00000d3f 61676500 
00000d43 eb04           5721 	.byte	235,4
00000d45 1a             5722 	.byte	26
00000d46 01             5723 	.byte	1
00000d47 00000000*      5724 	.word	.LDW_2866f50
00000d4b 00             5725 	.byte	0
00000d4c 00             5726 	.byte	0
00000d4d 0169           5727 	.byte	1,105
                        5728 
00000d4f 00             5729 	.byte	0
                        5730 
00000d50 00             5731 	.byte	0
                        5732 
                        5733 .LDW_4b75aa0:
00000d51 13             5734 	.byte	19
00000d52 736861333834   5735 	.strz	"sha384_final"
00000d58 5f66696e616c 
00000d5e 00 
00000d5f 8805           5736 	.byte	136,5
00000d61 06             5737 	.byte	6
00000d62 01             5738 	.byte	1
00000d63 00000000*      5739 	.word	_sha384_final
00000d67 00000000*      5740 	.word	___ghs_eofn_sha384_final
00000d6b 0153           5741 	.byte	1,83
00000d6d 828080f80b     5742 	.byte	130,128,128,248,11
00000d72 1c             5743 	.byte	28
00000d73 03             5744 	.byte	3
00000d74 1c             5745 	.byte	28
00000d75 00             5746 	.byte	0
00000d76 00             5747 	.byte	0
00000d77 00             5748 	.byte	0
00000d78 01             5749 	.byte	1

                                                                      Page 100
                                                              C:\Users\nhuliyap\AppData\Local\Temp\gh_0000bnc1.s
00000d79 01             5750 	.byte	1
00000d7a 00             5751 	.byte	0
00000d7b 01             5752 	.byte	1
                        5753 
                        5754 	.section	.debug_frame
                        5755 .LDW_4d18ca0:
00000278 00000000*      5756 	.word	.LDW_unq_1e-.LDW_unq_1d
                        5757 .LDW_unq_1d:
0000027c 00000000*      5758 	.word	.LDW_4b9d680
00000280 00000000*      5759 	.word	_sha384_final
00000284 00000000*      5760 	.word	___ghs_eofn_sha384_final-_sha384_final
00000288 44             5761 	.byte	68
00000289 9f             5762 	.byte	159
0000028a 00             5763 	.byte	0
0000028b 40             5764 	.byte	64
0000028c 9d             5765 	.byte	157
0000028d 04             5766 	.byte	4
0000028e 40             5767 	.byte	64
0000028f 9c             5768 	.byte	156
00000290 08             5769 	.byte	8
00000291 40             5770 	.byte	64
00000292 9b             5771 	.byte	155
00000293 0c             5772 	.byte	12
00000294 40             5773 	.byte	64
00000295 9a             5774 	.byte	154
00000296 10             5775 	.byte	16
00000297 40             5776 	.byte	64
00000298 99             5777 	.byte	153
00000299 14             5778 	.byte	20
0000029a 40             5779 	.byte	64
0000029b 98             5780 	.byte	152
0000029c 18             5781 	.byte	24
0000029d 01             5782 	.byte	1
0000029e 00000000*      5783 	.word	.LDW53
000002a2 00             5784 	.byte	0
000002a3 00             5785 	.byte	0
                        5786 .LDW_unq_1e:
                        5787 	.section	.debug_line
00000642 000502         5788 	.byte	0,5,2
00000645 00000000*      5789 	.word	_sha384_final
00000649 03             5790 	.byte	3
0000064a 8805           5791 	.byte	136,5
0000064c 02             5792 	.byte	2
0000064d 00             5793 	.byte	0
0000064e 01             5794 	.byte	1
0000064f 06             5795 	.byte	6
00000650 03             5796 	.byte	3
00000651 09             5797 	.byte	9
00000652 02             5798 	.byte	2
00000653 08             5799 	.byte	8
00000654 01             5800 	.byte	1
00000655 1d             5801 	.byte	29
00000656 53             5802 	.byte	83
00000657 1c             5803 	.byte	28
00000658 000502         5804 	.byte	0,5,2
0000065b 00000000*      5805 	.word	.LDWlin64
0000065f 0b             5806 	.byte	11
00000660 2b             5807 	.byte	43
00000661 84             5808 	.byte	132
00000662 000502         5809 	.byte	0,5,2
00000665 00000000*      5810 	.word	.LDWlin65

                                                                      Page 101
                                                              C:\Users\nhuliyap\AppData\Local\Temp\gh_0000bnc1.s
00000669 0d             5811 	.byte	13
0000066a 02             5812 	.byte	2
0000066b 02             5813 	.byte	2
0000066c 0b             5814 	.byte	11
0000066d 000502         5815 	.byte	0,5,2
00000670 00000000*      5816 	.word	.LDWlin66
00000674 03             5817 	.byte	3
00000675 7f             5818 	.byte	127
00000676 02             5819 	.byte	2
00000677 00             5820 	.byte	0
00000678 01             5821 	.byte	1
00000679 000502         5822 	.byte	0,5,2
0000067c 00000000*      5823 	.word	.LDWlin67
00000680 0c             5824 	.byte	12
00000681 03             5825 	.byte	3
00000682 09             5826 	.byte	9
00000683 02             5827 	.byte	2
00000684 00             5828 	.byte	0
00000685 01             5829 	.byte	1
00000686 02             5830 	.byte	2
00000687 04             5831 	.byte	4
00000688 000101         5832 	.byte	0,1,1
                        5833 	.section	.debug_info
                        5834 .LDW_4bd8000:
00000d7c 0f             5835 	.byte	15
00000d7d 63747800       5836 	.strz	"ctx"
00000d81 8805           5837 	.byte	136,5
00000d83 1f             5838 	.byte	31
00000d84 01             5839 	.byte	1
00000d85 00000000*      5840 	.word	.LDW_28ab7a8
00000d89 00             5841 	.byte	0
00000d8a 016b           5842 	.byte	1,107
                        5843 
                        5844 .LDW_4bd81b8:
00000d8c 0f             5845 	.byte	15
00000d8d 646967657374   5846 	.strz	"digest"
00000d93 00 
00000d94 8805           5847 	.byte	136,5
00000d96 33             5848 	.byte	51
00000d97 01             5849 	.byte	1
00000d98 00000000*      5850 	.word	.LDW_28aba48
00000d9c 00             5851 	.byte	0
00000d9d 0168           5852 	.byte	1,104
                        5853 
                        5854 .LDW_4b72e68:
00000d9f 1d             5855 	.byte	29
00000da0 00000000*      5856 	.word	.LDW43
00000da4 00000000*      5857 	.word	.LDW53
                        5858 
                        5859 .LDW_4bd7b88:
00000da8 04             5860 	.byte	4
00000da9 626c6f636b5f   5861 	.strz	"block_nb"
00000daf 6e6200 
00000db2 8a05           5862 	.byte	138,5
00000db4 12             5863 	.byte	18
00000db5 01             5864 	.byte	1
00000db6 00000000*      5865 	.word	.LDW_2866d90
00000dba 00             5866 	.byte	0
00000dbb 00             5867 	.byte	0
00000dbc 0169           5868 	.byte	1,105
                        5869 

                                                                      Page 102
                                                              C:\Users\nhuliyap\AppData\Local\Temp\gh_0000bnc1.s
                        5870 .LDW_4bd7ef8:
00000dbe 05             5871 	.byte	5
00000dbf 706d5f6c656e   5872 	.strz	"pm_len"
00000dc5 00 
00000dc6 8b05           5873 	.byte	139,5
00000dc8 12             5874 	.byte	18
00000dc9 01             5875 	.byte	1
00000dca 00000000*      5876 	.word	.LDW_2866d90
00000dce 00             5877 	.byte	0
00000dcf 00             5878 	.byte	0
                        5879 
                        5880 .LDW_4bd7c38:
00000dd0 04             5881 	.byte	4
00000dd1 6c656e5f6200   5882 	.strz	"len_b"
00000dd7 8c05           5883 	.byte	140,5
00000dd9 12             5884 	.byte	18
00000dda 01             5885 	.byte	1
00000ddb 00000000*      5886 	.word	.LDW_2866d90
00000ddf 00             5887 	.byte	0
00000de0 00             5888 	.byte	0
00000de1 016d           5889 	.byte	1,109
                        5890 
                        5891 .LDW_4bd8318:
00000de3 04             5892 	.byte	4
00000de4 6900           5893 	.strz	"i"
00000de6 8f05           5894 	.byte	143,5
00000de8 09             5895 	.byte	9
00000de9 01             5896 	.byte	1
00000dea 00000000*      5897 	.word	.LDW_2867068
00000dee 00             5898 	.byte	0
00000def 00             5899 	.byte	0
00000df0 015b           5900 	.byte	1,91
                        5901 
00000df2 00             5902 	.byte	0
                        5903 
00000df3 00             5904 	.byte	0
                        5905 
                        5906 .LDW_4b76420:
00000df4 13             5907 	.byte	19
00000df5 736861323234   5908 	.strz	"sha224"
00000dfb 00 
00000dfc ac05           5909 	.byte	172,5
00000dfe 06             5910 	.byte	6
00000dff 01             5911 	.byte	1
00000e00 00000000*      5912 	.word	_sha224
00000e04 00000000*      5913 	.word	___ghs_eofn_sha224
00000e08 0153           5914 	.byte	1,83
00000e0a 828080c00a     5915 	.byte	130,128,128,192,10
00000e0f 10             5916 	.byte	16
00000e10 03             5917 	.byte	3
00000e11 b801           5918 	.byte	184,1
00000e13 00             5919 	.byte	0
00000e14 00             5920 	.byte	0
00000e15 00             5921 	.byte	0
00000e16 01             5922 	.byte	1
00000e17 01             5923 	.byte	1
00000e18 00             5924 	.byte	0
00000e19 01             5925 	.byte	1
                        5926 
                        5927 	.section	.debug_frame
                        5928 .LDW_4d188e0:

                                                                      Page 103
                                                              C:\Users\nhuliyap\AppData\Local\Temp\gh_0000bnc1.s
000002a4 00000000*      5929 	.word	.LDW_unq_20-.LDW_unq_1f
                        5930 .LDW_unq_1f:
000002a8 00000000*      5931 	.word	.LDW_4b9d680
000002ac 00000000*      5932 	.word	_sha224
000002b0 00000000*      5933 	.word	___ghs_eofn_sha224-_sha224
000002b4 44             5934 	.byte	68
000002b5 9f             5935 	.byte	159
000002b6 61             5936 	.byte	97
000002b7 40             5937 	.byte	64
000002b8 9d             5938 	.byte	157
000002b9 65             5939 	.byte	101
000002ba 40             5940 	.byte	64
000002bb 9b             5941 	.byte	155
000002bc 69             5942 	.byte	105
000002bd 01             5943 	.byte	1
000002be 00000000*      5944 	.word	.LDW54
000002c2 44             5945 	.byte	68
000002c3 df             5946 	.byte	223
000002c4 40             5947 	.byte	64
000002c5 dd             5948 	.byte	221
000002c6 40             5949 	.byte	64
000002c7 db             5950 	.byte	219
                        5951 .LDW_unq_20:
                        5952 	.section	.debug_line
0000068b 000502         5953 	.byte	0,5,2
0000068e 00000000*      5954 	.word	_sha224
00000692 03             5955 	.byte	3
00000693 ad05           5956 	.byte	173,5
00000695 02             5957 	.byte	2
00000696 00             5958 	.byte	0
00000697 01             5959 	.byte	1
00000698 06             5960 	.byte	6
00000699 3d             5961 	.byte	61
0000069a 000502         5962 	.byte	0,5,2
0000069d 00000000*      5963 	.word	.LDWlin82
000006a1 0b             5964 	.byte	11
000006a2 000502         5965 	.byte	0,5,2
000006a5 00000000*      5966 	.word	.LDWlin83
000006a9 0b             5967 	.byte	11
000006aa 000502         5968 	.byte	0,5,2
000006ad 00000000*      5969 	.word	.LDWlin84
000006b1 0b             5970 	.byte	11
000006b2 02             5971 	.byte	2
000006b3 08             5972 	.byte	8
000006b4 000101         5973 	.byte	0,1,1
                        5974 	.section	.debug_info
                        5975 .LDW_4bd8108:
00000e1a 0f             5976 	.byte	15
00000e1b 6d6573736167   5977 	.strz	"message"
00000e21 6500 
00000e23 ac05           5978 	.byte	172,5
00000e25 22             5979 	.byte	34
00000e26 01             5980 	.byte	1
00000e27 00000000*      5981 	.word	.LDW_2866f50
00000e2b 00             5982 	.byte	0
00000e2c 016d           5983 	.byte	1,109
                        5984 
                        5985 .LDW_4bd8058:
00000e2e 0f             5986 	.byte	15
00000e2f 6c656e00       5987 	.strz	"len"
00000e33 ac05           5988 	.byte	172,5

                                                                      Page 104
                                                              C:\Users\nhuliyap\AppData\Local\Temp\gh_0000bnc1.s
00000e35 38             5989 	.byte	56
00000e36 01             5990 	.byte	1
00000e37 00000000*      5991 	.word	.LDW_2866d90
00000e3b 00             5992 	.byte	0
00000e3c 016c           5993 	.byte	1,108
                        5994 
                        5995 .LDW_4bd8370:
00000e3e 0f             5996 	.byte	15
00000e3f 646967657374   5997 	.strz	"digest"
00000e45 00 
00000e46 ad05           5998 	.byte	173,5
00000e48 1c             5999 	.byte	28
00000e49 01             6000 	.byte	1
00000e4a 00000000*      6001 	.word	.LDW_28aba48
00000e4e 00             6002 	.byte	0
00000e4f 016b           6003 	.byte	1,107
                        6004 
                        6005 .LDW_4b731c8:
00000e51 1d             6006 	.byte	29
00000e52 00000000*      6007 	.word	.LDW44
00000e56 00000000*      6008 	.word	.LDW54
                        6009 
                        6010 .LDW_4bd7fa8:
00000e5a 04             6011 	.byte	4
00000e5b 63747800       6012 	.strz	"ctx"
00000e5f af05           6013 	.byte	175,5
00000e61 10             6014 	.byte	16
00000e62 01             6015 	.byte	1
00000e63 00000000*      6016 	.word	.LDW_4bd7ce8
00000e67 00             6017 	.byte	0
00000e68 00             6018 	.byte	0
00000e69 0273           6019 	.byte	2,115
00000e6b 00             6020 	.byte	0
                        6021 
00000e6c 00             6022 	.byte	0
                        6023 
00000e6d 00             6024 	.byte	0
                        6025 
                        6026 .LDW_4b76680:
00000e6e 13             6027 	.byte	19
00000e6f 736861323234   6028 	.strz	"sha224_init"
00000e75 5f696e697400 
00000e7b b605           6029 	.byte	182,5
00000e7d 06             6030 	.byte	6
00000e7e 01             6031 	.byte	1
00000e7f 00000000*      6032 	.word	_sha224_init
00000e83 00000000*      6033 	.word	___ghs_eofn_sha224_init
00000e87 0153           6034 	.byte	1,83
00000e89 02             6035 	.byte	2
00000e8a 00             6036 	.byte	0
00000e8b 02             6037 	.byte	2
00000e8c 00             6038 	.byte	0
00000e8d 00             6039 	.byte	0
00000e8e 00             6040 	.byte	0
00000e8f 00             6041 	.byte	0
00000e90 01             6042 	.byte	1
00000e91 01             6043 	.byte	1
00000e92 00             6044 	.byte	0
00000e93 01             6045 	.byte	1
                        6046 
                        6047 	.section	.debug_frame

                                                                      Page 105
                                                              C:\Users\nhuliyap\AppData\Local\Temp\gh_0000bnc1.s
                        6048 .LDW_4d19260:
000002c8 00000000*      6049 	.word	.LDW_unq_22-.LDW_unq_21
                        6050 .LDW_unq_21:
000002cc 00000000*      6051 	.word	.LDW_4b9d680
000002d0 00000000*      6052 	.word	_sha224_init
000002d4 00000000*      6053 	.word	___ghs_eofn_sha224_init-_sha224_init
000002d8 01             6054 	.byte	1
000002d9 00000000*      6055 	.word	.LDW93
000002dd 00             6056 	.byte	0
000002de 00             6057 	.byte	0
000002df 00             6058 	.byte	0
                        6059 .LDW_unq_22:
                        6060 	.section	.debug_line
000006b7 000502         6061 	.byte	0,5,2
000006ba 00000000*      6062 	.word	_sha224_init
000006be 06             6063 	.byte	6
000006bf 03             6064 	.byte	3
000006c0 b905           6065 	.byte	185,5
000006c2 02             6066 	.byte	2
000006c3 00             6067 	.byte	0
000006c4 01             6068 	.byte	1
000006c5 02             6069 	.byte	2
000006c6 02             6070 	.byte	2
000006c7 0b             6071 	.byte	11
000006c8 000502         6072 	.byte	0,5,2
000006cb 00000000*      6073 	.word	.LDWlin71
000006cf 03             6074 	.byte	3
000006d0 7f             6075 	.byte	127
000006d1 02             6076 	.byte	2
000006d2 00             6077 	.byte	0
000006d3 01             6078 	.byte	1
000006d4 000502         6079 	.byte	0,5,2
000006d7 00000000*      6080 	.word	.LDWlin72
000006db 0c             6081 	.byte	12
000006dc 03             6082 	.byte	3
000006dd 08             6083 	.byte	8
000006de 02             6084 	.byte	2
000006df 00             6085 	.byte	0
000006e0 01             6086 	.byte	1
000006e1 1b             6087 	.byte	27
000006e2 13             6088 	.byte	19
000006e3 02             6089 	.byte	2
000006e4 02             6090 	.byte	2
000006e5 000101         6091 	.byte	0,1,1
                        6092 	.section	.debug_info
                        6093 .LDW_4bd8160:
00000e94 0f             6094 	.byte	15
00000e95 63747800       6095 	.strz	"ctx"
00000e99 b605           6096 	.byte	182,5
00000e9b 1e             6097 	.byte	30
00000e9c 01             6098 	.byte	1
00000e9d 00000000*      6099 	.word	.LDW_28ab968
00000ea1 00             6100 	.byte	0
00000ea2 0156           6101 	.byte	1,86
                        6102 
                        6103 .LDW_4b73048:
00000ea4 1d             6104 	.byte	29
00000ea5 00000000*      6105 	.word	.LDW83
00000ea9 00000000*      6106 	.word	.LDW93
                        6107 
                        6108 .LDW_4bd7be0:

                                                                      Page 106
                                                              C:\Users\nhuliyap\AppData\Local\Temp\gh_0000bnc1.s
00000ead 04             6109 	.byte	4
00000eae 6900           6110 	.strz	"i"
00000eb0 b905           6111 	.byte	185,5
00000eb2 09             6112 	.byte	9
00000eb3 01             6113 	.byte	1
00000eb4 00000000*      6114 	.word	.LDW_2867068
00000eb8 00             6115 	.byte	0
00000eb9 00             6116 	.byte	0
00000eba 0161           6117 	.byte	1,97
                        6118 
00000ebc 00             6119 	.byte	0
                        6120 
00000ebd 00             6121 	.byte	0
                        6122 
                        6123 .LDW_4b75b38:
00000ebe 13             6124 	.byte	19
00000ebf 736861323234   6125 	.strz	"sha224_update"
00000ec5 5f7570646174 
00000ecb 6500 
00000ecd c805           6126 	.byte	200,5
00000ecf 06             6127 	.byte	6
00000ed0 01             6128 	.byte	1
00000ed1 00000000*      6129 	.word	_sha224_update
00000ed5 00000000*      6130 	.word	___ghs_eofn_sha224_update
00000ed9 0153           6131 	.byte	1,83
00000edb 828080f80b     6132 	.byte	130,128,128,248,11
00000ee0 1c             6133 	.byte	28
00000ee1 03             6134 	.byte	3
00000ee2 1c             6135 	.byte	28
00000ee3 00             6136 	.byte	0
00000ee4 00             6137 	.byte	0
00000ee5 00             6138 	.byte	0
00000ee6 01             6139 	.byte	1
00000ee7 01             6140 	.byte	1
00000ee8 00             6141 	.byte	0
00000ee9 01             6142 	.byte	1
                        6143 
                        6144 	.section	.debug_frame
                        6145 .LDW_4d191e0:
000002e0 00000000*      6146 	.word	.LDW_unq_24-.LDW_unq_23
                        6147 .LDW_unq_23:
000002e4 00000000*      6148 	.word	.LDW_4b9d680
000002e8 00000000*      6149 	.word	_sha224_update
000002ec 00000000*      6150 	.word	___ghs_eofn_sha224_update-_sha224_update
000002f0 44             6151 	.byte	68
000002f1 9f             6152 	.byte	159
000002f2 00             6153 	.byte	0
000002f3 40             6154 	.byte	64
000002f4 9d             6155 	.byte	157
000002f5 04             6156 	.byte	4
000002f6 40             6157 	.byte	64
000002f7 9c             6158 	.byte	156
000002f8 08             6159 	.byte	8
000002f9 40             6160 	.byte	64
000002fa 9b             6161 	.byte	155
000002fb 0c             6162 	.byte	12
000002fc 40             6163 	.byte	64
000002fd 9a             6164 	.byte	154
000002fe 10             6165 	.byte	16
000002ff 40             6166 	.byte	64
00000300 99             6167 	.byte	153

                                                                      Page 107
                                                              C:\Users\nhuliyap\AppData\Local\Temp\gh_0000bnc1.s
00000301 14             6168 	.byte	20
00000302 40             6169 	.byte	64
00000303 98             6170 	.byte	152
00000304 18             6171 	.byte	24
00000305 01             6172 	.byte	1
00000306 00000000*      6173 	.word	.LDW14
0000030a 00             6174 	.byte	0
0000030b 00             6175 	.byte	0
                        6176 .LDW_unq_24:
                        6177 	.section	.debug_line
000006e8 000502         6178 	.byte	0,5,2
000006eb 00000000*      6179 	.word	_sha224_update
000006ef 03             6180 	.byte	3
000006f0 c905           6181 	.byte	201,5
000006f2 02             6182 	.byte	2
000006f3 00             6183 	.byte	0
000006f4 01             6184 	.byte	1
000006f5 06             6185 	.byte	6
000006f6 03             6186 	.byte	3
000006f7 06             6187 	.byte	6
000006f8 02             6188 	.byte	2
000006f9 0a             6189 	.byte	10
000006fa 01             6190 	.byte	1
000006fb 4c             6191 	.byte	76
000006fc 000502         6192 	.byte	0,5,2
000006ff 00000000*      6193 	.word	.LDWlin73
00000703 0c             6194 	.byte	12
00000704 000502         6195 	.byte	0,5,2
00000707 00000000*      6196 	.word	.LDWlin74
0000070b 02             6197 	.byte	2
0000070c 00             6198 	.byte	0
0000070d 0b             6199 	.byte	11
0000070e 1b             6200 	.byte	27
0000070f 000502         6201 	.byte	0,5,2
00000712 00000000*      6202 	.word	.LDWlin75
00000716 0b             6203 	.byte	11
00000717 02             6204 	.byte	2
00000718 00             6205 	.byte	0
00000719 0c             6206 	.byte	12
0000071a 13             6207 	.byte	19
0000071b 1c             6208 	.byte	28
0000071c 14             6209 	.byte	20
0000071d 000502         6210 	.byte	0,5,2
00000720 00000000*      6211 	.word	.LDWlin76
00000724 0b             6212 	.byte	11
00000725 000502         6213 	.byte	0,5,2
00000728 00000000*      6214 	.word	.LDWlin77
0000072c 03             6215 	.byte	3
0000072d 04             6216 	.byte	4
0000072e 02             6217 	.byte	2
0000072f 00             6218 	.byte	0
00000730 01             6219 	.byte	1
00000731 03             6220 	.byte	3
00000732 7e             6221 	.byte	126
00000733 02             6222 	.byte	2
00000734 02             6223 	.byte	2
00000735 01             6224 	.byte	1
00000736 000502         6225 	.byte	0,5,2
00000739 00000000*      6226 	.word	.LDWlin78
0000073d 03             6227 	.byte	3
0000073e 05             6228 	.byte	5

                                                                      Page 108
                                                              C:\Users\nhuliyap\AppData\Local\Temp\gh_0000bnc1.s
0000073f 02             6229 	.byte	2
00000740 00             6230 	.byte	0
00000741 01             6231 	.byte	1
00000742 13             6232 	.byte	19
00000743 43             6233 	.byte	67
00000744 02             6234 	.byte	2
00000745 04             6235 	.byte	4
00000746 000101         6236 	.byte	0,1,1
                        6237 	.section	.debug_info
                        6238 .LDW_4bd7d98:
00000eea 0f             6239 	.byte	15
00000eeb 63747800       6240 	.strz	"ctx"
00000eef c805           6241 	.byte	200,5
00000ef1 20             6242 	.byte	32
00000ef2 01             6243 	.byte	1
00000ef3 00000000*      6244 	.word	.LDW_28ab968
00000ef7 00             6245 	.byte	0
00000ef8 016d           6246 	.byte	1,109
                        6247 
                        6248 .LDW_4bd7d40:
00000efa 0f             6249 	.byte	15
00000efb 6d6573736167   6250 	.strz	"message"
00000f01 6500 
00000f03 c805           6251 	.byte	200,5
00000f05 3a             6252 	.byte	58
00000f06 01             6253 	.byte	1
00000f07 00000000*      6254 	.word	.LDW_2866f50
00000f0b 00             6255 	.byte	0
00000f0c 0168           6256 	.byte	1,104
                        6257 
                        6258 .LDW_4bd7df0:
00000f0e 0f             6259 	.byte	15
00000f0f 6c656e00       6260 	.strz	"len"
00000f13 c905           6261 	.byte	201,5
00000f15 21             6262 	.byte	33
00000f16 01             6263 	.byte	1
00000f17 00000000*      6264 	.word	.LDW_2866d90
00000f1b 00             6265 	.byte	0
00000f1c 016c           6266 	.byte	1,108
                        6267 
                        6268 .LDW_4b73078:
00000f1e 1d             6269 	.byte	29
00000f1f 00000000*      6270 	.word	.LDW04
00000f23 00000000*      6271 	.word	.LDW14
                        6272 
                        6273 .LDW_4bd7e48:
00000f27 04             6274 	.byte	4
00000f28 626c6f636b5f   6275 	.strz	"block_nb"
00000f2e 6e6200 
00000f31 cb05           6276 	.byte	203,5
00000f33 12             6277 	.byte	18
00000f34 01             6278 	.byte	1
00000f35 00000000*      6279 	.word	.LDW_2866d90
00000f39 00             6280 	.byte	0
00000f3a 00             6281 	.byte	0
00000f3b 016b           6282 	.byte	1,107
                        6283 
                        6284 .LDW_4bd7ea0:
00000f3d 05             6285 	.byte	5
00000f3e 6e65775f6c65   6286 	.strz	"new_len"
00000f44 6e00 

                                                                      Page 109
                                                              C:\Users\nhuliyap\AppData\Local\Temp\gh_0000bnc1.s
00000f46 cc05           6287 	.byte	204,5
00000f48 12             6288 	.byte	18
00000f49 01             6289 	.byte	1
00000f4a 00000000*      6290 	.word	.LDW_2866d90
00000f4e 00             6291 	.byte	0
00000f4f 00             6292 	.byte	0
                        6293 
                        6294 .LDW_4bd8210:
00000f50 04             6295 	.byte	4
00000f51 72656d5f6c65   6296 	.strz	"rem_len"
00000f57 6e00 
00000f59 cc05           6297 	.byte	204,5
00000f5b 1b             6298 	.byte	27
00000f5c 01             6299 	.byte	1
00000f5d 00000000*      6300 	.word	.LDW_2866d90
00000f61 00             6301 	.byte	0
00000f62 00             6302 	.byte	0
00000f63 016a           6303 	.byte	1,106
                        6304 
                        6305 .LDW_4bd8268:
00000f65 05             6306 	.byte	5
00000f66 746d705f6c65   6307 	.strz	"tmp_len"
00000f6c 6e00 
00000f6e cc05           6308 	.byte	204,5
00000f70 24             6309 	.byte	36
00000f71 01             6310 	.byte	1
00000f72 00000000*      6311 	.word	.LDW_2866d90
00000f76 00             6312 	.byte	0
00000f77 00             6313 	.byte	0
                        6314 
                        6315 .LDW_4bd78c8:
00000f78 04             6316 	.byte	4
00000f79 736869667465   6317 	.strz	"shifted_message"
00000f7f 645f6d657373 
00000f85 61676500 
00000f89 cd05           6318 	.byte	205,5
00000f8b 1a             6319 	.byte	26
00000f8c 01             6320 	.byte	1
00000f8d 00000000*      6321 	.word	.LDW_2866f50
00000f91 00             6322 	.byte	0
00000f92 00             6323 	.byte	0
00000f93 0169           6324 	.byte	1,105
                        6325 
00000f95 00             6326 	.byte	0
                        6327 
00000f96 00             6328 	.byte	0
                        6329 
                        6330 .LDW_4b75c68:
00000f97 13             6331 	.byte	19
00000f98 736861323234   6332 	.strz	"sha224_final"
00000f9e 5f66696e616c 
00000fa4 00 
00000fa5 ea05           6333 	.byte	234,5
00000fa7 06             6334 	.byte	6
00000fa8 01             6335 	.byte	1
00000fa9 00000000*      6336 	.word	_sha224_final
00000fad 00000000*      6337 	.word	___ghs_eofn_sha224_final
00000fb1 0153           6338 	.byte	1,83
00000fb3 828080f80b     6339 	.byte	130,128,128,248,11
00000fb8 1c             6340 	.byte	28
00000fb9 03             6341 	.byte	3

                                                                      Page 110
                                                              C:\Users\nhuliyap\AppData\Local\Temp\gh_0000bnc1.s
00000fba 1c             6342 	.byte	28
00000fbb 00             6343 	.byte	0
00000fbc 00             6344 	.byte	0
00000fbd 00             6345 	.byte	0
00000fbe 01             6346 	.byte	1
00000fbf 01             6347 	.byte	1
00000fc0 00             6348 	.byte	0
00000fc1 01             6349 	.byte	1
                        6350 
                        6351 	.section	.debug_frame
                        6352 .LDW_4d192a0:
0000030c 00000000*      6353 	.word	.LDW_unq_26-.LDW_unq_25
                        6354 .LDW_unq_25:
00000310 00000000*      6355 	.word	.LDW_4b9d680
00000314 00000000*      6356 	.word	_sha224_final
00000318 00000000*      6357 	.word	___ghs_eofn_sha224_final-_sha224_final
0000031c 44             6358 	.byte	68
0000031d 9f             6359 	.byte	159
0000031e 00             6360 	.byte	0
0000031f 40             6361 	.byte	64
00000320 9d             6362 	.byte	157
00000321 04             6363 	.byte	4
00000322 40             6364 	.byte	64
00000323 9c             6365 	.byte	156
00000324 08             6366 	.byte	8
00000325 40             6367 	.byte	64
00000326 9b             6368 	.byte	155
00000327 0c             6369 	.byte	12
00000328 40             6370 	.byte	64
00000329 9a             6371 	.byte	154
0000032a 10             6372 	.byte	16
0000032b 40             6373 	.byte	64
0000032c 99             6374 	.byte	153
0000032d 14             6375 	.byte	20
0000032e 40             6376 	.byte	64
0000032f 98             6377 	.byte	152
00000330 18             6378 	.byte	24
00000331 01             6379 	.byte	1
00000332 00000000*      6380 	.word	.LDW34
00000336 00             6381 	.byte	0
00000337 00             6382 	.byte	0
                        6383 .LDW_unq_26:
                        6384 	.section	.debug_line
00000749 000502         6385 	.byte	0,5,2
0000074c 00000000*      6386 	.word	_sha224_final
00000750 03             6387 	.byte	3
00000751 ea05           6388 	.byte	234,5
00000753 02             6389 	.byte	2
00000754 00             6390 	.byte	0
00000755 01             6391 	.byte	1
00000756 06             6392 	.byte	6
00000757 03             6393 	.byte	3
00000758 09             6394 	.byte	9
00000759 02             6395 	.byte	2
0000075a 08             6396 	.byte	8
0000075b 01             6397 	.byte	1
0000075c 1d             6398 	.byte	29
0000075d 53             6399 	.byte	83
0000075e 1c             6400 	.byte	28
0000075f 000502         6401 	.byte	0,5,2
00000762 00000000*      6402 	.word	.LDWlin79

                                                                      Page 111
                                                              C:\Users\nhuliyap\AppData\Local\Temp\gh_0000bnc1.s
00000766 0b             6403 	.byte	11
00000767 2b             6404 	.byte	43
00000768 84             6405 	.byte	132
00000769 000502         6406 	.byte	0,5,2
0000076c 00000000*      6407 	.word	.LDWlin80
00000770 0d             6408 	.byte	13
00000771 02             6409 	.byte	2
00000772 02             6410 	.byte	2
00000773 0b             6411 	.byte	11
00000774 03             6412 	.byte	3
00000775 7f             6413 	.byte	127
00000776 02             6414 	.byte	2
00000777 0e             6415 	.byte	14
00000778 01             6416 	.byte	1
00000779 000502         6417 	.byte	0,5,2
0000077c 00000000*      6418 	.word	.LDWlin81
00000780 0c             6419 	.byte	12
00000781 03             6420 	.byte	3
00000782 0a             6421 	.byte	10
00000783 02             6422 	.byte	2
00000784 00             6423 	.byte	0
00000785 01             6424 	.byte	1
00000786 02             6425 	.byte	2
00000787 04             6426 	.byte	4
00000788 000101         6427 	.byte	0,1,1
                        6428 	.section	.debug_info
                        6429 .LDW_4bd7a80:
00000fc2 0f             6430 	.byte	15
00000fc3 63747800       6431 	.strz	"ctx"
00000fc7 ea05           6432 	.byte	234,5
00000fc9 1f             6433 	.byte	31
00000fca 01             6434 	.byte	1
00000fcb 00000000*      6435 	.word	.LDW_28ab968
00000fcf 00             6436 	.byte	0
00000fd0 016b           6437 	.byte	1,107
                        6438 
                        6439 .LDW_4bd7920:
00000fd2 0f             6440 	.byte	15
00000fd3 646967657374   6441 	.strz	"digest"
00000fd9 00 
00000fda ea05           6442 	.byte	234,5
00000fdc 33             6443 	.byte	51
00000fdd 01             6444 	.byte	1
00000fde 00000000*      6445 	.word	.LDW_28aba48
00000fe2 00             6446 	.byte	0
00000fe3 0168           6447 	.byte	1,104
                        6448 
                        6449 .LDW_4b72fb8:
00000fe5 1d             6450 	.byte	29
00000fe6 00000000*      6451 	.word	.LDW24
00000fea 00000000*      6452 	.word	.LDW34
                        6453 
                        6454 .LDW_4bd7ad8:
00000fee 04             6455 	.byte	4
00000fef 626c6f636b5f   6456 	.strz	"block_nb"
00000ff5 6e6200 
00000ff8 ec05           6457 	.byte	236,5
00000ffa 12             6458 	.byte	18
00000ffb 01             6459 	.byte	1
00000ffc 00000000*      6460 	.word	.LDW_2866d90
00001000 00             6461 	.byte	0

                                                                      Page 112
                                                              C:\Users\nhuliyap\AppData\Local\Temp\gh_0000bnc1.s
00001001 00             6462 	.byte	0
00001002 0169           6463 	.byte	1,105
                        6464 
                        6465 .LDW_4bd7f50:
00001004 05             6466 	.byte	5
00001005 706d5f6c656e   6467 	.strz	"pm_len"
0000100b 00 
0000100c ed05           6468 	.byte	237,5
0000100e 12             6469 	.byte	18
0000100f 01             6470 	.byte	1
00001010 00000000*      6471 	.word	.LDW_2866d90
00001014 00             6472 	.byte	0
00001015 00             6473 	.byte	0
                        6474 
                        6475 .LDW_4bd7978:
00001016 04             6476 	.byte	4
00001017 6c656e5f6200   6477 	.strz	"len_b"
0000101d ee05           6478 	.byte	238,5
0000101f 12             6479 	.byte	18
00001020 01             6480 	.byte	1
00001021 00000000*      6481 	.word	.LDW_2866d90
00001025 00             6482 	.byte	0
00001026 00             6483 	.byte	0
00001027 016d           6484 	.byte	1,109
                        6485 
                        6486 .LDW_4bd7a28:
00001029 04             6487 	.byte	4
0000102a 6900           6488 	.strz	"i"
0000102c f105           6489 	.byte	241,5
0000102e 09             6490 	.byte	9
0000102f 01             6491 	.byte	1
00001030 00000000*      6492 	.word	.LDW_2867068
00001034 00             6493 	.byte	0
00001035 00             6494 	.byte	0
00001036 0161           6495 	.byte	1,97
                        6496 
00001038 00             6497 	.byte	0
                        6498 
00001039 00             6499 	.byte	0
                        6500 
0000103a 00             6501 	.byte	0
                        6502 
                        6503 	.section	.debug_line
                        6504 .Ldw_line_end:
                        6505 	.section	.debug_macinfo
00000000 01             6506 	.byte	1
00000001 00             6507 	.byte	0
00000002 5f5f6768735f   6508 	.strz	"__ghs__ 1"
00000008 5f203100 
0000000c 01             6509 	.byte	1
0000000d 00             6510 	.byte	0
0000000e 5f5f53544443   6511 	.strz	"__STDC__ 0"
00000014 5f5f203000 
00000019 01             6512 	.byte	1
0000001a 00             6513 	.byte	0
0000001b 5f5f53544443   6514 	.strz	"__STDC_VERSION__ 199409L"
00000021 5f5645525349 
00000027 4f4e5f5f2031 
0000002d 39393430394c 
00000033 00 
00000034 01             6515 	.byte	1

                                                                      Page 113
                                                              C:\Users\nhuliyap\AppData\Local\Temp\gh_0000bnc1.s
00000035 00             6516 	.byte	0
00000036 5f5f41545452   6517 	.strz	"__ATTRIBUTES 1"
0000003c 494255544553 
00000042 203100 
00000045 01             6518 	.byte	1
00000046 00             6519 	.byte	0
00000047 5f5f494e545f   6520 	.strz	"__INT_BIT 32"
0000004d 424954203332 
00000053 00 
00000054 01             6521 	.byte	1
00000055 00             6522 	.byte	0
00000056 5f5f5054525f   6523 	.strz	"__PTR_BIT 32"
0000005c 424954203332 
00000062 00 
00000063 01             6524 	.byte	1
00000064 00             6525 	.byte	0
00000065 5f5f4c4c4f4e   6526 	.strz	"__LLONG_BIT 64"
0000006b 475f42495420 
00000071 363400 
00000074 01             6527 	.byte	1
00000075 00             6528 	.byte	0
00000076 5f5f4748535f   6529 	.strz	"__GHS_Inline_String_Functions 1"
0000007c 496e6c696e65 
00000082 5f537472696e 
00000088 675f46756e63 
0000008e 74696f6e7320 
00000094 3100 
00000096 01             6530 	.byte	1
00000097 00             6531 	.byte	0
00000098 5f5f4748535f   6532 	.strz	"__GHS_Inline_Memory_Functions 1"
0000009e 496e6c696e65 
000000a4 5f4d656d6f72 
000000aa 795f46756e63 
000000b0 74696f6e7320 
000000b6 3100 
000000b8 03             6533 	.byte	3
000000b9 00             6534 	.byte	0
000000ba 01             6535 	.byte	1
000000bb 03             6536 	.byte	3
000000bc 07             6537 	.byte	7
000000bd 02             6538 	.byte	2
000000be 01             6539 	.byte	1
000000bf 1d             6540 	.byte	29
000000c0 5f535452494e   6541 	.strz	"_STRING_H "
000000c6 475f482000 
000000cb 03             6542 	.byte	3
000000cc 1e             6543 	.byte	30
000000cd 03             6544 	.byte	3
000000ce 04             6545 	.byte	4
000000cf 01             6546 	.byte	1
000000d0 27             6547 	.byte	39
000000d1 5f5f52657374   6548 	.strz	"__Restrict "
000000d7 726963742000 
000000dd 03             6549 	.byte	3
000000de b001           6550 	.byte	176,1
000000e0 04             6551 	.byte	4
000000e1 01             6552 	.byte	1
000000e2 23             6553 	.byte	35
000000e3 5f5f4748535f   6554 	.strz	"__GHS_EXTERN_INLINE __inline"
000000e9 45585445524e 
000000ef 5f494e4c494e 

                                                                      Page 114
                                                              C:\Users\nhuliyap\AppData\Local\Temp\gh_0000bnc1.s
000000f5 45205f5f696e 
000000fb 6c696e6500 
00000100 01             6555 	.byte	1
00000101 24             6556 	.byte	36
00000102 5f5f4748535f   6557 	.strz	"__GHS_RENAME_MEMFUNCS "
00000108 52454e414d45 
0000010e 5f4d454d4655 
00000114 4e43532000 
00000119 01             6558 	.byte	1
0000011a 2f             6559 	.byte	47
0000011b 5f5f4748535f   6560 	.strz	"__GHS_CONST "
00000121 434f4e535420 
00000127 00 
00000128 01             6561 	.byte	1
00000129 43             6562 	.byte	67
0000012a 5f5f4748535f   6563 	.strz	"__GHS_LOOPS(__GHS_N) if (__GHS_N) do {"
00000130 4c4f4f505328 
00000136 5f5f4748535f 
0000013c 4e2920696620 
00000142 285f5f474853 
00000148 5f4e2920646f 
0000014e 207b00 
00000151 01             6564 	.byte	1
00000152 44             6565 	.byte	68
00000153 5f5f4748535f   6566 	.strz	"__GHS_LOOPE(__GHS_N) } while(--__GHS_N)"
00000159 4c4f4f504528 
0000015f 5f5f4748535f 
00000165 4e29207d2077 
0000016b 68696c65282d 
00000171 2d5f5f474853 
00000177 5f4e2900 
0000017b 01             6567 	.byte	1
0000017c 52             6568 	.byte	82
0000017d 5f5f4748535f   6569 	.strz	"__GHS_INCR(__GHS_P) (__GHS_P-1)"
00000183 494e4352285f 
00000189 5f4748535f50 
0000018f 2920285f5f47 
00000195 48535f502d31 
0000019b 2900 
0000019d 01             6570 	.byte	1
0000019e 53             6571 	.byte	83
0000019f 5f5f4748535f   6572 	.strz	"__GHS_DECR(__GHS_P) __GHS_P"
000001a5 44454352285f 
000001ab 5f4748535f50 
000001b1 29205f5f4748 
000001b7 535f5000 
000001bb 01             6573 	.byte	1
000001bc 54             6574 	.byte	84
000001bd 5f5f4748535f   6575 	.strz	"__GHS_NEXT(__GHS_P) __GHS_P++"
000001c3 4e455854285f 
000001c9 5f4748535f50 
000001cf 29205f5f4748 
000001d5 535f502b2b00 
000001db 01             6576 	.byte	1
000001dc 55             6577 	.byte	85
000001dd 5f5f4748535f   6578 	.strz	"__GHS_PREV(__GHS_P) __GHS_P--"
000001e3 50524556285f 
000001e9 5f4748535f50 
000001ef 29205f5f4748 
000001f5 535f502d2d00 
000001fb 01             6579 	.byte	1

                                                                      Page 115
                                                              C:\Users\nhuliyap\AppData\Local\Temp\gh_0000bnc1.s
000001fc 56             6580 	.byte	86
000001fd 5f5f4748535f   6581 	.strz	"__GHS_LAST(__GHS_P) (__GHS_P-1)"
00000203 4c415354285f 
00000209 5f4748535f50 
0000020f 2920285f5f47 
00000215 48535f502d31 
0000021b 2900 
0000021d 01             6582 	.byte	1
0000021e 64             6583 	.byte	100
0000021f 6d656d636872   6584 	.strz	"memchr(__GHS_CV,__GHS_M,__GHS_n) __ghs_memchr(__GHS_CV, __GHS_M, __GHS_n)"
00000225 285f5f474853 
0000022b 5f43562c5f5f 
00000231 4748535f4d2c 
00000237 5f5f4748535f 
0000023d 6e29205f5f67 
00000243 68735f6d656d 
00000249 636872285f5f 
0000024f 4748535f4356 
00000255 2c205f5f4748 
0000025b 535f4d2c205f 
00000261 5f4748535f6e 
00000267 2900 
00000269 01             6585 	.byte	1
0000026a 79             6586 	.byte	121
0000026b 6d656d636d70   6587 	.strz	"memcmp(__GHS_CV1,__GHS_CV2,__GHS_n) __ghs_memcmp(__GHS_CV1, __GHS_CV2, __GHS_n)"
00000271 285f5f474853 
00000277 5f4356312c5f 
0000027d 5f4748535f43 
00000283 56322c5f5f47 
00000289 48535f6e2920 
0000028f 5f5f6768735f 
00000295 6d656d636d70 
0000029b 285f5f474853 
000002a1 5f4356312c20 
000002a7 5f5f4748535f 
000002ad 4356322c205f 
000002b3 5f4748535f6e 
000002b9 2900 
000002bb 01             6588 	.byte	1
000002bc 8e01           6589 	.byte	142,1
000002be 5f5f4748535f   6590 	.strz	"__GHS_INRANGE(I,L,H) (((unsigned long long) ((I)-(L)))<=((unsigned long long) ((H)-(L))))"
000002c4 494e52414e47 
000002ca 4528492c4c2c 
000002d0 482920282828 
000002d6 756e7369676e 
000002dc 6564206c6f6e 
000002e2 67206c6f6e67 
000002e8 292028284929 
000002ee 2d284c292929 
000002f4 3c3d2828756e 
000002fa 7369676e6564 
00000300 206c6f6e6720 
00000306 6c6f6e672920 
0000030c 282848292d28 
00000312 4c2929292900 
00000318 01             6591 	.byte	1
00000319 9801           6592 	.byte	152,1
0000031b 6d656d6d6f76   6593 	.strz	"memmove(__GHS_R,__GHS_CV,__GHS_n) __ghs_memmove(__GHS_R, __GHS_CV, __GHS_n)"
00000321 65285f5f4748 
00000327 535f522c5f5f 
0000032d 4748535f4356 

                                                                      Page 116
                                                              C:\Users\nhuliyap\AppData\Local\Temp\gh_0000bnc1.s
00000333 2c5f5f474853 
00000339 5f6e29205f5f 
0000033f 6768735f6d65 
00000345 6d6d6f766528 
0000034b 5f5f4748535f 
00000351 522c205f5f47 
00000357 48535f43562c 
0000035d 205f5f474853 
00000363 5f6e2900 
00000367 01             6594 	.byte	1
00000368 9d01           6595 	.byte	157,1
0000036a 5f5f4748535f   6596 	.strz	"__GHS_LOOPS(__GHS_N) do {"
00000370 4c4f4f505328 
00000376 5f5f4748535f 
0000037c 4e2920646f20 
00000382 7b00 
00000384 04             6597 	.byte	4
00000385 03             6598 	.byte	3
00000386 b501           6599 	.byte	181,1
00000388 05             6600 	.byte	5
00000389 01             6601 	.byte	1
0000038a 23             6602 	.byte	35
0000038b 5f5f4748535f   6603 	.strz	"__GHS_EXTERN_INLINE __inline"
00000391 45585445524e 
00000397 5f494e4c494e 
0000039d 45205f5f696e 
000003a3 6c696e6500 
000003a8 01             6604 	.byte	1
000003a9 24             6605 	.byte	36
000003aa 5f5f4748535f   6606 	.strz	"__GHS_RENAME_STRFUNCS "
000003b0 52454e414d45 
000003b6 5f5354524655 
000003bc 4e43532000 
000003c1 01             6607 	.byte	1
000003c2 43             6608 	.byte	67
000003c3 5f5f4748535f   6609 	.strz	"__GHS_LOOPS(__GHS_N) if (__GHS_N) do {"
000003c9 4c4f4f505328 
000003cf 5f5f4748535f 
000003d5 4e2920696620 
000003db 285f5f474853 
000003e1 5f4e2920646f 
000003e7 207b00 
000003ea 01             6610 	.byte	1
000003eb 44             6611 	.byte	68
000003ec 5f5f4748535f   6612 	.strz	"__GHS_LOOPE(__GHS_N) } while(--__GHS_N)"
000003f2 4c4f4f504528 
000003f8 5f5f4748535f 
000003fe 4e29207d2077 
00000404 68696c65282d 
0000040a 2d5f5f474853 
00000410 5f4e2900 
00000414 01             6613 	.byte	1
00000415 52             6614 	.byte	82
00000416 5f5f4748535f   6615 	.strz	"__GHS_DECR(__GHS_P) __GHS_P"
0000041c 44454352285f 
00000422 5f4748535f50 
00000428 29205f5f4748 
0000042e 535f5000 
00000432 01             6616 	.byte	1
00000433 53             6617 	.byte	83
00000434 5f5f4748535f   6618 	.strz	"__GHS_NEXT(__GHS_P) __GHS_P++"

                                                                      Page 117
                                                              C:\Users\nhuliyap\AppData\Local\Temp\gh_0000bnc1.s
0000043a 4e455854285f 
00000440 5f4748535f50 
00000446 29205f5f4748 
0000044c 535f502b2b00 
00000452 01             6619 	.byte	1
00000453 54             6620 	.byte	84
00000454 5f5f4748535f   6621 	.strz	"__GHS_LAST(__GHS_P) (__GHS_P-1)"
0000045a 4c415354285f 
00000460 5f4748535f50 
00000466 2920285f5f47 
0000046c 48535f502d31 
00000472 2900 
00000474 01             6622 	.byte	1
00000475 70             6623 	.byte	112
00000476 737472636872   6624 	.strz	"strchr(__GHS_CS,__GHS_M) __ghs_strchr(__GHS_CS, __GHS_M)"
0000047c 285f5f474853 
00000482 5f43532c5f5f 
00000488 4748535f4d29 
0000048e 205f5f676873 
00000494 5f7374726368 
0000049a 72285f5f4748 
000004a0 535f43532c20 
000004a6 5f5f4748535f 
000004ac 4d2900 
000004af 01             6625 	.byte	1
000004b0 8401           6626 	.byte	132,1
000004b2 737472726368   6627 	.strz	"strrchr(__GHS_CS,__GHS_M) __ghs_strrchr(__GHS_CS, __GHS_M)"
000004b8 72285f5f4748 
000004be 535f43532c5f 
000004c4 5f4748535f4d 
000004ca 29205f5f6768 
000004d0 735f73747272 
000004d6 636872285f5f 
000004dc 4748535f4353 
000004e2 2c205f5f4748 
000004e8 535f4d2900 
000004ed 01             6628 	.byte	1
000004ee ab01           6629 	.byte	171,1
000004f0 7374726e6370   6630 	.strz	"strncpy(__GHS_R,__GHS_CS,__GHS_n) __ghs_strncpy(__GHS_R, __GHS_CS, __GHS_n)"
000004f6 79285f5f4748 
000004fc 535f522c5f5f 
00000502 4748535f4353 
00000508 2c5f5f474853 
0000050e 5f6e29205f5f 
00000514 6768735f7374 
0000051a 726e63707928 
00000520 5f5f4748535f 
00000526 522c205f5f47 
0000052c 48535f43532c 
00000532 205f5f474853 
00000538 5f6e2900 
0000053c 01             6631 	.byte	1
0000053d fd01           6632 	.byte	253,1
0000053f 7374726e636d   6633 	.strz	"strncmp(__GHS_CS1,__GHS_CS2,__GHS_n) __ghs_strncmp(__GHS_CS1, __GHS_CS2, __GHS_n)"
00000545 70285f5f4748 
0000054b 535f4353312c 
00000551 5f5f4748535f 
00000557 4353322c5f5f 
0000055d 4748535f6e29 
00000563 205f5f676873 
00000569 5f7374726e63 

                                                                      Page 118
                                                              C:\Users\nhuliyap\AppData\Local\Temp\gh_0000bnc1.s
0000056f 6d70285f5f47 
00000575 48535f435331 
0000057b 2c205f5f4748 
00000581 535f4353322c 
00000587 205f5f474853 
0000058d 5f6e2900 
00000591 01             6634 	.byte	1
00000592 9602           6635 	.byte	150,2
00000594 737472636174   6636 	.strz	"strcat(__GHS_R,__GHS_CS) __ghs_strcat(__GHS_R, __GHS_CS)"
0000059a 285f5f474853 
000005a0 5f522c5f5f47 
000005a6 48535f435329 
000005ac 205f5f676873 
000005b2 5f7374726361 
000005b8 74285f5f4748 
000005be 535f522c205f 
000005c4 5f4748535f43 
000005ca 532900 
000005cd 01             6637 	.byte	1
000005ce ab02           6638 	.byte	171,2
000005d0 7374726e6361   6639 	.strz	"strncat(__GHS_R,__GHS_CS,__GHS_n) __ghs_strncat(__GHS_R, __GHS_CS, __GHS_n)"
000005d6 74285f5f4748 
000005dc 535f522c5f5f 
000005e2 4748535f4353 
000005e8 2c5f5f474853 
000005ee 5f6e29205f5f 
000005f4 6768735f7374 
000005fa 726e63617428 
00000600 5f5f4748535f 
00000606 522c205f5f47 
0000060c 48535f43532c 
00000612 205f5f474853 
00000618 5f6e2900 
0000061c 01             6640 	.byte	1
0000061d cc02           6641 	.byte	204,2
0000061f 737472737472   6642 	.strz	"strstr(__GHS_CS1,__GHS_CS2) __ghs_strstr(__GHS_CS1, __GHS_CS2)"
00000625 285f5f474853 
0000062b 5f4353312c5f 
00000631 5f4748535f43 
00000637 533229205f5f 
0000063d 6768735f7374 
00000643 72737472285f 
00000649 5f4748535f43 
0000064f 53312c205f5f 
00000655 4748535f4353 
0000065b 322900 
0000065e 04             6643 	.byte	4
0000065f 04             6644 	.byte	4
00000660 03             6645 	.byte	3
00000661 09             6646 	.byte	9
00000662 06             6647 	.byte	6
00000663 01             6648 	.byte	1
00000664 0b             6649 	.byte	11
00000665 534841323536   6650 	.strz	"SHA256_BLOCK_SIZE ( 512 / 8)"
0000066b 5f424c4f434b 
00000671 5f53495a4520 
00000677 282035313220 
0000067d 2f20382900 
00000682 01             6651 	.byte	1
00000683 0c             6652 	.byte	12
00000684 534841353132   6653 	.strz	"SHA512_BLOCK_SIZE (1024 / 8)"

                                                                      Page 119
                                                              C:\Users\nhuliyap\AppData\Local\Temp\gh_0000bnc1.s
0000068a 5f424c4f434b 
00000690 5f53495a4520 
00000696 283130323420 
0000069c 2f20382900 
000006a1 01             6654 	.byte	1
000006a2 0d             6655 	.byte	13
000006a3 534841333834   6656 	.strz	"SHA384_BLOCK_SIZE SHA512_BLOCK_SIZE"
000006a9 5f424c4f434b 
000006af 5f53495a4520 
000006b5 534841353132 
000006bb 5f424c4f434b 
000006c1 5f53495a4500 
000006c7 01             6657 	.byte	1
000006c8 0e             6658 	.byte	14
000006c9 534841323234   6659 	.strz	"SHA224_BLOCK_SIZE SHA256_BLOCK_SIZE"
000006cf 5f424c4f434b 
000006d5 5f53495a4520 
000006db 534841323536 
000006e1 5f424c4f434b 
000006e7 5f53495a4500 
000006ed 03             6660 	.byte	3
000006ee 11             6661 	.byte	17
000006ef 07             6662 	.byte	7
000006f0 03             6663 	.byte	3
000006f1 07             6664 	.byte	7
000006f2 08             6665 	.byte	8
000006f3 03             6666 	.byte	3
000006f4 1c             6667 	.byte	28
000006f5 09             6668 	.byte	9
000006f6 04             6669 	.byte	4
000006f7 03             6670 	.byte	3
000006f8 1d             6671 	.byte	29
000006f9 0a             6672 	.byte	10
000006fa 03             6673 	.byte	3
000006fb 1b             6674 	.byte	27
000006fc 0b             6675 	.byte	11
000006fd 03             6676 	.byte	3
000006fe 54             6677 	.byte	84
000006ff 0c             6678 	.byte	12
00000700 04             6679 	.byte	4
00000701 04             6680 	.byte	4
00000702 04             6681 	.byte	4
00000703 04             6682 	.byte	4
00000704 04             6683 	.byte	4
00000705 04             6684 	.byte	4
00000706 01             6685 	.byte	1
00000707 0b             6686 	.byte	11
00000708 534846522878   6687 	.strz	"SHFR(x,n) (x >> n)"
0000070e 2c6e29202878 
00000714 203e3e206e29 
0000071a 00 
0000071b 01             6688 	.byte	1
0000071c 0c             6689 	.byte	12
0000071d 524f54522878   6690 	.strz	"ROTR(x,n) ((x >> n) | (x << ((sizeof(x) << 3) - n)))"
00000723 2c6e29202828 
00000729 78203e3e206e 
0000072f 29207c202878 
00000735 203c3c202828 
0000073b 73697a656f66 
00000741 287829203c3c 
00000747 203329202d20 

                                                                      Page 120
                                                              C:\Users\nhuliyap\AppData\Local\Temp\gh_0000bnc1.s
0000074d 6e29292900 
00000752 01             6691 	.byte	1
00000753 0e             6692 	.byte	14
00000754 434828782c79   6693 	.strz	"CH(x,y,z) ((x & y) ^ (~x & z))"
0000075a 2c7a29202828 
00000760 782026207929 
00000766 205e20287e78 
0000076c 2026207a2929 
00000772 00 
00000773 01             6694 	.byte	1
00000774 0f             6695 	.byte	15
00000775 4d414a28782c   6696 	.strz	"MAJ(x,y,z) ((x & y) ^ (x & z) ^ (y & z))"
0000077b 792c7a292028 
00000781 287820262079 
00000787 29205e202878 
0000078d 2026207a2920 
00000793 5e2028792026 
00000799 207a292900 
0000079e 01             6697 	.byte	1
0000079f 11             6698 	.byte	17
000007a0 534841323536   6699 	.strz	"SHA256_F1(x) (ROTR(x, 2) ^ ROTR(x, 13) ^ ROTR(x, 22))"
000007a6 5f4631287829 
000007ac 2028524f5452 
000007b2 28782c203229 
000007b8 205e20524f54 
000007be 5228782c2031 
000007c4 3329205e2052 
000007ca 4f545228782c 
000007d0 203232292900 
000007d6 01             6700 	.byte	1
000007d7 12             6701 	.byte	18
000007d8 534841323536   6702 	.strz	"SHA256_F2(x) (ROTR(x, 6) ^ ROTR(x, 11) ^ ROTR(x, 25))"
000007de 5f4632287829 
000007e4 2028524f5452 
000007ea 28782c203629 
000007f0 205e20524f54 
000007f6 5228782c2031 
000007fc 3129205e2052 
00000802 4f545228782c 
00000808 203235292900 
0000080e 01             6703 	.byte	1
0000080f 13             6704 	.byte	19
00000810 534841323536   6705 	.strz	"SHA256_F3(x) (ROTR(x, 7) ^ ROTR(x, 18) ^ SHFR(x, 3))"
00000816 5f4633287829 
0000081c 2028524f5452 
00000822 28782c203729 
00000828 205e20524f54 
0000082e 5228782c2031 
00000834 3829205e2053 
0000083a 48465228782c 
00000840 2033292900 
00000845 01             6706 	.byte	1
00000846 14             6707 	.byte	20
00000847 534841323536   6708 	.strz	"SHA256_F4(x) (ROTR(x, 17) ^ ROTR(x, 19) ^ SHFR(x, 10))"
0000084d 5f4634287829 
00000853 2028524f5452 
00000859 28782c203137 
0000085f 29205e20524f 
00000865 545228782c20 
0000086b 313929205e20 
00000871 534846522878 

                                                                      Page 121
                                                              C:\Users\nhuliyap\AppData\Local\Temp\gh_0000bnc1.s
00000877 2c2031302929 
0000087d 00 
0000087e 01             6709 	.byte	1
0000087f 16             6710 	.byte	22
00000880 534841353132   6711 	.strz	"SHA512_F1(x) (ROTR(x, 28) ^ ROTR(x, 34) ^ ROTR(x, 39))"
00000886 5f4631287829 
0000088c 2028524f5452 
00000892 28782c203238 
00000898 29205e20524f 
0000089e 545228782c20 
000008a4 333429205e20 
000008aa 524f54522878 
000008b0 2c2033392929 
000008b6 00 
000008b7 01             6712 	.byte	1
000008b8 17             6713 	.byte	23
000008b9 534841353132   6714 	.strz	"SHA512_F2(x) (ROTR(x, 14) ^ ROTR(x, 18) ^ ROTR(x, 41))"
000008bf 5f4632287829 
000008c5 2028524f5452 
000008cb 28782c203134 
000008d1 29205e20524f 
000008d7 545228782c20 
000008dd 313829205e20 
000008e3 524f54522878 
000008e9 2c2034312929 
000008ef 00 
000008f0 01             6715 	.byte	1
000008f1 18             6716 	.byte	24
000008f2 534841353132   6717 	.strz	"SHA512_F3(x) (ROTR(x, 1) ^ ROTR(x, 8) ^ SHFR(x, 7))"
000008f8 5f4633287829 
000008fe 2028524f5452 
00000904 28782c203129 
0000090a 205e20524f54 
00000910 5228782c2038 
00000916 29205e205348 
0000091c 465228782c20 
00000922 37292900 
00000926 01             6718 	.byte	1
00000927 19             6719 	.byte	25
00000928 534841353132   6720 	.strz	"SHA512_F4(x) (ROTR(x, 19) ^ ROTR(x, 61) ^ SHFR(x, 6))"
0000092e 5f4634287829 
00000934 2028524f5452 
0000093a 28782c203139 
00000940 29205e20524f 
00000946 545228782c20 
0000094c 363129205e20 
00000952 534846522878 
00000958 2c2036292900 
0000095e 01             6721 	.byte	1
0000095f 1b             6722 	.byte	27
00000960 554e5041434b   6723 	.strz	"UNPACK32(x,str) { *((str) + 3) = (uint8) ((x) ); *((str) + 2) = (uint8) ((x) >> 8); *((str) + 1) = (uint8) ((x) >> 16); *((str) + 0) = (uint8) ((x) >> 24); }"
00000966 333228782c73 
0000096c 747229207b20 
00000972 2a2828737472 
00000978 29202b203329 
0000097e 203d20287569 
00000984 6e7438292028 
0000098a 28782920293b 
00000990 202a28287374 
00000996 7229202b2032 
0000099c 29203d202875 

                                                                      Page 122
                                                              C:\Users\nhuliyap\AppData\Local\Temp\gh_0000bnc1.s
000009a2 696e74382920 
000009a8 28287829203e 
000009ae 3e2038293b20 
000009b4 2a2828737472 
000009ba 29202b203129 
000009c0 203d20287569 
000009c6 6e7438292028 
000009cc 287829203e3e 
000009d2 203136293b20 
000009d8 2a2828737472 
000009de 29202b203029 
000009e4 203d20287569 
000009ea 6e7438292028 
000009f0 287829203e3e 
000009f6 203234293b20 
000009fc 7d00 
000009fe 01             6724 	.byte	1
000009ff 23             6725 	.byte	35
00000a00 5041434b3332   6726 	.strz	"PACK32(str,x) { *(x) = ((uint32) *((str) + 3) ) | ((uint32) *((str) + 2) << 8) | ((uint32) *((str) + 1) << 16) | ((uint32) *((str) + 0) << 24); }"
00000a06 287374722c78 
00000a0c 29207b202a28 
00000a12 7829203d2028 
00000a18 2875696e7433 
00000a1e 3229202a2828 
00000a24 73747229202b 
00000a2a 203329202920 
00000a30 7c2028287569 
00000a36 6e7433322920 
00000a3c 2a2828737472 
00000a42 29202b203229 
00000a48 203c3c203829 
00000a4e 207c20282875 
00000a54 696e74333229 
00000a5a 202a28287374 
00000a60 7229202b2031 
00000a66 29203c3c2031 
00000a6c 3629207c2028 
00000a72 2875696e7433 
00000a78 3229202a2828 
00000a7e 73747229202b 
00000a84 203029203c3c 
00000a8a 203234293b20 
00000a90 7d00 
00000a92 01             6727 	.byte	1
00000a93 2b             6728 	.byte	43
00000a94 554e5041434b   6729 	.byte	85,78,80,65,67,75,54,52,40,120,44,115,116,114,41,32,123,32,42,40,40,115,116,114,41,32,43,32,55,41,32,61,32,40,117,105,110,116,56,41,32,40,40,120,41,32,41,59,32,42,40,40,115,116,114,41,32,43,32,54,41
00000a9a 363428782c73 
00000aa0 747229207b20 
00000aa6 2a2828737472 
00000aac 29202b203729 
00000ab2 203d20287569 
00000ab8 6e7438292028 
00000abe 28782920293b 
00000ac4 202a28287374 
00000aca 7229202b2036 
00000ad0 29 
00000ad1 203d20287569   6730 	.byte	32,61,32,40,117,105,110,116,56,41,32,40,40,120,41,32,62,62,32,56,41,59,32,42,40,40,115,116,114,41,32,43,32,53,41,32,61,32,40,117,105,110,116,56,41,32,40,40,120,41,32,62,62,32,49,54,41,59,32,42,40
00000ad7 6e7438292028 
00000add 287829203e3e 
00000ae3 2038293b202a 
00000ae9 282873747229 

                                                                      Page 123
                                                              C:\Users\nhuliyap\AppData\Local\Temp\gh_0000bnc1.s
00000aef 202b20352920 
00000af5 3d202875696e 
00000afb 743829202828 
00000b01 7829203e3e20 
00000b07 3136293b202a 
00000b0d 28 
00000b0e 287374722920   6731 	.byte	40,115,116,114,41,32,43,32,52,41,32,61,32,40,117,105,110,116,56,41,32,40,40,120,41,32,62,62,32,50,52,41,59,32,42,40,40,115,116,114,41,32,43,32,51,41,32,61,32,40,117,105,110,116,56,41,32,40,40,120,41
00000b14 2b203429203d 
00000b1a 202875696e74 
00000b20 382920282878 
00000b26 29203e3e2032 
00000b2c 34293b202a28 
00000b32 287374722920 
00000b38 2b203329203d 
00000b3e 202875696e74 
00000b44 382920282878 
00000b4a 29 
00000b4b 203e3e203332   6732 	.byte	32,62,62,32,51,50,41,59,32,42,40,40,115,116,114,41,32,43,32,50,41,32,61,32,40,117,105,110,116,56,41,32,40,40,120,41,32,62,62,32,52,48,41,59,32,42,40,40,115,116,114,41,32,43,32,49,41,32,61,32,40
00000b51 293b202a2828 
00000b57 73747229202b 
00000b5d 203229203d20 
00000b63 2875696e7438 
00000b69 292028287829 
00000b6f 203e3e203430 
00000b75 293b202a2828 
00000b7b 73747229202b 
00000b81 203129203d20 
00000b87 28 
00000b88 75696e743829   6733 	.byte	117,105,110,116,56,41,32,40,40,120,41,32,62,62,32,52,56,41,59,32,42,40,40,115,116,114,41,32,43,32,48,41,32,61,32,40,117,105,110,116,56,41,32,40,40,120,41,32,62,62,32,53,54,41,59,32,125,0
00000b8e 202828782920 
00000b94 3e3e20343829 
00000b9a 3b202a282873 
00000ba0 747229202b20 
00000ba6 3029203d2028 
00000bac 75696e743829 
00000bb2 202828782920 
00000bb8 3e3e20353629 
00000bbe 3b207d00 
00000bc2 01             6734 	.byte	1
00000bc3 37             6735 	.byte	55
00000bc4 5041434b3634   6736 	.byte	80,65,67,75,54,52,40,115,116,114,44,120,41,32,123,32,42,40,120,41,32,61,32,40,40,117,105,110,116,54,52,41,32,42,40,40,115,116,114,41,32,43,32,55,41,32,41,32,124,32,40,40,117,105,110,116,54,52,41,32,42
00000bca 287374722c78 
00000bd0 29207b202a28 
00000bd6 7829203d2028 
00000bdc 2875696e7436 
00000be2 3429202a2828 
00000be8 73747229202b 
00000bee 203729202920 
00000bf4 7c2028287569 
00000bfa 6e7436342920 
00000c00 2a 
00000c01 282873747229   6737 	.byte	40,40,115,116,114,41,32,43,32,54,41,32,60,60,32,56,41,32,124,32,40,40,117,105,110,116,54,52,41,32,42,40,40,115,116,114,41,32,43,32,53,41,32,60,60,32,49,54,41,32,124,32,40,40,117,105,110,116,54,52,41
00000c07 202b20362920 
00000c0d 3c3c20382920 
00000c13 7c2028287569 
00000c19 6e7436342920 
00000c1f 2a2828737472 
00000c25 29202b203529 
00000c2b 203c3c203136 
00000c31 29207c202828 
00000c37 75696e743634 

                                                                      Page 124
                                                              C:\Users\nhuliyap\AppData\Local\Temp\gh_0000bnc1.s
00000c3d 29 
00000c3e 202a28287374   6738 	.byte	32,42,40,40,115,116,114,41,32,43,32,52,41,32,60,60,32,50,52,41,32,124,32,40,40,117,105,110,116,54,52,41,32,42,40,40,115,116,114,41,32,43,32,51,41,32,60,60,32,51,50,41,32,124,32,40,40,117,105,110,116
00000c44 7229202b2034 
00000c4a 29203c3c2032 
00000c50 3429207c2028 
00000c56 2875696e7436 
00000c5c 3429202a2828 
00000c62 73747229202b 
00000c68 203329203c3c 
00000c6e 20333229207c 
00000c74 20282875696e 
00000c7a 74 
00000c7b 363429202a28   6739 	.byte	54,52,41,32,42,40,40,115,116,114,41,32,43,32,50,41,32,60,60,32,52,48,41,32,124,32,40,40,117,105,110,116,54,52,41,32,42,40,40,115,116,114,41,32,43,32,49,41,32,60,60,32,52,56,41,32,124,32,40,40,117
00000c81 287374722920 
00000c87 2b203229203c 
00000c8d 3c2034302920 
00000c93 7c2028287569 
00000c99 6e7436342920 
00000c9f 2a2828737472 
00000ca5 29202b203129 
00000cab 203c3c203438 
00000cb1 29207c202828 
00000cb7 75 
00000cb8 696e74363429   6740 	.byte	105,110,116,54,52,41,32,42,40,40,115,116,114,41,32,43,32,48,41,32,60,60,32,53,54,41,59,32,125,0
00000cbe 202a28287374 
00000cc4 7229202b2030 
00000cca 29203c3c2035 
00000cd0 36293b207d00 
00000cd6 01             6741 	.byte	1
00000cd7 43             6742 	.byte	67
00000cd8 534841323536   6743 	.strz	"SHA256_SCR(i) { w[i] = SHA256_F4(w[i - 2]) + w[i - 7] + SHA256_F3(w[i - 15]) + w[i - 16]; }"
00000cde 5f5343522869 
00000ce4 29207b20775b 
00000cea 695d203d2053 
00000cf0 48413235365f 
00000cf6 463428775b69 
00000cfc 202d20325d29 
00000d02 202b20775b69 
00000d08 202d20375d20 
00000d0e 2b2053484132 
00000d14 35365f463328 
00000d1a 775b69202d20 
00000d20 31355d29202b 
00000d26 20775b69202d 
00000d2c 2031365d3b20 
00000d32 7d00 
00000d34 01             6744 	.byte	1
00000d35 49             6745 	.byte	73
00000d36 534841353132   6746 	.strz	"SHA512_SCR(i) { w[i] = SHA512_F4(w[i - 2]) + w[i - 7] + SHA512_F3(w[i - 15]) + w[i - 16]; }"
00000d3c 5f5343522869 
00000d42 29207b20775b 
00000d48 695d203d2053 
00000d4e 48413531325f 
00000d54 463428775b69 
00000d5a 202d20325d29 
00000d60 202b20775b69 
00000d66 202d20375d20 
00000d6c 2b2053484135 
00000d72 31325f463328 
00000d78 775b69202d20 
00000d7e 31355d29202b 

                                                                      Page 125
                                                              C:\Users\nhuliyap\AppData\Local\Temp\gh_0000bnc1.s
00000d84 20775b69202d 
00000d8a 2031365d3b20 
00000d90 7d00 
00000d92 04             6747 	.byte	4
00000d93 00             6748 	.byte	0
                        6749 	.section	.debug_abbrev
00000124 00             6750 	.byte	0
                        6751 	.section	.debug_info
                        6752 .Ldw_end:
                        6753 .rh850_flags REGMODE32,DATA_ALIGN8,GP_FIX,EP_NONFIX,TP_FIX,REG2_RESERVE,G3K,GHS_MISALIGN,SDA_EXTRA_REGS_0
