                                                                      Page 1
                                                              C:\Users\nhuliyap\AppData\Local\Temp\gh_00008941.s
Command Line: C:\ghs\comp_201517\ease850.exe -w -elf -b0 -I../source/common -I../source/ProjectCompiler -I../source/ProjectCfg -I../source/SwcApplTpms -I../source/SwcApplTpms/Intface -I../source/SwcApplEcuM -I../source/SwcServiceEcuM -I../source/SwcServiceNvM -I../source/SwcServiceOs -I../source/SwcServiceStartUp -I../source/McalAdc -I../source/McalDio -I../source/McalGpt -I../source/McalMcu -I../source/McalWdg -I../source/wrappers -I../source/wrappers/McalAta -I../source/McalLin -I../source/McalCan -I../source/wrappers/OS -I../source/McalFls -I../source/EcuabFee -I../source/EcuabMemIf -I../source/wrappers/VStdLib -I../source/wrappers/Crc -I../source/wrappers/FBL_APPL -I../source/wrappers/CAN_MANAGER -I../source/wrappers/NVM_MANAGER -I../source/wrappers/DEM_MANAGER -I../source/wrappers/RDC_MANAGER -I../source/wrappers/ENV_MANAGER -I../source/wrappers/SYS_MANAGER -I../source/wrappers/EcuabCanIf -I../source/wrappers/SwcServiceCanSM -I../source/wrappers/SwcServiceCanTp -I../source/wrappers/SwcServiceCanTp_PreCompile -I../source/wrappers/SwcServiceCom -I../source/wrappers/SwcServiceComM -I../source/wrappers/SwcServiceComStack -I../source/wrappers/SwcServiceDcm -I../source/wrappers/SwcServicePduR -I../source/wrappers/SwcServiceEcuM -I../source/wrappers/Bfx -I../source/wrappers/SwcServiceDem -I../source/SwcServiceDet -I../source/SwcServiceFiM -I../source/wrappers/LibAutosarDiag -I../source/wrappers/rba_BswSrv -I../source/SwcServiceSchM -I../source/wrappers/SwcServiceComM/Integration -I../source/wrappers/SwcServicePduR/Integration -I../source/wrappers/EcuabCanIf/Integration -I../source/wrappers/SwcServiceCom/Integration -I../source/wrappers/SwcServiceCanTp/Integration -I../source/wrappers/SwcServiceEcuM/Integration -I../source/SwcServiceDet/Integration -I../source/wrappers/SwcServiceDcm/Integration -I../source/wrappers/SwcServiceDem/Integration -I../source/SwcServiceFiM/Integration -I../source/wrappers/EcuabCanIf/api -I../source/wrappers/SwcServiceCom/api -I../source/wrappers/SwcServiceComM/api -I../source/wrappers/SwcServicePduR/api -I../source/wrappers/Bfx/api -I../source/SwcServiceDet/api -I../source/SwcServiceFiM/api -I../source/wrappers/LibAutosarDiag/api -I../source/wrappers/rba_BswSrv/api -IC:\ghs\comp_201517\lib\rh850 -cg_underscore -cpu=rh850g3k -no_v850_simd -rh850_fpsimd=none -nomacro -patch_dbo=C:\_ECU2\ECU_Rivian_A1\Target\repo_projects\pRealEcu\cL_LATEST\make\output\objects\SwcApplTpms_Diag.dbo -source=SwcApplTpms_Diag.c -o output\objects\gh_00008941.o -list=output\list\SwcApplTpms_Diag.lst C:\Users\nhuliyap\AppData\Local\Temp\gh_00008941.s 
Original File: C:\Users\nhuliyap\AppData\Local\Temp\gh_00008941.s
Source File: SwcApplTpms_Diag.c
Directory: C:\_ECU2\ECU_Rivian_A1\Target\repo_projects\pRealEcu\cL_LATEST\make
Host OS: Windows
EASE: Copyright (C) 1983-2015 Green Hills Software.  All Rights Reserved.
Release: Compiler v2015.1.7
Build Directory: [Directory] BTOWORKER6:c:/build_2015_1_bto/2015-10-21.2100-2015_1_bto/win32-comp-ecom
Revision: [VCInfo] http://toolsvc/branches/release-branch-70-bto/src@544153 (built by build)
Revision Date: Thu Oct 22 07:50:13 2015

Release Date: Thu Oct 22 09:32:32 2015

                           1 --Driver Command: ccv850 ../source/SwcApplTpms/SwcApplTpms_Diag.c -cpu=rh850
                           2 --		-fhard -ignore_callt_state_in_interrupts -large_sda
                           3 --		-misalign_pack -nofarcalls -nofloatio -no_callt -Ogeneral
                           4 --		-Onounroll -prepare_dispose -registermode=32 -reserve_r2 -sda=0
                           5 --		-shorten_loads -Wshadow --brief_diagnostics --no_commons
                           6 --		--no_wrap_diagnostics --prototype_errors --short_enum -list -G
                           7 --		-dual_debug -dwarf -X5523 -lnk=-no_xda_modifications -D
                           8 --		NOT_READY_FOR_TESTING_OR_DEPLOYMENT -D IBTCM_SW_ANPASSUNGEN -D
                           9 --		BUILD_LORDSTOWN -c -inline_prologue -I../source/common
                          10 --		-I../source/ProjectCompiler -I../source/ProjectCfg
                          11 --		-I../source/SwcApplTpms -I../source/SwcApplTpms/Intface
                          12 --		-I../source/SwcApplEcuM -I../source/SwcServiceEcuM
                          13 --		-I../source/SwcServiceNvM -I../source/SwcServiceOs
                          14 --		-I../source/SwcServiceStartUp -I../source/McalAdc
                          15 --		-I../source/McalDio -I../source/McalGpt -I../source/McalMcu
                          16 --		-I../source/McalWdg -I../source/wrappers
                          17 --		-I../source/wrappers/McalAta -I../source/McalLin
                          18 --		-I../source/McalCan -I../source/wrappers/OS -I../source/McalFls
                          19 --		-I../source/EcuabFee -I../source/EcuabMemIf
                          20 --		-I../source/wrappers/VStdLib -I../source/wrappers
                          21 --		-I../source/wrappers/Crc -I../source/wrappers/FBL_APPL
                          22 --		-I../source/wrappers/CAN_MANAGER -I../source/wrappers/NVM_MANAGER
                          23 --		-I../source/wrappers/DEM_MANAGER -I../source/wrappers/RDC_MANAGER
                          24 --		-I../source/wrappers/ENV_MANAGER -I../source/wrappers/SYS_MANAGER
                          25 --		-I../source/wrappers/EcuabCanIf
                          26 --		-I../source/wrappers/SwcServiceCanSM
                          27 --		-I../source/wrappers/SwcServiceCanTp
                          28 --		-I../source/wrappers/SwcServiceCanTp_PreCompile
                          29 --		-I../source/wrappers/SwcServiceCom
                          30 --		-I../source/wrappers/SwcServiceComM
                          31 --		-I../source/wrappers/SwcServiceComStack
                          32 --		-I../source/wrappers/SwcServiceDcm
                          33 --		-I../source/wrappers/SwcServicePduR
                          34 --		-I../source/wrappers/SwcServiceEcuM -I../source/wrappers/Bfx
                          35 --		-I../source/wrappers/SwcServiceDem -I../source/SwcServiceDet
                          36 --		-I../source/SwcServiceFiM -I../source/wrappers/LibAutosarDiag
                          37 --		-I../source/wrappers/rba_BswSrv -I../source/SwcServiceSchM
                          38 --		-I../source/wrappers/SwcServiceComM/Integration
                          39 --		-I../source/wrappers/SwcServicePduR/Integration
                          40 --		-I../source/wrappers/EcuabCanIf/Integration
                          41 --		-I../source/wrappers/SwcServiceCom/Integration
                          42 --		-I../source/wrappers/SwcServiceCanTp/Integration
                          43 --		-I../source/wrappers/SwcServiceEcuM/Integration
                          44 --		-I../source/SwcServiceDet/Integration
                          45 --		-I../source/wrappers/SwcServiceDcm/Integration
                          46 --		-I../source/wrappers/SwcServiceDem/Integration
                          47 --		-I../source/SwcServiceFiM/Integration
                          48 --		-I../source/wrappers/EcuabCanIf/api
                          49 --		-I../source/wrappers/SwcServiceCom/api
                          50 --		-I../source/wrappers/SwcServiceComM/api

                                                                      Page 2
                                                              C:\Users\nhuliyap\AppData\Local\Temp\gh_00008941.s
                          51 --		-I../source/wrappers/SwcServicePduR/api
                          52 --		-I../source/wrappers/Bfx/api -I../source/SwcServiceDet/api
                          53 --		-I../source/SwcServiceFiM/api
                          54 --		-I../source/wrappers/LibAutosarDiag/api
                          55 --		-I../source/wrappers/rba_BswSrv/api -object_dir=output/objects
                          56 --		-list_dir=output/list
                          57 --Source File:   ../source/SwcApplTpms/SwcApplTpms_Diag.c
                          58 --Directory:     
                          59 --		C:\_ECU2\ECU_Rivian_A1\Target\repo_projects\pRealEcu\cL_LATEST\make
                          60 --Compile Date:  Wed Sep 06 09:45:09 2023
                          61 --Host OS:       Win32
                          62 --Version:       C-RH850 2015.1.7 RELEASE VERSION
                          63 --Release:       Compiler v2015.1.7
                          64 --Revision Date: Thu Oct 22 08:06:12 2015
                          65 --Release Date:  Thu Oct 22 09:34:32 2015
                          66 -- ecom  -g -w -OM
                          67 	.text
                          68 ..bof.C.3A.5C_ECU2.5CECU_Rivian_A1.5CTarget.5Crepo_projects.5CpRealEcu.5CcL_LATEST.5Cmake.5Coutput.5Cobjects.5CSwcApplTpms_Diag...43.3A.5C_ECU2.5CECU_Rivian_A1.5CTarget.5Crepo_projects.5CpRealEcu.5CcL_LATEST.5Cmake..64F82E05..0::
                          69 	.align	2
                          70 ..gh.f.f.1.e.0:
                          71 	.type	..gh.f.f.1.e.0,@object
                          72 	.size	..gh.f.f.1.e.0,0
                          73 	.global	_DIAG__GetWSDataForPosition..C.3A.5C_ECU2.5CECU_Rivian_A1.5CTarget.5Crepo_projects.5CpRealEcu.5CcL_LATEST.5Cmake.5Coutput.5Cobjects.5CSwcApplTpms_Diag.
                          74 _DIAG__GetWSDataForPosition..C.3A.5C_ECU2.5CECU_Rivian_A1.5CTarget.5Crepo_projects.5CpRealEcu.5CcL_LATEST.5Cmake.5Coutput.5Cobjects.5CSwcApplTpms_Diag.:
                          75 _DIAG__GetWSDataForPosition:
00000000 8007e110         76 	prepare	{r27,r28,r29,r31},0
00000004 8600             77 	zxb	r6
00000006 07e8             78 	mov	r7,r29
                          79 --	    .bf
                          80 .LDW01:
00000008 06e0             81 	mov	r6,r28
                          82 	jarl	_ulGetID,lp
                          82 <EXPANSION BEGIN>
                          82 jarl22 _ulGetID , lp 
0000000a 80ff0000*        82 <EXPANSION END>
                          83 --line1073
                          84 ..lin.C.3A.5C_ECU2.5CECU_Rivian_A1.5CTarget.5Crepo_projects.5CpRealEcu.5CcL_LATEST.5Cmake.5Coutput.5Cobjects.5CSwcApplTpms_Diag.1::
                          85 .LDWlin1:
0000000e 0a30             86 	mov	r10,r6
00000010 0a40             87 	mov	r10,r8
00000012 1df0             88 	mov	r29,ep
00000014 0a38             89 	mov	r10,r7
00000016 8832             90 	shr	8,r6
00000018 9842             91 	shr	24,r8
0000001a 903a             92 	shr	16,r7
0000001c 8233             93 	sst.b	r6,2[ep]
0000001e 8043             94 	sst.b	r8,0[ep]
00000020 813b             95 	sst.b	r7,1[ep]
00000022 8353             96 	sst.b	r10,3[ep]
00000024 04da             97 	mov	4,r27
00000026 20361000         98 	movea	16,zero,r6
                          99 	jarl	_bGetBitBetriebszustandBZ,lp
                          99 <EXPANSION BEGIN>
                          99 jarl22 _bGetBitBetriebszustandBZ , lp 
0000002a 80ff0000*        99 <EXPANSION END>
0000002e 6152            100 	cmp	1,r10
00000030 da05*           101 	bne	.L6
                         102 --line1080
                         103 ..lin.C.3A.5C_ECU2.5CECU_Rivian_A1.5CTarget.5Crepo_projects.5CpRealEcu.5CcL_LATEST.5Cmake.5Coutput.5Cobjects.5CSwcApplTpms_Diag.2::
                         104 .LDWlin2:
00000032 1c30            105 	mov	r28,r6

                                                                      Page 3
                                                              C:\Users\nhuliyap\AppData\Local\Temp\gh_00008941.s
                         106 	jarl	_GETucRadpositionPD,lp
                         106 <EXPANSION BEGIN>
                         106 jarl22 _GETucRadpositionPD , lp 
00000034 80ff0000*       106 <EXPANSION END>
00000038 0ad8            107 	mov	r10,r27
                         108 .L6:
                         109 --line1086
                         110 ..lin.C.3A.5C_ECU2.5CECU_Rivian_A1.5CTarget.5Crepo_projects.5CpRealEcu.5CcL_LATEST.5Cmake.5Coutput.5Cobjects.5CSwcApplTpms_Diag.3::
                         111 .LDWlin3:
0000003a 1df0            112 	mov	r29,ep
0000003c 84db            113 	sst.b	r27,4[ep]
0000003e 20deff00        114 	movea	255,zero,r27
00000042 85db            115 	sst.b	r27,5[ep]
00000044 1c30            116 	mov	r28,r6
                         117 	jarl	_GETucReifendruckPD,lp
                         117 <EXPANSION BEGIN>
                         117 jarl22 _GETucReifendruckPD , lp 
00000046 80ff0000*       117 <EXPANSION END>
                         118 --line1093
                         119 ..lin.C.3A.5C_ECU2.5CECU_Rivian_A1.5CTarget.5Crepo_projects.5CpRealEcu.5CcL_LATEST.5Cmake.5Coutput.5Cobjects.5CSwcApplTpms_Diag.4::
                         120 .LDWlin4:
0000004a 1b48            121 	mov	r27,r9
0000004c 0a0607ff        122 	addi	-249,r10,zero
00000050 c105*           123 	bl	.L9
                         124 --line1095
                         125 ..lin.C.3A.5C_ECU2.5CECU_Rivian_A1.5CTarget.5Crepo_projects.5CpRealEcu.5CcL_LATEST.5Cmake.5Coutput.5Cobjects.5CSwcApplTpms_Diag.5::
                         126 .LDWlin5:
00000052 0a4e0200        127 	addi	2,r10,r9
00000056 824a            128 	shr	2,r9
                         129 .L9:
00000058 5d4f0600        130 	st.b	r9,6[r29]
0000005c 1c30            131 	mov	r28,r6
                         132 	jarl	_GETscTemperaturPD,lp
                         132 <EXPANSION BEGIN>
                         132 jarl22 _GETscTemperaturPD , lp 
0000005e 80ff0000*       132 <EXPANSION END>
00000062 0a962800        133 	addi	40,r10,r18
00000066 9200            134 	zxb	r18
                         135 --line1104
                         136 ..lin.C.3A.5C_ECU2.5CECU_Rivian_A1.5CTarget.5Crepo_projects.5CpRealEcu.5CcL_LATEST.5Cmake.5Coutput.5Cobjects.5CSwcApplTpms_Diag.6::
                         137 .LDWlin6:
00000068 120659ff        138 	addi	-167,r18,zero
0000006c fb97224b        139 	cmovl	r27,r18,r9
00000070 5d4f0700        140 	st.b	r9,7[r29]
                         141 	jarl	_GETucVarCodPlacardPressEE,lp
                         141 <EXPANSION BEGIN>
                         141 jarl22 _GETucVarCodPlacardPressEE , lp 
00000074 80ff0000*       141 <EXPANSION END>
                         142 --line1115
                         143 ..lin.C.3A.5C_ECU2.5CECU_Rivian_A1.5CTarget.5Crepo_projects.5CpRealEcu.5CcL_LATEST.5Cmake.5Coutput.5Cobjects.5CSwcApplTpms_Diag.7::
                         144 .LDWlin7:
00000078 0a460200        145 	addi	2,r10,r8
0000007c 8242            146 	shr	2,r8
0000007e 5d470800        147 	st.b	r8,8[r29]
00000082 1c30            148 	mov	r28,r6
                         149 	jarl	_GETucRestlebensdauerPD,lp
                         149 <EXPANSION BEGIN>
                         149 jarl22 _GETucRestlebensdauerPD , lp 
00000084 80ff0000*       149 <EXPANSION END>
00000088 ca4e7f00        150 	andi	127,r10,r9
0000008c 5d4f0900        151 	st.b	r9,9[r29]

                                                                      Page 4
                                                              C:\Users\nhuliyap\AppData\Local\Temp\gh_00008941.s
                         152 --	    .ef
                         153 .LDW11:
                         154 --line1120
                         155 ..lin.C.3A.5C_ECU2.5CECU_Rivian_A1.5CTarget.5Crepo_projects.5CpRealEcu.5CcL_LATEST.5Cmake.5Coutput.5Cobjects.5CSwcApplTpms_Diag.8::
                         156 .LDWlin8:
00000090 4006ff10        157 	dispose	0,{r27,r28,r29,r31},[lp]
                         158 ___ghs_eofn_DIAG__GetWSDataForPosition:
                         159 	.type	_DIAG__GetWSDataForPosition,@function
                         160 	.size	_DIAG__GetWSDataForPosition,.-_DIAG__GetWSDataForPosition
                         161 	.type	_DIAG__GetWSDataForPosition..C.3A.5C_ECU2.5CECU_Rivian_A1.5CTarget.5Crepo_projects.5CpRealEcu.5CcL_LATEST.5Cmake.5Coutput.5Cobjects.5CSwcApplTpms_Diag.,@function
                         162 	.size	_DIAG__GetWSDataForPosition..C.3A.5C_ECU2.5CECU_Rivian_A1.5CTarget.5Crepo_projects.5CpRealEcu.5CcL_LATEST.5Cmake.5Coutput.5Cobjects.5CSwcApplTpms_Diag.,.-_DIAG__GetWSDataForPosition..C.3A.5C_ECU2.5CECU_Rivian_A1.5CTarget.5Crepo_projects.5CpRealEcu.5CcL_LATEST.5Cmake.5Coutput.5Cobjects.5CSwcApplTpms_Diag.
                         163 	.align	2
                         164 --_U8_TempRadPos	r27	local
                         165 --_U8_Temp	r18	local
                         166 --_U8_LocalReifendruckPD	r10	local
                         167 
                         168 --_CU8_PosIndex	r28	param
                         169 --_PU8_InterfaceData	r29	param
                         170 
                         171 	.section ".bss","awb"
                         172 .L104:
                         173 	.type	.L104,@object
                         174 	.size	.L104,0
                         175 	.data
                         176 	.text
                         177 	.align	2
                         178 	.align	2
                         179 	.align	2
                         180 ..gh.f.f.1.e.1:
                         181 	.type	..gh.f.f.1.e.1,@object
                         182 	.size	..gh.f.f.1.e.1,0
                         183 	.global	_DIAG__ReqCallback_ReadWSNr01..C.3A.5C_ECU2.5CECU_Rivian_A1.5CTarget.5Crepo_projects.5CpRealEcu.5CcL_LATEST.5Cmake.5Coutput.5Cobjects.5CSwcApplTpms_Diag.
                         184 _DIAG__ReqCallback_ReadWSNr01..C.3A.5C_ECU2.5CECU_Rivian_A1.5CTarget.5Crepo_projects.5CpRealEcu.5CcL_LATEST.5Cmake.5Coutput.5Cobjects.5CSwcApplTpms_Diag.:
                         185 _DIAG__ReqCallback_ReadWSNr01:
00000094 8007e110        186 	prepare	{r27,r28,r29,r31},0
00000098 06d8            187 	mov	r6,r27
0000009a 3d0600000000*   188 	mov	.L203,r29
                         189 --	    .bf
                         190 .LDW21:
                         191 --line138
                         192 ..lin.C.3A.5C_ECU2.5CECU_Rivian_A1.5CTarget.5Crepo_projects.5CpRealEcu.5CcL_LATEST.5Cmake.5Coutput.5Cobjects.5CSwcApplTpms_Diag.9::
                         193 .LDWlin9:
000000a0 0092            194 	mov	0,r18
                         195 .L165:
000000a2 12f0            196 	mov	r18,ep
000000a4 ddf1            197 	add	r29,ep
000000a6 4192            198 	add	1,r18
000000a8 3de60400        199 	movea	4,r29,r28
000000ac 8403            200 	sst.b	zero,4[ep]
000000ae 1206f0ff        201 	addi	-16,r18,zero
000000b2 89fd*           202 	bnl	.L165
                         203 --line142
                         204 ..lin.C.3A.5C_ECU2.5CECU_Rivian_A1.5CTarget.5Crepo_projects.5CpRealEcu.5CcL_LATEST.5Cmake.5Coutput.5Cobjects.5CSwcApplTpms_Diag.10::
                         205 .LDWlin10:
000000b4 1c38            206 	mov	r28,r7
000000b6 0032            207 	mov	0,r6
                         208 	jarl	_DIAG__GetWSDataForPosition,lp
                         208 <EXPANSION BEGIN>
                         208 jarl22 _DIAG__GetWSDataForPosition , lp 
000000b8 bfff48ff*       208 <EXPANSION END>
                         209 --line144

                                                                      Page 5
                                                              C:\Users\nhuliyap\AppData\Local\Temp\gh_00008941.s
                         210 ..lin.C.3A.5C_ECU2.5CECU_Rivian_A1.5CTarget.5Crepo_projects.5CpRealEcu.5CcL_LATEST.5Cmake.5Coutput.5Cobjects.5CSwcApplTpms_Diag.11::
                         211 .LDWlin11:
000000bc 1bf0            212 	mov	r27,ep
000000be 0a82            213 	mov	10,r16
000000c0 05e5            214 	sst.w	r28,8[ep]
000000c2 7d870000        215 	st.h	r16,0[r29]
000000c6 07ed            216 	sst.w	r29,12[ep]
000000c8 0052            217 	mov	0,r10
                         218 --	    .ef
                         219 .LDW31:
000000ca 4006ff10        220 	dispose	0,{r27,r28,r29,r31},[lp]
                         221 ___ghs_eofn_DIAG__ReqCallback_ReadWSNr01:
                         222 	.type	_DIAG__ReqCallback_ReadWSNr01,@function
                         223 	.size	_DIAG__ReqCallback_ReadWSNr01,.-_DIAG__ReqCallback_ReadWSNr01
                         224 	.type	_DIAG__ReqCallback_ReadWSNr01..C.3A.5C_ECU2.5CECU_Rivian_A1.5CTarget.5Crepo_projects.5CpRealEcu.5CcL_LATEST.5Cmake.5Coutput.5Cobjects.5CSwcApplTpms_Diag.,@function
                         225 	.size	_DIAG__ReqCallback_ReadWSNr01..C.3A.5C_ECU2.5CECU_Rivian_A1.5CTarget.5Crepo_projects.5CpRealEcu.5CcL_LATEST.5Cmake.5Coutput.5Cobjects.5CSwcApplTpms_Diag.,.-_DIAG__ReqCallback_ReadWSNr01..C.3A.5C_ECU2.5CECU_Rivian_A1.5CTarget.5Crepo_projects.5CpRealEcu.5CcL_LATEST.5Cmake.5Coutput.5Cobjects.5CSwcApplTpms_Diag.
                         226 	.align	2
                         227 --_U8_LoopCnt	r18	local
                         228 
                         229 --_PS_MsgContext	r27	param
                         230 
                         231 	.section ".bss","awb"
                         232 	.align	4
                         233 .L203:
                         234 	.type	.L203,@object
                         235 	.size	.L203,0
                         236 	.global	_U16_RespLenght..C.3A.5C_ECU2.5CECU_Rivian_A1.5CTarget.5Crepo_projects.5CpRealEcu.5CcL_LATEST.5Cmake.5Coutput.5Cobjects.5CSwcApplTpms_Diag.
                         237 _U16_RespLenght..C.3A.5C_ECU2.5CECU_Rivian_A1.5CTarget.5Crepo_projects.5CpRealEcu.5CcL_LATEST.5Cmake.5Coutput.5Cobjects.5CSwcApplTpms_Diag.:
00000000 0000            238 _U16_RespLenght:	.space	2
                         239 	.type	_U16_RespLenght..C.3A.5C_ECU2.5CECU_Rivian_A1.5CTarget.5Crepo_projects.5CpRealEcu.5CcL_LATEST.5Cmake.5Coutput.5Cobjects.5CSwcApplTpms_Diag.,@object
                         240 	.size	_U16_RespLenght..C.3A.5C_ECU2.5CECU_Rivian_A1.5CTarget.5Crepo_projects.5CpRealEcu.5CcL_LATEST.5Cmake.5Coutput.5Cobjects.5CSwcApplTpms_Diag.,2
                         241 	.type	_U16_RespLenght,@object
                         242 	.size	_U16_RespLenght,2
00000002 0000            243 	.space	2
                         244 	.global	_AU8_ResData..C.3A.5C_ECU2.5CECU_Rivian_A1.5CTarget.5Crepo_projects.5CpRealEcu.5CcL_LATEST.5Cmake.5Coutput.5Cobjects.5CSwcApplTpms_Diag.
                         245 _AU8_ResData..C.3A.5C_ECU2.5CECU_Rivian_A1.5CTarget.5Crepo_projects.5CpRealEcu.5CcL_LATEST.5Cmake.5Coutput.5Cobjects.5CSwcApplTpms_Diag.:
00000004 000000000000    246 _AU8_ResData:	.space	16
0000000a 000000000000 
00000010 00000000 
                         247 	.type	_AU8_ResData..C.3A.5C_ECU2.5CECU_Rivian_A1.5CTarget.5Crepo_projects.5CpRealEcu.5CcL_LATEST.5Cmake.5Coutput.5Cobjects.5CSwcApplTpms_Diag.,@object
                         248 	.size	_AU8_ResData..C.3A.5C_ECU2.5CECU_Rivian_A1.5CTarget.5Crepo_projects.5CpRealEcu.5CcL_LATEST.5Cmake.5Coutput.5Cobjects.5CSwcApplTpms_Diag.,16
                         249 	.type	_AU8_ResData,@object
                         250 	.size	_AU8_ResData,16
                         251 	.section ".rodata","a"
                         252 	.align	4
                         253 	.global	_DIAG__AS_ReqHandlerArray..C.3A.5C_ECU2.5CECU_Rivian_A1.5CTarget.5Crepo_projects.5CpRealEcu.5CcL_LATEST.5Cmake.5Coutput.5Cobjects.5CSwcApplTpms_Diag.
                         254 _DIAG__AS_ReqHandlerArray..C.3A.5C_ECU2.5CECU_Rivian_A1.5CTarget.5Crepo_projects.5CpRealEcu.5CcL_LATEST.5Cmake.5Coutput.5Cobjects.5CSwcApplTpms_Diag.:
00000000 00              255 _DIAG__AS_ReqHandlerArray:	.space	1
00000001 000000          256 	.space	3
00000004 00000000*       257 	.word	_DIAG__ReqCallback_ReadWSNr01
00000008 01              258 	.byte	1
00000009 000000          259 	.space	3
0000000c 00000000*       260 	.word	_DIAG__ReqCallback_ReadWSNr02
00000010 02              261 	.byte	2
00000011 000000          262 	.space	3
00000014 00000000*       263 	.word	_DIAG__ReqCallback_ReadWSNr03
00000018 03              264 	.byte	3
00000019 000000          265 	.space	3
0000001c 00000000*       266 	.word	_DIAG__ReqCallback_ReadWSNr04
00000020 04              267 	.byte	4
00000021 000000          268 	.space	3

                                                                      Page 6
                                                              C:\Users\nhuliyap\AppData\Local\Temp\gh_00008941.s
00000024 00000000*       269 	.word	_DIAG__ReqCallback_ReadIdFL
00000028 05              270 	.byte	5
00000029 000000          271 	.space	3
0000002c 00000000*       272 	.word	_DIAG__ReqCallback_ReadIdFR
00000030 06              273 	.byte	6
00000031 000000          274 	.space	3
00000034 00000000*       275 	.word	_DIAG__ReqCallback_ReadIdRR
00000038 07              276 	.byte	7
00000039 000000          277 	.space	3
0000003c 00000000*       278 	.word	_DIAG__ReqCallback_ReadIdRL
00000040 08              279 	.byte	8
00000041 000000          280 	.space	3
00000044 00000000*       281 	.word	_DIAG__ReqCallback_ReadLastReceivedWheelSensor
00000048 09              282 	.byte	9
00000049 000000          283 	.space	3
0000004c 00000000*       284 	.word	_DIAG__ReqCallback_WriteWSNr01
00000050 0a              285 	.byte	10
00000051 000000          286 	.space	3
00000054 00000000*       287 	.word	_DIAG__ReqCallback_WriteWSNr02
00000058 0b              288 	.byte	11
00000059 000000          289 	.space	3
0000005c 00000000*       290 	.word	_DIAG__ReqCallback_WriteWSNr03
00000060 0c              291 	.byte	12
00000061 000000          292 	.space	3
00000064 00000000*       293 	.word	_DIAG__ReqCallback_WriteWSNr04
00000068 0d              294 	.byte	13
00000069 000000          295 	.space	3
0000006c 00000000*       296 	.word	_DIAG__ReqCallback_ReadWheelSensorIDs
00000070 0e              297 	.byte	14
00000071 000000          298 	.space	3
00000074 00000000*       299 	.word	_DIAG__ReqCallback_WriteWheelSensorIDs
00000078 0f              300 	.byte	15
00000079 000000          301 	.space	3
0000007c 00000000*       302 	.word	_DIAG__ReqCallback_ReadVehicleSpecificParameters
00000080 10              303 	.byte	16
00000081 000000          304 	.space	3
00000084 00000000*       305 	.word	_DIAG__ReqCallback_WriteVehicleSpecificParameters
00000088 11              306 	.byte	17
00000089 000000          307 	.space	3
0000008c 00000000*       308 	.word	_DIAG__ReqCallback_ReadAutoLearnWSParameters
00000090 12              309 	.byte	18
00000091 000000          310 	.space	3
00000094 00000000*       311 	.word	_DIAG__ReqCallback_WriteAutoLearnWSParameters
00000098 13              312 	.byte	19
00000099 000000          313 	.space	3
0000009c 00000000*       314 	.word	_DIAG__ReqCallback_ReadAdditionalPressureOfMinimumPressure
000000a0 14              315 	.byte	20
000000a1 000000          316 	.space	3
000000a4 00000000*       317 	.word	_DIAG__ReqCallback_WriteAdditionalPressureOfMinimumPressure
000000a8 15              318 	.byte	21
000000a9 000000          319 	.space	3
000000ac 00000000*       320 	.word	_DIAG__ReqCallback_StartEOL_TPMS_TestProcedure
000000b0 16              321 	.byte	22
000000b1 000000          322 	.space	3
000000b4 00000000*       323 	.word	_DIAG__ReqCallback_StopEOL_TPMS_TestProcedure
000000b8 17              324 	.byte	23
000000b9 000000          325 	.space	3
000000bc 00000000*       326 	.word	_DIAG__ReqCallback_RequestResultsEOL_TPMS_TestProcedure
000000c0 18              327 	.byte	24
000000c1 000000          328 	.space	3
000000c4 00000000*       329 	.word	_DIAG__ReqCallback_ReadBCMFaultReason

                                                                      Page 7
                                                              C:\Users\nhuliyap\AppData\Local\Temp\gh_00008941.s
000000c8 19              330 	.byte	25
000000c9 000000          331 	.space	3
000000cc 00000000*       332 	.word	_DIAG__ReqCallback_WriteBCMFaultReason
000000d0 1a              333 	.byte	26
000000d1 000000          334 	.space	3
000000d4 00000000*       335 	.word	_DIAG__ReqCallback_ReadBCMPosition
000000d8 1b              336 	.byte	27
000000d9 000000          337 	.space	3
000000dc 00000000*       338 	.word	_DIAG__ReqCallback_WriteBCMPosition
000000e0 1c              339 	.byte	28
000000e1 000000          340 	.space	3
000000e4 00000000*       341 	.word	_DIAG__ReqCallback_ReadABSTicksValue
000000e8 1d              342 	.byte	29
000000e9 000000          343 	.space	3
000000ec 00000000*       344 	.word	_DIAG__ReqCallback_WriteABSTicksValue
000000f0 1e              345 	.byte	30
000000f1 000000          346 	.space	3
000000f4 00000000*       347 	.word	_DIAG__ReqCallback_ReadRSSINoiseLevel
000000f8 1f              348 	.byte	31
000000f9 000000          349 	.space	3
000000fc 00000000*       350 	.word	_DIAG__ReqCallback_WriteRSSINoiseLevel
00000100 20              351 	.byte	32
00000101 000000          352 	.space	3
00000104 00000000*       353 	.word	_DIAG__ReqCallback_ReadTemperatureWarningThreshold
00000108 21              354 	.byte	33
00000109 000000          355 	.space	3
0000010c 00000000*       356 	.word	_DIAG__ReqCallback_WriteTemperatureWarningThreshold
                         357 	.type	_DIAG__AS_ReqHandlerArray..C.3A.5C_ECU2.5CECU_Rivian_A1.5CTarget.5Crepo_projects.5CpRealEcu.5CcL_LATEST.5Cmake.5Coutput.5Cobjects.5CSwcApplTpms_Diag.,@object
                         358 	.size	_DIAG__AS_ReqHandlerArray..C.3A.5C_ECU2.5CECU_Rivian_A1.5CTarget.5Crepo_projects.5CpRealEcu.5CcL_LATEST.5Cmake.5Coutput.5Cobjects.5CSwcApplTpms_Diag.,272
                         359 	.type	_DIAG__AS_ReqHandlerArray,@object
                         360 	.size	_DIAG__AS_ReqHandlerArray,272
                         361 	.data
                         362 	.text
                         363 	.align	2
                         364 	.align	2
                         365 ..gh.f.f.1.e.2:
                         366 	.type	..gh.f.f.1.e.2,@object
                         367 	.size	..gh.f.f.1.e.2,0
                         368 	.global	_DIAG__ReqCallback_ReadWSNr02..C.3A.5C_ECU2.5CECU_Rivian_A1.5CTarget.5Crepo_projects.5CpRealEcu.5CcL_LATEST.5Cmake.5Coutput.5Cobjects.5CSwcApplTpms_Diag.
                         369 _DIAG__ReqCallback_ReadWSNr02..C.3A.5C_ECU2.5CECU_Rivian_A1.5CTarget.5Crepo_projects.5CpRealEcu.5CcL_LATEST.5Cmake.5Coutput.5Cobjects.5CSwcApplTpms_Diag.:
                         370 _DIAG__ReqCallback_ReadWSNr02:
000000ce 8007e110        371 	prepare	{r27,r28,r29,r31},0
000000d2 06d8            372 	mov	r6,r27
000000d4 3d0600000000*   373 	mov	_U16_RespLenght,r29
                         374 --	    .bf
                         375 .LDW41:
                         376 --line156
                         377 ..lin.C.3A.5C_ECU2.5CECU_Rivian_A1.5CTarget.5Crepo_projects.5CpRealEcu.5CcL_LATEST.5Cmake.5Coutput.5Cobjects.5CSwcApplTpms_Diag.12::
                         378 .LDWlin12:
000000da 0092            379 	mov	0,r18
                         380 .L243:
000000dc 12f0            381 	mov	r18,ep
000000de ddf1            382 	add	r29,ep
000000e0 4192            383 	add	1,r18
000000e2 3de60400        384 	movea	4,r29,r28
000000e6 8403            385 	sst.b	zero,4[ep]
000000e8 1206f0ff        386 	addi	-16,r18,zero
000000ec 89fd*           387 	bnl	.L243
                         388 --line160
                         389 ..lin.C.3A.5C_ECU2.5CECU_Rivian_A1.5CTarget.5Crepo_projects.5CpRealEcu.5CcL_LATEST.5Cmake.5Coutput.5Cobjects.5CSwcApplTpms_Diag.13::
                         390 .LDWlin13:

                                                                      Page 8
                                                              C:\Users\nhuliyap\AppData\Local\Temp\gh_00008941.s
000000ee 1c38            391 	mov	r28,r7
000000f0 0132            392 	mov	1,r6
                         393 	jarl	_DIAG__GetWSDataForPosition,lp
                         393 <EXPANSION BEGIN>
                         393 jarl22 _DIAG__GetWSDataForPosition , lp 
000000f2 bfff0eff*       393 <EXPANSION END>
                         394 --line162
                         395 ..lin.C.3A.5C_ECU2.5CECU_Rivian_A1.5CTarget.5Crepo_projects.5CpRealEcu.5CcL_LATEST.5Cmake.5Coutput.5Cobjects.5CSwcApplTpms_Diag.14::
                         396 .LDWlin14:
000000f6 1bf0            397 	mov	r27,ep
000000f8 0a82            398 	mov	10,r16
000000fa 05e5            399 	sst.w	r28,8[ep]
000000fc 7d870000        400 	st.h	r16,0[r29]
00000100 07ed            401 	sst.w	r29,12[ep]
00000102 0052            402 	mov	0,r10
                         403 --	    .ef
                         404 .LDW51:
00000104 4006ff10        405 	dispose	0,{r27,r28,r29,r31},[lp]
                         406 ___ghs_eofn_DIAG__ReqCallback_ReadWSNr02:
                         407 	.type	_DIAG__ReqCallback_ReadWSNr02,@function
                         408 	.size	_DIAG__ReqCallback_ReadWSNr02,.-_DIAG__ReqCallback_ReadWSNr02
                         409 	.type	_DIAG__ReqCallback_ReadWSNr02..C.3A.5C_ECU2.5CECU_Rivian_A1.5CTarget.5Crepo_projects.5CpRealEcu.5CcL_LATEST.5Cmake.5Coutput.5Cobjects.5CSwcApplTpms_Diag.,@function
                         410 	.size	_DIAG__ReqCallback_ReadWSNr02..C.3A.5C_ECU2.5CECU_Rivian_A1.5CTarget.5Crepo_projects.5CpRealEcu.5CcL_LATEST.5Cmake.5Coutput.5Cobjects.5CSwcApplTpms_Diag.,.-_DIAG__ReqCallback_ReadWSNr02..C.3A.5C_ECU2.5CECU_Rivian_A1.5CTarget.5Crepo_projects.5CpRealEcu.5CcL_LATEST.5Cmake.5Coutput.5Cobjects.5CSwcApplTpms_Diag.
                         411 	.align	2
                         412 --_U8_LoopCnt	r18	local
                         413 
                         414 --_PS_MsgContext	r27	param
                         415 
                         416 	.data
                         417 	.text
                         418 	.align	2
                         419 	.align	2
                         420 ..gh.f.f.1.e.3:
                         421 	.type	..gh.f.f.1.e.3,@object
                         422 	.size	..gh.f.f.1.e.3,0
                         423 	.global	_DIAG__ReqCallback_ReadWSNr03..C.3A.5C_ECU2.5CECU_Rivian_A1.5CTarget.5Crepo_projects.5CpRealEcu.5CcL_LATEST.5Cmake.5Coutput.5Cobjects.5CSwcApplTpms_Diag.
                         424 _DIAG__ReqCallback_ReadWSNr03..C.3A.5C_ECU2.5CECU_Rivian_A1.5CTarget.5Crepo_projects.5CpRealEcu.5CcL_LATEST.5Cmake.5Coutput.5Cobjects.5CSwcApplTpms_Diag.:
                         425 _DIAG__ReqCallback_ReadWSNr03:
00000108 8007e110        426 	prepare	{r27,r28,r29,r31},0
0000010c 06d8            427 	mov	r6,r27
0000010e 3d0600000000*   428 	mov	_U16_RespLenght,r29
                         429 --	    .bf
                         430 .LDW61:
                         431 --line174
                         432 ..lin.C.3A.5C_ECU2.5CECU_Rivian_A1.5CTarget.5Crepo_projects.5CpRealEcu.5CcL_LATEST.5Cmake.5Coutput.5Cobjects.5CSwcApplTpms_Diag.15::
                         433 .LDWlin15:
00000114 0092            434 	mov	0,r18
                         435 .L322:
00000116 12f0            436 	mov	r18,ep
00000118 ddf1            437 	add	r29,ep
0000011a 4192            438 	add	1,r18
0000011c 3de60400        439 	movea	4,r29,r28
00000120 8403            440 	sst.b	zero,4[ep]
00000122 1206f0ff        441 	addi	-16,r18,zero
00000126 89fd*           442 	bnl	.L322
                         443 --line178
                         444 ..lin.C.3A.5C_ECU2.5CECU_Rivian_A1.5CTarget.5Crepo_projects.5CpRealEcu.5CcL_LATEST.5Cmake.5Coutput.5Cobjects.5CSwcApplTpms_Diag.16::
                         445 .LDWlin16:
00000128 1c38            446 	mov	r28,r7
0000012a 0232            447 	mov	2,r6
                         448 	jarl	_DIAG__GetWSDataForPosition,lp

                                                                      Page 9
                                                              C:\Users\nhuliyap\AppData\Local\Temp\gh_00008941.s
                         448 <EXPANSION BEGIN>
                         448 jarl22 _DIAG__GetWSDataForPosition , lp 
0000012c bfffd4fe*       448 <EXPANSION END>
                         449 --line180
                         450 ..lin.C.3A.5C_ECU2.5CECU_Rivian_A1.5CTarget.5Crepo_projects.5CpRealEcu.5CcL_LATEST.5Cmake.5Coutput.5Cobjects.5CSwcApplTpms_Diag.17::
                         451 .LDWlin17:
00000130 1bf0            452 	mov	r27,ep
00000132 0a82            453 	mov	10,r16
00000134 05e5            454 	sst.w	r28,8[ep]
00000136 7d870000        455 	st.h	r16,0[r29]
0000013a 07ed            456 	sst.w	r29,12[ep]
0000013c 0052            457 	mov	0,r10
                         458 --	    .ef
                         459 .LDW71:
0000013e 4006ff10        460 	dispose	0,{r27,r28,r29,r31},[lp]
                         461 ___ghs_eofn_DIAG__ReqCallback_ReadWSNr03:
                         462 	.type	_DIAG__ReqCallback_ReadWSNr03,@function
                         463 	.size	_DIAG__ReqCallback_ReadWSNr03,.-_DIAG__ReqCallback_ReadWSNr03
                         464 	.type	_DIAG__ReqCallback_ReadWSNr03..C.3A.5C_ECU2.5CECU_Rivian_A1.5CTarget.5Crepo_projects.5CpRealEcu.5CcL_LATEST.5Cmake.5Coutput.5Cobjects.5CSwcApplTpms_Diag.,@function
                         465 	.size	_DIAG__ReqCallback_ReadWSNr03..C.3A.5C_ECU2.5CECU_Rivian_A1.5CTarget.5Crepo_projects.5CpRealEcu.5CcL_LATEST.5Cmake.5Coutput.5Cobjects.5CSwcApplTpms_Diag.,.-_DIAG__ReqCallback_ReadWSNr03..C.3A.5C_ECU2.5CECU_Rivian_A1.5CTarget.5Crepo_projects.5CpRealEcu.5CcL_LATEST.5Cmake.5Coutput.5Cobjects.5CSwcApplTpms_Diag.
                         466 	.align	2
                         467 --_U8_LoopCnt	r18	local
                         468 
                         469 --_PS_MsgContext	r27	param
                         470 
                         471 	.data
                         472 	.text
                         473 	.align	2
                         474 	.align	2
                         475 ..gh.f.f.1.e.4:
                         476 	.type	..gh.f.f.1.e.4,@object
                         477 	.size	..gh.f.f.1.e.4,0
                         478 	.global	_DIAG__ReqCallback_ReadWSNr04..C.3A.5C_ECU2.5CECU_Rivian_A1.5CTarget.5Crepo_projects.5CpRealEcu.5CcL_LATEST.5Cmake.5Coutput.5Cobjects.5CSwcApplTpms_Diag.
                         479 _DIAG__ReqCallback_ReadWSNr04..C.3A.5C_ECU2.5CECU_Rivian_A1.5CTarget.5Crepo_projects.5CpRealEcu.5CcL_LATEST.5Cmake.5Coutput.5Cobjects.5CSwcApplTpms_Diag.:
                         480 _DIAG__ReqCallback_ReadWSNr04:
00000142 8007e110        481 	prepare	{r27,r28,r29,r31},0
00000146 06d8            482 	mov	r6,r27
00000148 3d0600000000*   483 	mov	_U16_RespLenght,r29
                         484 --	    .bf
                         485 .LDW81:
                         486 --line192
                         487 ..lin.C.3A.5C_ECU2.5CECU_Rivian_A1.5CTarget.5Crepo_projects.5CpRealEcu.5CcL_LATEST.5Cmake.5Coutput.5Cobjects.5CSwcApplTpms_Diag.18::
                         488 .LDWlin18:
0000014e 0092            489 	mov	0,r18
                         490 .L402:
00000150 12f0            491 	mov	r18,ep
00000152 ddf1            492 	add	r29,ep
00000154 4192            493 	add	1,r18
00000156 3de60400        494 	movea	4,r29,r28
0000015a 8403            495 	sst.b	zero,4[ep]
0000015c 1206f0ff        496 	addi	-16,r18,zero
00000160 89fd*           497 	bnl	.L402
                         498 --line196
                         499 ..lin.C.3A.5C_ECU2.5CECU_Rivian_A1.5CTarget.5Crepo_projects.5CpRealEcu.5CcL_LATEST.5Cmake.5Coutput.5Cobjects.5CSwcApplTpms_Diag.19::
                         500 .LDWlin19:
00000162 1c38            501 	mov	r28,r7
00000164 0332            502 	mov	3,r6
                         503 	jarl	_DIAG__GetWSDataForPosition,lp
                         503 <EXPANSION BEGIN>
                         503 jarl22 _DIAG__GetWSDataForPosition , lp 
00000166 bfff9afe*       503 <EXPANSION END>

                                                                      Page 10
                                                              C:\Users\nhuliyap\AppData\Local\Temp\gh_00008941.s
                         504 --line198
                         505 ..lin.C.3A.5C_ECU2.5CECU_Rivian_A1.5CTarget.5Crepo_projects.5CpRealEcu.5CcL_LATEST.5Cmake.5Coutput.5Cobjects.5CSwcApplTpms_Diag.20::
                         506 .LDWlin20:
0000016a 1bf0            507 	mov	r27,ep
0000016c 0a82            508 	mov	10,r16
0000016e 05e5            509 	sst.w	r28,8[ep]
00000170 7d870000        510 	st.h	r16,0[r29]
00000174 07ed            511 	sst.w	r29,12[ep]
00000176 0052            512 	mov	0,r10
                         513 --	    .ef
                         514 .LDW91:
00000178 4006ff10        515 	dispose	0,{r27,r28,r29,r31},[lp]
                         516 ___ghs_eofn_DIAG__ReqCallback_ReadWSNr04:
                         517 	.type	_DIAG__ReqCallback_ReadWSNr04,@function
                         518 	.size	_DIAG__ReqCallback_ReadWSNr04,.-_DIAG__ReqCallback_ReadWSNr04
                         519 	.type	_DIAG__ReqCallback_ReadWSNr04..C.3A.5C_ECU2.5CECU_Rivian_A1.5CTarget.5Crepo_projects.5CpRealEcu.5CcL_LATEST.5Cmake.5Coutput.5Cobjects.5CSwcApplTpms_Diag.,@function
                         520 	.size	_DIAG__ReqCallback_ReadWSNr04..C.3A.5C_ECU2.5CECU_Rivian_A1.5CTarget.5Crepo_projects.5CpRealEcu.5CcL_LATEST.5Cmake.5Coutput.5Cobjects.5CSwcApplTpms_Diag.,.-_DIAG__ReqCallback_ReadWSNr04..C.3A.5C_ECU2.5CECU_Rivian_A1.5CTarget.5Crepo_projects.5CpRealEcu.5CcL_LATEST.5Cmake.5Coutput.5Cobjects.5CSwcApplTpms_Diag.
                         521 	.align	2
                         522 --_U8_LoopCnt	r18	local
                         523 
                         524 --_PS_MsgContext	r27	param
                         525 
                         526 	.data
                         527 	.text
                         528 	.align	2
                         529 	.align	2
                         530 ..gh.f.f.1.e.5:
                         531 	.type	..gh.f.f.1.e.5,@object
                         532 	.size	..gh.f.f.1.e.5,0
                         533 	.global	_DIAG__GetWsIdForPosition..C.3A.5C_ECU2.5CECU_Rivian_A1.5CTarget.5Crepo_projects.5CpRealEcu.5CcL_LATEST.5Cmake.5Coutput.5Cobjects.5CSwcApplTpms_Diag.
                         534 _DIAG__GetWsIdForPosition..C.3A.5C_ECU2.5CECU_Rivian_A1.5CTarget.5Crepo_projects.5CpRealEcu.5CcL_LATEST.5Cmake.5Coutput.5Cobjects.5CSwcApplTpms_Diag.:
                         535 _DIAG__GetWsIdForPosition:
0000017c 80076100        536 	prepare	{r29,r31},0
00000180 8600            537 	zxb	r6
00000182 07e8            538 	mov	r7,r29
                         539 --	    .bf
                         540 .LDW02:
                         541 	jarl	_ucGetIndexOfHistoryWP,lp
                         541 <EXPANSION BEGIN>
                         541 jarl22 _ucGetIndexOfHistoryWP , lp 
00000184 80ff0000*       541 <EXPANSION END>
00000188 0a30            542 	mov	r10,r6
                         543 	jarl	_ulGetID,lp
                         543 <EXPANSION BEGIN>
                         543 jarl22 _ulGetID , lp 
0000018a 80ff0000*       543 <EXPANSION END>
                         544 --line1131
                         545 ..lin.C.3A.5C_ECU2.5CECU_Rivian_A1.5CTarget.5Crepo_projects.5CpRealEcu.5CcL_LATEST.5Cmake.5Coutput.5Cobjects.5CSwcApplTpms_Diag.21::
                         546 .LDWlin21:
0000018e 0a90            547 	mov	r10,r18
00000190 0a88            548 	mov	r10,r17
00000192 0a80            549 	mov	r10,r16
00000194 9892            550 	shr	24,r18
00000196 1df0            551 	mov	r29,ep
00000198 908a            552 	shr	16,r17
0000019a 8882            553 	shr	8,r16
0000019c 8093            554 	sst.b	r18,0[ep]
0000019e 818b            555 	sst.b	r17,1[ep]
000001a0 8283            556 	sst.b	r16,2[ep]
000001a2 8353            557 	sst.b	r10,3[ep]
                         558 --	    .ef

                                                                      Page 11
                                                              C:\Users\nhuliyap\AppData\Local\Temp\gh_00008941.s
                         559 .LDW12:
000001a4 40067f00        560 	dispose	0,{r29,r31},[lp]
                         561 ___ghs_eofn_DIAG__GetWsIdForPosition:
                         562 	.type	_DIAG__GetWsIdForPosition,@function
                         563 	.size	_DIAG__GetWsIdForPosition,.-_DIAG__GetWsIdForPosition
                         564 	.type	_DIAG__GetWsIdForPosition..C.3A.5C_ECU2.5CECU_Rivian_A1.5CTarget.5Crepo_projects.5CpRealEcu.5CcL_LATEST.5Cmake.5Coutput.5Cobjects.5CSwcApplTpms_Diag.,@function
                         565 	.size	_DIAG__GetWsIdForPosition..C.3A.5C_ECU2.5CECU_Rivian_A1.5CTarget.5Crepo_projects.5CpRealEcu.5CcL_LATEST.5Cmake.5Coutput.5Cobjects.5CSwcApplTpms_Diag.,.-_DIAG__GetWsIdForPosition..C.3A.5C_ECU2.5CECU_Rivian_A1.5CTarget.5Crepo_projects.5CpRealEcu.5CcL_LATEST.5Cmake.5Coutput.5Cobjects.5CSwcApplTpms_Diag.
                         566 	.align	2
                         567 
                         568 --_CU8_PosIndex	r6	param
                         569 --_PU8_InterfaceData	r29	param
                         570 
                         571 	.section ".bss","awb"
                         572 .L500:
                         573 	.type	.L500,@object
                         574 	.size	.L500,0
                         575 	.data
                         576 	.text
                         577 	.align	2
                         578 	.align	2
                         579 ..gh.f.f.1.e.6:
                         580 	.type	..gh.f.f.1.e.6,@object
                         581 	.size	..gh.f.f.1.e.6,0
                         582 	.global	_DIAG__ReqCallback_ReadIdFL..C.3A.5C_ECU2.5CECU_Rivian_A1.5CTarget.5Crepo_projects.5CpRealEcu.5CcL_LATEST.5Cmake.5Coutput.5Cobjects.5CSwcApplTpms_Diag.
                         583 _DIAG__ReqCallback_ReadIdFL..C.3A.5C_ECU2.5CECU_Rivian_A1.5CTarget.5Crepo_projects.5CpRealEcu.5CcL_LATEST.5Cmake.5Coutput.5Cobjects.5CSwcApplTpms_Diag.:
                         584 _DIAG__ReqCallback_ReadIdFL:
000001a8 8007e110        585 	prepare	{r27,r28,r29,r31},0
000001ac 06d8            586 	mov	r6,r27
000001ae 3d0600000000*   587 	mov	_U16_RespLenght,r29
                         588 --	    .bf
                         589 .LDW22:
                         590 --line210
                         591 ..lin.C.3A.5C_ECU2.5CECU_Rivian_A1.5CTarget.5Crepo_projects.5CpRealEcu.5CcL_LATEST.5Cmake.5Coutput.5Cobjects.5CSwcApplTpms_Diag.22::
                         592 .LDWlin22:
000001b4 0092            593 	mov	0,r18
                         594 .L522:
000001b6 12f0            595 	mov	r18,ep
000001b8 ddf1            596 	add	r29,ep
000001ba 4192            597 	add	1,r18
000001bc 3de60400        598 	movea	4,r29,r28
000001c0 8403            599 	sst.b	zero,4[ep]
000001c2 1206f0ff        600 	addi	-16,r18,zero
000001c6 89fd*           601 	bnl	.L522
                         602 --line215
                         603 ..lin.C.3A.5C_ECU2.5CECU_Rivian_A1.5CTarget.5Crepo_projects.5CpRealEcu.5CcL_LATEST.5Cmake.5Coutput.5Cobjects.5CSwcApplTpms_Diag.23::
                         604 .LDWlin23:
000001c8 1c38            605 	mov	r28,r7
000001ca 0032            606 	mov	0,r6
                         607 	jarl	_DIAG__GetWsIdForPosition,lp
                         607 <EXPANSION BEGIN>
                         607 jarl22 _DIAG__GetWsIdForPosition , lp 
000001cc bfffb0ff*       607 <EXPANSION END>
                         608 --line217
                         609 ..lin.C.3A.5C_ECU2.5CECU_Rivian_A1.5CTarget.5Crepo_projects.5CpRealEcu.5CcL_LATEST.5Cmake.5Coutput.5Cobjects.5CSwcApplTpms_Diag.24::
                         610 .LDWlin24:
000001d0 1bf0            611 	mov	r27,ep
000001d2 0482            612 	mov	4,r16
000001d4 05e5            613 	sst.w	r28,8[ep]
000001d6 7d870000        614 	st.h	r16,0[r29]
000001da 07ed            615 	sst.w	r29,12[ep]
000001dc 0052            616 	mov	0,r10

                                                                      Page 12
                                                              C:\Users\nhuliyap\AppData\Local\Temp\gh_00008941.s
                         617 --	    .ef
                         618 .LDW32:
000001de 4006ff10        619 	dispose	0,{r27,r28,r29,r31},[lp]
                         620 ___ghs_eofn_DIAG__ReqCallback_ReadIdFL:
                         621 	.type	_DIAG__ReqCallback_ReadIdFL,@function
                         622 	.size	_DIAG__ReqCallback_ReadIdFL,.-_DIAG__ReqCallback_ReadIdFL
                         623 	.type	_DIAG__ReqCallback_ReadIdFL..C.3A.5C_ECU2.5CECU_Rivian_A1.5CTarget.5Crepo_projects.5CpRealEcu.5CcL_LATEST.5Cmake.5Coutput.5Cobjects.5CSwcApplTpms_Diag.,@function
                         624 	.size	_DIAG__ReqCallback_ReadIdFL..C.3A.5C_ECU2.5CECU_Rivian_A1.5CTarget.5Crepo_projects.5CpRealEcu.5CcL_LATEST.5Cmake.5Coutput.5Cobjects.5CSwcApplTpms_Diag.,.-_DIAG__ReqCallback_ReadIdFL..C.3A.5C_ECU2.5CECU_Rivian_A1.5CTarget.5Crepo_projects.5CpRealEcu.5CcL_LATEST.5Cmake.5Coutput.5Cobjects.5CSwcApplTpms_Diag.
                         625 	.align	2
                         626 --_U8_LoopCnt	r18	local
                         627 
                         628 --_PS_MsgContext	r27	param
                         629 
                         630 	.data
                         631 	.text
                         632 	.align	2
                         633 	.align	2
                         634 ..gh.f.f.1.e.7:
                         635 	.type	..gh.f.f.1.e.7,@object
                         636 	.size	..gh.f.f.1.e.7,0
                         637 	.global	_DIAG__ReqCallback_ReadIdFR..C.3A.5C_ECU2.5CECU_Rivian_A1.5CTarget.5Crepo_projects.5CpRealEcu.5CcL_LATEST.5Cmake.5Coutput.5Cobjects.5CSwcApplTpms_Diag.
                         638 _DIAG__ReqCallback_ReadIdFR..C.3A.5C_ECU2.5CECU_Rivian_A1.5CTarget.5Crepo_projects.5CpRealEcu.5CcL_LATEST.5Cmake.5Coutput.5Cobjects.5CSwcApplTpms_Diag.:
                         639 _DIAG__ReqCallback_ReadIdFR:
000001e2 8007e110        640 	prepare	{r27,r28,r29,r31},0
000001e6 06d8            641 	mov	r6,r27
000001e8 3d0600000000*   642 	mov	_U16_RespLenght,r29
                         643 --	    .bf
                         644 .LDW42:
                         645 --line229
                         646 ..lin.C.3A.5C_ECU2.5CECU_Rivian_A1.5CTarget.5Crepo_projects.5CpRealEcu.5CcL_LATEST.5Cmake.5Coutput.5Cobjects.5CSwcApplTpms_Diag.25::
                         647 .LDWlin25:
000001ee 0092            648 	mov	0,r18
                         649 .L594:
000001f0 12f0            650 	mov	r18,ep
000001f2 ddf1            651 	add	r29,ep
000001f4 4192            652 	add	1,r18
000001f6 3de60400        653 	movea	4,r29,r28
000001fa 8403            654 	sst.b	zero,4[ep]
000001fc 1206f0ff        655 	addi	-16,r18,zero
00000200 89fd*           656 	bnl	.L594
                         657 --line234
                         658 ..lin.C.3A.5C_ECU2.5CECU_Rivian_A1.5CTarget.5Crepo_projects.5CpRealEcu.5CcL_LATEST.5Cmake.5Coutput.5Cobjects.5CSwcApplTpms_Diag.26::
                         659 .LDWlin26:
00000202 1c38            660 	mov	r28,r7
00000204 0132            661 	mov	1,r6
                         662 	jarl	_DIAG__GetWsIdForPosition,lp
                         662 <EXPANSION BEGIN>
                         662 jarl22 _DIAG__GetWsIdForPosition , lp 
00000206 bfff76ff*       662 <EXPANSION END>
                         663 --line236
                         664 ..lin.C.3A.5C_ECU2.5CECU_Rivian_A1.5CTarget.5Crepo_projects.5CpRealEcu.5CcL_LATEST.5Cmake.5Coutput.5Cobjects.5CSwcApplTpms_Diag.27::
                         665 .LDWlin27:
0000020a 1bf0            666 	mov	r27,ep
0000020c 0482            667 	mov	4,r16
0000020e 05e5            668 	sst.w	r28,8[ep]
00000210 7d870000        669 	st.h	r16,0[r29]
00000214 07ed            670 	sst.w	r29,12[ep]
00000216 0052            671 	mov	0,r10
                         672 --	    .ef
                         673 .LDW52:
00000218 4006ff10        674 	dispose	0,{r27,r28,r29,r31},[lp]

                                                                      Page 13
                                                              C:\Users\nhuliyap\AppData\Local\Temp\gh_00008941.s
                         675 ___ghs_eofn_DIAG__ReqCallback_ReadIdFR:
                         676 	.type	_DIAG__ReqCallback_ReadIdFR,@function
                         677 	.size	_DIAG__ReqCallback_ReadIdFR,.-_DIAG__ReqCallback_ReadIdFR
                         678 	.type	_DIAG__ReqCallback_ReadIdFR..C.3A.5C_ECU2.5CECU_Rivian_A1.5CTarget.5Crepo_projects.5CpRealEcu.5CcL_LATEST.5Cmake.5Coutput.5Cobjects.5CSwcApplTpms_Diag.,@function
                         679 	.size	_DIAG__ReqCallback_ReadIdFR..C.3A.5C_ECU2.5CECU_Rivian_A1.5CTarget.5Crepo_projects.5CpRealEcu.5CcL_LATEST.5Cmake.5Coutput.5Cobjects.5CSwcApplTpms_Diag.,.-_DIAG__ReqCallback_ReadIdFR..C.3A.5C_ECU2.5CECU_Rivian_A1.5CTarget.5Crepo_projects.5CpRealEcu.5CcL_LATEST.5Cmake.5Coutput.5Cobjects.5CSwcApplTpms_Diag.
                         680 	.align	2
                         681 --_U8_LoopCnt	r18	local
                         682 
                         683 --_PS_MsgContext	r27	param
                         684 
                         685 	.data
                         686 	.text
                         687 	.align	2
                         688 	.align	2
                         689 ..gh.f.f.1.e.8:
                         690 	.type	..gh.f.f.1.e.8,@object
                         691 	.size	..gh.f.f.1.e.8,0
                         692 	.global	_DIAG__ReqCallback_ReadIdRR..C.3A.5C_ECU2.5CECU_Rivian_A1.5CTarget.5Crepo_projects.5CpRealEcu.5CcL_LATEST.5Cmake.5Coutput.5Cobjects.5CSwcApplTpms_Diag.
                         693 _DIAG__ReqCallback_ReadIdRR..C.3A.5C_ECU2.5CECU_Rivian_A1.5CTarget.5Crepo_projects.5CpRealEcu.5CcL_LATEST.5Cmake.5Coutput.5Cobjects.5CSwcApplTpms_Diag.:
                         694 _DIAG__ReqCallback_ReadIdRR:
0000021c 8007e110        695 	prepare	{r27,r28,r29,r31},0
00000220 06d8            696 	mov	r6,r27
00000222 3d0600000000*   697 	mov	_U16_RespLenght,r29
                         698 --	    .bf
                         699 .LDW62:
                         700 --line248
                         701 ..lin.C.3A.5C_ECU2.5CECU_Rivian_A1.5CTarget.5Crepo_projects.5CpRealEcu.5CcL_LATEST.5Cmake.5Coutput.5Cobjects.5CSwcApplTpms_Diag.28::
                         702 .LDWlin28:
00000228 0092            703 	mov	0,r18
                         704 .L674:
0000022a 12f0            705 	mov	r18,ep
0000022c ddf1            706 	add	r29,ep
0000022e 4192            707 	add	1,r18
00000230 3de60400        708 	movea	4,r29,r28
00000234 8403            709 	sst.b	zero,4[ep]
00000236 1206f0ff        710 	addi	-16,r18,zero
0000023a 89fd*           711 	bnl	.L674
                         712 --line253
                         713 ..lin.C.3A.5C_ECU2.5CECU_Rivian_A1.5CTarget.5Crepo_projects.5CpRealEcu.5CcL_LATEST.5Cmake.5Coutput.5Cobjects.5CSwcApplTpms_Diag.29::
                         714 .LDWlin29:
0000023c 1c38            715 	mov	r28,r7
0000023e 0332            716 	mov	3,r6
                         717 	jarl	_DIAG__GetWsIdForPosition,lp
                         717 <EXPANSION BEGIN>
                         717 jarl22 _DIAG__GetWsIdForPosition , lp 
00000240 bfff3cff*       717 <EXPANSION END>
                         718 --line255
                         719 ..lin.C.3A.5C_ECU2.5CECU_Rivian_A1.5CTarget.5Crepo_projects.5CpRealEcu.5CcL_LATEST.5Cmake.5Coutput.5Cobjects.5CSwcApplTpms_Diag.30::
                         720 .LDWlin30:
00000244 1bf0            721 	mov	r27,ep
00000246 0482            722 	mov	4,r16
00000248 05e5            723 	sst.w	r28,8[ep]
0000024a 7d870000        724 	st.h	r16,0[r29]
0000024e 07ed            725 	sst.w	r29,12[ep]
00000250 0052            726 	mov	0,r10
                         727 --	    .ef
                         728 .LDW72:
00000252 4006ff10        729 	dispose	0,{r27,r28,r29,r31},[lp]
                         730 ___ghs_eofn_DIAG__ReqCallback_ReadIdRR:
                         731 	.type	_DIAG__ReqCallback_ReadIdRR,@function
                         732 	.size	_DIAG__ReqCallback_ReadIdRR,.-_DIAG__ReqCallback_ReadIdRR

                                                                      Page 14
                                                              C:\Users\nhuliyap\AppData\Local\Temp\gh_00008941.s
                         733 	.type	_DIAG__ReqCallback_ReadIdRR..C.3A.5C_ECU2.5CECU_Rivian_A1.5CTarget.5Crepo_projects.5CpRealEcu.5CcL_LATEST.5Cmake.5Coutput.5Cobjects.5CSwcApplTpms_Diag.,@function
                         734 	.size	_DIAG__ReqCallback_ReadIdRR..C.3A.5C_ECU2.5CECU_Rivian_A1.5CTarget.5Crepo_projects.5CpRealEcu.5CcL_LATEST.5Cmake.5Coutput.5Cobjects.5CSwcApplTpms_Diag.,.-_DIAG__ReqCallback_ReadIdRR..C.3A.5C_ECU2.5CECU_Rivian_A1.5CTarget.5Crepo_projects.5CpRealEcu.5CcL_LATEST.5Cmake.5Coutput.5Cobjects.5CSwcApplTpms_Diag.
                         735 	.align	2
                         736 --_U8_LoopCnt	r18	local
                         737 
                         738 --_PS_MsgContext	r27	param
                         739 
                         740 	.data
                         741 	.text
                         742 	.align	2
                         743 	.align	2
                         744 ..gh.f.f.1.e.9:
                         745 	.type	..gh.f.f.1.e.9,@object
                         746 	.size	..gh.f.f.1.e.9,0
                         747 	.global	_DIAG__ReqCallback_ReadIdRL..C.3A.5C_ECU2.5CECU_Rivian_A1.5CTarget.5Crepo_projects.5CpRealEcu.5CcL_LATEST.5Cmake.5Coutput.5Cobjects.5CSwcApplTpms_Diag.
                         748 _DIAG__ReqCallback_ReadIdRL..C.3A.5C_ECU2.5CECU_Rivian_A1.5CTarget.5Crepo_projects.5CpRealEcu.5CcL_LATEST.5Cmake.5Coutput.5Cobjects.5CSwcApplTpms_Diag.:
                         749 _DIAG__ReqCallback_ReadIdRL:
00000256 8007e110        750 	prepare	{r27,r28,r29,r31},0
0000025a 06d8            751 	mov	r6,r27
0000025c 3d0600000000*   752 	mov	_U16_RespLenght,r29
                         753 --	    .bf
                         754 .LDW82:
                         755 --line267
                         756 ..lin.C.3A.5C_ECU2.5CECU_Rivian_A1.5CTarget.5Crepo_projects.5CpRealEcu.5CcL_LATEST.5Cmake.5Coutput.5Cobjects.5CSwcApplTpms_Diag.31::
                         757 .LDWlin31:
00000262 0092            758 	mov	0,r18
                         759 .L754:
00000264 12f0            760 	mov	r18,ep
00000266 ddf1            761 	add	r29,ep
00000268 4192            762 	add	1,r18
0000026a 3de60400        763 	movea	4,r29,r28
0000026e 8403            764 	sst.b	zero,4[ep]
00000270 1206f0ff        765 	addi	-16,r18,zero
00000274 89fd*           766 	bnl	.L754
                         767 --line272
                         768 ..lin.C.3A.5C_ECU2.5CECU_Rivian_A1.5CTarget.5Crepo_projects.5CpRealEcu.5CcL_LATEST.5Cmake.5Coutput.5Cobjects.5CSwcApplTpms_Diag.32::
                         769 .LDWlin32:
00000276 1c38            770 	mov	r28,r7
00000278 0232            771 	mov	2,r6
                         772 	jarl	_DIAG__GetWsIdForPosition,lp
                         772 <EXPANSION BEGIN>
                         772 jarl22 _DIAG__GetWsIdForPosition , lp 
0000027a bfff02ff*       772 <EXPANSION END>
                         773 --line274
                         774 ..lin.C.3A.5C_ECU2.5CECU_Rivian_A1.5CTarget.5Crepo_projects.5CpRealEcu.5CcL_LATEST.5Cmake.5Coutput.5Cobjects.5CSwcApplTpms_Diag.33::
                         775 .LDWlin33:
0000027e 1bf0            776 	mov	r27,ep
00000280 0482            777 	mov	4,r16
00000282 05e5            778 	sst.w	r28,8[ep]
00000284 7d870000        779 	st.h	r16,0[r29]
00000288 07ed            780 	sst.w	r29,12[ep]
0000028a 0052            781 	mov	0,r10
                         782 --	    .ef
                         783 .LDW92:
0000028c 4006ff10        784 	dispose	0,{r27,r28,r29,r31},[lp]
                         785 ___ghs_eofn_DIAG__ReqCallback_ReadIdRL:
                         786 	.type	_DIAG__ReqCallback_ReadIdRL,@function
                         787 	.size	_DIAG__ReqCallback_ReadIdRL,.-_DIAG__ReqCallback_ReadIdRL
                         788 	.type	_DIAG__ReqCallback_ReadIdRL..C.3A.5C_ECU2.5CECU_Rivian_A1.5CTarget.5Crepo_projects.5CpRealEcu.5CcL_LATEST.5Cmake.5Coutput.5Cobjects.5CSwcApplTpms_Diag.,@function
                         789 	.size	_DIAG__ReqCallback_ReadIdRL..C.3A.5C_ECU2.5CECU_Rivian_A1.5CTarget.5Crepo_projects.5CpRealEcu.5CcL_LATEST.5Cmake.5Coutput.5Cobjects.5CSwcApplTpms_Diag.,.-_DIAG__ReqCallback_ReadIdRL..C.3A.5C_ECU2.5CECU_Rivian_A1.5CTarget.5Crepo_projects.5CpRealEcu.5CcL_LATEST.5Cmake.5Coutput.5Cobjects.5CSwcApplTpms_Diag.
                         790 	.align	2

                                                                      Page 15
                                                              C:\Users\nhuliyap\AppData\Local\Temp\gh_00008941.s
                         791 --_U8_LoopCnt	r18	local
                         792 
                         793 --_PS_MsgContext	r27	param
                         794 
                         795 	.data
                         796 	.text
                         797 	.align	2
                         798 	.align	2
                         799 ..gh.f.f.1.e.10:
                         800 	.type	..gh.f.f.1.e.10,@object
                         801 	.size	..gh.f.f.1.e.10,0
                         802 	.global	_DIAG__GetLastReceivedWheelId..C.3A.5C_ECU2.5CECU_Rivian_A1.5CTarget.5Crepo_projects.5CpRealEcu.5CcL_LATEST.5Cmake.5Coutput.5Cobjects.5CSwcApplTpms_Diag.
                         803 _DIAG__GetLastReceivedWheelId..C.3A.5C_ECU2.5CECU_Rivian_A1.5CTarget.5Crepo_projects.5CpRealEcu.5CcL_LATEST.5Cmake.5Coutput.5Cobjects.5CSwcApplTpms_Diag.:
                         804 _DIAG__GetLastReceivedWheelId:
00000290 8207e100        805 	prepare	{r28,r29,r31},1
00000294 06e8            806 	mov	r6,r29
                         807 --	    .bf
                         808 .LDW03:
                         809 	jarl	_ulGetReDataIdPD,lp
                         809 <EXPANSION BEGIN>
                         809 jarl22 _ulGetReDataIdPD , lp 
00000296 80ff0000*       809 <EXPANSION END>
0000029a 63570100        810 	st.w	r10,0[sp]
                         811 --line1149
                         812 ..lin.C.3A.5C_ECU2.5CECU_Rivian_A1.5CTarget.5Crepo_projects.5CpRealEcu.5CcL_LATEST.5Cmake.5Coutput.5Cobjects.5CSwcApplTpms_Diag.34::
                         813 .LDWlin34:
0000029e 008a            814 	mov	0,r17
                         815 .L834:
000002a0 1140            816 	mov	r17,r8
000002a2 c342            817 	shl	3,r8
000002a4 183a            818 	mov	-8,r7
000002a6 a839            819 	sub	r8,r7
000002a8 e7578240        820 	shr	r7,r10,r8
000002ac 5d470000        821 	st.b	r8,0[r29]
000002b0 41ea            822 	add	1,r29
000002b2 418a            823 	add	1,r17
000002b4 648a            824 	cmp	4,r17
000002b6 d1f5*           825 	bl	.L834
                         826 --line1155
                         827 ..lin.C.3A.5C_ECU2.5CECU_Rivian_A1.5CTarget.5Crepo_projects.5CpRealEcu.5CcL_LATEST.5Cmake.5Coutput.5Cobjects.5CSwcApplTpms_Diag.35::
                         828 .LDWlin35:
000002b8 04e2            829 	mov	4,r28
000002ba 20361000        830 	movea	16,zero,r6
                         831 	jarl	_bGetBitBetriebszustandBZ,lp
                         831 <EXPANSION BEGIN>
                         831 jarl22 _bGetBitBetriebszustandBZ , lp 
000002be 80ff0000*       831 <EXPANSION END>
000002c2 6152            832 	cmp	1,r10
000002c4 8a0d*           833 	bne	.L837
                         834 --line1157
                         835 ..lin.C.3A.5C_ECU2.5CECU_Rivian_A1.5CTarget.5Crepo_projects.5CpRealEcu.5CcL_LATEST.5Cmake.5Coutput.5Cobjects.5CSwcApplTpms_Diag.36::
                         836 .LDWlin36:
000002c6 0330            837 	mov	sp,r6
                         838 	jarl	_ucGetColOfID,lp
                         838 <EXPANSION BEGIN>
                         838 jarl22 _ucGetColOfID , lp 
000002c8 80ff0000*       838 <EXPANSION END>
000002cc 0a30            839 	mov	r10,r6
                         840 	jarl	_ucGetWPOfCol,lp
                         840 <EXPANSION BEGIN>
                         840 jarl22 _ucGetWPOfCol , lp 

                                                                      Page 16
                                                              C:\Users\nhuliyap\AppData\Local\Temp\gh_00008941.s
000002ce 80ff0000*       840 <EXPANSION END>
000002d2 0ae0            841 	mov	r10,r28
                         842 .L837:
                         843 --line1162
                         844 ..lin.C.3A.5C_ECU2.5CECU_Rivian_A1.5CTarget.5Crepo_projects.5CpRealEcu.5CcL_LATEST.5Cmake.5Coutput.5Cobjects.5CSwcApplTpms_Diag.37::
                         845 .LDWlin37:
000002d4 1df0            846 	mov	r29,ep
000002d6 80e3            847 	sst.b	r28,0[ep]
000002d8 20e6ff00        848 	movea	255,zero,r28
000002dc 81e3            849 	sst.b	r28,1[ep]
000002de 42ea            850 	add	2,r29
                         851 	jarl	_ucGetReDataPreProcPressurePD,lp
                         851 <EXPANSION BEGIN>
                         851 jarl22 _ucGetReDataPreProcPressurePD , lp 
000002e0 80ff0000*       851 <EXPANSION END>
                         852 --line1169
                         853 ..lin.C.3A.5C_ECU2.5CECU_Rivian_A1.5CTarget.5Crepo_projects.5CpRealEcu.5CcL_LATEST.5Cmake.5Coutput.5Cobjects.5CSwcApplTpms_Diag.38::
                         854 .LDWlin38:
000002e4 1c48            855 	mov	r28,r9
000002e6 0a0603ff        856 	addi	-253,r10,zero
000002ea c105*           857 	bl	.L840
                         858 --line1171
                         859 ..lin.C.3A.5C_ECU2.5CECU_Rivian_A1.5CTarget.5Crepo_projects.5CpRealEcu.5CcL_LATEST.5Cmake.5Coutput.5Cobjects.5CSwcApplTpms_Diag.39::
                         860 .LDWlin39:
000002ec 0a4e0200        861 	addi	2,r10,r9
000002f0 824a            862 	shr	2,r9
                         863 .L840:
000002f2 5d4f0000        864 	st.b	r9,0[r29]
                         865 	jarl	_scGetReDataPreProcTemperaturePD,lp
                         865 <EXPANSION BEGIN>
                         865 jarl22 _scGetReDataPreProcTemperaturePD , lp 
000002f6 80ff0000*       865 <EXPANSION END>
000002fa 0a962800        866 	addi	40,r10,r18
000002fe 9200            867 	zxb	r18
                         868 --line1179
                         869 ..lin.C.3A.5C_ECU2.5CECU_Rivian_A1.5CTarget.5Crepo_projects.5CpRealEcu.5CcL_LATEST.5Cmake.5Coutput.5Cobjects.5CSwcApplTpms_Diag.40::
                         870 .LDWlin40:
00000300 120659ff        871 	addi	-167,r18,zero
00000304 fc97224b        872 	cmovl	r28,r18,r9
00000308 5d4f0100        873 	st.b	r9,1[r29]
0000030c 0852            874 	mov	8,r10
                         875 --	    .ef
                         876 .LDW13:
0000030e 4206ff00        877 	dispose	1,{r28,r29,r31},[lp]
                         878 ___ghs_eofn_DIAG__GetLastReceivedWheelId:
                         879 	.type	_DIAG__GetLastReceivedWheelId,@function
                         880 	.size	_DIAG__GetLastReceivedWheelId,.-_DIAG__GetLastReceivedWheelId
                         881 	.type	_DIAG__GetLastReceivedWheelId..C.3A.5C_ECU2.5CECU_Rivian_A1.5CTarget.5Crepo_projects.5CpRealEcu.5CcL_LATEST.5Cmake.5Coutput.5Cobjects.5CSwcApplTpms_Diag.,@function
                         882 	.size	_DIAG__GetLastReceivedWheelId..C.3A.5C_ECU2.5CECU_Rivian_A1.5CTarget.5Crepo_projects.5CpRealEcu.5CcL_LATEST.5Cmake.5Coutput.5Cobjects.5CSwcApplTpms_Diag.,.-_DIAG__GetLastReceivedWheelId..C.3A.5C_ECU2.5CECU_Rivian_A1.5CTarget.5Crepo_projects.5CpRealEcu.5CcL_LATEST.5Cmake.5Coutput.5Cobjects.5CSwcApplTpms_Diag.
                         883 	.align	2
                         884 --_U8_Idx	r17	local
                         885 --_U8_RadPos	r28	local
                         886 --_U32_REId	0[sp]	local
                         887 --_U8_LocalTemperature	r18	local
                         888 --_U8_LocalPreProcPressurePD	r10	local
                         889 
                         890 --_PU8_ResData	r29	param
                         891 
                         892 	.section ".bss","awb"
                         893 .L938:
                         894 	.type	.L938,@object

                                                                      Page 17
                                                              C:\Users\nhuliyap\AppData\Local\Temp\gh_00008941.s
                         895 	.size	.L938,0
                         896 	.data
                         897 	.text
                         898 	.align	2
                         899 	.align	2
                         900 ..gh.f.f.1.e.11:
                         901 	.type	..gh.f.f.1.e.11,@object
                         902 	.size	..gh.f.f.1.e.11,0
                         903 	.global	_DIAG__ReqCallback_ReadLastReceivedWheelSensor..C.3A.5C_ECU2.5CECU_Rivian_A1.5CTarget.5Crepo_projects.5CpRealEcu.5CcL_LATEST.5Cmake.5Coutput.5Cobjects.5CSwcApplTpms_Diag.
                         904 _DIAG__ReqCallback_ReadLastReceivedWheelSensor..C.3A.5C_ECU2.5CECU_Rivian_A1.5CTarget.5Crepo_projects.5CpRealEcu.5CcL_LATEST.5Cmake.5Coutput.5Cobjects.5CSwcApplTpms_Diag.:
                         905 _DIAG__ReqCallback_ReadLastReceivedWheelSensor:
00000312 8007e110        906 	prepare	{r27,r28,r29,r31},0
00000316 06d8            907 	mov	r6,r27
00000318 3d0600000000*   908 	mov	_U16_RespLenght,r29
                         909 --	    .bf
                         910 .LDW23:
                         911 --line286
                         912 ..lin.C.3A.5C_ECU2.5CECU_Rivian_A1.5CTarget.5Crepo_projects.5CpRealEcu.5CcL_LATEST.5Cmake.5Coutput.5Cobjects.5CSwcApplTpms_Diag.41::
                         913 .LDWlin41:
0000031e 0092            914 	mov	0,r18
                         915 .L1017:
00000320 12f0            916 	mov	r18,ep
00000322 ddf1            917 	add	r29,ep
00000324 4192            918 	add	1,r18
00000326 3de60400        919 	movea	4,r29,r28
0000032a 8403            920 	sst.b	zero,4[ep]
0000032c 1206f0ff        921 	addi	-16,r18,zero
00000330 89fd*           922 	bnl	.L1017
                         923 --line290
                         924 ..lin.C.3A.5C_ECU2.5CECU_Rivian_A1.5CTarget.5Crepo_projects.5CpRealEcu.5CcL_LATEST.5Cmake.5Coutput.5Cobjects.5CSwcApplTpms_Diag.42::
                         925 .LDWlin42:
00000332 1c30            926 	mov	r28,r6
                         927 	jarl	_DIAG__GetLastReceivedWheelId,lp
                         927 <EXPANSION BEGIN>
                         927 jarl22 _DIAG__GetLastReceivedWheelId , lp 
00000334 bfff5cff*       927 <EXPANSION END>
                         928 --line292
                         929 ..lin.C.3A.5C_ECU2.5CECU_Rivian_A1.5CTarget.5Crepo_projects.5CpRealEcu.5CcL_LATEST.5Cmake.5Coutput.5Cobjects.5CSwcApplTpms_Diag.43::
                         930 .LDWlin43:
00000338 1bf0            931 	mov	r27,ep
0000033a 0882            932 	mov	8,r16
0000033c 05e5            933 	sst.w	r28,8[ep]
0000033e 7d870000        934 	st.h	r16,0[r29]
00000342 07ed            935 	sst.w	r29,12[ep]
00000344 0052            936 	mov	0,r10
                         937 --	    .ef
                         938 .LDW33:
00000346 4006ff10        939 	dispose	0,{r27,r28,r29,r31},[lp]
                         940 ___ghs_eofn_DIAG__ReqCallback_ReadLastReceivedWheelSensor:
                         941 	.type	_DIAG__ReqCallback_ReadLastReceivedWheelSensor,@function
                         942 	.size	_DIAG__ReqCallback_ReadLastReceivedWheelSensor,.-_DIAG__ReqCallback_ReadLastReceivedWheelSensor
                         943 	.type	_DIAG__ReqCallback_ReadLastReceivedWheelSensor..C.3A.5C_ECU2.5CECU_Rivian_A1.5CTarget.5Crepo_projects.5CpRealEcu.5CcL_LATEST.5Cmake.5Coutput.5Cobjects.5CSwcApplTpms_Diag.,@function
                         944 	.size	_DIAG__ReqCallback_ReadLastReceivedWheelSensor..C.3A.5C_ECU2.5CECU_Rivian_A1.5CTarget.5Crepo_projects.5CpRealEcu.5CcL_LATEST.5Cmake.5Coutput.5Cobjects.5CSwcApplTpms_Diag.,.-_DIAG__ReqCallback_ReadLastReceivedWheelSensor..C.3A.5C_ECU2.5CECU_Rivian_A1.5CTarget.5Crepo_projects.5CpRealEcu.5CcL_LATEST.5Cmake.5Coutput.5Cobjects.5CSwcApplTpms_Diag.
                         945 	.align	2
                         946 --_U8_LoopCnt	r18	local
                         947 
                         948 --_PS_MsgContext	r27	param
                         949 
                         950 	.data
                         951 	.text
                         952 	.align	2

                                                                      Page 18
                                                              C:\Users\nhuliyap\AppData\Local\Temp\gh_00008941.s
                         953 	.align	2
                         954 ..gh.f.f.1.e.12:
                         955 	.type	..gh.f.f.1.e.12,@object
                         956 	.size	..gh.f.f.1.e.12,0
                         957 	.global	_DIAG__PutNewIDAndResetWarning..C.3A.5C_ECU2.5CECU_Rivian_A1.5CTarget.5Crepo_projects.5CpRealEcu.5CcL_LATEST.5Cmake.5Coutput.5Cobjects.5CSwcApplTpms_Diag.
                         958 _DIAG__PutNewIDAndResetWarning..C.3A.5C_ECU2.5CECU_Rivian_A1.5CTarget.5Crepo_projects.5CpRealEcu.5CcL_LATEST.5Cmake.5Coutput.5Cobjects.5CSwcApplTpms_Diag.:
                         959 _DIAG__PutNewIDAndResetWarning:
0000034a 8407e130        960 	prepare	{r26,r27,r28,r29,r31},2
0000034e 06e0            961 	mov	r6,r28
                         962 --	    .bf
                         963 .LDW43:
00000350 00d2            964 	mov	0,r26
00000352 1a90            965 	mov	r26,r18
00000354 12e8            966 	mov	r18,r29
                         967 .L1090:
00000356 9c670100        968 	ld.bu	0[r28],r12
0000035a 1d88            969 	mov	r29,r17
0000035c c38a            970 	shl	3,r17
0000035e 1882            971 	mov	-8,r16
00000360 b181            972 	sub	r17,r16
00000362 f067c268        973 	shl	r16,r12,r13
00000366 0d91            974 	or	r13,r18
00000368 41e2            975 	add	1,r28
0000036a 41ea            976 	add	1,r29
0000036c 63970500        977 	st.w	r18,4[sp]
00000370 64ea            978 	cmp	4,r29
00000372 a1f5*           979 	bl	.L1090
                         980 --line1204
                         981 ..lin.C.3A.5C_ECU2.5CECU_Rivian_A1.5CTarget.5Crepo_projects.5CpRealEcu.5CcL_LATEST.5Cmake.5Coutput.5Cobjects.5CSwcApplTpms_Diag.44::
                         982 .LDWlin44:
00000374 1c38            983 	mov	r28,r7
00000376 23360400        984 	movea	4,sp,r6
                         985 	jarl	_ucSetID,lp
                         985 <EXPANSION BEGIN>
                         985 jarl22 _ucSetID , lp 
0000037a 80ff0000*       985 <EXPANSION END>
                         986 --line1206
                         987 ..lin.C.3A.5C_ECU2.5CECU_Rivian_A1.5CTarget.5Crepo_projects.5CpRealEcu.5CcL_LATEST.5Cmake.5Coutput.5Cobjects.5CSwcApplTpms_Diag.45::
                         988 .LDWlin45:
0000037e e051            989 	cmp	zero,r10
00000380 ca05*           990 	bne	.L1091
                         991 --line1208
                         992 ..lin.C.3A.5C_ECU2.5CECU_Rivian_A1.5CTarget.5Crepo_projects.5CpRealEcu.5CcL_LATEST.5Cmake.5Coutput.5Cobjects.5CSwcApplTpms_Diag.46::
                         993 .LDWlin46:
00000382 20d63100        994 	movea	49,zero,r26
00000386 853d*           995 	br	.L1093
                         996 .L1091:
00000388 0ad8            997 	mov	r10,r27
                         998 --line1211
                         999 ..lin.C.3A.5C_ECU2.5CECU_Rivian_A1.5CTarget.5Crepo_projects.5CpRealEcu.5CcL_LATEST.5Cmake.5Coutput.5Cobjects.5CSwcApplTpms_Diag.47::
                        1000 .LDWlin47:
                        1001 	jarl	_InitBZ,lp
                        1001 <EXPANSION BEGIN>
                        1001 jarl22 _InitBZ , lp 
0000038a 80ff0000*      1001 <EXPANSION END>
                        1002 --line1213
                        1003 ..lin.C.3A.5C_ECU2.5CECU_Rivian_A1.5CTarget.5Crepo_projects.5CpRealEcu.5CcL_LATEST.5Cmake.5Coutput.5Cobjects.5CSwcApplTpms_Diag.48::
                        1004 .LDWlin48:
0000038e 9c5f0100       1005 	ld.bu	0[r28],r11
00000392 635a           1006 	cmp	3,r11
00000394 b315*          1007 	bnh	.L1094

                                                                      Page 19
                                                              C:\Users\nhuliyap\AppData\Local\Temp\gh_00008941.s
                        1008 --line1215
                        1009 ..lin.C.3A.5C_ECU2.5CECU_Rivian_A1.5CTarget.5Crepo_projects.5CpRealEcu.5CcL_LATEST.5Cmake.5Coutput.5Cobjects.5CSwcApplTpms_Diag.49::
                        1010 .LDWlin49:
00000396 0e52           1011 	mov	14,r10
00000398 03f0           1012 	mov	sp,ep
0000039a 0432           1013 	mov	4,r6
0000039c 8253           1014 	sst.b	r10,2[ep]
0000039e 8333           1015 	sst.b	r6,3[ep]
000003a0 233e0200       1016 	movea	2,sp,r7
                        1017 	jarl	_ucWarnManagerWN,lp
                        1017 <EXPANSION BEGIN>
                        1017 jarl22 _ucWarnManagerWN , lp 
000003a4 80ff0000*      1017 <EXPANSION END>
                        1018 --line1218
                        1019 ..lin.C.3A.5C_ECU2.5CECU_Rivian_A1.5CTarget.5Crepo_projects.5CpRealEcu.5CcL_LATEST.5Cmake.5Coutput.5Cobjects.5CSwcApplTpms_Diag.50::
                        1020 .LDWlin50:
000003a8 03f0           1021 	mov	sp,ep
000003aa 8203           1022 	sst.b	zero,2[ep]
000003ac 8303           1023 	sst.b	zero,3[ep]
000003ae 0132           1024 	mov	1,r6
000003b0 233e0200       1025 	movea	2,sp,r7
                        1026 	jarl	_ucTSSMsgManagerTM,lp
                        1026 <EXPANSION BEGIN>
                        1026 jarl22 _ucTSSMsgManagerTM , lp 
000003b4 80ff0000*      1026 <EXPANSION END>
000003b8 f51d*          1027 	br	.L1093
                        1028 .L1094:
                        1029 --line1224
                        1030 ..lin.C.3A.5C_ECU2.5CECU_Rivian_A1.5CTarget.5Crepo_projects.5CpRealEcu.5CcL_LATEST.5Cmake.5Coutput.5Cobjects.5CSwcApplTpms_Diag.51::
                        1031 .LDWlin51:
000003ba 1ae8           1032 	mov	r26,r29
                        1033 .L1099:
000003bc 204e1000       1034 	movea	16,zero,r9
000003c0 fd4fc270       1035 	shl	r29,r9,r14
000003c4 0e78           1036 	mov	r14,r15
000003c6 8f00           1037 	zxb	r15
000003c8 5b79           1038 	and	r27,r15
000003ca ee79           1039 	cmp	r14,r15
000003cc aa15*          1040 	bne	.L1102
                        1041 --line1228
                        1042 ..lin.C.3A.5C_ECU2.5CECU_Rivian_A1.5CTarget.5Crepo_projects.5CpRealEcu.5CcL_LATEST.5Cmake.5Coutput.5Cobjects.5CSwcApplTpms_Diag.52::
                        1043 .LDWlin52:
000003ce 0e72           1044 	mov	14,r14
000003d0 03f0           1045 	mov	sp,ep
000003d2 8273           1046 	sst.b	r14,2[ep]
000003d4 83eb           1047 	sst.b	r29,3[ep]
000003d6 0432           1048 	mov	4,r6
000003d8 233e0200       1049 	movea	2,sp,r7
                        1050 	jarl	_ucWarnManagerWN,lp
                        1050 <EXPANSION BEGIN>
                        1050 jarl22 _ucWarnManagerWN , lp 
000003dc 80ff0000*      1050 <EXPANSION END>
                        1051 --line1231
                        1052 ..lin.C.3A.5C_ECU2.5CECU_Rivian_A1.5CTarget.5Crepo_projects.5CpRealEcu.5CcL_LATEST.5Cmake.5Coutput.5Cobjects.5CSwcApplTpms_Diag.53::
                        1053 .LDWlin53:
000003e0 03f0           1054 	mov	sp,ep
000003e2 8203           1055 	sst.b	zero,2[ep]
000003e4 8303           1056 	sst.b	zero,3[ep]
000003e6 0132           1057 	mov	1,r6
000003e8 233e0200       1058 	movea	2,sp,r7
                        1059 	jarl	_ucTSSMsgManagerTM,lp

                                                                      Page 20
                                                              C:\Users\nhuliyap\AppData\Local\Temp\gh_00008941.s
                        1059 <EXPANSION BEGIN>
                        1059 jarl22 _ucTSSMsgManagerTM , lp 
000003ec 80ff0000*      1059 <EXPANSION END>
                        1060 .L1102:
                        1061 --line1224
                        1062 ..lin.C.3A.5C_ECU2.5CECU_Rivian_A1.5CTarget.5Crepo_projects.5CpRealEcu.5CcL_LATEST.5Cmake.5Coutput.5Cobjects.5CSwcApplTpms_Diag.54::
                        1063 .LDWlin54:
000003f0 41ea           1064 	add	1,r29
000003f2 64ea           1065 	cmp	4,r29
000003f4 c1e5*          1066 	bl	.L1099
                        1067 .L1093:
                        1068 --line1242
                        1069 ..lin.C.3A.5C_ECU2.5CECU_Rivian_A1.5CTarget.5Crepo_projects.5CpRealEcu.5CcL_LATEST.5Cmake.5Coutput.5Cobjects.5CSwcApplTpms_Diag.55::
                        1070 .LDWlin55:
000003f6 1a50           1071 	mov	r26,r10
                        1072 --	    .ef
                        1073 .LDW53:
000003f8 4406ff30       1074 	dispose	2,{r26,r27,r28,r29,r31},[lp]
                        1075 ___ghs_eofn_DIAG__PutNewIDAndResetWarning:
                        1076 	.type	_DIAG__PutNewIDAndResetWarning,@function
                        1077 	.size	_DIAG__PutNewIDAndResetWarning,.-_DIAG__PutNewIDAndResetWarning
                        1078 	.type	_DIAG__PutNewIDAndResetWarning..C.3A.5C_ECU2.5CECU_Rivian_A1.5CTarget.5Crepo_projects.5CpRealEcu.5CcL_LATEST.5Cmake.5Coutput.5Cobjects.5CSwcApplTpms_Diag.,@function
                        1079 	.size	_DIAG__PutNewIDAndResetWarning..C.3A.5C_ECU2.5CECU_Rivian_A1.5CTarget.5Crepo_projects.5CpRealEcu.5CcL_LATEST.5Cmake.5Coutput.5Cobjects.5CSwcApplTpms_Diag.,.-_DIAG__PutNewIDAndResetWarning..C.3A.5C_ECU2.5CECU_Rivian_A1.5CTarget.5Crepo_projects.5CpRealEcu.5CcL_LATEST.5Cmake.5Coutput.5Cobjects.5CSwcApplTpms_Diag.
                        1080 	.align	2
                        1081 --_AU8_Service	2[sp]	local
                        1082 --_U8_Idx	r29	local
                        1083 --_U8_Ret	r27	local
                        1084 --_U8_RetVal	r26	local
                        1085 --_U32_REId	4[sp]	local
                        1086 
                        1087 --_PU8_ReqData	r28	param
                        1088 
                        1089 	.section ".bss","awb"
                        1090 .L2282:
                        1091 	.type	.L2282,@object
                        1092 	.size	.L2282,0
                        1093 	.data
                        1094 	.text
                        1095 	.align	2
                        1096 	.align	2
                        1097 ..gh.f.f.1.e.13:
                        1098 	.type	..gh.f.f.1.e.13,@object
                        1099 	.size	..gh.f.f.1.e.13,0
                        1100 	.global	_DIAG__ReqCallback_WriteWSNr01..C.3A.5C_ECU2.5CECU_Rivian_A1.5CTarget.5Crepo_projects.5CpRealEcu.5CcL_LATEST.5Cmake.5Coutput.5Cobjects.5CSwcApplTpms_Diag.
                        1101 _DIAG__ReqCallback_WriteWSNr01..C.3A.5C_ECU2.5CECU_Rivian_A1.5CTarget.5Crepo_projects.5CpRealEcu.5CcL_LATEST.5Cmake.5Coutput.5Cobjects.5CSwcApplTpms_Diag.:
                        1102 _DIAG__ReqCallback_WriteWSNr01:
000003fc 06f0           1103 	mov	r6,ep
                        1104 --	    .bf
                        1105 .LDW63:
000003fe 00f5           1106 	sld.w	0[ep],ep
00000400 260600000000*  1107 	mov	_AU8_ResData,r6
00000406 6090           1108 	sld.bu	0[ep],r18
00000408 46970000       1109 	st.b	r18,0[r6]
                        1110 --line305
                        1111 ..lin.C.3A.5C_ECU2.5CECU_Rivian_A1.5CTarget.5Crepo_projects.5CpRealEcu.5CcL_LATEST.5Cmake.5Coutput.5Cobjects.5CSwcApplTpms_Diag.56::
                        1112 .LDWlin56:
0000040c 6188           1113 	sld.bu	1[ep],r17
0000040e 468f0100       1114 	st.b	r17,1[r6]
00000412 6280           1115 	sld.bu	2[ep],r16
00000414 46870200       1116 	st.b	r16,2[r6]
00000418 6378           1117 	sld.bu	3[ep],r15

                                                                      Page 21
                                                              C:\Users\nhuliyap\AppData\Local\Temp\gh_00008941.s
0000041a 06f0           1118 	mov	r6,ep
0000041c 8403           1119 	sst.b	zero,4[ep]
0000041e 837b           1120 	sst.b	r15,3[ep]
00000420 bf072aff*      1121 	jr	_DIAG__PutNewIDAndResetWarning
                        1122 --	    .ef
                        1123 .LDW73:
                        1124 ___ghs_eofn_DIAG__ReqCallback_WriteWSNr01:
                        1125 	.type	_DIAG__ReqCallback_WriteWSNr01,@function
                        1126 	.size	_DIAG__ReqCallback_WriteWSNr01,.-_DIAG__ReqCallback_WriteWSNr01
                        1127 	.type	_DIAG__ReqCallback_WriteWSNr01..C.3A.5C_ECU2.5CECU_Rivian_A1.5CTarget.5Crepo_projects.5CpRealEcu.5CcL_LATEST.5Cmake.5Coutput.5Cobjects.5CSwcApplTpms_Diag.,@function
                        1128 	.size	_DIAG__ReqCallback_WriteWSNr01..C.3A.5C_ECU2.5CECU_Rivian_A1.5CTarget.5Crepo_projects.5CpRealEcu.5CcL_LATEST.5Cmake.5Coutput.5Cobjects.5CSwcApplTpms_Diag.,.-_DIAG__ReqCallback_WriteWSNr01..C.3A.5C_ECU2.5CECU_Rivian_A1.5CTarget.5Crepo_projects.5CpRealEcu.5CcL_LATEST.5Cmake.5Coutput.5Cobjects.5CSwcApplTpms_Diag.
                        1129 	.align	2
                        1130 
                        1131 --_PS_MsgContext	ep	param
                        1132 
                        1133 	.data
                        1134 	.text
                        1135 	.align	2
                        1136 	.align	2
                        1137 ..gh.f.f.1.e.14:
                        1138 	.type	..gh.f.f.1.e.14,@object
                        1139 	.size	..gh.f.f.1.e.14,0
                        1140 	.global	_DIAG__ReqCallback_WriteWSNr02..C.3A.5C_ECU2.5CECU_Rivian_A1.5CTarget.5Crepo_projects.5CpRealEcu.5CcL_LATEST.5Cmake.5Coutput.5Cobjects.5CSwcApplTpms_Diag.
                        1141 _DIAG__ReqCallback_WriteWSNr02..C.3A.5C_ECU2.5CECU_Rivian_A1.5CTarget.5Crepo_projects.5CpRealEcu.5CcL_LATEST.5Cmake.5Coutput.5Cobjects.5CSwcApplTpms_Diag.:
                        1142 _DIAG__ReqCallback_WriteWSNr02:
00000424 06f0           1143 	mov	r6,ep
                        1144 --	    .bf
                        1145 .LDW83:
00000426 00f5           1146 	sld.w	0[ep],ep
00000428 260600000000*  1147 	mov	_AU8_ResData,r6
                        1148 --line323
                        1149 ..lin.C.3A.5C_ECU2.5CECU_Rivian_A1.5CTarget.5Crepo_projects.5CpRealEcu.5CcL_LATEST.5Cmake.5Coutput.5Cobjects.5CSwcApplTpms_Diag.57::
                        1150 .LDWlin57:
0000042e 0172           1151 	mov	1,r14
00000430 6090           1152 	sld.bu	0[ep],r18
00000432 46970000       1153 	st.b	r18,0[r6]
00000436 6188           1154 	sld.bu	1[ep],r17
00000438 468f0100       1155 	st.b	r17,1[r6]
0000043c 6280           1156 	sld.bu	2[ep],r16
0000043e 46870200       1157 	st.b	r16,2[r6]
00000442 6378           1158 	sld.bu	3[ep],r15
00000444 06f0           1159 	mov	r6,ep
00000446 8473           1160 	sst.b	r14,4[ep]
00000448 837b           1161 	sst.b	r15,3[ep]
0000044a bf0700ff*      1162 	jr	_DIAG__PutNewIDAndResetWarning
                        1163 --	    .ef
                        1164 .LDW93:
                        1165 ___ghs_eofn_DIAG__ReqCallback_WriteWSNr02:
                        1166 	.type	_DIAG__ReqCallback_WriteWSNr02,@function
                        1167 	.size	_DIAG__ReqCallback_WriteWSNr02,.-_DIAG__ReqCallback_WriteWSNr02
                        1168 	.type	_DIAG__ReqCallback_WriteWSNr02..C.3A.5C_ECU2.5CECU_Rivian_A1.5CTarget.5Crepo_projects.5CpRealEcu.5CcL_LATEST.5Cmake.5Coutput.5Cobjects.5CSwcApplTpms_Diag.,@function
                        1169 	.size	_DIAG__ReqCallback_WriteWSNr02..C.3A.5C_ECU2.5CECU_Rivian_A1.5CTarget.5Crepo_projects.5CpRealEcu.5CcL_LATEST.5Cmake.5Coutput.5Cobjects.5CSwcApplTpms_Diag.,.-_DIAG__ReqCallback_WriteWSNr02..C.3A.5C_ECU2.5CECU_Rivian_A1.5CTarget.5Crepo_projects.5CpRealEcu.5CcL_LATEST.5Cmake.5Coutput.5Cobjects.5CSwcApplTpms_Diag.
                        1170 	.align	2
                        1171 
                        1172 --_PS_MsgContext	ep	param
                        1173 
                        1174 	.data
                        1175 	.text
                        1176 	.align	2
                        1177 	.align	2
                        1178 ..gh.f.f.1.e.15:

                                                                      Page 22
                                                              C:\Users\nhuliyap\AppData\Local\Temp\gh_00008941.s
                        1179 	.type	..gh.f.f.1.e.15,@object
                        1180 	.size	..gh.f.f.1.e.15,0
                        1181 	.global	_DIAG__ReqCallback_WriteWSNr03..C.3A.5C_ECU2.5CECU_Rivian_A1.5CTarget.5Crepo_projects.5CpRealEcu.5CcL_LATEST.5Cmake.5Coutput.5Cobjects.5CSwcApplTpms_Diag.
                        1182 _DIAG__ReqCallback_WriteWSNr03..C.3A.5C_ECU2.5CECU_Rivian_A1.5CTarget.5Crepo_projects.5CpRealEcu.5CcL_LATEST.5Cmake.5Coutput.5Cobjects.5CSwcApplTpms_Diag.:
                        1183 _DIAG__ReqCallback_WriteWSNr03:
0000044e 06f0           1184 	mov	r6,ep
                        1185 --	    .bf
                        1186 .LDW04:
00000450 00f5           1187 	sld.w	0[ep],ep
00000452 260600000000*  1188 	mov	_AU8_ResData,r6
                        1189 --line338
                        1190 ..lin.C.3A.5C_ECU2.5CECU_Rivian_A1.5CTarget.5Crepo_projects.5CpRealEcu.5CcL_LATEST.5Cmake.5Coutput.5Cobjects.5CSwcApplTpms_Diag.58::
                        1191 .LDWlin58:
00000458 0272           1192 	mov	2,r14
0000045a 6090           1193 	sld.bu	0[ep],r18
0000045c 46970000       1194 	st.b	r18,0[r6]
00000460 6188           1195 	sld.bu	1[ep],r17
00000462 468f0100       1196 	st.b	r17,1[r6]
00000466 6280           1197 	sld.bu	2[ep],r16
00000468 46870200       1198 	st.b	r16,2[r6]
0000046c 6378           1199 	sld.bu	3[ep],r15
0000046e 06f0           1200 	mov	r6,ep
00000470 8473           1201 	sst.b	r14,4[ep]
00000472 837b           1202 	sst.b	r15,3[ep]
00000474 bf07d6fe*      1203 	jr	_DIAG__PutNewIDAndResetWarning
                        1204 --	    .ef
                        1205 .LDW14:
                        1206 ___ghs_eofn_DIAG__ReqCallback_WriteWSNr03:
                        1207 	.type	_DIAG__ReqCallback_WriteWSNr03,@function
                        1208 	.size	_DIAG__ReqCallback_WriteWSNr03,.-_DIAG__ReqCallback_WriteWSNr03
                        1209 	.type	_DIAG__ReqCallback_WriteWSNr03..C.3A.5C_ECU2.5CECU_Rivian_A1.5CTarget.5Crepo_projects.5CpRealEcu.5CcL_LATEST.5Cmake.5Coutput.5Cobjects.5CSwcApplTpms_Diag.,@function
                        1210 	.size	_DIAG__ReqCallback_WriteWSNr03..C.3A.5C_ECU2.5CECU_Rivian_A1.5CTarget.5Crepo_projects.5CpRealEcu.5CcL_LATEST.5Cmake.5Coutput.5Cobjects.5CSwcApplTpms_Diag.,.-_DIAG__ReqCallback_WriteWSNr03..C.3A.5C_ECU2.5CECU_Rivian_A1.5CTarget.5Crepo_projects.5CpRealEcu.5CcL_LATEST.5Cmake.5Coutput.5Cobjects.5CSwcApplTpms_Diag.
                        1211 	.align	2
                        1212 
                        1213 --_PS_MsgContext	ep	param
                        1214 
                        1215 	.data
                        1216 	.text
                        1217 	.align	2
                        1218 	.align	2
                        1219 ..gh.f.f.1.e.16:
                        1220 	.type	..gh.f.f.1.e.16,@object
                        1221 	.size	..gh.f.f.1.e.16,0
                        1222 	.global	_DIAG__ReqCallback_WriteWSNr04..C.3A.5C_ECU2.5CECU_Rivian_A1.5CTarget.5Crepo_projects.5CpRealEcu.5CcL_LATEST.5Cmake.5Coutput.5Cobjects.5CSwcApplTpms_Diag.
                        1223 _DIAG__ReqCallback_WriteWSNr04..C.3A.5C_ECU2.5CECU_Rivian_A1.5CTarget.5Crepo_projects.5CpRealEcu.5CcL_LATEST.5Cmake.5Coutput.5Cobjects.5CSwcApplTpms_Diag.:
                        1224 _DIAG__ReqCallback_WriteWSNr04:
00000478 06f0           1225 	mov	r6,ep
                        1226 --	    .bf
                        1227 .LDW24:
0000047a 00f5           1228 	sld.w	0[ep],ep
0000047c 260600000000*  1229 	mov	_AU8_ResData,r6
                        1230 --line353
                        1231 ..lin.C.3A.5C_ECU2.5CECU_Rivian_A1.5CTarget.5Crepo_projects.5CpRealEcu.5CcL_LATEST.5Cmake.5Coutput.5Cobjects.5CSwcApplTpms_Diag.59::
                        1232 .LDWlin59:
00000482 0372           1233 	mov	3,r14
00000484 6090           1234 	sld.bu	0[ep],r18
00000486 46970000       1235 	st.b	r18,0[r6]
0000048a 6188           1236 	sld.bu	1[ep],r17
0000048c 468f0100       1237 	st.b	r17,1[r6]
00000490 6280           1238 	sld.bu	2[ep],r16
00000492 46870200       1239 	st.b	r16,2[r6]

                                                                      Page 23
                                                              C:\Users\nhuliyap\AppData\Local\Temp\gh_00008941.s
00000496 6378           1240 	sld.bu	3[ep],r15
00000498 06f0           1241 	mov	r6,ep
0000049a 8473           1242 	sst.b	r14,4[ep]
0000049c 837b           1243 	sst.b	r15,3[ep]
0000049e bf07acfe*      1244 	jr	_DIAG__PutNewIDAndResetWarning
                        1245 --	    .ef
                        1246 .LDW34:
                        1247 ___ghs_eofn_DIAG__ReqCallback_WriteWSNr04:
                        1248 	.type	_DIAG__ReqCallback_WriteWSNr04,@function
                        1249 	.size	_DIAG__ReqCallback_WriteWSNr04,.-_DIAG__ReqCallback_WriteWSNr04
                        1250 	.type	_DIAG__ReqCallback_WriteWSNr04..C.3A.5C_ECU2.5CECU_Rivian_A1.5CTarget.5Crepo_projects.5CpRealEcu.5CcL_LATEST.5Cmake.5Coutput.5Cobjects.5CSwcApplTpms_Diag.,@function
                        1251 	.size	_DIAG__ReqCallback_WriteWSNr04..C.3A.5C_ECU2.5CECU_Rivian_A1.5CTarget.5Crepo_projects.5CpRealEcu.5CcL_LATEST.5Cmake.5Coutput.5Cobjects.5CSwcApplTpms_Diag.,.-_DIAG__ReqCallback_WriteWSNr04..C.3A.5C_ECU2.5CECU_Rivian_A1.5CTarget.5Crepo_projects.5CpRealEcu.5CcL_LATEST.5Cmake.5Coutput.5Cobjects.5CSwcApplTpms_Diag.
                        1252 	.align	2
                        1253 
                        1254 --_PS_MsgContext	ep	param
                        1255 
                        1256 	.data
                        1257 	.text
                        1258 	.align	2
                        1259 	.align	2
                        1260 ..gh.f.f.1.e.17:
                        1261 	.type	..gh.f.f.1.e.17,@object
                        1262 	.size	..gh.f.f.1.e.17,0
                        1263 	.global	_DIAG__ReqCallback_ReadWheelSensorIDs..C.3A.5C_ECU2.5CECU_Rivian_A1.5CTarget.5Crepo_projects.5CpRealEcu.5CcL_LATEST.5Cmake.5Coutput.5Cobjects.5CSwcApplTpms_Diag.
                        1264 _DIAG__ReqCallback_ReadWheelSensorIDs..C.3A.5C_ECU2.5CECU_Rivian_A1.5CTarget.5Crepo_projects.5CpRealEcu.5CcL_LATEST.5Cmake.5Coutput.5Cobjects.5CSwcApplTpms_Diag.:
                        1265 _DIAG__ReqCallback_ReadWheelSensorIDs:
000004a2 8007e1b1       1266 	prepare	{r23,r24,r26,r27,r28,r29,r31},0
000004a6 06c0           1267 	mov	r6,r24
000004a8 3d0600000000*  1268 	mov	_U16_RespLenght,r29
                        1269 --	    .bf
                        1270 .LDW44:
                        1271 --line362
                        1272 ..lin.C.3A.5C_ECU2.5CECU_Rivian_A1.5CTarget.5Crepo_projects.5CpRealEcu.5CcL_LATEST.5Cmake.5Coutput.5Cobjects.5CSwcApplTpms_Diag.60::
                        1273 .LDWlin60:
000004ae 00d2           1274 	mov	0,r26
000004b0 20461000       1275 	movea	16,zero,r8
000004b4 7d470000       1276 	st.h	r8,0[r29]
000004b8 1a48           1277 	mov	r26,r9
                        1278 .L2586:
000004ba 09f0           1279 	mov	r9,ep
000004bc ddf1           1280 	add	r29,ep
000004be 414a           1281 	add	1,r9
000004c0 3de60400       1282 	movea	4,r29,r28
000004c4 8403           1283 	sst.b	zero,4[ep]
000004c6 0906f0ff       1284 	addi	-16,r9,zero
000004ca 89fd*          1285 	bnl	.L2586
                        1286 --line372
                        1287 ..lin.C.3A.5C_ECU2.5CECU_Rivian_A1.5CTarget.5Crepo_projects.5CpRealEcu.5CcL_LATEST.5Cmake.5Coutput.5Cobjects.5CSwcApplTpms_Diag.61::
                        1288 .LDWlin61:
000004cc 0830           1289 	mov	r8,r6
                        1290 	jarl	_bGetBitBetriebszustandBZ,lp
                        1290 <EXPANSION BEGIN>
                        1290 jarl22 _bGetBitBetriebszustandBZ , lp 
000004ce 80ff0000*      1290 <EXPANSION END>
000004d2 6152           1291 	cmp	1,r10
                        1292 --line375
                        1293 ..lin.C.3A.5C_ECU2.5CECU_Rivian_A1.5CTarget.5Crepo_projects.5CpRealEcu.5CcL_LATEST.5Cmake.5Coutput.5Cobjects.5CSwcApplTpms_Diag.62::
                        1294 .LDWlin62:
000004d4 1ad8           1295 	mov	r26,r27
000004d6 ea45*          1296 	bne	.L2588
                        1297 .L2592:

                                                                      Page 24
                                                              C:\Users\nhuliyap\AppData\Local\Temp\gh_00008941.s
                        1298 --line377
                        1299 ..lin.C.3A.5C_ECU2.5CECU_Rivian_A1.5CTarget.5Crepo_projects.5CpRealEcu.5CcL_LATEST.5Cmake.5Coutput.5Cobjects.5CSwcApplTpms_Diag.63::
                        1300 .LDWlin63:
000004d8 1b30           1301 	mov	r27,r6
                        1302 	jarl	_GETucRadpositionPD,lp
                        1302 <EXPANSION BEGIN>
                        1302 jarl22 _GETucRadpositionPD , lp 
000004da 80ff0000*      1302 <EXPANSION END>
000004de 0ab8           1303 	mov	r10,r23
                        1304 --line378
                        1305 ..lin.C.3A.5C_ECU2.5CECU_Rivian_A1.5CTarget.5Crepo_projects.5CpRealEcu.5CcL_LATEST.5Cmake.5Coutput.5Cobjects.5CSwcApplTpms_Diag.64::
                        1306 .LDWlin64:
000004e0 1b30           1307 	mov	r27,r6
                        1308 	jarl	_ulGetID,lp
                        1308 <EXPANSION BEGIN>
                        1308 jarl22 _ulGetID , lp 
000004e2 80ff0000*      1308 <EXPANSION END>
                        1309 --line379
                        1310 ..lin.C.3A.5C_ECU2.5CECU_Rivian_A1.5CTarget.5Crepo_projects.5CpRealEcu.5CcL_LATEST.5Cmake.5Coutput.5Cobjects.5CSwcApplTpms_Diag.65::
                        1311 .LDWlin65:
000004e6 61ba           1312 	cmp	1,r23
000004e8 9115*          1313 	bl	.L2595
000004ea c21d*          1314 	be	.L2596
000004ec 63ba           1315 	cmp	3,r23
000004ee e125*          1316 	bl	.L2597
000004f0 aa35*          1317 	bne	.L2593
                        1318 --line403
                        1319 ..lin.C.3A.5C_ECU2.5CECU_Rivian_A1.5CTarget.5Crepo_projects.5CpRealEcu.5CcL_LATEST.5Cmake.5Coutput.5Cobjects.5CSwcApplTpms_Diag.66::
                        1320 .LDWlin66:
000004f2 0a68           1321 	mov	r10,r13
000004f4 0a60           1322 	mov	r10,r12
000004f6 986a           1323 	shr	24,r13
000004f8 9062           1324 	shr	16,r12
000004fa 0a58           1325 	mov	r10,r11
000004fc 1cf0           1326 	mov	r28,ep
000004fe 885a           1327 	shr	8,r11
00000500 8c6b           1328 	sst.b	r13,12[ep]
00000502 8d63           1329 	sst.b	r12,13[ep]
00000504 8e5b           1330 	sst.b	r11,14[ep]
00000506 0ff2           1331 	mov	15,ep
00000508 c525*          1332 	br	.L2706
                        1333 .L2595:
                        1334 --line382
                        1335 ..lin.C.3A.5C_ECU2.5CECU_Rivian_A1.5CTarget.5Crepo_projects.5CpRealEcu.5CcL_LATEST.5Cmake.5Coutput.5Cobjects.5CSwcApplTpms_Diag.67::
                        1336 .LDWlin67:
0000050a 0a40           1337 	mov	r10,r8
0000050c 0a38           1338 	mov	r10,r7
0000050e 9842           1339 	shr	24,r8
00000510 903a           1340 	shr	16,r7
00000512 0a30           1341 	mov	r10,r6
00000514 1cf0           1342 	mov	r28,ep
00000516 8832           1343 	shr	8,r6
00000518 8043           1344 	sst.b	r8,0[ep]
0000051a 813b           1345 	sst.b	r7,1[ep]
0000051c 8233           1346 	sst.b	r6,2[ep]
0000051e 03f2           1347 	mov	3,ep
00000520 851d*          1348 	br	.L2706
                        1349 .L2596:
                        1350 --line389
                        1351 ..lin.C.3A.5C_ECU2.5CECU_Rivian_A1.5CTarget.5Crepo_projects.5CpRealEcu.5CcL_LATEST.5Cmake.5Coutput.5Cobjects.5CSwcApplTpms_Diag.68::
                        1352 .LDWlin68:

                                                                      Page 25
                                                              C:\Users\nhuliyap\AppData\Local\Temp\gh_00008941.s
00000522 0a98           1353 	mov	r10,r19
00000524 0a90           1354 	mov	r10,r18
00000526 989a           1355 	shr	24,r19
00000528 9092           1356 	shr	16,r18
0000052a 0a88           1357 	mov	r10,r17
0000052c 1cf0           1358 	mov	r28,ep
0000052e 888a           1359 	shr	8,r17
00000530 849b           1360 	sst.b	r19,4[ep]
00000532 8593           1361 	sst.b	r18,5[ep]
00000534 868b           1362 	sst.b	r17,6[ep]
00000536 07f2           1363 	mov	7,ep
00000538 c50d*          1364 	br	.L2706
                        1365 .L2597:
                        1366 --line396
                        1367 ..lin.C.3A.5C_ECU2.5CECU_Rivian_A1.5CTarget.5Crepo_projects.5CpRealEcu.5CcL_LATEST.5Cmake.5Coutput.5Cobjects.5CSwcApplTpms_Diag.69::
                        1368 .LDWlin69:
0000053a 0a80           1369 	mov	r10,r16
0000053c 0a78           1370 	mov	r10,r15
0000053e 0a70           1371 	mov	r10,r14
00000540 9882           1372 	shr	24,r16
00000542 1cf0           1373 	mov	r28,ep
00000544 907a           1374 	shr	16,r15
00000546 8872           1375 	shr	8,r14
00000548 8883           1376 	sst.b	r16,8[ep]
0000054a 897b           1377 	sst.b	r15,9[ep]
0000054c 8a73           1378 	sst.b	r14,10[ep]
0000054e 0bf2           1379 	mov	11,ep
                        1380 .L2706:
00000550 dcf1           1381 	add	r28,ep
00000552 8053           1382 	sst.b	r10,0[ep]
                        1383 .L2593:
00000554 41da           1384 	add	1,r27
00000556 64da           1385 	cmp	4,r27
00000558 81c5*          1386 	bl	.L2592
                        1387 --line415
                        1388 ..lin.C.3A.5C_ECU2.5CECU_Rivian_A1.5CTarget.5Crepo_projects.5CpRealEcu.5CcL_LATEST.5Cmake.5Coutput.5Cobjects.5CSwcApplTpms_Diag.70::
                        1389 .LDWlin70:
0000055a 18f0           1390 	mov	r24,ep
0000055c 05e5           1391 	sst.w	r28,8[ep]
0000055e 07ed           1392 	sst.w	r29,12[ep]
00000560 b505*          1393 	br	.L2600
                        1394 .L2588:
                        1395 --line422
                        1396 ..lin.C.3A.5C_ECU2.5CECU_Rivian_A1.5CTarget.5Crepo_projects.5CpRealEcu.5CcL_LATEST.5Cmake.5Coutput.5Cobjects.5CSwcApplTpms_Diag.71::
                        1397 .LDWlin71:
00000562 20d62200       1398 	movea	34,zero,r26
                        1399 .L2600:
00000566 1a50           1400 	mov	r26,r10
                        1401 --	    .ef
                        1402 .LDW54:
00000568 4006ffb1       1403 	dispose	0,{r23,r24,r26,r27,r28,r29,r31},[lp]
                        1404 ___ghs_eofn_DIAG__ReqCallback_ReadWheelSensorIDs:
                        1405 	.type	_DIAG__ReqCallback_ReadWheelSensorIDs,@function
                        1406 	.size	_DIAG__ReqCallback_ReadWheelSensorIDs,.-_DIAG__ReqCallback_ReadWheelSensorIDs
                        1407 	.type	_DIAG__ReqCallback_ReadWheelSensorIDs..C.3A.5C_ECU2.5CECU_Rivian_A1.5CTarget.5Crepo_projects.5CpRealEcu.5CcL_LATEST.5Cmake.5Coutput.5Cobjects.5CSwcApplTpms_Diag.,@function
                        1408 	.size	_DIAG__ReqCallback_ReadWheelSensorIDs..C.3A.5C_ECU2.5CECU_Rivian_A1.5CTarget.5Crepo_projects.5CpRealEcu.5CcL_LATEST.5Cmake.5Coutput.5Cobjects.5CSwcApplTpms_Diag.,.-_DIAG__ReqCallback_ReadWheelSensorIDs..C.3A.5C_ECU2.5CECU_Rivian_A1.5CTarget.5Crepo_projects.5CpRealEcu.5CcL_LATEST.5Cmake.5Coutput.5Cobjects.5CSwcApplTpms_Diag.
                        1409 	.align	2
                        1410 --_U8_RetVal	r26	local
                        1411 --_U8_Index	r27	local
                        1412 --_U8_RadPos	r23	local
                        1413 --_U32_TmpID	r10	local

                                                                      Page 26
                                                              C:\Users\nhuliyap\AppData\Local\Temp\gh_00008941.s
                        1414 --_U8_LoopCnt	r9	local
                        1415 
                        1416 --_PS_MsgContext	r24	param
                        1417 
                        1418 	.data
                        1419 	.text
                        1420 	.align	2
                        1421 	.align	2
                        1422 ..gh.f.f.1.e.18:
                        1423 	.type	..gh.f.f.1.e.18,@object
                        1424 	.size	..gh.f.f.1.e.18,0
                        1425 	.global	_DIAG__ReqCallback_WriteWheelSensorIDs..C.3A.5C_ECU2.5CECU_Rivian_A1.5CTarget.5Crepo_projects.5CpRealEcu.5CcL_LATEST.5Cmake.5Coutput.5Cobjects.5CSwcApplTpms_Diag.
                        1426 _DIAG__ReqCallback_WriteWheelSensorIDs..C.3A.5C_ECU2.5CECU_Rivian_A1.5CTarget.5Crepo_projects.5CpRealEcu.5CcL_LATEST.5Cmake.5Coutput.5Cobjects.5CSwcApplTpms_Diag.:
                        1427 _DIAG__ReqCallback_WriteWheelSensorIDs:
0000056c 8007e110       1428 	prepare	{r27,r28,r29,r31},0
00000570 06e0           1429 	mov	r6,r28
                        1430 --	    .bf
                        1431 .LDW64:
00000572 00da           1432 	mov	0,r27
00000574 1b90           1433 	mov	r27,r18
                        1434 .L2914:
00000576 3d0600000000*  1435 	mov	_AU8_ResData,r29
0000057c 12f0           1436 	mov	r18,ep
0000057e ddf1           1437 	add	r29,ep
                        1438 --line433
                        1439 ..lin.C.3A.5C_ECU2.5CECU_Rivian_A1.5CTarget.5Crepo_projects.5CpRealEcu.5CcL_LATEST.5Cmake.5Coutput.5Cobjects.5CSwcApplTpms_Diag.72::
                        1440 .LDWlin72:
00000580 4192           1441 	add	1,r18
00000582 8003           1442 	sst.b	zero,0[ep]
00000584 6592           1443 	cmp	5,r18
00000586 81fd*          1444 	bl	.L2914
                        1445 --line437
                        1446 ..lin.C.3A.5C_ECU2.5CECU_Rivian_A1.5CTarget.5Crepo_projects.5CpRealEcu.5CcL_LATEST.5Cmake.5Coutput.5Cobjects.5CSwcApplTpms_Diag.73::
                        1447 .LDWlin73:
00000588 26f70100       1448 	ld.w	0[r6],ep
0000058c 008d           1449 	sld.w	0[ep],r17
0000058e 0285           1450 	sld.w	4[ep],r16
00000590 1e660c00       1451 	addi	12,ep,r12
00000594 f089           1452 	cmp	r16,r17
00000596 e20d*          1453 	be	.L2916
00000598 0475           1454 	sld.w	8[ep],r14
0000059a ee89           1455 	cmp	r14,r17
0000059c b20d*          1456 	be	.L2916
0000059e 2c7f0100       1457 	ld.w	0[r12],r15
000005a2 ef89           1458 	cmp	r15,r17
000005a4 f205*          1459 	be	.L2916
000005a6 ee81           1460 	cmp	r14,r16
000005a8 d205*          1461 	be	.L2916
000005aa ef81           1462 	cmp	r15,r16
000005ac b205*          1463 	be	.L2916
000005ae ef71           1464 	cmp	r15,r14
000005b0 ca05*          1465 	bne	.L2915
                        1466 .L2916:
                        1467 --line449
                        1468 ..lin.C.3A.5C_ECU2.5CECU_Rivian_A1.5CTarget.5Crepo_projects.5CpRealEcu.5CcL_LATEST.5Cmake.5Coutput.5Cobjects.5CSwcApplTpms_Diag.74::
                        1469 .LDWlin74:
000005b2 20de2200       1470 	movea	34,zero,r27
000005b6 a54d*          1471 	br	.L2922
                        1472 .L2915:
                        1473 --line453
                        1474 ..lin.C.3A.5C_ECU2.5CECU_Rivian_A1.5CTarget.5Crepo_projects.5CpRealEcu.5CcL_LATEST.5Cmake.5Coutput.5Cobjects.5CSwcApplTpms_Diag.75::

                                                                      Page 27
                                                              C:\Users\nhuliyap\AppData\Local\Temp\gh_00008941.s
                        1475 .LDWlin75:
000005b8 6058           1476 	sld.bu	0[ep],r11
000005ba 1d30           1477 	mov	r29,r6
000005bc 5d5f0000       1478 	st.b	r11,0[r29]
000005c0 6150           1479 	sld.bu	1[ep],r10
000005c2 5d570100       1480 	st.b	r10,1[r29]
000005c6 6248           1481 	sld.bu	2[ep],r9
000005c8 5d4f0200       1482 	st.b	r9,2[r29]
000005cc 6340           1483 	sld.bu	3[ep],r8
000005ce 1df0           1484 	mov	r29,ep
000005d0 8403           1485 	sst.b	zero,4[ep]
000005d2 8343           1486 	sst.b	r8,3[ep]
                        1487 	jarl	_DIAG__PutNewIDAndResetWarning,lp
                        1487 <EXPANSION BEGIN>
                        1487 jarl22 _DIAG__PutNewIDAndResetWarning , lp 
000005d4 bfff76fd*      1487 <EXPANSION END>
                        1488 --line460
                        1489 ..lin.C.3A.5C_ECU2.5CECU_Rivian_A1.5CTarget.5Crepo_projects.5CpRealEcu.5CcL_LATEST.5Cmake.5Coutput.5Cobjects.5CSwcApplTpms_Diag.76::
                        1490 .LDWlin76:
000005d8 3cf70100       1491 	ld.w	0[r28],ep
000005dc 018a           1492 	mov	1,r17
000005de 6438           1493 	sld.bu	4[ep],r7
000005e0 5d3f0000       1494 	st.b	r7,0[r29]
000005e4 6530           1495 	sld.bu	5[ep],r6
000005e6 5d370100       1496 	st.b	r6,1[r29]
000005ea 6698           1497 	sld.bu	6[ep],r19
000005ec 1d30           1498 	mov	r29,r6
000005ee 5d9f0200       1499 	st.b	r19,2[r29]
000005f2 6790           1500 	sld.bu	7[ep],r18
000005f4 1df0           1501 	mov	r29,ep
000005f6 848b           1502 	sst.b	r17,4[ep]
000005f8 8393           1503 	sst.b	r18,3[ep]
                        1504 	jarl	_DIAG__PutNewIDAndResetWarning,lp
                        1504 <EXPANSION BEGIN>
                        1504 jarl22 _DIAG__PutNewIDAndResetWarning , lp 
000005fa bfff50fd*      1504 <EXPANSION END>
                        1505 --line467
                        1506 ..lin.C.3A.5C_ECU2.5CECU_Rivian_A1.5CTarget.5Crepo_projects.5CpRealEcu.5CcL_LATEST.5Cmake.5Coutput.5Cobjects.5CSwcApplTpms_Diag.77::
                        1507 .LDWlin77:
000005fe 3cf70100       1508 	ld.w	0[r28],ep
00000602 0262           1509 	mov	2,r12
00000604 1d30           1510 	mov	r29,r6
00000606 6880           1511 	sld.bu	8[ep],r16
00000608 5d870000       1512 	st.b	r16,0[r29]
0000060c 6978           1513 	sld.bu	9[ep],r15
0000060e 5d7f0100       1514 	st.b	r15,1[r29]
00000612 6a70           1515 	sld.bu	10[ep],r14
00000614 5d770200       1516 	st.b	r14,2[r29]
00000618 6b68           1517 	sld.bu	11[ep],r13
0000061a 1df0           1518 	mov	r29,ep
0000061c 8463           1519 	sst.b	r12,4[ep]
0000061e 836b           1520 	sst.b	r13,3[ep]
                        1521 	jarl	_DIAG__PutNewIDAndResetWarning,lp
                        1521 <EXPANSION BEGIN>
                        1521 jarl22 _DIAG__PutNewIDAndResetWarning , lp 
00000620 bfff2afd*      1521 <EXPANSION END>
                        1522 --line474
                        1523 ..lin.C.3A.5C_ECU2.5CECU_Rivian_A1.5CTarget.5Crepo_projects.5CpRealEcu.5CcL_LATEST.5Cmake.5Coutput.5Cobjects.5CSwcApplTpms_Diag.78::
                        1524 .LDWlin78:
00000624 3cf70100       1525 	ld.w	0[r28],ep
00000628 033a           1526 	mov	3,r7

                                                                      Page 28
                                                              C:\Users\nhuliyap\AppData\Local\Temp\gh_00008941.s
0000062a 1d30           1527 	mov	r29,r6
0000062c 6c58           1528 	sld.bu	12[ep],r11
0000062e 5d5f0000       1529 	st.b	r11,0[r29]
00000632 6d50           1530 	sld.bu	13[ep],r10
00000634 5d570100       1531 	st.b	r10,1[r29]
00000638 6e48           1532 	sld.bu	14[ep],r9
0000063a 5d4f0200       1533 	st.b	r9,2[r29]
0000063e 6f40           1534 	sld.bu	15[ep],r8
00000640 1df0           1535 	mov	r29,ep
00000642 843b           1536 	sst.b	r7,4[ep]
00000644 8343           1537 	sst.b	r8,3[ep]
                        1538 	jarl	_DIAG__PutNewIDAndResetWarning,lp
                        1538 <EXPANSION BEGIN>
                        1538 jarl22 _DIAG__PutNewIDAndResetWarning , lp 
00000646 bfff04fd*      1538 <EXPANSION END>
                        1539 .L2922:
                        1540 --line481
                        1541 ..lin.C.3A.5C_ECU2.5CECU_Rivian_A1.5CTarget.5Crepo_projects.5CpRealEcu.5CcL_LATEST.5Cmake.5Coutput.5Cobjects.5CSwcApplTpms_Diag.79::
                        1542 .LDWlin79:
0000064a 1b50           1543 	mov	r27,r10
                        1544 --	    .ef
                        1545 .LDW74:
0000064c 4006ff10       1546 	dispose	0,{r27,r28,r29,r31},[lp]
                        1547 ___ghs_eofn_DIAG__ReqCallback_WriteWheelSensorIDs:
                        1548 	.type	_DIAG__ReqCallback_WriteWheelSensorIDs,@function
                        1549 	.size	_DIAG__ReqCallback_WriteWheelSensorIDs,.-_DIAG__ReqCallback_WriteWheelSensorIDs
                        1550 	.type	_DIAG__ReqCallback_WriteWheelSensorIDs..C.3A.5C_ECU2.5CECU_Rivian_A1.5CTarget.5Crepo_projects.5CpRealEcu.5CcL_LATEST.5Cmake.5Coutput.5Cobjects.5CSwcApplTpms_Diag.,@function
                        1551 	.size	_DIAG__ReqCallback_WriteWheelSensorIDs..C.3A.5C_ECU2.5CECU_Rivian_A1.5CTarget.5Crepo_projects.5CpRealEcu.5CcL_LATEST.5Cmake.5Coutput.5Cobjects.5CSwcApplTpms_Diag.,.-_DIAG__ReqCallback_WriteWheelSensorIDs..C.3A.5C_ECU2.5CECU_Rivian_A1.5CTarget.5Crepo_projects.5CpRealEcu.5CcL_LATEST.5Cmake.5Coutput.5Cobjects.5CSwcApplTpms_Diag.
                        1552 	.align	2
                        1553 --_U8_RetVal	r27	local
                        1554 --_U8_LoopCnt	r18	local
                        1555 --_ID3	r13	local
                        1556 --_ID4	r12	local
                        1557 
                        1558 --_PS_MsgContext	r28	param
                        1559 
                        1560 	.data
                        1561 	.text
                        1562 	.align	2
                        1563 	.align	2
                        1564 ..gh.f.f.1.e.19:
                        1565 	.type	..gh.f.f.1.e.19,@object
                        1566 	.size	..gh.f.f.1.e.19,0
                        1567 	.global	_DIAG__GetVehicleSpecPara..C.3A.5C_ECU2.5CECU_Rivian_A1.5CTarget.5Crepo_projects.5CpRealEcu.5CcL_LATEST.5Cmake.5Coutput.5Cobjects.5CSwcApplTpms_Diag.
                        1568 _DIAG__GetVehicleSpecPara..C.3A.5C_ECU2.5CECU_Rivian_A1.5CTarget.5Crepo_projects.5CpRealEcu.5CcL_LATEST.5Cmake.5Coutput.5Cobjects.5CSwcApplTpms_Diag.:
                        1569 _DIAG__GetVehicleSpecPara:
00000650 80076100       1570 	prepare	{r29,r31},0
00000654 06e8           1571 	mov	r6,r29
                        1572 --	    .bf
                        1573 .LDW84:
                        1574 	jarl	_GETucVarCodLegislationEE,lp
                        1574 <EXPANSION BEGIN>
                        1574 jarl22 _GETucVarCodLegislationEE , lp 
00000656 80ff0000*      1574 <EXPANSION END>
0000065a 5d570000       1575 	st.b	r10,0[r29]
                        1576 --line1249
                        1577 ..lin.C.3A.5C_ECU2.5CECU_Rivian_A1.5CTarget.5Crepo_projects.5CpRealEcu.5CcL_LATEST.5Cmake.5Coutput.5Cobjects.5CSwcApplTpms_Diag.80::
                        1578 .LDWlin80:
                        1579 	jarl	_GETucVarCodPlacardPressEE,lp
                        1579 <EXPANSION BEGIN>
                        1579 jarl22 _GETucVarCodPlacardPressEE , lp 

                                                                      Page 29
                                                              C:\Users\nhuliyap\AppData\Local\Temp\gh_00008941.s
0000065e 80ff0000*      1579 <EXPANSION END>
00000662 5d570100       1580 	st.b	r10,1[r29]
                        1581 --line1251
                        1582 ..lin.C.3A.5C_ECU2.5CECU_Rivian_A1.5CTarget.5Crepo_projects.5CpRealEcu.5CcL_LATEST.5Cmake.5Coutput.5Cobjects.5CSwcApplTpms_Diag.81::
                        1583 .LDWlin81:
                        1584 	jarl	_NvM3_GETucVarCodOffroadPlacardPress,lp
                        1584 <EXPANSION BEGIN>
                        1584 jarl22 _NvM3_GETucVarCodOffroadPlacardPress , lp 
00000666 80ff0000*      1584 <EXPANSION END>
0000066a 5d570200       1585 	st.b	r10,2[r29]
                        1586 --line1253
                        1587 ..lin.C.3A.5C_ECU2.5CECU_Rivian_A1.5CTarget.5Crepo_projects.5CpRealEcu.5CcL_LATEST.5Cmake.5Coutput.5Cobjects.5CSwcApplTpms_Diag.82::
                        1588 .LDWlin82:
                        1589 	jarl	_GETucVarCodMinPressThresEE,lp
                        1589 <EXPANSION BEGIN>
                        1589 jarl22 _GETucVarCodMinPressThresEE , lp 
0000066e 80ff0000*      1589 <EXPANSION END>
00000672 5d570300       1590 	st.b	r10,3[r29]
                        1591 --	    .ef
                        1592 .LDW94:
                        1593 --line1255
                        1594 ..lin.C.3A.5C_ECU2.5CECU_Rivian_A1.5CTarget.5Crepo_projects.5CpRealEcu.5CcL_LATEST.5Cmake.5Coutput.5Cobjects.5CSwcApplTpms_Diag.83::
                        1595 .LDWlin83:
00000676 40067f00       1596 	dispose	0,{r29,r31},[lp]
                        1597 ___ghs_eofn_DIAG__GetVehicleSpecPara:
                        1598 	.type	_DIAG__GetVehicleSpecPara,@function
                        1599 	.size	_DIAG__GetVehicleSpecPara,.-_DIAG__GetVehicleSpecPara
                        1600 	.type	_DIAG__GetVehicleSpecPara..C.3A.5C_ECU2.5CECU_Rivian_A1.5CTarget.5Crepo_projects.5CpRealEcu.5CcL_LATEST.5Cmake.5Coutput.5Cobjects.5CSwcApplTpms_Diag.,@function
                        1601 	.size	_DIAG__GetVehicleSpecPara..C.3A.5C_ECU2.5CECU_Rivian_A1.5CTarget.5Crepo_projects.5CpRealEcu.5CcL_LATEST.5Cmake.5Coutput.5Cobjects.5CSwcApplTpms_Diag.,.-_DIAG__GetVehicleSpecPara..C.3A.5C_ECU2.5CECU_Rivian_A1.5CTarget.5Crepo_projects.5CpRealEcu.5CcL_LATEST.5Cmake.5Coutput.5Cobjects.5CSwcApplTpms_Diag.
                        1602 	.align	2
                        1603 
                        1604 --_PU8_ResData	r29	param
                        1605 
                        1606 	.section ".bss","awb"
                        1607 .L3140:
                        1608 	.type	.L3140,@object
                        1609 	.size	.L3140,0
                        1610 	.data
                        1611 	.text
                        1612 	.align	2
                        1613 	.align	2
                        1614 ..gh.f.f.1.e.20:
                        1615 	.type	..gh.f.f.1.e.20,@object
                        1616 	.size	..gh.f.f.1.e.20,0
                        1617 	.global	_DIAG__ReqCallback_ReadVehicleSpecificParameters..C.3A.5C_ECU2.5CECU_Rivian_A1.5CTarget.5Crepo_projects.5CpRealEcu.5CcL_LATEST.5Cmake.5Coutput.5Cobjects.5CSwcApplTpms_Diag.
                        1618 _DIAG__ReqCallback_ReadVehicleSpecificParameters..C.3A.5C_ECU2.5CECU_Rivian_A1.5CTarget.5Crepo_projects.5CpRealEcu.5CcL_LATEST.5Cmake.5Coutput.5Cobjects.5CSwcApplTpms_Diag.:
                        1619 _DIAG__ReqCallback_ReadVehicleSpecificParameters:
0000067a 8007e110       1620 	prepare	{r27,r28,r29,r31},0
0000067e 06d8           1621 	mov	r6,r27
00000680 3d0600000000*  1622 	mov	_U16_RespLenght,r29
                        1623 --	    .bf
                        1624 .LDW05:
                        1625 --line489
                        1626 ..lin.C.3A.5C_ECU2.5CECU_Rivian_A1.5CTarget.5Crepo_projects.5CpRealEcu.5CcL_LATEST.5Cmake.5Coutput.5Cobjects.5CSwcApplTpms_Diag.84::
                        1627 .LDWlin84:
00000686 0092           1628 	mov	0,r18
                        1629 .L3162:
00000688 12f0           1630 	mov	r18,ep
0000068a ddf1           1631 	add	r29,ep
0000068c 4192           1632 	add	1,r18
0000068e 3de60400       1633 	movea	4,r29,r28

                                                                      Page 30
                                                              C:\Users\nhuliyap\AppData\Local\Temp\gh_00008941.s
00000692 8403           1634 	sst.b	zero,4[ep]
00000694 1206f0ff       1635 	addi	-16,r18,zero
00000698 89fd*          1636 	bnl	.L3162
                        1637 --line493
                        1638 ..lin.C.3A.5C_ECU2.5CECU_Rivian_A1.5CTarget.5Crepo_projects.5CpRealEcu.5CcL_LATEST.5Cmake.5Coutput.5Cobjects.5CSwcApplTpms_Diag.85::
                        1639 .LDWlin85:
0000069a 1c30           1640 	mov	r28,r6
                        1641 	jarl	_DIAG__GetVehicleSpecPara,lp
                        1641 <EXPANSION BEGIN>
                        1641 jarl22 _DIAG__GetVehicleSpecPara , lp 
0000069c bfffb4ff*      1641 <EXPANSION END>
                        1642 --line495
                        1643 ..lin.C.3A.5C_ECU2.5CECU_Rivian_A1.5CTarget.5Crepo_projects.5CpRealEcu.5CcL_LATEST.5Cmake.5Coutput.5Cobjects.5CSwcApplTpms_Diag.86::
                        1644 .LDWlin86:
000006a0 1bf0           1645 	mov	r27,ep
000006a2 0482           1646 	mov	4,r16
000006a4 05e5           1647 	sst.w	r28,8[ep]
000006a6 7d870000       1648 	st.h	r16,0[r29]
000006aa 07ed           1649 	sst.w	r29,12[ep]
000006ac 0052           1650 	mov	0,r10
                        1651 --	    .ef
                        1652 .LDW15:
000006ae 4006ff10       1653 	dispose	0,{r27,r28,r29,r31},[lp]
                        1654 ___ghs_eofn_DIAG__ReqCallback_ReadVehicleSpecificParameters:
                        1655 	.type	_DIAG__ReqCallback_ReadVehicleSpecificParameters,@function
                        1656 	.size	_DIAG__ReqCallback_ReadVehicleSpecificParameters,.-_DIAG__ReqCallback_ReadVehicleSpecificParameters
                        1657 	.type	_DIAG__ReqCallback_ReadVehicleSpecificParameters..C.3A.5C_ECU2.5CECU_Rivian_A1.5CTarget.5Crepo_projects.5CpRealEcu.5CcL_LATEST.5Cmake.5Coutput.5Cobjects.5CSwcApplTpms_Diag.,@function
                        1658 	.size	_DIAG__ReqCallback_ReadVehicleSpecificParameters..C.3A.5C_ECU2.5CECU_Rivian_A1.5CTarget.5Crepo_projects.5CpRealEcu.5CcL_LATEST.5Cmake.5Coutput.5Cobjects.5CSwcApplTpms_Diag.,.-_DIAG__ReqCallback_ReadVehicleSpecificParameters..C.3A.5C_ECU2.5CECU_Rivian_A1.5CTarget.5Crepo_projects.5CpRealEcu.5CcL_LATEST.5Cmake.5Coutput.5Cobjects.5CSwcApplTpms_Diag.
                        1659 	.align	2
                        1660 --_U8_LoopCnt	r18	local
                        1661 
                        1662 --_PS_MsgContext	r27	param
                        1663 
                        1664 	.data
                        1665 	.text
                        1666 	.align	2
                        1667 	.align	2
                        1668 ..gh.f.f.1.e.21:
                        1669 	.type	..gh.f.f.1.e.21,@object
                        1670 	.size	..gh.f.f.1.e.21,0
                        1671 	.global	_DIAG__PutVehicleSpecPara..C.3A.5C_ECU2.5CECU_Rivian_A1.5CTarget.5Crepo_projects.5CpRealEcu.5CcL_LATEST.5Cmake.5Coutput.5Cobjects.5CSwcApplTpms_Diag.
                        1672 _DIAG__PutVehicleSpecPara..C.3A.5C_ECU2.5CECU_Rivian_A1.5CTarget.5Crepo_projects.5CpRealEcu.5CcL_LATEST.5Cmake.5Coutput.5Cobjects.5CSwcApplTpms_Diag.:
                        1673 _DIAG__PutVehicleSpecPara:
000006b2 80076100       1674 	prepare	{r29,r31},0
000006b6 06e8           1675 	mov	r6,r29
                        1676 --	    .bf
                        1677 .LDW25:
000006b8 86370100       1678 	ld.bu	0[r6],r6
                        1679 	jarl	_PUTucVarCodLegislationEE,lp
                        1679 <EXPANSION BEGIN>
                        1679 jarl22 _PUTucVarCodLegislationEE , lp 
000006bc 80ff0000*      1679 <EXPANSION END>
                        1680 --line1261
                        1681 ..lin.C.3A.5C_ECU2.5CECU_Rivian_A1.5CTarget.5Crepo_projects.5CpRealEcu.5CcL_LATEST.5Cmake.5Coutput.5Cobjects.5CSwcApplTpms_Diag.87::
                        1682 .LDWlin87:
000006c0 bd370100       1683 	ld.bu	1[r29],r6
                        1684 	jarl	_PUTucVarCodPlacardPressEE,lp
                        1684 <EXPANSION BEGIN>
                        1684 jarl22 _PUTucVarCodPlacardPressEE , lp 
000006c4 80ff0000*      1684 <EXPANSION END>
                        1685 --line1263

                                                                      Page 31
                                                              C:\Users\nhuliyap\AppData\Local\Temp\gh_00008941.s
                        1686 ..lin.C.3A.5C_ECU2.5CECU_Rivian_A1.5CTarget.5Crepo_projects.5CpRealEcu.5CcL_LATEST.5Cmake.5Coutput.5Cobjects.5CSwcApplTpms_Diag.88::
                        1687 .LDWlin88:
                        1688 	jarl	_CalibrSetPressureCAL,lp
                        1688 <EXPANSION BEGIN>
                        1688 jarl22 _CalibrSetPressureCAL , lp 
000006c8 80ff0000*      1688 <EXPANSION END>
                        1689 --	    .ef
                        1690 .LDW35:
                        1691 --line1264
                        1692 ..lin.C.3A.5C_ECU2.5CECU_Rivian_A1.5CTarget.5Crepo_projects.5CpRealEcu.5CcL_LATEST.5Cmake.5Coutput.5Cobjects.5CSwcApplTpms_Diag.89::
                        1693 .LDWlin89:
000006cc 40067f00       1694 	dispose	0,{r29,r31},[lp]
                        1695 ___ghs_eofn_DIAG__PutVehicleSpecPara:
                        1696 	.type	_DIAG__PutVehicleSpecPara,@function
                        1697 	.size	_DIAG__PutVehicleSpecPara,.-_DIAG__PutVehicleSpecPara
                        1698 	.type	_DIAG__PutVehicleSpecPara..C.3A.5C_ECU2.5CECU_Rivian_A1.5CTarget.5Crepo_projects.5CpRealEcu.5CcL_LATEST.5Cmake.5Coutput.5Cobjects.5CSwcApplTpms_Diag.,@function
                        1699 	.size	_DIAG__PutVehicleSpecPara..C.3A.5C_ECU2.5CECU_Rivian_A1.5CTarget.5Crepo_projects.5CpRealEcu.5CcL_LATEST.5Cmake.5Coutput.5Cobjects.5CSwcApplTpms_Diag.,.-_DIAG__PutVehicleSpecPara..C.3A.5C_ECU2.5CECU_Rivian_A1.5CTarget.5Crepo_projects.5CpRealEcu.5CcL_LATEST.5Cmake.5Coutput.5Cobjects.5CSwcApplTpms_Diag.
                        1700 	.align	2
                        1701 
                        1702 --_PU8_ReqData	r29	param
                        1703 
                        1704 	.section ".bss","awb"
                        1705 .L3249:
                        1706 	.type	.L3249,@object
                        1707 	.size	.L3249,0
                        1708 	.data
                        1709 	.text
                        1710 	.align	2
                        1711 	.align	2
                        1712 ..gh.f.f.1.e.22:
                        1713 	.type	..gh.f.f.1.e.22,@object
                        1714 	.size	..gh.f.f.1.e.22,0
                        1715 	.global	_DIAG__PutMinPressThresEE..C.3A.5C_ECU2.5CECU_Rivian_A1.5CTarget.5Crepo_projects.5CpRealEcu.5CcL_LATEST.5Cmake.5Coutput.5Cobjects.5CSwcApplTpms_Diag.
                        1716 _DIAG__PutMinPressThresEE..C.3A.5C_ECU2.5CECU_Rivian_A1.5CTarget.5Crepo_projects.5CpRealEcu.5CcL_LATEST.5Cmake.5Coutput.5Cobjects.5CSwcApplTpms_Diag.:
                        1717 _DIAG__PutMinPressThresEE:
000006d0 80072100       1718 	prepare	{r31},0
000006d4 06f0           1719 	mov	r6,ep
                        1720 --	    .bf
                        1721 .LDW45:
000006d6 6030           1722 	sld.bu	0[ep],r6
                        1723 	jarl	_PUTucVarCodMinPressThresEE,lp
                        1723 <EXPANSION BEGIN>
                        1723 jarl22 _PUTucVarCodMinPressThresEE , lp 
000006d8 80ff0000*      1723 <EXPANSION END>
                        1724 --line1275
                        1725 ..lin.C.3A.5C_ECU2.5CECU_Rivian_A1.5CTarget.5Crepo_projects.5CpRealEcu.5CcL_LATEST.5Cmake.5Coutput.5Cobjects.5CSwcApplTpms_Diag.90::
                        1726 .LDWlin90:
                        1727 	jarl	_CalibrSetPressureCAL,lp
                        1727 <EXPANSION BEGIN>
                        1727 jarl22 _CalibrSetPressureCAL , lp 
000006dc 80ff0000*      1727 <EXPANSION END>
                        1728 --	    .ef
                        1729 .LDW55:
                        1730 --line1276
                        1731 ..lin.C.3A.5C_ECU2.5CECU_Rivian_A1.5CTarget.5Crepo_projects.5CpRealEcu.5CcL_LATEST.5Cmake.5Coutput.5Cobjects.5CSwcApplTpms_Diag.91::
                        1732 .LDWlin91:
000006e0 40063f00       1733 	dispose	0,{r31},[lp]
                        1734 ___ghs_eofn_DIAG__PutMinPressThresEE:
                        1735 	.type	_DIAG__PutMinPressThresEE,@function
                        1736 	.size	_DIAG__PutMinPressThresEE,.-_DIAG__PutMinPressThresEE
                        1737 	.type	_DIAG__PutMinPressThresEE..C.3A.5C_ECU2.5CECU_Rivian_A1.5CTarget.5Crepo_projects.5CpRealEcu.5CcL_LATEST.5Cmake.5Coutput.5Cobjects.5CSwcApplTpms_Diag.,@function

                                                                      Page 32
                                                              C:\Users\nhuliyap\AppData\Local\Temp\gh_00008941.s
                        1738 	.size	_DIAG__PutMinPressThresEE..C.3A.5C_ECU2.5CECU_Rivian_A1.5CTarget.5Crepo_projects.5CpRealEcu.5CcL_LATEST.5Cmake.5Coutput.5Cobjects.5CSwcApplTpms_Diag.,.-_DIAG__PutMinPressThresEE..C.3A.5C_ECU2.5CECU_Rivian_A1.5CTarget.5Crepo_projects.5CpRealEcu.5CcL_LATEST.5Cmake.5Coutput.5Cobjects.5CSwcApplTpms_Diag.
                        1739 	.align	2
                        1740 
                        1741 --_PU8_ReqData	ep	param
                        1742 
                        1743 	.section ".bss","awb"
                        1744 .L3297:
                        1745 	.type	.L3297,@object
                        1746 	.size	.L3297,0
                        1747 	.data
                        1748 	.text
                        1749 	.align	2
                        1750 	.align	2
                        1751 ..gh.f.f.1.e.23:
                        1752 	.type	..gh.f.f.1.e.23,@object
                        1753 	.size	..gh.f.f.1.e.23,0
                        1754 	.global	_DIAG__ReqCallback_WriteVehicleSpecificParameters..C.3A.5C_ECU2.5CECU_Rivian_A1.5CTarget.5Crepo_projects.5CpRealEcu.5CcL_LATEST.5Cmake.5Coutput.5Cobjects.5CSwcApplTpms_Diag.
                        1755 _DIAG__ReqCallback_WriteVehicleSpecificParameters..C.3A.5C_ECU2.5CECU_Rivian_A1.5CTarget.5Crepo_projects.5CpRealEcu.5CcL_LATEST.5Cmake.5Coutput.5Cobjects.5CSwcApplTpms_Diag.:
                        1756 _DIAG__ReqCallback_WriteVehicleSpecificParameters:
000006e4 8207e1f0       1757 	prepare	{r24,r25,r26,r27,r28,r29,r31},1
000006e8 06c0           1758 	mov	r6,r24
000006ea 3d0600000000*  1759 	mov	_U16_RespLenght,r29
                        1760 --	    .bf
                        1761 .LDW65:
                        1762 --line514
                        1763 ..lin.C.3A.5C_ECU2.5CECU_Rivian_A1.5CTarget.5Crepo_projects.5CpRealEcu.5CcL_LATEST.5Cmake.5Coutput.5Cobjects.5CSwcApplTpms_Diag.92::
                        1764 .LDWlin92:
000006f0 26f70100       1765 	ld.w	0[r6],ep
000006f4 00ca           1766 	mov	0,r25
000006f6 6188           1767 	sld.bu	1[ep],r17
000006f8 6370           1768 	sld.bu	3[ep],r14
000006fa 6090           1769 	sld.bu	0[ep],r18
000006fc 62d8           1770 	sld.bu	2[ep],r27
000006fe 117ec4ff       1771 	addi	-60,r17,r15
00000702 43770100       1772 	st.b	r14,1[sp]
00000706 0f0665ff       1773 	addi	-155,r15,zero
0000070a 913d*          1774 	bl	.L3317
                        1775 --line521
                        1776 ..lin.C.3A.5C_ECU2.5CECU_Rivian_A1.5CTarget.5Crepo_projects.5CpRealEcu.5CcL_LATEST.5Cmake.5Coutput.5Cobjects.5CSwcApplTpms_Diag.93::
                        1777 .LDWlin93:
0000070c 6492           1778 	cmp	4,r18
0000070e b205*          1779 	be	.L3324
                        1780 --line527
                        1781 ..lin.C.3A.5C_ECU2.5CECU_Rivian_A1.5CTarget.5Crepo_projects.5CpRealEcu.5CcL_LATEST.5Cmake.5Coutput.5Cobjects.5CSwcApplTpms_Diag.94::
                        1782 .LDWlin94:
00000710 6192           1783 	cmp	1,r18
00000712 ea05*          1784 	bne	.L3323
                        1785 .L3324:
                        1786 --line530
                        1787 ..lin.C.3A.5C_ECU2.5CECU_Rivian_A1.5CTarget.5Crepo_projects.5CpRealEcu.5CcL_LATEST.5Cmake.5Coutput.5Cobjects.5CSwcApplTpms_Diag.95::
                        1788 .LDWlin95:
00000714 20e63c00       1789 	movea	60,zero,r28
                        1790 .L3448:
00000718 20d64000       1791 	movea	64,zero,r26
0000071c c50d*          1792 	br	.L3333
                        1793 .L3323:
                        1794 --line533
                        1795 ..lin.C.3A.5C_ECU2.5CECU_Rivian_A1.5CTarget.5Crepo_projects.5CpRealEcu.5CcL_LATEST.5Cmake.5Coutput.5Cobjects.5CSwcApplTpms_Diag.96::
                        1796 .LDWlin96:
0000071e 6292           1797 	cmp	2,r18
00000720 ca05*          1798 	bne	.L3326

                                                                      Page 33
                                                              C:\Users\nhuliyap\AppData\Local\Temp\gh_00008941.s
                        1799 --line536
                        1800 ..lin.C.3A.5C_ECU2.5CECU_Rivian_A1.5CTarget.5Crepo_projects.5CpRealEcu.5CcL_LATEST.5Cmake.5Coutput.5Cobjects.5CSwcApplTpms_Diag.97::
                        1801 .LDWlin97:
00000722 20e63800       1802 	movea	56,zero,r28
00000726 95fd*          1803 	br	.L3448
                        1804 .L3326:
                        1805 --line539
                        1806 ..lin.C.3A.5C_ECU2.5CECU_Rivian_A1.5CTarget.5Crepo_projects.5CpRealEcu.5CcL_LATEST.5Cmake.5Coutput.5Cobjects.5CSwcApplTpms_Diag.98::
                        1807 .LDWlin98:
00000728 6392           1808 	cmp	3,r18
0000072a 9a2d*          1809 	bne	.L3317
                        1810 --line542
                        1811 ..lin.C.3A.5C_ECU2.5CECU_Rivian_A1.5CTarget.5Crepo_projects.5CpRealEcu.5CcL_LATEST.5Cmake.5Coutput.5Cobjects.5CSwcApplTpms_Diag.99::
                        1812 .LDWlin99:
0000072c 20e64000       1813 	movea	64,zero,r28
00000730 20d64800       1814 	movea	72,zero,r26
                        1815 .L3333:
00000734 03f0           1816 	mov	sp,ep
00000736 8293           1817 	sst.b	r18,2[ep]
00000738 838b           1818 	sst.b	r17,3[ep]
0000073a 23360200       1819 	movea	2,sp,r6
                        1820 	jarl	_DIAG__PutVehicleSpecPara,lp
                        1820 <EXPANSION BEGIN>
                        1820 jarl22 _DIAG__PutVehicleSpecPara , lp 
0000073e bfff74ff*      1820 <EXPANSION END>
                        1821 --line556
                        1822 ..lin.C.3A.5C_ECU2.5CECU_Rivian_A1.5CTarget.5Crepo_projects.5CpRealEcu.5CcL_LATEST.5Cmake.5Coutput.5Cobjects.5CSwcApplTpms_Diag.100::
                        1823 .LDWlin100:
00000742 fbd1           1824 	cmp	r27,r26
00000744 fbd72633       1825 	cmovnh	r27,r26,r6
                        1826 	jarl	_NvM3_PUTucVarCodOffroadPlacardPress,lp
                        1826 <EXPANSION BEGIN>
                        1826 jarl22 _NvM3_PUTucVarCodOffroadPlacardPress , lp 
00000748 80ff0000*      1826 <EXPANSION END>
                        1827 --line563
                        1828 ..lin.C.3A.5C_ECU2.5CECU_Rivian_A1.5CTarget.5Crepo_projects.5CpRealEcu.5CcL_LATEST.5Cmake.5Coutput.5Cobjects.5CSwcApplTpms_Diag.101::
                        1829 .LDWlin101:
0000074c a36f0100       1830 	ld.bu	1[sp],r13
00000750 fc69           1831 	cmp	r28,r13
00000752 b905*          1832 	bnl	.L3336
                        1833 --line565
                        1834 ..lin.C.3A.5C_ECU2.5CECU_Rivian_A1.5CTarget.5Crepo_projects.5CpRealEcu.5CcL_LATEST.5Cmake.5Coutput.5Cobjects.5CSwcApplTpms_Diag.102::
                        1835 .LDWlin102:
00000754 43e70100       1836 	st.b	r28,1[sp]
                        1837 .L3336:
00000758 23360100       1838 	movea	1,sp,r6
                        1839 	jarl	_DIAG__PutMinPressThresEE,lp
                        1839 <EXPANSION BEGIN>
                        1839 jarl22 _DIAG__PutMinPressThresEE , lp 
0000075c bfff74ff*      1839 <EXPANSION END>
                        1840 --line570
                        1841 ..lin.C.3A.5C_ECU2.5CECU_Rivian_A1.5CTarget.5Crepo_projects.5CpRealEcu.5CcL_LATEST.5Cmake.5Coutput.5Cobjects.5CSwcApplTpms_Diag.103::
                        1842 .LDWlin103:
00000760 a3370100       1843 	ld.bu	1[sp],r6
00000764 1938           1844 	mov	r25,r7
                        1845 	jarl	_ucPutPMinCS,lp
                        1845 <EXPANSION BEGIN>
                        1845 jarl22 _ucPutPMinCS , lp 
00000766 80ff0000*      1845 <EXPANSION END>
0000076a e051           1846 	cmp	zero,r10
0000076c a30d*          1847 	bnh	.L3341

                                                                      Page 34
                                                              C:\Users\nhuliyap\AppData\Local\Temp\gh_00008941.s
                        1848 --line572
                        1849 ..lin.C.3A.5C_ECU2.5CECU_Rivian_A1.5CTarget.5Crepo_projects.5CpRealEcu.5CcL_LATEST.5Cmake.5Coutput.5Cobjects.5CSwcApplTpms_Diag.104::
                        1850 .LDWlin104:
0000076e 270600000000*  1851 	mov	_tCDA,r7
00000774 0232           1852 	mov	2,r6
                        1853 	jarl	_PutDataEE,lp
                        1853 <EXPANSION BEGIN>
                        1853 jarl22 _PutDataEE , lp 
00000776 80ff0000*      1853 <EXPANSION END>
0000077a b505*          1854 	br	.L3341
                        1855 .L3317:
                        1856 --line581
                        1857 ..lin.C.3A.5C_ECU2.5CECU_Rivian_A1.5CTarget.5Crepo_projects.5CpRealEcu.5CcL_LATEST.5Cmake.5Coutput.5Cobjects.5CSwcApplTpms_Diag.105::
                        1858 .LDWlin105:
0000077c 20ce3100       1859 	movea	49,zero,r25
                        1860 .L3341:
00000780 7d070000       1861 	st.h	zero,0[r29]
00000784 78ef0d00       1862 	st.w	r29,12[r24]
00000788 1950           1863 	mov	r25,r10
                        1864 --	    .ef
                        1865 .LDW75:
0000078a 4206fff0       1866 	dispose	1,{r24,r25,r26,r27,r28,r29,r31},[lp]
                        1867 ___ghs_eofn_DIAG__ReqCallback_WriteVehicleSpecificParameters:
                        1868 	.type	_DIAG__ReqCallback_WriteVehicleSpecificParameters,@function
                        1869 	.size	_DIAG__ReqCallback_WriteVehicleSpecificParameters,.-_DIAG__ReqCallback_WriteVehicleSpecificParameters
                        1870 	.type	_DIAG__ReqCallback_WriteVehicleSpecificParameters..C.3A.5C_ECU2.5CECU_Rivian_A1.5CTarget.5Crepo_projects.5CpRealEcu.5CcL_LATEST.5Cmake.5Coutput.5Cobjects.5CSwcApplTpms_Diag.,@function
                        1871 	.size	_DIAG__ReqCallback_WriteVehicleSpecificParameters..C.3A.5C_ECU2.5CECU_Rivian_A1.5CTarget.5Crepo_projects.5CpRealEcu.5CcL_LATEST.5Cmake.5Coutput.5Cobjects.5CSwcApplTpms_Diag.,.-_DIAG__ReqCallback_WriteVehicleSpecificParameters..C.3A.5C_ECU2.5CECU_Rivian_A1.5CTarget.5Crepo_projects.5CpRealEcu.5CcL_LATEST.5Cmake.5Coutput.5Cobjects.5CSwcApplTpms_Diag.
                        1872 	.align	2
                        1873 --_U8_RetVal	r25	local
                        1874 --_AU8_ReqData	2[sp]	local
                        1875 --_U8_VarCodLegislation	r18	local
                        1876 --_U8_VarCodPlacardPress	r17	local
                        1877 --_U8_VarCodMinPressThres	r28	local
                        1878 --_U8_VarCodOffroadPlacardPress	r27	local
                        1879 --_U8_VarCodOffroadPlacardPressMin	r26	local
                        1880 --_U8_VarCodMinimumPressure	1[sp]	local
                        1881 
                        1882 --_PS_MsgContext	r24	param
                        1883 
                        1884 	.data
                        1885 	.text
                        1886 	.align	2
                        1887 	.align	2
                        1888 ..gh.f.f.1.e.24:
                        1889 	.type	..gh.f.f.1.e.24,@object
                        1890 	.size	..gh.f.f.1.e.24,0
                        1891 	.global	_DIAG__ReqCallback_ReadAutoLearnWSParameters..C.3A.5C_ECU2.5CECU_Rivian_A1.5CTarget.5Crepo_projects.5CpRealEcu.5CcL_LATEST.5Cmake.5Coutput.5Cobjects.5CSwcApplTpms_Diag.
                        1892 _DIAG__ReqCallback_ReadAutoLearnWSParameters..C.3A.5C_ECU2.5CECU_Rivian_A1.5CTarget.5Crepo_projects.5CpRealEcu.5CcL_LATEST.5Cmake.5Coutput.5Cobjects.5CSwcApplTpms_Diag.:
                        1893 _DIAG__ReqCallback_ReadAutoLearnWSParameters:
0000078e 8e07e100       1894 	prepare	{r28,r29,r31},7
00000792 06e0           1895 	mov	r6,r28
00000794 3d0600000000*  1896 	mov	_U16_RespLenght,r29
                        1897 --	    .bf
                        1898 .LDW85:
                        1899 --line595
                        1900 ..lin.C.3A.5C_ECU2.5CECU_Rivian_A1.5CTarget.5Crepo_projects.5CpRealEcu.5CcL_LATEST.5Cmake.5Coutput.5Cobjects.5CSwcApplTpms_Diag.106::
                        1901 .LDWlin106:
0000079a 0338           1902 	mov	sp,r7
0000079c 0332           1903 	mov	3,r6
                        1904 	jarl	_GetWADataEE,lp
                        1904 <EXPANSION BEGIN>

                                                                      Page 35
                                                              C:\Users\nhuliyap\AppData\Local\Temp\gh_00008941.s
                        1904 jarl22 _GetWADataEE , lp 
0000079e 80ff0000*      1904 <EXPANSION END>
                        1905 --line597
                        1906 ..lin.C.3A.5C_ECU2.5CECU_Rivian_A1.5CTarget.5Crepo_projects.5CpRealEcu.5CcL_LATEST.5Cmake.5Coutput.5Cobjects.5CSwcApplTpms_Diag.107::
                        1907 .LDWlin107:
000007a2 838f0900       1908 	ld.bu	8[sp],r17
000007a6 a3870900       1909 	ld.bu	9[sp],r16
000007aa 3df60400       1910 	movea	4,r29,ep
000007ae 027a           1911 	mov	2,r15
000007b0 808b           1912 	sst.b	r17,0[ep]
000007b2 8183           1913 	sst.b	r16,1[ep]
000007b4 7cf70900       1914 	st.w	ep,8[r28]
000007b8 7d7f0000       1915 	st.h	r15,0[r29]
000007bc 7cef0d00       1916 	st.w	r29,12[r28]
000007c0 0052           1917 	mov	0,r10
                        1918 --	    .ef
                        1919 .LDW95:
000007c2 4e06ff00       1920 	dispose	7,{r28,r29,r31},[lp]
                        1921 ___ghs_eofn_DIAG__ReqCallback_ReadAutoLearnWSParameters:
                        1922 	.type	_DIAG__ReqCallback_ReadAutoLearnWSParameters,@function
                        1923 	.size	_DIAG__ReqCallback_ReadAutoLearnWSParameters,.-_DIAG__ReqCallback_ReadAutoLearnWSParameters
                        1924 	.type	_DIAG__ReqCallback_ReadAutoLearnWSParameters..C.3A.5C_ECU2.5CECU_Rivian_A1.5CTarget.5Crepo_projects.5CpRealEcu.5CcL_LATEST.5Cmake.5Coutput.5Cobjects.5CSwcApplTpms_Diag.,@function
                        1925 	.size	_DIAG__ReqCallback_ReadAutoLearnWSParameters..C.3A.5C_ECU2.5CECU_Rivian_A1.5CTarget.5Crepo_projects.5CpRealEcu.5CcL_LATEST.5Cmake.5Coutput.5Cobjects.5CSwcApplTpms_Diag.,.-_DIAG__ReqCallback_ReadAutoLearnWSParameters..C.3A.5C_ECU2.5CECU_Rivian_A1.5CTarget.5Crepo_projects.5CpRealEcu.5CcL_LATEST.5Cmake.5Coutput.5Cobjects.5CSwcApplTpms_Diag.
                        1926 	.align	2
                        1927 --_tWAParLocal	0[sp]	local
                        1928 
                        1929 --_PS_MsgContext	r28	param
                        1930 
                        1931 	.data
                        1932 	.text
                        1933 	.align	2
                        1934 	.align	2
                        1935 ..gh.f.f.1.e.25:
                        1936 	.type	..gh.f.f.1.e.25,@object
                        1937 	.size	..gh.f.f.1.e.25,0
                        1938 	.global	_DIAG__ReqCallback_WriteAutoLearnWSParameters..C.3A.5C_ECU2.5CECU_Rivian_A1.5CTarget.5Crepo_projects.5CpRealEcu.5CcL_LATEST.5Cmake.5Coutput.5Cobjects.5CSwcApplTpms_Diag.
                        1939 _DIAG__ReqCallback_WriteAutoLearnWSParameters..C.3A.5C_ECU2.5CECU_Rivian_A1.5CTarget.5Crepo_projects.5CpRealEcu.5CcL_LATEST.5Cmake.5Coutput.5Cobjects.5CSwcApplTpms_Diag.:
                        1940 _DIAG__ReqCallback_WriteAutoLearnWSParameters:
000007c6 8007e170       1941 	prepare	{r25,r26,r27,r28,r29,r31},0
000007ca 06d8           1942 	mov	r6,r27
000007cc 3d0600000000*  1943 	mov	_U16_RespLenght,r29
                        1944 --	    .bf
                        1945 .LDW06:
                        1946 --line610
                        1947 ..lin.C.3A.5C_ECU2.5CECU_Rivian_A1.5CTarget.5Crepo_projects.5CpRealEcu.5CcL_LATEST.5Cmake.5Coutput.5Cobjects.5CSwcApplTpms_Diag.108::
                        1948 .LDWlin108:
000007d2 26f70100       1949 	ld.w	0[r6],ep
000007d6 3c0600000000*  1950 	mov	_tWAPar,r28
000007dc 1c38           1951 	mov	r28,r7
000007de 0332           1952 	mov	3,r6
000007e0 60d0           1953 	sld.bu	0[ep],r26
                        1954 --line611
                        1955 ..lin.C.3A.5C_ECU2.5CECU_Rivian_A1.5CTarget.5Crepo_projects.5CpRealEcu.5CcL_LATEST.5Cmake.5Coutput.5Cobjects.5CSwcApplTpms_Diag.109::
                        1956 .LDWlin109:
000007e2 61c8           1957 	sld.bu	1[ep],r25
                        1958 	jarl	_GetWADataEE,lp
                        1958 <EXPANSION BEGIN>
                        1958 jarl22 _GetWADataEE , lp 
000007e4 80ff0000*      1958 <EXPANSION END>
                        1959 --line614
                        1960 ..lin.C.3A.5C_ECU2.5CECU_Rivian_A1.5CTarget.5Crepo_projects.5CpRealEcu.5CcL_LATEST.5Cmake.5Coutput.5Cobjects.5CSwcApplTpms_Diag.110::

                                                                      Page 36
                                                              C:\Users\nhuliyap\AppData\Local\Temp\gh_00008941.s
                        1961 .LDWlin110:
000007e8 1cf0           1962 	mov	r28,ep
000007ea 88d3           1963 	sst.b	r26,8[ep]
000007ec 89cb           1964 	sst.b	r25,9[ep]
000007ee 1c38           1965 	mov	r28,r7
000007f0 0332           1966 	mov	3,r6
                        1967 	jarl	_PutWADataEE,lp
                        1967 <EXPANSION BEGIN>
                        1967 jarl22 _PutWADataEE , lp 
000007f2 80ff0000*      1967 <EXPANSION END>
                        1968 --line618
                        1969 ..lin.C.3A.5C_ECU2.5CECU_Rivian_A1.5CTarget.5Crepo_projects.5CpRealEcu.5CcL_LATEST.5Cmake.5Coutput.5Cobjects.5CSwcApplTpms_Diag.111::
                        1970 .LDWlin111:
000007f6 7d070000       1971 	st.h	zero,0[r29]
000007fa 7bef0d00       1972 	st.w	r29,12[r27]
000007fe 0052           1973 	mov	0,r10
                        1974 --	    .ef
                        1975 .LDW16:
00000800 4006ff70       1976 	dispose	0,{r25,r26,r27,r28,r29,r31},[lp]
                        1977 ___ghs_eofn_DIAG__ReqCallback_WriteAutoLearnWSParameters:
                        1978 	.type	_DIAG__ReqCallback_WriteAutoLearnWSParameters,@function
                        1979 	.size	_DIAG__ReqCallback_WriteAutoLearnWSParameters,.-_DIAG__ReqCallback_WriteAutoLearnWSParameters
                        1980 	.type	_DIAG__ReqCallback_WriteAutoLearnWSParameters..C.3A.5C_ECU2.5CECU_Rivian_A1.5CTarget.5Crepo_projects.5CpRealEcu.5CcL_LATEST.5Cmake.5Coutput.5Cobjects.5CSwcApplTpms_Diag.,@function
                        1981 	.size	_DIAG__ReqCallback_WriteAutoLearnWSParameters..C.3A.5C_ECU2.5CECU_Rivian_A1.5CTarget.5Crepo_projects.5CpRealEcu.5CcL_LATEST.5Cmake.5Coutput.5Cobjects.5CSwcApplTpms_Diag.,.-_DIAG__ReqCallback_WriteAutoLearnWSParameters..C.3A.5C_ECU2.5CECU_Rivian_A1.5CTarget.5Crepo_projects.5CpRealEcu.5CcL_LATEST.5Cmake.5Coutput.5Cobjects.5CSwcApplTpms_Diag.
                        1982 	.align	2
                        1983 --_U8_MinCt4ZomReset	r26	local
                        1984 --_U8_MinERMeanRssiLevel	r25	local
                        1985 
                        1986 --_PS_MsgContext	r27	param
                        1987 
                        1988 	.data
                        1989 	.text
                        1990 	.align	2
                        1991 	.align	2
                        1992 ..gh.f.f.1.e.26:
                        1993 	.type	..gh.f.f.1.e.26,@object
                        1994 	.size	..gh.f.f.1.e.26,0
                        1995 	.global	_DIAG__GetMinPressThresEE..C.3A.5C_ECU2.5CECU_Rivian_A1.5CTarget.5Crepo_projects.5CpRealEcu.5CcL_LATEST.5Cmake.5Coutput.5Cobjects.5CSwcApplTpms_Diag.
                        1996 _DIAG__GetMinPressThresEE..C.3A.5C_ECU2.5CECU_Rivian_A1.5CTarget.5Crepo_projects.5CpRealEcu.5CcL_LATEST.5Cmake.5Coutput.5Cobjects.5CSwcApplTpms_Diag.:
                        1997 _DIAG__GetMinPressThresEE:
00000804 80076100       1998 	prepare	{r29,r31},0
00000808 06e8           1999 	mov	r6,r29
                        2000 --	    .bf
                        2001 .LDW26:
                        2002 	jarl	_GETucVarCodMinPressThresEE,lp
                        2002 <EXPANSION BEGIN>
                        2002 jarl22 _GETucVarCodMinPressThresEE , lp 
0000080a 80ff0000*      2002 <EXPANSION END>
0000080e 5d570000       2003 	st.b	r10,0[r29]
                        2004 --	    .ef
                        2005 .LDW36:
                        2006 --line1269
                        2007 ..lin.C.3A.5C_ECU2.5CECU_Rivian_A1.5CTarget.5Crepo_projects.5CpRealEcu.5CcL_LATEST.5Cmake.5Coutput.5Cobjects.5CSwcApplTpms_Diag.112::
                        2008 .LDWlin112:
00000812 40067f00       2009 	dispose	0,{r29,r31},[lp]
                        2010 ___ghs_eofn_DIAG__GetMinPressThresEE:
                        2011 	.type	_DIAG__GetMinPressThresEE,@function
                        2012 	.size	_DIAG__GetMinPressThresEE,.-_DIAG__GetMinPressThresEE
                        2013 	.type	_DIAG__GetMinPressThresEE..C.3A.5C_ECU2.5CECU_Rivian_A1.5CTarget.5Crepo_projects.5CpRealEcu.5CcL_LATEST.5Cmake.5Coutput.5Cobjects.5CSwcApplTpms_Diag.,@function
                        2014 	.size	_DIAG__GetMinPressThresEE..C.3A.5C_ECU2.5CECU_Rivian_A1.5CTarget.5Crepo_projects.5CpRealEcu.5CcL_LATEST.5Cmake.5Coutput.5Cobjects.5CSwcApplTpms_Diag.,.-_DIAG__GetMinPressThresEE..C.3A.5C_ECU2.5CECU_Rivian_A1.5CTarget.5Crepo_projects.5CpRealEcu.5CcL_LATEST.5Cmake.5Coutput.5Cobjects.5CSwcApplTpms_Diag.
                        2015 	.align	2

                                                                      Page 37
                                                              C:\Users\nhuliyap\AppData\Local\Temp\gh_00008941.s
                        2016 
                        2017 --_PU8_ResData	r29	param
                        2018 
                        2019 	.section ".bss","awb"
                        2020 .L3828:
                        2021 	.type	.L3828,@object
                        2022 	.size	.L3828,0
                        2023 	.data
                        2024 	.text
                        2025 	.align	2
                        2026 	.align	2
                        2027 ..gh.f.f.1.e.27:
                        2028 	.type	..gh.f.f.1.e.27,@object
                        2029 	.size	..gh.f.f.1.e.27,0
                        2030 	.global	_DIAG__ReqCallback_ReadAdditionalPressureOfMinimumPressure..C.3A.5C_ECU2.5CECU_Rivian_A1.5CTarget.5Crepo_projects.5CpRealEcu.5CcL_LATEST.5Cmake.5Coutput.5Cobjects.5CSwcApplTpms_Diag.
                        2031 _DIAG__ReqCallback_ReadAdditionalPressureOfMinimumPressure..C.3A.5C_ECU2.5CECU_Rivian_A1.5CTarget.5Crepo_projects.5CpRealEcu.5CcL_LATEST.5Cmake.5Coutput.5Cobjects.5CSwcApplTpms_Diag.:
                        2032 _DIAG__ReqCallback_ReadAdditionalPressureOfMinimumPressure:
00000816 8007e110       2033 	prepare	{r27,r28,r29,r31},0
0000081a 06d8           2034 	mov	r6,r27
0000081c 3d0600000000*  2035 	mov	_U16_RespLenght,r29
                        2036 --	    .bf
                        2037 .LDW46:
                        2038 --line627
                        2039 ..lin.C.3A.5C_ECU2.5CECU_Rivian_A1.5CTarget.5Crepo_projects.5CpRealEcu.5CcL_LATEST.5Cmake.5Coutput.5Cobjects.5CSwcApplTpms_Diag.113::
                        2040 .LDWlin113:
00000822 3de60400       2041 	movea	4,r29,r28
00000826 5d070400       2042 	st.b	zero,4[r29]
0000082a 1c30           2043 	mov	r28,r6
                        2044 	jarl	_DIAG__GetMinPressThresEE,lp
                        2044 <EXPANSION BEGIN>
                        2044 jarl22 _DIAG__GetMinPressThresEE , lp 
0000082c bfffd8ff*      2044 <EXPANSION END>
                        2045 --line630
                        2046 ..lin.C.3A.5C_ECU2.5CECU_Rivian_A1.5CTarget.5Crepo_projects.5CpRealEcu.5CcL_LATEST.5Cmake.5Coutput.5Cobjects.5CSwcApplTpms_Diag.114::
                        2047 .LDWlin114:
00000830 1bf0           2048 	mov	r27,ep
00000832 018a           2049 	mov	1,r17
00000834 05e5           2050 	sst.w	r28,8[ep]
00000836 7d8f0000       2051 	st.h	r17,0[r29]
0000083a 07ed           2052 	sst.w	r29,12[ep]
0000083c 0052           2053 	mov	0,r10
                        2054 --	    .ef
                        2055 .LDW56:
0000083e 4006ff10       2056 	dispose	0,{r27,r28,r29,r31},[lp]
                        2057 ___ghs_eofn_DIAG__ReqCallback_ReadAdditionalPressureOfMinimumPressure:
                        2058 	.type	_DIAG__ReqCallback_ReadAdditionalPressureOfMinimumPressure,@function
                        2059 	.size	_DIAG__ReqCallback_ReadAdditionalPressureOfMinimumPressure,.-_DIAG__ReqCallback_ReadAdditionalPressureOfMinimumPressure
                        2060 	.type	_DIAG__ReqCallback_ReadAdditionalPressureOfMinimumPressure..C.3A.5C_ECU2.5CECU_Rivian_A1.5CTarget.5Crepo_projects.5CpRealEcu.5CcL_LATEST.5Cmake.5Coutput.5Cobjects.5CSwcApplTpms_Diag.,@function
                        2061 	.size	_DIAG__ReqCallback_ReadAdditionalPressureOfMinimumPressure..C.3A.5C_ECU2.5CECU_Rivian_A1.5CTarget.5Crepo_projects.5CpRealEcu.5CcL_LATEST.5Cmake.5Coutput.5Cobjects.5CSwcApplTpms_Diag.,.-_DIAG__ReqCallback_ReadAdditionalPressureOfMinimumPressure..C.3A.5C_ECU2.5CECU_Rivian_A1.5CTarget.5Crepo_projects.5CpRealEcu.5CcL_LATEST.5Cmake.5Coutput.5Cobjects.5CSwcApplTpms_Diag.
                        2062 	.align	2
                        2063 
                        2064 --_PS_MsgContext	r27	param
                        2065 
                        2066 	.data
                        2067 	.text
                        2068 	.align	2
                        2069 	.align	2
                        2070 ..gh.f.f.1.e.28:
                        2071 	.type	..gh.f.f.1.e.28,@object
                        2072 	.size	..gh.f.f.1.e.28,0
                        2073 	.global	_DIAG__ReqCallback_WriteAdditionalPressureOfMinimumPressure..C.3A.5C_ECU2.5CECU_Rivian_A1.5CTarget.5Crepo_projects.5CpRealEcu.5CcL_LATEST.5Cmake.5Coutput.5Cobjects.5CSwcApplTpms_Diag.

                                                                      Page 38
                                                              C:\Users\nhuliyap\AppData\Local\Temp\gh_00008941.s
                        2074 _DIAG__ReqCallback_WriteAdditionalPressureOfMinimumPressure..C.3A.5C_ECU2.5CECU_Rivian_A1.5CTarget.5Crepo_projects.5CpRealEcu.5CcL_LATEST.5Cmake.5Coutput.5Cobjects.5CSwcApplTpms_Diag.:
                        2075 _DIAG__ReqCallback_WriteAdditionalPressureOfMinimumPressure:
00000842 8407e120       2076 	prepare	{r26,r28,r29,r31},2
00000846 06d0           2077 	mov	r6,r26
00000848 3d0600000000*  2078 	mov	_U16_RespLenght,r29
                        2079 --	    .bf
                        2080 .LDW66:
                        2081 --line646
                        2082 ..lin.C.3A.5C_ECU2.5CECU_Rivian_A1.5CTarget.5Crepo_projects.5CpRealEcu.5CcL_LATEST.5Cmake.5Coutput.5Cobjects.5CSwcApplTpms_Diag.115::
                        2083 .LDWlin115:
0000084e 26f70100       2084 	ld.w	0[r6],ep
00000852 7d070000       2085 	st.h	zero,0[r29]
00000856 00e2           2086 	mov	0,r28
00000858 6080           2087 	sld.bu	0[ep],r16
0000085a 43870300       2088 	st.b	r16,3[sp]
                        2089 	jarl	_GETucVarCodLegislationEE,lp
                        2089 <EXPANSION BEGIN>
                        2089 jarl22 _GETucVarCodLegislationEE , lp 
0000085e 80ff0000*      2089 <EXPANSION END>
00000862 6152           2090 	cmp	1,r10
00000864 f20d*          2091 	be	.L3898
                        2092 --line653
                        2093 ..lin.C.3A.5C_ECU2.5CECU_Rivian_A1.5CTarget.5Crepo_projects.5CpRealEcu.5CcL_LATEST.5Cmake.5Coutput.5Cobjects.5CSwcApplTpms_Diag.116::
                        2094 .LDWlin116:
                        2095 	jarl	_GETucVarCodLegislationEE,lp
                        2095 <EXPANSION BEGIN>
                        2095 jarl22 _GETucVarCodLegislationEE , lp 
00000866 80ff0000*      2095 <EXPANSION END>
0000086a 6252           2096 	cmp	2,r10
0000086c ca05*          2097 	bne	.L3895
                        2098 --line656
                        2099 ..lin.C.3A.5C_ECU2.5CECU_Rivian_A1.5CTarget.5Crepo_projects.5CpRealEcu.5CcL_LATEST.5Cmake.5Coutput.5Cobjects.5CSwcApplTpms_Diag.117::
                        2100 .LDWlin117:
0000086e 20963800       2101 	movea	56,zero,r18
00000872 a50d*          2102 	br	.L3894
                        2103 .L3895:
                        2104 --line658
                        2105 ..lin.C.3A.5C_ECU2.5CECU_Rivian_A1.5CTarget.5Crepo_projects.5CpRealEcu.5CcL_LATEST.5Cmake.5Coutput.5Cobjects.5CSwcApplTpms_Diag.118::
                        2106 .LDWlin118:
                        2107 	jarl	_GETucVarCodLegislationEE,lp
                        2107 <EXPANSION BEGIN>
                        2107 jarl22 _GETucVarCodLegislationEE , lp 
00000874 80ff0000*      2107 <EXPANSION END>
00000878 6352           2108 	cmp	3,r10
0000087a ca05*          2109 	bne	.L3898
                        2110 --line661
                        2111 ..lin.C.3A.5C_ECU2.5CECU_Rivian_A1.5CTarget.5Crepo_projects.5CpRealEcu.5CcL_LATEST.5Cmake.5Coutput.5Cobjects.5CSwcApplTpms_Diag.119::
                        2112 .LDWlin119:
0000087c 20964000       2113 	movea	64,zero,r18
00000880 b505*          2114 	br	.L3894
                        2115 .L3898:
                        2116 --line666
                        2117 ..lin.C.3A.5C_ECU2.5CECU_Rivian_A1.5CTarget.5Crepo_projects.5CpRealEcu.5CcL_LATEST.5Cmake.5Coutput.5Cobjects.5CSwcApplTpms_Diag.120::
                        2118 .LDWlin120:
00000882 20963c00       2119 	movea	60,zero,r18
                        2120 .L3894:
00000886 a38f0300       2121 	ld.bu	3[sp],r17
0000088a f289           2122 	cmp	r18,r17
0000088c e115*          2123 	bl	.L3901
0000088e 110629ff       2124 	addi	-215,r17,zero
00000892 b115*          2125 	bl	.L3901

                                                                      Page 39
                                                              C:\Users\nhuliyap\AppData\Local\Temp\gh_00008941.s
                        2126 --line672
                        2127 ..lin.C.3A.5C_ECU2.5CECU_Rivian_A1.5CTarget.5Crepo_projects.5CpRealEcu.5CcL_LATEST.5Cmake.5Coutput.5Cobjects.5CSwcApplTpms_Diag.121::
                        2128 .LDWlin121:
00000894 23360300       2129 	movea	3,sp,r6
                        2130 	jarl	_DIAG__PutMinPressThresEE,lp
                        2130 <EXPANSION BEGIN>
                        2130 jarl22 _DIAG__PutMinPressThresEE , lp 
00000898 bfff38fe*      2130 <EXPANSION END>
                        2131 --line674
                        2132 ..lin.C.3A.5C_ECU2.5CECU_Rivian_A1.5CTarget.5Crepo_projects.5CpRealEcu.5CcL_LATEST.5Cmake.5Coutput.5Cobjects.5CSwcApplTpms_Diag.122::
                        2133 .LDWlin122:
0000089c a3370300       2134 	ld.bu	3[sp],r6
000008a0 1c38           2135 	mov	r28,r7
                        2136 	jarl	_ucPutPMinCS,lp
                        2136 <EXPANSION BEGIN>
                        2136 jarl22 _ucPutPMinCS , lp 
000008a2 80ff0000*      2136 <EXPANSION END>
000008a6 e051           2137 	cmp	zero,r10
000008a8 a30d*          2138 	bnh	.L3906
                        2139 --line676
                        2140 ..lin.C.3A.5C_ECU2.5CECU_Rivian_A1.5CTarget.5Crepo_projects.5CpRealEcu.5CcL_LATEST.5Cmake.5Coutput.5Cobjects.5CSwcApplTpms_Diag.123::
                        2141 .LDWlin123:
000008aa 270600000000*  2142 	mov	_tCDA,r7
000008b0 0232           2143 	mov	2,r6
                        2144 	jarl	_PutDataEE,lp
                        2144 <EXPANSION BEGIN>
                        2144 jarl22 _PutDataEE , lp 
000008b2 80ff0000*      2144 <EXPANSION END>
000008b6 b505*          2145 	br	.L3906
                        2146 .L3901:
                        2147 --line681
                        2148 ..lin.C.3A.5C_ECU2.5CECU_Rivian_A1.5CTarget.5Crepo_projects.5CpRealEcu.5CcL_LATEST.5Cmake.5Coutput.5Cobjects.5CSwcApplTpms_Diag.124::
                        2149 .LDWlin124:
000008b8 20e62200       2150 	movea	34,zero,r28
                        2151 .L3906:
000008bc 7aef0d00       2152 	st.w	r29,12[r26]
000008c0 1c50           2153 	mov	r28,r10
                        2154 --	    .ef
                        2155 .LDW76:
000008c2 4406ff20       2156 	dispose	2,{r26,r28,r29,r31},[lp]
                        2157 ___ghs_eofn_DIAG__ReqCallback_WriteAdditionalPressureOfMinimumPressure:
                        2158 	.type	_DIAG__ReqCallback_WriteAdditionalPressureOfMinimumPressure,@function
                        2159 	.size	_DIAG__ReqCallback_WriteAdditionalPressureOfMinimumPressure,.-_DIAG__ReqCallback_WriteAdditionalPressureOfMinimumPressure
                        2160 	.type	_DIAG__ReqCallback_WriteAdditionalPressureOfMinimumPressure..C.3A.5C_ECU2.5CECU_Rivian_A1.5CTarget.5Crepo_projects.5CpRealEcu.5CcL_LATEST.5Cmake.5Coutput.5Cobjects.5CSwcApplTpms_Diag.,@function
                        2161 	.size	_DIAG__ReqCallback_WriteAdditionalPressureOfMinimumPressure..C.3A.5C_ECU2.5CECU_Rivian_A1.5CTarget.5Crepo_projects.5CpRealEcu.5CcL_LATEST.5Cmake.5Coutput.5Cobjects.5CSwcApplTpms_Diag.,.-_DIAG__ReqCallback_WriteAdditionalPressureOfMinimumPressure..C.3A.5C_ECU2.5CECU_Rivian_A1.5CTarget.5Crepo_projects.5CpRealEcu.5CcL_LATEST.5Cmake.5Coutput.5Cobjects.5CSwcApplTpms_Diag.
                        2162 	.align	2
                        2163 --_U8_RetVal	r28	local
                        2164 --_U8_VarCodMinPressThres	3[sp]	local
                        2165 --_U8_LowLimitOfPMIN	r18	local
                        2166 
                        2167 --_PS_MsgContext	r26	param
                        2168 
                        2169 	.data
                        2170 	.text
                        2171 	.align	2
                        2172 	.align	2
                        2173 ..gh.f.f.1.e.29:
                        2174 	.type	..gh.f.f.1.e.29,@object
                        2175 	.size	..gh.f.f.1.e.29,0
                        2176 	.global	_DIAG__ReqCallback_ReadBCMFaultReason..C.3A.5C_ECU2.5CECU_Rivian_A1.5CTarget.5Crepo_projects.5CpRealEcu.5CcL_LATEST.5Cmake.5Coutput.5Cobjects.5CSwcApplTpms_Diag.
                        2177 _DIAG__ReqCallback_ReadBCMFaultReason..C.3A.5C_ECU2.5CECU_Rivian_A1.5CTarget.5Crepo_projects.5CpRealEcu.5CcL_LATEST.5Cmake.5Coutput.5Cobjects.5CSwcApplTpms_Diag.:

                                                                      Page 40
                                                              C:\Users\nhuliyap\AppData\Local\Temp\gh_00008941.s
                        2178 _DIAG__ReqCallback_ReadBCMFaultReason:
000008c6 8007e110       2179 	prepare	{r27,r28,r29,r31},0
000008ca 06d8           2180 	mov	r6,r27
000008cc 3d0600000000*  2181 	mov	_U16_RespLenght,r29
                        2182 --	    .bf
                        2183 .LDW86:
                        2184 --line693
                        2185 ..lin.C.3A.5C_ECU2.5CECU_Rivian_A1.5CTarget.5Crepo_projects.5CpRealEcu.5CcL_LATEST.5Cmake.5Coutput.5Cobjects.5CSwcApplTpms_Diag.125::
                        2186 .LDWlin125:
000008d2 3de60400       2187 	movea	4,r29,r28
000008d6 5d070400       2188 	st.b	zero,4[r29]
000008da 1c30           2189 	mov	r28,r6
                        2190 	jarl	_NvM_ReadData_ECUDefect,lp
                        2190 <EXPANSION BEGIN>
                        2190 jarl22 _NvM_ReadData_ECUDefect , lp 
000008dc 80ff0000*      2190 <EXPANSION END>
                        2191 --line697
                        2192 ..lin.C.3A.5C_ECU2.5CECU_Rivian_A1.5CTarget.5Crepo_projects.5CpRealEcu.5CcL_LATEST.5Cmake.5Coutput.5Cobjects.5CSwcApplTpms_Diag.126::
                        2193 .LDWlin126:
000008e0 1bf0           2194 	mov	r27,ep
000008e2 018a           2195 	mov	1,r17
000008e4 05e5           2196 	sst.w	r28,8[ep]
000008e6 7d8f0000       2197 	st.h	r17,0[r29]
000008ea 07ed           2198 	sst.w	r29,12[ep]
000008ec 0052           2199 	mov	0,r10
                        2200 --	    .ef
                        2201 .LDW96:
000008ee 4006ff10       2202 	dispose	0,{r27,r28,r29,r31},[lp]
                        2203 ___ghs_eofn_DIAG__ReqCallback_ReadBCMFaultReason:
                        2204 	.type	_DIAG__ReqCallback_ReadBCMFaultReason,@function
                        2205 	.size	_DIAG__ReqCallback_ReadBCMFaultReason,.-_DIAG__ReqCallback_ReadBCMFaultReason
                        2206 	.type	_DIAG__ReqCallback_ReadBCMFaultReason..C.3A.5C_ECU2.5CECU_Rivian_A1.5CTarget.5Crepo_projects.5CpRealEcu.5CcL_LATEST.5Cmake.5Coutput.5Cobjects.5CSwcApplTpms_Diag.,@function
                        2207 	.size	_DIAG__ReqCallback_ReadBCMFaultReason..C.3A.5C_ECU2.5CECU_Rivian_A1.5CTarget.5Crepo_projects.5CpRealEcu.5CcL_LATEST.5Cmake.5Coutput.5Cobjects.5CSwcApplTpms_Diag.,.-_DIAG__ReqCallback_ReadBCMFaultReason..C.3A.5C_ECU2.5CECU_Rivian_A1.5CTarget.5Crepo_projects.5CpRealEcu.5CcL_LATEST.5Cmake.5Coutput.5Cobjects.5CSwcApplTpms_Diag.
                        2208 	.align	2
                        2209 
                        2210 --_PS_MsgContext	r27	param
                        2211 
                        2212 	.data
                        2213 	.text
                        2214 	.align	2
                        2215 	.align	2
                        2216 ..gh.f.f.1.e.30:
                        2217 	.type	..gh.f.f.1.e.30,@object
                        2218 	.size	..gh.f.f.1.e.30,0
                        2219 	.global	_DIAG__ReqCallback_WriteBCMFaultReason..C.3A.5C_ECU2.5CECU_Rivian_A1.5CTarget.5Crepo_projects.5CpRealEcu.5CcL_LATEST.5Cmake.5Coutput.5Cobjects.5CSwcApplTpms_Diag.
                        2220 _DIAG__ReqCallback_WriteBCMFaultReason..C.3A.5C_ECU2.5CECU_Rivian_A1.5CTarget.5Crepo_projects.5CpRealEcu.5CcL_LATEST.5Cmake.5Coutput.5Cobjects.5CSwcApplTpms_Diag.:
                        2221 _DIAG__ReqCallback_WriteBCMFaultReason:
000008f2 8007e110       2222 	prepare	{r27,r28,r29,r31},0
000008f6 06d8           2223 	mov	r6,r27
000008f8 3d0600000000*  2224 	mov	_U16_RespLenght,r29
                        2225 --	    .bf
                        2226 .LDW07:
                        2227 --line707
                        2228 ..lin.C.3A.5C_ECU2.5CECU_Rivian_A1.5CTarget.5Crepo_projects.5CpRealEcu.5CcL_LATEST.5Cmake.5Coutput.5Cobjects.5CSwcApplTpms_Diag.127::
                        2229 .LDWlin127:
000008fe 26f70100       2230 	ld.w	0[r6],ep
00000902 6030           2231 	sld.bu	0[ep],r6
00000904 6332           2232 	cmp	3,r6
00000906 d905*          2233 	bnl	.L4180
00000908 00e2           2234 	mov	0,r28
                        2235 --line711

                                                                      Page 41
                                                              C:\Users\nhuliyap\AppData\Local\Temp\gh_00008941.s
                        2236 ..lin.C.3A.5C_ECU2.5CECU_Rivian_A1.5CTarget.5Crepo_projects.5CpRealEcu.5CcL_LATEST.5Cmake.5Coutput.5Cobjects.5CSwcApplTpms_Diag.128::
                        2237 .LDWlin128:
                        2238 	jarl	_NvM_WriteData_ECUDefect,lp
                        2238 <EXPANSION BEGIN>
                        2238 jarl22 _NvM_WriteData_ECUDefect , lp 
0000090a 80ff0000*      2238 <EXPANSION END>
0000090e b505*          2239 	br	.L4182
                        2240 .L4180:
                        2241 --line714
                        2242 ..lin.C.3A.5C_ECU2.5CECU_Rivian_A1.5CTarget.5Crepo_projects.5CpRealEcu.5CcL_LATEST.5Cmake.5Coutput.5Cobjects.5CSwcApplTpms_Diag.129::
                        2243 .LDWlin129:
00000910 20e63100       2244 	movea	49,zero,r28
                        2245 .L4182:
00000914 7d070000       2246 	st.h	zero,0[r29]
00000918 7bef0d00       2247 	st.w	r29,12[r27]
0000091c 1c50           2248 	mov	r28,r10
                        2249 --	    .ef
                        2250 .LDW17:
0000091e 4006ff10       2251 	dispose	0,{r27,r28,r29,r31},[lp]
                        2252 ___ghs_eofn_DIAG__ReqCallback_WriteBCMFaultReason:
                        2253 	.type	_DIAG__ReqCallback_WriteBCMFaultReason,@function
                        2254 	.size	_DIAG__ReqCallback_WriteBCMFaultReason,.-_DIAG__ReqCallback_WriteBCMFaultReason
                        2255 	.type	_DIAG__ReqCallback_WriteBCMFaultReason..C.3A.5C_ECU2.5CECU_Rivian_A1.5CTarget.5Crepo_projects.5CpRealEcu.5CcL_LATEST.5Cmake.5Coutput.5Cobjects.5CSwcApplTpms_Diag.,@function
                        2256 	.size	_DIAG__ReqCallback_WriteBCMFaultReason..C.3A.5C_ECU2.5CECU_Rivian_A1.5CTarget.5Crepo_projects.5CpRealEcu.5CcL_LATEST.5Cmake.5Coutput.5Cobjects.5CSwcApplTpms_Diag.,.-_DIAG__ReqCallback_WriteBCMFaultReason..C.3A.5C_ECU2.5CECU_Rivian_A1.5CTarget.5Crepo_projects.5CpRealEcu.5CcL_LATEST.5Cmake.5Coutput.5Cobjects.5CSwcApplTpms_Diag.
                        2257 	.align	2
                        2258 --_U8_RetVal	r28	local
                        2259 --_BCMFaultReasonToWrite	r6	local
                        2260 
                        2261 --_PS_MsgContext	r27	param
                        2262 
                        2263 	.data
                        2264 	.text
                        2265 	.align	2
                        2266 	.align	2
                        2267 ..gh.f.f.1.e.31:
                        2268 	.type	..gh.f.f.1.e.31,@object
                        2269 	.size	..gh.f.f.1.e.31,0
                        2270 	.global	_DIAG__ReqCallback_ReadBCMPosition..C.3A.5C_ECU2.5CECU_Rivian_A1.5CTarget.5Crepo_projects.5CpRealEcu.5CcL_LATEST.5Cmake.5Coutput.5Cobjects.5CSwcApplTpms_Diag.
                        2271 _DIAG__ReqCallback_ReadBCMPosition..C.3A.5C_ECU2.5CECU_Rivian_A1.5CTarget.5Crepo_projects.5CpRealEcu.5CcL_LATEST.5Cmake.5Coutput.5Cobjects.5CSwcApplTpms_Diag.:
                        2272 _DIAG__ReqCallback_ReadBCMPosition:
00000922 8e07e130       2273 	prepare	{r26,r27,r28,r29,r31},7
00000926 06d0           2274 	mov	r6,r26
00000928 3d0600000000*  2275 	mov	_U16_RespLenght,r29
                        2276 --	    .bf
                        2277 .LDW27:
                        2278 --line726
                        2279 ..lin.C.3A.5C_ECU2.5CECU_Rivian_A1.5CTarget.5Crepo_projects.5CpRealEcu.5CcL_LATEST.5Cmake.5Coutput.5Cobjects.5CSwcApplTpms_Diag.130::
                        2280 .LDWlin130:
0000092e 00da           2281 	mov	0,r27
00000930 3de60400       2282 	movea	4,r29,r28
00000934 5d070400       2283 	st.b	zero,4[r29]
00000938 43070500       2284 	st.b	zero,5[sp]
0000093c 0338           2285 	mov	sp,r7
0000093e 0332           2286 	mov	3,r6
                        2287 	jarl	_GetWADataEE,lp
                        2287 <EXPANSION BEGIN>
                        2287 jarl22 _GetWADataEE , lp 
00000940 80ff0000*      2287 <EXPANSION END>
                        2288 --line730
                        2289 ..lin.C.3A.5C_ECU2.5CECU_Rivian_A1.5CTarget.5Crepo_projects.5CpRealEcu.5CcL_LATEST.5Cmake.5Coutput.5Cobjects.5CSwcApplTpms_Diag.131::
                        2290 .LDWlin131:

                                                                      Page 42
                                                              C:\Users\nhuliyap\AppData\Local\Temp\gh_00008941.s
00000944 a3970500       2291 	ld.bu	5[sp],r18
00000948 1206abff       2292 	addi	-85,r18,zero
0000094c 920d*          2293 	be	.L4280
0000094e 120656ff       2294 	addi	-170,r18,zero
00000952 e205*          2295 	be	.L4280
00000954 120601ff       2296 	addi	-255,r18,zero
00000958 b205*          2297 	be	.L4280
                        2298 --line736
                        2299 ..lin.C.3A.5C_ECU2.5CECU_Rivian_A1.5CTarget.5Crepo_projects.5CpRealEcu.5CcL_LATEST.5Cmake.5Coutput.5Cobjects.5CSwcApplTpms_Diag.132::
                        2300 .LDWlin132:
0000095a 20de1300       2301 	movea	19,zero,r27
                        2302 .L4280:
0000095e 1af0           2303 	mov	r26,ep
00000960 0182           2304 	mov	1,r16
00000962 5c970000       2305 	st.b	r18,0[r28]
00000966 05e5           2306 	sst.w	r28,8[ep]
00000968 7d870000       2307 	st.h	r16,0[r29]
0000096c 07ed           2308 	sst.w	r29,12[ep]
0000096e 1b50           2309 	mov	r27,r10
                        2310 --	    .ef
                        2311 .LDW37:
00000970 4e06ff30       2312 	dispose	7,{r26,r27,r28,r29,r31},[lp]
                        2313 ___ghs_eofn_DIAG__ReqCallback_ReadBCMPosition:
                        2314 	.type	_DIAG__ReqCallback_ReadBCMPosition,@function
                        2315 	.size	_DIAG__ReqCallback_ReadBCMPosition,.-_DIAG__ReqCallback_ReadBCMPosition
                        2316 	.type	_DIAG__ReqCallback_ReadBCMPosition..C.3A.5C_ECU2.5CECU_Rivian_A1.5CTarget.5Crepo_projects.5CpRealEcu.5CcL_LATEST.5Cmake.5Coutput.5Cobjects.5CSwcApplTpms_Diag.,@function
                        2317 	.size	_DIAG__ReqCallback_ReadBCMPosition..C.3A.5C_ECU2.5CECU_Rivian_A1.5CTarget.5Crepo_projects.5CpRealEcu.5CcL_LATEST.5Cmake.5Coutput.5Cobjects.5CSwcApplTpms_Diag.,.-_DIAG__ReqCallback_ReadBCMPosition..C.3A.5C_ECU2.5CECU_Rivian_A1.5CTarget.5Crepo_projects.5CpRealEcu.5CcL_LATEST.5Cmake.5Coutput.5Cobjects.5CSwcApplTpms_Diag.
                        2318 	.align	2
                        2319 --_tWAParLocal	0[sp]	local
                        2320 --_U8_RetVal	r27	local
                        2321 
                        2322 --_PS_MsgContext	r26	param
                        2323 
                        2324 	.data
                        2325 	.text
                        2326 	.align	2
                        2327 	.align	2
                        2328 ..gh.f.f.1.e.32:
                        2329 	.type	..gh.f.f.1.e.32,@object
                        2330 	.size	..gh.f.f.1.e.32,0
                        2331 	.global	_DIAG__ReqCallback_WriteBCMPosition..C.3A.5C_ECU2.5CECU_Rivian_A1.5CTarget.5Crepo_projects.5CpRealEcu.5CcL_LATEST.5Cmake.5Coutput.5Cobjects.5CSwcApplTpms_Diag.
                        2332 _DIAG__ReqCallback_WriteBCMPosition..C.3A.5C_ECU2.5CECU_Rivian_A1.5CTarget.5Crepo_projects.5CpRealEcu.5CcL_LATEST.5Cmake.5Coutput.5Cobjects.5CSwcApplTpms_Diag.:
                        2333 _DIAG__ReqCallback_WriteBCMPosition:
00000974 8007e170       2334 	prepare	{r25,r26,r27,r28,r29,r31},0
00000978 06c8           2335 	mov	r6,r25
0000097a 3d0600000000*  2336 	mov	_U16_RespLenght,r29
                        2337 --	    .bf
                        2338 .LDW47:
                        2339 --line766
                        2340 ..lin.C.3A.5C_ECU2.5CECU_Rivian_A1.5CTarget.5Crepo_projects.5CpRealEcu.5CcL_LATEST.5Cmake.5Coutput.5Cobjects.5CSwcApplTpms_Diag.133::
                        2341 .LDWlin133:
00000980 26f70100       2342 	ld.w	0[r6],ep
00000984 00d2           2343 	mov	0,r26
00000986 60e0           2344 	sld.bu	0[ep],r28
00000988 1c06abff       2345 	addi	-85,r28,zero
0000098c f205*          2346 	be	.L4388
0000098e 1c0656ff       2347 	addi	-170,r28,zero
00000992 c205*          2348 	be	.L4388
00000994 1c0601ff       2349 	addi	-255,r28,zero
00000998 fa0d*          2350 	bne	.L4387
                        2351 .L4388:

                                                                      Page 43
                                                              C:\Users\nhuliyap\AppData\Local\Temp\gh_00008941.s
                        2352 --line773
                        2353 ..lin.C.3A.5C_ECU2.5CECU_Rivian_A1.5CTarget.5Crepo_projects.5CpRealEcu.5CcL_LATEST.5Cmake.5Coutput.5Cobjects.5CSwcApplTpms_Diag.134::
                        2354 .LDWlin134:
0000099a 3b0600000000*  2355 	mov	_tWAPar,r27
000009a0 1b38           2356 	mov	r27,r7
000009a2 0332           2357 	mov	3,r6
                        2358 	jarl	_GetWADataEE,lp
                        2358 <EXPANSION BEGIN>
                        2358 jarl22 _GetWADataEE , lp 
000009a4 80ff0000*      2358 <EXPANSION END>
                        2359 --line774
                        2360 ..lin.C.3A.5C_ECU2.5CECU_Rivian_A1.5CTarget.5Crepo_projects.5CpRealEcu.5CcL_LATEST.5Cmake.5Coutput.5Cobjects.5CSwcApplTpms_Diag.135::
                        2361 .LDWlin135:
000009a8 5be70500       2362 	st.b	r28,5[r27]
000009ac 1b38           2363 	mov	r27,r7
000009ae 0332           2364 	mov	3,r6
                        2365 	jarl	_PutWADataEE,lp
                        2365 <EXPANSION BEGIN>
                        2365 jarl22 _PutWADataEE , lp 
000009b0 80ff0000*      2365 <EXPANSION END>
000009b4 b505*          2366 	br	.L4391
                        2367 .L4387:
                        2368 --line778
                        2369 ..lin.C.3A.5C_ECU2.5CECU_Rivian_A1.5CTarget.5Crepo_projects.5CpRealEcu.5CcL_LATEST.5Cmake.5Coutput.5Cobjects.5CSwcApplTpms_Diag.136::
                        2370 .LDWlin136:
000009b6 20d62200       2371 	movea	34,zero,r26
                        2372 .L4391:
000009ba 7d070000       2373 	st.h	zero,0[r29]
000009be 79ef0d00       2374 	st.w	r29,12[r25]
000009c2 1a50           2375 	mov	r26,r10
                        2376 --	    .ef
                        2377 .LDW57:
000009c4 4006ff70       2378 	dispose	0,{r25,r26,r27,r28,r29,r31},[lp]
                        2379 ___ghs_eofn_DIAG__ReqCallback_WriteBCMPosition:
                        2380 	.type	_DIAG__ReqCallback_WriteBCMPosition,@function
                        2381 	.size	_DIAG__ReqCallback_WriteBCMPosition,.-_DIAG__ReqCallback_WriteBCMPosition
                        2382 	.type	_DIAG__ReqCallback_WriteBCMPosition..C.3A.5C_ECU2.5CECU_Rivian_A1.5CTarget.5Crepo_projects.5CpRealEcu.5CcL_LATEST.5Cmake.5Coutput.5Cobjects.5CSwcApplTpms_Diag.,@function
                        2383 	.size	_DIAG__ReqCallback_WriteBCMPosition..C.3A.5C_ECU2.5CECU_Rivian_A1.5CTarget.5Crepo_projects.5CpRealEcu.5CcL_LATEST.5Cmake.5Coutput.5Cobjects.5CSwcApplTpms_Diag.,.-_DIAG__ReqCallback_WriteBCMPosition..C.3A.5C_ECU2.5CECU_Rivian_A1.5CTarget.5Crepo_projects.5CpRealEcu.5CcL_LATEST.5Cmake.5Coutput.5Cobjects.5CSwcApplTpms_Diag.
                        2384 	.align	2
                        2385 --_U8_RetVal	r26	local
                        2386 --_U8_NewECUPosition	r28	local
                        2387 
                        2388 --_PS_MsgContext	r25	param
                        2389 
                        2390 	.data
                        2391 	.text
                        2392 	.align	2
                        2393 	.align	2
                        2394 ..gh.f.f.1.e.33:
                        2395 	.type	..gh.f.f.1.e.33,@object
                        2396 	.size	..gh.f.f.1.e.33,0
                        2397 	.global	_DIAG__ReqCallback_ReadABSTicksValue..C.3A.5C_ECU2.5CECU_Rivian_A1.5CTarget.5Crepo_projects.5CpRealEcu.5CcL_LATEST.5Cmake.5Coutput.5Cobjects.5CSwcApplTpms_Diag.
                        2398 _DIAG__ReqCallback_ReadABSTicksValue..C.3A.5C_ECU2.5CECU_Rivian_A1.5CTarget.5Crepo_projects.5CpRealEcu.5CcL_LATEST.5Cmake.5Coutput.5Cobjects.5CSwcApplTpms_Diag.:
                        2399 _DIAG__ReqCallback_ReadABSTicksValue:
000009c8 8207e310       2400 	prepare	{r27,r28,r29,r31},1,sp
000009cc 06d8           2401 	mov	r6,r27
000009ce 3d0600000000*  2402 	mov	_U16_RespLenght,r29
                        2403 --	    .bf
                        2404 .LDW67:
                        2405 --line788
                        2406 ..lin.C.3A.5C_ECU2.5CECU_Rivian_A1.5CTarget.5Crepo_projects.5CpRealEcu.5CcL_LATEST.5Cmake.5Coutput.5Cobjects.5CSwcApplTpms_Diag.137::

                                                                      Page 44
                                                              C:\Users\nhuliyap\AppData\Local\Temp\gh_00008941.s
                        2407 .LDWlin137:
000009d4 00e2           2408 	mov	0,r28
000009d6 8203           2409 	sst.b	zero,2[ep]
000009d8 8303           2410 	sst.b	zero,3[ep]
000009da 233e0200       2411 	movea	2,sp,r7
000009de 0432           2412 	mov	4,r6
                        2413 	jarl	_GetWADataEE,lp
                        2413 <EXPANSION BEGIN>
                        2413 jarl22 _GetWADataEE , lp 
000009e0 80ff0000*      2413 <EXPANSION END>
                        2414 --line795
                        2415 ..lin.C.3A.5C_ECU2.5CECU_Rivian_A1.5CTarget.5Crepo_projects.5CpRealEcu.5CcL_LATEST.5Cmake.5Coutput.5Cobjects.5CSwcApplTpms_Diag.138::
                        2416 .LDWlin138:
000009e4 83970300       2417 	ld.bu	2[sp],r18
000009e8 1206e0ff       2418 	addi	-32,r18,zero
000009ec 810d*          2419 	bl	.L4517
000009ee a3870300       2420 	ld.bu	3[sp],r16
000009f2 1006e0ff       2421 	addi	-32,r16,zero
000009f6 b105*          2422 	bl	.L4517
                        2423 --line800
                        2424 ..lin.C.3A.5C_ECU2.5CECU_Rivian_A1.5CTarget.5Crepo_projects.5CpRealEcu.5CcL_LATEST.5Cmake.5Coutput.5Cobjects.5CSwcApplTpms_Diag.139::
                        2425 .LDWlin139:
000009f8 20e61300       2426 	movea	19,zero,r28
                        2427 .L4517:
000009fc a37f0300       2428 	ld.bu	3[sp],r15
00000a00 3df60400       2429 	movea	4,r29,ep
00000a04 0272           2430 	mov	2,r14
00000a06 8093           2431 	sst.b	r18,0[ep]
00000a08 817b           2432 	sst.b	r15,1[ep]
00000a0a 7bf70900       2433 	st.w	ep,8[r27]
00000a0e 7d770000       2434 	st.h	r14,0[r29]
00000a12 7bef0d00       2435 	st.w	r29,12[r27]
00000a16 1c50           2436 	mov	r28,r10
                        2437 --	    .ef
                        2438 .LDW77:
00000a18 4206ff10       2439 	dispose	1,{r27,r28,r29,r31},[lp]
                        2440 ___ghs_eofn_DIAG__ReqCallback_ReadABSTicksValue:
                        2441 	.type	_DIAG__ReqCallback_ReadABSTicksValue,@function
                        2442 	.size	_DIAG__ReqCallback_ReadABSTicksValue,.-_DIAG__ReqCallback_ReadABSTicksValue
                        2443 	.type	_DIAG__ReqCallback_ReadABSTicksValue..C.3A.5C_ECU2.5CECU_Rivian_A1.5CTarget.5Crepo_projects.5CpRealEcu.5CcL_LATEST.5Cmake.5Coutput.5Cobjects.5CSwcApplTpms_Diag.,@function
                        2444 	.size	_DIAG__ReqCallback_ReadABSTicksValue..C.3A.5C_ECU2.5CECU_Rivian_A1.5CTarget.5Crepo_projects.5CpRealEcu.5CcL_LATEST.5Cmake.5Coutput.5Cobjects.5CSwcApplTpms_Diag.,.-_DIAG__ReqCallback_ReadABSTicksValue..C.3A.5C_ECU2.5CECU_Rivian_A1.5CTarget.5Crepo_projects.5CpRealEcu.5CcL_LATEST.5Cmake.5Coutput.5Cobjects.5CSwcApplTpms_Diag.
                        2445 	.align	2
                        2446 --_U8_RetVal	r28	local
                        2447 --_LocalABSTicksInOneRev	2[sp]	local
                        2448 
                        2449 --_PS_MsgContext	r27	param
                        2450 
                        2451 	.data
                        2452 	.text
                        2453 	.align	2
                        2454 	.align	2
                        2455 ..gh.f.f.1.e.34:
                        2456 	.type	..gh.f.f.1.e.34,@object
                        2457 	.size	..gh.f.f.1.e.34,0
                        2458 	.global	_DIAG__ReqCallback_WriteABSTicksValue..C.3A.5C_ECU2.5CECU_Rivian_A1.5CTarget.5Crepo_projects.5CpRealEcu.5CcL_LATEST.5Cmake.5Coutput.5Cobjects.5CSwcApplTpms_Diag.
                        2459 _DIAG__ReqCallback_WriteABSTicksValue..C.3A.5C_ECU2.5CECU_Rivian_A1.5CTarget.5Crepo_projects.5CpRealEcu.5CcL_LATEST.5Cmake.5Coutput.5Cobjects.5CSwcApplTpms_Diag.:
                        2460 _DIAG__ReqCallback_WriteABSTicksValue:
00000a1c 8207e310       2461 	prepare	{r27,r28,r29,r31},1,sp
00000a20 06d8           2462 	mov	r6,r27
00000a22 3d0600000000*  2463 	mov	_U16_RespLenght,r29
                        2464 --	    .bf

                                                                      Page 45
                                                              C:\Users\nhuliyap\AppData\Local\Temp\gh_00008941.s
                        2465 .LDW87:
                        2466 --line831
                        2467 ..lin.C.3A.5C_ECU2.5CECU_Rivian_A1.5CTarget.5Crepo_projects.5CpRealEcu.5CcL_LATEST.5Cmake.5Coutput.5Cobjects.5CSwcApplTpms_Diag.140::
                        2468 .LDWlin140:
00000a28 8003           2469 	sst.b	zero,0[ep]
00000a2a 8103           2470 	sst.b	zero,1[ep]
00000a2c 26f70100       2471 	ld.w	0[r6],ep
00000a30 00e2           2472 	mov	0,r28
00000a32 6090           2473 	sld.bu	0[ep],r18
00000a34 43970200       2474 	st.b	r18,2[sp]
00000a38 6188           2475 	sld.bu	1[ep],r17
00000a3a 1206e0ff       2476 	addi	-32,r18,zero
00000a3e 438f0300       2477 	st.b	r17,3[sp]
00000a42 c105*          2478 	bl	.L4613
00000a44 1106e0ff       2479 	addi	-32,r17,zero
00000a48 c915*          2480 	bnl	.L4612
                        2481 .L4613:
                        2482 --line840
                        2483 ..lin.C.3A.5C_ECU2.5CECU_Rivian_A1.5CTarget.5Crepo_projects.5CpRealEcu.5CcL_LATEST.5Cmake.5Coutput.5Cobjects.5CSwcApplTpms_Diag.141::
                        2484 .LDWlin141:
00000a4a 0338           2485 	mov	sp,r7
00000a4c 0432           2486 	mov	4,r6
                        2487 	jarl	_GetWADataEE,lp
                        2487 <EXPANSION BEGIN>
                        2487 jarl22 _GetWADataEE , lp 
00000a4e 80ff0000*      2487 <EXPANSION END>
                        2488 --line841
                        2489 ..lin.C.3A.5C_ECU2.5CECU_Rivian_A1.5CTarget.5Crepo_projects.5CpRealEcu.5CcL_LATEST.5Cmake.5Coutput.5Cobjects.5CSwcApplTpms_Diag.142::
                        2490 .LDWlin142:
00000a52 03f0           2491 	mov	sp,ep
00000a54 6278           2492 	sld.bu	2[ep],r15
00000a56 6070           2493 	sld.bu	0[ep],r14
00000a58 ef71           2494 	cmp	r15,r14
00000a5a da05*          2495 	bne	.L4615
00000a5c 6368           2496 	sld.bu	3[ep],r13
00000a5e 6160           2497 	sld.bu	1[ep],r12
00000a60 ed61           2498 	cmp	r13,r12
00000a62 920d*          2499 	be	.L4619
                        2500 .L4615:
                        2501 --line846
                        2502 ..lin.C.3A.5C_ECU2.5CECU_Rivian_A1.5CTarget.5Crepo_projects.5CpRealEcu.5CcL_LATEST.5Cmake.5Coutput.5Cobjects.5CSwcApplTpms_Diag.143::
                        2503 .LDWlin143:
00000a64 233e0200       2504 	movea	2,sp,r7
00000a68 0432           2505 	mov	4,r6
                        2506 	jarl	_PutWADataEE,lp
                        2506 <EXPANSION BEGIN>
                        2506 jarl22 _PutWADataEE , lp 
00000a6a 80ff0000*      2506 <EXPANSION END>
00000a6e b505*          2507 	br	.L4619
                        2508 .L4612:
                        2509 --line850
                        2510 ..lin.C.3A.5C_ECU2.5CECU_Rivian_A1.5CTarget.5Crepo_projects.5CpRealEcu.5CcL_LATEST.5Cmake.5Coutput.5Cobjects.5CSwcApplTpms_Diag.144::
                        2511 .LDWlin144:
00000a70 20e62200       2512 	movea	34,zero,r28
                        2513 .L4619:
00000a74 7d070000       2514 	st.h	zero,0[r29]
00000a78 7bef0d00       2515 	st.w	r29,12[r27]
00000a7c 1c50           2516 	mov	r28,r10
                        2517 --	    .ef
                        2518 .LDW97:
00000a7e 4206ff10       2519 	dispose	1,{r27,r28,r29,r31},[lp]

                                                                      Page 46
                                                              C:\Users\nhuliyap\AppData\Local\Temp\gh_00008941.s
                        2520 ___ghs_eofn_DIAG__ReqCallback_WriteABSTicksValue:
                        2521 	.type	_DIAG__ReqCallback_WriteABSTicksValue,@function
                        2522 	.size	_DIAG__ReqCallback_WriteABSTicksValue,.-_DIAG__ReqCallback_WriteABSTicksValue
                        2523 	.type	_DIAG__ReqCallback_WriteABSTicksValue..C.3A.5C_ECU2.5CECU_Rivian_A1.5CTarget.5Crepo_projects.5CpRealEcu.5CcL_LATEST.5Cmake.5Coutput.5Cobjects.5CSwcApplTpms_Diag.,@function
                        2524 	.size	_DIAG__ReqCallback_WriteABSTicksValue..C.3A.5C_ECU2.5CECU_Rivian_A1.5CTarget.5Crepo_projects.5CpRealEcu.5CcL_LATEST.5Cmake.5Coutput.5Cobjects.5CSwcApplTpms_Diag.,.-_DIAG__ReqCallback_WriteABSTicksValue..C.3A.5C_ECU2.5CECU_Rivian_A1.5CTarget.5Crepo_projects.5CpRealEcu.5CcL_LATEST.5Cmake.5Coutput.5Cobjects.5CSwcApplTpms_Diag.
                        2525 	.align	2
                        2526 --_U8_RetVal	r28	local
                        2527 --_LocalABSTicksInOneRev	0[sp]	local
                        2528 --_ParamaterABSTicksInOneRev	2[sp]	local
                        2529 
                        2530 --_PS_MsgContext	r27	param
                        2531 
                        2532 	.data
                        2533 	.text
                        2534 	.align	2
                        2535 	.align	2
                        2536 ..gh.f.f.1.e.35:
                        2537 	.type	..gh.f.f.1.e.35,@object
                        2538 	.size	..gh.f.f.1.e.35,0
                        2539 	.global	_DIAG__ReqCallback_ReadRSSINoiseLevel..C.3A.5C_ECU2.5CECU_Rivian_A1.5CTarget.5Crepo_projects.5CpRealEcu.5CcL_LATEST.5Cmake.5Coutput.5Cobjects.5CSwcApplTpms_Diag.
                        2540 _DIAG__ReqCallback_ReadRSSINoiseLevel..C.3A.5C_ECU2.5CECU_Rivian_A1.5CTarget.5Crepo_projects.5CpRealEcu.5CcL_LATEST.5Cmake.5Coutput.5Cobjects.5CSwcApplTpms_Diag.:
                        2541 _DIAG__ReqCallback_ReadRSSINoiseLevel:
00000a82 8007e110       2542 	prepare	{r27,r28,r29,r31},0
00000a86 06d8           2543 	mov	r6,r27
00000a88 3d0600000000*  2544 	mov	_U16_RespLenght,r29
                        2545 --	    .bf
                        2546 .LDW08:
                        2547 --line881
                        2548 ..lin.C.3A.5C_ECU2.5CECU_Rivian_A1.5CTarget.5Crepo_projects.5CpRealEcu.5CcL_LATEST.5Cmake.5Coutput.5Cobjects.5CSwcApplTpms_Diag.145::
                        2549 .LDWlin145:
00000a8e 3c0600000000*  2550 	mov	_tWAPar,r28
00000a94 1c38           2551 	mov	r28,r7
00000a96 0332           2552 	mov	3,r6
                        2553 	jarl	_GetWADataEE,lp
                        2553 <EXPANSION BEGIN>
                        2553 jarl22 _GetWADataEE , lp 
00000a98 80ff0000*      2553 <EXPANSION END>
                        2554 --line882
                        2555 ..lin.C.3A.5C_ECU2.5CECU_Rivian_A1.5CTarget.5Crepo_projects.5CpRealEcu.5CcL_LATEST.5Cmake.5Coutput.5Cobjects.5CSwcApplTpms_Diag.146::
                        2556 .LDWlin146:
00000a9c bc8f1700       2557 	ld.bu	23[r28],r17
00000aa0 bc871500       2558 	ld.bu	21[r28],r16
00000aa4 3df60400       2559 	movea	4,r29,ep
00000aa8 027a           2560 	mov	2,r15
00000aaa 808b           2561 	sst.b	r17,0[ep]
00000aac 8183           2562 	sst.b	r16,1[ep]
00000aae 7bf70900       2563 	st.w	ep,8[r27]
00000ab2 7d7f0000       2564 	st.h	r15,0[r29]
00000ab6 7bef0d00       2565 	st.w	r29,12[r27]
00000aba 0052           2566 	mov	0,r10
                        2567 --	    .ef
                        2568 .LDW18:
00000abc 4006ff10       2569 	dispose	0,{r27,r28,r29,r31},[lp]
                        2570 ___ghs_eofn_DIAG__ReqCallback_ReadRSSINoiseLevel:
                        2571 	.type	_DIAG__ReqCallback_ReadRSSINoiseLevel,@function
                        2572 	.size	_DIAG__ReqCallback_ReadRSSINoiseLevel,.-_DIAG__ReqCallback_ReadRSSINoiseLevel
                        2573 	.type	_DIAG__ReqCallback_ReadRSSINoiseLevel..C.3A.5C_ECU2.5CECU_Rivian_A1.5CTarget.5Crepo_projects.5CpRealEcu.5CcL_LATEST.5Cmake.5Coutput.5Cobjects.5CSwcApplTpms_Diag.,@function
                        2574 	.size	_DIAG__ReqCallback_ReadRSSINoiseLevel..C.3A.5C_ECU2.5CECU_Rivian_A1.5CTarget.5Crepo_projects.5CpRealEcu.5CcL_LATEST.5Cmake.5Coutput.5Cobjects.5CSwcApplTpms_Diag.,.-_DIAG__ReqCallback_ReadRSSINoiseLevel..C.3A.5C_ECU2.5CECU_Rivian_A1.5CTarget.5Crepo_projects.5CpRealEcu.5CcL_LATEST.5Cmake.5Coutput.5Cobjects.5CSwcApplTpms_Diag.
                        2575 	.align	2
                        2576 
                        2577 --_PS_MsgContext	r27	param

                                                                      Page 47
                                                              C:\Users\nhuliyap\AppData\Local\Temp\gh_00008941.s
                        2578 
                        2579 	.data
                        2580 	.text
                        2581 	.align	2
                        2582 	.align	2
                        2583 ..gh.f.f.1.e.36:
                        2584 	.type	..gh.f.f.1.e.36,@object
                        2585 	.size	..gh.f.f.1.e.36,0
                        2586 	.global	_DIAG__ReqCallback_WriteRSSINoiseLevel..C.3A.5C_ECU2.5CECU_Rivian_A1.5CTarget.5Crepo_projects.5CpRealEcu.5CcL_LATEST.5Cmake.5Coutput.5Cobjects.5CSwcApplTpms_Diag.
                        2587 _DIAG__ReqCallback_WriteRSSINoiseLevel..C.3A.5C_ECU2.5CECU_Rivian_A1.5CTarget.5Crepo_projects.5CpRealEcu.5CcL_LATEST.5Cmake.5Coutput.5Cobjects.5CSwcApplTpms_Diag.:
                        2588 _DIAG__ReqCallback_WriteRSSINoiseLevel:
00000ac0 8007e130       2589 	prepare	{r26,r27,r28,r29,r31},0
00000ac4 06d8           2590 	mov	r6,r27
00000ac6 3d0600000000*  2591 	mov	_U16_RespLenght,r29
                        2592 --	    .bf
                        2593 .LDW28:
                        2594 --line911
                        2595 ..lin.C.3A.5C_ECU2.5CECU_Rivian_A1.5CTarget.5Crepo_projects.5CpRealEcu.5CcL_LATEST.5Cmake.5Coutput.5Cobjects.5CSwcApplTpms_Diag.147::
                        2596 .LDWlin147:
00000acc 26f70100       2597 	ld.w	0[r6],ep
00000ad0 00d2           2598 	mov	0,r26
00000ad2 6088           2599 	sld.bu	0[ep],r17
00000ad4 e089           2600 	cmp	zero,r17
00000ad6 821d*          2601 	be	.L4788
00000ad8 6180           2602 	sld.bu	1[ep],r16
00000ada 6a82           2603 	cmp	10,r16
00000adc d315*          2604 	bnh	.L4788
                        2605 --line914
                        2606 ..lin.C.3A.5C_ECU2.5CECU_Rivian_A1.5CTarget.5Crepo_projects.5CpRealEcu.5CcL_LATEST.5Cmake.5Coutput.5Cobjects.5CSwcApplTpms_Diag.148::
                        2607 .LDWlin148:
00000ade 3c0600000000*  2608 	mov	_tWAPar,r28
00000ae4 1c38           2609 	mov	r28,r7
00000ae6 0332           2610 	mov	3,r6
                        2611 	jarl	_GetWADataEE,lp
                        2611 <EXPANSION BEGIN>
                        2611 jarl22 _GetWADataEE , lp 
00000ae8 80ff0000*      2611 <EXPANSION END>
                        2612 --line915
                        2613 ..lin.C.3A.5C_ECU2.5CECU_Rivian_A1.5CTarget.5Crepo_projects.5CpRealEcu.5CcL_LATEST.5Cmake.5Coutput.5Cobjects.5CSwcApplTpms_Diag.149::
                        2614 .LDWlin149:
00000aec 3bf70100       2615 	ld.w	0[r27],ep
00000af0 1c38           2616 	mov	r28,r7
00000af2 0332           2617 	mov	3,r6
00000af4 6078           2618 	sld.bu	0[ep],r15
00000af6 5c7f1700       2619 	st.b	r15,23[r28]
00000afa 6170           2620 	sld.bu	1[ep],r14
00000afc 5c771500       2621 	st.b	r14,21[r28]
                        2622 	jarl	_PutWADataEE,lp
                        2622 <EXPANSION BEGIN>
                        2622 jarl22 _PutWADataEE , lp 
00000b00 80ff0000*      2622 <EXPANSION END>
00000b04 b505*          2623 	br	.L4791
                        2624 .L4788:
                        2625 --line920
                        2626 ..lin.C.3A.5C_ECU2.5CECU_Rivian_A1.5CTarget.5Crepo_projects.5CpRealEcu.5CcL_LATEST.5Cmake.5Coutput.5Cobjects.5CSwcApplTpms_Diag.150::
                        2627 .LDWlin150:
00000b06 20d62200       2628 	movea	34,zero,r26
                        2629 .L4791:
00000b0a 7d070000       2630 	st.h	zero,0[r29]
00000b0e 7bef0d00       2631 	st.w	r29,12[r27]
00000b12 1a50           2632 	mov	r26,r10

                                                                      Page 48
                                                              C:\Users\nhuliyap\AppData\Local\Temp\gh_00008941.s
                        2633 --	    .ef
                        2634 .LDW38:
00000b14 4006ff30       2635 	dispose	0,{r26,r27,r28,r29,r31},[lp]
                        2636 ___ghs_eofn_DIAG__ReqCallback_WriteRSSINoiseLevel:
                        2637 	.type	_DIAG__ReqCallback_WriteRSSINoiseLevel,@function
                        2638 	.size	_DIAG__ReqCallback_WriteRSSINoiseLevel,.-_DIAG__ReqCallback_WriteRSSINoiseLevel
                        2639 	.type	_DIAG__ReqCallback_WriteRSSINoiseLevel..C.3A.5C_ECU2.5CECU_Rivian_A1.5CTarget.5Crepo_projects.5CpRealEcu.5CcL_LATEST.5Cmake.5Coutput.5Cobjects.5CSwcApplTpms_Diag.,@function
                        2640 	.size	_DIAG__ReqCallback_WriteRSSINoiseLevel..C.3A.5C_ECU2.5CECU_Rivian_A1.5CTarget.5Crepo_projects.5CpRealEcu.5CcL_LATEST.5Cmake.5Coutput.5Cobjects.5CSwcApplTpms_Diag.,.-_DIAG__ReqCallback_WriteRSSINoiseLevel..C.3A.5C_ECU2.5CECU_Rivian_A1.5CTarget.5Crepo_projects.5CpRealEcu.5CcL_LATEST.5Cmake.5Coutput.5Cobjects.5CSwcApplTpms_Diag.
                        2641 	.align	2
                        2642 --_U8_RetVal	r26	local
                        2643 
                        2644 --_PS_MsgContext	r27	param
                        2645 
                        2646 	.data
                        2647 	.text
                        2648 	.align	2
                        2649 	.align	2
                        2650 ..gh.f.f.1.e.37:
                        2651 	.type	..gh.f.f.1.e.37,@object
                        2652 	.size	..gh.f.f.1.e.37,0
                        2653 	.global	_DIAG__ReqCallback_ReadTemperatureWarningThreshold..C.3A.5C_ECU2.5CECU_Rivian_A1.5CTarget.5Crepo_projects.5CpRealEcu.5CcL_LATEST.5Cmake.5Coutput.5Cobjects.5CSwcApplTpms_Diag.
                        2654 _DIAG__ReqCallback_ReadTemperatureWarningThreshold..C.3A.5C_ECU2.5CECU_Rivian_A1.5CTarget.5Crepo_projects.5CpRealEcu.5CcL_LATEST.5Cmake.5Coutput.5Cobjects.5CSwcApplTpms_Diag.:
                        2655 _DIAG__ReqCallback_ReadTemperatureWarningThreshold:
00000b18 8007e100       2656 	prepare	{r28,r29,r31},0
00000b1c 06e0           2657 	mov	r6,r28
00000b1e 3d0600000000*  2658 	mov	_U16_RespLenght,r29
                        2659 --	    .bf
                        2660 .LDW48:
                        2661 --line933
                        2662 ..lin.C.3A.5C_ECU2.5CECU_Rivian_A1.5CTarget.5Crepo_projects.5CpRealEcu.5CcL_LATEST.5Cmake.5Coutput.5Cobjects.5CSwcApplTpms_Diag.151::
                        2663 .LDWlin151:
                        2664 	jarl	_NvM3_GETucVarCodTemperatureWarningThresEE,lp
                        2664 <EXPANSION BEGIN>
                        2664 jarl22 _NvM3_GETucVarCodTemperatureWarningThresEE , lp 
00000b24 80ff0000*      2664 <EXPANSION END>
00000b28 3df60400       2665 	movea	4,r29,ep
00000b2c 0a8e2800       2666 	addi	40,r10,r17
                        2667 --line937
                        2668 ..lin.C.3A.5C_ECU2.5CECU_Rivian_A1.5CTarget.5Crepo_projects.5CpRealEcu.5CcL_LATEST.5Cmake.5Coutput.5Cobjects.5CSwcApplTpms_Diag.152::
                        2669 .LDWlin152:
00000b30 0182           2670 	mov	1,r16
00000b32 808b           2671 	sst.b	r17,0[ep]
00000b34 7cf70900       2672 	st.w	ep,8[r28]
00000b38 7d870000       2673 	st.h	r16,0[r29]
00000b3c 7cef0d00       2674 	st.w	r29,12[r28]
00000b40 0052           2675 	mov	0,r10
                        2676 --	    .ef
                        2677 .LDW58:
00000b42 4006ff00       2678 	dispose	0,{r28,r29,r31},[lp]
                        2679 ___ghs_eofn_DIAG__ReqCallback_ReadTemperatureWarningThreshold:
                        2680 	.type	_DIAG__ReqCallback_ReadTemperatureWarningThreshold,@function
                        2681 	.size	_DIAG__ReqCallback_ReadTemperatureWarningThreshold,.-_DIAG__ReqCallback_ReadTemperatureWarningThreshold
                        2682 	.type	_DIAG__ReqCallback_ReadTemperatureWarningThreshold..C.3A.5C_ECU2.5CECU_Rivian_A1.5CTarget.5Crepo_projects.5CpRealEcu.5CcL_LATEST.5Cmake.5Coutput.5Cobjects.5CSwcApplTpms_Diag.,@function
                        2683 	.size	_DIAG__ReqCallback_ReadTemperatureWarningThreshold..C.3A.5C_ECU2.5CECU_Rivian_A1.5CTarget.5Crepo_projects.5CpRealEcu.5CcL_LATEST.5Cmake.5Coutput.5Cobjects.5CSwcApplTpms_Diag.,.-_DIAG__ReqCallback_ReadTemperatureWarningThreshold..C.3A.5C_ECU2.5CECU_Rivian_A1.5CTarget.5Crepo_projects.5CpRealEcu.5CcL_LATEST.5Cmake.5Coutput.5Cobjects.5CSwcApplTpms_Diag.
                        2684 	.align	2
                        2685 
                        2686 --_PS_MsgContext	r28	param
                        2687 
                        2688 	.data
                        2689 	.text
                        2690 	.align	2

                                                                      Page 49
                                                              C:\Users\nhuliyap\AppData\Local\Temp\gh_00008941.s
                        2691 	.align	2
                        2692 ..gh.f.f.1.e.38:
                        2693 	.type	..gh.f.f.1.e.38,@object
                        2694 	.size	..gh.f.f.1.e.38,0
                        2695 	.global	_DIAG__ReqCallback_WriteTemperatureWarningThreshold..C.3A.5C_ECU2.5CECU_Rivian_A1.5CTarget.5Crepo_projects.5CpRealEcu.5CcL_LATEST.5Cmake.5Coutput.5Cobjects.5CSwcApplTpms_Diag.
                        2696 _DIAG__ReqCallback_WriteTemperatureWarningThreshold..C.3A.5C_ECU2.5CECU_Rivian_A1.5CTarget.5Crepo_projects.5CpRealEcu.5CcL_LATEST.5Cmake.5Coutput.5Cobjects.5CSwcApplTpms_Diag.:
                        2697 _DIAG__ReqCallback_WriteTemperatureWarningThreshold:
00000b46 80076100       2698 	prepare	{r29,r31},0
00000b4a 06f0           2699 	mov	r6,ep
                        2700 --	    .bf
                        2701 .LDW68:
00000b4c 00f5           2702 	sld.w	0[ep],ep
00000b4e 009b           2703 	sld.b	0[ep],r19
00000b50 1336d8ff       2704 	addi	-40,r19,r6
00000b54 a600           2705 	sxb	r6
00000b56 060688ff       2706 	addi	-120,r6,zero
00000b5a df05*          2707 	bgt	.L4948
00000b5c 00ea           2708 	mov	0,r29
                        2709 --line950
                        2710 ..lin.C.3A.5C_ECU2.5CECU_Rivian_A1.5CTarget.5Crepo_projects.5CpRealEcu.5CcL_LATEST.5Cmake.5Coutput.5Cobjects.5CSwcApplTpms_Diag.153::
                        2711 .LDWlin153:
                        2712 	jarl	_NvM3_PUTucVarCodTemperatureWarningThresEE,lp
                        2712 <EXPANSION BEGIN>
                        2712 jarl22 _NvM3_PUTucVarCodTemperatureWarningThresEE , lp 
00000b5e 80ff0000*      2712 <EXPANSION END>
00000b62 b505*          2713 	br	.L4950
                        2714 .L4948:
                        2715 --line953
                        2716 ..lin.C.3A.5C_ECU2.5CECU_Rivian_A1.5CTarget.5Crepo_projects.5CpRealEcu.5CcL_LATEST.5Cmake.5Coutput.5Cobjects.5CSwcApplTpms_Diag.154::
                        2717 .LDWlin154:
00000b64 20ee2200       2718 	movea	34,zero,r29
                        2719 .L4950:
00000b68 1d50           2720 	mov	r29,r10
                        2721 --	    .ef
                        2722 .LDW78:
00000b6a 40067f00       2723 	dispose	0,{r29,r31},[lp]
                        2724 ___ghs_eofn_DIAG__ReqCallback_WriteTemperatureWarningThreshold:
                        2725 	.type	_DIAG__ReqCallback_WriteTemperatureWarningThreshold,@function
                        2726 	.size	_DIAG__ReqCallback_WriteTemperatureWarningThreshold,.-_DIAG__ReqCallback_WriteTemperatureWarningThreshold
                        2727 	.type	_DIAG__ReqCallback_WriteTemperatureWarningThreshold..C.3A.5C_ECU2.5CECU_Rivian_A1.5CTarget.5Crepo_projects.5CpRealEcu.5CcL_LATEST.5Cmake.5Coutput.5Cobjects.5CSwcApplTpms_Diag.,@function
                        2728 	.size	_DIAG__ReqCallback_WriteTemperatureWarningThreshold..C.3A.5C_ECU2.5CECU_Rivian_A1.5CTarget.5Crepo_projects.5CpRealEcu.5CcL_LATEST.5Cmake.5Coutput.5Cobjects.5CSwcApplTpms_Diag.,.-_DIAG__ReqCallback_WriteTemperatureWarningThreshold..C.3A.5C_ECU2.5CECU_Rivian_A1.5CTarget.5Crepo_projects.5CpRealEcu.5CcL_LATEST.5Cmake.5Coutput.5Cobjects.5CSwcApplTpms_Diag.
                        2729 	.align	2
                        2730 --_U8_RetVal	r29	local
                        2731 --_S8_TemperatureWarningThres	r6	local
                        2732 
                        2733 --_PS_MsgContext	ep	param
                        2734 
                        2735 	.section ".bss","awb"
                        2736 .L4998:
                        2737 	.type	.L4998,@object
                        2738 	.size	.L4998,0
                        2739 	.data
                        2740 	.text
                        2741 	.align	2
                        2742 	.align	2
                        2743 ..gh.f.f.1.e.39:
                        2744 	.type	..gh.f.f.1.e.39,@object
                        2745 	.size	..gh.f.f.1.e.39,0
                        2746 	.global	_DIAG__EOLRoutineStart..C.3A.5C_ECU2.5CECU_Rivian_A1.5CTarget.5Crepo_projects.5CpRealEcu.5CcL_LATEST.5Cmake.5Coutput.5Cobjects.5CSwcApplTpms_Diag.
                        2747 _DIAG__EOLRoutineStart..C.3A.5C_ECU2.5CECU_Rivian_A1.5CTarget.5Crepo_projects.5CpRealEcu.5CcL_LATEST.5Cmake.5Coutput.5Cobjects.5CSwcApplTpms_Diag.:
                        2748 _DIAG__EOLRoutineStart:

                                                                      Page 50
                                                              C:\Users\nhuliyap\AppData\Local\Temp\gh_00008941.s
00000b6e 80076100       2749 	prepare	{r29,r31},0
00000b72 06f0           2750 	mov	r6,ep
00000b74 07e8           2751 	mov	r7,r29
                        2752 --	    .bf
                        2753 .LDW88:
00000b76 6030           2754 	sld.bu	0[ep],r6
                        2755 	jarl	_EOL_StartLearnRoutine,lp
                        2755 <EXPANSION BEGIN>
                        2755 jarl22 _EOL_StartLearnRoutine , lp 
00000b78 80ff0000*      2755 <EXPANSION END>
00000b7c 5d570000       2756 	st.b	r10,0[r29]
                        2757 --	    .ef
                        2758 .LDW98:
                        2759 --line1281
                        2760 ..lin.C.3A.5C_ECU2.5CECU_Rivian_A1.5CTarget.5Crepo_projects.5CpRealEcu.5CcL_LATEST.5Cmake.5Coutput.5Cobjects.5CSwcApplTpms_Diag.155::
                        2761 .LDWlin155:
00000b80 40067f00       2762 	dispose	0,{r29,r31},[lp]
                        2763 ___ghs_eofn_DIAG__EOLRoutineStart:
                        2764 	.type	_DIAG__EOLRoutineStart,@function
                        2765 	.size	_DIAG__EOLRoutineStart,.-_DIAG__EOLRoutineStart
                        2766 	.type	_DIAG__EOLRoutineStart..C.3A.5C_ECU2.5CECU_Rivian_A1.5CTarget.5Crepo_projects.5CpRealEcu.5CcL_LATEST.5Cmake.5Coutput.5Cobjects.5CSwcApplTpms_Diag.,@function
                        2767 	.size	_DIAG__EOLRoutineStart..C.3A.5C_ECU2.5CECU_Rivian_A1.5CTarget.5Crepo_projects.5CpRealEcu.5CcL_LATEST.5Cmake.5Coutput.5Cobjects.5CSwcApplTpms_Diag.,.-_DIAG__EOLRoutineStart..C.3A.5C_ECU2.5CECU_Rivian_A1.5CTarget.5Crepo_projects.5CpRealEcu.5CcL_LATEST.5Cmake.5Coutput.5Cobjects.5CSwcApplTpms_Diag.
                        2768 	.align	2
                        2769 
                        2770 --_PU8_ReqData	ep	param
                        2771 --_PU8_ResData	r29	param
                        2772 
                        2773 	.section ".bss","awb"
                        2774 .L5073:
                        2775 	.type	.L5073,@object
                        2776 	.size	.L5073,0
                        2777 	.data
                        2778 	.text
                        2779 	.align	2
                        2780 	.align	2
                        2781 ..gh.f.f.1.e.40:
                        2782 	.type	..gh.f.f.1.e.40,@object
                        2783 	.size	..gh.f.f.1.e.40,0
                        2784 	.global	_DIAG__EOLRoutineReqResponse..C.3A.5C_ECU2.5CECU_Rivian_A1.5CTarget.5Crepo_projects.5CpRealEcu.5CcL_LATEST.5Cmake.5Coutput.5Cobjects.5CSwcApplTpms_Diag.
                        2785 _DIAG__EOLRoutineReqResponse..C.3A.5C_ECU2.5CECU_Rivian_A1.5CTarget.5Crepo_projects.5CpRealEcu.5CcL_LATEST.5Cmake.5Coutput.5Cobjects.5CSwcApplTpms_Diag.:
                        2786 _DIAG__EOLRoutineReqResponse:
00000b84 80076100       2787 	prepare	{r29,r31},0
00000b88 06e8           2788 	mov	r6,r29
                        2789 --	    .bf
                        2790 .LDW09:
                        2791 	jarl	_EOL_GetStatusEOLRoutine,lp
                        2791 <EXPANSION BEGIN>
                        2791 jarl22 _EOL_GetStatusEOLRoutine , lp 
00000b8a 80ff0000*      2791 <EXPANSION END>
                        2792 --line1287
                        2793 ..lin.C.3A.5C_ECU2.5CECU_Rivian_A1.5CTarget.5Crepo_projects.5CpRealEcu.5CcL_LATEST.5Cmake.5Coutput.5Cobjects.5CSwcApplTpms_Diag.156::
                        2794 .LDWlin156:
00000b8e 6752           2795 	cmp	7,r10
00000b90 bb05*          2796 	bh	.L5094
00000b92 6352           2797 	cmp	3,r10
00000b94 da05*          2798 	bne	.L5096
                        2799 .L5094:
                        2800 --line1290
                        2801 ..lin.C.3A.5C_ECU2.5CECU_Rivian_A1.5CTarget.5Crepo_projects.5CpRealEcu.5CcL_LATEST.5Cmake.5Coutput.5Cobjects.5CSwcApplTpms_Diag.157::
                        2802 .LDWlin157:
00000b96 0032           2803 	mov	0,r6

                                                                      Page 51
                                                              C:\Users\nhuliyap\AppData\Local\Temp\gh_00008941.s
                        2804 	jarl	_EOL_PutStatusEOLRoutine,lp
                        2804 <EXPANSION BEGIN>
                        2804 jarl22 _EOL_PutStatusEOLRoutine , lp 
00000b98 80ff0000*      2804 <EXPANSION END>
                        2805 --line1291
                        2806 ..lin.C.3A.5C_ECU2.5CECU_Rivian_A1.5CTarget.5Crepo_projects.5CpRealEcu.5CcL_LATEST.5Cmake.5Coutput.5Cobjects.5CSwcApplTpms_Diag.158::
                        2807 .LDWlin158:
00000b9c 0052           2808 	mov	0,r10
                        2809 .L5096:
00000b9e 5d570000       2810 	st.b	r10,0[r29]
                        2811 --	    .ef
                        2812 .LDW19:
00000ba2 40067f00       2813 	dispose	0,{r29,r31},[lp]
                        2814 ___ghs_eofn_DIAG__EOLRoutineReqResponse:
                        2815 	.type	_DIAG__EOLRoutineReqResponse,@function
                        2816 	.size	_DIAG__EOLRoutineReqResponse,.-_DIAG__EOLRoutineReqResponse
                        2817 	.type	_DIAG__EOLRoutineReqResponse..C.3A.5C_ECU2.5CECU_Rivian_A1.5CTarget.5Crepo_projects.5CpRealEcu.5CcL_LATEST.5Cmake.5Coutput.5Cobjects.5CSwcApplTpms_Diag.,@function
                        2818 	.size	_DIAG__EOLRoutineReqResponse..C.3A.5C_ECU2.5CECU_Rivian_A1.5CTarget.5Crepo_projects.5CpRealEcu.5CcL_LATEST.5Cmake.5Coutput.5Cobjects.5CSwcApplTpms_Diag.,.-_DIAG__EOLRoutineReqResponse..C.3A.5C_ECU2.5CECU_Rivian_A1.5CTarget.5Crepo_projects.5CpRealEcu.5CcL_LATEST.5Cmake.5Coutput.5Cobjects.5CSwcApplTpms_Diag.
                        2819 	.align	2
                        2820 --_ucRoutineStatusValue	r10	local
                        2821 
                        2822 --_PU8_ResData	r29	param
                        2823 
                        2824 	.section ".bss","awb"
                        2825 .L5136:
                        2826 	.type	.L5136,@object
                        2827 	.size	.L5136,0
                        2828 	.data
                        2829 	.text
                        2830 	.align	2
                        2831 	.align	2
                        2832 ..gh.f.f.1.e.41:
                        2833 	.type	..gh.f.f.1.e.41,@object
                        2834 	.size	..gh.f.f.1.e.41,0
                        2835 	.global	_DIAG__ReqCallback_StartEOL_TPMS_TestProcedure..C.3A.5C_ECU2.5CECU_Rivian_A1.5CTarget.5Crepo_projects.5CpRealEcu.5CcL_LATEST.5Cmake.5Coutput.5Cobjects.5CSwcApplTpms_Diag.
                        2836 _DIAG__ReqCallback_StartEOL_TPMS_TestProcedure..C.3A.5C_ECU2.5CECU_Rivian_A1.5CTarget.5Crepo_projects.5CpRealEcu.5CcL_LATEST.5Cmake.5Coutput.5Cobjects.5CSwcApplTpms_Diag.:
                        2837 _DIAG__ReqCallback_StartEOL_TPMS_TestProcedure:
00000ba6 8407e330       2838 	prepare	{r26,r27,r28,r29,r31},2,sp
00000baa 06e0           2839 	mov	r6,r28
00000bac 3d0600000000*  2840 	mov	_U16_RespLenght,r29
                        2841 --	    .bf
                        2842 .LDW29:
                        2843 --line968
                        2844 ..lin.C.3A.5C_ECU2.5CECU_Rivian_A1.5CTarget.5Crepo_projects.5CpRealEcu.5CcL_LATEST.5Cmake.5Coutput.5Cobjects.5CSwcApplTpms_Diag.159::
                        2845 .LDWlin159:
00000bb2 e6970500       2846 	ld.hu	4[r6],r18
00000bb6 8203           2847 	sst.b	zero,2[ep]
00000bb8 8303           2848 	sst.b	zero,3[ep]
00000bba 1df0           2849 	mov	r29,ep
00000bbc 3dd60400       2850 	movea	4,r29,r26
00000bc0 8403           2851 	sst.b	zero,4[ep]
00000bc2 8004           2852 	sst.h	zero,0[ep]
00000bc4 6192           2853 	cmp	1,r18
00000bc6 ba1d*          2854 	bne	.L5183
                        2855 --line971
                        2856 ..lin.C.3A.5C_ECU2.5CECU_Rivian_A1.5CTarget.5Crepo_projects.5CpRealEcu.5CcL_LATEST.5Cmake.5Coutput.5Cobjects.5CSwcApplTpms_Diag.160::
                        2857 .LDWlin160:
00000bc8 26f70100       2858 	ld.w	0[r6],ep
00000bcc 00da           2859 	mov	0,r27
00000bce 23360200       2860 	movea	2,sp,r6
00000bd2 233e0300       2861 	movea	3,sp,r7

                                                                      Page 52
                                                              C:\Users\nhuliyap\AppData\Local\Temp\gh_00008941.s
00000bd6 6088           2862 	sld.bu	0[ep],r17
00000bd8 438f0200       2863 	st.b	r17,2[sp]
                        2864 	jarl	_DIAG__EOLRoutineStart,lp
                        2864 <EXPANSION BEGIN>
                        2864 jarl22 _DIAG__EOLRoutineStart , lp 
00000bdc bfff92ff*      2864 <EXPANSION END>
                        2865 --line973
                        2866 ..lin.C.3A.5C_ECU2.5CECU_Rivian_A1.5CTarget.5Crepo_projects.5CpRealEcu.5CcL_LATEST.5Cmake.5Coutput.5Cobjects.5CSwcApplTpms_Diag.161::
                        2867 .LDWlin161:
00000be0 a3870300       2868 	ld.bu	3[sp],r16
00000be4 6182           2869 	cmp	1,r16
00000be6 ca05*          2870 	bne	.L5185
                        2871 --line976
                        2872 ..lin.C.3A.5C_ECU2.5CECU_Rivian_A1.5CTarget.5Crepo_projects.5CpRealEcu.5CcL_LATEST.5Cmake.5Coutput.5Cobjects.5CSwcApplTpms_Diag.162::
                        2873 .LDWlin162:
00000be8 20de3100       2874 	movea	49,zero,r27
00000bec a50d*          2875 	br	.L5188
                        2876 .L5185:
                        2877 --line980
                        2878 ..lin.C.3A.5C_ECU2.5CECU_Rivian_A1.5CTarget.5Crepo_projects.5CpRealEcu.5CcL_LATEST.5Cmake.5Coutput.5Cobjects.5CSwcApplTpms_Diag.163::
                        2879 .LDWlin163:
00000bee 1a30           2880 	mov	r26,r6
                        2881 	jarl	_DIAG__EOLRoutineReqResponse,lp
                        2881 <EXPANSION BEGIN>
                        2881 jarl22 _DIAG__EOLRoutineReqResponse , lp 
00000bf0 bfff94ff*      2881 <EXPANSION END>
                        2882 --line981
                        2883 ..lin.C.3A.5C_ECU2.5CECU_Rivian_A1.5CTarget.5Crepo_projects.5CpRealEcu.5CcL_LATEST.5Cmake.5Coutput.5Cobjects.5CSwcApplTpms_Diag.164::
                        2884 .LDWlin164:
00000bf4 017a           2885 	mov	1,r15
00000bf6 7d7f0000       2886 	st.h	r15,0[r29]
00000bfa b505*          2887 	br	.L5188
                        2888 .L5183:
                        2889 --line986
                        2890 ..lin.C.3A.5C_ECU2.5CECU_Rivian_A1.5CTarget.5Crepo_projects.5CpRealEcu.5CcL_LATEST.5Cmake.5Coutput.5Cobjects.5CSwcApplTpms_Diag.165::
                        2891 .LDWlin165:
00000bfc 20de1300       2892 	movea	19,zero,r27
                        2893 .L5188:
00000c00 1cf0           2894 	mov	r28,ep
00000c02 05d5           2895 	sst.w	r26,8[ep]
00000c04 07ed           2896 	sst.w	r29,12[ep]
00000c06 1b50           2897 	mov	r27,r10
                        2898 --	    .ef
                        2899 .LDW39:
00000c08 4406ff30       2900 	dispose	2,{r26,r27,r28,r29,r31},[lp]
                        2901 ___ghs_eofn_DIAG__ReqCallback_StartEOL_TPMS_TestProcedure:
                        2902 	.type	_DIAG__ReqCallback_StartEOL_TPMS_TestProcedure,@function
                        2903 	.size	_DIAG__ReqCallback_StartEOL_TPMS_TestProcedure,.-_DIAG__ReqCallback_StartEOL_TPMS_TestProcedure
                        2904 	.type	_DIAG__ReqCallback_StartEOL_TPMS_TestProcedure..C.3A.5C_ECU2.5CECU_Rivian_A1.5CTarget.5Crepo_projects.5CpRealEcu.5CcL_LATEST.5Cmake.5Coutput.5Cobjects.5CSwcApplTpms_Diag.,@function
                        2905 	.size	_DIAG__ReqCallback_StartEOL_TPMS_TestProcedure..C.3A.5C_ECU2.5CECU_Rivian_A1.5CTarget.5Crepo_projects.5CpRealEcu.5CcL_LATEST.5Cmake.5Coutput.5Cobjects.5CSwcApplTpms_Diag.,.-_DIAG__ReqCallback_StartEOL_TPMS_TestProcedure..C.3A.5C_ECU2.5CECU_Rivian_A1.5CTarget.5Crepo_projects.5CpRealEcu.5CcL_LATEST.5Cmake.5Coutput.5Cobjects.5CSwcApplTpms_Diag.
                        2906 	.align	2
                        2907 --_U8_RetVal	r27	local
                        2908 --_U8_TmpReq	2[sp]	local
                        2909 --_U8_TmpRes	3[sp]	local
                        2910 
                        2911 --_PS_MsgContext	r28	param
                        2912 
                        2913 	.data
                        2914 	.text
                        2915 	.align	2
                        2916 	.align	2

                                                                      Page 53
                                                              C:\Users\nhuliyap\AppData\Local\Temp\gh_00008941.s
                        2917 ..gh.f.f.1.e.42:
                        2918 	.type	..gh.f.f.1.e.42,@object
                        2919 	.size	..gh.f.f.1.e.42,0
                        2920 	.global	_DIAG__ReqCallback_StopEOL_TPMS_TestProcedure..C.3A.5C_ECU2.5CECU_Rivian_A1.5CTarget.5Crepo_projects.5CpRealEcu.5CcL_LATEST.5Cmake.5Coutput.5Cobjects.5CSwcApplTpms_Diag.
                        2921 _DIAG__ReqCallback_StopEOL_TPMS_TestProcedure..C.3A.5C_ECU2.5CECU_Rivian_A1.5CTarget.5Crepo_projects.5CpRealEcu.5CcL_LATEST.5Cmake.5Coutput.5Cobjects.5CSwcApplTpms_Diag.:
                        2922 _DIAG__ReqCallback_StopEOL_TPMS_TestProcedure:
00000c0c 8007e130       2923 	prepare	{r26,r27,r28,r29,r31},0
00000c10 06e0           2924 	mov	r6,r28
00000c12 3d0600000000*  2925 	mov	_U16_RespLenght,r29
                        2926 --	    .bf
                        2927 .LDW49:
                        2928 --line1002
                        2929 ..lin.C.3A.5C_ECU2.5CECU_Rivian_A1.5CTarget.5Crepo_projects.5CpRealEcu.5CcL_LATEST.5Cmake.5Coutput.5Cobjects.5CSwcApplTpms_Diag.166::
                        2930 .LDWlin166:
00000c18 e68f0500       2931 	ld.hu	4[r6],r17
00000c1c 0192           2932 	mov	1,r18
00000c1e 1df0           2933 	mov	r29,ep
00000c20 3dd60400       2934 	movea	4,r29,r26
00000c24 8493           2935 	sst.b	r18,4[ep]
00000c26 8004           2936 	sst.h	zero,0[ep]
00000c28 618a           2937 	cmp	1,r17
00000c2a 8a15*          2938 	bne	.L5314
                        2939 --line1005
                        2940 ..lin.C.3A.5C_ECU2.5CECU_Rivian_A1.5CTarget.5Crepo_projects.5CpRealEcu.5CcL_LATEST.5Cmake.5Coutput.5Cobjects.5CSwcApplTpms_Diag.167::
                        2941 .LDWlin167:
00000c2c 26f70100       2942 	ld.w	0[r6],ep
00000c30 00da           2943 	mov	0,r27
00000c32 6080           2944 	sld.bu	0[ep],r16
00000c34 e081           2945 	cmp	zero,r16
00000c36 fa05*          2946 	bne	.L5316
                        2947 --line1008
                        2948 ..lin.C.3A.5C_ECU2.5CECU_Rivian_A1.5CTarget.5Crepo_projects.5CpRealEcu.5CcL_LATEST.5Cmake.5Coutput.5Cobjects.5CSwcApplTpms_Diag.168::
                        2949 .LDWlin168:
                        2950 	jarl	_EOL_ResetLearnRoutine,lp
                        2950 <EXPANSION BEGIN>
                        2950 jarl22 _EOL_ResetLearnRoutine , lp 
00000c38 80ff0000*      2950 <EXPANSION END>
                        2951 --line1009
                        2952 ..lin.C.3A.5C_ECU2.5CECU_Rivian_A1.5CTarget.5Crepo_projects.5CpRealEcu.5CcL_LATEST.5Cmake.5Coutput.5Cobjects.5CSwcApplTpms_Diag.169::
                        2953 .LDWlin169:
00000c3c 017a           2954 	mov	1,r15
00000c3e 7d7f0000       2955 	st.h	r15,0[r29]
00000c42 e505*          2956 	br	.L5319
                        2957 .L5316:
                        2958 --line1014
                        2959 ..lin.C.3A.5C_ECU2.5CECU_Rivian_A1.5CTarget.5Crepo_projects.5CpRealEcu.5CcL_LATEST.5Cmake.5Coutput.5Cobjects.5CSwcApplTpms_Diag.170::
                        2960 .LDWlin170:
00000c44 20de3100       2961 	movea	49,zero,r27
00000c48 b505*          2962 	br	.L5319
                        2963 .L5314:
                        2964 --line1019
                        2965 ..lin.C.3A.5C_ECU2.5CECU_Rivian_A1.5CTarget.5Crepo_projects.5CpRealEcu.5CcL_LATEST.5Cmake.5Coutput.5Cobjects.5CSwcApplTpms_Diag.171::
                        2966 .LDWlin171:
00000c4a 20de1300       2967 	movea	19,zero,r27
                        2968 .L5319:
00000c4e 1cf0           2969 	mov	r28,ep
00000c50 05d5           2970 	sst.w	r26,8[ep]
00000c52 07ed           2971 	sst.w	r29,12[ep]
00000c54 1b50           2972 	mov	r27,r10
                        2973 --	    .ef
                        2974 .LDW59:

                                                                      Page 54
                                                              C:\Users\nhuliyap\AppData\Local\Temp\gh_00008941.s
00000c56 4006ff30       2975 	dispose	0,{r26,r27,r28,r29,r31},[lp]
                        2976 ___ghs_eofn_DIAG__ReqCallback_StopEOL_TPMS_TestProcedure:
                        2977 	.type	_DIAG__ReqCallback_StopEOL_TPMS_TestProcedure,@function
                        2978 	.size	_DIAG__ReqCallback_StopEOL_TPMS_TestProcedure,.-_DIAG__ReqCallback_StopEOL_TPMS_TestProcedure
                        2979 	.type	_DIAG__ReqCallback_StopEOL_TPMS_TestProcedure..C.3A.5C_ECU2.5CECU_Rivian_A1.5CTarget.5Crepo_projects.5CpRealEcu.5CcL_LATEST.5Cmake.5Coutput.5Cobjects.5CSwcApplTpms_Diag.,@function
                        2980 	.size	_DIAG__ReqCallback_StopEOL_TPMS_TestProcedure..C.3A.5C_ECU2.5CECU_Rivian_A1.5CTarget.5Crepo_projects.5CpRealEcu.5CcL_LATEST.5Cmake.5Coutput.5Cobjects.5CSwcApplTpms_Diag.,.-_DIAG__ReqCallback_StopEOL_TPMS_TestProcedure..C.3A.5C_ECU2.5CECU_Rivian_A1.5CTarget.5Crepo_projects.5CpRealEcu.5CcL_LATEST.5Cmake.5Coutput.5Cobjects.5CSwcApplTpms_Diag.
                        2981 	.align	2
                        2982 --_U8_RetVal	r27	local
                        2983 
                        2984 --_PS_MsgContext	r28	param
                        2985 
                        2986 	.data
                        2987 	.text
                        2988 	.align	2
                        2989 	.align	2
                        2990 ..gh.f.f.1.e.43:
                        2991 	.type	..gh.f.f.1.e.43,@object
                        2992 	.size	..gh.f.f.1.e.43,0
                        2993 	.global	_DIAG__ReqCallback_RequestResultsEOL_TPMS_TestProcedure..C.3A.5C_ECU2.5CECU_Rivian_A1.5CTarget.5Crepo_projects.5CpRealEcu.5CcL_LATEST.5Cmake.5Coutput.5Cobjects.5CSwcApplTpms_Diag.
                        2994 _DIAG__ReqCallback_RequestResultsEOL_TPMS_TestProcedure..C.3A.5C_ECU2.5CECU_Rivian_A1.5CTarget.5Crepo_projects.5CpRealEcu.5CcL_LATEST.5Cmake.5Coutput.5Cobjects.5CSwcApplTpms_Diag.:
                        2995 _DIAG__ReqCallback_RequestResultsEOL_TPMS_TestProcedure:
00000c5a 8007e130       2996 	prepare	{r26,r27,r28,r29,r31},0
00000c5e 3d0600000000*  2997 	mov	_U16_RespLenght,r29
                        2998 --	    .bf
                        2999 .LDW69:
                        3000 --line1034
                        3001 ..lin.C.3A.5C_ECU2.5CECU_Rivian_A1.5CTarget.5Crepo_projects.5CpRealEcu.5CcL_LATEST.5Cmake.5Coutput.5Cobjects.5CSwcApplTpms_Diag.172::
                        3002 .LDWlin172:
00000c64 e6970500       3003 	ld.hu	4[r6],r18
00000c68 1df0           3004 	mov	r29,ep
00000c6a 8004           3005 	sst.h	zero,0[ep]
00000c6c 8403           3006 	sst.b	zero,4[ep]
00000c6e e091           3007 	cmp	zero,r18
00000c70 ba25*          3008 	bne	.L5442
00000c72 06d8           3009 	mov	r6,r27
00000c74 3de60400       3010 	movea	4,r29,r28
00000c78 12d0           3011 	mov	r18,r26
                        3012 --line1037
                        3013 ..lin.C.3A.5C_ECU2.5CECU_Rivian_A1.5CTarget.5Crepo_projects.5CpRealEcu.5CcL_LATEST.5Cmake.5Coutput.5Cobjects.5CSwcApplTpms_Diag.173::
                        3014 .LDWlin173:
00000c7a 1c30           3015 	mov	r28,r6
                        3016 	jarl	_DIAG__EOLRoutineReqResponse,lp
                        3016 <EXPANSION BEGIN>
                        3016 jarl22 _DIAG__EOLRoutineReqResponse , lp 
00000c7c bfff08ff*      3016 <EXPANSION END>
                        3017 --line1039
                        3018 ..lin.C.3A.5C_ECU2.5CECU_Rivian_A1.5CTarget.5Crepo_projects.5CpRealEcu.5CcL_LATEST.5Cmake.5Coutput.5Cobjects.5CSwcApplTpms_Diag.174::
                        3019 .LDWlin174:
00000c80 1a30           3020 	mov	r26,r6
                        3021 	jarl	_GETucReifendruckPD,lp
                        3021 <EXPANSION BEGIN>
                        3021 jarl22 _GETucReifendruckPD , lp 
00000c82 80ff0000*      3021 <EXPANSION END>
00000c86 5d570500       3022 	st.b	r10,5[r29]
                        3023 --line1040
                        3024 ..lin.C.3A.5C_ECU2.5CECU_Rivian_A1.5CTarget.5Crepo_projects.5CpRealEcu.5CcL_LATEST.5Cmake.5Coutput.5Cobjects.5CSwcApplTpms_Diag.175::
                        3025 .LDWlin175:
00000c8a 0132           3026 	mov	1,r6
                        3027 	jarl	_GETucReifendruckPD,lp
                        3027 <EXPANSION BEGIN>
                        3027 jarl22 _GETucReifendruckPD , lp 

                                                                      Page 55
                                                              C:\Users\nhuliyap\AppData\Local\Temp\gh_00008941.s
00000c8c 80ff0000*      3027 <EXPANSION END>
00000c90 5d570600       3028 	st.b	r10,6[r29]
                        3029 --line1041
                        3030 ..lin.C.3A.5C_ECU2.5CECU_Rivian_A1.5CTarget.5Crepo_projects.5CpRealEcu.5CcL_LATEST.5Cmake.5Coutput.5Cobjects.5CSwcApplTpms_Diag.176::
                        3031 .LDWlin176:
00000c94 0232           3032 	mov	2,r6
                        3033 	jarl	_GETucReifendruckPD,lp
                        3033 <EXPANSION BEGIN>
                        3033 jarl22 _GETucReifendruckPD , lp 
00000c96 80ff0000*      3033 <EXPANSION END>
00000c9a 5d570700       3034 	st.b	r10,7[r29]
                        3035 --line1042
                        3036 ..lin.C.3A.5C_ECU2.5CECU_Rivian_A1.5CTarget.5Crepo_projects.5CpRealEcu.5CcL_LATEST.5Cmake.5Coutput.5Cobjects.5CSwcApplTpms_Diag.177::
                        3037 .LDWlin177:
00000c9e 0332           3038 	mov	3,r6
                        3039 	jarl	_GETucReifendruckPD,lp
                        3039 <EXPANSION BEGIN>
                        3039 jarl22 _GETucReifendruckPD , lp 
00000ca0 80ff0000*      3039 <EXPANSION END>
00000ca4 1df0           3040 	mov	r29,ep
                        3041 --line1046
                        3042 ..lin.C.3A.5C_ECU2.5CECU_Rivian_A1.5CTarget.5Crepo_projects.5CpRealEcu.5CcL_LATEST.5Cmake.5Coutput.5Cobjects.5CSwcApplTpms_Diag.178::
                        3043 .LDWlin178:
00000ca6 058a           3044 	mov	5,r17
00000ca8 8853           3045 	sst.b	r10,8[ep]
00000caa 7be70900       3046 	st.w	r28,8[r27]
00000cae 808c           3047 	sst.h	r17,0[ep]
00000cb0 7bef0d00       3048 	st.w	r29,12[r27]
00000cb4 b505*          3049 	br	.L5444
                        3050 .L5442:
                        3051 --line1051
                        3052 ..lin.C.3A.5C_ECU2.5CECU_Rivian_A1.5CTarget.5Crepo_projects.5CpRealEcu.5CcL_LATEST.5Cmake.5Coutput.5Cobjects.5CSwcApplTpms_Diag.179::
                        3053 .LDWlin179:
00000cb6 20d61300       3054 	movea	19,zero,r26
                        3055 .L5444:
00000cba 1a50           3056 	mov	r26,r10
                        3057 --	    .ef
                        3058 .LDW79:
00000cbc 4006ff30       3059 	dispose	0,{r26,r27,r28,r29,r31},[lp]
                        3060 ___ghs_eofn_DIAG__ReqCallback_RequestResultsEOL_TPMS_TestProcedure:
                        3061 	.type	_DIAG__ReqCallback_RequestResultsEOL_TPMS_TestProcedure,@function
                        3062 	.size	_DIAG__ReqCallback_RequestResultsEOL_TPMS_TestProcedure,.-_DIAG__ReqCallback_RequestResultsEOL_TPMS_TestProcedure
                        3063 	.type	_DIAG__ReqCallback_RequestResultsEOL_TPMS_TestProcedure..C.3A.5C_ECU2.5CECU_Rivian_A1.5CTarget.5Crepo_projects.5CpRealEcu.5CcL_LATEST.5Cmake.5Coutput.5Cobjects.5CSwcApplTpms_Diag.,@function
                        3064 	.size	_DIAG__ReqCallback_RequestResultsEOL_TPMS_TestProcedure..C.3A.5C_ECU2.5CECU_Rivian_A1.5CTarget.5Crepo_projects.5CpRealEcu.5CcL_LATEST.5Cmake.5Coutput.5Cobjects.5CSwcApplTpms_Diag.,.-_DIAG__ReqCallback_RequestResultsEOL_TPMS_TestProcedure..C.3A.5C_ECU2.5CECU_Rivian_A1.5CTarget.5Crepo_projects.5CpRealEcu.5CcL_LATEST.5Cmake.5Coutput.5Cobjects.5CSwcApplTpms_Diag.
                        3065 	.align	2
                        3066 --_U8_RetVal	r26	local
                        3067 
                        3068 --_PS_MsgContext	r27	param
                        3069 
                        3070 	.data
                        3071 	.text
                        3072 	.align	2
                        3073 	.align	2
                        3074 ..gh.f.f.1.e.44:
                        3075 	.type	..gh.f.f.1.e.44,@object
                        3076 	.size	..gh.f.f.1.e.44,0
                        3077 	.global	_HufIf_DiagReqCallback
                        3078 _HufIf_DiagReqCallback:
00000cc0 8007e110       3079 	prepare	{r27,r28,r29,r31},0
00000cc4 06e0           3080 	mov	r6,r28
00000cc6 bc00           3081 	sxb	r28

                                                                      Page 56
                                                              C:\Users\nhuliyap\AppData\Local\Temp\gh_00008941.s
00000cc8 07d8           3082 	mov	r7,r27
                        3083 --	    .bf
                        3084 .LDW89:
00000cca 0092           3085 	mov	0,r18
                        3086 .L5542:
00000ccc 12f0           3087 	mov	r18,ep
00000cce c3f2           3088 	shl	3,ep
00000cd0 310600000000*  3089 	mov	_DIAG__AS_ReqHandlerArray,r17
00000cd6 d1f1           3090 	add	r17,ep
00000cd8 0083           3091 	sld.b	0[ep],r16
00000cda f0e1           3092 	cmp	r16,r28
00000cdc 9a0d*          3093 	bne	.L5543
                        3094 --line1308
                        3095 ..lin.C.3A.5C_ECU2.5CECU_Rivian_A1.5CTarget.5Crepo_projects.5CpRealEcu.5CcL_LATEST.5Cmake.5Coutput.5Cobjects.5CSwcApplTpms_Diag.180::
                        3096 .LDWlin180:
00000cde 02ed           3097 	sld.w	4[ep],r29
00000ce0 e0e9           3098 	cmp	zero,r29
00000ce2 a20d*          3099 	be	.L5551
                        3100 --line1310
                        3101 ..lin.C.3A.5C_ECU2.5CECU_Rivian_A1.5CTarget.5Crepo_projects.5CpRealEcu.5CcL_LATEST.5Cmake.5Coutput.5Cobjects.5CSwcApplTpms_Diag.181::
                        3102 .LDWlin181:
00000ce4 0730           3103 	mov	r7,r6
00000ce6 fdc760f9       3104 	jarl	[r29],lp
00000cea 0ae8           3105 	mov	r10,r29
00000cec f505*          3106 	br	.L5552
                        3107 .L5543:
                        3108 --line1304
                        3109 ..lin.C.3A.5C_ECU2.5CECU_Rivian_A1.5CTarget.5Crepo_projects.5CpRealEcu.5CcL_LATEST.5Cmake.5Coutput.5Cobjects.5CSwcApplTpms_Diag.182::
                        3110 .LDWlin182:
00000cee 4192           3111 	add	1,r18
00000cf0 1206deff       3112 	addi	-34,r18,zero
00000cf4 c9ed*          3113 	bnl	.L5542
                        3114 .L5551:
                        3115 --line1324
                        3116 ..lin.C.3A.5C_ECU2.5CECU_Rivian_A1.5CTarget.5Crepo_projects.5CpRealEcu.5CcL_LATEST.5Cmake.5Coutput.5Cobjects.5CSwcApplTpms_Diag.183::
                        3117 .LDWlin183:
00000cf6 20ee1300       3118 	movea	19,zero,r29
                        3119 .L5552:
00000cfa 1c30           3120 	mov	r28,r6
00000cfc 1b38           3121 	mov	r27,r7
00000cfe 1d40           3122 	mov	r29,r8
                        3123 	jarl	_ClientIf_Debug_DiagReqCallback,lp
                        3123 <EXPANSION BEGIN>
                        3123 jarl22 _ClientIf_Debug_DiagReqCallback , lp 
00000d00 80ff0000*      3123 <EXPANSION END>
                        3124 --line1332
                        3125 ..lin.C.3A.5C_ECU2.5CECU_Rivian_A1.5CTarget.5Crepo_projects.5CpRealEcu.5CcL_LATEST.5Cmake.5Coutput.5Cobjects.5CSwcApplTpms_Diag.184::
                        3126 .LDWlin184:
00000d04 1d50           3127 	mov	r29,r10
                        3128 --	    .ef
                        3129 .LDW99:
00000d06 4006ff10       3130 	dispose	0,{r27,r28,r29,r31},[lp]
                        3131 	.global	___ghs_eofn_HufIf_DiagReqCallback
                        3132 ___ghs_eofn_HufIf_DiagReqCallback:
                        3133 	.type	_HufIf_DiagReqCallback,@function
                        3134 	.size	_HufIf_DiagReqCallback,.-_HufIf_DiagReqCallback
                        3135 	.align	2
                        3136 --_U8_RetVal	r29	local
                        3137 --_U8_Index	r18	local
                        3138 
                        3139 --_eDiagRequest	r28	param

                                                                      Page 57
                                                              C:\Users\nhuliyap\AppData\Local\Temp\gh_00008941.s
                        3140 --_PS_MsgContext	r27	param
                        3141 
                        3142 	.section ".bss","awb"
                        3143 .L5653:
                        3144 	.type	.L5653,@object
                        3145 	.size	.L5653,0
                        3146 	.data
                        3147 	.text
                        3148 	.align	2
                        3149 --_tCDA	_tCDA	import
                        3150 --_tWAPar	_tWAPar	import
                        3151 --_AU8_ResData	_AU8_ResData	static
                        3152 --_U16_RespLenght	_U16_RespLenght	static
                        3153 --_DIAG__AS_ReqHandlerArray	_DIAG__AS_ReqHandlerArray	static
                        3154 
                        3155 	.data
                        3156 	.ghsnote version,17
                        3157 	.ghsnote tools,3
                        3158 	.ghsnote options,144
                        3159 	.text
                        3160 	.align	2
                        3161 ..eof.C.3A.5C_ECU2.5CECU_Rivian_A1.5CTarget.5Crepo_projects.5CpRealEcu.5CcL_LATEST.5Cmake.5Coutput.5Cobjects.5CSwcApplTpms_Diag...43.3A.5C_ECU2.5CECU_Rivian_A1.5CTarget.5Crepo_projects.5CpRealEcu.5CcL_LATEST.5Cmake..64F82E05..0::
                        3162 	.section	.debug_info
                        3163 .Ldw_begin:
00000000 4b320000       3164 	.word	.Ldw_end-.Ldw_begin-4
00000004 0200           3165 	.byte	2,0
00000006 00000000*      3166 	.word	.Ldw_abbr_begin
0000000a 04             3167 	.byte	4
                        3168 	.section	.debug_abbrev
                        3169 .Ldw_abbr_begin:
                        3170 	.section	.debug_info
0000000b 01             3171 	.byte	1
0000000c 00000000*      3172 	.word	..bof.C.3A.5C_ECU2.5CECU_Rivian_A1.5CTarget.5Crepo_projects.5CpRealEcu.5CcL_LATEST.5Cmake.5Coutput.5Cobjects.5CSwcApplTpms_Diag...43.3A.5C_ECU2.5CECU_Rivian_A1.5CTarget.5Crepo_projects.5CpRealEcu.5CcL_LATEST.5Cmake..64F82E05..0
00000010 00000000*      3173 	.word	..eof.C.3A.5C_ECU2.5CECU_Rivian_A1.5CTarget.5Crepo_projects.5CpRealEcu.5CcL_LATEST.5Cmake.5Coutput.5Cobjects.5CSwcApplTpms_Diag...43.3A.5C_ECU2.5CECU_Rivian_A1.5CTarget.5Crepo_projects.5CpRealEcu.5CcL_LATEST.5Cmake..64F82E05..0
00000014 2e2e2f736f75   3174 	.strz	"../source/SwcApplTpms/SwcApplTpms_Diag.c"
0000001a 7263652f5377 
00000020 634170706c54 
00000026 706d732f5377 
0000002c 634170706c54 
00000032 706d735f4469 
00000038 61672e6300 
0000003d 433a5c5f4543   3175 	.strz	"C:\\_ECU2\\ECU_Rivian_A1\\Target\\repo_projects\\pRealEcu\\cL_LATEST\\make"
00000043 55325c454355 
00000049 5f5269766961 
0000004f 6e5f41315c54 
00000055 61726765745c 
0000005b 7265706f5f70 
00000061 726f6a656374 
00000067 735c70526561 
0000006d 6c4563755c63 
00000073 4c5f4c415445 
00000079 53545c6d616b 
0000007f 6500 
00000081 474853204320   3176 	.strz	"GHS C 2015.1.7 [dual]"
00000087 323031352e31 
0000008d 2e37205b6475 
00000093 616c5d00 
00000097 0100           3177 	.byte	1,0
00000099 00000000*      3178 	.word	.Ldw_line_begin
0000009d 00000000*      3179 	.word	.Ldw_macinfo_begin
000000a1 00             3180 	.byte	0

                                                                      Page 58
                                                              C:\Users\nhuliyap\AppData\Local\Temp\gh_00008941.s
                        3181 
                        3182 	.section	.debug_abbrev
00000000 01             3183 	.byte	1
00000001 11             3184 	.byte	17
00000002 01             3185 	.byte	1
00000003 1101           3186 	.byte	17,1
00000005 1201           3187 	.byte	18,1
00000007 0308           3188 	.byte	3,8
00000009 1b08           3189 	.byte	27,8
0000000b 2508           3190 	.byte	37,8
0000000d 1305           3191 	.byte	19,5
0000000f 1006           3192 	.byte	16,6
00000011 4306           3193 	.byte	67,6
00000013 420b           3194 	.byte	66,11
00000015 0000           3195 	.byte	0,0
                        3196 
                        3197 	.section	.debug_line
                        3198 .Ldw_line_begin:
00000000 3d120000       3199 	.word	.Ldw_line_end-.Ldw_line_begin-4
00000004 0200           3200 	.byte	2,0
00000006 00000000*      3201 	.word	.Ldw_lpro_end-.Ldw_lpro_begin
                        3202 .Ldw_lpro_begin:
0000000a 01             3203 	.byte	1
0000000b 00             3204 	.byte	0
0000000c 00             3205 	.byte	0
0000000d 04             3206 	.byte	4
0000000e 0a             3207 	.byte	10
0000000f 000101         3208 	.byte	0,1,1
00000012 010100         3209 	.byte	1,1,0
00000015 000001         3210 	.byte	0,0,1
00000018 00             3211 	.byte	0
00000019 2e2e2f736f75   3212 	.strz	"../source/SwcApplTpms/SwcApplTpms_Diag.c"
0000001f 7263652f5377 
00000025 634170706c54 
0000002b 706d732f5377 
00000031 634170706c54 
00000037 706d735f4469 
0000003d 61672e6300 
00000042 000000         3213 	.byte	0,0,0
00000045 2e2e2f736f75   3214 	.strz	"../source/SwcApplTpms/iTpms_Interface.hpp"
0000004b 7263652f5377 
00000051 634170706c54 
00000057 706d732f6954 
0000005d 706d735f496e 
00000063 746572666163 
00000069 652e68707000 
0000006f 000000         3215 	.byte	0,0,0
00000072 2e2e2f736f75   3216 	.strz	"../source/SwcApplTpms/Tpms_Rte_Data_Type.hpp"
00000078 7263652f5377 
0000007e 634170706c54 
00000084 706d732f5470 
0000008a 6d735f527465 
00000090 5f446174615f 
00000096 547970652e68 
0000009c 707000 
0000009f 000000         3217 	.byte	0,0,0
000000a2 2e2e2f736f75   3218 	.strz	"../source/McalMcu/Types.hpp"
000000a8 7263652f4d63 
000000ae 616c4d63752f 
000000b4 54797065732e 
000000ba 68707000 

                                                                      Page 59
                                                              C:\Users\nhuliyap\AppData\Local\Temp\gh_00008941.s
000000be 000000         3219 	.byte	0,0,0
000000c1 2e2e2f736f75   3220 	.strz	"../source/common/Std_Types.hpp"
000000c7 7263652f636f 
000000cd 6d6d6f6e2f53 
000000d3 74645f547970 
000000d9 65732e687070 
000000df 00 
000000e0 000000         3221 	.byte	0,0,0
000000e3 2e2e2f736f75   3222 	.strz	"../source/common/Platform_Types.hpp"
000000e9 7263652f636f 
000000ef 6d6d6f6e2f50 
000000f5 6c6174666f72 
000000fb 6d5f54797065 
00000101 732e68707000 
00000107 000000         3223 	.byte	0,0,0
0000010a 2e2e2f736f75   3224 	.strz	"../source/common/Compiler.hpp"
00000110 7263652f636f 
00000116 6d6d6f6e2f43 
0000011c 6f6d70696c65 
00000122 722e68707000 
00000128 000000         3225 	.byte	0,0,0
0000012b 2e2e2f736f75   3226 	.strz	"../source/ProjectCompiler/Compiler_Cfg.hpp"
00000131 7263652f5072 
00000137 6f6a65637443 
0000013d 6f6d70696c65 
00000143 722f436f6d70 
00000149 696c65725f43 
0000014f 66672e687070 
00000155 00 
00000156 000000         3227 	.byte	0,0,0
00000159 2e2e2f736f75   3228 	.strz	"../source/ProjectCompiler/CompilerCfg_SwcServiceOs.hpp"
0000015f 7263652f5072 
00000165 6f6a65637443 
0000016b 6f6d70696c65 
00000171 722f436f6d70 
00000177 696c65724366 
0000017d 675f53776353 
00000183 657276696365 
00000189 4f732e687070 
0000018f 00 
00000190 000000         3229 	.byte	0,0,0
00000193 2e2e2f736f75   3230 	.strz	"../source/SwcApplTpms/SwcApplTpms_Rte.hpp"
00000199 7263652f5377 
0000019f 634170706c54 
000001a5 706d732f5377 
000001ab 634170706c54 
000001b1 706d735f5274 
000001b7 652e68707000 
000001bd 000000         3231 	.byte	0,0,0
000001c0 2e2e2f736f75   3232 	.strz	"../source/SwcApplTpms/SwcApplTpms_Rte_Type.hpp"
000001c6 7263652f5377 
000001cc 634170706c54 
000001d2 706d732f5377 
000001d8 634170706c54 
000001de 706d735f5274 
000001e4 655f54797065 
000001ea 2e68707000 
000001ef 000000         3233 	.byte	0,0,0
000001f2 2e2e2f736f75   3234 	.strz	"../source/SwcApplTpms/global.hpp"
000001f8 7263652f5377 
000001fe 634170706c54 

                                                                      Page 60
                                                              C:\Users\nhuliyap\AppData\Local\Temp\gh_00008941.s
00000204 706d732f676c 
0000020a 6f62616c2e68 
00000210 707000 
00000213 000000         3235 	.byte	0,0,0
00000216 2e2e2f736f75   3236 	.strz	"../source/SwcApplTpms/state_fzzX.hpp"
0000021c 7263652f5377 
00000222 634170706c54 
00000228 706d732f7374 
0000022e 6174655f667a 
00000234 7a582e687070 
0000023a 00 
0000023b 000000         3237 	.byte	0,0,0
0000023e 2e2e2f736f75   3238 	.strz	"../source/SwcApplTpms/Intface/tss_stdx.hpp"
00000244 7263652f5377 
0000024a 634170706c54 
00000250 706d732f496e 
00000256 74666163652f 
0000025c 7473735f7374 
00000262 64782e687070 
00000268 00 
00000269 000000         3239 	.byte	0,0,0
0000026c 2e2e2f736f75   3240 	.strz	"../source/ProjectCfg/CfgSwcApplTpms.hpp"
00000272 7263652f5072 
00000278 6f6a65637443 
0000027e 66672f436667 
00000284 537763417070 
0000028a 6c54706d732e 
00000290 68707000 
00000294 000000         3241 	.byte	0,0,0
00000297 2e2e2f736f75   3242 	.strz	"../source/SwcApplTpms/state_bzx.hpp"
0000029d 7263652f5377 
000002a3 634170706c54 
000002a9 706d732f7374 
000002af 6174655f627a 
000002b5 782e68707000 
000002bb 000000         3243 	.byte	0,0,0
000002be 2e2e2f736f75   3244 	.strz	"../source/SwcApplTpms/procdatx.hpp"
000002c4 7263652f5377 
000002ca 634170706c54 
000002d0 706d732f7072 
000002d6 6f6364617478 
000002dc 2e68707000 
000002e1 000000         3245 	.byte	0,0,0
000002e4 2e2e2f736f75   3246 	.strz	"../source/SwcApplTpms/cd_decoder_x.hpp"
000002ea 7263652f5377 
000002f0 634170706c54 
000002f6 706d732f6364 
000002fc 5f6465636f64 
00000302 65725f782e68 
00000308 707000 
0000030b 000000         3247 	.byte	0,0,0
0000030e 2e2e2f736f75   3248 	.strz	"../source/SwcApplTpms/WallocX.hpp"
00000314 7263652f5377 
0000031a 634170706c54 
00000320 706d732f5761 
00000326 6c6c6f63582e 
0000032c 68707000 
00000330 000000         3249 	.byte	0,0,0
00000333 2e2e2f736f75   3250 	.strz	"../source/SwcApplTpms/WnTypePar.hpp"
00000339 7263652f5377 
0000033f 634170706c54 

                                                                      Page 61
                                                              C:\Users\nhuliyap\AppData\Local\Temp\gh_00008941.s
00000345 706d732f576e 
0000034b 547970655061 
00000351 722e68707000 
00000357 000000         3251 	.byte	0,0,0
0000035a 2e2e2f736f75   3252 	.strz	"../source/SwcApplTpms/USWarn.hpp"
00000360 7263652f5377 
00000366 634170706c54 
0000036c 706d732f5553 
00000372 5761726e2e68 
00000378 707000 
0000037b 000000         3253 	.byte	0,0,0
0000037e 2e2e2f736f75   3254 	.strz	"../source/SwcApplTpms/USWarnX.hpp"
00000384 7263652f5377 
0000038a 634170706c54 
00000390 706d732f5553 
00000396 5761726e582e 
0000039c 68707000 
000003a0 000000         3255 	.byte	0,0,0
000003a3 2e2e2f736f75   3256 	.strz	"../source/SwcApplTpms/USCS.hpp"
000003a9 7263652f5377 
000003af 634170706c54 
000003b5 706d732f5553 
000003bb 43532e687070 
000003c1 00 
000003c2 000000         3257 	.byte	0,0,0
000003c5 2e2e2f736f75   3258 	.strz	"../source/ProjectCfg/SwcApplTpms_NvM_If.hpp"
000003cb 7263652f5072 
000003d1 6f6a65637443 
000003d7 66672f537763 
000003dd 4170706c5470 
000003e3 6d735f4e764d 
000003e9 5f49662e6870 
000003ef 7000 
000003f1 000000         3259 	.byte	0,0,0
000003f4 2e2e2f736f75   3260 	.strz	"../source/SwcApplTpms/eeiface.hpp"
000003fa 7263652f5377 
00000400 634170706c54 
00000406 706d732f6565 
0000040c 69666163652e 
00000412 68707000 
00000416 000000         3261 	.byte	0,0,0
00000419 2e2e2f736f75   3262 	.strz	"../source/SwcApplTpms/calibrX.hpp"
0000041f 7263652f5377 
00000425 634170706c54 
0000042b 706d732f6361 
00000431 6c696272582e 
00000437 68707000 
0000043b 000000         3263 	.byte	0,0,0
0000043e 2e2e2f736f75   3264 	.strz	"../source/SwcApplTpms/Walloc_IF.hpp"
00000444 7263652f5377 
0000044a 634170706c54 
00000450 706d732f5761 
00000456 6c6c6f635f49 
0000045c 462e68707000 
00000462 000000         3265 	.byte	0,0,0
00000465 2e2e2f736f75   3266 	.strz	"../source/SwcApplTpms/walloc.hpp"
0000046b 7263652f5377 
00000471 634170706c54 
00000477 706d732f7761 
0000047d 6c6c6f632e68 
00000483 707000 

                                                                      Page 62
                                                              C:\Users\nhuliyap\AppData\Local\Temp\gh_00008941.s
00000486 000000         3267 	.byte	0,0,0
00000489 2e2e2f736f75   3268 	.strz	"../source/SwcApplTpms/SwcApplTpms_LearnEOL.hpp"
0000048f 7263652f5377 
00000495 634170706c54 
0000049b 706d732f5377 
000004a1 634170706c54 
000004a7 706d735f4c65 
000004ad 61726e454f4c 
000004b3 2e68707000 
000004b8 000000         3269 	.byte	0,0,0
000004bb 00             3270 	.byte	0
                        3271 .Ldw_lpro_end:
                        3272 	.section	.debug_macinfo
                        3273 .Ldw_macinfo_begin:
                        3274 	.section	.debug_frame
                        3275 .LDW_4ca0d40:
00000000 00000000*      3276 	.word	.LDW_unq_2-.LDW_unq_1
                        3277 .LDW_unq_1:
00000004 ffffffff       3278 	.byte	255,255,255,255
00000008 01             3279 	.byte	1
00000009 00             3280 	.byte	0
0000000a 01             3281 	.byte	1
0000000b 01             3282 	.byte	1
0000000c 1f             3283 	.byte	31
0000000d 0c             3284 	.byte	12
0000000e 03             3285 	.byte	3
0000000f 00             3286 	.byte	0
00000010 07             3287 	.byte	7
00000011 00             3288 	.byte	0
00000012 07             3289 	.byte	7
00000013 01             3290 	.byte	1
00000014 07             3291 	.byte	7
00000015 02             3292 	.byte	2
00000016 07             3293 	.byte	7
00000017 03             3294 	.byte	3
00000018 07             3295 	.byte	7
00000019 04             3296 	.byte	4
0000001a 07             3297 	.byte	7
0000001b 05             3298 	.byte	5
0000001c 07             3299 	.byte	7
0000001d 06             3300 	.byte	6
0000001e 07             3301 	.byte	7
0000001f 07             3302 	.byte	7
00000020 07             3303 	.byte	7
00000021 08             3304 	.byte	8
00000022 07             3305 	.byte	7
00000023 09             3306 	.byte	9
00000024 07             3307 	.byte	7
00000025 0a             3308 	.byte	10
00000026 07             3309 	.byte	7
00000027 0b             3310 	.byte	11
00000028 07             3311 	.byte	7
00000029 0c             3312 	.byte	12
0000002a 07             3313 	.byte	7
0000002b 0d             3314 	.byte	13
0000002c 07             3315 	.byte	7
0000002d 0e             3316 	.byte	14
0000002e 07             3317 	.byte	7
0000002f 0f             3318 	.byte	15
00000030 07             3319 	.byte	7
00000031 10             3320 	.byte	16

                                                                      Page 63
                                                              C:\Users\nhuliyap\AppData\Local\Temp\gh_00008941.s
00000032 07             3321 	.byte	7
00000033 11             3322 	.byte	17
00000034 07             3323 	.byte	7
00000035 12             3324 	.byte	18
00000036 07             3325 	.byte	7
00000037 13             3326 	.byte	19
00000038 08             3327 	.byte	8
00000039 14             3328 	.byte	20
0000003a 08             3329 	.byte	8
0000003b 15             3330 	.byte	21
0000003c 08             3331 	.byte	8
0000003d 16             3332 	.byte	22
0000003e 08             3333 	.byte	8
0000003f 17             3334 	.byte	23
00000040 08             3335 	.byte	8
00000041 18             3336 	.byte	24
00000042 08             3337 	.byte	8
00000043 19             3338 	.byte	25
00000044 08             3339 	.byte	8
00000045 1a             3340 	.byte	26
00000046 08             3341 	.byte	8
00000047 1b             3342 	.byte	27
00000048 08             3343 	.byte	8
00000049 1c             3344 	.byte	28
0000004a 08             3345 	.byte	8
0000004b 1d             3346 	.byte	29
0000004c 07             3347 	.byte	7
0000004d 1e             3348 	.byte	30
0000004e 08             3349 	.byte	8
0000004f 1f             3350 	.byte	31
00000050 07             3351 	.byte	7
00000051 20             3352 	.byte	32
00000052 07             3353 	.byte	7
00000053 21             3354 	.byte	33
00000054 07             3355 	.byte	7
00000055 22             3356 	.byte	34
00000056 07             3357 	.byte	7
00000057 23             3358 	.byte	35
00000058 07             3359 	.byte	7
00000059 24             3360 	.byte	36
0000005a 07             3361 	.byte	7
0000005b 25             3362 	.byte	37
0000005c 07             3363 	.byte	7
0000005d 26             3364 	.byte	38
0000005e 07             3365 	.byte	7
0000005f 27             3366 	.byte	39
00000060 07             3367 	.byte	7
00000061 28             3368 	.byte	40
00000062 07             3369 	.byte	7
00000063 29             3370 	.byte	41
00000064 07             3371 	.byte	7
00000065 2a             3372 	.byte	42
00000066 07             3373 	.byte	7
00000067 2b             3374 	.byte	43
00000068 07             3375 	.byte	7
00000069 2c             3376 	.byte	44
0000006a 07             3377 	.byte	7
0000006b 2d             3378 	.byte	45
0000006c 07             3379 	.byte	7
0000006d 2e             3380 	.byte	46
0000006e 07             3381 	.byte	7

                                                                      Page 64
                                                              C:\Users\nhuliyap\AppData\Local\Temp\gh_00008941.s
0000006f 2f             3382 	.byte	47
00000070 07             3383 	.byte	7
00000071 30             3384 	.byte	48
00000072 07             3385 	.byte	7
00000073 31             3386 	.byte	49
00000074 07             3387 	.byte	7
00000075 32             3388 	.byte	50
00000076 07             3389 	.byte	7
00000077 33             3390 	.byte	51
00000078 07             3391 	.byte	7
00000079 34             3392 	.byte	52
0000007a 07             3393 	.byte	7
0000007b 35             3394 	.byte	53
0000007c 07             3395 	.byte	7
0000007d 36             3396 	.byte	54
0000007e 07             3397 	.byte	7
0000007f 37             3398 	.byte	55
00000080 07             3399 	.byte	7
00000081 38             3400 	.byte	56
00000082 07             3401 	.byte	7
00000083 39             3402 	.byte	57
00000084 07             3403 	.byte	7
00000085 3a             3404 	.byte	58
00000086 07             3405 	.byte	7
00000087 3b             3406 	.byte	59
00000088 07             3407 	.byte	7
00000089 3c             3408 	.byte	60
0000008a 07             3409 	.byte	7
0000008b 3d             3410 	.byte	61
0000008c 07             3411 	.byte	7
0000008d 3e             3412 	.byte	62
0000008e 07             3413 	.byte	7
0000008f 3f             3414 	.byte	63
                        3415 .LDW_unq_2:
                        3416 	.section	.debug_info
                        3417 .LDW_16b7168:
000000a2 25             3418 	.byte	37
000000a3 756e7369676e   3419 	.strz	"unsigned char"
000000a9 656420636861 
000000af 7200 
000000b1 08             3420 	.byte	8
000000b2 01             3421 	.byte	1
                        3422 
                        3423 	.section	.debug_abbrev
00000017 25             3424 	.byte	37
00000018 24             3425 	.byte	36
00000019 00             3426 	.byte	0
0000001a 0308           3427 	.byte	3,8
0000001c 3e0b           3428 	.byte	62,11
0000001e 0b0b           3429 	.byte	11,11
00000020 0000           3430 	.byte	0,0
                        3431 
                        3432 	.section	.debug_info
                        3433 .LDW_16b6d78:
000000b3 2f             3434 	.byte	47
000000b4 00000000*      3435 	.word	.LDW_16f9f60
                        3436 
                        3437 	.section	.debug_abbrev
00000022 2f             3438 	.byte	47
00000023 0f             3439 	.byte	15
00000024 00             3440 	.byte	0

                                                                      Page 65
                                                              C:\Users\nhuliyap\AppData\Local\Temp\gh_00008941.s
00000025 4910           3441 	.byte	73,16
00000027 0000           3442 	.byte	0,0
                        3443 
                        3444 	.section	.debug_info
                        3445 .LDW_16b7328:
000000b8 44             3446 	.byte	68
000000b9 00000000*      3447 	.word	.LDW_16f9eb0
000000bd 01             3448 	.byte	1
                        3449 
                        3450 	.section	.debug_abbrev
00000029 44             3451 	.byte	68
0000002a 15             3452 	.byte	21
0000002b 01             3453 	.byte	1
0000002c 4910           3454 	.byte	73,16
0000002e 270c           3455 	.byte	39,12
00000030 0000           3456 	.byte	0,0
                        3457 
                        3458 	.section	.debug_info
                        3459 .LDW_16fe840:
000000be 12             3460 	.byte	18
000000bf 00000000*      3461 	.word	.LDW_16b6d78
000000c3 00             3462 	.byte	0
                        3463 
                        3464 	.section	.debug_abbrev
00000032 12             3465 	.byte	18
00000033 05             3466 	.byte	5
00000034 00             3467 	.byte	0
00000035 4910           3468 	.byte	73,16
00000037 4b0c           3469 	.byte	75,12
00000039 0000           3470 	.byte	0,0
                        3471 
                        3472 	.section	.debug_info
000000c4 00             3473 	.byte	0
                        3474 
                        3475 .LDW_16b6d40:
000000c5 44             3476 	.byte	68
000000c6 00000000*      3477 	.word	.LDW_16f9eb0
000000ca 01             3478 	.byte	1
                        3479 
                        3480 .LDW_16fe510:
000000cb 12             3481 	.byte	18
000000cc 00000000*      3482 	.word	.LDW_16b6d78
000000d0 00             3483 	.byte	0
                        3484 
000000d1 00             3485 	.byte	0
                        3486 
                        3487 .LDW_16b73d0:
000000d2 44             3488 	.byte	68
000000d3 00000000*      3489 	.word	.LDW_16f9eb0
000000d7 01             3490 	.byte	1
                        3491 
                        3492 .LDW_16fe870:
000000d8 12             3493 	.byte	18
000000d9 00000000*      3494 	.word	.LDW_16b6d78
000000dd 00             3495 	.byte	0
                        3496 
000000de 00             3497 	.byte	0
                        3498 
                        3499 .LDW_16b6de8:
000000df 44             3500 	.byte	68
000000e0 00000000*      3501 	.word	.LDW_16f9eb0

                                                                      Page 66
                                                              C:\Users\nhuliyap\AppData\Local\Temp\gh_00008941.s
000000e4 01             3502 	.byte	1
                        3503 
                        3504 .LDW_16fe600:
000000e5 12             3505 	.byte	18
000000e6 00000000*      3506 	.word	.LDW_16b6d78
000000ea 00             3507 	.byte	0
                        3508 
000000eb 00             3509 	.byte	0
                        3510 
                        3511 .LDW_16b7248:
000000ec 44             3512 	.byte	68
000000ed 00000000*      3513 	.word	.LDW_16f9eb0
000000f1 01             3514 	.byte	1
                        3515 
                        3516 .LDW_16fe7e0:
000000f2 12             3517 	.byte	18
000000f3 00000000*      3518 	.word	.LDW_16b6d78
000000f7 00             3519 	.byte	0
                        3520 
000000f8 00             3521 	.byte	0
                        3522 
                        3523 .LDW_16b7408:
000000f9 44             3524 	.byte	68
000000fa 00000000*      3525 	.word	.LDW_16f9eb0
000000fe 01             3526 	.byte	1
                        3527 
                        3528 .LDW_16fe4e0:
000000ff 12             3529 	.byte	18
00000100 00000000*      3530 	.word	.LDW_16b6d78
00000104 00             3531 	.byte	0
                        3532 
00000105 00             3533 	.byte	0
                        3534 
                        3535 .LDW_16b6e90:
00000106 44             3536 	.byte	68
00000107 00000000*      3537 	.word	.LDW_16f9eb0
0000010b 01             3538 	.byte	1
                        3539 
                        3540 .LDW_16fe8a0:
0000010c 12             3541 	.byte	18
0000010d 00000000*      3542 	.word	.LDW_16b6d78
00000111 00             3543 	.byte	0
                        3544 
00000112 00             3545 	.byte	0
                        3546 
                        3547 .LDW_16b6ec8:
00000113 44             3548 	.byte	68
00000114 00000000*      3549 	.word	.LDW_16f9eb0
00000118 01             3550 	.byte	1
                        3551 
                        3552 .LDW_16fe900:
00000119 12             3553 	.byte	18
0000011a 00000000*      3554 	.word	.LDW_16b6d78
0000011e 00             3555 	.byte	0
                        3556 
0000011f 00             3557 	.byte	0
                        3558 
                        3559 .LDW_16b7478:
00000120 44             3560 	.byte	68
00000121 00000000*      3561 	.word	.LDW_16f9eb0
00000125 01             3562 	.byte	1

                                                                      Page 67
                                                              C:\Users\nhuliyap\AppData\Local\Temp\gh_00008941.s
                        3563 
                        3564 .LDW_16fe570:
00000126 12             3565 	.byte	18
00000127 00000000*      3566 	.word	.LDW_16b6d78
0000012b 00             3567 	.byte	0
                        3568 
0000012c 00             3569 	.byte	0
                        3570 
                        3571 .LDW_16b74b0:
0000012d 44             3572 	.byte	68
0000012e 00000000*      3573 	.word	.LDW_16f9eb0
00000132 01             3574 	.byte	1
                        3575 
                        3576 .LDW_16fe6f0:
00000133 12             3577 	.byte	18
00000134 00000000*      3578 	.word	.LDW_16b6d78
00000138 00             3579 	.byte	0
                        3580 
00000139 00             3581 	.byte	0
                        3582 
                        3583 .LDW_16b7440:
0000013a 44             3584 	.byte	68
0000013b 00000000*      3585 	.word	.LDW_16f9eb0
0000013f 01             3586 	.byte	1
                        3587 
                        3588 .LDW_16fe930:
00000140 12             3589 	.byte	18
00000141 00000000*      3590 	.word	.LDW_16b6d78
00000145 00             3591 	.byte	0
                        3592 
00000146 00             3593 	.byte	0
                        3594 
                        3595 .LDW_4cedbc8:
00000147 44             3596 	.byte	68
00000148 00000000*      3597 	.word	.LDW_16f9eb0
0000014c 01             3598 	.byte	1
                        3599 
                        3600 .LDW_4cee0f8:
0000014d 12             3601 	.byte	18
0000014e 00000000*      3602 	.word	.LDW_16b6d78
00000152 00             3603 	.byte	0
                        3604 
00000153 00             3605 	.byte	0
                        3606 
                        3607 .LDW_4ced8b8:
00000154 44             3608 	.byte	68
00000155 00000000*      3609 	.word	.LDW_16f9eb0
00000159 01             3610 	.byte	1
                        3611 
                        3612 .LDW_4cee4b8:
0000015a 12             3613 	.byte	18
0000015b 00000000*      3614 	.word	.LDW_16b6d78
0000015f 00             3615 	.byte	0
                        3616 
00000160 00             3617 	.byte	0
                        3618 
                        3619 .LDW_4ced880:
00000161 44             3620 	.byte	68
00000162 00000000*      3621 	.word	.LDW_16f9eb0
00000166 01             3622 	.byte	1
                        3623 

                                                                      Page 68
                                                              C:\Users\nhuliyap\AppData\Local\Temp\gh_00008941.s
                        3624 .LDW_4cee2a8:
00000167 12             3625 	.byte	18
00000168 00000000*      3626 	.word	.LDW_16b6d78
0000016c 00             3627 	.byte	0
                        3628 
0000016d 00             3629 	.byte	0
                        3630 
                        3631 .LDW_4ced7d8:
0000016e 25             3632 	.byte	37
0000016f 756e7369676e   3633 	.strz	"unsigned long"
00000175 6564206c6f6e 
0000017b 6700 
0000017d 07             3634 	.byte	7
0000017e 04             3635 	.byte	4
                        3636 
                        3637 .LDW_4ced928:
0000017f 44             3638 	.byte	68
00000180 00000000*      3639 	.word	.LDW_16f9eb0
00000184 01             3640 	.byte	1
                        3641 
                        3642 .LDW_4cee128:
00000185 12             3643 	.byte	18
00000186 00000000*      3644 	.word	.LDW_16b6d78
0000018a 00             3645 	.byte	0
                        3646 
0000018b 00             3647 	.byte	0
                        3648 
                        3649 .LDW_4cedc00:
0000018c 2f             3650 	.byte	47
0000018d 00000000*      3651 	.word	.LDW_4cff328
                        3652 
                        3653 .LDW_4cedb90:
00000191 44             3654 	.byte	68
00000192 00000000*      3655 	.word	.LDW_16f9eb0
00000196 01             3656 	.byte	1
                        3657 
                        3658 .LDW_4cee3f8:
00000197 12             3659 	.byte	18
00000198 00000000*      3660 	.word	.LDW_16b6d78
0000019c 00             3661 	.byte	0
                        3662 
0000019d 00             3663 	.byte	0
                        3664 
                        3665 .LDW_4ced9d0:
0000019e 44             3666 	.byte	68
0000019f 00000000*      3667 	.word	.LDW_16f9eb0
000001a3 01             3668 	.byte	1
                        3669 
                        3670 .LDW_4cee518:
000001a4 12             3671 	.byte	18
000001a5 00000000*      3672 	.word	.LDW_16b6d78
000001a9 00             3673 	.byte	0
                        3674 
000001aa 00             3675 	.byte	0
                        3676 
                        3677 .LDW_4cedc38:
000001ab 25             3678 	.byte	37
000001ac 696e7400       3679 	.strz	"int"
000001b0 05             3680 	.byte	5
000001b1 04             3681 	.byte	4
                        3682 

                                                                      Page 69
                                                              C:\Users\nhuliyap\AppData\Local\Temp\gh_00008941.s
                        3683 .LDW_4c5f200:
000001b2 3a             3684 	.byte	58
000001b3 00             3685 	.byte	0
000001b4 02             3686 	.byte	2
000001b5 00000000*      3687 	.word	.LDW_16f9eb0
                        3688 
                        3689 	.section	.debug_abbrev
0000003b 3a             3690 	.byte	58
0000003c 01             3691 	.byte	1
0000003d 01             3692 	.byte	1
0000003e 090b           3693 	.byte	9,11
00000040 0b0f           3694 	.byte	11,15
00000042 4910           3695 	.byte	73,16
00000044 0000           3696 	.byte	0,0
                        3697 
                        3698 	.section	.debug_info
000001b9 32             3699 	.byte	50
000001ba 00000000*      3700 	.word	.LDW_4cedc38
000001be 04             3701 	.byte	4
000001bf 00             3702 	.byte	0
000001c0 01             3703 	.byte	1
                        3704 
                        3705 	.section	.debug_abbrev
00000046 32             3706 	.byte	50
00000047 21             3707 	.byte	33
00000048 00             3708 	.byte	0
00000049 4910           3709 	.byte	73,16
0000004b 0b0f           3710 	.byte	11,15
0000004d 220d           3711 	.byte	34,13
0000004f 2f0d           3712 	.byte	47,13
00000051 0000           3713 	.byte	0,0
                        3714 
                        3715 	.section	.debug_info
000001c1 00             3716 	.byte	0
                        3717 
                        3718 .LDW_4ced8f0:
000001c2 44             3719 	.byte	68
000001c3 00000000*      3720 	.word	.LDW_16f9eb0
000001c7 01             3721 	.byte	1
                        3722 
                        3723 .LDW_4cee1b8:
000001c8 12             3724 	.byte	18
000001c9 00000000*      3725 	.word	.LDW_16b6d78
000001cd 00             3726 	.byte	0
                        3727 
000001ce 00             3728 	.byte	0
                        3729 
                        3730 .LDW_4cedc70:
000001cf 44             3731 	.byte	68
000001d0 00000000*      3732 	.word	.LDW_16f9eb0
000001d4 01             3733 	.byte	1
                        3734 
                        3735 .LDW_4cee1e8:
000001d5 12             3736 	.byte	18
000001d6 00000000*      3737 	.word	.LDW_16b6d78
000001da 00             3738 	.byte	0
                        3739 
000001db 00             3740 	.byte	0
                        3741 
                        3742 .LDW_4cedae8:
000001dc 44             3743 	.byte	68

                                                                      Page 70
                                                              C:\Users\nhuliyap\AppData\Local\Temp\gh_00008941.s
000001dd 00000000*      3744 	.word	.LDW_16f9eb0
000001e1 01             3745 	.byte	1
                        3746 
                        3747 .LDW_4cee368:
000001e2 12             3748 	.byte	18
000001e3 00000000*      3749 	.word	.LDW_16b6d78
000001e7 00             3750 	.byte	0
                        3751 
000001e8 00             3752 	.byte	0
                        3753 
                        3754 .LDW_4cedca8:
000001e9 44             3755 	.byte	68
000001ea 00000000*      3756 	.word	.LDW_16f9eb0
000001ee 01             3757 	.byte	1
                        3758 
                        3759 .LDW_4cedfa8:
000001ef 12             3760 	.byte	18
000001f0 00000000*      3761 	.word	.LDW_16b6d78
000001f4 00             3762 	.byte	0
                        3763 
000001f5 00             3764 	.byte	0
                        3765 
                        3766 .LDW_4ced810:
000001f6 44             3767 	.byte	68
000001f7 00000000*      3768 	.word	.LDW_16f9eb0
000001fb 01             3769 	.byte	1
                        3770 
                        3771 .LDW_4cee008:
000001fc 12             3772 	.byte	18
000001fd 00000000*      3773 	.word	.LDW_16b6d78
00000201 00             3774 	.byte	0
                        3775 
00000202 00             3776 	.byte	0
                        3777 
                        3778 .LDW_4cedce0:
00000203 44             3779 	.byte	68
00000204 00000000*      3780 	.word	.LDW_16f9eb0
00000208 01             3781 	.byte	1
                        3782 
                        3783 .LDW_4cee3c8:
00000209 12             3784 	.byte	18
0000020a 00000000*      3785 	.word	.LDW_16b6d78
0000020e 00             3786 	.byte	0
                        3787 
0000020f 00             3788 	.byte	0
                        3789 
                        3790 .LDW_4cedd18:
00000210 44             3791 	.byte	68
00000211 00000000*      3792 	.word	.LDW_16f9eb0
00000215 01             3793 	.byte	1
                        3794 
                        3795 .LDW_4cee488:
00000216 12             3796 	.byte	18
00000217 00000000*      3797 	.word	.LDW_16b6d78
0000021b 00             3798 	.byte	0
                        3799 
0000021c 00             3800 	.byte	0
                        3801 
                        3802 .LDW_4cedd50:
0000021d 44             3803 	.byte	68
0000021e 00000000*      3804 	.word	.LDW_16f9eb0

                                                                      Page 71
                                                              C:\Users\nhuliyap\AppData\Local\Temp\gh_00008941.s
00000222 01             3805 	.byte	1
                        3806 
                        3807 .LDW_4cedfd8:
00000223 12             3808 	.byte	18
00000224 00000000*      3809 	.word	.LDW_16b6d78
00000228 00             3810 	.byte	0
                        3811 
00000229 00             3812 	.byte	0
                        3813 
                        3814 .LDW_4ced848:
0000022a 44             3815 	.byte	68
0000022b 00000000*      3816 	.word	.LDW_16f9eb0
0000022f 01             3817 	.byte	1
                        3818 
                        3819 .LDW_4cee038:
00000230 12             3820 	.byte	18
00000231 00000000*      3821 	.word	.LDW_16b6d78
00000235 00             3822 	.byte	0
                        3823 
00000236 00             3824 	.byte	0
                        3825 
                        3826 .LDW_4cedd88:
00000237 44             3827 	.byte	68
00000238 00000000*      3828 	.word	.LDW_16f9eb0
0000023c 01             3829 	.byte	1
                        3830 
                        3831 .LDW_4cee098:
0000023d 12             3832 	.byte	18
0000023e 00000000*      3833 	.word	.LDW_16b6d78
00000242 00             3834 	.byte	0
                        3835 
00000243 00             3836 	.byte	0
                        3837 
                        3838 .LDW_4ceddc0:
00000244 44             3839 	.byte	68
00000245 00000000*      3840 	.word	.LDW_16f9eb0
00000249 01             3841 	.byte	1
                        3842 
                        3843 .LDW_4cee9f8:
0000024a 12             3844 	.byte	18
0000024b 00000000*      3845 	.word	.LDW_16b6d78
0000024f 00             3846 	.byte	0
                        3847 
00000250 00             3848 	.byte	0
                        3849 
                        3850 .LDW_4cede30:
00000251 44             3851 	.byte	68
00000252 00000000*      3852 	.word	.LDW_16f9eb0
00000256 01             3853 	.byte	1
                        3854 
                        3855 .LDW_4cee7b8:
00000257 12             3856 	.byte	18
00000258 00000000*      3857 	.word	.LDW_16b6d78
0000025c 00             3858 	.byte	0
                        3859 
0000025d 00             3860 	.byte	0
                        3861 
                        3862 .LDW_4ceda08:
0000025e 44             3863 	.byte	68
0000025f 00000000*      3864 	.word	.LDW_16f9eb0
00000263 01             3865 	.byte	1

                                                                      Page 72
                                                              C:\Users\nhuliyap\AppData\Local\Temp\gh_00008941.s
                        3866 
                        3867 .LDW_4ceeb18:
00000264 12             3868 	.byte	18
00000265 00000000*      3869 	.word	.LDW_16b6d78
00000269 00             3870 	.byte	0
                        3871 
0000026a 00             3872 	.byte	0
                        3873 
                        3874 .LDW_4cede68:
0000026b 44             3875 	.byte	68
0000026c 00000000*      3876 	.word	.LDW_16f9eb0
00000270 01             3877 	.byte	1
                        3878 
                        3879 .LDW_4cee788:
00000271 12             3880 	.byte	18
00000272 00000000*      3881 	.word	.LDW_16b6d78
00000276 00             3882 	.byte	0
                        3883 
00000277 00             3884 	.byte	0
                        3885 
                        3886 .LDW_4ceddf8:
00000278 25             3887 	.byte	37
00000279 7369676e6564   3888 	.strz	"signed char"
0000027f 206368617200 
00000285 06             3889 	.byte	6
00000286 01             3890 	.byte	1
                        3891 
                        3892 .LDW_4ced7a0:
00000287 44             3893 	.byte	68
00000288 00000000*      3894 	.word	.LDW_16f9eb0
0000028c 01             3895 	.byte	1
                        3896 
                        3897 .LDW_4ceea58:
0000028d 12             3898 	.byte	18
0000028e 00000000*      3899 	.word	.LDW_16b6d78
00000292 00             3900 	.byte	0
                        3901 
00000293 00             3902 	.byte	0
                        3903 
                        3904 .LDW_4ced960:
00000294 44             3905 	.byte	68
00000295 00000000*      3906 	.word	.LDW_16f9eb0
00000299 01             3907 	.byte	1
                        3908 
                        3909 .LDW_4cee938:
0000029a 12             3910 	.byte	18
0000029b 00000000*      3911 	.word	.LDW_16b6d78
0000029f 00             3912 	.byte	0
                        3913 
000002a0 00             3914 	.byte	0
                        3915 
                        3916 .LDW_4ced998:
000002a1 44             3917 	.byte	68
000002a2 00000000*      3918 	.word	.LDW_16f9eb0
000002a6 01             3919 	.byte	1
                        3920 
                        3921 .LDW_4cee998:
000002a7 12             3922 	.byte	18
000002a8 00000000*      3923 	.word	.LDW_16b6d78
000002ac 00             3924 	.byte	0
                        3925 

                                                                      Page 73
                                                              C:\Users\nhuliyap\AppData\Local\Temp\gh_00008941.s
000002ad 00             3926 	.byte	0
                        3927 
                        3928 .LDW_4d09f48:
000002ae 29             3929 	.byte	41
000002af 00000000*      3930 	.word	.LDW_16f9eb0
                        3931 
                        3932 	.section	.debug_abbrev
00000053 29             3933 	.byte	41
00000054 26             3934 	.byte	38
00000055 00             3935 	.byte	0
00000056 4910           3936 	.byte	73,16
00000058 0000           3937 	.byte	0,0
                        3938 
                        3939 	.section	.debug_info
                        3940 .LDW_4cedab0:
000002b3 2f             3941 	.byte	47
000002b4 00000000*      3942 	.word	.LDW_16f9eb0
                        3943 
                        3944 .LDW_4ceda78:
000002b8 45             3945 	.byte	69
000002b9 01             3946 	.byte	1
                        3947 
                        3948 	.section	.debug_abbrev
0000005a 45             3949 	.byte	69
0000005b 15             3950 	.byte	21
0000005c 01             3951 	.byte	1
0000005d 270c           3952 	.byte	39,12
0000005f 0000           3953 	.byte	0,0
                        3954 
                        3955 	.section	.debug_info
                        3956 .LDW_4cee848:
000002ba 12             3957 	.byte	18
000002bb 00000000*      3958 	.word	.LDW_4d09f48
000002bf 00             3959 	.byte	0
                        3960 
                        3961 .LDW_4cee878:
000002c0 12             3962 	.byte	18
000002c1 00000000*      3963 	.word	.LDW_4cedab0
000002c5 00             3964 	.byte	0
                        3965 
000002c6 00             3966 	.byte	0
                        3967 
                        3968 .LDW_4cedb20:
000002c7 45             3969 	.byte	69
000002c8 01             3970 	.byte	1
                        3971 
                        3972 .LDW_4cee608:
000002c9 12             3973 	.byte	18
000002ca 00000000*      3974 	.word	.LDW_4d09f48
000002ce 00             3975 	.byte	0
                        3976 
                        3977 .LDW_4cee668:
000002cf 12             3978 	.byte	18
000002d0 00000000*      3979 	.word	.LDW_4cedab0
000002d4 00             3980 	.byte	0
                        3981 
000002d5 00             3982 	.byte	0
                        3983 
                        3984 .LDW_4cedb58:
000002d6 44             3985 	.byte	68
000002d7 00000000*      3986 	.word	.LDW_16f9eb0

                                                                      Page 74
                                                              C:\Users\nhuliyap\AppData\Local\Temp\gh_00008941.s
000002db 01             3987 	.byte	1
                        3988 
                        3989 .LDW_4cee968:
000002dc 12             3990 	.byte	18
000002dd 00000000*      3991 	.word	.LDW_4cedab0
000002e1 00             3992 	.byte	0
                        3993 
000002e2 00             3994 	.byte	0
                        3995 
                        3996 .LDW_4cedea0:
000002e3 44             3997 	.byte	68
000002e4 00000000*      3998 	.word	.LDW_16f9eb0
000002e8 01             3999 	.byte	1
                        4000 
                        4001 .LDW_4cee6f8:
000002e9 12             4002 	.byte	18
000002ea 00000000*      4003 	.word	.LDW_4cedab0
000002ee 00             4004 	.byte	0
                        4005 
000002ef 00             4006 	.byte	0
                        4007 
                        4008 .LDW_4c5f3d0:
000002f0 3a             4009 	.byte	58
000002f1 00             4010 	.byte	0
000002f2 02             4011 	.byte	2
000002f3 00000000*      4012 	.word	.LDW_16f9eb0
                        4013 
000002f7 32             4014 	.byte	50
000002f8 00000000*      4015 	.word	.LDW_4cedc38
000002fc 04             4016 	.byte	4
000002fd 00             4017 	.byte	0
000002fe 01             4018 	.byte	1
                        4019 
000002ff 00             4020 	.byte	0
                        4021 
                        4022 .LDW_4cedf10:
00000300 45             4023 	.byte	69
00000301 01             4024 	.byte	1
                        4025 
                        4026 .LDW_4cee8d8:
00000302 12             4027 	.byte	18
00000303 00000000*      4028 	.word	.LDW_4cedab0
00000307 00             4029 	.byte	0
                        4030 
00000308 00             4031 	.byte	0
                        4032 
                        4033 .LDW_4ceded8:
00000309 45             4034 	.byte	69
0000030a 01             4035 	.byte	1
                        4036 
                        4037 .LDW_4ceea88:
0000030b 12             4038 	.byte	18
0000030c 00000000*      4039 	.word	.LDW_4cedab0
00000310 00             4040 	.byte	0
                        4041 
00000311 00             4042 	.byte	0
                        4043 
                        4044 .LDW_4d331f0:
00000312 45             4045 	.byte	69
00000313 01             4046 	.byte	1
                        4047 

                                                                      Page 75
                                                              C:\Users\nhuliyap\AppData\Local\Temp\gh_00008941.s
                        4048 .LDW_4ceeae8:
00000314 12             4049 	.byte	18
00000315 00000000*      4050 	.word	.LDW_4cedab0
00000319 00             4051 	.byte	0
                        4052 
0000031a 00             4053 	.byte	0
                        4054 
                        4055 .LDW_4d330d8:
0000031b 45             4056 	.byte	69
0000031c 01             4057 	.byte	1
                        4058 
                        4059 .LDW_4ceeb78:
0000031d 12             4060 	.byte	18
0000031e 00000000*      4061 	.word	.LDW_4cedab0
00000322 00             4062 	.byte	0
                        4063 
00000323 00             4064 	.byte	0
                        4065 
                        4066 .LDW_4d33030:
00000324 45             4067 	.byte	69
00000325 01             4068 	.byte	1
                        4069 
                        4070 .LDW_4ceec38:
00000326 12             4071 	.byte	18
00000327 00000000*      4072 	.word	.LDW_4cedab0
0000032b 00             4073 	.byte	0
                        4074 
                        4075 .LDW_4ceeed8:
0000032c 12             4076 	.byte	18
0000032d 00000000*      4077 	.word	.LDW_4cedab0
00000331 00             4078 	.byte	0
                        4079 
00000332 00             4080 	.byte	0
                        4081 
                        4082 .LDW_4d334c8:
00000333 45             4083 	.byte	69
00000334 01             4084 	.byte	1
                        4085 
                        4086 .LDW_4ceebd8:
00000335 12             4087 	.byte	18
00000336 00000000*      4088 	.word	.LDW_4cedab0
0000033a 00             4089 	.byte	0
                        4090 
0000033b 00             4091 	.byte	0
                        4092 
                        4093 .LDW_4d225c0:
0000033c 29             4094 	.byte	41
0000033d 00000000*      4095 	.word	.LDW_4d22568
                        4096 
                        4097 .LDW_4d33180:
00000341 44             4098 	.byte	68
00000342 00000000*      4099 	.word	.LDW_16f9eb0
00000346 01             4100 	.byte	1
                        4101 
                        4102 .LDW_4ceec08:
00000347 12             4103 	.byte	18
00000348 00000000*      4104 	.word	.LDW_4d225c0
0000034c 00             4105 	.byte	0
                        4106 
                        4107 .LDW_4ceed58:
0000034d 12             4108 	.byte	18

                                                                      Page 76
                                                              C:\Users\nhuliyap\AppData\Local\Temp\gh_00008941.s
0000034e 00000000*      4109 	.word	.LDW_16b6d78
00000352 00             4110 	.byte	0
                        4111 
00000353 00             4112 	.byte	0
                        4113 
                        4114 .LDW_4d335e0:
00000354 25             4115 	.byte	37
00000355 756e7369676e   4116 	.strz	"unsigned short"
0000035b 65642073686f 
00000361 727400 
00000364 07             4117 	.byte	7
00000365 02             4118 	.byte	2
                        4119 
                        4120 .LDW_4d33500:
00000366 25             4121 	.byte	37
00000367 756e7369676e   4122 	.strz	"unsigned int"
0000036d 656420696e74 
00000373 00 
00000374 07             4123 	.byte	7
00000375 04             4124 	.byte	4
                        4125 
                        4126 .LDW_4d33570:
00000376 2f             4127 	.byte	47
00000377 00000000*      4128 	.word	.LDW_4d221a0
                        4129 
                        4130 .LDW_4d406d0:
0000037b 3a             4131 	.byte	58
0000037c 00             4132 	.byte	0
0000037d 04             4133 	.byte	4
0000037e 00000000*      4134 	.word	.LDW_16b7168
                        4135 
00000382 32             4136 	.byte	50
00000383 00000000*      4137 	.word	.LDW_4cedc38
00000387 04             4138 	.byte	4
00000388 00             4139 	.byte	0
00000389 03             4140 	.byte	3
                        4141 
0000038a 00             4142 	.byte	0
                        4143 
                        4144 .LDW_4d40b98:
0000038b 3a             4145 	.byte	58
0000038c 00             4146 	.byte	0
0000038d 04             4147 	.byte	4
0000038e 00000000*      4148 	.word	.LDW_16b7168
                        4149 
00000392 32             4150 	.byte	50
00000393 00000000*      4151 	.word	.LDW_4cedc38
00000397 04             4152 	.byte	4
00000398 00             4153 	.byte	0
00000399 03             4154 	.byte	3
                        4155 
0000039a 00             4156 	.byte	0
                        4157 
                        4158 .LDW_4d40758:
0000039b 3a             4159 	.byte	58
0000039c 00             4160 	.byte	0
0000039d 04             4161 	.byte	4
0000039e 00000000*      4162 	.word	.LDW_4ceddf8
                        4163 
000003a2 32             4164 	.byte	50
000003a3 00000000*      4165 	.word	.LDW_4cedc38

                                                                      Page 77
                                                              C:\Users\nhuliyap\AppData\Local\Temp\gh_00008941.s
000003a7 04             4166 	.byte	4
000003a8 00             4167 	.byte	0
000003a9 03             4168 	.byte	3
                        4169 
000003aa 00             4170 	.byte	0
                        4171 
                        4172 .LDW_4d407e0:
000003ab 3a             4173 	.byte	58
000003ac 00             4174 	.byte	0
000003ad 08             4175 	.byte	8
000003ae 00000000*      4176 	.word	.LDW_4d335e0
                        4177 
000003b2 32             4178 	.byte	50
000003b3 00000000*      4179 	.word	.LDW_4cedc38
000003b7 04             4180 	.byte	4
000003b8 00             4181 	.byte	0
000003b9 03             4182 	.byte	3
                        4183 
000003ba 00             4184 	.byte	0
                        4185 
                        4186 .LDW_4d40c20:
000003bb 3a             4187 	.byte	58
000003bc 00             4188 	.byte	0
000003bd 04             4189 	.byte	4
000003be 00000000*      4190 	.word	.LDW_16b7168
                        4191 
000003c2 32             4192 	.byte	50
000003c3 00000000*      4193 	.word	.LDW_4cedc38
000003c7 04             4194 	.byte	4
000003c8 00             4195 	.byte	0
000003c9 03             4196 	.byte	3
                        4197 
000003ca 00             4198 	.byte	0
                        4199 
                        4200 .LDW_4d40ca8:
000003cb 3a             4201 	.byte	58
000003cc 00             4202 	.byte	0
000003cd 1a             4203 	.byte	26
000003ce 00000000*      4204 	.word	.LDW_16b7168
                        4205 
000003d2 32             4206 	.byte	50
000003d3 00000000*      4207 	.word	.LDW_4cedc38
000003d7 04             4208 	.byte	4
000003d8 00             4209 	.byte	0
000003d9 19             4210 	.byte	25
                        4211 
000003da 00             4212 	.byte	0
                        4213 
                        4214 .LDW_4d330a0:
000003db 44             4215 	.byte	68
000003dc 00000000*      4216 	.word	.LDW_16f9eb0
000003e0 01             4217 	.byte	1
                        4218 
                        4219 .LDW_4ceed28:
000003e1 12             4220 	.byte	18
000003e2 00000000*      4221 	.word	.LDW_16b6d78
000003e6 00             4222 	.byte	0
                        4223 
000003e7 00             4224 	.byte	0
                        4225 
                        4226 .LDW_4d335a8:

                                                                      Page 78
                                                              C:\Users\nhuliyap\AppData\Local\Temp\gh_00008941.s
000003e8 2f             4227 	.byte	47
000003e9 00000000*      4228 	.word	.LDW_4d330a0
                        4229 
                        4230 .LDW_4d42ad8:
000003ed 29             4231 	.byte	41
000003ee 00000000*      4232 	.word	.LDW_16b7168
                        4233 
                        4234 .LDW_4d462f8:
000003f2 3a             4235 	.byte	58
000003f3 00             4236 	.byte	0
000003f4 10             4237 	.byte	16
000003f5 00000000*      4238 	.word	.LDW_16f9eb0
                        4239 
000003f9 32             4240 	.byte	50
000003fa 00000000*      4241 	.word	.LDW_4cedc38
000003fe 04             4242 	.byte	4
000003ff 00             4243 	.byte	0
00000400 0f             4244 	.byte	15
                        4245 
00000401 00             4246 	.byte	0
                        4247 
                        4248 .LDW_4d487e8:
00000402 29             4249 	.byte	41
00000403 00000000*      4250 	.word	.LDW_4d427c0
                        4251 
                        4252 .LDW_4d45da8:
00000407 3a             4253 	.byte	58
00000408 00             4254 	.byte	0
00000409 9002           4255 	.byte	144,2
0000040b 00000000*      4256 	.word	.LDW_4d487e8
                        4257 
0000040f 32             4258 	.byte	50
00000410 00000000*      4259 	.word	.LDW_4cedc38
00000414 04             4260 	.byte	4
00000415 00             4261 	.byte	0
00000416 21             4262 	.byte	33
                        4263 
00000417 00             4264 	.byte	0
                        4265 
                        4266 .LDW_4d4a0b0:
00000418 45             4267 	.byte	69
00000419 01             4268 	.byte	1
                        4269 
                        4270 .LDW_4d48de8:
0000041a 12             4271 	.byte	18
0000041b 00000000*      4272 	.word	.LDW_4d225c0
0000041f 00             4273 	.byte	0
                        4274 
                        4275 .LDW_4d48a88:
00000420 12             4276 	.byte	18
00000421 00000000*      4277 	.word	.LDW_16b6d78
00000425 00             4278 	.byte	0
                        4279 
                        4280 .LDW_4d48ba8:
00000426 12             4281 	.byte	18
00000427 00000000*      4282 	.word	.LDW_16f9eb0
0000042b 00             4283 	.byte	0
                        4284 
0000042c 00             4285 	.byte	0
                        4286 
                        4287 .LDW_4d4cdb8:

                                                                      Page 79
                                                              C:\Users\nhuliyap\AppData\Local\Temp\gh_00008941.s
0000042d 45             4288 	.byte	69
0000042e 01             4289 	.byte	1
                        4290 
0000042f 00             4291 	.byte	0
                        4292 
                        4293 .LDW_4d4cd10:
00000430 44             4294 	.byte	68
00000431 00000000*      4295 	.word	.LDW_4d222a8
00000435 01             4296 	.byte	1
                        4297 
                        4298 .LDW_4d49478:
00000436 12             4299 	.byte	18
00000437 00000000*      4300 	.word	.LDW_4d221a0
0000043b 00             4301 	.byte	0
                        4302 
0000043c 00             4303 	.byte	0
                        4304 
                        4305 .LDW_4d4cbc0:
0000043d 44             4306 	.byte	68
0000043e 00000000*      4307 	.word	.LDW_16f9eb0
00000442 01             4308 	.byte	1
                        4309 
                        4310 .LDW_4d495c8:
00000443 12             4311 	.byte	18
00000444 00000000*      4312 	.word	.LDW_16f9eb0
00000448 00             4313 	.byte	0
                        4314 
00000449 00             4315 	.byte	0
                        4316 
                        4317 .LDW_4d4d020:
0000044a 44             4318 	.byte	68
0000044b 00000000*      4319 	.word	.LDW_4d09550
0000044f 01             4320 	.byte	1
                        4321 
                        4322 .LDW_4d49298:
00000450 12             4323 	.byte	18
00000451 00000000*      4324 	.word	.LDW_16f9eb0
00000455 00             4325 	.byte	0
                        4326 
00000456 00             4327 	.byte	0
                        4328 
                        4329 .LDW_4d4cb18:
00000457 44             4330 	.byte	68
00000458 00000000*      4331 	.word	.LDW_16f9eb0
0000045c 01             4332 	.byte	1
                        4333 
                        4334 .LDW_4d49448:
0000045d 12             4335 	.byte	18
0000045e 00000000*      4336 	.word	.LDW_16f9eb0
00000462 00             4337 	.byte	0
                        4338 
00000463 00             4339 	.byte	0
                        4340 
                        4341 .LDW_4d4cfb0:
00000464 44             4342 	.byte	68
00000465 00000000*      4343 	.word	.LDW_16f9eb0
00000469 01             4344 	.byte	1
                        4345 
                        4346 .LDW_4d4db80:
0000046a 12             4347 	.byte	18
0000046b 00000000*      4348 	.word	.LDW_16f9eb0

                                                                      Page 80
                                                              C:\Users\nhuliyap\AppData\Local\Temp\gh_00008941.s
0000046f 00             4349 	.byte	0
                        4350 
00000470 00             4351 	.byte	0
                        4352 
                        4353 .LDW_4d4cae0:
00000471 44             4354 	.byte	68
00000472 00000000*      4355 	.word	.LDW_4cff328
00000476 01             4356 	.byte	1
                        4357 
00000477 00             4358 	.byte	0
                        4359 
                        4360 .LDW_4d50480:
00000478 44             4361 	.byte	68
00000479 00000000*      4362 	.word	.LDW_16f9eb0
0000047d 01             4363 	.byte	1
                        4364 
0000047e 00             4365 	.byte	0
                        4366 
                        4367 .LDW_4d50528:
0000047f 44             4368 	.byte	68
00000480 00000000*      4369 	.word	.LDW_4d09550
00000484 01             4370 	.byte	1
                        4371 
00000485 00             4372 	.byte	0
                        4373 
                        4374 .LDW_4d50eb8:
00000486 2f             4375 	.byte	47
00000487 00000000*      4376 	.word	.LDW_4ced7d8
                        4377 
                        4378 .LDW_4d50b38:
0000048b 44             4379 	.byte	68
0000048c 00000000*      4380 	.word	.LDW_16b7168
00000490 01             4381 	.byte	1
                        4382 
                        4383 .LDW_4d4de20:
00000491 12             4384 	.byte	18
00000492 00000000*      4385 	.word	.LDW_4d50eb8
00000496 00             4386 	.byte	0
                        4387 
00000497 00             4388 	.byte	0
                        4389 
                        4390 .LDW_4d51008:
00000498 44             4391 	.byte	68
00000499 00000000*      4392 	.word	.LDW_16b7168
0000049d 01             4393 	.byte	1
                        4394 
                        4395 .LDW_4d4da60:
0000049e 12             4396 	.byte	18
0000049f 00000000*      4397 	.word	.LDW_16b7168
000004a3 00             4398 	.byte	0
                        4399 
000004a4 00             4400 	.byte	0
                        4401 
                        4402 .LDW_4d50f98:
000004a5 44             4403 	.byte	68
000004a6 00000000*      4404 	.word	.LDW_4ced7d8
000004aa 01             4405 	.byte	1
                        4406 
                        4407 .LDW_4d4de80:
000004ab 12             4408 	.byte	18
000004ac 00000000*      4409 	.word	.LDW_16b7168

                                                                      Page 81
                                                              C:\Users\nhuliyap\AppData\Local\Temp\gh_00008941.s
000004b0 00             4410 	.byte	0
                        4411 
000004b1 00             4412 	.byte	0
                        4413 
                        4414 .LDW_4d510e8:
000004b2 44             4415 	.byte	68
000004b3 00000000*      4416 	.word	.LDW_16f9eb0
000004b7 01             4417 	.byte	1
                        4418 
                        4419 .LDW_4d4da90:
000004b8 12             4420 	.byte	18
000004b9 00000000*      4421 	.word	.LDW_4cedc00
000004bd 00             4422 	.byte	0
                        4423 
                        4424 .LDW_4d4d8e0:
000004be 12             4425 	.byte	18
000004bf 00000000*      4426 	.word	.LDW_4cedab0
000004c3 00             4427 	.byte	0
                        4428 
000004c4 00             4429 	.byte	0
                        4430 
                        4431 .LDW_4d50be0:
000004c5 44             4432 	.byte	68
000004c6 00000000*      4433 	.word	.LDW_16b7168
000004ca 01             4434 	.byte	1
                        4435 
                        4436 .LDW_4d4dac0:
000004cb 12             4437 	.byte	18
000004cc 00000000*      4438 	.word	.LDW_16b7168
000004d0 00             4439 	.byte	0
                        4440 
000004d1 00             4441 	.byte	0
                        4442 
                        4443 .LDW_4d50ba8:
000004d2 2f             4444 	.byte	47
000004d3 00000000*      4445 	.word	.LDW_16b7168
                        4446 
                        4447 .LDW_4d51820:
000004d7 44             4448 	.byte	68
000004d8 00000000*      4449 	.word	.LDW_16b7168
000004dc 01             4450 	.byte	1
                        4451 
                        4452 .LDW_4d4d670:
000004dd 12             4453 	.byte	18
000004de 00000000*      4454 	.word	.LDW_16b7168
000004e2 00             4455 	.byte	0
                        4456 
                        4457 .LDW_4d4d790:
000004e3 12             4458 	.byte	18
000004e4 00000000*      4459 	.word	.LDW_4d50ba8
000004e8 00             4460 	.byte	0
                        4461 
000004e9 00             4462 	.byte	0
                        4463 
                        4464 .LDW_4d513f8:
000004ea 44             4465 	.byte	68
000004eb 00000000*      4466 	.word	.LDW_16b7168
000004ef 01             4467 	.byte	1
                        4468 
                        4469 .LDW_4d4d850:
000004f0 12             4470 	.byte	18

                                                                      Page 82
                                                              C:\Users\nhuliyap\AppData\Local\Temp\gh_00008941.s
000004f1 00000000*      4471 	.word	.LDW_16b7168
000004f5 00             4472 	.byte	0
                        4473 
                        4474 .LDW_4d4d880:
000004f6 12             4475 	.byte	18
000004f7 00000000*      4476 	.word	.LDW_4d50ba8
000004fb 00             4477 	.byte	0
                        4478 
000004fc 00             4479 	.byte	0
                        4480 
                        4481 .LDW_4d51900:
000004fd 2f             4482 	.byte	47
000004fe 00000000*      4483 	.word	.LDW_4d42ad8
                        4484 
                        4485 .LDW_4d518c8:
00000502 44             4486 	.byte	68
00000503 00000000*      4487 	.word	.LDW_16b7168
00000507 01             4488 	.byte	1
                        4489 
                        4490 .LDW_4d53fb8:
00000508 12             4491 	.byte	18
00000509 00000000*      4492 	.word	.LDW_16b7168
0000050d 00             4493 	.byte	0
                        4494 
                        4495 .LDW_4d53fe8:
0000050e 12             4496 	.byte	18
0000050f 00000000*      4497 	.word	.LDW_16b7168
00000513 00             4498 	.byte	0
                        4499 
00000514 00             4500 	.byte	0
                        4501 
                        4502 .LDW_4d55790:
00000515 2f             4503 	.byte	47
00000516 00000000*      4504 	.word	.LDW_4cfefb8
                        4505 
                        4506 .LDW_4d55678:
0000051a 2f             4507 	.byte	47
0000051b 00000000*      4508 	.word	.LDW_4d099c8
                        4509 
                        4510 .LDW_4d554b8:
0000051f 45             4511 	.byte	69
00000520 01             4512 	.byte	1
                        4513 
                        4514 .LDW_4d54408:
00000521 12             4515 	.byte	18
00000522 00000000*      4516 	.word	.LDW_16b7168
00000526 00             4517 	.byte	0
                        4518 
                        4519 .LDW_4d545e8:
00000527 12             4520 	.byte	18
00000528 00000000*      4521 	.word	.LDW_4d50ba8
0000052c 00             4522 	.byte	0
                        4523 
0000052d 00             4524 	.byte	0
                        4525 
                        4526 .LDW_4d556b0:
0000052e 45             4527 	.byte	69
0000052f 01             4528 	.byte	1
                        4529 
                        4530 .LDW_4d54378:
00000530 12             4531 	.byte	18

                                                                      Page 83
                                                              C:\Users\nhuliyap\AppData\Local\Temp\gh_00008941.s
00000531 00000000*      4532 	.word	.LDW_16b7168
00000535 00             4533 	.byte	0
                        4534 
                        4535 .LDW_4d544c8:
00000536 12             4536 	.byte	18
00000537 00000000*      4537 	.word	.LDW_4d50ba8
0000053b 00             4538 	.byte	0
                        4539 
0000053c 00             4540 	.byte	0
                        4541 
                        4542 .LDW_4d55330:
0000053d 45             4543 	.byte	69
0000053e 01             4544 	.byte	1
                        4545 
                        4546 .LDW_4d544f8:
0000053f 12             4547 	.byte	18
00000540 00000000*      4548 	.word	.LDW_16f9eb0
00000544 00             4549 	.byte	0
                        4550 
00000545 00             4551 	.byte	0
                        4552 
                        4553 .LDW_4d557c8:
00000546 44             4554 	.byte	68
00000547 00000000*      4555 	.word	.LDW_16f9eb0
0000054b 01             4556 	.byte	1
                        4557 
0000054c 00             4558 	.byte	0
                        4559 
                        4560 .LDW_4d555d0:
0000054d 45             4561 	.byte	69
0000054e 01             4562 	.byte	1
                        4563 
                        4564 .LDW_4d54528:
0000054f 12             4565 	.byte	18
00000550 00000000*      4566 	.word	.LDW_4d09550
00000554 00             4567 	.byte	0
                        4568 
00000555 00             4569 	.byte	0
                        4570 
                        4571 .LDW_4d558a8:
00000556 44             4572 	.byte	68
00000557 00000000*      4573 	.word	.LDW_4d09550
0000055b 01             4574 	.byte	1
                        4575 
0000055c 00             4576 	.byte	0
                        4577 
                        4578 .LDW_4d55410:
0000055d 45             4579 	.byte	69
0000055e 01             4580 	.byte	1
                        4581 
                        4582 .LDW_4d54648:
0000055f 12             4583 	.byte	18
00000560 00000000*      4584 	.word	.LDW_16f9eb0
00000564 00             4585 	.byte	0
                        4586 
00000565 00             4587 	.byte	0
                        4588 
                        4589 .LDW_4d55368:
00000566 44             4590 	.byte	68
00000567 00000000*      4591 	.word	.LDW_16f9eb0
0000056b 01             4592 	.byte	1

                                                                      Page 84
                                                              C:\Users\nhuliyap\AppData\Local\Temp\gh_00008941.s
                        4593 
0000056c 00             4594 	.byte	0
                        4595 
                        4596 .LDW_4d551e0:
0000056d 45             4597 	.byte	69
0000056e 01             4598 	.byte	1
                        4599 
                        4600 .LDW_4d540d8:
0000056f 12             4601 	.byte	18
00000570 00000000*      4602 	.word	.LDW_16f9eb0
00000574 00             4603 	.byte	0
                        4604 
00000575 00             4605 	.byte	0
                        4606 
                        4607 .LDW_4d55218:
00000576 44             4608 	.byte	68
00000577 00000000*      4609 	.word	.LDW_16f9eb0
0000057b 01             4610 	.byte	1
                        4611 
0000057c 00             4612 	.byte	0
                        4613 
                        4614 .LDW_4d554f0:
0000057d 45             4615 	.byte	69
0000057e 01             4616 	.byte	1
                        4617 
                        4618 .LDW_4d54108:
0000057f 12             4619 	.byte	18
00000580 00000000*      4620 	.word	.LDW_16f9eb0
00000584 00             4621 	.byte	0
                        4622 
00000585 00             4623 	.byte	0
                        4624 
                        4625 .LDW_4d55250:
00000586 44             4626 	.byte	68
00000587 00000000*      4627 	.word	.LDW_16f9eb0
0000058b 01             4628 	.byte	1
                        4629 
0000058c 00             4630 	.byte	0
                        4631 
                        4632 .LDW_4d59f90:
0000058d 45             4633 	.byte	69
0000058e 01             4634 	.byte	1
                        4635 
                        4636 .LDW_4d54948:
0000058f 12             4637 	.byte	18
00000590 00000000*      4638 	.word	.LDW_16f9eb0
00000594 00             4639 	.byte	0
                        4640 
00000595 00             4641 	.byte	0
                        4642 
                        4643 .LDW_4d59cf0:
00000596 45             4644 	.byte	69
00000597 01             4645 	.byte	1
                        4646 
                        4647 .LDW_4d5bda0:
00000598 12             4648 	.byte	18
00000599 00000000*      4649 	.word	.LDW_4cedab0
0000059d 00             4650 	.byte	0
                        4651 
0000059e 00             4652 	.byte	0
                        4653 

                                                                      Page 85
                                                              C:\Users\nhuliyap\AppData\Local\Temp\gh_00008941.s
                        4654 .LDW_4d59c80:
0000059f 45             4655 	.byte	69
000005a0 01             4656 	.byte	1
                        4657 
                        4658 .LDW_4d5bf80:
000005a1 12             4659 	.byte	18
000005a2 00000000*      4660 	.word	.LDW_16b7168
000005a6 00             4661 	.byte	0
                        4662 
                        4663 .LDW_4d5bd40:
000005a7 12             4664 	.byte	18
000005a8 00000000*      4665 	.word	.LDW_4d51900
000005ac 00             4666 	.byte	0
                        4667 
000005ad 00             4668 	.byte	0
                        4669 
                        4670 .LDW_4d5a150:
000005ae 45             4671 	.byte	69
000005af 01             4672 	.byte	1
                        4673 
000005b0 00             4674 	.byte	0
                        4675 
                        4676 .LDW_4d59b68:
000005b1 44             4677 	.byte	68
000005b2 00000000*      4678 	.word	.LDW_16f9eb0
000005b6 01             4679 	.byte	1
                        4680 
                        4681 .LDW_4d5bd70:
000005b7 12             4682 	.byte	18
000005b8 00000000*      4683 	.word	.LDW_16f9eb0
000005bc 00             4684 	.byte	0
                        4685 
000005bd 00             4686 	.byte	0
                        4687 
                        4688 .LDW_4d59d98:
000005be 45             4689 	.byte	69
000005bf 01             4690 	.byte	1
                        4691 
000005c0 00             4692 	.byte	0
                        4693 
                        4694 .LDW_4d5a6c8:
000005c1 44             4695 	.byte	68
000005c2 00000000*      4696 	.word	.LDW_16f9eb0
000005c6 01             4697 	.byte	1
                        4698 
000005c7 00             4699 	.byte	0
                        4700 
                        4701 .LDW_4d5a700:
000005c8 45             4702 	.byte	69
000005c9 01             4703 	.byte	1
                        4704 
                        4705 .LDW_4d5c280:
000005ca 12             4706 	.byte	18
000005cb 00000000*      4707 	.word	.LDW_16f9eb0
000005cf 00             4708 	.byte	0
                        4709 
000005d0 00             4710 	.byte	0
                        4711 
                        4712 .LDW_4d222a8:
000005d1 28             4713 	.byte	40
000005d2 626f6f6c6561   4714 	.strz	"boolean"

                                                                      Page 86
                                                              C:\Users\nhuliyap\AppData\Local\Temp\gh_00008941.s
000005d8 6e00 
000005da 4e             4715 	.byte	78
000005db 49             4716 	.byte	73
000005dc 06             4717 	.byte	6
000005dd 00000000*      4718 	.word	.LDW_16b7168
                        4719 
                        4720 	.section	.debug_abbrev
00000061 28             4721 	.byte	40
00000062 16             4722 	.byte	22
00000063 00             4723 	.byte	0
00000064 0308           4724 	.byte	3,8
00000066 3b0f           4725 	.byte	59,15
00000068 390f           4726 	.byte	57,15
0000006a 3a0f           4727 	.byte	58,15
0000006c 4910           4728 	.byte	73,16
0000006e 0000           4729 	.byte	0,0
                        4730 
                        4731 	.section	.debug_info
                        4732 .LDW_4d09550:
000005e1 28             4733 	.byte	40
000005e2 73696e743800   4734 	.strz	"sint8"
000005e8 4f             4735 	.byte	79
000005e9 4b             4736 	.byte	75
000005ea 06             4737 	.byte	6
000005eb 00000000*      4738 	.word	.LDW_4ceddf8
                        4739 
                        4740 .LDW_16f9eb0:
000005ef 28             4741 	.byte	40
000005f0 75696e743800   4742 	.strz	"uint8"
000005f6 50             4743 	.byte	80
000005f7 4b             4744 	.byte	75
000005f8 06             4745 	.byte	6
000005f9 00000000*      4746 	.word	.LDW_16b7168
                        4747 
                        4748 .LDW_4d221a0:
000005fd 28             4749 	.byte	40
000005fe 75696e743136   4750 	.strz	"uint16"
00000604 00 
00000605 52             4751 	.byte	82
00000606 4a             4752 	.byte	74
00000607 06             4753 	.byte	6
00000608 00000000*      4754 	.word	.LDW_4d335e0
                        4755 
                        4756 .LDW_4cff328:
0000060c 28             4757 	.byte	40
0000060d 75696e743332   4758 	.strz	"uint32"
00000613 00 
00000614 54             4759 	.byte	84
00000615 4a             4760 	.byte	74
00000616 06             4761 	.byte	6
00000617 00000000*      4762 	.word	.LDW_4ced7d8
                        4763 
                        4764 .LDW_4c5f458:
0000061b 2e             4765 	.byte	46
0000061c 54504d534469   4766 	.strz	"TPMSDiagnosticRequest"
00000622 61676e6f7374 
00000628 696352657175 
0000062e 65737400 
00000632 34             4767 	.byte	52
00000633 0e             4768 	.byte	14
00000634 02             4769 	.byte	2

                                                                      Page 87
                                                              C:\Users\nhuliyap\AppData\Local\Temp\gh_00008941.s
00000635 01             4770 	.byte	1
00000636 01             4771 	.byte	1
                        4772 
                        4773 	.section	.debug_abbrev
00000070 2e             4774 	.byte	46
00000071 04             4775 	.byte	4
00000072 01             4776 	.byte	1
00000073 0308           4777 	.byte	3,8
00000075 3b0f           4778 	.byte	59,15
00000077 390f           4779 	.byte	57,15
00000079 3a0f           4780 	.byte	58,15
0000007b 0b0f           4781 	.byte	11,15
0000007d 320b           4782 	.byte	50,11
0000007f 0000           4783 	.byte	0,0
                        4784 
                        4785 	.section	.debug_info
                        4786 .LDW_4c5f4a8:
00000637 2d             4787 	.byte	45
00000638 455f54504d53   4788 	.strz	"E_TPMS_DIAG_READ_WS_ID1"
0000063e 5f444941475f 
00000644 524541445f57 
0000064a 535f49443100 
00000650 36             4789 	.byte	54
00000651 03             4790 	.byte	3
00000652 02             4791 	.byte	2
00000653 00             4792 	.byte	0
                        4793 
                        4794 	.section	.debug_abbrev
00000081 2d             4795 	.byte	45
00000082 28             4796 	.byte	40
00000083 00             4797 	.byte	0
00000084 0308           4798 	.byte	3,8
00000086 3b0f           4799 	.byte	59,15
00000088 390f           4800 	.byte	57,15
0000008a 3a0f           4801 	.byte	58,15
0000008c 1c0d           4802 	.byte	28,13
0000008e 0000           4803 	.byte	0,0
                        4804 
                        4805 	.section	.debug_info
                        4806 .LDW_4c5f4e8:
00000654 2d             4807 	.byte	45
00000655 455f54504d53   4808 	.strz	"E_TPMS_DIAG_READ_WS_ID2"
0000065b 5f444941475f 
00000661 524541445f57 
00000667 535f49443200 
0000066d 37             4809 	.byte	55
0000066e 07             4810 	.byte	7
0000066f 02             4811 	.byte	2
00000670 01             4812 	.byte	1
                        4813 
                        4814 .LDW_4c5f528:
00000671 2d             4815 	.byte	45
00000672 455f54504d53   4816 	.strz	"E_TPMS_DIAG_READ_WS_ID3"
00000678 5f444941475f 
0000067e 524541445f57 
00000684 535f49443300 
0000068a 38             4817 	.byte	56
0000068b 07             4818 	.byte	7
0000068c 02             4819 	.byte	2
0000068d 02             4820 	.byte	2
                        4821 

                                                                      Page 88
                                                              C:\Users\nhuliyap\AppData\Local\Temp\gh_00008941.s
                        4822 .LDW_4c5f568:
0000068e 2d             4823 	.byte	45
0000068f 455f54504d53   4824 	.strz	"E_TPMS_DIAG_READ_WS_ID4"
00000695 5f444941475f 
0000069b 524541445f57 
000006a1 535f49443400 
000006a7 39             4825 	.byte	57
000006a8 07             4826 	.byte	7
000006a9 02             4827 	.byte	2
000006aa 03             4828 	.byte	3
                        4829 
                        4830 .LDW_4c5f5a8:
000006ab 2d             4831 	.byte	45
000006ac 455f54504d53   4832 	.strz	"E_TPMS_DIAG_READ_ID_FL"
000006b2 5f444941475f 
000006b8 524541445f49 
000006be 445f464c00 
000006c3 3a             4833 	.byte	58
000006c4 07             4834 	.byte	7
000006c5 02             4835 	.byte	2
000006c6 04             4836 	.byte	4
                        4837 
                        4838 .LDW_4c5f5e8:
000006c7 2d             4839 	.byte	45
000006c8 455f54504d53   4840 	.strz	"E_TPMS_DIAG_READ_ID_FR"
000006ce 5f444941475f 
000006d4 524541445f49 
000006da 445f465200 
000006df 3b             4841 	.byte	59
000006e0 07             4842 	.byte	7
000006e1 02             4843 	.byte	2
000006e2 05             4844 	.byte	5
                        4845 
                        4846 .LDW_4c5f628:
000006e3 2d             4847 	.byte	45
000006e4 455f54504d53   4848 	.strz	"E_TPMS_DIAG_READ_ID_RR"
000006ea 5f444941475f 
000006f0 524541445f49 
000006f6 445f525200 
000006fb 3c             4849 	.byte	60
000006fc 07             4850 	.byte	7
000006fd 02             4851 	.byte	2
000006fe 06             4852 	.byte	6
                        4853 
                        4854 .LDW_4c5f668:
000006ff 2d             4855 	.byte	45
00000700 455f54504d53   4856 	.strz	"E_TPMS_DIAG_READ_ID_RL"
00000706 5f444941475f 
0000070c 524541445f49 
00000712 445f524c00 
00000717 3d             4857 	.byte	61
00000718 07             4858 	.byte	7
00000719 02             4859 	.byte	2
0000071a 07             4860 	.byte	7
                        4861 
                        4862 .LDW_4c5f6a8:
0000071b 2d             4863 	.byte	45
0000071c 455f54504d53   4864 	.strz	"E_TPMS_DIAG_READ_LAST_RECEIVED_WS"
00000722 5f444941475f 
00000728 524541445f4c 
0000072e 4153545f5245 

                                                                      Page 89
                                                              C:\Users\nhuliyap\AppData\Local\Temp\gh_00008941.s
00000734 434549564544 
0000073a 5f575300 
0000073e 3e             4865 	.byte	62
0000073f 07             4866 	.byte	7
00000740 02             4867 	.byte	2
00000741 08             4868 	.byte	8
                        4869 
                        4870 .LDW_4d3dac8:
00000742 2d             4871 	.byte	45
00000743 455f54504d53   4872 	.strz	"E_TPMS_DIAG_WRITE_WS_ID1"
00000749 5f444941475f 
0000074f 57524954455f 
00000755 57535f494431 
0000075b 00 
0000075c 3f             4873 	.byte	63
0000075d 07             4874 	.byte	7
0000075e 02             4875 	.byte	2
0000075f 09             4876 	.byte	9
                        4877 
                        4878 .LDW_4d3dc88:
00000760 2d             4879 	.byte	45
00000761 455f54504d53   4880 	.strz	"E_TPMS_DIAG_WRITE_WS_ID2"
00000767 5f444941475f 
0000076d 57524954455f 
00000773 57535f494432 
00000779 00 
0000077a 40             4881 	.byte	64
0000077b 07             4882 	.byte	7
0000077c 02             4883 	.byte	2
0000077d 0a             4884 	.byte	10
                        4885 
                        4886 .LDW_4d3da48:
0000077e 2d             4887 	.byte	45
0000077f 455f54504d53   4888 	.strz	"E_TPMS_DIAG_WRITE_WS_ID3"
00000785 5f444941475f 
0000078b 57524954455f 
00000791 57535f494433 
00000797 00 
00000798 41             4889 	.byte	65
00000799 07             4890 	.byte	7
0000079a 02             4891 	.byte	2
0000079b 0b             4892 	.byte	11
                        4893 
                        4894 .LDW_4d3d808:
0000079c 2d             4895 	.byte	45
0000079d 455f54504d53   4896 	.strz	"E_TPMS_DIAG_WRITE_WS_ID4"
000007a3 5f444941475f 
000007a9 57524954455f 
000007af 57535f494434 
000007b5 00 
000007b6 42             4897 	.byte	66
000007b7 07             4898 	.byte	7
000007b8 02             4899 	.byte	2
000007b9 0c             4900 	.byte	12
                        4901 
                        4902 .LDW_4d3df88:
000007ba 2d             4903 	.byte	45
000007bb 455f54504d53   4904 	.strz	"E_TPMS_DIAG_READ_WS_IDS"
000007c1 5f444941475f 
000007c7 524541445f57 
000007cd 535f49445300 

                                                                      Page 90
                                                              C:\Users\nhuliyap\AppData\Local\Temp\gh_00008941.s
000007d3 43             4905 	.byte	67
000007d4 07             4906 	.byte	7
000007d5 02             4907 	.byte	2
000007d6 0d             4908 	.byte	13
                        4909 
                        4910 .LDW_4d3d988:
000007d7 2d             4911 	.byte	45
000007d8 455f54504d53   4912 	.strz	"E_TPMS_DIAG_WRITE_WS_IDS"
000007de 5f444941475f 
000007e4 57524954455f 
000007ea 57535f494453 
000007f0 00 
000007f1 44             4913 	.byte	68
000007f2 07             4914 	.byte	7
000007f3 02             4915 	.byte	2
000007f4 0e             4916 	.byte	14
                        4917 
                        4918 .LDW_4d3da08:
000007f5 2d             4919 	.byte	45
000007f6 455f54504d53   4920 	.strz	"E_TPMS_DIAG_READ_SPECIFIC_PARAMETERS"
000007fc 5f444941475f 
00000802 524541445f53 
00000808 504543494649 
0000080e 435f50415241 
00000814 4d4554455253 
0000081a 00 
0000081b 45             4921 	.byte	69
0000081c 07             4922 	.byte	7
0000081d 02             4923 	.byte	2
0000081e 0f             4924 	.byte	15
                        4925 
                        4926 .LDW_4d3d848:
0000081f 2d             4927 	.byte	45
00000820 455f54504d53   4928 	.strz	"E_TPMS_DIAG_WRITE_SPECIFIC_PARAMETERS"
00000826 5f444941475f 
0000082c 57524954455f 
00000832 535045434946 
00000838 49435f504152 
0000083e 414d45544552 
00000844 5300 
00000846 46             4929 	.byte	70
00000847 07             4930 	.byte	7
00000848 02             4931 	.byte	2
00000849 10             4932 	.byte	16
                        4933 
                        4934 .LDW_4d3d888:
0000084a 2d             4935 	.byte	45
0000084b 455f54504d53   4936 	.strz	"E_TPMS_DIAG_READ_AUTO_LEARN_WS_PARAMETERS"
00000851 5f444941475f 
00000857 524541445f41 
0000085d 55544f5f4c45 
00000863 41524e5f5753 
00000869 5f504152414d 
0000086f 455445525300 
00000875 47             4937 	.byte	71
00000876 07             4938 	.byte	7
00000877 02             4939 	.byte	2
00000878 11             4940 	.byte	17
                        4941 
                        4942 .LDW_4d3da88:
00000879 2d             4943 	.byte	45

                                                                      Page 91
                                                              C:\Users\nhuliyap\AppData\Local\Temp\gh_00008941.s
0000087a 455f54504d53   4944 	.strz	"E_TPMS_DIAG_WRITE_AUTO_LEARN_WS_PARAMETERS"
00000880 5f444941475f 
00000886 57524954455f 
0000088c 4155544f5f4c 
00000892 4541524e5f57 
00000898 535f50415241 
0000089e 4d4554455253 
000008a4 00 
000008a5 48             4945 	.byte	72
000008a6 07             4946 	.byte	7
000008a7 02             4947 	.byte	2
000008a8 12             4948 	.byte	18
                        4949 
                        4950 .LDW_4d3dd48:
000008a9 2d             4951 	.byte	45
000008aa 455f54504d53   4952 	.strz	"E_TPMS_DIAG_READ_PRESSURE_OF_MIN_PRESS"
000008b0 5f444941475f 
000008b6 524541445f50 
000008bc 524553535552 
000008c2 455f4f465f4d 
000008c8 494e5f505245 
000008ce 535300 
000008d1 49             4953 	.byte	73
000008d2 07             4954 	.byte	7
000008d3 02             4955 	.byte	2
000008d4 13             4956 	.byte	19
                        4957 
                        4958 .LDW_4d3d8c8:
000008d5 2d             4959 	.byte	45
000008d6 455f54504d53   4960 	.strz	"E_TPMS_DIAG_WRITE_PRESSURE_OF_MIN_PRESS"
000008dc 5f444941475f 
000008e2 57524954455f 
000008e8 505245535355 
000008ee 52455f4f465f 
000008f4 4d494e5f5052 
000008fa 45535300 
000008fe 4a             4961 	.byte	74
000008ff 07             4962 	.byte	7
00000900 02             4963 	.byte	2
00000901 14             4964 	.byte	20
                        4965 
                        4966 .LDW_4d3db08:
00000902 2d             4967 	.byte	45
00000903 455f54504d53   4968 	.strz	"E_TPMS_DIAG_START_TPMS_EOL"
00000909 5f444941475f 
0000090f 53544152545f 
00000915 54504d535f45 
0000091b 4f4c00 
0000091e 4b             4969 	.byte	75
0000091f 07             4970 	.byte	7
00000920 02             4971 	.byte	2
00000921 15             4972 	.byte	21
                        4973 
                        4974 .LDW_4d3d908:
00000922 2d             4975 	.byte	45
00000923 455f54504d53   4976 	.strz	"E_TPMS_DIAG_STOP_TPMS_EOL"
00000929 5f444941475f 
0000092f 53544f505f54 
00000935 504d535f454f 
0000093b 4c00 
0000093d 4c             4977 	.byte	76

                                                                      Page 92
                                                              C:\Users\nhuliyap\AppData\Local\Temp\gh_00008941.s
0000093e 07             4978 	.byte	7
0000093f 02             4979 	.byte	2
00000940 16             4980 	.byte	22
                        4981 
                        4982 .LDW_4d3dc48:
00000941 2d             4983 	.byte	45
00000942 455f54504d53   4984 	.strz	"E_TPMS_DIAG_RESULT_TPMS_EOL"
00000948 5f444941475f 
0000094e 524553554c54 
00000954 5f54504d535f 
0000095a 454f4c00 
0000095e 4d             4985 	.byte	77
0000095f 07             4986 	.byte	7
00000960 02             4987 	.byte	2
00000961 17             4988 	.byte	23
                        4989 
                        4990 .LDW_4d3d9c8:
00000962 2d             4991 	.byte	45
00000963 455f54504d53   4992 	.strz	"E_TPMS_DIAG_READ_ECU_FAULT_REASON"
00000969 5f444941475f 
0000096f 524541445f45 
00000975 43555f464155 
0000097b 4c545f524541 
00000981 534f4e00 
00000985 4e             4993 	.byte	78
00000986 07             4994 	.byte	7
00000987 02             4995 	.byte	2
00000988 18             4996 	.byte	24
                        4997 
                        4998 .LDW_4d3dd88:
00000989 2d             4999 	.byte	45
0000098a 455f54504d53   5000 	.strz	"E_TPMS_DIAG_WRITE_ECU_FAULT_REASON"
00000990 5f444941475f 
00000996 57524954455f 
0000099c 4543555f4641 
000009a2 554c545f5245 
000009a8 41534f4e00 
000009ad 4f             5001 	.byte	79
000009ae 07             5002 	.byte	7
000009af 02             5003 	.byte	2
000009b0 19             5004 	.byte	25
                        5005 
                        5006 .LDW_4d3db48:
000009b1 2d             5007 	.byte	45
000009b2 455f54504d53   5008 	.strz	"E_TPMS_DIAG_READ_ECU_POSITION"
000009b8 5f444941475f 
000009be 524541445f45 
000009c4 43555f504f53 
000009ca 4954494f4e00 
000009d0 50             5009 	.byte	80
000009d1 07             5010 	.byte	7
000009d2 02             5011 	.byte	2
000009d3 1a             5012 	.byte	26
                        5013 
                        5014 .LDW_4d3db88:
000009d4 2d             5015 	.byte	45
000009d5 455f54504d53   5016 	.strz	"E_TPMS_DIAG_WRITE_ECU_POSITION"
000009db 5f444941475f 
000009e1 57524954455f 
000009e7 4543555f504f 
000009ed 534954494f4e 

                                                                      Page 93
                                                              C:\Users\nhuliyap\AppData\Local\Temp\gh_00008941.s
000009f3 00 
000009f4 51             5017 	.byte	81
000009f5 07             5018 	.byte	7
000009f6 02             5019 	.byte	2
000009f7 1b             5020 	.byte	27
                        5021 
                        5022 .LDW_4d3de88:
000009f8 2d             5023 	.byte	45
000009f9 455f54504d53   5024 	.strz	"E_TPMS_DIAG_READ_ABS_TICKS"
000009ff 5f444941475f 
00000a05 524541445f41 
00000a0b 42535f544943 
00000a11 4b5300 
00000a14 52             5025 	.byte	82
00000a15 07             5026 	.byte	7
00000a16 02             5027 	.byte	2
00000a17 1c             5028 	.byte	28
                        5029 
                        5030 .LDW_4d3d948:
00000a18 2d             5031 	.byte	45
00000a19 455f54504d53   5032 	.strz	"E_TPMS_DIAG_WRITE_ABS_TICKS"
00000a1f 5f444941475f 
00000a25 57524954455f 
00000a2b 4142535f5449 
00000a31 434b5300 
00000a35 53             5033 	.byte	83
00000a36 07             5034 	.byte	7
00000a37 02             5035 	.byte	2
00000a38 1d             5036 	.byte	29
                        5037 
                        5038 .LDW_4d3dbc8:
00000a39 2d             5039 	.byte	45
00000a3a 455f54504d53   5040 	.strz	"E_TPMS_DIAG_READ_NOISE_LEVEL"
00000a40 5f444941475f 
00000a46 524541445f4e 
00000a4c 4f4953455f4c 
00000a52 4556454c00 
00000a57 54             5041 	.byte	84
00000a58 07             5042 	.byte	7
00000a59 02             5043 	.byte	2
00000a5a 1e             5044 	.byte	30
                        5045 
                        5046 .LDW_4d3dd08:
00000a5b 2d             5047 	.byte	45
00000a5c 455f54504d53   5048 	.strz	"E_TPMS_DIAG_WRITE_NOISE_LEVEL"
00000a62 5f444941475f 
00000a68 57524954455f 
00000a6e 4e4f4953455f 
00000a74 4c4556454c00 
00000a7a 55             5049 	.byte	85
00000a7b 07             5050 	.byte	7
00000a7c 02             5051 	.byte	2
00000a7d 1f             5052 	.byte	31
                        5053 
                        5054 .LDW_4d3dc08:
00000a7e 2d             5055 	.byte	45
00000a7f 455f54504d53   5056 	.strz	"E_TPMS_DIAG_READ_TEMPERATURE_WARNING_THR"
00000a85 5f444941475f 
00000a8b 524541445f54 
00000a91 454d50455241 
00000a97 545552455f57 

                                                                      Page 94
                                                              C:\Users\nhuliyap\AppData\Local\Temp\gh_00008941.s
00000a9d 41524e494e47 
00000aa3 5f54485200 
00000aa8 56             5057 	.byte	86
00000aa9 07             5058 	.byte	7
00000aaa 02             5059 	.byte	2
00000aab 20             5060 	.byte	32
                        5061 
                        5062 .LDW_4d3dcc8:
00000aac 2d             5063 	.byte	45
00000aad 455f54504d53   5064 	.strz	"E_TPMS_DIAG_WRITE_TEMPERATURE_WARNING_THR"
00000ab3 5f444941475f 
00000ab9 57524954455f 
00000abf 54454d504552 
00000ac5 41545552455f 
00000acb 5741524e494e 
00000ad1 475f54485200 
00000ad7 57             5065 	.byte	87
00000ad8 07             5066 	.byte	7
00000ad9 02             5067 	.byte	2
00000ada 21             5068 	.byte	33
                        5069 
                        5070 .LDW_4d3ddc8:
00000adb 2d             5071 	.byte	45
00000adc 455f54504d53   5072 	.strz	"E_TPMS_DIAG_MAX_NUMBER"
00000ae2 5f444941475f 
00000ae8 4d41585f4e55 
00000aee 4d42455200 
00000af3 58             5073 	.byte	88
00000af4 07             5074 	.byte	7
00000af5 02             5075 	.byte	2
00000af6 22             5076 	.byte	34
                        5077 
00000af7 00             5078 	.byte	0
                        5079 
                        5080 .LDW_4d22568:
00000af8 28             5081 	.byte	40
00000af9 656e756d5f54   5082 	.strz	"enum_TPMSDiagnosticRequest"
00000aff 504d53446961 
00000b05 676e6f737469 
00000b0b 635265717565 
00000b11 737400 
00000b14 59             5083 	.byte	89
00000b15 02             5084 	.byte	2
00000b16 02             5085 	.byte	2
00000b17 00000000*      5086 	.word	.LDW_4c5f458
                        5087 
                        5088 .LDW_16f9f08:
00000b1b 41             5089 	.byte	65
00000b1c bb01           5090 	.byte	187,1
00000b1e 0f             5091 	.byte	15
00000b1f 02             5092 	.byte	2
00000b20 10             5093 	.byte	16
00000b21 01             5094 	.byte	1
                        5095 
                        5096 	.section	.debug_abbrev
00000090 41             5097 	.byte	65
00000091 13             5098 	.byte	19
00000092 01             5099 	.byte	1
00000093 3b0f           5100 	.byte	59,15
00000095 390f           5101 	.byte	57,15
00000097 3a0f           5102 	.byte	58,15

                                                                      Page 95
                                                              C:\Users\nhuliyap\AppData\Local\Temp\gh_00008941.s
00000099 0b0f           5103 	.byte	11,15
0000009b 320b           5104 	.byte	50,11
0000009d 0000           5105 	.byte	0,0
                        5106 
                        5107 	.section	.debug_info
                        5108 .LDW_4d400d0:
00000b22 23             5109 	.byte	35
00000b23 707563526571   5110 	.strz	"pucReqData"
00000b29 4461746100 
00000b2e bc01           5111 	.byte	188,1
00000b30 0b             5112 	.byte	11
00000b31 02             5113 	.byte	2
00000b32 00000000*      5114 	.word	.LDW_4cedab0
00000b36 0223           5115 	.byte	2,35
00000b38 00             5116 	.byte	0
00000b39 01             5117 	.byte	1
                        5118 
                        5119 	.section	.debug_abbrev
0000009f 23             5120 	.byte	35
000000a0 0d             5121 	.byte	13
000000a1 00             5122 	.byte	0
000000a2 0308           5123 	.byte	3,8
000000a4 3b0f           5124 	.byte	59,15
000000a6 390f           5125 	.byte	57,15
000000a8 3a0f           5126 	.byte	58,15
000000aa 4910           5127 	.byte	73,16
000000ac 380a           5128 	.byte	56,10
000000ae 320b           5129 	.byte	50,11
000000b0 0000           5130 	.byte	0,0
                        5131 
                        5132 	.section	.debug_info
                        5133 .LDW_4d40040:
00000b3a 23             5134 	.byte	35
00000b3b 756952657144   5135 	.strz	"uiReqDataLen"
00000b41 6174614c656e 
00000b47 00 
00000b48 bd01           5136 	.byte	189,1
00000b4a 0a             5137 	.byte	10
00000b4b 02             5138 	.byte	2
00000b4c 00000000*      5139 	.word	.LDW_4d221a0
00000b50 0223           5140 	.byte	2,35
00000b52 04             5141 	.byte	4
00000b53 01             5142 	.byte	1
                        5143 
                        5144 .LDW_4d40118:
00000b54 23             5145 	.byte	35
00000b55 707563526573   5146 	.strz	"pucResData"
00000b5b 4461746100 
00000b60 be01           5147 	.byte	190,1
00000b62 0b             5148 	.byte	11
00000b63 02             5149 	.byte	2
00000b64 00000000*      5150 	.word	.LDW_4cedab0
00000b68 0223           5151 	.byte	2,35
00000b6a 08             5152 	.byte	8
00000b6b 01             5153 	.byte	1
                        5154 
                        5155 .LDW_4d3ff68:
00000b6c 23             5156 	.byte	35
00000b6d 707569526573   5157 	.strz	"puiResDataLen"
00000b73 446174614c65 
00000b79 6e00 

                                                                      Page 96
                                                              C:\Users\nhuliyap\AppData\Local\Temp\gh_00008941.s
00000b7b bf01           5158 	.byte	191,1
00000b7d 0b             5159 	.byte	11
00000b7e 02             5160 	.byte	2
00000b7f 00000000*      5161 	.word	.LDW_4d33570
00000b83 0223           5162 	.byte	2,35
00000b85 0c             5163 	.byte	12
00000b86 01             5164 	.byte	1
                        5165 
00000b87 00             5166 	.byte	0
                        5167 
                        5168 .LDW_16f9f60:
00000b88 28             5169 	.byte	40
00000b89 747354504d53   5170 	.strz	"tsTPMSDiag_Data"
00000b8f 446961675f44 
00000b95 61746100 
00000b99 c001           5171 	.byte	192,1
00000b9b 02             5172 	.byte	2
00000b9c 02             5173 	.byte	2
00000b9d 00000000*      5174 	.word	.LDW_16f9f08
                        5175 
                        5176 .LDW_4cff9b0:
00000ba1 41             5177 	.byte	65
00000ba2 0c             5178 	.byte	12
00000ba3 0f             5179 	.byte	15
00000ba4 13             5180 	.byte	19
00000ba5 19             5181 	.byte	25
00000ba6 01             5182 	.byte	1
                        5183 
                        5184 .LDW_4d43ca8:
00000ba7 23             5185 	.byte	35
00000ba8 756357414374   5186 	.strz	"ucWACtrl"
00000bae 726c00 
00000bb1 0d             5187 	.byte	13
00000bb2 11             5188 	.byte	17
00000bb3 13             5189 	.byte	19
00000bb4 00000000*      5190 	.word	.LDW_16b7168
00000bb8 0223           5191 	.byte	2,35
00000bba 00             5192 	.byte	0
00000bbb 01             5193 	.byte	1
                        5194 
                        5195 .LDW_4d440e0:
00000bbc 23             5196 	.byte	35
00000bbd 75634d696e52   5197 	.strz	"ucMinRssiLevel"
00000bc3 7373694c6576 
00000bc9 656c00 
00000bcc 0e             5198 	.byte	14
00000bcd 11             5199 	.byte	17
00000bce 13             5200 	.byte	19
00000bcf 00000000*      5201 	.word	.LDW_16b7168
00000bd3 0223           5202 	.byte	2,35
00000bd5 01             5203 	.byte	1
00000bd6 01             5204 	.byte	1
                        5205 
                        5206 .LDW_4d43f78:
00000bd7 23             5207 	.byte	35
00000bd8 75634d696e52   5208 	.strz	"ucMinRssiDistance"
00000bde 737369446973 
00000be4 74616e636500 
00000bea 0f             5209 	.byte	15
00000beb 11             5210 	.byte	17
00000bec 13             5211 	.byte	19

                                                                      Page 97
                                                              C:\Users\nhuliyap\AppData\Local\Temp\gh_00008941.s
00000bed 00000000*      5212 	.word	.LDW_16b7168
00000bf1 0223           5213 	.byte	2,35
00000bf3 02             5214 	.byte	2
00000bf4 01             5215 	.byte	1
                        5216 
                        5217 .LDW_4d43ee8:
00000bf5 23             5218 	.byte	35
00000bf6 75634d696e56   5219 	.strz	"ucMinVariationDistance"
00000bfc 617269617469 
00000c02 6f6e44697374 
00000c08 616e636500 
00000c0d 10             5220 	.byte	16
00000c0e 11             5221 	.byte	17
00000c0f 13             5222 	.byte	19
00000c10 00000000*      5223 	.word	.LDW_16b7168
00000c14 0223           5224 	.byte	2,35
00000c16 03             5225 	.byte	3
00000c17 01             5226 	.byte	1
                        5227 
                        5228 .LDW_4d44050:
00000c18 23             5229 	.byte	35
00000c19 75634c655269   5230 	.strz	"ucLeRiMinDistance"
00000c1f 4d696e446973 
00000c25 74616e636500 
00000c2b 11             5231 	.byte	17
00000c2c 11             5232 	.byte	17
00000c2d 13             5233 	.byte	19
00000c2e 00000000*      5234 	.word	.LDW_16b7168
00000c32 0223           5235 	.byte	2,35
00000c34 04             5236 	.byte	4
00000c35 01             5237 	.byte	1
                        5238 
                        5239 .LDW_4d44128:
00000c36 23             5240 	.byte	35
00000c37 756345637550   5241 	.strz	"ucEcuPosition"
00000c3d 6f736974696f 
00000c43 6e00 
00000c45 12             5242 	.byte	18
00000c46 11             5243 	.byte	17
00000c47 13             5244 	.byte	19
00000c48 00000000*      5245 	.word	.LDW_16b7168
00000c4c 0223           5246 	.byte	2,35
00000c4e 05             5247 	.byte	5
00000c4f 01             5248 	.byte	1
                        5249 
                        5250 .LDW_4d43b40:
00000c50 23             5251 	.byte	35
00000c51 75634d696e43   5252 	.strz	"ucMinCt4ER"
00000c57 7434455200 
00000c5c 14             5253 	.byte	20
00000c5d 11             5254 	.byte	17
00000c5e 13             5255 	.byte	19
00000c5f 00000000*      5256 	.word	.LDW_16b7168
00000c63 0223           5257 	.byte	2,35
00000c65 06             5258 	.byte	6
00000c66 01             5259 	.byte	1
                        5260 
                        5261 .LDW_4d43b88:
00000c67 23             5262 	.byte	35
00000c68 75634d696e43   5263 	.strz	"ucMinCt4HistER"
00000c6e 743448697374 

                                                                      Page 98
                                                              C:\Users\nhuliyap\AppData\Local\Temp\gh_00008941.s
00000c74 455200 
00000c77 15             5264 	.byte	21
00000c78 11             5265 	.byte	17
00000c79 13             5266 	.byte	19
00000c7a 00000000*      5267 	.word	.LDW_16b7168
00000c7e 0223           5268 	.byte	2,35
00000c80 07             5269 	.byte	7
00000c81 01             5270 	.byte	1
                        5271 
                        5272 .LDW_4d43bd0:
00000c82 23             5273 	.byte	35
00000c83 75634d696e43   5274 	.strz	"ucMinCt4ZomReset"
00000c89 74345a6f6d52 
00000c8f 6573657400 
00000c94 16             5275 	.byte	22
00000c95 11             5276 	.byte	17
00000c96 13             5277 	.byte	19
00000c97 00000000*      5278 	.word	.LDW_16b7168
00000c9b 0223           5279 	.byte	2,35
00000c9d 08             5280 	.byte	8
00000c9e 01             5281 	.byte	1
                        5282 
                        5283 .LDW_4d43f30:
00000c9f 23             5284 	.byte	35
00000ca0 75634d696e45   5285 	.strz	"ucMinERMeanRssiLevel"
00000ca6 524d65616e52 
00000cac 7373694c6576 
00000cb2 656c00 
00000cb5 17             5286 	.byte	23
00000cb6 11             5287 	.byte	17
00000cb7 13             5288 	.byte	19
00000cb8 00000000*      5289 	.word	.LDW_16b7168
00000cbc 0223           5290 	.byte	2,35
00000cbe 09             5291 	.byte	9
00000cbf 01             5292 	.byte	1
                        5293 
                        5294 .LDW_4d43c18:
00000cc0 23             5295 	.byte	35
00000cc1 5741544f5469   5296 	.strz	"WATOTimeInSec"
00000cc7 6d65496e5365 
00000ccd 6300 
00000ccf 18             5297 	.byte	24
00000cd0 11             5298 	.byte	17
00000cd1 13             5299 	.byte	19
00000cd2 00000000*      5300 	.word	.LDW_16b7168
00000cd6 0223           5301 	.byte	2,35
00000cd8 0a             5302 	.byte	10
00000cd9 01             5303 	.byte	1
                        5304 
                        5305 .LDW_4d43a68:
00000cda 23             5306 	.byte	35
00000cdb 756354696d65   5307 	.strz	"ucTimeoutAutoLoc"
00000ce1 6f7574417574 
00000ce7 6f4c6f6300 
00000cec 19             5308 	.byte	25
00000ced 11             5309 	.byte	17
00000cee 13             5310 	.byte	19
00000cef 00000000*      5311 	.word	.LDW_16b7168
00000cf3 0223           5312 	.byte	2,35
00000cf5 0b             5313 	.byte	11
00000cf6 01             5314 	.byte	1

                                                                      Page 99
                                                              C:\Users\nhuliyap\AppData\Local\Temp\gh_00008941.s
                        5315 
                        5316 .LDW_4d43d80:
00000cf7 23             5317 	.byte	35
00000cf8 75634e65774d   5318 	.strz	"ucNewMinCntEvt"
00000cfe 696e436e7445 
00000d04 767400 
00000d07 1b             5319 	.byte	27
00000d08 11             5320 	.byte	17
00000d09 13             5321 	.byte	19
00000d0a 00000000*      5322 	.word	.LDW_16b7168
00000d0e 0223           5323 	.byte	2,35
00000d10 0c             5324 	.byte	12
00000d11 01             5325 	.byte	1
                        5326 
                        5327 .LDW_4d43c60:
00000d12 23             5328 	.byte	35
00000d13 75634d696e54   5329 	.strz	"ucMinTimeProtectER"
00000d19 696d6550726f 
00000d1f 746563744552 
00000d25 00 
00000d26 1c             5330 	.byte	28
00000d27 11             5331 	.byte	17
00000d28 13             5332 	.byte	19
00000d29 00000000*      5333 	.word	.LDW_16b7168
00000d2d 0223           5334 	.byte	2,35
00000d2f 0d             5335 	.byte	13
00000d30 01             5336 	.byte	1
                        5337 
                        5338 .LDW_4d44320:
00000d31 23             5339 	.byte	35
00000d32 75636e4d696e   5340 	.strz	"ucnMinRxTGRF"
00000d38 527854475246 
00000d3e 00 
00000d3f 1d             5341 	.byte	29
00000d40 11             5342 	.byte	17
00000d41 13             5343 	.byte	19
00000d42 00000000*      5344 	.word	.LDW_16b7168
00000d46 0223           5345 	.byte	2,35
00000d48 0e             5346 	.byte	14
00000d49 01             5347 	.byte	1
                        5348 
                        5349 .LDW_4d43fc0:
00000d4a 23             5350 	.byte	35
00000d4b 75636e52656c   5351 	.strz	"ucnRelValMinDiff"
00000d51 56616c4d696e 
00000d57 4469666600 
00000d5c 1f             5352 	.byte	31
00000d5d 11             5353 	.byte	17
00000d5e 13             5354 	.byte	19
00000d5f 00000000*      5355 	.word	.LDW_16b7168
00000d63 0223           5356 	.byte	2,35
00000d65 0f             5357 	.byte	15
00000d66 01             5358 	.byte	1
                        5359 
                        5360 .LDW_4d43cf0:
00000d67 23             5361 	.byte	35
00000d68 75636e52656c   5362 	.strz	"ucnRelValMidDiff"
00000d6e 56616c4d6964 
00000d74 4469666600 
00000d79 20             5363 	.byte	32
00000d7a 11             5364 	.byte	17

                                                                      Page 100
                                                              C:\Users\nhuliyap\AppData\Local\Temp\gh_00008941.s
00000d7b 13             5365 	.byte	19
00000d7c 00000000*      5366 	.word	.LDW_16b7168
00000d80 0223           5367 	.byte	2,35
00000d82 10             5368 	.byte	16
00000d83 01             5369 	.byte	1
                        5370 
                        5371 .LDW_4d442d8:
00000d84 23             5372 	.byte	35
00000d85 75636e52656c   5373 	.strz	"ucnRelValCompetDiff"
00000d8b 56616c436f6d 
00000d91 706574446966 
00000d97 6600 
00000d99 21             5374 	.byte	33
00000d9a 11             5375 	.byte	17
00000d9b 13             5376 	.byte	19
00000d9c 00000000*      5377 	.word	.LDW_16b7168
00000da0 0223           5378 	.byte	2,35
00000da2 11             5379 	.byte	17
00000da3 01             5380 	.byte	1
                        5381 
                        5382 .LDW_4d441b8:
00000da4 23             5383 	.byte	35
00000da5 75634d61785a   5384 	.strz	"ucMaxZOnorm"
00000dab 4f6e6f726d00 
00000db1 22             5385 	.byte	34
00000db2 11             5386 	.byte	17
00000db3 13             5387 	.byte	19
00000db4 00000000*      5388 	.word	.LDW_16b7168
00000db8 0223           5389 	.byte	2,35
00000dba 12             5390 	.byte	18
00000dbb 01             5391 	.byte	1
                        5392 
                        5393 .LDW_4d43dc8:
00000dbc 23             5394 	.byte	35
00000dbd 75636e4d696e   5395 	.strz	"ucnMinA"
00000dc3 4100 
00000dc5 23             5396 	.byte	35
00000dc6 11             5397 	.byte	17
00000dc7 13             5398 	.byte	19
00000dc8 00000000*      5399 	.word	.LDW_16b7168
00000dcc 0223           5400 	.byte	2,35
00000dce 13             5401 	.byte	19
00000dcf 01             5402 	.byte	1
                        5403 
                        5404 .LDW_4d44248:
00000dd0 23             5405 	.byte	35
00000dd1 75634d696e53   5406 	.strz	"ucMinSpeedAutoLearnStart"
00000dd7 706565644175 
00000ddd 746f4c656172 
00000de3 6e5374617274 
00000de9 00 
00000dea 25             5407 	.byte	37
00000deb 11             5408 	.byte	17
00000dec 13             5409 	.byte	19
00000ded 00000000*      5410 	.word	.LDW_16b7168
00000df1 0223           5411 	.byte	2,35
00000df3 14             5412 	.byte	20
00000df4 01             5413 	.byte	1
                        5414 
                        5415 .LDW_4d43ab0:
00000df5 23             5416 	.byte	35

                                                                      Page 101
                                                              C:\Users\nhuliyap\AppData\Local\Temp\gh_00008941.s
00000df6 75634f666673   5417 	.strz	"ucOffsetOverlapsGXe"
00000dfc 65744f766572 
00000e02 6c6170734758 
00000e08 6500 
00000e0a 27             5418 	.byte	39
00000e0b 11             5419 	.byte	17
00000e0c 13             5420 	.byte	19
00000e0d 00000000*      5421 	.word	.LDW_16b7168
00000e11 0223           5422 	.byte	2,35
00000e13 15             5423 	.byte	21
00000e14 01             5424 	.byte	1
                        5425 
                        5426 .LDW_4d43e10:
00000e15 23             5427 	.byte	35
00000e16 75636e567765   5428 	.strz	"ucnVweight"
00000e1c 6967687400 
00000e21 28             5429 	.byte	40
00000e22 11             5430 	.byte	17
00000e23 13             5431 	.byte	19
00000e24 00000000*      5432 	.word	.LDW_16b7168
00000e28 0223           5433 	.byte	2,35
00000e2a 16             5434 	.byte	22
00000e2b 01             5435 	.byte	1
                        5436 
                        5437 .LDW_4d43e58:
00000e2c 23             5438 	.byte	35
00000e2d 75634d696e4f   5439 	.strz	"ucMinOffsetGXe"
00000e33 666673657447 
00000e39 586500 
00000e3c 29             5440 	.byte	41
00000e3d 11             5441 	.byte	17
00000e3e 13             5442 	.byte	19
00000e3f 00000000*      5443 	.word	.LDW_16b7168
00000e43 0223           5444 	.byte	2,35
00000e45 17             5445 	.byte	23
00000e46 01             5446 	.byte	1
                        5447 
                        5448 .LDW_4d44008:
00000e47 23             5449 	.byte	35
00000e48 756353756666   5450 	.strz	"ucSufficientRssiDistance"
00000e4e 696369656e74 
00000e54 527373694469 
00000e5a 7374616e6365 
00000e60 00 
00000e61 2a             5451 	.byte	42
00000e62 11             5452 	.byte	17
00000e63 13             5453 	.byte	19
00000e64 00000000*      5454 	.word	.LDW_16b7168
00000e68 0223           5455 	.byte	2,35
00000e6a 18             5456 	.byte	24
00000e6b 01             5457 	.byte	1
                        5458 
00000e6c 00             5459 	.byte	0
                        5460 
                        5461 .LDW_4cfefb8:
00000e6d 28             5462 	.byte	40
00000e6e 574150617261   5463 	.strz	"WAParameter"
00000e74 6d6574657200 
00000e7a 2b             5464 	.byte	43
00000e7b 02             5465 	.byte	2
00000e7c 13             5466 	.byte	19

                                                                      Page 102
                                                              C:\Users\nhuliyap\AppData\Local\Temp\gh_00008941.s
00000e7d 00000000*      5467 	.word	.LDW_4cff9b0
                        5468 
                        5469 .LDW_4d09970:
00000e81 41             5470 	.byte	65
00000e82 2d             5471 	.byte	45
00000e83 0f             5472 	.byte	15
00000e84 13             5473 	.byte	19
00000e85 02             5474 	.byte	2
00000e86 01             5475 	.byte	1
                        5476 
                        5477 .LDW_4d443b0:
00000e87 23             5478 	.byte	35
00000e88 756346726f6e   5479 	.strz	"ucFrontAxisABSTicks"
00000e8e 744178697341 
00000e94 42535469636b 
00000e9a 7300 
00000e9c 2e             5480 	.byte	46
00000e9d 12             5481 	.byte	18
00000e9e 13             5482 	.byte	19
00000e9f 00000000*      5483 	.word	.LDW_16b7168
00000ea3 0223           5484 	.byte	2,35
00000ea5 00             5485 	.byte	0
00000ea6 01             5486 	.byte	1
                        5487 
                        5488 .LDW_4d447a0:
00000ea7 23             5489 	.byte	35
00000ea8 756352656172   5490 	.strz	"ucRearAxisABSTicks"
00000eae 417869734142 
00000eb4 535469636b73 
00000eba 00 
00000ebb 2f             5491 	.byte	47
00000ebc 12             5492 	.byte	18
00000ebd 13             5493 	.byte	19
00000ebe 00000000*      5494 	.word	.LDW_16b7168
00000ec2 0223           5495 	.byte	2,35
00000ec4 01             5496 	.byte	1
00000ec5 01             5497 	.byte	1
                        5498 
00000ec6 00             5499 	.byte	0
                        5500 
                        5501 .LDW_4d099c8:
00000ec7 28             5502 	.byte	40
00000ec8 574141425354   5503 	.strz	"WAABSTicksInOneRevolution"
00000ece 69636b73496e 
00000ed4 4f6e65526576 
00000eda 6f6c7574696f 
00000ee0 6e00 
00000ee2 30             5504 	.byte	48
00000ee3 02             5505 	.byte	2
00000ee4 13             5506 	.byte	19
00000ee5 00000000*      5507 	.word	.LDW_4d09970
                        5508 
                        5509 .LDW_4d42c90:
00000ee9 40             5510 	.byte	64
00000eea 435400         5511 	.strz	"CT"
00000eed 1a             5512 	.byte	26
00000eee 08             5513 	.byte	8
00000eef 17             5514 	.byte	23
00000ef0 1a             5515 	.byte	26
00000ef1 01             5516 	.byte	1
                        5517 

                                                                      Page 103
                                                              C:\Users\nhuliyap\AppData\Local\Temp\gh_00008941.s
                        5518 	.section	.debug_abbrev
000000b2 40             5519 	.byte	64
000000b3 13             5520 	.byte	19
000000b4 01             5521 	.byte	1
000000b5 0308           5522 	.byte	3,8
000000b7 3b0f           5523 	.byte	59,15
000000b9 390f           5524 	.byte	57,15
000000bb 3a0f           5525 	.byte	58,15
000000bd 0b0f           5526 	.byte	11,15
000000bf 320b           5527 	.byte	50,11
000000c1 0000           5528 	.byte	0,0
                        5529 
                        5530 	.section	.debug_info
                        5531 .LDW_4d44d88:
00000ef2 23             5532 	.byte	35
00000ef3 7563504d696e   5533 	.strz	"ucPMinAbs"
00000ef9 41627300 
00000efd 1c             5534 	.byte	28
00000efe 11             5535 	.byte	17
00000eff 17             5536 	.byte	23
00000f00 00000000*      5537 	.word	.LDW_16b7168
00000f04 0223           5538 	.byte	2,35
00000f06 00             5539 	.byte	0
00000f07 01             5540 	.byte	1
                        5541 
                        5542 .LDW_4d45298:
00000f08 23             5543 	.byte	35
00000f09 61756350536f   5544 	.strz	"aucPSollMin"
00000f0f 6c6c4d696e00 
00000f15 1d             5545 	.byte	29
00000f16 11             5546 	.byte	17
00000f17 17             5547 	.byte	23
00000f18 00000000*      5548 	.word	.LDW_4d406d0
00000f1c 0223           5549 	.byte	2,35
00000f1e 01             5550 	.byte	1
00000f1f 01             5551 	.byte	1
                        5552 
                        5553 .LDW_4d44a70:
00000f20 23             5554 	.byte	35
00000f21 61756350536f   5555 	.strz	"aucPSoll"
00000f27 6c6c00 
00000f2a 1e             5556 	.byte	30
00000f2b 11             5557 	.byte	17
00000f2c 17             5558 	.byte	23
00000f2d 00000000*      5559 	.word	.LDW_4d40b98
00000f31 0223           5560 	.byte	2,35
00000f33 05             5561 	.byte	5
00000f34 01             5562 	.byte	1
                        5563 
                        5564 .LDW_4d44c68:
00000f35 23             5565 	.byte	35
00000f36 61736354536f   5566 	.strz	"ascTSoll"
00000f3c 6c6c00 
00000f3f 1f             5567 	.byte	31
00000f40 0f             5568 	.byte	15
00000f41 17             5569 	.byte	23
00000f42 00000000*      5570 	.word	.LDW_4d40758
00000f46 0223           5571 	.byte	2,35
00000f48 09             5572 	.byte	9
00000f49 01             5573 	.byte	1
                        5574 

                                                                      Page 104
                                                              C:\Users\nhuliyap\AppData\Local\Temp\gh_00008941.s
                        5575 .LDW_4d44dd0:
00000f4a 23             5576 	.byte	35
00000f4b 617573684d53   5577 	.strz	"aushMSoll"
00000f51 6f6c6c00 
00000f55 20             5578 	.byte	32
00000f56 12             5579 	.byte	18
00000f57 17             5580 	.byte	23
00000f58 00000000*      5581 	.word	.LDW_4d407e0
00000f5c 0223           5582 	.byte	2,35
00000f5e 0e             5583 	.byte	14
00000f5f 01             5584 	.byte	1
                        5585 
                        5586 .LDW_4d44ef0:
00000f60 23             5587 	.byte	35
00000f61 617563505761   5588 	.strz	"aucPWarm"
00000f67 726d00 
00000f6a 21             5589 	.byte	33
00000f6b 11             5590 	.byte	17
00000f6c 17             5591 	.byte	23
00000f6d 00000000*      5592 	.word	.LDW_4d40c20
00000f71 0223           5593 	.byte	2,35
00000f73 16             5594 	.byte	22
00000f74 01             5595 	.byte	1
                        5596 
00000f75 00             5597 	.byte	0
                        5598 
                        5599 .LDW_4d42d98:
00000f76 42             5600 	.byte	66
00000f77 43444100       5601 	.strz	"CDA"
00000f7b 24             5602 	.byte	36
00000f7c 07             5603 	.byte	7
00000f7d 17             5604 	.byte	23
00000f7e 1a             5605 	.byte	26
00000f7f 01             5606 	.byte	1
                        5607 
                        5608 	.section	.debug_abbrev
000000c3 42             5609 	.byte	66
000000c4 17             5610 	.byte	23
000000c5 01             5611 	.byte	1
000000c6 0308           5612 	.byte	3,8
000000c8 3b0f           5613 	.byte	59,15
000000ca 390f           5614 	.byte	57,15
000000cc 3a0f           5615 	.byte	58,15
000000ce 0b0f           5616 	.byte	11,15
000000d0 320b           5617 	.byte	50,11
000000d2 0000           5618 	.byte	0,0
                        5619 
                        5620 	.section	.debug_info
                        5621 .LDW_4d44f38:
00000f80 23             5622 	.byte	35
00000f81 7443616c5461   5623 	.strz	"tCalTab"
00000f87 6200 
00000f89 26             5624 	.byte	38
00000f8a 0d             5625 	.byte	13
00000f8b 17             5626 	.byte	23
00000f8c 00000000*      5627 	.word	.LDW_4d42c90
00000f90 0223           5628 	.byte	2,35
00000f92 00             5629 	.byte	0
00000f93 01             5630 	.byte	1
                        5631 
                        5632 .LDW_4d459e8:

                                                                      Page 105
                                                              C:\Users\nhuliyap\AppData\Local\Temp\gh_00008941.s
00000f94 23             5633 	.byte	35
00000f95 756342797465   5634 	.strz	"ucByte"
00000f9b 00 
00000f9c 27             5635 	.byte	39
00000f9d 11             5636 	.byte	17
00000f9e 17             5637 	.byte	23
00000f9f 00000000*      5638 	.word	.LDW_4d40ca8
00000fa3 0223           5639 	.byte	2,35
00000fa5 00             5640 	.byte	0
00000fa6 01             5641 	.byte	1
                        5642 
00000fa7 00             5643 	.byte	0
                        5644 
                        5645 .LDW_4d42768:
00000fa8 28             5646 	.byte	40
00000fa9 444941475f5f   5647 	.strz	"DIAG__ReqCallback_Type"
00000faf 52657143616c 
00000fb5 6c6261636b5f 
00000fbb 5479706500 
00000fc0 25             5648 	.byte	37
00000fc1 11             5649 	.byte	17
00000fc2 01             5650 	.byte	1
00000fc3 00000000*      5651 	.word	.LDW_4d335a8
                        5652 
                        5653 .LDW_4d42660:
00000fc7 41             5654 	.byte	65
00000fc8 27             5655 	.byte	39
00000fc9 0f             5656 	.byte	15
00000fca 01             5657 	.byte	1
00000fcb 08             5658 	.byte	8
00000fcc 01             5659 	.byte	1
                        5660 
                        5661 .LDW_4d45760:
00000fcd 23             5662 	.byte	35
00000fce 654469616752   5663 	.strz	"eDiagRequest"
00000fd4 657175657374 
00000fda 00 
00000fdb 28             5664 	.byte	40
00000fdc 1e             5665 	.byte	30
00000fdd 01             5666 	.byte	1
00000fde 00000000*      5667 	.word	.LDW_4d22568
00000fe2 0223           5668 	.byte	2,35
00000fe4 00             5669 	.byte	0
00000fe5 01             5670 	.byte	1
                        5671 
                        5672 .LDW_4d45838:
00000fe6 23             5673 	.byte	35
00000fe7 50465f526571   5674 	.strz	"PF_ReqCallback"
00000fed 43616c6c6261 
00000ff3 636b00 
00000ff6 29             5675 	.byte	41
00000ff7 1a             5676 	.byte	26
00000ff8 01             5677 	.byte	1
00000ff9 00000000*      5678 	.word	.LDW_4d42768
00000ffd 0223           5679 	.byte	2,35
00000fff 04             5680 	.byte	4
00001000 01             5681 	.byte	1
                        5682 
00001001 00             5683 	.byte	0
                        5684 
                        5685 .LDW_4d427c0:

                                                                      Page 106
                                                              C:\Users\nhuliyap\AppData\Local\Temp\gh_00008941.s
00001002 28             5686 	.byte	40
00001003 444941475f5f   5687 	.strz	"DIAG__struct_ReqHandler"
00001009 737472756374 
0000100f 5f5265714861 
00001015 6e646c657200 
0000101b 2a             5688 	.byte	42
0000101c 02             5689 	.byte	2
0000101d 01             5690 	.byte	1
0000101e 00000000*      5691 	.word	.LDW_4d42660
                        5692 
                        5693 .LDW_4d429d0:
00001022 05             5694 	.byte	5
00001023 7443444100     5695 	.strz	"tCDA"
00001028 2a             5696 	.byte	42
00001029 12             5697 	.byte	18
0000102a 17             5698 	.byte	23
0000102b 00000000*      5699 	.word	.LDW_4d42d98
0000102f 01             5700 	.byte	1
00001030 01             5701 	.byte	1
                        5702 
                        5703 	.section	.debug_abbrev
000000d4 05             5704 	.byte	5
000000d5 34             5705 	.byte	52
000000d6 00             5706 	.byte	0
000000d7 0308           5707 	.byte	3,8
000000d9 3b0f           5708 	.byte	59,15
000000db 390f           5709 	.byte	57,15
000000dd 3a0f           5710 	.byte	58,15
000000df 4910           5711 	.byte	73,16
000000e1 3f0c           5712 	.byte	63,12
000000e3 3c0c           5713 	.byte	60,12
000000e5 0000           5714 	.byte	0,0
                        5715 
                        5716 	.section	.debug_info
                        5717 .LDW_4d42b30:
00001031 05             5718 	.byte	5
00001032 745741506172   5719 	.strz	"tWAPar"
00001038 00 
00001039 4f             5720 	.byte	79
0000103a 14             5721 	.byte	20
0000103b 1c             5722 	.byte	28
0000103c 00000000*      5723 	.word	.LDW_4cfefb8
00001040 01             5724 	.byte	1
00001041 01             5725 	.byte	1
                        5726 
                        5727 .LDW_4d42b88:
00001042 04             5728 	.byte	4
00001043 4155385f5265   5729 	.strz	"AU8_ResData"
00001049 734461746100 
0000104f 5b             5730 	.byte	91
00001050 0f             5731 	.byte	15
00001051 01             5732 	.byte	1
00001052 00000000*      5733 	.word	.LDW_4d462f8
00001056 00             5734 	.byte	0
00001057 00             5735 	.byte	0
00001058 0503           5736 	.byte	5,3
0000105a 00000000*      5737 	.word	_AU8_ResData..C.3A.5C_ECU2.5CECU_Rivian_A1.5CTarget.5Crepo_projects.5CpRealEcu.5CcL_LATEST.5Cmake.5Coutput.5Cobjects.5CSwcApplTpms_Diag.
                        5738 
                        5739 	.section	.debug_abbrev
000000e7 04             5740 	.byte	4
000000e8 34             5741 	.byte	52

                                                                      Page 107
                                                              C:\Users\nhuliyap\AppData\Local\Temp\gh_00008941.s
000000e9 00             5742 	.byte	0
000000ea 0308           5743 	.byte	3,8
000000ec 3b0f           5744 	.byte	59,15
000000ee 390f           5745 	.byte	57,15
000000f0 3a0f           5746 	.byte	58,15
000000f2 4910           5747 	.byte	73,16
000000f4 3f0c           5748 	.byte	63,12
000000f6 3c0c           5749 	.byte	60,12
000000f8 020a           5750 	.byte	2,10
000000fa 0000           5751 	.byte	0,0
                        5752 
                        5753 	.section	.debug_info
                        5754 .LDW_4d43108:
0000105e 04             5755 	.byte	4
0000105f 5531365f5265   5756 	.strz	"U16_RespLenght"
00001065 73704c656e67 
0000106b 687400 
0000106e 5c             5757 	.byte	92
0000106f 10             5758 	.byte	16
00001070 01             5759 	.byte	1
00001071 00000000*      5760 	.word	.LDW_4d221a0
00001075 00             5761 	.byte	0
00001076 00             5762 	.byte	0
00001077 0503           5763 	.byte	5,3
00001079 00000000*      5764 	.word	_U16_RespLenght..C.3A.5C_ECU2.5CECU_Rivian_A1.5CTarget.5Crepo_projects.5CpRealEcu.5CcL_LATEST.5Cmake.5Coutput.5Cobjects.5CSwcApplTpms_Diag.
                        5765 
                        5766 .LDW_4d486e0:
0000107d 04             5767 	.byte	4
0000107e 444941475f5f   5768 	.strz	"DIAG__AS_ReqHandlerArray"
00001084 41535f526571 
0000108a 48616e646c65 
00001090 724172726179 
00001096 00 
00001097 60             5769 	.byte	96
00001098 26             5770 	.byte	38
00001099 01             5771 	.byte	1
0000109a 00000000*      5772 	.word	.LDW_4d45da8
0000109e 00             5773 	.byte	0
0000109f 00             5774 	.byte	0
000010a0 0503           5775 	.byte	5,3
000010a2 00000000*      5776 	.word	_DIAG__AS_ReqHandlerArray..C.3A.5C_ECU2.5CECU_Rivian_A1.5CTarget.5Crepo_projects.5CpRealEcu.5CcL_LATEST.5Cmake.5Coutput.5Cobjects.5CSwcApplTpms_Diag.
                        5777 
                        5778 .LDW_4d3b808:
000010a6 15             5779 	.byte	21
000010a7 436c69656e74   5780 	.strz	"ClientIf_Debug_DiagReqCallback"
000010ad 49665f446562 
000010b3 75675f446961 
000010b9 675265714361 
000010bf 6c6c6261636b 
000010c5 00 
000010c6 f701           5781 	.byte	247,1
000010c8 0d             5782 	.byte	13
000010c9 02             5783 	.byte	2
000010ca 01             5784 	.byte	1
000010cb 00             5785 	.byte	0
000010cc 01             5786 	.byte	1
000010cd 01             5787 	.byte	1
000010ce 00             5788 	.byte	0
000010cf 01             5789 	.byte	1
                        5790 
                        5791 	.section	.debug_abbrev

                                                                      Page 108
                                                              C:\Users\nhuliyap\AppData\Local\Temp\gh_00008941.s
000000fc 15             5792 	.byte	21
000000fd 2e             5793 	.byte	46
000000fe 01             5794 	.byte	1
000000ff 0308           5795 	.byte	3,8
00000101 3b0f           5796 	.byte	59,15
00000103 390f           5797 	.byte	57,15
00000105 3a0f           5798 	.byte	58,15
00000107 3c0c           5799 	.byte	60,12
00000109 200b           5800 	.byte	32,11
0000010b 3f0c           5801 	.byte	63,12
0000010d 320b           5802 	.byte	50,11
0000010f 4c0b           5803 	.byte	76,11
00000111 270c           5804 	.byte	39,12
00000113 0000           5805 	.byte	0,0
                        5806 
                        5807 	.section	.debug_info
000010d0 00             5808 	.byte	0
                        5809 
                        5810 .LDW_4d4b2f0:
000010d1 15             5811 	.byte	21
000010d2 496e6974425a   5812 	.strz	"InitBZ"
000010d8 00 
000010d9 23             5813 	.byte	35
000010da 0d             5814 	.byte	13
000010db 10             5815 	.byte	16
000010dc 01             5816 	.byte	1
000010dd 00             5817 	.byte	0
000010de 01             5818 	.byte	1
000010df 01             5819 	.byte	1
000010e0 00             5820 	.byte	0
000010e1 01             5821 	.byte	1
                        5822 
000010e2 00             5823 	.byte	0
                        5824 
                        5825 .LDW_4d4aec8:
000010e3 16             5826 	.byte	22
000010e4 624765744269   5827 	.strz	"bGetBitBetriebszustandBZ"
000010ea 744265747269 
000010f0 6562737a7573 
000010f6 74616e64425a 
000010fc 00 
000010fd 27             5828 	.byte	39
000010fe 10             5829 	.byte	16
000010ff 10             5830 	.byte	16
00001100 00000000*      5831 	.word	.LDW_4d222a8
00001104 01             5832 	.byte	1
00001105 00             5833 	.byte	0
00001106 01             5834 	.byte	1
00001107 01             5835 	.byte	1
00001108 00             5836 	.byte	0
00001109 01             5837 	.byte	1
                        5838 
                        5839 	.section	.debug_abbrev
00000115 16             5840 	.byte	22
00000116 2e             5841 	.byte	46
00000117 01             5842 	.byte	1
00000118 0308           5843 	.byte	3,8
0000011a 3b0f           5844 	.byte	59,15
0000011c 390f           5845 	.byte	57,15
0000011e 3a0f           5846 	.byte	58,15
00000120 4910           5847 	.byte	73,16

                                                                      Page 109
                                                              C:\Users\nhuliyap\AppData\Local\Temp\gh_00008941.s
00000122 3c0c           5848 	.byte	60,12
00000124 200b           5849 	.byte	32,11
00000126 3f0c           5850 	.byte	63,12
00000128 320b           5851 	.byte	50,11
0000012a 4c0b           5852 	.byte	76,11
0000012c 270c           5853 	.byte	39,12
0000012e 0000           5854 	.byte	0,0
                        5855 
                        5856 	.section	.debug_info
0000110a 00             5857 	.byte	0
                        5858 
                        5859 .LDW_4d4c098:
0000110b 16             5860 	.byte	22
0000110c 474554756352   5861 	.strz	"GETucReifendruckPD"
00001112 656966656e64 
00001118 7275636b5044 
0000111e 00 
0000111f 47             5862 	.byte	71
00001120 0e             5863 	.byte	14
00001121 11             5864 	.byte	17
00001122 00000000*      5865 	.word	.LDW_16f9eb0
00001126 01             5866 	.byte	1
00001127 00             5867 	.byte	0
00001128 01             5868 	.byte	1
00001129 01             5869 	.byte	1
0000112a 00             5870 	.byte	0
0000112b 01             5871 	.byte	1
                        5872 
0000112c 00             5873 	.byte	0
                        5874 
                        5875 .LDW_4d4c000:
0000112d 16             5876 	.byte	22
0000112e 474554736354   5877 	.strz	"GETscTemperaturPD"
00001134 656d70657261 
0000113a 747572504400 
00001140 4c             5878 	.byte	76
00001141 0e             5879 	.byte	14
00001142 11             5880 	.byte	17
00001143 00000000*      5881 	.word	.LDW_4d09550
00001147 01             5882 	.byte	1
00001148 00             5883 	.byte	0
00001149 01             5884 	.byte	1
0000114a 01             5885 	.byte	1
0000114b 00             5886 	.byte	0
0000114c 01             5887 	.byte	1
                        5888 
0000114d 00             5889 	.byte	0
                        5890 
                        5891 .LDW_4d4c130:
0000114e 16             5892 	.byte	22
0000114f 474554756352   5893 	.strz	"GETucRestlebensdauerPD"
00001155 6573746c6562 
0000115b 656e73646175 
00001161 6572504400 
00001166 4f             5894 	.byte	79
00001167 0e             5895 	.byte	14
00001168 11             5896 	.byte	17
00001169 00000000*      5897 	.word	.LDW_16f9eb0
0000116d 01             5898 	.byte	1
0000116e 00             5899 	.byte	0
0000116f 01             5900 	.byte	1

                                                                      Page 110
                                                              C:\Users\nhuliyap\AppData\Local\Temp\gh_00008941.s
00001170 01             5901 	.byte	1
00001171 00             5902 	.byte	0
00001172 01             5903 	.byte	1
                        5904 
00001173 00             5905 	.byte	0
                        5906 
                        5907 .LDW_4d4c8e8:
00001174 16             5908 	.byte	22
00001175 474554756352   5909 	.strz	"GETucRadpositionPD"
0000117b 6164706f7369 
00001181 74696f6e5044 
00001187 00 
00001188 60             5910 	.byte	96
00001189 0e             5911 	.byte	14
0000118a 11             5912 	.byte	17
0000118b 00000000*      5913 	.word	.LDW_16f9eb0
0000118f 01             5914 	.byte	1
00001190 00             5915 	.byte	0
00001191 01             5916 	.byte	1
00001192 01             5917 	.byte	1
00001193 00             5918 	.byte	0
00001194 01             5919 	.byte	1
                        5920 
00001195 00             5921 	.byte	0
                        5922 
                        5923 .LDW_4d4fa78:
00001196 16             5924 	.byte	22
00001197 756c47657452   5925 	.strz	"ulGetReDataIdPD"
0000119d 654461746149 
000011a3 64504400 
000011a7 70             5926 	.byte	112
000011a8 0f             5927 	.byte	15
000011a9 11             5928 	.byte	17
000011aa 00000000*      5929 	.word	.LDW_4cff328
000011ae 01             5930 	.byte	1
000011af 00             5931 	.byte	0
000011b0 01             5932 	.byte	1
000011b1 01             5933 	.byte	1
000011b2 00             5934 	.byte	0
000011b3 01             5935 	.byte	1
                        5936 
000011b4 00             5937 	.byte	0
                        5938 
                        5939 .LDW_4d4f9e0:
000011b5 16             5940 	.byte	22
000011b6 756347657452   5941 	.strz	"ucGetReDataPreProcPressurePD"
000011bc 654461746150 
000011c2 726550726f63 
000011c8 507265737375 
000011ce 7265504400 
000011d3 8801           5942 	.byte	136,1
000011d5 0f             5943 	.byte	15
000011d6 11             5944 	.byte	17
000011d7 00000000*      5945 	.word	.LDW_16f9eb0
000011db 01             5946 	.byte	1
000011dc 00             5947 	.byte	0
000011dd 01             5948 	.byte	1
000011de 01             5949 	.byte	1
000011df 00             5950 	.byte	0
000011e0 01             5951 	.byte	1
                        5952 

                                                                      Page 111
                                                              C:\Users\nhuliyap\AppData\Local\Temp\gh_00008941.s
000011e1 00             5953 	.byte	0
                        5954 
                        5955 .LDW_4d4fb10:
000011e2 16             5956 	.byte	22
000011e3 736347657452   5957 	.strz	"scGetReDataPreProcTemperaturePD"
000011e9 654461746150 
000011ef 726550726f63 
000011f5 54656d706572 
000011fb 617475726550 
00001201 4400 
00001203 8a01           5958 	.byte	138,1
00001205 0f             5959 	.byte	15
00001206 11             5960 	.byte	17
00001207 00000000*      5961 	.word	.LDW_4d09550
0000120b 01             5962 	.byte	1
0000120c 00             5963 	.byte	0
0000120d 01             5964 	.byte	1
0000120e 01             5965 	.byte	1
0000120f 00             5966 	.byte	0
00001210 01             5967 	.byte	1
                        5968 
00001211 00             5969 	.byte	0
                        5970 
                        5971 .LDW_4d4f228:
00001212 16             5972 	.byte	22
00001213 756347657443   5973 	.strz	"ucGetColOfID"
00001219 6f6c4f664944 
0000121f 00 
00001220 a601           5974 	.byte	166,1
00001222 16             5975 	.byte	22
00001223 13             5976 	.byte	19
00001224 00000000*      5977 	.word	.LDW_16b7168
00001228 01             5978 	.byte	1
00001229 00             5979 	.byte	0
0000122a 01             5980 	.byte	1
0000122b 01             5981 	.byte	1
0000122c 00             5982 	.byte	0
0000122d 01             5983 	.byte	1
                        5984 
0000122e 00             5985 	.byte	0
                        5986 
                        5987 .LDW_4d4e778:
0000122f 16             5988 	.byte	22
00001230 756347657457   5989 	.strz	"ucGetWPOfCol"
00001236 504f66436f6c 
0000123c 00 
0000123d a701           5990 	.byte	167,1
0000123f 16             5991 	.byte	22
00001240 13             5992 	.byte	19
00001241 00000000*      5993 	.word	.LDW_16b7168
00001245 01             5994 	.byte	1
00001246 00             5995 	.byte	0
00001247 01             5996 	.byte	1
00001248 01             5997 	.byte	1
00001249 00             5998 	.byte	0
0000124a 01             5999 	.byte	1
                        6000 
0000124b 00             6001 	.byte	0
                        6002 
                        6003 .LDW_4d4f358:
0000124c 16             6004 	.byte	22

                                                                      Page 112
                                                              C:\Users\nhuliyap\AppData\Local\Temp\gh_00008941.s
0000124d 756c47657449   6005 	.strz	"ulGetID"
00001253 4400 
00001255 a801           6006 	.byte	168,1
00001257 16             6007 	.byte	22
00001258 13             6008 	.byte	19
00001259 00000000*      6009 	.word	.LDW_4ced7d8
0000125d 01             6010 	.byte	1
0000125e 00             6011 	.byte	0
0000125f 01             6012 	.byte	1
00001260 01             6013 	.byte	1
00001261 00             6014 	.byte	0
00001262 01             6015 	.byte	1
                        6016 
00001263 00             6017 	.byte	0
                        6018 
                        6019 .LDW_4d4f3f0:
00001264 16             6020 	.byte	22
00001265 756353657449   6021 	.strz	"ucSetID"
0000126b 4400 
0000126d a901           6022 	.byte	169,1
0000126f 0e             6023 	.byte	14
00001270 13             6024 	.byte	19
00001271 00000000*      6025 	.word	.LDW_16f9eb0
00001275 01             6026 	.byte	1
00001276 00             6027 	.byte	0
00001277 01             6028 	.byte	1
00001278 01             6029 	.byte	1
00001279 00             6030 	.byte	0
0000127a 01             6031 	.byte	1
                        6032 
0000127b 00             6033 	.byte	0
                        6034 
                        6035 .LDW_4d4f488:
0000127c 16             6036 	.byte	22
0000127d 756347657449   6037 	.strz	"ucGetIndexOfHistoryWP"
00001283 6e6465784f66 
00001289 486973746f72 
0000128f 79575000 
00001293 aa01           6038 	.byte	170,1
00001295 16             6039 	.byte	22
00001296 13             6040 	.byte	19
00001297 00000000*      6041 	.word	.LDW_16b7168
0000129b 01             6042 	.byte	1
0000129c 00             6043 	.byte	0
0000129d 01             6044 	.byte	1
0000129e 01             6045 	.byte	1
0000129f 00             6046 	.byte	0
000012a0 01             6047 	.byte	1
                        6048 
000012a1 00             6049 	.byte	0
                        6050 
                        6051 .LDW_4d53328:
000012a2 16             6052 	.byte	22
000012a3 75635761726e   6053 	.strz	"ucWarnManagerWN"
000012a9 4d616e616765 
000012af 72574e00 
000012b3 18             6054 	.byte	24
000012b4 16             6055 	.byte	22
000012b5 16             6056 	.byte	22
000012b6 00000000*      6057 	.word	.LDW_16b7168
000012ba 01             6058 	.byte	1

                                                                      Page 113
                                                              C:\Users\nhuliyap\AppData\Local\Temp\gh_00008941.s
000012bb 00             6059 	.byte	0
000012bc 01             6060 	.byte	1
000012bd 01             6061 	.byte	1
000012be 00             6062 	.byte	0
000012bf 01             6063 	.byte	1
                        6064 
000012c0 00             6065 	.byte	0
                        6066 
                        6067 .LDW_4d53880:
000012c1 16             6068 	.byte	22
000012c2 75635453534d   6069 	.strz	"ucTSSMsgManagerTM"
000012c8 73674d616e61 
000012ce 676572544d00 
000012d4 35             6070 	.byte	53
000012d5 16             6071 	.byte	22
000012d6 16             6072 	.byte	22
000012d7 00000000*      6073 	.word	.LDW_16b7168
000012db 01             6074 	.byte	1
000012dc 00             6075 	.byte	0
000012dd 01             6076 	.byte	1
000012de 01             6077 	.byte	1
000012df 00             6078 	.byte	0
000012e0 01             6079 	.byte	1
                        6080 
000012e1 00             6081 	.byte	0
                        6082 
                        6083 .LDW_4d53750:
000012e2 16             6084 	.byte	22
000012e3 756350757450   6085 	.strz	"ucPutPMinCS"
000012e9 4d696e435300 
000012ef 06             6086 	.byte	6
000012f0 16             6087 	.byte	22
000012f1 17             6088 	.byte	23
000012f2 00000000*      6089 	.word	.LDW_16b7168
000012f6 01             6090 	.byte	1
000012f7 00             6091 	.byte	0
000012f8 01             6092 	.byte	1
000012f9 01             6093 	.byte	1
000012fa 00             6094 	.byte	0
000012fb 01             6095 	.byte	1
                        6096 
000012fc 00             6097 	.byte	0
                        6098 
                        6099 .LDW_4d575a0:
000012fd 15             6100 	.byte	21
000012fe 476574574144   6101 	.strz	"GetWADataEE"
00001304 617461454500 
0000130a 9201           6102 	.byte	146,1
0000130c 0d             6103 	.byte	13
0000130d 18             6104 	.byte	24
0000130e 01             6105 	.byte	1
0000130f 00             6106 	.byte	0
00001310 01             6107 	.byte	1
00001311 01             6108 	.byte	1
00001312 00             6109 	.byte	0
00001313 01             6110 	.byte	1
                        6111 
00001314 00             6112 	.byte	0
                        6113 
                        6114 .LDW_4d58a60:
00001315 15             6115 	.byte	21

                                                                      Page 114
                                                              C:\Users\nhuliyap\AppData\Local\Temp\gh_00008941.s
00001316 507574574144   6116 	.strz	"PutWADataEE"
0000131c 617461454500 
00001322 9301           6117 	.byte	147,1
00001324 0d             6118 	.byte	13
00001325 18             6119 	.byte	24
00001326 01             6120 	.byte	1
00001327 00             6121 	.byte	0
00001328 01             6122 	.byte	1
00001329 01             6123 	.byte	1
0000132a 00             6124 	.byte	0
0000132b 01             6125 	.byte	1
                        6126 
0000132c 00             6127 	.byte	0
                        6128 
                        6129 .LDW_4d58cc0:
0000132d 15             6130 	.byte	21
0000132e 505554756356   6131 	.strz	"PUTucVarCodLegislationEE"
00001334 6172436f644c 
0000133a 656769736c61 
00001340 74696f6e4545 
00001346 00 
00001347 a201           6132 	.byte	162,1
00001349 10             6133 	.byte	16
0000134a 18             6134 	.byte	24
0000134b 01             6135 	.byte	1
0000134c 00             6136 	.byte	0
0000134d 01             6137 	.byte	1
0000134e 01             6138 	.byte	1
0000134f 00             6139 	.byte	0
00001350 01             6140 	.byte	1
                        6141 
00001351 00             6142 	.byte	0
                        6143 
                        6144 .LDW_4d582a8:
00001352 16             6145 	.byte	22
00001353 474554756356   6146 	.strz	"GETucVarCodLegislationEE"
00001359 6172436f644c 
0000135f 656769736c61 
00001365 74696f6e4545 
0000136b 00 
0000136c a301           6147 	.byte	163,1
0000136e 10             6148 	.byte	16
0000136f 18             6149 	.byte	24
00001370 00000000*      6150 	.word	.LDW_16f9eb0
00001374 01             6151 	.byte	1
00001375 00             6152 	.byte	0
00001376 01             6153 	.byte	1
00001377 01             6154 	.byte	1
00001378 00             6155 	.byte	0
00001379 01             6156 	.byte	1
                        6157 
0000137a 00             6158 	.byte	0
                        6159 
                        6160 .LDW_4d58178:
0000137b 15             6161 	.byte	21
0000137c 4e764d335f50   6162 	.strz	"NvM3_PUTucVarCodTemperatureWarningThresEE"
00001382 555475635661 
00001388 72436f645465 
0000138e 6d7065726174 
00001394 757265576172 
0000139a 6e696e675468 

                                                                      Page 115
                                                              C:\Users\nhuliyap\AppData\Local\Temp\gh_00008941.s
000013a0 726573454500 
000013a6 a601           6163 	.byte	166,1
000013a8 0d             6164 	.byte	13
000013a9 18             6165 	.byte	24
000013aa 01             6166 	.byte	1
000013ab 00             6167 	.byte	0
000013ac 01             6168 	.byte	1
000013ad 01             6169 	.byte	1
000013ae 00             6170 	.byte	0
000013af 01             6171 	.byte	1
                        6172 
000013b0 00             6173 	.byte	0
                        6174 
                        6175 .LDW_4d57cb8:
000013b1 16             6176 	.byte	22
000013b2 4e764d335f47   6177 	.strz	"NvM3_GETucVarCodTemperatureWarningThresEE"
000013b8 455475635661 
000013be 72436f645465 
000013c4 6d7065726174 
000013ca 757265576172 
000013d0 6e696e675468 
000013d6 726573454500 
000013dc a701           6178 	.byte	167,1
000013de 0e             6179 	.byte	14
000013df 18             6180 	.byte	24
000013e0 00000000*      6181 	.word	.LDW_4d09550
000013e4 01             6182 	.byte	1
000013e5 00             6183 	.byte	0
000013e6 01             6184 	.byte	1
000013e7 01             6185 	.byte	1
000013e8 00             6186 	.byte	0
000013e9 01             6187 	.byte	1
                        6188 
000013ea 00             6189 	.byte	0
                        6190 
                        6191 .LDW_4d57af0:
000013eb 15             6192 	.byte	21
000013ec 4e764d335f50   6193 	.strz	"NvM3_PUTucVarCodOffroadPlacardPress"
000013f2 555475635661 
000013f8 72436f644f66 
000013fe 66726f616450 
00001404 6c6163617264 
0000140a 507265737300 
00001410 a801           6194 	.byte	168,1
00001412 0d             6195 	.byte	13
00001413 18             6196 	.byte	24
00001414 01             6197 	.byte	1
00001415 00             6198 	.byte	0
00001416 01             6199 	.byte	1
00001417 01             6200 	.byte	1
00001418 00             6201 	.byte	0
00001419 01             6202 	.byte	1
                        6203 
0000141a 00             6204 	.byte	0
                        6205 
                        6206 .LDW_4d58af8:
0000141b 16             6207 	.byte	22
0000141c 4e764d335f47   6208 	.strz	"NvM3_GETucVarCodOffroadPlacardPress"
00001422 455475635661 
00001428 72436f644f66 
0000142e 66726f616450 

                                                                      Page 116
                                                              C:\Users\nhuliyap\AppData\Local\Temp\gh_00008941.s
00001434 6c6163617264 
0000143a 507265737300 
00001440 a901           6209 	.byte	169,1
00001442 0e             6210 	.byte	14
00001443 18             6211 	.byte	24
00001444 00000000*      6212 	.word	.LDW_16f9eb0
00001448 01             6213 	.byte	1
00001449 00             6214 	.byte	0
0000144a 01             6215 	.byte	1
0000144b 01             6216 	.byte	1
0000144c 00             6217 	.byte	0
0000144d 01             6218 	.byte	1
                        6219 
0000144e 00             6220 	.byte	0
                        6221 
                        6222 .LDW_4d58b90:
0000144f 15             6223 	.byte	21
00001450 505554756356   6224 	.strz	"PUTucVarCodPlacardPressEE"
00001456 6172436f6450 
0000145c 6c6163617264 
00001462 507265737345 
00001468 4500 
0000146a aa01           6225 	.byte	170,1
0000146c 10             6226 	.byte	16
0000146d 18             6227 	.byte	24
0000146e 01             6228 	.byte	1
0000146f 00             6229 	.byte	0
00001470 01             6230 	.byte	1
00001471 01             6231 	.byte	1
00001472 00             6232 	.byte	0
00001473 01             6233 	.byte	1
                        6234 
00001474 00             6235 	.byte	0
                        6236 
                        6237 .LDW_4d58048:
00001475 16             6238 	.byte	22
00001476 474554756356   6239 	.strz	"GETucVarCodPlacardPressEE"
0000147c 6172436f6450 
00001482 6c6163617264 
00001488 507265737345 
0000148e 4500 
00001490 ab01           6240 	.byte	171,1
00001492 10             6241 	.byte	16
00001493 18             6242 	.byte	24
00001494 00000000*      6243 	.word	.LDW_16f9eb0
00001498 01             6244 	.byte	1
00001499 00             6245 	.byte	0
0000149a 01             6246 	.byte	1
0000149b 01             6247 	.byte	1
0000149c 00             6248 	.byte	0
0000149d 01             6249 	.byte	1
                        6250 
0000149e 00             6251 	.byte	0
                        6252 
                        6253 .LDW_4d57c20:
0000149f 15             6254 	.byte	21
000014a0 505554756356   6255 	.strz	"PUTucVarCodMinPressThresEE"
000014a6 6172436f644d 
000014ac 696e50726573 
000014b2 735468726573 
000014b8 454500 

                                                                      Page 117
                                                              C:\Users\nhuliyap\AppData\Local\Temp\gh_00008941.s
000014bb ac01           6256 	.byte	172,1
000014bd 10             6257 	.byte	16
000014be 18             6258 	.byte	24
000014bf 01             6259 	.byte	1
000014c0 00             6260 	.byte	0
000014c1 01             6261 	.byte	1
000014c2 01             6262 	.byte	1
000014c3 00             6263 	.byte	0
000014c4 01             6264 	.byte	1
                        6265 
000014c5 00             6266 	.byte	0
                        6267 
                        6268 .LDW_4d58930:
000014c6 16             6269 	.byte	22
000014c7 474554756356   6270 	.strz	"GETucVarCodMinPressThresEE"
000014cd 6172436f644d 
000014d3 696e50726573 
000014d9 735468726573 
000014df 454500 
000014e2 ad01           6271 	.byte	173,1
000014e4 10             6272 	.byte	16
000014e5 18             6273 	.byte	24
000014e6 00000000*      6274 	.word	.LDW_16f9eb0
000014ea 01             6275 	.byte	1
000014eb 00             6276 	.byte	0
000014ec 01             6277 	.byte	1
000014ed 01             6278 	.byte	1
000014ee 00             6279 	.byte	0
000014ef 01             6280 	.byte	1
                        6281 
000014f0 00             6282 	.byte	0
                        6283 
                        6284 .LDW_4d598a0:
000014f1 15             6285 	.byte	21
000014f2 4e764d5f5772   6286 	.strz	"NvM_WriteData_ECUDefect"
000014f8 697465446174 
000014fe 615f45435544 
00001504 656665637400 
0000150a ca01           6287 	.byte	202,1
0000150c 10             6288 	.byte	16
0000150d 18             6289 	.byte	24
0000150e 01             6290 	.byte	1
0000150f 00             6291 	.byte	0
00001510 01             6292 	.byte	1
00001511 01             6293 	.byte	1
00001512 00             6294 	.byte	0
00001513 01             6295 	.byte	1
                        6296 
00001514 00             6297 	.byte	0
                        6298 
                        6299 .LDW_4d58fb8:
00001515 15             6300 	.byte	21
00001516 4e764d5f5265   6301 	.strz	"NvM_ReadData_ECUDefect"
0000151c 616444617461 
00001522 5f4543554465 
00001528 6665637400 
0000152d cb01           6302 	.byte	203,1
0000152f 10             6303 	.byte	16
00001530 18             6304 	.byte	24
00001531 01             6305 	.byte	1
00001532 00             6306 	.byte	0

                                                                      Page 118
                                                              C:\Users\nhuliyap\AppData\Local\Temp\gh_00008941.s
00001533 01             6307 	.byte	1
00001534 01             6308 	.byte	1
00001535 00             6309 	.byte	0
00001536 01             6310 	.byte	1
                        6311 
00001537 00             6312 	.byte	0
                        6313 
                        6314 .LDW_4d58e88:
00001538 15             6315 	.byte	21
00001539 507574446174   6316 	.strz	"PutDataEE"
0000153f 61454500 
00001543 07             6317 	.byte	7
00001544 0d             6318 	.byte	13
00001545 19             6319 	.byte	25
00001546 01             6320 	.byte	1
00001547 00             6321 	.byte	0
00001548 01             6322 	.byte	1
00001549 01             6323 	.byte	1
0000154a 00             6324 	.byte	0
0000154b 01             6325 	.byte	1
                        6326 
0000154c 00             6327 	.byte	0
                        6328 
                        6329 .LDW_4d593e0:
0000154d 15             6330 	.byte	21
0000154e 43616c696272   6331 	.strz	"CalibrSetPressureCAL"
00001554 536574507265 
0000155a 737375726543 
00001560 414c00 
00001563 0c             6332 	.byte	12
00001564 0d             6333 	.byte	13
00001565 1a             6334 	.byte	26
00001566 01             6335 	.byte	1
00001567 00             6336 	.byte	0
00001568 01             6337 	.byte	1
00001569 01             6338 	.byte	1
0000156a 00             6339 	.byte	0
0000156b 01             6340 	.byte	1
                        6341 
0000156c 00             6342 	.byte	0
                        6343 
                        6344 .LDW_4d590e8:
0000156d 16             6345 	.byte	22
0000156e 454f4c5f5374   6346 	.strz	"EOL_StartLearnRoutine"
00001574 6172744c6561 
0000157a 726e526f7574 
00001580 696e6500 
00001584 14             6347 	.byte	20
00001585 0e             6348 	.byte	14
00001586 1d             6349 	.byte	29
00001587 00000000*      6350 	.word	.LDW_16f9eb0
0000158b 01             6351 	.byte	1
0000158c 00             6352 	.byte	0
0000158d 01             6353 	.byte	1
0000158e 01             6354 	.byte	1
0000158f 00             6355 	.byte	0
00001590 01             6356 	.byte	1
                        6357 
00001591 00             6358 	.byte	0
                        6359 
                        6360 .LDW_4d59180:

                                                                      Page 119
                                                              C:\Users\nhuliyap\AppData\Local\Temp\gh_00008941.s
00001592 15             6361 	.byte	21
00001593 454f4c5f5265   6362 	.strz	"EOL_ResetLearnRoutine"
00001599 7365744c6561 
0000159f 726e526f7574 
000015a5 696e6500 
000015a9 15             6363 	.byte	21
000015aa 0d             6364 	.byte	13
000015ab 1d             6365 	.byte	29
000015ac 01             6366 	.byte	1
000015ad 00             6367 	.byte	0
000015ae 01             6368 	.byte	1
000015af 01             6369 	.byte	1
000015b0 00             6370 	.byte	0
000015b1 01             6371 	.byte	1
                        6372 
000015b2 00             6373 	.byte	0
                        6374 
                        6375 .LDW_4d59510:
000015b3 16             6376 	.byte	22
000015b4 454f4c5f4765   6377 	.strz	"EOL_GetStatusEOLRoutine"
000015ba 745374617475 
000015c0 73454f4c526f 
000015c6 7574696e6500 
000015cc 17             6378 	.byte	23
000015cd 0e             6379 	.byte	14
000015ce 1d             6380 	.byte	29
000015cf 00000000*      6381 	.word	.LDW_16f9eb0
000015d3 01             6382 	.byte	1
000015d4 00             6383 	.byte	0
000015d5 01             6384 	.byte	1
000015d6 01             6385 	.byte	1
000015d7 00             6386 	.byte	0
000015d8 01             6387 	.byte	1
                        6388 
000015d9 00             6389 	.byte	0
                        6390 
                        6391 .LDW_4d59218:
000015da 15             6392 	.byte	21
000015db 454f4c5f5075   6393 	.strz	"EOL_PutStatusEOLRoutine"
000015e1 745374617475 
000015e7 73454f4c526f 
000015ed 7574696e6500 
000015f3 18             6394 	.byte	24
000015f4 0d             6395 	.byte	13
000015f5 1d             6396 	.byte	29
000015f6 01             6397 	.byte	1
000015f7 00             6398 	.byte	0
000015f8 01             6399 	.byte	1
000015f9 01             6400 	.byte	1
000015fa 00             6401 	.byte	0
000015fb 01             6402 	.byte	1
                        6403 
000015fc 00             6404 	.byte	0
                        6405 
                        6406 .LDW_16f9fb8:
000015fd 14             6407 	.byte	20
000015fe 444941475f5f   6408 	.strz	"DIAG__ReqCallback_ReadWSNr01"
00001604 52657143616c 
0000160a 6c6261636b5f 
00001610 526561645753 
00001616 4e72303100 

                                                                      Page 120
                                                              C:\Users\nhuliyap\AppData\Local\Temp\gh_00008941.s
0000161b 8601           6409 	.byte	134,1
0000161d 0e             6410 	.byte	14
0000161e 01             6411 	.byte	1
0000161f 00000000*      6412 	.word	.LDW_16f9eb0
00001623 00000000*      6413 	.word	_DIAG__ReqCallback_ReadWSNr01..C.3A.5C_ECU2.5CECU_Rivian_A1.5CTarget.5Crepo_projects.5CpRealEcu.5CcL_LATEST.5Cmake.5Coutput.5Cobjects.5CSwcApplTpms_Diag.
00001627 00000000*      6414 	.word	___ghs_eofn_DIAG__ReqCallback_ReadWSNr01
0000162b 0153           6415 	.byte	1,83
0000162d 828080c00b     6416 	.byte	130,128,128,192,11
00001632 10             6417 	.byte	16
00001633 03             6418 	.byte	3
00001634 10             6419 	.byte	16
00001635 00             6420 	.byte	0
00001636 00             6421 	.byte	0
00001637 00             6422 	.byte	0
00001638 00             6423 	.byte	0
00001639 01             6424 	.byte	1
0000163a 00             6425 	.byte	0
0000163b 01             6426 	.byte	1
                        6427 
                        6428 	.section	.debug_abbrev
00000130 14             6429 	.byte	20
00000131 2e             6430 	.byte	46
00000132 01             6431 	.byte	1
00000133 0308           6432 	.byte	3,8
00000135 3b0f           6433 	.byte	59,15
00000137 390f           6434 	.byte	57,15
00000139 3a0f           6435 	.byte	58,15
0000013b 4910           6436 	.byte	73,16
0000013d 1101           6437 	.byte	17,1
0000013f 1201           6438 	.byte	18,1
00000141 400a           6439 	.byte	64,10
00000143 8341           6440 	.byte	131,65
00000145 0f             6441 	.byte	15
00000146 8741           6442 	.byte	135,65
00000148 0d             6443 	.byte	13
00000149 8541           6444 	.byte	133,65
0000014b 0f             6445 	.byte	15
0000014c 8641           6446 	.byte	134,65
0000014e 0d             6447 	.byte	13
0000014f 9241           6448 	.byte	146,65
00000151 0f             6449 	.byte	15
00000152 3c0c           6450 	.byte	60,12
00000154 200b           6451 	.byte	32,11
00000156 3f0c           6452 	.byte	63,12
00000158 320b           6453 	.byte	50,11
0000015a 4c0b           6454 	.byte	76,11
0000015c 270c           6455 	.byte	39,12
0000015e 0000           6456 	.byte	0,0
                        6457 
                        6458 	.section	.debug_frame
                        6459 .LDW_4d3e3e8:
00000090 00000000*      6460 	.word	.LDW_unq_4-.LDW_unq_3
                        6461 .LDW_unq_3:
00000094 00000000*      6462 	.word	.LDW_4ca0d40
00000098 00000000*      6463 	.word	_DIAG__ReqCallback_ReadWSNr01..C.3A.5C_ECU2.5CECU_Rivian_A1.5CTarget.5Crepo_projects.5CpRealEcu.5CcL_LATEST.5Cmake.5Coutput.5Cobjects.5CSwcApplTpms_Diag.
0000009c 00000000*      6464 	.word	___ghs_eofn_DIAG__ReqCallback_ReadWSNr01-_DIAG__ReqCallback_ReadWSNr01..C.3A.5C_ECU2.5CECU_Rivian_A1.5CTarget.5Crepo_projects.5CpRealEcu.5CcL_LATEST.5Cmake.5Coutput.5Cobjects.5CSwcApplTpms_Diag.
000000a0 44             6465 	.byte	68
000000a1 9f             6466 	.byte	159
000000a2 00             6467 	.byte	0
000000a3 40             6468 	.byte	64
000000a4 9d             6469 	.byte	157

                                                                      Page 121
                                                              C:\Users\nhuliyap\AppData\Local\Temp\gh_00008941.s
000000a5 04             6470 	.byte	4
000000a6 40             6471 	.byte	64
000000a7 9c             6472 	.byte	156
000000a8 08             6473 	.byte	8
000000a9 40             6474 	.byte	64
000000aa 9b             6475 	.byte	155
000000ab 0c             6476 	.byte	12
000000ac 01             6477 	.byte	1
000000ad 00000000*      6478 	.word	.LDW31
000000b1 00             6479 	.byte	0
000000b2 00             6480 	.byte	0
000000b3 00             6481 	.byte	0
                        6482 .LDW_unq_4:
                        6483 	.section	.debug_line
000004bc 000502         6484 	.byte	0,5,2
000004bf 00000000*      6485 	.word	_DIAG__ReqCallback_ReadWSNr01..C.3A.5C_ECU2.5CECU_Rivian_A1.5CTarget.5Crepo_projects.5CpRealEcu.5CcL_LATEST.5Cmake.5Coutput.5Cobjects.5CSwcApplTpms_Diag.
000004c3 03             6486 	.byte	3
000004c4 8601           6487 	.byte	134,1
000004c6 02             6488 	.byte	2
000004c7 00             6489 	.byte	0
000004c8 01             6490 	.byte	1
000004c9 06             6491 	.byte	6
000004ca 000502         6492 	.byte	0,5,2
000004cd 00000000*      6493 	.word	.LDWlin9
000004d1 0d             6494 	.byte	13
000004d2 02             6495 	.byte	2
000004d3 02             6496 	.byte	2
000004d4 0c             6497 	.byte	12
000004d5 03             6498 	.byte	3
000004d6 7e             6499 	.byte	126
000004d7 02             6500 	.byte	2
000004d8 04             6501 	.byte	4
000004d9 01             6502 	.byte	1
000004da 000502         6503 	.byte	0,5,2
000004dd 00000000*      6504 	.word	.LDWlin10
000004e1 0d             6505 	.byte	13
000004e2 0b             6506 	.byte	11
000004e3 000502         6507 	.byte	0,5,2
000004e6 00000000*      6508 	.word	.LDWlin11
000004ea 0c             6509 	.byte	12
000004eb 14             6510 	.byte	20
000004ec 2b             6511 	.byte	43
000004ed 14             6512 	.byte	20
000004ee 06             6513 	.byte	6
000004ef 02             6514 	.byte	2
000004f0 02             6515 	.byte	2
000004f1 02             6516 	.byte	2
000004f2 04             6517 	.byte	4
000004f3 000101         6518 	.byte	0,1,1
                        6519 	.section	.debug_info
                        6520 .LDW_16fa050:
0000163c 0f             6521 	.byte	15
0000163d 50535f4d7367   6522 	.strz	"PS_MsgContext"
00001643 436f6e746578 
00001649 7400 
0000164b 8601           6523 	.byte	134,1
0000164d 3c             6524 	.byte	60
0000164e 01             6525 	.byte	1
0000164f 00000000*      6526 	.word	.LDW_16b6d78
00001653 00             6527 	.byte	0
00001654 016b           6528 	.byte	1,107

                                                                      Page 122
                                                              C:\Users\nhuliyap\AppData\Local\Temp\gh_00008941.s
                        6529 
                        6530 	.section	.debug_abbrev
00000160 0f             6531 	.byte	15
00000161 05             6532 	.byte	5
00000162 00             6533 	.byte	0
00000163 0308           6534 	.byte	3,8
00000165 3b0f           6535 	.byte	59,15
00000167 390f           6536 	.byte	57,15
00000169 3a0f           6537 	.byte	58,15
0000016b 4910           6538 	.byte	73,16
0000016d 4b0c           6539 	.byte	75,12
0000016f 020a           6540 	.byte	2,10
00000171 0000           6541 	.byte	0,0
                        6542 
                        6543 	.section	.debug_info
                        6544 .LDW_16fe990:
00001656 1d             6545 	.byte	29
00001657 00000000*      6546 	.word	.LDW21
0000165b 00000000*      6547 	.word	.LDW31
                        6548 
                        6549 	.section	.debug_abbrev
00000173 1d             6550 	.byte	29
00000174 0b             6551 	.byte	11
00000175 01             6552 	.byte	1
00000176 1101           6553 	.byte	17,1
00000178 1201           6554 	.byte	18,1
0000017a 0000           6555 	.byte	0,0
                        6556 
                        6557 	.section	.debug_info
                        6558 .LDW_16fa0a8:
0000165f 05             6559 	.byte	5
00001660 55385f526574   6560 	.strz	"U8_RetVal"
00001666 56616c00 
0000166a 8801           6561 	.byte	136,1
0000166c 09             6562 	.byte	9
0000166d 01             6563 	.byte	1
0000166e 00000000*      6564 	.word	.LDW_16f9eb0
00001672 00             6565 	.byte	0
00001673 00             6566 	.byte	0
                        6567 
                        6568 .LDW_16fa100:
00001674 04             6569 	.byte	4
00001675 55385f4c6f6f   6570 	.strz	"U8_LoopCnt"
0000167b 70436e7400 
00001680 8901           6571 	.byte	137,1
00001682 09             6572 	.byte	9
00001683 01             6573 	.byte	1
00001684 00000000*      6574 	.word	.LDW_16f9eb0
00001688 00             6575 	.byte	0
00001689 00             6576 	.byte	0
0000168a 0162           6577 	.byte	1,98
                        6578 
0000168c 00             6579 	.byte	0
                        6580 
0000168d 00             6581 	.byte	0
                        6582 
                        6583 .LDW_16fa158:
0000168e 14             6584 	.byte	20
0000168f 444941475f5f   6585 	.strz	"DIAG__ReqCallback_ReadWSNr02"
00001695 52657143616c 
0000169b 6c6261636b5f 

                                                                      Page 123
                                                              C:\Users\nhuliyap\AppData\Local\Temp\gh_00008941.s
000016a1 526561645753 
000016a7 4e72303200 
000016ac 9801           6586 	.byte	152,1
000016ae 0e             6587 	.byte	14
000016af 01             6588 	.byte	1
000016b0 00000000*      6589 	.word	.LDW_16f9eb0
000016b4 00000000*      6590 	.word	_DIAG__ReqCallback_ReadWSNr02..C.3A.5C_ECU2.5CECU_Rivian_A1.5CTarget.5Crepo_projects.5CpRealEcu.5CcL_LATEST.5Cmake.5Coutput.5Cobjects.5CSwcApplTpms_Diag.
000016b8 00000000*      6591 	.word	___ghs_eofn_DIAG__ReqCallback_ReadWSNr02
000016bc 0153           6592 	.byte	1,83
000016be 828080c00b     6593 	.byte	130,128,128,192,11
000016c3 10             6594 	.byte	16
000016c4 03             6595 	.byte	3
000016c5 10             6596 	.byte	16
000016c6 00             6597 	.byte	0
000016c7 00             6598 	.byte	0
000016c8 00             6599 	.byte	0
000016c9 00             6600 	.byte	0
000016ca 01             6601 	.byte	1
000016cb 00             6602 	.byte	0
000016cc 01             6603 	.byte	1
                        6604 
                        6605 	.section	.debug_frame
                        6606 .LDW_4d3e428:
000000b4 00000000*      6607 	.word	.LDW_unq_6-.LDW_unq_5
                        6608 .LDW_unq_5:
000000b8 00000000*      6609 	.word	.LDW_4ca0d40
000000bc 00000000*      6610 	.word	_DIAG__ReqCallback_ReadWSNr02..C.3A.5C_ECU2.5CECU_Rivian_A1.5CTarget.5Crepo_projects.5CpRealEcu.5CcL_LATEST.5Cmake.5Coutput.5Cobjects.5CSwcApplTpms_Diag.
000000c0 00000000*      6611 	.word	___ghs_eofn_DIAG__ReqCallback_ReadWSNr02-_DIAG__ReqCallback_ReadWSNr02..C.3A.5C_ECU2.5CECU_Rivian_A1.5CTarget.5Crepo_projects.5CpRealEcu.5CcL_LATEST.5Cmake.5Coutput.5Cobjects.5CSwcApplTpms_Diag.
000000c4 44             6612 	.byte	68
000000c5 9f             6613 	.byte	159
000000c6 00             6614 	.byte	0
000000c7 40             6615 	.byte	64
000000c8 9d             6616 	.byte	157
000000c9 04             6617 	.byte	4
000000ca 40             6618 	.byte	64
000000cb 9c             6619 	.byte	156
000000cc 08             6620 	.byte	8
000000cd 40             6621 	.byte	64
000000ce 9b             6622 	.byte	155
000000cf 0c             6623 	.byte	12
000000d0 01             6624 	.byte	1
000000d1 00000000*      6625 	.word	.LDW51
000000d5 00             6626 	.byte	0
000000d6 00             6627 	.byte	0
000000d7 00             6628 	.byte	0
                        6629 .LDW_unq_6:
                        6630 	.section	.debug_line
000004f6 000502         6631 	.byte	0,5,2
000004f9 00000000*      6632 	.word	_DIAG__ReqCallback_ReadWSNr02..C.3A.5C_ECU2.5CECU_Rivian_A1.5CTarget.5Crepo_projects.5CpRealEcu.5CcL_LATEST.5Cmake.5Coutput.5Cobjects.5CSwcApplTpms_Diag.
000004fd 03             6633 	.byte	3
000004fe 9801           6634 	.byte	152,1
00000500 02             6635 	.byte	2
00000501 00             6636 	.byte	0
00000502 01             6637 	.byte	1
00000503 06             6638 	.byte	6
00000504 000502         6639 	.byte	0,5,2
00000507 00000000*      6640 	.word	.LDWlin12
0000050b 0d             6641 	.byte	13
0000050c 02             6642 	.byte	2
0000050d 02             6643 	.byte	2
0000050e 0c             6644 	.byte	12

                                                                      Page 124
                                                              C:\Users\nhuliyap\AppData\Local\Temp\gh_00008941.s
0000050f 03             6645 	.byte	3
00000510 7e             6646 	.byte	126
00000511 02             6647 	.byte	2
00000512 04             6648 	.byte	4
00000513 01             6649 	.byte	1
00000514 000502         6650 	.byte	0,5,2
00000517 00000000*      6651 	.word	.LDWlin13
0000051b 0d             6652 	.byte	13
0000051c 0b             6653 	.byte	11
0000051d 000502         6654 	.byte	0,5,2
00000520 00000000*      6655 	.word	.LDWlin14
00000524 0c             6656 	.byte	12
00000525 14             6657 	.byte	20
00000526 2b             6658 	.byte	43
00000527 14             6659 	.byte	20
00000528 06             6660 	.byte	6
00000529 02             6661 	.byte	2
0000052a 02             6662 	.byte	2
0000052b 02             6663 	.byte	2
0000052c 04             6664 	.byte	4
0000052d 000101         6665 	.byte	0,1,1
                        6666 	.section	.debug_info
                        6667 .LDW_16fa1f0:
000016cd 0f             6668 	.byte	15
000016ce 50535f4d7367   6669 	.strz	"PS_MsgContext"
000016d4 436f6e746578 
000016da 7400 
000016dc 9801           6670 	.byte	152,1
000016de 3c             6671 	.byte	60
000016df 01             6672 	.byte	1
000016e0 00000000*      6673 	.word	.LDW_16b6d78
000016e4 00             6674 	.byte	0
000016e5 016b           6675 	.byte	1,107
                        6676 
                        6677 .LDW_16fe480:
000016e7 1d             6678 	.byte	29
000016e8 00000000*      6679 	.word	.LDW41
000016ec 00000000*      6680 	.word	.LDW51
                        6681 
                        6682 .LDW_16fa248:
000016f0 05             6683 	.byte	5
000016f1 55385f526574   6684 	.strz	"U8_RetVal"
000016f7 56616c00 
000016fb 9a01           6685 	.byte	154,1
000016fd 09             6686 	.byte	9
000016fe 01             6687 	.byte	1
000016ff 00000000*      6688 	.word	.LDW_16f9eb0
00001703 00             6689 	.byte	0
00001704 00             6690 	.byte	0
                        6691 
                        6692 .LDW_16fa2a0:
00001705 04             6693 	.byte	4
00001706 55385f4c6f6f   6694 	.strz	"U8_LoopCnt"
0000170c 70436e7400 
00001711 9b01           6695 	.byte	155,1
00001713 09             6696 	.byte	9
00001714 01             6697 	.byte	1
00001715 00000000*      6698 	.word	.LDW_16f9eb0
00001719 00             6699 	.byte	0
0000171a 00             6700 	.byte	0
0000171b 0162           6701 	.byte	1,98

                                                                      Page 125
                                                              C:\Users\nhuliyap\AppData\Local\Temp\gh_00008941.s
                        6702 
0000171d 00             6703 	.byte	0
                        6704 
0000171e 00             6705 	.byte	0
                        6706 
                        6707 .LDW_4bc6e38:
0000171f 14             6708 	.byte	20
00001720 444941475f5f   6709 	.strz	"DIAG__ReqCallback_ReadWSNr03"
00001726 52657143616c 
0000172c 6c6261636b5f 
00001732 526561645753 
00001738 4e72303300 
0000173d aa01           6710 	.byte	170,1
0000173f 0e             6711 	.byte	14
00001740 01             6712 	.byte	1
00001741 00000000*      6713 	.word	.LDW_16f9eb0
00001745 00000000*      6714 	.word	_DIAG__ReqCallback_ReadWSNr03..C.3A.5C_ECU2.5CECU_Rivian_A1.5CTarget.5Crepo_projects.5CpRealEcu.5CcL_LATEST.5Cmake.5Coutput.5Cobjects.5CSwcApplTpms_Diag.
00001749 00000000*      6715 	.word	___ghs_eofn_DIAG__ReqCallback_ReadWSNr03
0000174d 0153           6716 	.byte	1,83
0000174f 828080c00b     6717 	.byte	130,128,128,192,11
00001754 10             6718 	.byte	16
00001755 03             6719 	.byte	3
00001756 10             6720 	.byte	16
00001757 00             6721 	.byte	0
00001758 00             6722 	.byte	0
00001759 00             6723 	.byte	0
0000175a 00             6724 	.byte	0
0000175b 01             6725 	.byte	1
0000175c 00             6726 	.byte	0
0000175d 01             6727 	.byte	1
                        6728 
                        6729 	.section	.debug_frame
                        6730 .LDW_4d3ed28:
000000d8 00000000*      6731 	.word	.LDW_unq_8-.LDW_unq_7
                        6732 .LDW_unq_7:
000000dc 00000000*      6733 	.word	.LDW_4ca0d40
000000e0 00000000*      6734 	.word	_DIAG__ReqCallback_ReadWSNr03..C.3A.5C_ECU2.5CECU_Rivian_A1.5CTarget.5Crepo_projects.5CpRealEcu.5CcL_LATEST.5Cmake.5Coutput.5Cobjects.5CSwcApplTpms_Diag.
000000e4 00000000*      6735 	.word	___ghs_eofn_DIAG__ReqCallback_ReadWSNr03-_DIAG__ReqCallback_ReadWSNr03..C.3A.5C_ECU2.5CECU_Rivian_A1.5CTarget.5Crepo_projects.5CpRealEcu.5CcL_LATEST.5Cmake.5Coutput.5Cobjects.5CSwcApplTpms_Diag.
000000e8 44             6736 	.byte	68
000000e9 9f             6737 	.byte	159
000000ea 00             6738 	.byte	0
000000eb 40             6739 	.byte	64
000000ec 9d             6740 	.byte	157
000000ed 04             6741 	.byte	4
000000ee 40             6742 	.byte	64
000000ef 9c             6743 	.byte	156
000000f0 08             6744 	.byte	8
000000f1 40             6745 	.byte	64
000000f2 9b             6746 	.byte	155
000000f3 0c             6747 	.byte	12
000000f4 01             6748 	.byte	1
000000f5 00000000*      6749 	.word	.LDW71
000000f9 00             6750 	.byte	0
000000fa 00             6751 	.byte	0
000000fb 00             6752 	.byte	0
                        6753 .LDW_unq_8:
                        6754 	.section	.debug_line
00000530 000502         6755 	.byte	0,5,2
00000533 00000000*      6756 	.word	_DIAG__ReqCallback_ReadWSNr03..C.3A.5C_ECU2.5CECU_Rivian_A1.5CTarget.5Crepo_projects.5CpRealEcu.5CcL_LATEST.5Cmake.5Coutput.5Cobjects.5CSwcApplTpms_Diag.
00000537 03             6757 	.byte	3
00000538 aa01           6758 	.byte	170,1

                                                                      Page 126
                                                              C:\Users\nhuliyap\AppData\Local\Temp\gh_00008941.s
0000053a 02             6759 	.byte	2
0000053b 00             6760 	.byte	0
0000053c 01             6761 	.byte	1
0000053d 06             6762 	.byte	6
0000053e 000502         6763 	.byte	0,5,2
00000541 00000000*      6764 	.word	.LDWlin15
00000545 0d             6765 	.byte	13
00000546 02             6766 	.byte	2
00000547 02             6767 	.byte	2
00000548 0c             6768 	.byte	12
00000549 03             6769 	.byte	3
0000054a 7e             6770 	.byte	126
0000054b 02             6771 	.byte	2
0000054c 04             6772 	.byte	4
0000054d 01             6773 	.byte	1
0000054e 000502         6774 	.byte	0,5,2
00000551 00000000*      6775 	.word	.LDWlin16
00000555 0d             6776 	.byte	13
00000556 0b             6777 	.byte	11
00000557 000502         6778 	.byte	0,5,2
0000055a 00000000*      6779 	.word	.LDWlin17
0000055e 0c             6780 	.byte	12
0000055f 14             6781 	.byte	20
00000560 2b             6782 	.byte	43
00000561 14             6783 	.byte	20
00000562 06             6784 	.byte	6
00000563 02             6785 	.byte	2
00000564 02             6786 	.byte	2
00000565 02             6787 	.byte	2
00000566 04             6788 	.byte	4
00000567 000101         6789 	.byte	0,1,1
                        6790 	.section	.debug_info
                        6791 .LDW_16fa2f8:
0000175e 0f             6792 	.byte	15
0000175f 50535f4d7367   6793 	.strz	"PS_MsgContext"
00001765 436f6e746578 
0000176b 7400 
0000176d aa01           6794 	.byte	170,1
0000176f 3c             6795 	.byte	60
00001770 01             6796 	.byte	1
00001771 00000000*      6797 	.word	.LDW_16b6d78
00001775 00             6798 	.byte	0
00001776 016b           6799 	.byte	1,107
                        6800 
                        6801 .LDW_16fe540:
00001778 1d             6802 	.byte	29
00001779 00000000*      6803 	.word	.LDW61
0000177d 00000000*      6804 	.word	.LDW71
                        6805 
                        6806 .LDW_4bc6ed0:
00001781 05             6807 	.byte	5
00001782 55385f526574   6808 	.strz	"U8_RetVal"
00001788 56616c00 
0000178c ac01           6809 	.byte	172,1
0000178e 09             6810 	.byte	9
0000178f 01             6811 	.byte	1
00001790 00000000*      6812 	.word	.LDW_16f9eb0
00001794 00             6813 	.byte	0
00001795 00             6814 	.byte	0
                        6815 
                        6816 .LDW_4bc6f28:

                                                                      Page 127
                                                              C:\Users\nhuliyap\AppData\Local\Temp\gh_00008941.s
00001796 04             6817 	.byte	4
00001797 55385f4c6f6f   6818 	.strz	"U8_LoopCnt"
0000179d 70436e7400 
000017a2 ad01           6819 	.byte	173,1
000017a4 09             6820 	.byte	9
000017a5 01             6821 	.byte	1
000017a6 00000000*      6822 	.word	.LDW_16f9eb0
000017aa 00             6823 	.byte	0
000017ab 00             6824 	.byte	0
000017ac 0162           6825 	.byte	1,98
                        6826 
000017ae 00             6827 	.byte	0
                        6828 
000017af 00             6829 	.byte	0
                        6830 
                        6831 .LDW_4bc6f80:
000017b0 14             6832 	.byte	20
000017b1 444941475f5f   6833 	.strz	"DIAG__ReqCallback_ReadWSNr04"
000017b7 52657143616c 
000017bd 6c6261636b5f 
000017c3 526561645753 
000017c9 4e72303400 
000017ce bc01           6834 	.byte	188,1
000017d0 0e             6835 	.byte	14
000017d1 01             6836 	.byte	1
000017d2 00000000*      6837 	.word	.LDW_16f9eb0
000017d6 00000000*      6838 	.word	_DIAG__ReqCallback_ReadWSNr04..C.3A.5C_ECU2.5CECU_Rivian_A1.5CTarget.5Crepo_projects.5CpRealEcu.5CcL_LATEST.5Cmake.5Coutput.5Cobjects.5CSwcApplTpms_Diag.
000017da 00000000*      6839 	.word	___ghs_eofn_DIAG__ReqCallback_ReadWSNr04
000017de 0153           6840 	.byte	1,83
000017e0 828080c00b     6841 	.byte	130,128,128,192,11
000017e5 10             6842 	.byte	16
000017e6 03             6843 	.byte	3
000017e7 10             6844 	.byte	16
000017e8 00             6845 	.byte	0
000017e9 00             6846 	.byte	0
000017ea 00             6847 	.byte	0
000017eb 00             6848 	.byte	0
000017ec 01             6849 	.byte	1
000017ed 00             6850 	.byte	0
000017ee 01             6851 	.byte	1
                        6852 
                        6853 	.section	.debug_frame
                        6854 .LDW_4d3eae8:
000000fc 00000000*      6855 	.word	.LDW_unq_a-.LDW_unq_9
                        6856 .LDW_unq_9:
00000100 00000000*      6857 	.word	.LDW_4ca0d40
00000104 00000000*      6858 	.word	_DIAG__ReqCallback_ReadWSNr04..C.3A.5C_ECU2.5CECU_Rivian_A1.5CTarget.5Crepo_projects.5CpRealEcu.5CcL_LATEST.5Cmake.5Coutput.5Cobjects.5CSwcApplTpms_Diag.
00000108 00000000*      6859 	.word	___ghs_eofn_DIAG__ReqCallback_ReadWSNr04-_DIAG__ReqCallback_ReadWSNr04..C.3A.5C_ECU2.5CECU_Rivian_A1.5CTarget.5Crepo_projects.5CpRealEcu.5CcL_LATEST.5Cmake.5Coutput.5Cobjects.5CSwcApplTpms_Diag.
0000010c 44             6860 	.byte	68
0000010d 9f             6861 	.byte	159
0000010e 00             6862 	.byte	0
0000010f 40             6863 	.byte	64
00000110 9d             6864 	.byte	157
00000111 04             6865 	.byte	4
00000112 40             6866 	.byte	64
00000113 9c             6867 	.byte	156
00000114 08             6868 	.byte	8
00000115 40             6869 	.byte	64
00000116 9b             6870 	.byte	155
00000117 0c             6871 	.byte	12
00000118 01             6872 	.byte	1

                                                                      Page 128
                                                              C:\Users\nhuliyap\AppData\Local\Temp\gh_00008941.s
00000119 00000000*      6873 	.word	.LDW91
0000011d 00             6874 	.byte	0
0000011e 00             6875 	.byte	0
0000011f 00             6876 	.byte	0
                        6877 .LDW_unq_a:
                        6878 	.section	.debug_line
0000056a 000502         6879 	.byte	0,5,2
0000056d 00000000*      6880 	.word	_DIAG__ReqCallback_ReadWSNr04..C.3A.5C_ECU2.5CECU_Rivian_A1.5CTarget.5Crepo_projects.5CpRealEcu.5CcL_LATEST.5Cmake.5Coutput.5Cobjects.5CSwcApplTpms_Diag.
00000571 03             6881 	.byte	3
00000572 bc01           6882 	.byte	188,1
00000574 02             6883 	.byte	2
00000575 00             6884 	.byte	0
00000576 01             6885 	.byte	1
00000577 06             6886 	.byte	6
00000578 000502         6887 	.byte	0,5,2
0000057b 00000000*      6888 	.word	.LDWlin18
0000057f 0d             6889 	.byte	13
00000580 02             6890 	.byte	2
00000581 02             6891 	.byte	2
00000582 0c             6892 	.byte	12
00000583 03             6893 	.byte	3
00000584 7e             6894 	.byte	126
00000585 02             6895 	.byte	2
00000586 04             6896 	.byte	4
00000587 01             6897 	.byte	1
00000588 000502         6898 	.byte	0,5,2
0000058b 00000000*      6899 	.word	.LDWlin19
0000058f 0d             6900 	.byte	13
00000590 0b             6901 	.byte	11
00000591 000502         6902 	.byte	0,5,2
00000594 00000000*      6903 	.word	.LDWlin20
00000598 0c             6904 	.byte	12
00000599 14             6905 	.byte	20
0000059a 2b             6906 	.byte	43
0000059b 14             6907 	.byte	20
0000059c 06             6908 	.byte	6
0000059d 02             6909 	.byte	2
0000059e 02             6910 	.byte	2
0000059f 02             6911 	.byte	2
000005a0 04             6912 	.byte	4
000005a1 000101         6913 	.byte	0,1,1
                        6914 	.section	.debug_info
                        6915 .LDW_4bc7018:
000017ef 0f             6916 	.byte	15
000017f0 50535f4d7367   6917 	.strz	"PS_MsgContext"
000017f6 436f6e746578 
000017fc 7400 
000017fe bc01           6918 	.byte	188,1
00001800 3c             6919 	.byte	60
00001801 01             6920 	.byte	1
00001802 00000000*      6921 	.word	.LDW_16b6d78
00001806 00             6922 	.byte	0
00001807 016b           6923 	.byte	1,107
                        6924 
                        6925 .LDW_16fe7b0:
00001809 1d             6926 	.byte	29
0000180a 00000000*      6927 	.word	.LDW81
0000180e 00000000*      6928 	.word	.LDW91
                        6929 
                        6930 .LDW_4bc7070:
00001812 05             6931 	.byte	5

                                                                      Page 129
                                                              C:\Users\nhuliyap\AppData\Local\Temp\gh_00008941.s
00001813 55385f526574   6932 	.strz	"U8_RetVal"
00001819 56616c00 
0000181d be01           6933 	.byte	190,1
0000181f 09             6934 	.byte	9
00001820 01             6935 	.byte	1
00001821 00000000*      6936 	.word	.LDW_16f9eb0
00001825 00             6937 	.byte	0
00001826 00             6938 	.byte	0
                        6939 
                        6940 .LDW_4bc70c8:
00001827 04             6941 	.byte	4
00001828 55385f4c6f6f   6942 	.strz	"U8_LoopCnt"
0000182e 70436e7400 
00001833 bf01           6943 	.byte	191,1
00001835 09             6944 	.byte	9
00001836 01             6945 	.byte	1
00001837 00000000*      6946 	.word	.LDW_16f9eb0
0000183b 00             6947 	.byte	0
0000183c 00             6948 	.byte	0
0000183d 0162           6949 	.byte	1,98
                        6950 
0000183f 00             6951 	.byte	0
                        6952 
00001840 00             6953 	.byte	0
                        6954 
                        6955 .LDW_4bc7120:
00001841 14             6956 	.byte	20
00001842 444941475f5f   6957 	.strz	"DIAG__ReqCallback_ReadIdFL"
00001848 52657143616c 
0000184e 6c6261636b5f 
00001854 526561644964 
0000185a 464c00 
0000185d ce01           6958 	.byte	206,1
0000185f 0e             6959 	.byte	14
00001860 01             6960 	.byte	1
00001861 00000000*      6961 	.word	.LDW_16f9eb0
00001865 00000000*      6962 	.word	_DIAG__ReqCallback_ReadIdFL..C.3A.5C_ECU2.5CECU_Rivian_A1.5CTarget.5Crepo_projects.5CpRealEcu.5CcL_LATEST.5Cmake.5Coutput.5Cobjects.5CSwcApplTpms_Diag.
00001869 00000000*      6963 	.word	___ghs_eofn_DIAG__ReqCallback_ReadIdFL
0000186d 0153           6964 	.byte	1,83
0000186f 828080c00b     6965 	.byte	130,128,128,192,11
00001874 10             6966 	.byte	16
00001875 03             6967 	.byte	3
00001876 10             6968 	.byte	16
00001877 00             6969 	.byte	0
00001878 00             6970 	.byte	0
00001879 00             6971 	.byte	0
0000187a 00             6972 	.byte	0
0000187b 01             6973 	.byte	1
0000187c 00             6974 	.byte	0
0000187d 01             6975 	.byte	1
                        6976 
                        6977 	.section	.debug_frame
                        6978 .LDW_4d3eee8:
00000120 00000000*      6979 	.word	.LDW_unq_c-.LDW_unq_b
                        6980 .LDW_unq_b:
00000124 00000000*      6981 	.word	.LDW_4ca0d40
00000128 00000000*      6982 	.word	_DIAG__ReqCallback_ReadIdFL..C.3A.5C_ECU2.5CECU_Rivian_A1.5CTarget.5Crepo_projects.5CpRealEcu.5CcL_LATEST.5Cmake.5Coutput.5Cobjects.5CSwcApplTpms_Diag.
0000012c 00000000*      6983 	.word	___ghs_eofn_DIAG__ReqCallback_ReadIdFL-_DIAG__ReqCallback_ReadIdFL..C.3A.5C_ECU2.5CECU_Rivian_A1.5CTarget.5Crepo_projects.5CpRealEcu.5CcL_LATEST.5Cmake.5Coutput.5Cobjects.5CSwcApplTpms_Diag.
00000130 44             6984 	.byte	68
00000131 9f             6985 	.byte	159
00000132 00             6986 	.byte	0

                                                                      Page 130
                                                              C:\Users\nhuliyap\AppData\Local\Temp\gh_00008941.s
00000133 40             6987 	.byte	64
00000134 9d             6988 	.byte	157
00000135 04             6989 	.byte	4
00000136 40             6990 	.byte	64
00000137 9c             6991 	.byte	156
00000138 08             6992 	.byte	8
00000139 40             6993 	.byte	64
0000013a 9b             6994 	.byte	155
0000013b 0c             6995 	.byte	12
0000013c 01             6996 	.byte	1
0000013d 00000000*      6997 	.word	.LDW32
00000141 00             6998 	.byte	0
00000142 00             6999 	.byte	0
00000143 00             7000 	.byte	0
                        7001 .LDW_unq_c:
                        7002 	.section	.debug_line
000005a4 000502         7003 	.byte	0,5,2
000005a7 00000000*      7004 	.word	_DIAG__ReqCallback_ReadIdFL..C.3A.5C_ECU2.5CECU_Rivian_A1.5CTarget.5Crepo_projects.5CpRealEcu.5CcL_LATEST.5Cmake.5Coutput.5Cobjects.5CSwcApplTpms_Diag.
000005ab 03             7005 	.byte	3
000005ac ce01           7006 	.byte	206,1
000005ae 02             7007 	.byte	2
000005af 00             7008 	.byte	0
000005b0 01             7009 	.byte	1
000005b1 06             7010 	.byte	6
000005b2 000502         7011 	.byte	0,5,2
000005b5 00000000*      7012 	.word	.LDWlin22
000005b9 0d             7013 	.byte	13
000005ba 02             7014 	.byte	2
000005bb 02             7015 	.byte	2
000005bc 0c             7016 	.byte	12
000005bd 03             7017 	.byte	3
000005be 7e             7018 	.byte	126
000005bf 02             7019 	.byte	2
000005c0 04             7020 	.byte	4
000005c1 01             7021 	.byte	1
000005c2 000502         7022 	.byte	0,5,2
000005c5 00000000*      7023 	.word	.LDWlin23
000005c9 0d             7024 	.byte	13
000005ca 0c             7025 	.byte	12
000005cb 000502         7026 	.byte	0,5,2
000005ce 00000000*      7027 	.word	.LDWlin24
000005d2 0c             7028 	.byte	12
000005d3 14             7029 	.byte	20
000005d4 2b             7030 	.byte	43
000005d5 14             7031 	.byte	20
000005d6 06             7032 	.byte	6
000005d7 02             7033 	.byte	2
000005d8 02             7034 	.byte	2
000005d9 02             7035 	.byte	2
000005da 04             7036 	.byte	4
000005db 000101         7037 	.byte	0,1,1
                        7038 	.section	.debug_info
                        7039 .LDW_4bc71b8:
0000187e 0f             7040 	.byte	15
0000187f 50535f4d7367   7041 	.strz	"PS_MsgContext"
00001885 436f6e746578 
0000188b 7400 
0000188d ce01           7042 	.byte	206,1
0000188f 3a             7043 	.byte	58
00001890 01             7044 	.byte	1
00001891 00000000*      7045 	.word	.LDW_16b6d78

                                                                      Page 131
                                                              C:\Users\nhuliyap\AppData\Local\Temp\gh_00008941.s
00001895 00             7046 	.byte	0
00001896 016b           7047 	.byte	1,107
                        7048 
                        7049 .LDW_16fe4b0:
00001898 1d             7050 	.byte	29
00001899 00000000*      7051 	.word	.LDW22
0000189d 00000000*      7052 	.word	.LDW32
                        7053 
                        7054 .LDW_4c5e888:
000018a1 05             7055 	.byte	5
000018a2 55385f526574   7056 	.strz	"U8_RetVal"
000018a8 56616c00 
000018ac d001           7057 	.byte	208,1
000018ae 09             7058 	.byte	9
000018af 01             7059 	.byte	1
000018b0 00000000*      7060 	.word	.LDW_16f9eb0
000018b4 00             7061 	.byte	0
000018b5 00             7062 	.byte	0
                        7063 
                        7064 .LDW_4c5edb0:
000018b6 04             7065 	.byte	4
000018b7 55385f4c6f6f   7066 	.strz	"U8_LoopCnt"
000018bd 70436e7400 
000018c2 d101           7067 	.byte	209,1
000018c4 09             7068 	.byte	9
000018c5 01             7069 	.byte	1
000018c6 00000000*      7070 	.word	.LDW_16f9eb0
000018ca 00             7071 	.byte	0
000018cb 00             7072 	.byte	0
000018cc 0162           7073 	.byte	1,98
                        7074 
000018ce 00             7075 	.byte	0
                        7076 
000018cf 00             7077 	.byte	0
                        7078 
                        7079 .LDW_4bc7210:
000018d0 14             7080 	.byte	20
000018d1 444941475f5f   7081 	.strz	"DIAG__ReqCallback_ReadIdFR"
000018d7 52657143616c 
000018dd 6c6261636b5f 
000018e3 526561644964 
000018e9 465200 
000018ec e101           7082 	.byte	225,1
000018ee 0e             7083 	.byte	14
000018ef 01             7084 	.byte	1
000018f0 00000000*      7085 	.word	.LDW_16f9eb0
000018f4 00000000*      7086 	.word	_DIAG__ReqCallback_ReadIdFR..C.3A.5C_ECU2.5CECU_Rivian_A1.5CTarget.5Crepo_projects.5CpRealEcu.5CcL_LATEST.5Cmake.5Coutput.5Cobjects.5CSwcApplTpms_Diag.
000018f8 00000000*      7087 	.word	___ghs_eofn_DIAG__ReqCallback_ReadIdFR
000018fc 0153           7088 	.byte	1,83
000018fe 828080c00b     7089 	.byte	130,128,128,192,11
00001903 10             7090 	.byte	16
00001904 03             7091 	.byte	3
00001905 10             7092 	.byte	16
00001906 00             7093 	.byte	0
00001907 00             7094 	.byte	0
00001908 00             7095 	.byte	0
00001909 00             7096 	.byte	0
0000190a 01             7097 	.byte	1
0000190b 00             7098 	.byte	0
0000190c 01             7099 	.byte	1
                        7100 

                                                                      Page 132
                                                              C:\Users\nhuliyap\AppData\Local\Temp\gh_00008941.s
                        7101 	.section	.debug_frame
                        7102 .LDW_4d3eb68:
00000144 00000000*      7103 	.word	.LDW_unq_e-.LDW_unq_d
                        7104 .LDW_unq_d:
00000148 00000000*      7105 	.word	.LDW_4ca0d40
0000014c 00000000*      7106 	.word	_DIAG__ReqCallback_ReadIdFR..C.3A.5C_ECU2.5CECU_Rivian_A1.5CTarget.5Crepo_projects.5CpRealEcu.5CcL_LATEST.5Cmake.5Coutput.5Cobjects.5CSwcApplTpms_Diag.
00000150 00000000*      7107 	.word	___ghs_eofn_DIAG__ReqCallback_ReadIdFR-_DIAG__ReqCallback_ReadIdFR..C.3A.5C_ECU2.5CECU_Rivian_A1.5CTarget.5Crepo_projects.5CpRealEcu.5CcL_LATEST.5Cmake.5Coutput.5Cobjects.5CSwcApplTpms_Diag.
00000154 44             7108 	.byte	68
00000155 9f             7109 	.byte	159
00000156 00             7110 	.byte	0
00000157 40             7111 	.byte	64
00000158 9d             7112 	.byte	157
00000159 04             7113 	.byte	4
0000015a 40             7114 	.byte	64
0000015b 9c             7115 	.byte	156
0000015c 08             7116 	.byte	8
0000015d 40             7117 	.byte	64
0000015e 9b             7118 	.byte	155
0000015f 0c             7119 	.byte	12
00000160 01             7120 	.byte	1
00000161 00000000*      7121 	.word	.LDW52
00000165 00             7122 	.byte	0
00000166 00             7123 	.byte	0
00000167 00             7124 	.byte	0
                        7125 .LDW_unq_e:
                        7126 	.section	.debug_line
000005de 000502         7127 	.byte	0,5,2
000005e1 00000000*      7128 	.word	_DIAG__ReqCallback_ReadIdFR..C.3A.5C_ECU2.5CECU_Rivian_A1.5CTarget.5Crepo_projects.5CpRealEcu.5CcL_LATEST.5Cmake.5Coutput.5Cobjects.5CSwcApplTpms_Diag.
000005e5 03             7129 	.byte	3
000005e6 e101           7130 	.byte	225,1
000005e8 02             7131 	.byte	2
000005e9 00             7132 	.byte	0
000005ea 01             7133 	.byte	1
000005eb 06             7134 	.byte	6
000005ec 000502         7135 	.byte	0,5,2
000005ef 00000000*      7136 	.word	.LDWlin25
000005f3 0d             7137 	.byte	13
000005f4 02             7138 	.byte	2
000005f5 02             7139 	.byte	2
000005f6 0c             7140 	.byte	12
000005f7 03             7141 	.byte	3
000005f8 7e             7142 	.byte	126
000005f9 02             7143 	.byte	2
000005fa 04             7144 	.byte	4
000005fb 01             7145 	.byte	1
000005fc 000502         7146 	.byte	0,5,2
000005ff 00000000*      7147 	.word	.LDWlin26
00000603 0d             7148 	.byte	13
00000604 0c             7149 	.byte	12
00000605 000502         7150 	.byte	0,5,2
00000608 00000000*      7151 	.word	.LDWlin27
0000060c 0c             7152 	.byte	12
0000060d 14             7153 	.byte	20
0000060e 2b             7154 	.byte	43
0000060f 14             7155 	.byte	20
00000610 06             7156 	.byte	6
00000611 02             7157 	.byte	2
00000612 02             7158 	.byte	2
00000613 02             7159 	.byte	2
00000614 04             7160 	.byte	4
00000615 000101         7161 	.byte	0,1,1

                                                                      Page 133
                                                              C:\Users\nhuliyap\AppData\Local\Temp\gh_00008941.s
                        7162 	.section	.debug_info
                        7163 .LDW_4c5ed58:
0000190d 0f             7164 	.byte	15
0000190e 50535f4d7367   7165 	.strz	"PS_MsgContext"
00001914 436f6e746578 
0000191a 7400 
0000191c e101           7166 	.byte	225,1
0000191e 3a             7167 	.byte	58
0000191f 01             7168 	.byte	1
00001920 00000000*      7169 	.word	.LDW_16b6d78
00001924 00             7170 	.byte	0
00001925 016b           7171 	.byte	1,107
                        7172 
                        7173 .LDW_16fe630:
00001927 1d             7174 	.byte	29
00001928 00000000*      7175 	.word	.LDW42
0000192c 00000000*      7176 	.word	.LDW52
                        7177 
                        7178 .LDW_4c5ee08:
00001930 05             7179 	.byte	5
00001931 55385f526574   7180 	.strz	"U8_RetVal"
00001937 56616c00 
0000193b e301           7181 	.byte	227,1
0000193d 09             7182 	.byte	9
0000193e 01             7183 	.byte	1
0000193f 00000000*      7184 	.word	.LDW_16f9eb0
00001943 00             7185 	.byte	0
00001944 00             7186 	.byte	0
                        7187 
                        7188 .LDW_4c5ea40:
00001945 04             7189 	.byte	4
00001946 55385f4c6f6f   7190 	.strz	"U8_LoopCnt"
0000194c 70436e7400 
00001951 e401           7191 	.byte	228,1
00001953 09             7192 	.byte	9
00001954 01             7193 	.byte	1
00001955 00000000*      7194 	.word	.LDW_16f9eb0
00001959 00             7195 	.byte	0
0000195a 00             7196 	.byte	0
0000195b 0162           7197 	.byte	1,98
                        7198 
0000195d 00             7199 	.byte	0
                        7200 
0000195e 00             7201 	.byte	0
                        7202 
                        7203 .LDW_4bc72a8:
0000195f 14             7204 	.byte	20
00001960 444941475f5f   7205 	.strz	"DIAG__ReqCallback_ReadIdRR"
00001966 52657143616c 
0000196c 6c6261636b5f 
00001972 526561644964 
00001978 525200 
0000197b f401           7206 	.byte	244,1
0000197d 0e             7207 	.byte	14
0000197e 01             7208 	.byte	1
0000197f 00000000*      7209 	.word	.LDW_16f9eb0
00001983 00000000*      7210 	.word	_DIAG__ReqCallback_ReadIdRR..C.3A.5C_ECU2.5CECU_Rivian_A1.5CTarget.5Crepo_projects.5CpRealEcu.5CcL_LATEST.5Cmake.5Coutput.5Cobjects.5CSwcApplTpms_Diag.
00001987 00000000*      7211 	.word	___ghs_eofn_DIAG__ReqCallback_ReadIdRR
0000198b 0153           7212 	.byte	1,83
0000198d 828080c00b     7213 	.byte	130,128,128,192,11
00001992 10             7214 	.byte	16

                                                                      Page 134
                                                              C:\Users\nhuliyap\AppData\Local\Temp\gh_00008941.s
00001993 03             7215 	.byte	3
00001994 10             7216 	.byte	16
00001995 00             7217 	.byte	0
00001996 00             7218 	.byte	0
00001997 00             7219 	.byte	0
00001998 00             7220 	.byte	0
00001999 01             7221 	.byte	1
0000199a 00             7222 	.byte	0
0000199b 01             7223 	.byte	1
                        7224 
                        7225 	.section	.debug_frame
                        7226 .LDW_4d3ee28:
00000168 00000000*      7227 	.word	.LDW_unq_10-.LDW_unq_f
                        7228 .LDW_unq_f:
0000016c 00000000*      7229 	.word	.LDW_4ca0d40
00000170 00000000*      7230 	.word	_DIAG__ReqCallback_ReadIdRR..C.3A.5C_ECU2.5CECU_Rivian_A1.5CTarget.5Crepo_projects.5CpRealEcu.5CcL_LATEST.5Cmake.5Coutput.5Cobjects.5CSwcApplTpms_Diag.
00000174 00000000*      7231 	.word	___ghs_eofn_DIAG__ReqCallback_ReadIdRR-_DIAG__ReqCallback_ReadIdRR..C.3A.5C_ECU2.5CECU_Rivian_A1.5CTarget.5Crepo_projects.5CpRealEcu.5CcL_LATEST.5Cmake.5Coutput.5Cobjects.5CSwcApplTpms_Diag.
00000178 44             7232 	.byte	68
00000179 9f             7233 	.byte	159
0000017a 00             7234 	.byte	0
0000017b 40             7235 	.byte	64
0000017c 9d             7236 	.byte	157
0000017d 04             7237 	.byte	4
0000017e 40             7238 	.byte	64
0000017f 9c             7239 	.byte	156
00000180 08             7240 	.byte	8
00000181 40             7241 	.byte	64
00000182 9b             7242 	.byte	155
00000183 0c             7243 	.byte	12
00000184 01             7244 	.byte	1
00000185 00000000*      7245 	.word	.LDW72
00000189 00             7246 	.byte	0
0000018a 00             7247 	.byte	0
0000018b 00             7248 	.byte	0
                        7249 .LDW_unq_10:
                        7250 	.section	.debug_line
00000618 000502         7251 	.byte	0,5,2
0000061b 00000000*      7252 	.word	_DIAG__ReqCallback_ReadIdRR..C.3A.5C_ECU2.5CECU_Rivian_A1.5CTarget.5Crepo_projects.5CpRealEcu.5CcL_LATEST.5Cmake.5Coutput.5Cobjects.5CSwcApplTpms_Diag.
0000061f 03             7253 	.byte	3
00000620 f401           7254 	.byte	244,1
00000622 02             7255 	.byte	2
00000623 00             7256 	.byte	0
00000624 01             7257 	.byte	1
00000625 06             7258 	.byte	6
00000626 000502         7259 	.byte	0,5,2
00000629 00000000*      7260 	.word	.LDWlin28
0000062d 0d             7261 	.byte	13
0000062e 02             7262 	.byte	2
0000062f 02             7263 	.byte	2
00000630 0c             7264 	.byte	12
00000631 03             7265 	.byte	3
00000632 7e             7266 	.byte	126
00000633 02             7267 	.byte	2
00000634 04             7268 	.byte	4
00000635 01             7269 	.byte	1
00000636 000502         7270 	.byte	0,5,2
00000639 00000000*      7271 	.word	.LDWlin29
0000063d 0d             7272 	.byte	13
0000063e 0c             7273 	.byte	12
0000063f 000502         7274 	.byte	0,5,2
00000642 00000000*      7275 	.word	.LDWlin30

                                                                      Page 135
                                                              C:\Users\nhuliyap\AppData\Local\Temp\gh_00008941.s
00000646 0c             7276 	.byte	12
00000647 14             7277 	.byte	20
00000648 2b             7278 	.byte	43
00000649 14             7279 	.byte	20
0000064a 06             7280 	.byte	6
0000064b 02             7281 	.byte	2
0000064c 02             7282 	.byte	2
0000064d 02             7283 	.byte	2
0000064e 04             7284 	.byte	4
0000064f 000101         7285 	.byte	0,1,1
                        7286 	.section	.debug_info
                        7287 .LDW_4c5eb48:
0000199c 0f             7288 	.byte	15
0000199d 50535f4d7367   7289 	.strz	"PS_MsgContext"
000019a3 436f6e746578 
000019a9 7400 
000019ab f401           7290 	.byte	244,1
000019ad 3a             7291 	.byte	58
000019ae 01             7292 	.byte	1
000019af 00000000*      7293 	.word	.LDW_16b6d78
000019b3 00             7294 	.byte	0
000019b4 016b           7295 	.byte	1,107
                        7296 
                        7297 .LDW_16fe8d0:
000019b6 1d             7298 	.byte	29
000019b7 00000000*      7299 	.word	.LDW62
000019bb 00000000*      7300 	.word	.LDW72
                        7301 
                        7302 .LDW_4c5ee60:
000019bf 05             7303 	.byte	5
000019c0 55385f526574   7304 	.strz	"U8_RetVal"
000019c6 56616c00 
000019ca f601           7305 	.byte	246,1
000019cc 09             7306 	.byte	9
000019cd 01             7307 	.byte	1
000019ce 00000000*      7308 	.word	.LDW_16f9eb0
000019d2 00             7309 	.byte	0
000019d3 00             7310 	.byte	0
                        7311 
                        7312 .LDW_4c5e938:
000019d4 04             7313 	.byte	4
000019d5 55385f4c6f6f   7314 	.strz	"U8_LoopCnt"
000019db 70436e7400 
000019e0 f701           7315 	.byte	247,1
000019e2 09             7316 	.byte	9
000019e3 01             7317 	.byte	1
000019e4 00000000*      7318 	.word	.LDW_16f9eb0
000019e8 00             7319 	.byte	0
000019e9 00             7320 	.byte	0
000019ea 0162           7321 	.byte	1,98
                        7322 
000019ec 00             7323 	.byte	0
                        7324 
000019ed 00             7325 	.byte	0
                        7326 
                        7327 .LDW_4bc7340:
000019ee 14             7328 	.byte	20
000019ef 444941475f5f   7329 	.strz	"DIAG__ReqCallback_ReadIdRL"
000019f5 52657143616c 
000019fb 6c6261636b5f 
00001a01 526561644964 

                                                                      Page 136
                                                              C:\Users\nhuliyap\AppData\Local\Temp\gh_00008941.s
00001a07 524c00 
00001a0a 8702           7330 	.byte	135,2
00001a0c 0e             7331 	.byte	14
00001a0d 01             7332 	.byte	1
00001a0e 00000000*      7333 	.word	.LDW_16f9eb0
00001a12 00000000*      7334 	.word	_DIAG__ReqCallback_ReadIdRL..C.3A.5C_ECU2.5CECU_Rivian_A1.5CTarget.5Crepo_projects.5CpRealEcu.5CcL_LATEST.5Cmake.5Coutput.5Cobjects.5CSwcApplTpms_Diag.
00001a16 00000000*      7335 	.word	___ghs_eofn_DIAG__ReqCallback_ReadIdRL
00001a1a 0153           7336 	.byte	1,83
00001a1c 828080c00b     7337 	.byte	130,128,128,192,11
00001a21 10             7338 	.byte	16
00001a22 03             7339 	.byte	3
00001a23 10             7340 	.byte	16
00001a24 00             7341 	.byte	0
00001a25 00             7342 	.byte	0
00001a26 00             7343 	.byte	0
00001a27 00             7344 	.byte	0
00001a28 01             7345 	.byte	1
00001a29 00             7346 	.byte	0
00001a2a 01             7347 	.byte	1
                        7348 
                        7349 	.section	.debug_frame
                        7350 .LDW_4d3efa8:
0000018c 00000000*      7351 	.word	.LDW_unq_12-.LDW_unq_11
                        7352 .LDW_unq_11:
00000190 00000000*      7353 	.word	.LDW_4ca0d40
00000194 00000000*      7354 	.word	_DIAG__ReqCallback_ReadIdRL..C.3A.5C_ECU2.5CECU_Rivian_A1.5CTarget.5Crepo_projects.5CpRealEcu.5CcL_LATEST.5Cmake.5Coutput.5Cobjects.5CSwcApplTpms_Diag.
00000198 00000000*      7355 	.word	___ghs_eofn_DIAG__ReqCallback_ReadIdRL-_DIAG__ReqCallback_ReadIdRL..C.3A.5C_ECU2.5CECU_Rivian_A1.5CTarget.5Crepo_projects.5CpRealEcu.5CcL_LATEST.5Cmake.5Coutput.5Cobjects.5CSwcApplTpms_Diag.
0000019c 44             7356 	.byte	68
0000019d 9f             7357 	.byte	159
0000019e 00             7358 	.byte	0
0000019f 40             7359 	.byte	64
000001a0 9d             7360 	.byte	157
000001a1 04             7361 	.byte	4
000001a2 40             7362 	.byte	64
000001a3 9c             7363 	.byte	156
000001a4 08             7364 	.byte	8
000001a5 40             7365 	.byte	64
000001a6 9b             7366 	.byte	155
000001a7 0c             7367 	.byte	12
000001a8 01             7368 	.byte	1
000001a9 00000000*      7369 	.word	.LDW92
000001ad 00             7370 	.byte	0
000001ae 00             7371 	.byte	0
000001af 00             7372 	.byte	0
                        7373 .LDW_unq_12:
                        7374 	.section	.debug_line
00000652 000502         7375 	.byte	0,5,2
00000655 00000000*      7376 	.word	_DIAG__ReqCallback_ReadIdRL..C.3A.5C_ECU2.5CECU_Rivian_A1.5CTarget.5Crepo_projects.5CpRealEcu.5CcL_LATEST.5Cmake.5Coutput.5Cobjects.5CSwcApplTpms_Diag.
00000659 03             7377 	.byte	3
0000065a 8702           7378 	.byte	135,2
0000065c 02             7379 	.byte	2
0000065d 00             7380 	.byte	0
0000065e 01             7381 	.byte	1
0000065f 06             7382 	.byte	6
00000660 000502         7383 	.byte	0,5,2
00000663 00000000*      7384 	.word	.LDWlin31
00000667 0d             7385 	.byte	13
00000668 02             7386 	.byte	2
00000669 02             7387 	.byte	2
0000066a 0c             7388 	.byte	12
0000066b 03             7389 	.byte	3

                                                                      Page 137
                                                              C:\Users\nhuliyap\AppData\Local\Temp\gh_00008941.s
0000066c 7e             7390 	.byte	126
0000066d 02             7391 	.byte	2
0000066e 04             7392 	.byte	4
0000066f 01             7393 	.byte	1
00000670 000502         7394 	.byte	0,5,2
00000673 00000000*      7395 	.word	.LDWlin32
00000677 0d             7396 	.byte	13
00000678 0c             7397 	.byte	12
00000679 000502         7398 	.byte	0,5,2
0000067c 00000000*      7399 	.word	.LDWlin33
00000680 0c             7400 	.byte	12
00000681 14             7401 	.byte	20
00000682 2b             7402 	.byte	43
00000683 14             7403 	.byte	20
00000684 06             7404 	.byte	6
00000685 02             7405 	.byte	2
00000686 02             7406 	.byte	2
00000687 02             7407 	.byte	2
00000688 04             7408 	.byte	4
00000689 000101         7409 	.byte	0,1,1
                        7410 	.section	.debug_info
                        7411 .LDW_4c5e7d8:
00001a2b 0f             7412 	.byte	15
00001a2c 50535f4d7367   7413 	.strz	"PS_MsgContext"
00001a32 436f6e746578 
00001a38 7400 
00001a3a 8702           7414 	.byte	135,2
00001a3c 3a             7415 	.byte	58
00001a3d 01             7416 	.byte	1
00001a3e 00000000*      7417 	.word	.LDW_16b6d78
00001a42 00             7418 	.byte	0
00001a43 016b           7419 	.byte	1,107
                        7420 
                        7421 .LDW_16fe660:
00001a45 1d             7422 	.byte	29
00001a46 00000000*      7423 	.word	.LDW82
00001a4a 00000000*      7424 	.word	.LDW92
                        7425 
                        7426 .LDW_4c5eba0:
00001a4e 05             7427 	.byte	5
00001a4f 55385f526574   7428 	.strz	"U8_RetVal"
00001a55 56616c00 
00001a59 8902           7429 	.byte	137,2
00001a5b 09             7430 	.byte	9
00001a5c 01             7431 	.byte	1
00001a5d 00000000*      7432 	.word	.LDW_16f9eb0
00001a61 00             7433 	.byte	0
00001a62 00             7434 	.byte	0
                        7435 
                        7436 .LDW_4c5e830:
00001a63 04             7437 	.byte	4
00001a64 55385f4c6f6f   7438 	.strz	"U8_LoopCnt"
00001a6a 70436e7400 
00001a6f 8a02           7439 	.byte	138,2
00001a71 09             7440 	.byte	9
00001a72 01             7441 	.byte	1
00001a73 00000000*      7442 	.word	.LDW_16f9eb0
00001a77 00             7443 	.byte	0
00001a78 00             7444 	.byte	0
00001a79 0162           7445 	.byte	1,98
                        7446 

                                                                      Page 138
                                                              C:\Users\nhuliyap\AppData\Local\Temp\gh_00008941.s
00001a7b 00             7447 	.byte	0
                        7448 
00001a7c 00             7449 	.byte	0
                        7450 
                        7451 .LDW_4bc73d8:
00001a7d 14             7452 	.byte	20
00001a7e 444941475f5f   7453 	.strz	"DIAG__ReqCallback_ReadLastReceivedWheelSensor"
00001a84 52657143616c 
00001a8a 6c6261636b5f 
00001a90 526561644c61 
00001a96 737452656365 
00001a9c 697665645768 
00001aa2 65656c53656e 
00001aa8 736f7200 
00001aac 9a02           7454 	.byte	154,2
00001aae 0e             7455 	.byte	14
00001aaf 01             7456 	.byte	1
00001ab0 00000000*      7457 	.word	.LDW_16f9eb0
00001ab4 00000000*      7458 	.word	_DIAG__ReqCallback_ReadLastReceivedWheelSensor..C.3A.5C_ECU2.5CECU_Rivian_A1.5CTarget.5Crepo_projects.5CpRealEcu.5CcL_LATEST.5Cmake.5Coutput.5Cobjects.5CSwcApplTpms_Diag.
00001ab8 00000000*      7459 	.word	___ghs_eofn_DIAG__ReqCallback_ReadLastReceivedWheelSensor
00001abc 0153           7460 	.byte	1,83
00001abe 828080c00b     7461 	.byte	130,128,128,192,11
00001ac3 10             7462 	.byte	16
00001ac4 03             7463 	.byte	3
00001ac5 10             7464 	.byte	16
00001ac6 00             7465 	.byte	0
00001ac7 00             7466 	.byte	0
00001ac8 00             7467 	.byte	0
00001ac9 00             7468 	.byte	0
00001aca 01             7469 	.byte	1
00001acb 00             7470 	.byte	0
00001acc 01             7471 	.byte	1
                        7472 
                        7473 	.section	.debug_frame
                        7474 .LDW_4d3eba8:
000001b0 00000000*      7475 	.word	.LDW_unq_14-.LDW_unq_13
                        7476 .LDW_unq_13:
000001b4 00000000*      7477 	.word	.LDW_4ca0d40
000001b8 00000000*      7478 	.word	_DIAG__ReqCallback_ReadLastReceivedWheelSensor..C.3A.5C_ECU2.5CECU_Rivian_A1.5CTarget.5Crepo_projects.5CpRealEcu.5CcL_LATEST.5Cmake.5Coutput.5Cobjects.5CSwcApplTpms_Diag.
000001bc 00000000*      7479 	.word	___ghs_eofn_DIAG__ReqCallback_ReadLastReceivedWheelSensor-_DIAG__ReqCallback_ReadLastReceivedWheelSensor..C.3A.5C_ECU2.5CECU_Rivian_A1.5CTarget.5Crepo_projects.5CpRealEcu.5CcL_LATEST.5Cmake.5Coutput.5Cobjects.5CSwcApplTpms_Diag.
000001c0 44             7480 	.byte	68
000001c1 9f             7481 	.byte	159
000001c2 00             7482 	.byte	0
000001c3 40             7483 	.byte	64
000001c4 9d             7484 	.byte	157
000001c5 04             7485 	.byte	4
000001c6 40             7486 	.byte	64
000001c7 9c             7487 	.byte	156
000001c8 08             7488 	.byte	8
000001c9 40             7489 	.byte	64
000001ca 9b             7490 	.byte	155
000001cb 0c             7491 	.byte	12
000001cc 01             7492 	.byte	1
000001cd 00000000*      7493 	.word	.LDW33
000001d1 00             7494 	.byte	0
000001d2 00             7495 	.byte	0
000001d3 00             7496 	.byte	0
                        7497 .LDW_unq_14:
                        7498 	.section	.debug_line
0000068c 000502         7499 	.byte	0,5,2
0000068f 00000000*      7500 	.word	_DIAG__ReqCallback_ReadLastReceivedWheelSensor..C.3A.5C_ECU2.5CECU_Rivian_A1.5CTarget.5Crepo_projects.5CpRealEcu.5CcL_LATEST.5Cmake.5Coutput.5Cobjects.5CSwcApplTpms_Diag.

                                                                      Page 139
                                                              C:\Users\nhuliyap\AppData\Local\Temp\gh_00008941.s
00000693 03             7501 	.byte	3
00000694 9a02           7502 	.byte	154,2
00000696 02             7503 	.byte	2
00000697 00             7504 	.byte	0
00000698 01             7505 	.byte	1
00000699 06             7506 	.byte	6
0000069a 000502         7507 	.byte	0,5,2
0000069d 00000000*      7508 	.word	.LDWlin41
000006a1 0d             7509 	.byte	13
000006a2 02             7510 	.byte	2
000006a3 02             7511 	.byte	2
000006a4 0c             7512 	.byte	12
000006a5 03             7513 	.byte	3
000006a6 7e             7514 	.byte	126
000006a7 02             7515 	.byte	2
000006a8 04             7516 	.byte	4
000006a9 01             7517 	.byte	1
000006aa 000502         7518 	.byte	0,5,2
000006ad 00000000*      7519 	.word	.LDWlin42
000006b1 0d             7520 	.byte	13
000006b2 0b             7521 	.byte	11
000006b3 000502         7522 	.byte	0,5,2
000006b6 00000000*      7523 	.word	.LDWlin43
000006ba 0c             7524 	.byte	12
000006bb 14             7525 	.byte	20
000006bc 2b             7526 	.byte	43
000006bd 14             7527 	.byte	20
000006be 06             7528 	.byte	6
000006bf 02             7529 	.byte	2
000006c0 02             7530 	.byte	2
000006c1 02             7531 	.byte	2
000006c2 04             7532 	.byte	4
000006c3 000101         7533 	.byte	0,1,1
                        7534 	.section	.debug_info
                        7535 .LDW_4c5e728:
00001acd 0f             7536 	.byte	15
00001ace 50535f4d7367   7537 	.strz	"PS_MsgContext"
00001ad4 436f6e746578 
00001ada 7400 
00001adc 9a02           7538 	.byte	154,2
00001ade 4d             7539 	.byte	77
00001adf 01             7540 	.byte	1
00001ae0 00000000*      7541 	.word	.LDW_16b6d78
00001ae4 00             7542 	.byte	0
00001ae5 016b           7543 	.byte	1,107
                        7544 
                        7545 .LDW_16fe690:
00001ae7 1d             7546 	.byte	29
00001ae8 00000000*      7547 	.word	.LDW23
00001aec 00000000*      7548 	.word	.LDW33
                        7549 
                        7550 .LDW_4c5ed00:
00001af0 05             7551 	.byte	5
00001af1 55385f526574   7552 	.strz	"U8_RetVal"
00001af7 56616c00 
00001afb 9c02           7553 	.byte	156,2
00001afd 09             7554 	.byte	9
00001afe 01             7555 	.byte	1
00001aff 00000000*      7556 	.word	.LDW_16f9eb0
00001b03 00             7557 	.byte	0
00001b04 00             7558 	.byte	0

                                                                      Page 140
                                                              C:\Users\nhuliyap\AppData\Local\Temp\gh_00008941.s
                        7559 
                        7560 .LDW_4c5ebf8:
00001b05 04             7561 	.byte	4
00001b06 55385f4c6f6f   7562 	.strz	"U8_LoopCnt"
00001b0c 70436e7400 
00001b11 9d02           7563 	.byte	157,2
00001b13 09             7564 	.byte	9
00001b14 01             7565 	.byte	1
00001b15 00000000*      7566 	.word	.LDW_16f9eb0
00001b19 00             7567 	.byte	0
00001b1a 00             7568 	.byte	0
00001b1b 0162           7569 	.byte	1,98
                        7570 
00001b1d 00             7571 	.byte	0
                        7572 
00001b1e 00             7573 	.byte	0
                        7574 
                        7575 .LDW_4bc7470:
00001b1f 14             7576 	.byte	20
00001b20 444941475f5f   7577 	.strz	"DIAG__ReqCallback_WriteWSNr01"
00001b26 52657143616c 
00001b2c 6c6261636b5f 
00001b32 577269746557 
00001b38 534e72303100 
00001b3e ac02           7578 	.byte	172,2
00001b40 0e             7579 	.byte	14
00001b41 01             7580 	.byte	1
00001b42 00000000*      7581 	.word	.LDW_16f9eb0
00001b46 00000000*      7582 	.word	_DIAG__ReqCallback_WriteWSNr01..C.3A.5C_ECU2.5CECU_Rivian_A1.5CTarget.5Crepo_projects.5CpRealEcu.5CcL_LATEST.5Cmake.5Coutput.5Cobjects.5CSwcApplTpms_Diag.
00001b4a 00000000*      7583 	.word	___ghs_eofn_DIAG__ReqCallback_WriteWSNr01
00001b4e 0153           7584 	.byte	1,83
00001b50 02             7585 	.byte	2
00001b51 00             7586 	.byte	0
00001b52 02             7587 	.byte	2
00001b53 00             7588 	.byte	0
00001b54 00             7589 	.byte	0
00001b55 00             7590 	.byte	0
00001b56 00             7591 	.byte	0
00001b57 00             7592 	.byte	0
00001b58 01             7593 	.byte	1
00001b59 00             7594 	.byte	0
00001b5a 01             7595 	.byte	1
                        7596 
                        7597 	.section	.debug_frame
                        7598 .LDW_4d3ea28:
000001d4 00000000*      7599 	.word	.LDW_unq_16-.LDW_unq_15
                        7600 .LDW_unq_15:
000001d8 00000000*      7601 	.word	.LDW_4ca0d40
000001dc 00000000*      7602 	.word	_DIAG__ReqCallback_WriteWSNr01..C.3A.5C_ECU2.5CECU_Rivian_A1.5CTarget.5Crepo_projects.5CpRealEcu.5CcL_LATEST.5Cmake.5Coutput.5Cobjects.5CSwcApplTpms_Diag.
000001e0 00000000*      7603 	.word	___ghs_eofn_DIAG__ReqCallback_WriteWSNr01-_DIAG__ReqCallback_WriteWSNr01..C.3A.5C_ECU2.5CECU_Rivian_A1.5CTarget.5Crepo_projects.5CpRealEcu.5CcL_LATEST.5Cmake.5Coutput.5Cobjects.5CSwcApplTpms_Diag.
000001e4 01             7604 	.byte	1
000001e5 00000000*      7605 	.word	.LDW73
000001e9 00             7606 	.byte	0
000001ea 00             7607 	.byte	0
000001eb 00             7608 	.byte	0
                        7609 .LDW_unq_16:
                        7610 	.section	.debug_line
000006c6 000502         7611 	.byte	0,5,2
000006c9 00000000*      7612 	.word	_DIAG__ReqCallback_WriteWSNr01..C.3A.5C_ECU2.5CECU_Rivian_A1.5CTarget.5Crepo_projects.5CpRealEcu.5CcL_LATEST.5Cmake.5Coutput.5Cobjects.5CSwcApplTpms_Diag.
000006cd 03             7613 	.byte	3
000006ce ac02           7614 	.byte	172,2

                                                                      Page 141
                                                              C:\Users\nhuliyap\AppData\Local\Temp\gh_00008941.s
000006d0 02             7615 	.byte	2
000006d1 00             7616 	.byte	0
000006d2 01             7617 	.byte	1
000006d3 06             7618 	.byte	6
000006d4 15             7619 	.byte	21
000006d5 000502         7620 	.byte	0,5,2
000006d8 00000000*      7621 	.word	.LDWlin56
000006dc 0b             7622 	.byte	11
000006dd 23             7623 	.byte	35
000006de 23             7624 	.byte	35
000006df 1b             7625 	.byte	27
000006e0 1c             7626 	.byte	28
000006e1 02             7627 	.byte	2
000006e2 04             7628 	.byte	4
000006e3 000101         7629 	.byte	0,1,1
                        7630 	.section	.debug_info
                        7631 .LDW_4c5eaf0:
00001b5b 0f             7632 	.byte	15
00001b5c 50535f4d7367   7633 	.strz	"PS_MsgContext"
00001b62 436f6e746578 
00001b68 7400 
00001b6a ac02           7634 	.byte	172,2
00001b6c 3d             7635 	.byte	61
00001b6d 01             7636 	.byte	1
00001b6e 00000000*      7637 	.word	.LDW_16b6d78
00001b72 00             7638 	.byte	0
00001b73 016e           7639 	.byte	1,110
                        7640 
                        7641 .LDW_16fe720:
00001b75 1d             7642 	.byte	29
00001b76 00000000*      7643 	.word	.LDW63
00001b7a 00000000*      7644 	.word	.LDW73
                        7645 
                        7646 .LDW_4c5ec50:
00001b7e 05             7647 	.byte	5
00001b7f 55385f526574   7648 	.strz	"U8_RetVal"
00001b85 56616c00 
00001b89 ae02           7649 	.byte	174,2
00001b8b 09             7650 	.byte	9
00001b8c 01             7651 	.byte	1
00001b8d 00000000*      7652 	.word	.LDW_16f9eb0
00001b91 00             7653 	.byte	0
00001b92 00             7654 	.byte	0
                        7655 
00001b93 00             7656 	.byte	0
                        7657 
00001b94 00             7658 	.byte	0
                        7659 
                        7660 .LDW_4bc7508:
00001b95 14             7661 	.byte	20
00001b96 444941475f5f   7662 	.strz	"DIAG__ReqCallback_WriteWSNr02"
00001b9c 52657143616c 
00001ba2 6c6261636b5f 
00001ba8 577269746557 
00001bae 534e72303200 
00001bb4 bb02           7663 	.byte	187,2
00001bb6 0e             7664 	.byte	14
00001bb7 01             7665 	.byte	1
00001bb8 00000000*      7666 	.word	.LDW_16f9eb0
00001bbc 00000000*      7667 	.word	_DIAG__ReqCallback_WriteWSNr02..C.3A.5C_ECU2.5CECU_Rivian_A1.5CTarget.5Crepo_projects.5CpRealEcu.5CcL_LATEST.5Cmake.5Coutput.5Cobjects.5CSwcApplTpms_Diag.
00001bc0 00000000*      7668 	.word	___ghs_eofn_DIAG__ReqCallback_WriteWSNr02

                                                                      Page 142
                                                              C:\Users\nhuliyap\AppData\Local\Temp\gh_00008941.s
00001bc4 0153           7669 	.byte	1,83
00001bc6 02             7670 	.byte	2
00001bc7 00             7671 	.byte	0
00001bc8 02             7672 	.byte	2
00001bc9 00             7673 	.byte	0
00001bca 00             7674 	.byte	0
00001bcb 00             7675 	.byte	0
00001bcc 00             7676 	.byte	0
00001bcd 00             7677 	.byte	0
00001bce 01             7678 	.byte	1
00001bcf 00             7679 	.byte	0
00001bd0 01             7680 	.byte	1
                        7681 
                        7682 	.section	.debug_frame
                        7683 .LDW_4d3eca8:
000001ec 00000000*      7684 	.word	.LDW_unq_18-.LDW_unq_17
                        7685 .LDW_unq_17:
000001f0 00000000*      7686 	.word	.LDW_4ca0d40
000001f4 00000000*      7687 	.word	_DIAG__ReqCallback_WriteWSNr02..C.3A.5C_ECU2.5CECU_Rivian_A1.5CTarget.5Crepo_projects.5CpRealEcu.5CcL_LATEST.5Cmake.5Coutput.5Cobjects.5CSwcApplTpms_Diag.
000001f8 00000000*      7688 	.word	___ghs_eofn_DIAG__ReqCallback_WriteWSNr02-_DIAG__ReqCallback_WriteWSNr02..C.3A.5C_ECU2.5CECU_Rivian_A1.5CTarget.5Crepo_projects.5CpRealEcu.5CcL_LATEST.5Cmake.5Coutput.5Cobjects.5CSwcApplTpms_Diag.
000001fc 01             7689 	.byte	1
000001fd 00000000*      7690 	.word	.LDW93
00000201 00             7691 	.byte	0
00000202 00             7692 	.byte	0
00000203 00             7693 	.byte	0
                        7694 .LDW_unq_18:
                        7695 	.section	.debug_line
000006e6 000502         7696 	.byte	0,5,2
000006e9 00000000*      7697 	.word	_DIAG__ReqCallback_WriteWSNr02..C.3A.5C_ECU2.5CECU_Rivian_A1.5CTarget.5Crepo_projects.5CpRealEcu.5CcL_LATEST.5Cmake.5Coutput.5Cobjects.5CSwcApplTpms_Diag.
000006ed 03             7698 	.byte	3
000006ee bb02           7699 	.byte	187,2
000006f0 02             7700 	.byte	2
000006f1 00             7701 	.byte	0
000006f2 01             7702 	.byte	1
000006f3 06             7703 	.byte	6
000006f4 15             7704 	.byte	21
000006f5 000502         7705 	.byte	0,5,2
000006f8 00000000*      7706 	.word	.LDWlin57
000006fc 03             7707 	.byte	3
000006fd 04             7708 	.byte	4
000006fe 02             7709 	.byte	2
000006ff 00             7710 	.byte	0
00000700 01             7711 	.byte	1
00000701 03             7712 	.byte	3
00000702 7d             7713 	.byte	125
00000703 02             7714 	.byte	2
00000704 08             7715 	.byte	8
00000705 01             7716 	.byte	1
00000706 23             7717 	.byte	35
00000707 23             7718 	.byte	35
00000708 2d             7719 	.byte	45
00000709 02             7720 	.byte	2
0000070a 04             7721 	.byte	4
0000070b 000101         7722 	.byte	0,1,1
                        7723 	.section	.debug_info
                        7724 .LDW_4c5e780:
00001bd1 0f             7725 	.byte	15
00001bd2 50535f4d7367   7726 	.strz	"PS_MsgContext"
00001bd8 436f6e746578 
00001bde 7400 
00001be0 bb02           7727 	.byte	187,2

                                                                      Page 143
                                                              C:\Users\nhuliyap\AppData\Local\Temp\gh_00008941.s
00001be2 3d             7728 	.byte	61
00001be3 01             7729 	.byte	1
00001be4 00000000*      7730 	.word	.LDW_16b6d78
00001be8 00             7731 	.byte	0
00001be9 016e           7732 	.byte	1,110
                        7733 
                        7734 .LDW_16fe960:
00001beb 1d             7735 	.byte	29
00001bec 00000000*      7736 	.word	.LDW83
00001bf0 00000000*      7737 	.word	.LDW93
                        7738 
                        7739 .LDW_4c5eca8:
00001bf4 05             7740 	.byte	5
00001bf5 55385f526574   7741 	.strz	"U8_RetVal"
00001bfb 56616c00 
00001bff bd02           7742 	.byte	189,2
00001c01 09             7743 	.byte	9
00001c02 01             7744 	.byte	1
00001c03 00000000*      7745 	.word	.LDW_16f9eb0
00001c07 00             7746 	.byte	0
00001c08 00             7747 	.byte	0
                        7748 
00001c09 00             7749 	.byte	0
                        7750 
00001c0a 00             7751 	.byte	0
                        7752 
                        7753 .LDW_4bc75a0:
00001c0b 14             7754 	.byte	20
00001c0c 444941475f5f   7755 	.strz	"DIAG__ReqCallback_WriteWSNr03"
00001c12 52657143616c 
00001c18 6c6261636b5f 
00001c1e 577269746557 
00001c24 534e72303300 
00001c2a ca02           7756 	.byte	202,2
00001c2c 0e             7757 	.byte	14
00001c2d 01             7758 	.byte	1
00001c2e 00000000*      7759 	.word	.LDW_16f9eb0
00001c32 00000000*      7760 	.word	_DIAG__ReqCallback_WriteWSNr03..C.3A.5C_ECU2.5CECU_Rivian_A1.5CTarget.5Crepo_projects.5CpRealEcu.5CcL_LATEST.5Cmake.5Coutput.5Cobjects.5CSwcApplTpms_Diag.
00001c36 00000000*      7761 	.word	___ghs_eofn_DIAG__ReqCallback_WriteWSNr03
00001c3a 0153           7762 	.byte	1,83
00001c3c 02             7763 	.byte	2
00001c3d 00             7764 	.byte	0
00001c3e 02             7765 	.byte	2
00001c3f 00             7766 	.byte	0
00001c40 00             7767 	.byte	0
00001c41 00             7768 	.byte	0
00001c42 00             7769 	.byte	0
00001c43 00             7770 	.byte	0
00001c44 01             7771 	.byte	1
00001c45 00             7772 	.byte	0
00001c46 01             7773 	.byte	1
                        7774 
                        7775 	.section	.debug_frame
                        7776 .LDW_4d3eaa8:
00000204 00000000*      7777 	.word	.LDW_unq_1a-.LDW_unq_19
                        7778 .LDW_unq_19:
00000208 00000000*      7779 	.word	.LDW_4ca0d40
0000020c 00000000*      7780 	.word	_DIAG__ReqCallback_WriteWSNr03..C.3A.5C_ECU2.5CECU_Rivian_A1.5CTarget.5Crepo_projects.5CpRealEcu.5CcL_LATEST.5Cmake.5Coutput.5Cobjects.5CSwcApplTpms_Diag.
00000210 00000000*      7781 	.word	___ghs_eofn_DIAG__ReqCallback_WriteWSNr03-_DIAG__ReqCallback_WriteWSNr03..C.3A.5C_ECU2.5CECU_Rivian_A1.5CTarget.5Crepo_projects.5CpRealEcu.5CcL_LATEST.5Cmake.5Coutput.5Cobjects.5CSwcApplTpms_Diag.
00000214 01             7782 	.byte	1
00000215 00000000*      7783 	.word	.LDW14

                                                                      Page 144
                                                              C:\Users\nhuliyap\AppData\Local\Temp\gh_00008941.s
00000219 00             7784 	.byte	0
0000021a 00             7785 	.byte	0
0000021b 00             7786 	.byte	0
                        7787 .LDW_unq_1a:
                        7788 	.section	.debug_line
0000070e 000502         7789 	.byte	0,5,2
00000711 00000000*      7790 	.word	_DIAG__ReqCallback_WriteWSNr03..C.3A.5C_ECU2.5CECU_Rivian_A1.5CTarget.5Crepo_projects.5CpRealEcu.5CcL_LATEST.5Cmake.5Coutput.5Cobjects.5CSwcApplTpms_Diag.
00000715 03             7791 	.byte	3
00000716 ca02           7792 	.byte	202,2
00000718 02             7793 	.byte	2
00000719 00             7794 	.byte	0
0000071a 01             7795 	.byte	1
0000071b 06             7796 	.byte	6
0000071c 15             7797 	.byte	21
0000071d 000502         7798 	.byte	0,5,2
00000720 00000000*      7799 	.word	.LDWlin58
00000724 03             7800 	.byte	3
00000725 04             7801 	.byte	4
00000726 02             7802 	.byte	2
00000727 00             7803 	.byte	0
00000728 01             7804 	.byte	1
00000729 03             7805 	.byte	3
0000072a 7d             7806 	.byte	125
0000072b 02             7807 	.byte	2
0000072c 08             7808 	.byte	8
0000072d 01             7809 	.byte	1
0000072e 23             7810 	.byte	35
0000072f 23             7811 	.byte	35
00000730 2d             7812 	.byte	45
00000731 02             7813 	.byte	2
00000732 04             7814 	.byte	4
00000733 000101         7815 	.byte	0,1,1
                        7816 	.section	.debug_info
                        7817 .LDW_4c5e8e0:
00001c47 0f             7818 	.byte	15
00001c48 50535f4d7367   7819 	.strz	"PS_MsgContext"
00001c4e 436f6e746578 
00001c54 7400 
00001c56 ca02           7820 	.byte	202,2
00001c58 3d             7821 	.byte	61
00001c59 01             7822 	.byte	1
00001c5a 00000000*      7823 	.word	.LDW_16b6d78
00001c5e 00             7824 	.byte	0
00001c5f 016e           7825 	.byte	1,110
                        7826 
                        7827 .LDW_4cee308:
00001c61 1d             7828 	.byte	29
00001c62 00000000*      7829 	.word	.LDW04
00001c66 00000000*      7830 	.word	.LDW14
                        7831 
                        7832 .LDW_4c5e990:
00001c6a 05             7833 	.byte	5
00001c6b 55385f526574   7834 	.strz	"U8_RetVal"
00001c71 56616c00 
00001c75 cc02           7835 	.byte	204,2
00001c77 09             7836 	.byte	9
00001c78 01             7837 	.byte	1
00001c79 00000000*      7838 	.word	.LDW_16f9eb0
00001c7d 00             7839 	.byte	0
00001c7e 00             7840 	.byte	0
                        7841 

                                                                      Page 145
                                                              C:\Users\nhuliyap\AppData\Local\Temp\gh_00008941.s
00001c7f 00             7842 	.byte	0
                        7843 
00001c80 00             7844 	.byte	0
                        7845 
                        7846 .LDW_4c5ef08:
00001c81 14             7847 	.byte	20
00001c82 444941475f5f   7848 	.strz	"DIAG__ReqCallback_WriteWSNr04"
00001c88 52657143616c 
00001c8e 6c6261636b5f 
00001c94 577269746557 
00001c9a 534e72303400 
00001ca0 d902           7849 	.byte	217,2
00001ca2 0e             7850 	.byte	14
00001ca3 01             7851 	.byte	1
00001ca4 00000000*      7852 	.word	.LDW_16f9eb0
00001ca8 00000000*      7853 	.word	_DIAG__ReqCallback_WriteWSNr04..C.3A.5C_ECU2.5CECU_Rivian_A1.5CTarget.5Crepo_projects.5CpRealEcu.5CcL_LATEST.5Cmake.5Coutput.5Cobjects.5CSwcApplTpms_Diag.
00001cac 00000000*      7854 	.word	___ghs_eofn_DIAG__ReqCallback_WriteWSNr04
00001cb0 0153           7855 	.byte	1,83
00001cb2 02             7856 	.byte	2
00001cb3 00             7857 	.byte	0
00001cb4 02             7858 	.byte	2
00001cb5 00             7859 	.byte	0
00001cb6 00             7860 	.byte	0
00001cb7 00             7861 	.byte	0
00001cb8 00             7862 	.byte	0
00001cb9 00             7863 	.byte	0
00001cba 01             7864 	.byte	1
00001cbb 00             7865 	.byte	0
00001cbc 01             7866 	.byte	1
                        7867 
                        7868 	.section	.debug_frame
                        7869 .LDW_16e3828:
0000021c 00000000*      7870 	.word	.LDW_unq_1c-.LDW_unq_1b
                        7871 .LDW_unq_1b:
00000220 00000000*      7872 	.word	.LDW_4ca0d40
00000224 00000000*      7873 	.word	_DIAG__ReqCallback_WriteWSNr04..C.3A.5C_ECU2.5CECU_Rivian_A1.5CTarget.5Crepo_projects.5CpRealEcu.5CcL_LATEST.5Cmake.5Coutput.5Cobjects.5CSwcApplTpms_Diag.
00000228 00000000*      7874 	.word	___ghs_eofn_DIAG__ReqCallback_WriteWSNr04-_DIAG__ReqCallback_WriteWSNr04..C.3A.5C_ECU2.5CECU_Rivian_A1.5CTarget.5Crepo_projects.5CpRealEcu.5CcL_LATEST.5Cmake.5Coutput.5Cobjects.5CSwcApplTpms_Diag.
0000022c 01             7875 	.byte	1
0000022d 00000000*      7876 	.word	.LDW34
00000231 00             7877 	.byte	0
00000232 00             7878 	.byte	0
00000233 00             7879 	.byte	0
                        7880 .LDW_unq_1c:
                        7881 	.section	.debug_line
00000736 000502         7882 	.byte	0,5,2
00000739 00000000*      7883 	.word	_DIAG__ReqCallback_WriteWSNr04..C.3A.5C_ECU2.5CECU_Rivian_A1.5CTarget.5Crepo_projects.5CpRealEcu.5CcL_LATEST.5Cmake.5Coutput.5Cobjects.5CSwcApplTpms_Diag.
0000073d 03             7884 	.byte	3
0000073e d902           7885 	.byte	217,2
00000740 02             7886 	.byte	2
00000741 00             7887 	.byte	0
00000742 01             7888 	.byte	1
00000743 06             7889 	.byte	6
00000744 15             7890 	.byte	21
00000745 000502         7891 	.byte	0,5,2
00000748 00000000*      7892 	.word	.LDWlin59
0000074c 03             7893 	.byte	3
0000074d 04             7894 	.byte	4
0000074e 02             7895 	.byte	2
0000074f 00             7896 	.byte	0
00000750 01             7897 	.byte	1
00000751 03             7898 	.byte	3

                                                                      Page 146
                                                              C:\Users\nhuliyap\AppData\Local\Temp\gh_00008941.s
00000752 7d             7899 	.byte	125
00000753 02             7900 	.byte	2
00000754 08             7901 	.byte	8
00000755 01             7902 	.byte	1
00000756 23             7903 	.byte	35
00000757 23             7904 	.byte	35
00000758 2d             7905 	.byte	45
00000759 02             7906 	.byte	2
0000075a 04             7907 	.byte	4
0000075b 000101         7908 	.byte	0,1,1
                        7909 	.section	.debug_info
                        7910 .LDW_4c5e9e8:
00001cbd 0f             7911 	.byte	15
00001cbe 50535f4d7367   7912 	.strz	"PS_MsgContext"
00001cc4 436f6e746578 
00001cca 7400 
00001ccc d902           7913 	.byte	217,2
00001cce 3d             7914 	.byte	61
00001ccf 01             7915 	.byte	1
00001cd0 00000000*      7916 	.word	.LDW_16b6d78
00001cd4 00             7917 	.byte	0
00001cd5 016e           7918 	.byte	1,110
                        7919 
                        7920 .LDW_4cee158:
00001cd7 1d             7921 	.byte	29
00001cd8 00000000*      7922 	.word	.LDW24
00001cdc 00000000*      7923 	.word	.LDW34
                        7924 
                        7925 .LDW_4c5ea98:
00001ce0 05             7926 	.byte	5
00001ce1 55385f526574   7927 	.strz	"U8_RetVal"
00001ce7 56616c00 
00001ceb db02           7928 	.byte	219,2
00001ced 09             7929 	.byte	9
00001cee 01             7930 	.byte	1
00001cef 00000000*      7931 	.word	.LDW_16f9eb0
00001cf3 00             7932 	.byte	0
00001cf4 00             7933 	.byte	0
                        7934 
00001cf5 00             7935 	.byte	0
                        7936 
00001cf6 00             7937 	.byte	0
                        7938 
                        7939 .LDW_4c5efa0:
00001cf7 14             7940 	.byte	20
00001cf8 444941475f5f   7941 	.strz	"DIAG__ReqCallback_ReadWheelSensorIDs"
00001cfe 52657143616c 
00001d04 6c6261636b5f 
00001d0a 526561645768 
00001d10 65656c53656e 
00001d16 736f72494473 
00001d1c 00 
00001d1d e802           7942 	.byte	232,2
00001d1f 0e             7943 	.byte	14
00001d20 01             7944 	.byte	1
00001d21 00000000*      7945 	.word	.LDW_16f9eb0
00001d25 00000000*      7946 	.word	_DIAG__ReqCallback_ReadWheelSensorIDs..C.3A.5C_ECU2.5CECU_Rivian_A1.5CTarget.5Crepo_projects.5CpRealEcu.5CcL_LATEST.5Cmake.5Coutput.5Cobjects.5CSwcApplTpms_Diag.
00001d29 00000000*      7947 	.word	___ghs_eofn_DIAG__ReqCallback_ReadWheelSensorIDs
00001d2d 0153           7948 	.byte	1,83
00001d2f 828080ec0b     7949 	.byte	130,128,128,236,11
00001d34 1c             7950 	.byte	28

                                                                      Page 147
                                                              C:\Users\nhuliyap\AppData\Local\Temp\gh_00008941.s
00001d35 03             7951 	.byte	3
00001d36 1c             7952 	.byte	28
00001d37 00             7953 	.byte	0
00001d38 00             7954 	.byte	0
00001d39 00             7955 	.byte	0
00001d3a 00             7956 	.byte	0
00001d3b 01             7957 	.byte	1
00001d3c 00             7958 	.byte	0
00001d3d 01             7959 	.byte	1
                        7960 
                        7961 	.section	.debug_frame
                        7962 .LDW_16e36e8:
00000234 00000000*      7963 	.word	.LDW_unq_1e-.LDW_unq_1d
                        7964 .LDW_unq_1d:
00000238 00000000*      7965 	.word	.LDW_4ca0d40
0000023c 00000000*      7966 	.word	_DIAG__ReqCallback_ReadWheelSensorIDs..C.3A.5C_ECU2.5CECU_Rivian_A1.5CTarget.5Crepo_projects.5CpRealEcu.5CcL_LATEST.5Cmake.5Coutput.5Cobjects.5CSwcApplTpms_Diag.
00000240 00000000*      7967 	.word	___ghs_eofn_DIAG__ReqCallback_ReadWheelSensorIDs-_DIAG__ReqCallback_ReadWheelSensorIDs..C.3A.5C_ECU2.5CECU_Rivian_A1.5CTarget.5Crepo_projects.5CpRealEcu.5CcL_LATEST.5Cmake.5Coutput.5Cobjects.5CSwcApplTpms_Diag.
00000244 44             7968 	.byte	68
00000245 9f             7969 	.byte	159
00000246 00             7970 	.byte	0
00000247 40             7971 	.byte	64
00000248 9d             7972 	.byte	157
00000249 04             7973 	.byte	4
0000024a 40             7974 	.byte	64
0000024b 9c             7975 	.byte	156
0000024c 08             7976 	.byte	8
0000024d 40             7977 	.byte	64
0000024e 9b             7978 	.byte	155
0000024f 0c             7979 	.byte	12
00000250 40             7980 	.byte	64
00000251 9a             7981 	.byte	154
00000252 10             7982 	.byte	16
00000253 40             7983 	.byte	64
00000254 98             7984 	.byte	152
00000255 14             7985 	.byte	20
00000256 40             7986 	.byte	64
00000257 97             7987 	.byte	151
00000258 18             7988 	.byte	24
00000259 01             7989 	.byte	1
0000025a 00000000*      7990 	.word	.LDW54
0000025e 00             7991 	.byte	0
0000025f 00             7992 	.byte	0
                        7993 .LDW_unq_1e:
                        7994 	.section	.debug_line
0000075e 000502         7995 	.byte	0,5,2
00000761 00000000*      7996 	.word	_DIAG__ReqCallback_ReadWheelSensorIDs..C.3A.5C_ECU2.5CECU_Rivian_A1.5CTarget.5Crepo_projects.5CpRealEcu.5CcL_LATEST.5Cmake.5Coutput.5Cobjects.5CSwcApplTpms_Diag.
00000765 03             7997 	.byte	3
00000766 e802           7998 	.byte	232,2
00000768 02             7999 	.byte	2
00000769 00             8000 	.byte	0
0000076a 01             8001 	.byte	1
0000076b 06             8002 	.byte	6
0000076c 000502         8003 	.byte	0,5,2
0000076f 00000000*      8004 	.word	.LDWlin60
00000773 0b             8005 	.byte	11
00000774 03             8006 	.byte	3
00000775 05             8007 	.byte	5
00000776 02             8008 	.byte	2
00000777 02             8009 	.byte	2
00000778 01             8010 	.byte	1
00000779 2b             8011 	.byte	43

                                                                      Page 148
                                                              C:\Users\nhuliyap\AppData\Local\Temp\gh_00008941.s
0000077a 02             8012 	.byte	2
0000077b 02             8013 	.byte	2
0000077c 0c             8014 	.byte	12
0000077d 03             8015 	.byte	3
0000077e 7e             8016 	.byte	126
0000077f 02             8017 	.byte	2
00000780 04             8018 	.byte	4
00000781 01             8019 	.byte	1
00000782 000502         8020 	.byte	0,5,2
00000785 00000000*      8021 	.word	.LDWlin61
00000789 0d             8022 	.byte	13
0000078a 0b             8023 	.byte	11
0000078b 000502         8024 	.byte	0,5,2
0000078e 00000000*      8025 	.word	.LDWlin62
00000792 0b             8026 	.byte	11
00000793 0c             8027 	.byte	12
00000794 02             8028 	.byte	2
00000795 02             8029 	.byte	2
00000796 000502         8030 	.byte	0,5,2
00000799 00000000*      8031 	.word	.LDWlin63
0000079d 0c             8032 	.byte	12
0000079e 000502         8033 	.byte	0,5,2
000007a1 00000000*      8034 	.word	.LDWlin64
000007a5 0b             8035 	.byte	11
000007a6 000502         8036 	.byte	0,5,2
000007a9 00000000*      8037 	.word	.LDWlin65
000007ad 0b             8038 	.byte	11
000007ae 000502         8039 	.byte	0,5,2
000007b1 00000000*      8040 	.word	.LDWlin66
000007b5 03             8041 	.byte	3
000007b6 18             8042 	.byte	24
000007b7 02             8043 	.byte	2
000007b8 00             8044 	.byte	0
000007b9 01             8045 	.byte	1
000007ba 13             8046 	.byte	19
000007bb 23             8047 	.byte	35
000007bc 3b             8048 	.byte	59
000007bd 13             8049 	.byte	19
000007be 000502         8050 	.byte	0,5,2
000007c1 00000000*      8051 	.word	.LDWlin67
000007c5 03             8052 	.byte	3
000007c6 67             8053 	.byte	103
000007c7 02             8054 	.byte	2
000007c8 00             8055 	.byte	0
000007c9 01             8056 	.byte	1
000007ca 13             8057 	.byte	19
000007cb 23             8058 	.byte	35
000007cc 3b             8059 	.byte	59
000007cd 13             8060 	.byte	19
000007ce 000502         8061 	.byte	0,5,2
000007d1 00000000*      8062 	.word	.LDWlin68
000007d5 0d             8063 	.byte	13
000007d6 13             8064 	.byte	19
000007d7 23             8065 	.byte	35
000007d8 3b             8066 	.byte	59
000007d9 13             8067 	.byte	19
000007da 000502         8068 	.byte	0,5,2
000007dd 00000000*      8069 	.word	.LDWlin69
000007e1 0d             8070 	.byte	13
000007e2 13             8071 	.byte	19
000007e3 13             8072 	.byte	19

                                                                      Page 149
                                                              C:\Users\nhuliyap\AppData\Local\Temp\gh_00008941.s
000007e4 4b             8073 	.byte	75
000007e5 13             8074 	.byte	19
000007e6 03             8075 	.byte	3
000007e7 09             8076 	.byte	9
000007e8 02             8077 	.byte	2
000007e9 04             8078 	.byte	4
000007ea 01             8079 	.byte	1
000007eb 0b             8080 	.byte	11
000007ec 0b             8081 	.byte	11
000007ed 03             8082 	.byte	3
000007ee 5c             8083 	.byte	92
000007ef 02             8084 	.byte	2
000007f0 00             8085 	.byte	0
000007f1 01             8086 	.byte	1
000007f2 000502         8087 	.byte	0,5,2
000007f5 00000000*      8088 	.word	.LDWlin70
000007f9 03             8089 	.byte	3
000007fa 26             8090 	.byte	38
000007fb 02             8091 	.byte	2
000007fc 00             8092 	.byte	0
000007fd 01             8093 	.byte	1
000007fe 0c             8094 	.byte	12
000007ff 1c             8095 	.byte	28
00000800 000502         8096 	.byte	0,5,2
00000803 00000000*      8097 	.word	.LDWlin71
00000807 0c             8098 	.byte	12
00000808 0b             8099 	.byte	11
00000809 0c             8100 	.byte	12
0000080a 1b             8101 	.byte	27
0000080b 02             8102 	.byte	2
0000080c 00             8103 	.byte	0
0000080d 0c             8104 	.byte	12
0000080e 06             8105 	.byte	6
0000080f 02             8106 	.byte	2
00000810 02             8107 	.byte	2
00000811 02             8108 	.byte	2
00000812 04             8109 	.byte	4
00000813 000101         8110 	.byte	0,1,1
                        8111 	.section	.debug_info
                        8112 .LDW_4cff220:
00001d3e 0f             8113 	.byte	15
00001d3f 50535f4d7367   8114 	.strz	"PS_MsgContext"
00001d45 436f6e746578 
00001d4b 7400 
00001d4d e802           8115 	.byte	232,2
00001d4f 44             8116 	.byte	68
00001d50 01             8117 	.byte	1
00001d51 00000000*      8118 	.word	.LDW_16b6d78
00001d55 00             8119 	.byte	0
00001d56 0168           8120 	.byte	1,104
                        8121 
                        8122 .LDW_4cee338:
00001d58 1d             8123 	.byte	29
00001d59 00000000*      8124 	.word	.LDW44
00001d5d 00000000*      8125 	.word	.LDW54
                        8126 
                        8127 .LDW_4cff278:
00001d61 04             8128 	.byte	4
00001d62 55385f526574   8129 	.strz	"U8_RetVal"
00001d68 56616c00 
00001d6c ea02           8130 	.byte	234,2

                                                                      Page 150
                                                              C:\Users\nhuliyap\AppData\Local\Temp\gh_00008941.s
00001d6e 09             8131 	.byte	9
00001d6f 01             8132 	.byte	1
00001d70 00000000*      8133 	.word	.LDW_16f9eb0
00001d74 00             8134 	.byte	0
00001d75 00             8135 	.byte	0
00001d76 016a           8136 	.byte	1,106
                        8137 
                        8138 .LDW_4cff2d0:
00001d78 04             8139 	.byte	4
00001d79 55385f496e64   8140 	.strz	"U8_Index"
00001d7f 657800 
00001d82 eb02           8141 	.byte	235,2
00001d84 09             8142 	.byte	9
00001d85 01             8143 	.byte	1
00001d86 00000000*      8144 	.word	.LDW_16f9eb0
00001d8a 00             8145 	.byte	0
00001d8b 00             8146 	.byte	0
00001d8c 016b           8147 	.byte	1,107
                        8148 
                        8149 .LDW_4cff1c8:
00001d8e 04             8150 	.byte	4
00001d8f 55385f526164   8151 	.strz	"U8_RadPos"
00001d95 506f7300 
00001d99 ec02           8152 	.byte	236,2
00001d9b 09             8153 	.byte	9
00001d9c 01             8154 	.byte	1
00001d9d 00000000*      8155 	.word	.LDW_16f9eb0
00001da1 00             8156 	.byte	0
00001da2 00             8157 	.byte	0
00001da3 0167           8158 	.byte	1,103
                        8159 
                        8160 .LDW_4cff380:
00001da5 04             8161 	.byte	4
00001da6 5533325f546d   8162 	.strz	"U32_TmpID"
00001dac 70494400 
00001db0 ed02           8163 	.byte	237,2
00001db2 0a             8164 	.byte	10
00001db3 01             8165 	.byte	1
00001db4 00000000*      8166 	.word	.LDW_4cff328
00001db8 00             8167 	.byte	0
00001db9 00             8168 	.byte	0
00001dba 015a           8169 	.byte	1,90
                        8170 
                        8171 .LDW_4cff3d8:
00001dbc 04             8172 	.byte	4
00001dbd 55385f4c6f6f   8173 	.strz	"U8_LoopCnt"
00001dc3 70436e7400 
00001dc8 ee02           8174 	.byte	238,2
00001dca 09             8175 	.byte	9
00001dcb 01             8176 	.byte	1
00001dcc 00000000*      8177 	.word	.LDW_16f9eb0
00001dd0 00             8178 	.byte	0
00001dd1 00             8179 	.byte	0
00001dd2 0159           8180 	.byte	1,89
                        8181 
00001dd4 00             8182 	.byte	0
                        8183 
00001dd5 00             8184 	.byte	0
                        8185 
                        8186 .LDW_4c5f038:
00001dd6 14             8187 	.byte	20

                                                                      Page 151
                                                              C:\Users\nhuliyap\AppData\Local\Temp\gh_00008941.s
00001dd7 444941475f5f   8188 	.strz	"DIAG__ReqCallback_WriteWheelSensorIDs"
00001ddd 52657143616c 
00001de3 6c6261636b5f 
00001de9 577269746557 
00001def 6865656c5365 
00001df5 6e736f724944 
00001dfb 7300 
00001dfd ac03           8189 	.byte	172,3
00001dff 0e             8190 	.byte	14
00001e00 01             8191 	.byte	1
00001e01 00000000*      8192 	.word	.LDW_16f9eb0
00001e05 00000000*      8193 	.word	_DIAG__ReqCallback_WriteWheelSensorIDs..C.3A.5C_ECU2.5CECU_Rivian_A1.5CTarget.5Crepo_projects.5CpRealEcu.5CcL_LATEST.5Cmake.5Coutput.5Cobjects.5CSwcApplTpms_Diag.
00001e09 00000000*      8194 	.word	___ghs_eofn_DIAG__ReqCallback_WriteWheelSensorIDs
00001e0d 0153           8195 	.byte	1,83
00001e0f 828080c00b     8196 	.byte	130,128,128,192,11
00001e14 10             8197 	.byte	16
00001e15 03             8198 	.byte	3
00001e16 10             8199 	.byte	16
00001e17 00             8200 	.byte	0
00001e18 00             8201 	.byte	0
00001e19 00             8202 	.byte	0
00001e1a 00             8203 	.byte	0
00001e1b 01             8204 	.byte	1
00001e1c 00             8205 	.byte	0
00001e1d 01             8206 	.byte	1
                        8207 
                        8208 	.section	.debug_frame
                        8209 .LDW_16e31a8:
00000260 00000000*      8210 	.word	.LDW_unq_20-.LDW_unq_1f
                        8211 .LDW_unq_1f:
00000264 00000000*      8212 	.word	.LDW_4ca0d40
00000268 00000000*      8213 	.word	_DIAG__ReqCallback_WriteWheelSensorIDs..C.3A.5C_ECU2.5CECU_Rivian_A1.5CTarget.5Crepo_projects.5CpRealEcu.5CcL_LATEST.5Cmake.5Coutput.5Cobjects.5CSwcApplTpms_Diag.
0000026c 00000000*      8214 	.word	___ghs_eofn_DIAG__ReqCallback_WriteWheelSensorIDs-_DIAG__ReqCallback_WriteWheelSensorIDs..C.3A.5C_ECU2.5CECU_Rivian_A1.5CTarget.5Crepo_projects.5CpRealEcu.5CcL_LATEST.5Cmake.5Coutput.5Cobjects.5CSwcApplTpms_Diag.
00000270 44             8215 	.byte	68
00000271 9f             8216 	.byte	159
00000272 00             8217 	.byte	0
00000273 40             8218 	.byte	64
00000274 9d             8219 	.byte	157
00000275 04             8220 	.byte	4
00000276 40             8221 	.byte	64
00000277 9c             8222 	.byte	156
00000278 08             8223 	.byte	8
00000279 40             8224 	.byte	64
0000027a 9b             8225 	.byte	155
0000027b 0c             8226 	.byte	12
0000027c 01             8227 	.byte	1
0000027d 00000000*      8228 	.word	.LDW74
00000281 00             8229 	.byte	0
00000282 00             8230 	.byte	0
00000283 00             8231 	.byte	0
                        8232 .LDW_unq_20:
                        8233 	.section	.debug_line
00000816 000502         8234 	.byte	0,5,2
00000819 00000000*      8235 	.word	_DIAG__ReqCallback_WriteWheelSensorIDs..C.3A.5C_ECU2.5CECU_Rivian_A1.5CTarget.5Crepo_projects.5CpRealEcu.5CcL_LATEST.5Cmake.5Coutput.5Cobjects.5CSwcApplTpms_Diag.
0000081d 03             8236 	.byte	3
0000081e ac03           8237 	.byte	172,3
00000820 02             8238 	.byte	2
00000821 00             8239 	.byte	0
00000822 01             8240 	.byte	1
00000823 06             8241 	.byte	6
00000824 23             8242 	.byte	35

                                                                      Page 152
                                                              C:\Users\nhuliyap\AppData\Local\Temp\gh_00008941.s
00000825 15             8243 	.byte	21
00000826 02             8244 	.byte	2
00000827 02             8245 	.byte	2
00000828 0c             8246 	.byte	12
00000829 000502         8247 	.byte	0,5,2
0000082c 00000000*      8248 	.word	.LDWlin72
00000830 03             8249 	.byte	3
00000831 7e             8250 	.byte	126
00000832 02             8251 	.byte	2
00000833 00             8252 	.byte	0
00000834 01             8253 	.byte	1
00000835 000502         8254 	.byte	0,5,2
00000838 00000000*      8255 	.word	.LDWlin73
0000083c 0d             8256 	.byte	13
0000083d 0b             8257 	.byte	11
0000083e 03             8258 	.byte	3
0000083f 04             8259 	.byte	4
00000840 02             8260 	.byte	2
00000841 04             8261 	.byte	4
00000842 01             8262 	.byte	1
00000843 03             8263 	.byte	3
00000844 7f             8264 	.byte	127
00000845 02             8265 	.byte	2
00000846 04             8266 	.byte	4
00000847 01             8267 	.byte	1
00000848 000502         8268 	.byte	0,5,2
0000084b 00000000*      8269 	.word	.LDWlin74
0000084f 03             8270 	.byte	3
00000850 07             8271 	.byte	7
00000851 02             8272 	.byte	2
00000852 00             8273 	.byte	0
00000853 01             8274 	.byte	1
00000854 0c             8275 	.byte	12
00000855 000502         8276 	.byte	0,5,2
00000858 00000000*      8277 	.word	.LDWlin75
0000085c 0b             8278 	.byte	11
0000085d 0b             8279 	.byte	11
0000085e 0c             8280 	.byte	12
0000085f 03             8281 	.byte	3
00000860 05             8282 	.byte	5
00000861 02             8283 	.byte	2
00000862 02             8284 	.byte	2
00000863 01             8285 	.byte	1
00000864 03             8286 	.byte	3
00000865 7c             8287 	.byte	124
00000866 02             8288 	.byte	2
00000867 06             8289 	.byte	6
00000868 01             8290 	.byte	1
00000869 23             8291 	.byte	35
0000086a 23             8292 	.byte	35
0000086b 1b             8293 	.byte	27
0000086c 000502         8294 	.byte	0,5,2
0000086f 00000000*      8295 	.word	.LDWlin76
00000873 0d             8296 	.byte	13
00000874 03             8297 	.byte	3
00000875 04             8298 	.byte	4
00000876 02             8299 	.byte	2
00000877 04             8300 	.byte	4
00000878 01             8301 	.byte	1
00000879 03             8302 	.byte	3
0000087a 7d             8303 	.byte	125

                                                                      Page 153
                                                              C:\Users\nhuliyap\AppData\Local\Temp\gh_00008941.s
0000087b 02             8304 	.byte	2
0000087c 08             8305 	.byte	8
0000087d 01             8306 	.byte	1
0000087e 23             8307 	.byte	35
0000087f 15             8308 	.byte	21
00000880 03             8309 	.byte	3
00000881 7e             8310 	.byte	126
00000882 02             8311 	.byte	2
00000883 06             8312 	.byte	6
00000884 01             8313 	.byte	1
00000885 000502         8314 	.byte	0,5,2
00000888 00000000*      8315 	.word	.LDWlin77
0000088c 03             8316 	.byte	3
0000088d 04             8317 	.byte	4
0000088e 02             8318 	.byte	2
0000088f 00             8319 	.byte	0
00000890 01             8320 	.byte	1
00000891 03             8321 	.byte	3
00000892 04             8322 	.byte	4
00000893 02             8323 	.byte	2
00000894 04             8324 	.byte	4
00000895 01             8325 	.byte	1
00000896 13             8326 	.byte	19
00000897 03             8327 	.byte	3
00000898 7c             8328 	.byte	124
00000899 02             8329 	.byte	2
0000089a 08             8330 	.byte	8
0000089b 01             8331 	.byte	1
0000089c 23             8332 	.byte	35
0000089d 23             8333 	.byte	35
0000089e 000502         8334 	.byte	0,5,2
000008a1 00000000*      8335 	.word	.LDWlin78
000008a5 03             8336 	.byte	3
000008a6 04             8337 	.byte	4
000008a7 02             8338 	.byte	2
000008a8 00             8339 	.byte	0
000008a9 01             8340 	.byte	1
000008aa 03             8341 	.byte	3
000008ab 04             8342 	.byte	4
000008ac 02             8343 	.byte	2
000008ad 04             8344 	.byte	4
000008ae 01             8345 	.byte	1
000008af 13             8346 	.byte	19
000008b0 03             8347 	.byte	3
000008b1 7c             8348 	.byte	124
000008b2 02             8349 	.byte	2
000008b3 08             8350 	.byte	8
000008b4 01             8351 	.byte	1
000008b5 23             8352 	.byte	35
000008b6 23             8353 	.byte	35
000008b7 000502         8354 	.byte	0,5,2
000008ba 00000000*      8355 	.word	.LDWlin79
000008be 0d             8356 	.byte	13
000008bf 02             8357 	.byte	2
000008c0 00             8358 	.byte	0
000008c1 0b             8359 	.byte	11
000008c2 06             8360 	.byte	6
000008c3 02             8361 	.byte	2
000008c4 02             8362 	.byte	2
000008c5 02             8363 	.byte	2
000008c6 04             8364 	.byte	4

                                                                      Page 154
                                                              C:\Users\nhuliyap\AppData\Local\Temp\gh_00008941.s
000008c7 000101         8365 	.byte	0,1,1
                        8366 	.section	.debug_info
                        8367 .LDW_4cff640:
00001e1e 0f             8368 	.byte	15
00001e1f 50535f4d7367   8369 	.strz	"PS_MsgContext"
00001e25 436f6e746578 
00001e2b 7400 
00001e2d ac03           8370 	.byte	172,3
00001e2f 45             8371 	.byte	69
00001e30 01             8372 	.byte	1
00001e31 00000000*      8373 	.word	.LDW_16b6d78
00001e35 00             8374 	.byte	0
00001e36 016c           8375 	.byte	1,108
                        8376 
                        8377 .LDW_4cee398:
00001e38 1d             8378 	.byte	29
00001e39 00000000*      8379 	.word	.LDW64
00001e3d 00000000*      8380 	.word	.LDW74
                        8381 
                        8382 .LDW_4cff900:
00001e41 04             8383 	.byte	4
00001e42 55385f526574   8384 	.strz	"U8_RetVal"
00001e48 56616c00 
00001e4c ae03           8385 	.byte	174,3
00001e4e 09             8386 	.byte	9
00001e4f 01             8387 	.byte	1
00001e50 00000000*      8388 	.word	.LDW_16f9eb0
00001e54 00             8389 	.byte	0
00001e55 00             8390 	.byte	0
00001e56 016b           8391 	.byte	1,107
                        8392 
                        8393 .LDW_4cff8a8:
00001e58 04             8394 	.byte	4
00001e59 55385f4c6f6f   8395 	.strz	"U8_LoopCnt"
00001e5f 70436e7400 
00001e64 af03           8396 	.byte	175,3
00001e66 09             8397 	.byte	9
00001e67 01             8398 	.byte	1
00001e68 00000000*      8399 	.word	.LDW_16f9eb0
00001e6c 00             8400 	.byte	0
00001e6d 00             8401 	.byte	0
00001e6e 0162           8402 	.byte	1,98
                        8403 
                        8404 .LDW_4cff698:
00001e70 05             8405 	.byte	5
00001e71 49443100       8406 	.strz	"ID1"
00001e75 b003           8407 	.byte	176,3
00001e77 0b             8408 	.byte	11
00001e78 01             8409 	.byte	1
00001e79 00000000*      8410 	.word	.LDW_4cedc00
00001e7d 00             8411 	.byte	0
00001e7e 00             8412 	.byte	0
                        8413 
                        8414 .LDW_4cff6f0:
00001e7f 05             8415 	.byte	5
00001e80 49443200       8416 	.strz	"ID2"
00001e84 b003           8417 	.byte	176,3
00001e86 11             8418 	.byte	17
00001e87 01             8419 	.byte	1
00001e88 00000000*      8420 	.word	.LDW_4cedc00
00001e8c 00             8421 	.byte	0

                                                                      Page 155
                                                              C:\Users\nhuliyap\AppData\Local\Temp\gh_00008941.s
00001e8d 00             8422 	.byte	0
                        8423 
                        8424 .LDW_4cff5e8:
00001e8e 04             8425 	.byte	4
00001e8f 49443300       8426 	.strz	"ID3"
00001e93 b003           8427 	.byte	176,3
00001e95 16             8428 	.byte	22
00001e96 01             8429 	.byte	1
00001e97 00000000*      8430 	.word	.LDW_4cedc00
00001e9b 00             8431 	.byte	0
00001e9c 00             8432 	.byte	0
00001e9d 015d           8433 	.byte	1,93
                        8434 
                        8435 .LDW_4cff748:
00001e9f 04             8436 	.byte	4
00001ea0 49443400       8437 	.strz	"ID4"
00001ea4 b003           8438 	.byte	176,3
00001ea6 1b             8439 	.byte	27
00001ea7 01             8440 	.byte	1
00001ea8 00000000*      8441 	.word	.LDW_4cedc00
00001eac 00             8442 	.byte	0
00001ead 00             8443 	.byte	0
00001eae 015c           8444 	.byte	1,92
                        8445 
00001eb0 00             8446 	.byte	0
                        8447 
00001eb1 00             8448 	.byte	0
                        8449 
                        8450 .LDW_4c5f0d0:
00001eb2 14             8451 	.byte	20
00001eb3 444941475f5f   8452 	.strz	"DIAG__ReqCallback_ReadVehicleSpecificParameters"
00001eb9 52657143616c 
00001ebf 6c6261636b5f 
00001ec5 526561645665 
00001ecb 6869636c6553 
00001ed1 706563696669 
00001ed7 63506172616d 
00001edd 657465727300 
00001ee3 e403           8453 	.byte	228,3
00001ee5 0e             8454 	.byte	14
00001ee6 01             8455 	.byte	1
00001ee7 00000000*      8456 	.word	.LDW_16f9eb0
00001eeb 00000000*      8457 	.word	_DIAG__ReqCallback_ReadVehicleSpecificParameters..C.3A.5C_ECU2.5CECU_Rivian_A1.5CTarget.5Crepo_projects.5CpRealEcu.5CcL_LATEST.5Cmake.5Coutput.5Cobjects.5CSwcApplTpms_Diag.
00001eef 00000000*      8458 	.word	___ghs_eofn_DIAG__ReqCallback_ReadVehicleSpecificParameters
00001ef3 0153           8459 	.byte	1,83
00001ef5 828080c00b     8460 	.byte	130,128,128,192,11
00001efa 10             8461 	.byte	16
00001efb 03             8462 	.byte	3
00001efc 10             8463 	.byte	16
00001efd 00             8464 	.byte	0
00001efe 00             8465 	.byte	0
00001eff 00             8466 	.byte	0
00001f00 00             8467 	.byte	0
00001f01 01             8468 	.byte	1
00001f02 00             8469 	.byte	0
00001f03 01             8470 	.byte	1
                        8471 
                        8472 	.section	.debug_frame
                        8473 .LDW_16e32e8:
00000284 00000000*      8474 	.word	.LDW_unq_22-.LDW_unq_21
                        8475 .LDW_unq_21:

                                                                      Page 156
                                                              C:\Users\nhuliyap\AppData\Local\Temp\gh_00008941.s
00000288 00000000*      8476 	.word	.LDW_4ca0d40
0000028c 00000000*      8477 	.word	_DIAG__ReqCallback_ReadVehicleSpecificParameters..C.3A.5C_ECU2.5CECU_Rivian_A1.5CTarget.5Crepo_projects.5CpRealEcu.5CcL_LATEST.5Cmake.5Coutput.5Cobjects.5CSwcApplTpms_Diag.
00000290 00000000*      8478 	.word	___ghs_eofn_DIAG__ReqCallback_ReadVehicleSpecificParameters-_DIAG__ReqCallback_ReadVehicleSpecificParameters..C.3A.5C_ECU2.5CECU_Rivian_A1.5CTarget.5Crepo_projects.5CpRealEcu.5CcL_LATEST.5Cmake.5Coutput.5Cobjects.5CSwcApplTpms_Diag.
00000294 44             8479 	.byte	68
00000295 9f             8480 	.byte	159
00000296 00             8481 	.byte	0
00000297 40             8482 	.byte	64
00000298 9d             8483 	.byte	157
00000299 04             8484 	.byte	4
0000029a 40             8485 	.byte	64
0000029b 9c             8486 	.byte	156
0000029c 08             8487 	.byte	8
0000029d 40             8488 	.byte	64
0000029e 9b             8489 	.byte	155
0000029f 0c             8490 	.byte	12
000002a0 01             8491 	.byte	1
000002a1 00000000*      8492 	.word	.LDW15
000002a5 00             8493 	.byte	0
000002a6 00             8494 	.byte	0
000002a7 00             8495 	.byte	0
                        8496 .LDW_unq_22:
                        8497 	.section	.debug_line
000008ca 000502         8498 	.byte	0,5,2
000008cd 00000000*      8499 	.word	_DIAG__ReqCallback_ReadVehicleSpecificParameters..C.3A.5C_ECU2.5CECU_Rivian_A1.5CTarget.5Crepo_projects.5CpRealEcu.5CcL_LATEST.5Cmake.5Coutput.5Cobjects.5CSwcApplTpms_Diag.
000008d1 03             8500 	.byte	3
000008d2 e403           8501 	.byte	228,3
000008d4 02             8502 	.byte	2
000008d5 00             8503 	.byte	0
000008d6 01             8504 	.byte	1
000008d7 06             8505 	.byte	6
000008d8 000502         8506 	.byte	0,5,2
000008db 00000000*      8507 	.word	.LDWlin84
000008df 03             8508 	.byte	3
000008e0 04             8509 	.byte	4
000008e1 02             8510 	.byte	2
000008e2 00             8511 	.byte	0
000008e3 01             8512 	.byte	1
000008e4 02             8513 	.byte	2
000008e5 02             8514 	.byte	2
000008e6 0c             8515 	.byte	12
000008e7 03             8516 	.byte	3
000008e8 7e             8517 	.byte	126
000008e9 02             8518 	.byte	2
000008ea 04             8519 	.byte	4
000008eb 01             8520 	.byte	1
000008ec 000502         8521 	.byte	0,5,2
000008ef 00000000*      8522 	.word	.LDWlin85
000008f3 0d             8523 	.byte	13
000008f4 0b             8524 	.byte	11
000008f5 000502         8525 	.byte	0,5,2
000008f8 00000000*      8526 	.word	.LDWlin86
000008fc 0c             8527 	.byte	12
000008fd 14             8528 	.byte	20
000008fe 2b             8529 	.byte	43
000008ff 14             8530 	.byte	20
00000900 06             8531 	.byte	6
00000901 02             8532 	.byte	2
00000902 02             8533 	.byte	2
00000903 02             8534 	.byte	2
00000904 04             8535 	.byte	4
00000905 000101         8536 	.byte	0,1,1

                                                                      Page 157
                                                              C:\Users\nhuliyap\AppData\Local\Temp\gh_00008941.s
                        8537 	.section	.debug_info
                        8538 .LDW_4cff430:
00001f04 0f             8539 	.byte	15
00001f05 50535f4d7367   8540 	.strz	"PS_MsgContext"
00001f0b 436f6e746578 
00001f11 7400 
00001f13 e403           8541 	.byte	228,3
00001f15 4f             8542 	.byte	79
00001f16 01             8543 	.byte	1
00001f17 00000000*      8544 	.word	.LDW_16b6d78
00001f1b 00             8545 	.byte	0
00001f1c 016b           8546 	.byte	1,107
                        8547 
                        8548 .LDW_4cee428:
00001f1e 1d             8549 	.byte	29
00001f1f 00000000*      8550 	.word	.LDW05
00001f23 00000000*      8551 	.word	.LDW15
                        8552 
                        8553 .LDW_4cff488:
00001f27 05             8554 	.byte	5
00001f28 55385f526574   8555 	.strz	"U8_RetVal"
00001f2e 56616c00 
00001f32 e603           8556 	.byte	230,3
00001f34 09             8557 	.byte	9
00001f35 01             8558 	.byte	1
00001f36 00000000*      8559 	.word	.LDW_16f9eb0
00001f3a 00             8560 	.byte	0
00001f3b 00             8561 	.byte	0
                        8562 
                        8563 .LDW_4cff010:
00001f3c 04             8564 	.byte	4
00001f3d 55385f4c6f6f   8565 	.strz	"U8_LoopCnt"
00001f43 70436e7400 
00001f48 e703           8566 	.byte	231,3
00001f4a 09             8567 	.byte	9
00001f4b 01             8568 	.byte	1
00001f4c 00000000*      8569 	.word	.LDW_16f9eb0
00001f50 00             8570 	.byte	0
00001f51 00             8571 	.byte	0
00001f52 0162           8572 	.byte	1,98
                        8573 
00001f54 00             8574 	.byte	0
                        8575 
00001f55 00             8576 	.byte	0
                        8577 
                        8578 .LDW_4c5f168:
00001f56 14             8579 	.byte	20
00001f57 444941475f5f   8580 	.strz	"DIAG__ReqCallback_WriteVehicleSpecificParameters"
00001f5d 52657143616c 
00001f63 6c6261636b5f 
00001f69 577269746556 
00001f6f 656869636c65 
00001f75 537065636966 
00001f7b 696350617261 
00001f81 6d6574657273 
00001f87 00 
00001f88 f703           8581 	.byte	247,3
00001f8a 0e             8582 	.byte	14
00001f8b 01             8583 	.byte	1
00001f8c 00000000*      8584 	.word	.LDW_16f9eb0
00001f90 00000000*      8585 	.word	_DIAG__ReqCallback_WriteVehicleSpecificParameters..C.3A.5C_ECU2.5CECU_Rivian_A1.5CTarget.5Crepo_projects.5CpRealEcu.5CcL_LATEST.5Cmake.5Coutput.5Cobjects.5CSwcApplTpms_Diag.

                                                                      Page 158
                                                              C:\Users\nhuliyap\AppData\Local\Temp\gh_00008941.s
00001f94 00000000*      8586 	.word	___ghs_eofn_DIAG__ReqCallback_WriteVehicleSpecificParameters
00001f98 0153           8587 	.byte	1,83
00001f9a 828080f80b     8588 	.byte	130,128,128,248,11
00001f9f 1c             8589 	.byte	28
00001fa0 03             8590 	.byte	3
00001fa1 20             8591 	.byte	32
00001fa2 00             8592 	.byte	0
00001fa3 00             8593 	.byte	0
00001fa4 00             8594 	.byte	0
00001fa5 00             8595 	.byte	0
00001fa6 01             8596 	.byte	1
00001fa7 00             8597 	.byte	0
00001fa8 01             8598 	.byte	1
                        8599 
                        8600 	.section	.debug_frame
                        8601 .LDW_16e3268:
000002a8 00000000*      8602 	.word	.LDW_unq_24-.LDW_unq_23
                        8603 .LDW_unq_23:
000002ac 00000000*      8604 	.word	.LDW_4ca0d40
000002b0 00000000*      8605 	.word	_DIAG__ReqCallback_WriteVehicleSpecificParameters..C.3A.5C_ECU2.5CECU_Rivian_A1.5CTarget.5Crepo_projects.5CpRealEcu.5CcL_LATEST.5Cmake.5Coutput.5Cobjects.5CSwcApplTpms_Diag.
000002b4 00000000*      8606 	.word	___ghs_eofn_DIAG__ReqCallback_WriteVehicleSpecificParameters-_DIAG__ReqCallback_WriteVehicleSpecificParameters..C.3A.5C_ECU2.5CECU_Rivian_A1.5CTarget.5Crepo_projects.5CpRealEcu.5CcL_LATEST.5Cmake.5Coutput.5Cobjects.5CSwcApplTpms_Diag.
000002b8 44             8607 	.byte	68
000002b9 9f             8608 	.byte	159
000002ba 03             8609 	.byte	3
000002bb 40             8610 	.byte	64
000002bc 9d             8611 	.byte	157
000002bd 07             8612 	.byte	7
000002be 40             8613 	.byte	64
000002bf 9c             8614 	.byte	156
000002c0 0b             8615 	.byte	11
000002c1 40             8616 	.byte	64
000002c2 9b             8617 	.byte	155
000002c3 0f             8618 	.byte	15
000002c4 40             8619 	.byte	64
000002c5 9a             8620 	.byte	154
000002c6 13             8621 	.byte	19
000002c7 40             8622 	.byte	64
000002c8 99             8623 	.byte	153
000002c9 17             8624 	.byte	23
000002ca 40             8625 	.byte	64
000002cb 98             8626 	.byte	152
000002cc 1b             8627 	.byte	27
000002cd 01             8628 	.byte	1
000002ce 00000000*      8629 	.word	.LDW75
000002d2 00             8630 	.byte	0
000002d3 00             8631 	.byte	0
                        8632 .LDW_unq_24:
                        8633 	.section	.debug_line
00000908 000502         8634 	.byte	0,5,2
0000090b 00000000*      8635 	.word	_DIAG__ReqCallback_WriteVehicleSpecificParameters..C.3A.5C_ECU2.5CECU_Rivian_A1.5CTarget.5Crepo_projects.5CpRealEcu.5CcL_LATEST.5Cmake.5Coutput.5Cobjects.5CSwcApplTpms_Diag.
0000090f 03             8636 	.byte	3
00000910 f703           8637 	.byte	247,3
00000912 02             8638 	.byte	2
00000913 00             8639 	.byte	0
00000914 01             8640 	.byte	1
00000915 06             8641 	.byte	6
00000916 000502         8642 	.byte	0,5,2
00000919 00000000*      8643 	.word	.LDWlin92
0000091d 03             8644 	.byte	3
0000091e 0a             8645 	.byte	10
0000091f 02             8646 	.byte	2

                                                                      Page 159
                                                              C:\Users\nhuliyap\AppData\Local\Temp\gh_00008941.s
00000920 00             8647 	.byte	0
00000921 01             8648 	.byte	1
00000922 03             8649 	.byte	3
00000923 77             8650 	.byte	119
00000924 02             8651 	.byte	2
00000925 04             8652 	.byte	4
00000926 01             8653 	.byte	1
00000927 03             8654 	.byte	3
00000928 0a             8655 	.byte	10
00000929 02             8656 	.byte	2
0000092a 02             8657 	.byte	2
0000092b 01             8658 	.byte	1
0000092c 14             8659 	.byte	20
0000092d 03             8660 	.byte	3
0000092e 7f             8661 	.byte	127
0000092f 02             8662 	.byte	2
00000930 04             8663 	.byte	4
00000931 01             8664 	.byte	1
00000932 15             8665 	.byte	21
00000933 000502         8666 	.byte	0,5,2
00000936 00000000*      8667 	.word	.LDWlin93
0000093a 0b             8668 	.byte	11
0000093b 0b             8669 	.byte	11
0000093c 000502         8670 	.byte	0,5,2
0000093f 00000000*      8671 	.word	.LDWlin94
00000943 03             8672 	.byte	3
00000944 05             8673 	.byte	5
00000945 02             8674 	.byte	2
00000946 00             8675 	.byte	0
00000947 01             8676 	.byte	1
00000948 0b             8677 	.byte	11
00000949 02             8678 	.byte	2
0000094a 00             8679 	.byte	0
0000094b 06             8680 	.byte	6
0000094c 000502         8681 	.byte	0,5,2
0000094f 00000000*      8682 	.word	.LDWlin95
00000953 03             8683 	.byte	3
00000954 7d             8684 	.byte	125
00000955 02             8685 	.byte	2
00000956 00             8686 	.byte	0
00000957 01             8687 	.byte	1
00000958 06             8688 	.byte	6
00000959 03             8689 	.byte	3
0000095a 04             8690 	.byte	4
0000095b 02             8691 	.byte	2
0000095c 00             8692 	.byte	0
0000095d 01             8693 	.byte	1
0000095e 0c             8694 	.byte	12
0000095f 03             8695 	.byte	3
00000960 12             8696 	.byte	18
00000961 02             8697 	.byte	2
00000962 04             8698 	.byte	4
00000963 01             8699 	.byte	1
00000964 02             8700 	.byte	2
00000965 00             8701 	.byte	0
00000966 02             8702 	.byte	2
00000967 00             8703 	.byte	0
00000968 02             8704 	.byte	2
00000969 00             8705 	.byte	0
0000096a 02             8706 	.byte	2
0000096b 00             8707 	.byte	0

                                                                      Page 160
                                                              C:\Users\nhuliyap\AppData\Local\Temp\gh_00008941.s
0000096c 02             8708 	.byte	2
0000096d 00             8709 	.byte	0
0000096e 02             8710 	.byte	2
0000096f 00             8711 	.byte	0
00000970 02             8712 	.byte	2
00000971 00             8713 	.byte	0
00000972 0c             8714 	.byte	12
00000973 06             8715 	.byte	6
00000974 03             8716 	.byte	3
00000975 67             8717 	.byte	103
00000976 02             8718 	.byte	2
00000977 00             8719 	.byte	0
00000978 01             8720 	.byte	1
00000979 03             8721 	.byte	3
0000097a 06             8722 	.byte	6
0000097b 02             8723 	.byte	2
0000097c 00             8724 	.byte	0
0000097d 01             8725 	.byte	1
0000097e 03             8726 	.byte	3
0000097f 06             8727 	.byte	6
00000980 02             8728 	.byte	2
00000981 00             8729 	.byte	0
00000982 01             8730 	.byte	1
00000983 03             8731 	.byte	3
00000984 0d             8732 	.byte	13
00000985 02             8733 	.byte	2
00000986 00             8734 	.byte	0
00000987 01             8735 	.byte	1
00000988 06             8736 	.byte	6
00000989 000502         8737 	.byte	0,5,2
0000098c 00000000*      8738 	.word	.LDWlin96
00000990 03             8739 	.byte	3
00000991 6e             8740 	.byte	110
00000992 02             8741 	.byte	2
00000993 00             8742 	.byte	0
00000994 01             8743 	.byte	1
00000995 0b             8744 	.byte	11
00000996 02             8745 	.byte	2
00000997 00             8746 	.byte	0
00000998 000502         8747 	.byte	0,5,2
0000099b 00000000*      8748 	.word	.LDWlin97
0000099f 0b             8749 	.byte	11
000009a0 0c             8750 	.byte	12
000009a1 000502         8751 	.byte	0,5,2
000009a4 00000000*      8752 	.word	.LDWlin98
000009a8 0c             8753 	.byte	12
000009a9 0b             8754 	.byte	11
000009aa 02             8755 	.byte	2
000009ab 00             8756 	.byte	0
000009ac 000502         8757 	.byte	0,5,2
000009af 00000000*      8758 	.word	.LDWlin99
000009b3 0b             8759 	.byte	11
000009b4 0c             8760 	.byte	12
000009b5 1b             8761 	.byte	27
000009b6 03             8762 	.byte	3
000009b7 08             8763 	.byte	8
000009b8 02             8764 	.byte	2
000009b9 04             8765 	.byte	4
000009ba 01             8766 	.byte	1
000009bb 0b             8767 	.byte	11
000009bc 1b             8768 	.byte	27

                                                                      Page 161
                                                              C:\Users\nhuliyap\AppData\Local\Temp\gh_00008941.s
000009bd 13             8769 	.byte	19
000009be 000502         8770 	.byte	0,5,2
000009c1 00000000*      8771 	.word	.LDWlin100
000009c5 0c             8772 	.byte	12
000009c6 23             8773 	.byte	35
000009c7 0c             8774 	.byte	12
000009c8 02             8775 	.byte	2
000009c9 00             8776 	.byte	0
000009ca 0c             8777 	.byte	12
000009cb 000502         8778 	.byte	0,5,2
000009ce 00000000*      8779 	.word	.LDWlin101
000009d2 0c             8780 	.byte	12
000009d3 000502         8781 	.byte	0,5,2
000009d6 00000000*      8782 	.word	.LDWlin102
000009da 0b             8783 	.byte	11
000009db 0b             8784 	.byte	11
000009dc 1b             8785 	.byte	27
000009dd 02             8786 	.byte	2
000009de 00             8787 	.byte	0
000009df 0c             8788 	.byte	12
000009e0 000502         8789 	.byte	0,5,2
000009e3 00000000*      8790 	.word	.LDWlin103
000009e7 0c             8791 	.byte	12
000009e8 000502         8792 	.byte	0,5,2
000009eb 00000000*      8793 	.word	.LDWlin104
000009ef 0b             8794 	.byte	11
000009f0 0b             8795 	.byte	11
000009f1 06             8796 	.byte	6
000009f2 000502         8797 	.byte	0,5,2
000009f5 00000000*      8798 	.word	.LDWlin105
000009f9 03             8799 	.byte	3
000009fa 67             8800 	.byte	103
000009fb 02             8801 	.byte	2
000009fc 00             8802 	.byte	0
000009fd 01             8803 	.byte	1
000009fe 06             8804 	.byte	6
000009ff 03             8805 	.byte	3
00000a00 1a             8806 	.byte	26
00000a01 02             8807 	.byte	2
00000a02 00             8808 	.byte	0
00000a03 01             8809 	.byte	1
00000a04 02             8810 	.byte	2
00000a05 00             8811 	.byte	0
00000a06 0b             8812 	.byte	11
00000a07 0b             8813 	.byte	11
00000a08 0c             8814 	.byte	12
00000a09 02             8815 	.byte	2
00000a0a 00             8816 	.byte	0
00000a0b 0b             8817 	.byte	11
00000a0c 0b             8818 	.byte	11
00000a0d 0c             8819 	.byte	12
00000a0e 1b             8820 	.byte	27
00000a0f 02             8821 	.byte	2
00000a10 00             8822 	.byte	0
00000a11 0c             8823 	.byte	12
00000a12 1b             8824 	.byte	27
00000a13 1c             8825 	.byte	28
00000a14 06             8826 	.byte	6
00000a15 02             8827 	.byte	2
00000a16 02             8828 	.byte	2
00000a17 02             8829 	.byte	2

                                                                      Page 162
                                                              C:\Users\nhuliyap\AppData\Local\Temp\gh_00008941.s
00000a18 04             8830 	.byte	4
00000a19 000101         8831 	.byte	0,1,1
                        8832 	.section	.debug_info
                        8833 .LDW_4cff850:
00001fa9 0f             8834 	.byte	15
00001faa 50535f4d7367   8835 	.strz	"PS_MsgContext"
00001fb0 436f6e746578 
00001fb6 7400 
00001fb8 f703           8836 	.byte	247,3
00001fba 50             8837 	.byte	80
00001fbb 01             8838 	.byte	1
00001fbc 00000000*      8839 	.word	.LDW_16b6d78
00001fc0 00             8840 	.byte	0
00001fc1 0168           8841 	.byte	1,104
                        8842 
                        8843 .LDW_4cee188:
00001fc3 1d             8844 	.byte	29
00001fc4 00000000*      8845 	.word	.LDW65
00001fc8 00000000*      8846 	.word	.LDW75
                        8847 
                        8848 .LDW_4cff7a0:
00001fcc 04             8849 	.byte	4
00001fcd 55385f526574   8850 	.strz	"U8_RetVal"
00001fd3 56616c00 
00001fd7 f903           8851 	.byte	249,3
00001fd9 09             8852 	.byte	9
00001fda 01             8853 	.byte	1
00001fdb 00000000*      8854 	.word	.LDW_16f9eb0
00001fdf 00             8855 	.byte	0
00001fe0 00             8856 	.byte	0
00001fe1 0169           8857 	.byte	1,105
                        8858 
                        8859 .LDW_4cff7f8:
00001fe3 04             8860 	.byte	4
00001fe4 4155385f5265   8861 	.strz	"AU8_ReqData"
00001fea 714461746100 
00001ff0 fa03           8862 	.byte	250,3
00001ff2 09             8863 	.byte	9
00001ff3 01             8864 	.byte	1
00001ff4 00000000*      8865 	.word	.LDW_4c5f200
00001ff8 00             8866 	.byte	0
00001ff9 00             8867 	.byte	0
00001ffa 0273           8868 	.byte	2,115
00001ffc 02             8869 	.byte	2
                        8870 
                        8871 .LDW_4cff068:
00001ffd 04             8872 	.byte	4
00001ffe 55385f566172   8873 	.strz	"U8_VarCodLegislation"
00002004 436f644c6567 
0000200a 69736c617469 
00002010 6f6e00 
00002013 fb03           8874 	.byte	251,3
00002015 09             8875 	.byte	9
00002016 01             8876 	.byte	1
00002017 00000000*      8877 	.word	.LDW_16f9eb0
0000201b 00             8878 	.byte	0
0000201c 00             8879 	.byte	0
0000201d 0162           8880 	.byte	1,98
                        8881 
                        8882 .LDW_4cff0c0:
0000201f 04             8883 	.byte	4

                                                                      Page 163
                                                              C:\Users\nhuliyap\AppData\Local\Temp\gh_00008941.s
00002020 55385f566172   8884 	.strz	"U8_VarCodPlacardPress"
00002026 436f64506c61 
0000202c 636172645072 
00002032 65737300 
00002036 fc03           8885 	.byte	252,3
00002038 09             8886 	.byte	9
00002039 01             8887 	.byte	1
0000203a 00000000*      8888 	.word	.LDW_16f9eb0
0000203e 00             8889 	.byte	0
0000203f 00             8890 	.byte	0
00002040 0161           8891 	.byte	1,97
                        8892 
                        8893 .LDW_4cff118:
00002042 04             8894 	.byte	4
00002043 55385f566172   8895 	.strz	"U8_VarCodMinPressThres"
00002049 436f644d696e 
0000204f 507265737354 
00002055 6872657300 
0000205a fd03           8896 	.byte	253,3
0000205c 09             8897 	.byte	9
0000205d 01             8898 	.byte	1
0000205e 00000000*      8899 	.word	.LDW_16f9eb0
00002062 00             8900 	.byte	0
00002063 00             8901 	.byte	0
00002064 016c           8902 	.byte	1,108
                        8903 
                        8904 .LDW_4cff170:
00002066 04             8905 	.byte	4
00002067 55385f566172   8906 	.strz	"U8_VarCodOffroadPlacardPress"
0000206d 436f644f6666 
00002073 726f6164506c 
00002079 616361726450 
0000207f 7265737300 
00002084 fe03           8907 	.byte	254,3
00002086 09             8908 	.byte	9
00002087 01             8909 	.byte	1
00002088 00000000*      8910 	.word	.LDW_16f9eb0
0000208c 00             8911 	.byte	0
0000208d 00             8912 	.byte	0
0000208e 016b           8913 	.byte	1,107
                        8914 
                        8915 .LDW_4cff4e0:
00002090 04             8916 	.byte	4
00002091 55385f566172   8917 	.strz	"U8_VarCodOffroadPlacardPressMin"
00002097 436f644f6666 
0000209d 726f6164506c 
000020a3 616361726450 
000020a9 726573734d69 
000020af 6e00 
000020b1 ff03           8918 	.byte	255,3
000020b3 09             8919 	.byte	9
000020b4 01             8920 	.byte	1
000020b5 00000000*      8921 	.word	.LDW_16f9eb0
000020b9 00             8922 	.byte	0
000020ba 00             8923 	.byte	0
000020bb 016a           8924 	.byte	1,106
                        8925 
                        8926 .LDW_4cff538:
000020bd 04             8927 	.byte	4
000020be 55385f566172   8928 	.strz	"U8_VarCodMinimumPressure"
000020c4 436f644d696e 

                                                                      Page 164
                                                              C:\Users\nhuliyap\AppData\Local\Temp\gh_00008941.s
000020ca 696d756d5072 
000020d0 657373757265 
000020d6 00 
000020d7 8004           8929 	.byte	128,4
000020d9 09             8930 	.byte	9
000020da 01             8931 	.byte	1
000020db 00000000*      8932 	.word	.LDW_16f9eb0
000020df 00             8933 	.byte	0
000020e0 00             8934 	.byte	0
000020e1 0273           8935 	.byte	2,115
000020e3 01             8936 	.byte	1
                        8937 
000020e4 00             8938 	.byte	0
                        8939 
000020e5 00             8940 	.byte	0
                        8941 
                        8942 .LDW_4d07fc0:
000020e6 14             8943 	.byte	20
000020e7 444941475f5f   8944 	.strz	"DIAG__ReqCallback_ReadAutoLearnWSParameters"
000020ed 52657143616c 
000020f3 6c6261636b5f 
000020f9 526561644175 
000020ff 746f4c656172 
00002105 6e5753506172 
0000210b 616d65746572 
00002111 7300 
00002113 ce04           8945 	.byte	206,4
00002115 0e             8946 	.byte	14
00002116 01             8947 	.byte	1
00002117 00000000*      8948 	.word	.LDW_16f9eb0
0000211b 00000000*      8949 	.word	_DIAG__ReqCallback_ReadAutoLearnWSParameters..C.3A.5C_ECU2.5CECU_Rivian_A1.5CTarget.5Crepo_projects.5CpRealEcu.5CcL_LATEST.5Cmake.5Coutput.5Cobjects.5CSwcApplTpms_Diag.
0000211f 00000000*      8950 	.word	___ghs_eofn_DIAG__ReqCallback_ReadAutoLearnWSParameters
00002123 0153           8951 	.byte	1,83
00002125 828080800b     8952 	.byte	130,128,128,128,11
0000212a 0c             8953 	.byte	12
0000212b 03             8954 	.byte	3
0000212c 28             8955 	.byte	40
0000212d 00             8956 	.byte	0
0000212e 00             8957 	.byte	0
0000212f 00             8958 	.byte	0
00002130 00             8959 	.byte	0
00002131 01             8960 	.byte	1
00002132 00             8961 	.byte	0
00002133 01             8962 	.byte	1
                        8963 
                        8964 	.section	.debug_frame
                        8965 .LDW_16e3328:
000002d4 00000000*      8966 	.word	.LDW_unq_26-.LDW_unq_25
                        8967 .LDW_unq_25:
000002d8 00000000*      8968 	.word	.LDW_4ca0d40
000002dc 00000000*      8969 	.word	_DIAG__ReqCallback_ReadAutoLearnWSParameters..C.3A.5C_ECU2.5CECU_Rivian_A1.5CTarget.5Crepo_projects.5CpRealEcu.5CcL_LATEST.5Cmake.5Coutput.5Cobjects.5CSwcApplTpms_Diag.
000002e0 00000000*      8970 	.word	___ghs_eofn_DIAG__ReqCallback_ReadAutoLearnWSParameters-_DIAG__ReqCallback_ReadAutoLearnWSParameters..C.3A.5C_ECU2.5CECU_Rivian_A1.5CTarget.5Crepo_projects.5CpRealEcu.5CcL_LATEST.5Cmake.5Coutput.5Cobjects.5CSwcApplTpms_Diag.
000002e4 44             8971 	.byte	68
000002e5 9f             8972 	.byte	159
000002e6 15             8973 	.byte	21
000002e7 40             8974 	.byte	64
000002e8 9d             8975 	.byte	157
000002e9 19             8976 	.byte	25
000002ea 40             8977 	.byte	64
000002eb 9c             8978 	.byte	156
000002ec 1d             8979 	.byte	29

                                                                      Page 165
                                                              C:\Users\nhuliyap\AppData\Local\Temp\gh_00008941.s
000002ed 01             8980 	.byte	1
000002ee 00000000*      8981 	.word	.LDW95
000002f2 44             8982 	.byte	68
000002f3 df             8983 	.byte	223
000002f4 40             8984 	.byte	64
000002f5 dd             8985 	.byte	221
000002f6 40             8986 	.byte	64
000002f7 dc             8987 	.byte	220
                        8988 .LDW_unq_26:
                        8989 	.section	.debug_line
00000a1c 000502         8990 	.byte	0,5,2
00000a1f 00000000*      8991 	.word	_DIAG__ReqCallback_ReadAutoLearnWSParameters..C.3A.5C_ECU2.5CECU_Rivian_A1.5CTarget.5Crepo_projects.5CpRealEcu.5CcL_LATEST.5Cmake.5Coutput.5Cobjects.5CSwcApplTpms_Diag.
00000a23 03             8992 	.byte	3
00000a24 ce04           8993 	.byte	206,4
00000a26 02             8994 	.byte	2
00000a27 00             8995 	.byte	0
00000a28 01             8996 	.byte	1
00000a29 06             8997 	.byte	6
00000a2a 000502         8998 	.byte	0,5,2
00000a2d 00000000*      8999 	.word	.LDWlin106
00000a31 03             9000 	.byte	3
00000a32 04             9001 	.byte	4
00000a33 02             9002 	.byte	2
00000a34 00             9003 	.byte	0
00000a35 01             9004 	.byte	1
00000a36 000502         9005 	.byte	0,5,2
00000a39 00000000*      9006 	.word	.LDWlin107
00000a3d 0c             9007 	.byte	12
00000a3e 1b             9008 	.byte	27
00000a3f 2d             9009 	.byte	45
00000a40 03             9010 	.byte	3
00000a41 7f             9011 	.byte	127
00000a42 02             9012 	.byte	2
00000a43 06             9013 	.byte	6
00000a44 01             9014 	.byte	1
00000a45 2c             9015 	.byte	44
00000a46 1c             9016 	.byte	28
00000a47 06             9017 	.byte	6
00000a48 02             9018 	.byte	2
00000a49 02             9019 	.byte	2
00000a4a 02             9020 	.byte	2
00000a4b 04             9021 	.byte	4
00000a4c 000101         9022 	.byte	0,1,1
                        9023 	.section	.debug_info
                        9024 .LDW_4cff590:
00002134 0f             9025 	.byte	15
00002135 50535f4d7367   9026 	.strz	"PS_MsgContext"
0000213b 436f6e746578 
00002141 7400 
00002143 ce04           9027 	.byte	206,4
00002145 4b             9028 	.byte	75
00002146 01             9029 	.byte	1
00002147 00000000*      9030 	.word	.LDW_16b6d78
0000214b 00             9031 	.byte	0
0000214c 016c           9032 	.byte	1,108
                        9033 
                        9034 .LDW_4cee218:
0000214e 1d             9035 	.byte	29
0000214f 00000000*      9036 	.word	.LDW85
00002153 00000000*      9037 	.word	.LDW95
                        9038 

                                                                      Page 166
                                                              C:\Users\nhuliyap\AppData\Local\Temp\gh_00008941.s
                        9039 .LDW_4cff958:
00002157 04             9040 	.byte	4
00002158 745741506172   9041 	.strz	"tWAParLocal"
0000215e 4c6f63616c00 
00002164 d004           9042 	.byte	208,4
00002166 0f             9043 	.byte	15
00002167 01             9044 	.byte	1
00002168 00000000*      9045 	.word	.LDW_4cfefb8
0000216c 00             9046 	.byte	0
0000216d 00             9047 	.byte	0
0000216e 0273           9048 	.byte	2,115
00002170 00             9049 	.byte	0
                        9050 
                        9051 .LDW_4cffa08:
00002171 05             9052 	.byte	5
00002172 55385f526574   9053 	.strz	"U8_RetVal"
00002178 56616c00 
0000217c d104           9054 	.byte	209,4
0000217e 09             9055 	.byte	9
0000217f 01             9056 	.byte	1
00002180 00000000*      9057 	.word	.LDW_16f9eb0
00002184 00             9058 	.byte	0
00002185 00             9059 	.byte	0
                        9060 
00002186 00             9061 	.byte	0
                        9062 
00002187 00             9063 	.byte	0
                        9064 
                        9065 .LDW_4d086e0:
00002188 14             9066 	.byte	20
00002189 444941475f5f   9067 	.strz	"DIAG__ReqCallback_WriteAutoLearnWSParameters"
0000218f 52657143616c 
00002195 6c6261636b5f 
0000219b 577269746541 
000021a1 75746f4c6561 
000021a7 726e57535061 
000021ad 72616d657465 
000021b3 727300 
000021b6 df04           9068 	.byte	223,4
000021b8 0e             9069 	.byte	14
000021b9 01             9070 	.byte	1
000021ba 00000000*      9071 	.word	.LDW_16f9eb0
000021be 00000000*      9072 	.word	_DIAG__ReqCallback_WriteAutoLearnWSParameters..C.3A.5C_ECU2.5CECU_Rivian_A1.5CTarget.5Crepo_projects.5CpRealEcu.5CcL_LATEST.5Cmake.5Coutput.5Cobjects.5CSwcApplTpms_Diag.
000021c2 00000000*      9073 	.word	___ghs_eofn_DIAG__ReqCallback_WriteAutoLearnWSParameters
000021c6 0153           9074 	.byte	1,83
000021c8 828080f00b     9075 	.byte	130,128,128,240,11
000021cd 18             9076 	.byte	24
000021ce 03             9077 	.byte	3
000021cf 18             9078 	.byte	24
000021d0 00             9079 	.byte	0
000021d1 00             9080 	.byte	0
000021d2 00             9081 	.byte	0
000021d3 00             9082 	.byte	0
000021d4 01             9083 	.byte	1
000021d5 00             9084 	.byte	0
000021d6 01             9085 	.byte	1
                        9086 
                        9087 	.section	.debug_frame
                        9088 .LDW_16e3668:
000002f8 00000000*      9089 	.word	.LDW_unq_28-.LDW_unq_27
                        9090 .LDW_unq_27:

                                                                      Page 167
                                                              C:\Users\nhuliyap\AppData\Local\Temp\gh_00008941.s
000002fc 00000000*      9091 	.word	.LDW_4ca0d40
00000300 00000000*      9092 	.word	_DIAG__ReqCallback_WriteAutoLearnWSParameters..C.3A.5C_ECU2.5CECU_Rivian_A1.5CTarget.5Crepo_projects.5CpRealEcu.5CcL_LATEST.5Cmake.5Coutput.5Cobjects.5CSwcApplTpms_Diag.
00000304 00000000*      9093 	.word	___ghs_eofn_DIAG__ReqCallback_WriteAutoLearnWSParameters-_DIAG__ReqCallback_WriteAutoLearnWSParameters..C.3A.5C_ECU2.5CECU_Rivian_A1.5CTarget.5Crepo_projects.5CpRealEcu.5CcL_LATEST.5Cmake.5Coutput.5Cobjects.5CSwcApplTpms_Diag.
00000308 44             9094 	.byte	68
00000309 9f             9095 	.byte	159
0000030a 00             9096 	.byte	0
0000030b 40             9097 	.byte	64
0000030c 9d             9098 	.byte	157
0000030d 04             9099 	.byte	4
0000030e 40             9100 	.byte	64
0000030f 9c             9101 	.byte	156
00000310 08             9102 	.byte	8
00000311 40             9103 	.byte	64
00000312 9b             9104 	.byte	155
00000313 0c             9105 	.byte	12
00000314 40             9106 	.byte	64
00000315 9a             9107 	.byte	154
00000316 10             9108 	.byte	16
00000317 40             9109 	.byte	64
00000318 99             9110 	.byte	153
00000319 14             9111 	.byte	20
0000031a 01             9112 	.byte	1
0000031b 00000000*      9113 	.word	.LDW16
0000031f 44             9114 	.byte	68
00000320 df             9115 	.byte	223
00000321 40             9116 	.byte	64
00000322 dd             9117 	.byte	221
00000323 40             9118 	.byte	64
00000324 dc             9119 	.byte	220
00000325 40             9120 	.byte	64
00000326 db             9121 	.byte	219
00000327 40             9122 	.byte	64
00000328 da             9123 	.byte	218
00000329 40             9124 	.byte	64
0000032a d9             9125 	.byte	217
0000032b 00             9126 	.byte	0
                        9127 .LDW_unq_28:
                        9128 	.section	.debug_line
00000a4f 000502         9129 	.byte	0,5,2
00000a52 00000000*      9130 	.word	_DIAG__ReqCallback_WriteAutoLearnWSParameters..C.3A.5C_ECU2.5CECU_Rivian_A1.5CTarget.5Crepo_projects.5CpRealEcu.5CcL_LATEST.5Cmake.5Coutput.5Cobjects.5CSwcApplTpms_Diag.
00000a56 03             9131 	.byte	3
00000a57 df04           9132 	.byte	223,4
00000a59 02             9133 	.byte	2
00000a5a 00             9134 	.byte	0
00000a5b 01             9135 	.byte	1
00000a5c 06             9136 	.byte	6
00000a5d 000502         9137 	.byte	0,5,2
00000a60 00000000*      9138 	.word	.LDWlin108
00000a64 0c             9139 	.byte	12
00000a65 1d             9140 	.byte	29
00000a66 000502         9141 	.byte	0,5,2
00000a69 00000000*      9142 	.word	.LDWlin109
00000a6d 03             9143 	.byte	3
00000a6e 7e             9144 	.byte	126
00000a6f 02             9145 	.byte	2
00000a70 00             9146 	.byte	0
00000a71 01             9147 	.byte	1
00000a72 000502         9148 	.byte	0,5,2
00000a75 00000000*      9149 	.word	.LDWlin110
00000a79 0d             9150 	.byte	13
00000a7a 1b             9151 	.byte	27

                                                                      Page 168
                                                              C:\Users\nhuliyap\AppData\Local\Temp\gh_00008941.s
00000a7b 13             9152 	.byte	19
00000a7c 000502         9153 	.byte	0,5,2
00000a7f 00000000*      9154 	.word	.LDWlin111
00000a83 0c             9155 	.byte	12
00000a84 1b             9156 	.byte	27
00000a85 1b             9157 	.byte	27
00000a86 06             9158 	.byte	6
00000a87 02             9159 	.byte	2
00000a88 02             9160 	.byte	2
00000a89 02             9161 	.byte	2
00000a8a 04             9162 	.byte	4
00000a8b 000101         9163 	.byte	0,1,1
                        9164 	.section	.debug_info
                        9165 .LDW_4cffa60:
000021d7 0f             9166 	.byte	15
000021d8 50535f4d7367   9167 	.strz	"PS_MsgContext"
000021de 436f6e746578 
000021e4 7400 
000021e6 df04           9168 	.byte	223,4
000021e8 4c             9169 	.byte	76
000021e9 01             9170 	.byte	1
000021ea 00000000*      9171 	.word	.LDW_16b6d78
000021ee 00             9172 	.byte	0
000021ef 016b           9173 	.byte	1,107
                        9174 
                        9175 .LDW_4cee2d8:
000021f1 1d             9176 	.byte	29
000021f2 00000000*      9177 	.word	.LDW06
000021f6 00000000*      9178 	.word	.LDW16
                        9179 
                        9180 .LDW_4cffcc8:
000021fa 05             9181 	.byte	5
000021fb 55385f526574   9182 	.strz	"U8_RetVal"
00002201 56616c00 
00002205 e104           9183 	.byte	225,4
00002207 09             9184 	.byte	9
00002208 01             9185 	.byte	1
00002209 00000000*      9186 	.word	.LDW_16f9eb0
0000220d 00             9187 	.byte	0
0000220e 00             9188 	.byte	0
                        9189 
                        9190 .LDW_4cffab8:
0000220f 04             9191 	.byte	4
00002210 55385f4d696e   9192 	.strz	"U8_MinCt4ZomReset"
00002216 4374345a6f6d 
0000221c 526573657400 
00002222 e204           9193 	.byte	226,4
00002224 09             9194 	.byte	9
00002225 01             9195 	.byte	1
00002226 00000000*      9196 	.word	.LDW_16f9eb0
0000222a 00             9197 	.byte	0
0000222b 00             9198 	.byte	0
0000222c 016a           9199 	.byte	1,106
                        9200 
                        9201 .LDW_4cffbc0:
0000222e 04             9202 	.byte	4
0000222f 55385f4d696e   9203 	.strz	"U8_MinERMeanRssiLevel"
00002235 45524d65616e 
0000223b 527373694c65 
00002241 76656c00 
00002245 e304           9204 	.byte	227,4

                                                                      Page 169
                                                              C:\Users\nhuliyap\AppData\Local\Temp\gh_00008941.s
00002247 09             9205 	.byte	9
00002248 01             9206 	.byte	1
00002249 00000000*      9207 	.word	.LDW_16f9eb0
0000224d 00             9208 	.byte	0
0000224e 00             9209 	.byte	0
0000224f 0169           9210 	.byte	1,105
                        9211 
00002251 00             9212 	.byte	0
                        9213 
00002252 00             9214 	.byte	0
                        9215 
                        9216 .LDW_4d08c38:
00002253 14             9217 	.byte	20
00002254 444941475f5f   9218 	.strz	"DIAG__ReqCallback_ReadAdditionalPressureOfMinimumPressure"
0000225a 52657143616c 
00002260 6c6261636b5f 
00002266 526561644164 
0000226c 646974696f6e 
00002272 616c50726573 
00002278 737572654f66 
0000227e 4d696e696d75 
00002284 6d5072657373 
0000228a 75726500 
0000228e ef04           9219 	.byte	239,4
00002290 0e             9220 	.byte	14
00002291 01             9221 	.byte	1
00002292 00000000*      9222 	.word	.LDW_16f9eb0
00002296 00000000*      9223 	.word	_DIAG__ReqCallback_ReadAdditionalPressureOfMinimumPressure..C.3A.5C_ECU2.5CECU_Rivian_A1.5CTarget.5Crepo_projects.5CpRealEcu.5CcL_LATEST.5Cmake.5Coutput.5Cobjects.5CSwcApplTpms_Diag.
0000229a 00000000*      9224 	.word	___ghs_eofn_DIAG__ReqCallback_ReadAdditionalPressureOfMinimumPressure
0000229e 0153           9225 	.byte	1,83
000022a0 828080c00b     9226 	.byte	130,128,128,192,11
000022a5 10             9227 	.byte	16
000022a6 03             9228 	.byte	3
000022a7 10             9229 	.byte	16
000022a8 00             9230 	.byte	0
000022a9 00             9231 	.byte	0
000022aa 00             9232 	.byte	0
000022ab 00             9233 	.byte	0
000022ac 01             9234 	.byte	1
000022ad 00             9235 	.byte	0
000022ae 01             9236 	.byte	1
                        9237 
                        9238 	.section	.debug_frame
                        9239 .LDW_16e3e68:
0000032c 00000000*      9240 	.word	.LDW_unq_2a-.LDW_unq_29
                        9241 .LDW_unq_29:
00000330 00000000*      9242 	.word	.LDW_4ca0d40
00000334 00000000*      9243 	.word	_DIAG__ReqCallback_ReadAdditionalPressureOfMinimumPressure..C.3A.5C_ECU2.5CECU_Rivian_A1.5CTarget.5Crepo_projects.5CpRealEcu.5CcL_LATEST.5Cmake.5Coutput.5Cobjects.5CSwcApplTpms_Diag.
00000338 00000000*      9244 	.word	___ghs_eofn_DIAG__ReqCallback_ReadAdditionalPressureOfMinimumPressure-_DIAG__ReqCallback_ReadAdditionalPressureOfMinimumPressure..C.3A.5C_ECU2.5CECU_Rivian_A1.5CTarget.5Crepo_projects.5CpRealEcu.5CcL_LATEST.5Cmake.5Coutput.5Cobjects.5CSwcApplTpms_Diag.
0000033c 44             9245 	.byte	68
0000033d 9f             9246 	.byte	159
0000033e 00             9247 	.byte	0
0000033f 40             9248 	.byte	64
00000340 9d             9249 	.byte	157
00000341 04             9250 	.byte	4
00000342 40             9251 	.byte	64
00000343 9c             9252 	.byte	156
00000344 08             9253 	.byte	8
00000345 40             9254 	.byte	64
00000346 9b             9255 	.byte	155
00000347 0c             9256 	.byte	12

                                                                      Page 170
                                                              C:\Users\nhuliyap\AppData\Local\Temp\gh_00008941.s
00000348 01             9257 	.byte	1
00000349 00000000*      9258 	.word	.LDW56
0000034d 44             9259 	.byte	68
0000034e df             9260 	.byte	223
0000034f 40             9261 	.byte	64
00000350 dd             9262 	.byte	221
00000351 40             9263 	.byte	64
00000352 dc             9264 	.byte	220
00000353 40             9265 	.byte	64
00000354 db             9266 	.byte	219
00000355 00             9267 	.byte	0
00000356 00             9268 	.byte	0
00000357 00             9269 	.byte	0
                        9270 .LDW_unq_2a:
                        9271 	.section	.debug_line
00000a8e 000502         9272 	.byte	0,5,2
00000a91 00000000*      9273 	.word	_DIAG__ReqCallback_ReadAdditionalPressureOfMinimumPressure..C.3A.5C_ECU2.5CECU_Rivian_A1.5CTarget.5Crepo_projects.5CpRealEcu.5CcL_LATEST.5Cmake.5Coutput.5Cobjects.5CSwcApplTpms_Diag.
00000a95 03             9274 	.byte	3
00000a96 ef04           9275 	.byte	239,4
00000a98 02             9276 	.byte	2
00000a99 00             9277 	.byte	0
00000a9a 01             9278 	.byte	1
00000a9b 06             9279 	.byte	6
00000a9c 000502         9280 	.byte	0,5,2
00000a9f 00000000*      9281 	.word	.LDWlin113
00000aa3 0d             9282 	.byte	13
00000aa4 2b             9283 	.byte	43
00000aa5 000502         9284 	.byte	0,5,2
00000aa8 00000000*      9285 	.word	.LDWlin114
00000aac 0c             9286 	.byte	12
00000aad 14             9287 	.byte	20
00000aae 2b             9288 	.byte	43
00000aaf 14             9289 	.byte	20
00000ab0 06             9290 	.byte	6
00000ab1 02             9291 	.byte	2
00000ab2 02             9292 	.byte	2
00000ab3 02             9293 	.byte	2
00000ab4 04             9294 	.byte	4
00000ab5 000101         9295 	.byte	0,1,1
                        9296 	.section	.debug_info
                        9297 .LDW_4cffd20:
000022af 0f             9298 	.byte	15
000022b0 50535f4d7367   9299 	.strz	"PS_MsgContext"
000022b6 436f6e746578 
000022bc 7400 
000022be ef04           9300 	.byte	239,4
000022c0 59             9301 	.byte	89
000022c1 01             9302 	.byte	1
000022c2 00000000*      9303 	.word	.LDW_16b6d78
000022c6 00             9304 	.byte	0
000022c7 016b           9305 	.byte	1,107
                        9306 
                        9307 .LDW_4cee248:
000022c9 1d             9308 	.byte	29
000022ca 00000000*      9309 	.word	.LDW46
000022ce 00000000*      9310 	.word	.LDW56
                        9311 
                        9312 .LDW_4cffe28:
000022d2 05             9313 	.byte	5
000022d3 55385f526574   9314 	.strz	"U8_RetVal"
000022d9 56616c00 

                                                                      Page 171
                                                              C:\Users\nhuliyap\AppData\Local\Temp\gh_00008941.s
000022dd f104           9315 	.byte	241,4
000022df 09             9316 	.byte	9
000022e0 01             9317 	.byte	1
000022e1 00000000*      9318 	.word	.LDW_16f9eb0
000022e5 00             9319 	.byte	0
000022e6 00             9320 	.byte	0
                        9321 
000022e7 00             9322 	.byte	0
                        9323 
000022e8 00             9324 	.byte	0
                        9325 
                        9326 .LDW_4d085b0:
000022e9 14             9327 	.byte	20
000022ea 444941475f5f   9328 	.strz	"DIAG__ReqCallback_WriteAdditionalPressureOfMinimumPressure"
000022f0 52657143616c 
000022f6 6c6261636b5f 
000022fc 577269746541 
00002302 64646974696f 
00002308 6e616c507265 
0000230e 73737572654f 
00002314 664d696e696d 
0000231a 756d50726573 
00002320 7375726500 
00002325 fe04           9329 	.byte	254,4
00002327 0e             9330 	.byte	14
00002328 01             9331 	.byte	1
00002329 00000000*      9332 	.word	.LDW_16f9eb0
0000232d 00000000*      9333 	.word	_DIAG__ReqCallback_WriteAdditionalPressureOfMinimumPressure..C.3A.5C_ECU2.5CECU_Rivian_A1.5CTarget.5Crepo_projects.5CpRealEcu.5CcL_LATEST.5Cmake.5Coutput.5Cobjects.5CSwcApplTpms_Diag.
00002331 00000000*      9334 	.word	___ghs_eofn_DIAG__ReqCallback_WriteAdditionalPressureOfMinimumPressure
00002335 0153           9335 	.byte	1,83
00002337 828080a00b     9336 	.byte	130,128,128,160,11
0000233c 14             9337 	.byte	20
0000233d 03             9338 	.byte	3
0000233e 18             9339 	.byte	24
0000233f 00             9340 	.byte	0
00002340 00             9341 	.byte	0
00002341 00             9342 	.byte	0
00002342 00             9343 	.byte	0
00002343 01             9344 	.byte	1
00002344 00             9345 	.byte	0
00002345 01             9346 	.byte	1
                        9347 
                        9348 	.section	.debug_frame
                        9349 .LDW_16e4068:
00000358 00000000*      9350 	.word	.LDW_unq_2c-.LDW_unq_2b
                        9351 .LDW_unq_2b:
0000035c 00000000*      9352 	.word	.LDW_4ca0d40
00000360 00000000*      9353 	.word	_DIAG__ReqCallback_WriteAdditionalPressureOfMinimumPressure..C.3A.5C_ECU2.5CECU_Rivian_A1.5CTarget.5Crepo_projects.5CpRealEcu.5CcL_LATEST.5Cmake.5Coutput.5Cobjects.5CSwcApplTpms_Diag.
00000364 00000000*      9354 	.word	___ghs_eofn_DIAG__ReqCallback_WriteAdditionalPressureOfMinimumPressure-_DIAG__ReqCallback_WriteAdditionalPressureOfMinimumPressure..C.3A.5C_ECU2.5CECU_Rivian_A1.5CTarget.5Crepo_projects.5CpRealEcu.5CcL_LATEST.5Cmake.5Coutput.5Cobjects.5CSwcApplTpms_Diag.
00000368 44             9355 	.byte	68
00000369 9f             9356 	.byte	159
0000036a 06             9357 	.byte	6
0000036b 40             9358 	.byte	64
0000036c 9d             9359 	.byte	157
0000036d 0a             9360 	.byte	10
0000036e 40             9361 	.byte	64
0000036f 9c             9362 	.byte	156
00000370 0e             9363 	.byte	14
00000371 40             9364 	.byte	64
00000372 9a             9365 	.byte	154
00000373 12             9366 	.byte	18

                                                                      Page 172
                                                              C:\Users\nhuliyap\AppData\Local\Temp\gh_00008941.s
00000374 01             9367 	.byte	1
00000375 00000000*      9368 	.word	.LDW76
00000379 00             9369 	.byte	0
0000037a 00             9370 	.byte	0
0000037b 00             9371 	.byte	0
                        9372 .LDW_unq_2c:
                        9373 	.section	.debug_line
00000ab8 000502         9374 	.byte	0,5,2
00000abb 00000000*      9375 	.word	_DIAG__ReqCallback_WriteAdditionalPressureOfMinimumPressure..C.3A.5C_ECU2.5CECU_Rivian_A1.5CTarget.5Crepo_projects.5CpRealEcu.5CcL_LATEST.5Cmake.5Coutput.5Cobjects.5CSwcApplTpms_Diag.
00000abf 03             9376 	.byte	3
00000ac0 fe04           9377 	.byte	254,4
00000ac2 02             9378 	.byte	2
00000ac3 00             9379 	.byte	0
00000ac4 01             9380 	.byte	1
00000ac5 06             9381 	.byte	6
00000ac6 000502         9382 	.byte	0,5,2
00000ac9 00000000*      9383 	.word	.LDWlin115
00000acd 03             9384 	.byte	3
00000ace 07             9385 	.byte	7
00000acf 02             9386 	.byte	2
00000ad0 00             9387 	.byte	0
00000ad1 01             9388 	.byte	1
00000ad2 03             9389 	.byte	3
00000ad3 7e             9390 	.byte	126
00000ad4 02             9391 	.byte	2
00000ad5 04             9392 	.byte	4
00000ad6 01             9393 	.byte	1
00000ad7 03             9394 	.byte	3
00000ad8 7c             9395 	.byte	124
00000ad9 02             9396 	.byte	2
00000ada 04             9397 	.byte	4
00000adb 01             9398 	.byte	1
00000adc 03             9399 	.byte	3
00000add 08             9400 	.byte	8
00000ade 02             9401 	.byte	2
00000adf 08             9402 	.byte	8
00000ae0 01             9403 	.byte	1
00000ae1 000502         9404 	.byte	0,5,2
00000ae4 00000000*      9405 	.word	.LDWlin116
00000ae8 03             9406 	.byte	3
00000ae9 04             9407 	.byte	4
00000aea 02             9408 	.byte	2
00000aeb 00             9409 	.byte	0
00000aec 01             9410 	.byte	1
00000aed 0b             9411 	.byte	11
00000aee 02             9412 	.byte	2
00000aef 00             9413 	.byte	0
00000af0 000502         9414 	.byte	0,5,2
00000af3 00000000*      9415 	.word	.LDWlin117
00000af7 0b             9416 	.byte	11
00000af8 0c             9417 	.byte	12
00000af9 000502         9418 	.byte	0,5,2
00000afc 00000000*      9419 	.word	.LDWlin118
00000b00 0b             9420 	.byte	11
00000b01 0b             9421 	.byte	11
00000b02 02             9422 	.byte	2
00000b03 00             9423 	.byte	0
00000b04 000502         9424 	.byte	0,5,2
00000b07 00000000*      9425 	.word	.LDWlin119
00000b0b 0b             9426 	.byte	11
00000b0c 0c             9427 	.byte	12

                                                                      Page 173
                                                              C:\Users\nhuliyap\AppData\Local\Temp\gh_00008941.s
00000b0d 06             9428 	.byte	6
00000b0e 000502         9429 	.byte	0,5,2
00000b11 00000000*      9430 	.word	.LDWlin120
00000b15 03             9431 	.byte	3
00000b16 76             9432 	.byte	118
00000b17 02             9433 	.byte	2
00000b18 00             9434 	.byte	0
00000b19 01             9435 	.byte	1
00000b1a 06             9436 	.byte	6
00000b1b 03             9437 	.byte	3
00000b1c 0b             9438 	.byte	11
00000b1d 02             9439 	.byte	2
00000b1e 00             9440 	.byte	0
00000b1f 01             9441 	.byte	1
00000b20 0c             9442 	.byte	12
00000b21 0c             9443 	.byte	12
00000b22 1b             9444 	.byte	27
00000b23 02             9445 	.byte	2
00000b24 00             9446 	.byte	0
00000b25 02             9447 	.byte	2
00000b26 00             9448 	.byte	0
00000b27 02             9449 	.byte	2
00000b28 00             9450 	.byte	0
00000b29 02             9451 	.byte	2
00000b2a 00             9452 	.byte	0
00000b2b 02             9453 	.byte	2
00000b2c 00             9454 	.byte	0
00000b2d 0c             9455 	.byte	12
00000b2e 000502         9456 	.byte	0,5,2
00000b31 00000000*      9457 	.word	.LDWlin121
00000b35 0b             9458 	.byte	11
00000b36 0c             9459 	.byte	12
00000b37 000502         9460 	.byte	0,5,2
00000b3a 00000000*      9461 	.word	.LDWlin122
00000b3e 0c             9462 	.byte	12
00000b3f 000502         9463 	.byte	0,5,2
00000b42 00000000*      9464 	.word	.LDWlin123
00000b46 0b             9465 	.byte	11
00000b47 0b             9466 	.byte	11
00000b48 000502         9467 	.byte	0,5,2
00000b4b 00000000*      9468 	.word	.LDWlin124
00000b4f 0b             9469 	.byte	11
00000b50 02             9470 	.byte	2
00000b51 00             9471 	.byte	0
00000b52 0b             9472 	.byte	11
00000b53 0b             9473 	.byte	11
00000b54 0c             9474 	.byte	12
00000b55 1b             9475 	.byte	27
00000b56 02             9476 	.byte	2
00000b57 00             9477 	.byte	0
00000b58 0c             9478 	.byte	12
00000b59 1c             9479 	.byte	28
00000b5a 06             9480 	.byte	6
00000b5b 02             9481 	.byte	2
00000b5c 02             9482 	.byte	2
00000b5d 02             9483 	.byte	2
00000b5e 04             9484 	.byte	4
00000b5f 000101         9485 	.byte	0,1,1
                        9486 	.section	.debug_info
                        9487 .LDW_4cffc18:
00002346 0f             9488 	.byte	15

                                                                      Page 174
                                                              C:\Users\nhuliyap\AppData\Local\Temp\gh_00008941.s
00002347 50535f4d7367   9489 	.strz	"PS_MsgContext"
0000234d 436f6e746578 
00002353 7400 
00002355 fe04           9490 	.byte	254,4
00002357 5a             9491 	.byte	90
00002358 01             9492 	.byte	1
00002359 00000000*      9493 	.word	.LDW_16b6d78
0000235d 00             9494 	.byte	0
0000235e 016a           9495 	.byte	1,106
                        9496 
                        9497 .LDW_4cee578:
00002360 1d             9498 	.byte	29
00002361 00000000*      9499 	.word	.LDW66
00002365 00000000*      9500 	.word	.LDW76
                        9501 
                        9502 .LDW_4cffdd0:
00002369 04             9503 	.byte	4
0000236a 55385f526574   9504 	.strz	"U8_RetVal"
00002370 56616c00 
00002374 8005           9505 	.byte	128,5
00002376 09             9506 	.byte	9
00002377 01             9507 	.byte	1
00002378 00000000*      9508 	.word	.LDW_16f9eb0
0000237c 00             9509 	.byte	0
0000237d 00             9510 	.byte	0
0000237e 016c           9511 	.byte	1,108
                        9512 
                        9513 .LDW_4cffb68:
00002380 04             9514 	.byte	4
00002381 55385f566172   9515 	.strz	"U8_VarCodMinPressThres"
00002387 436f644d696e 
0000238d 507265737354 
00002393 6872657300 
00002398 8105           9516 	.byte	129,5
0000239a 09             9517 	.byte	9
0000239b 01             9518 	.byte	1
0000239c 00000000*      9519 	.word	.LDW_16f9eb0
000023a0 00             9520 	.byte	0
000023a1 00             9521 	.byte	0
000023a2 0273           9522 	.byte	2,115
000023a4 03             9523 	.byte	3
                        9524 
                        9525 .LDW_4cfff30:
000023a5 04             9526 	.byte	4
000023a6 55385f4c6f77   9527 	.strz	"U8_LowLimitOfPMIN"
000023ac 4c696d69744f 
000023b2 66504d494e00 
000023b8 8205           9528 	.byte	130,5
000023ba 09             9529 	.byte	9
000023bb 01             9530 	.byte	1
000023bc 00000000*      9531 	.word	.LDW_16f9eb0
000023c0 00             9532 	.byte	0
000023c1 00             9533 	.byte	0
000023c2 0162           9534 	.byte	1,98
                        9535 
                        9536 .LDW_4cffed8:
000023c4 05             9537 	.byte	5
000023c5 55385f486967   9538 	.strz	"U8_HighLimitOfPMIN"
000023cb 684c696d6974 
000023d1 4f66504d494e 
000023d7 00 

                                                                      Page 175
                                                              C:\Users\nhuliyap\AppData\Local\Temp\gh_00008941.s
000023d8 8305           9539 	.byte	131,5
000023da 09             9540 	.byte	9
000023db 01             9541 	.byte	1
000023dc 00000000*      9542 	.word	.LDW_16f9eb0
000023e0 00             9543 	.byte	0
000023e1 00             9544 	.byte	0
                        9545 
000023e2 00             9546 	.byte	0
                        9547 
000023e3 00             9548 	.byte	0
                        9549 
                        9550 .LDW_4d08480:
000023e4 14             9551 	.byte	20
000023e5 444941475f5f   9552 	.strz	"DIAG__ReqCallback_ReadBCMFaultReason"
000023eb 52657143616c 
000023f1 6c6261636b5f 
000023f7 526561644243 
000023fd 4d4661756c74 
00002403 526561736f6e 
00002409 00 
0000240a b105           9553 	.byte	177,5
0000240c 0e             9554 	.byte	14
0000240d 01             9555 	.byte	1
0000240e 00000000*      9556 	.word	.LDW_16f9eb0
00002412 00000000*      9557 	.word	_DIAG__ReqCallback_ReadBCMFaultReason..C.3A.5C_ECU2.5CECU_Rivian_A1.5CTarget.5Crepo_projects.5CpRealEcu.5CcL_LATEST.5Cmake.5Coutput.5Cobjects.5CSwcApplTpms_Diag.
00002416 00000000*      9558 	.word	___ghs_eofn_DIAG__ReqCallback_ReadBCMFaultReason
0000241a 0153           9559 	.byte	1,83
0000241c 828080c00b     9560 	.byte	130,128,128,192,11
00002421 10             9561 	.byte	16
00002422 03             9562 	.byte	3
00002423 10             9563 	.byte	16
00002424 00             9564 	.byte	0
00002425 00             9565 	.byte	0
00002426 00             9566 	.byte	0
00002427 00             9567 	.byte	0
00002428 01             9568 	.byte	1
00002429 00             9569 	.byte	0
0000242a 01             9570 	.byte	1
                        9571 
                        9572 	.section	.debug_frame
                        9573 .LDW_16e3ea8:
0000037c 00000000*      9574 	.word	.LDW_unq_2e-.LDW_unq_2d
                        9575 .LDW_unq_2d:
00000380 00000000*      9576 	.word	.LDW_4ca0d40
00000384 00000000*      9577 	.word	_DIAG__ReqCallback_ReadBCMFaultReason..C.3A.5C_ECU2.5CECU_Rivian_A1.5CTarget.5Crepo_projects.5CpRealEcu.5CcL_LATEST.5Cmake.5Coutput.5Cobjects.5CSwcApplTpms_Diag.
00000388 00000000*      9578 	.word	___ghs_eofn_DIAG__ReqCallback_ReadBCMFaultReason-_DIAG__ReqCallback_ReadBCMFaultReason..C.3A.5C_ECU2.5CECU_Rivian_A1.5CTarget.5Crepo_projects.5CpRealEcu.5CcL_LATEST.5Cmake.5Coutput.5Cobjects.5CSwcApplTpms_Diag.
0000038c 44             9579 	.byte	68
0000038d 9f             9580 	.byte	159
0000038e 00             9581 	.byte	0
0000038f 40             9582 	.byte	64
00000390 9d             9583 	.byte	157
00000391 04             9584 	.byte	4
00000392 40             9585 	.byte	64
00000393 9c             9586 	.byte	156
00000394 08             9587 	.byte	8
00000395 40             9588 	.byte	64
00000396 9b             9589 	.byte	155
00000397 0c             9590 	.byte	12
00000398 01             9591 	.byte	1
00000399 00000000*      9592 	.word	.LDW96
0000039d 44             9593 	.byte	68

                                                                      Page 176
                                                              C:\Users\nhuliyap\AppData\Local\Temp\gh_00008941.s
0000039e df             9594 	.byte	223
0000039f 40             9595 	.byte	64
000003a0 dd             9596 	.byte	221
000003a1 40             9597 	.byte	64
000003a2 dc             9598 	.byte	220
000003a3 40             9599 	.byte	64
000003a4 db             9600 	.byte	219
000003a5 00             9601 	.byte	0
000003a6 00             9602 	.byte	0
000003a7 00             9603 	.byte	0
                        9604 .LDW_unq_2e:
                        9605 	.section	.debug_line
00000b62 000502         9606 	.byte	0,5,2
00000b65 00000000*      9607 	.word	_DIAG__ReqCallback_ReadBCMFaultReason..C.3A.5C_ECU2.5CECU_Rivian_A1.5CTarget.5Crepo_projects.5CpRealEcu.5CcL_LATEST.5Cmake.5Coutput.5Cobjects.5CSwcApplTpms_Diag.
00000b69 03             9608 	.byte	3
00000b6a b105           9609 	.byte	177,5
00000b6c 02             9610 	.byte	2
00000b6d 00             9611 	.byte	0
00000b6e 01             9612 	.byte	1
00000b6f 06             9613 	.byte	6
00000b70 000502         9614 	.byte	0,5,2
00000b73 00000000*      9615 	.word	.LDWlin125
00000b77 0d             9616 	.byte	13
00000b78 2c             9617 	.byte	44
00000b79 000502         9618 	.byte	0,5,2
00000b7c 00000000*      9619 	.word	.LDWlin126
00000b80 0c             9620 	.byte	12
00000b81 13             9621 	.byte	19
00000b82 2b             9622 	.byte	43
00000b83 13             9623 	.byte	19
00000b84 06             9624 	.byte	6
00000b85 02             9625 	.byte	2
00000b86 02             9626 	.byte	2
00000b87 02             9627 	.byte	2
00000b88 04             9628 	.byte	4
00000b89 000101         9629 	.byte	0,1,1
                        9630 	.section	.debug_info
                        9631 .LDW_4cffc70:
0000242b 0f             9632 	.byte	15
0000242c 50535f4d7367   9633 	.strz	"PS_MsgContext"
00002432 436f6e746578 
00002438 7400 
0000243a b105           9634 	.byte	177,5
0000243c 44             9635 	.byte	68
0000243d 01             9636 	.byte	1
0000243e 00000000*      9637 	.word	.LDW_16b6d78
00002442 00             9638 	.byte	0
00002443 016b           9639 	.byte	1,107
                        9640 
                        9641 .LDW_4cee278:
00002445 1d             9642 	.byte	29
00002446 00000000*      9643 	.word	.LDW86
0000244a 00000000*      9644 	.word	.LDW96
                        9645 
                        9646 .LDW_4cffd78:
0000244e 05             9647 	.byte	5
0000244f 55385f526574   9648 	.strz	"U8_RetVal"
00002455 56616c00 
00002459 b305           9649 	.byte	179,5
0000245b 09             9650 	.byte	9
0000245c 01             9651 	.byte	1

                                                                      Page 177
                                                              C:\Users\nhuliyap\AppData\Local\Temp\gh_00008941.s
0000245d 00000000*      9652 	.word	.LDW_16f9eb0
00002461 00             9653 	.byte	0
00002462 00             9654 	.byte	0
                        9655 
00002463 00             9656 	.byte	0
                        9657 
00002464 00             9658 	.byte	0
                        9659 
                        9660 .LDW_4d08778:
00002465 14             9661 	.byte	20
00002466 444941475f5f   9662 	.strz	"DIAG__ReqCallback_WriteBCMFaultReason"
0000246c 52657143616c 
00002472 6c6261636b5f 
00002478 577269746542 
0000247e 434d4661756c 
00002484 74526561736f 
0000248a 6e00 
0000248c bf05           9663 	.byte	191,5
0000248e 0e             9664 	.byte	14
0000248f 01             9665 	.byte	1
00002490 00000000*      9666 	.word	.LDW_16f9eb0
00002494 00000000*      9667 	.word	_DIAG__ReqCallback_WriteBCMFaultReason..C.3A.5C_ECU2.5CECU_Rivian_A1.5CTarget.5Crepo_projects.5CpRealEcu.5CcL_LATEST.5Cmake.5Coutput.5Cobjects.5CSwcApplTpms_Diag.
00002498 00000000*      9668 	.word	___ghs_eofn_DIAG__ReqCallback_WriteBCMFaultReason
0000249c 0153           9669 	.byte	1,83
0000249e 828080c00b     9670 	.byte	130,128,128,192,11
000024a3 10             9671 	.byte	16
000024a4 03             9672 	.byte	3
000024a5 10             9673 	.byte	16
000024a6 00             9674 	.byte	0
000024a7 00             9675 	.byte	0
000024a8 00             9676 	.byte	0
000024a9 00             9677 	.byte	0
000024aa 01             9678 	.byte	1
000024ab 00             9679 	.byte	0
000024ac 01             9680 	.byte	1
                        9681 
                        9682 	.section	.debug_frame
                        9683 .LDW_16e3ee8:
000003a8 00000000*      9684 	.word	.LDW_unq_30-.LDW_unq_2f
                        9685 .LDW_unq_2f:
000003ac 00000000*      9686 	.word	.LDW_4ca0d40
000003b0 00000000*      9687 	.word	_DIAG__ReqCallback_WriteBCMFaultReason..C.3A.5C_ECU2.5CECU_Rivian_A1.5CTarget.5Crepo_projects.5CpRealEcu.5CcL_LATEST.5Cmake.5Coutput.5Cobjects.5CSwcApplTpms_Diag.
000003b4 00000000*      9688 	.word	___ghs_eofn_DIAG__ReqCallback_WriteBCMFaultReason-_DIAG__ReqCallback_WriteBCMFaultReason..C.3A.5C_ECU2.5CECU_Rivian_A1.5CTarget.5Crepo_projects.5CpRealEcu.5CcL_LATEST.5Cmake.5Coutput.5Cobjects.5CSwcApplTpms_Diag.
000003b8 44             9689 	.byte	68
000003b9 9f             9690 	.byte	159
000003ba 00             9691 	.byte	0
000003bb 40             9692 	.byte	64
000003bc 9d             9693 	.byte	157
000003bd 04             9694 	.byte	4
000003be 40             9695 	.byte	64
000003bf 9c             9696 	.byte	156
000003c0 08             9697 	.byte	8
000003c1 40             9698 	.byte	64
000003c2 9b             9699 	.byte	155
000003c3 0c             9700 	.byte	12
000003c4 01             9701 	.byte	1
000003c5 00000000*      9702 	.word	.LDW17
000003c9 00             9703 	.byte	0
000003ca 00             9704 	.byte	0
000003cb 00             9705 	.byte	0
                        9706 .LDW_unq_30:

                                                                      Page 178
                                                              C:\Users\nhuliyap\AppData\Local\Temp\gh_00008941.s
                        9707 	.section	.debug_line
00000b8c 000502         9708 	.byte	0,5,2
00000b8f 00000000*      9709 	.word	_DIAG__ReqCallback_WriteBCMFaultReason..C.3A.5C_ECU2.5CECU_Rivian_A1.5CTarget.5Crepo_projects.5CpRealEcu.5CcL_LATEST.5Cmake.5Coutput.5Cobjects.5CSwcApplTpms_Diag.
00000b93 03             9710 	.byte	3
00000b94 bf05           9711 	.byte	191,5
00000b96 02             9712 	.byte	2
00000b97 00             9713 	.byte	0
00000b98 01             9714 	.byte	1
00000b99 06             9715 	.byte	6
00000b9a 000502         9716 	.byte	0,5,2
00000b9d 00000000*      9717 	.word	.LDWlin127
00000ba1 0d             9718 	.byte	13
00000ba2 24             9719 	.byte	36
00000ba3 000502         9720 	.byte	0,5,2
00000ba6 00000000*      9721 	.word	.LDWlin128
00000baa 0b             9722 	.byte	11
00000bab 0b             9723 	.byte	11
00000bac 000502         9724 	.byte	0,5,2
00000baf 00000000*      9725 	.word	.LDWlin129
00000bb3 0b             9726 	.byte	11
00000bb4 0b             9727 	.byte	11
00000bb5 0b             9728 	.byte	11
00000bb6 1b             9729 	.byte	27
00000bb7 02             9730 	.byte	2
00000bb8 00             9731 	.byte	0
00000bb9 0c             9732 	.byte	12
00000bba 1b             9733 	.byte	27
00000bbb 1c             9734 	.byte	28
00000bbc 06             9735 	.byte	6
00000bbd 02             9736 	.byte	2
00000bbe 02             9737 	.byte	2
00000bbf 02             9738 	.byte	2
00000bc0 04             9739 	.byte	4
00000bc1 000101         9740 	.byte	0,1,1
                        9741 	.section	.debug_info
                        9742 .LDW_4cffe80:
000024ad 0f             9743 	.byte	15
000024ae 50535f4d7367   9744 	.strz	"PS_MsgContext"
000024b4 436f6e746578 
000024ba 7400 
000024bc bf05           9745 	.byte	191,5
000024be 45             9746 	.byte	69
000024bf 01             9747 	.byte	1
000024c0 00000000*      9748 	.word	.LDW_16b6d78
000024c4 00             9749 	.byte	0
000024c5 016b           9750 	.byte	1,107
                        9751 
                        9752 .LDW_4cee458:
000024c7 1d             9753 	.byte	29
000024c8 00000000*      9754 	.word	.LDW07
000024cc 00000000*      9755 	.word	.LDW17
                        9756 
                        9757 .LDW_4cffb10:
000024d0 04             9758 	.byte	4
000024d1 55385f526574   9759 	.strz	"U8_RetVal"
000024d7 56616c00 
000024db c105           9760 	.byte	193,5
000024dd 09             9761 	.byte	9
000024de 01             9762 	.byte	1
000024df 00000000*      9763 	.word	.LDW_16f9eb0
000024e3 00             9764 	.byte	0

                                                                      Page 179
                                                              C:\Users\nhuliyap\AppData\Local\Temp\gh_00008941.s
000024e4 00             9765 	.byte	0
000024e5 016c           9766 	.byte	1,108
                        9767 
                        9768 .LDW_4d092e8:
000024e7 04             9769 	.byte	4
000024e8 42434d466175   9770 	.strz	"BCMFaultReasonToWrite"
000024ee 6c7452656173 
000024f4 6f6e546f5772 
000024fa 69746500 
000024fe c205           9771 	.byte	194,5
00002500 09             9772 	.byte	9
00002501 01             9773 	.byte	1
00002502 00000000*      9774 	.word	.LDW_16f9eb0
00002506 00             9775 	.byte	0
00002507 00             9776 	.byte	0
00002508 0156           9777 	.byte	1,86
                        9778 
0000250a 00             9779 	.byte	0
                        9780 
0000250b 00             9781 	.byte	0
                        9782 
                        9783 .LDW_4d08648:
0000250c 14             9784 	.byte	20
0000250d 444941475f5f   9785 	.strz	"DIAG__ReqCallback_ReadBCMPosition"
00002513 52657143616c 
00002519 6c6261636b5f 
0000251f 526561644243 
00002525 4d506f736974 
0000252b 696f6e00 
0000252f d305           9786 	.byte	211,5
00002531 0e             9787 	.byte	14
00002532 01             9788 	.byte	1
00002533 00000000*      9789 	.word	.LDW_16f9eb0
00002537 00000000*      9790 	.word	_DIAG__ReqCallback_ReadBCMPosition..C.3A.5C_ECU2.5CECU_Rivian_A1.5CTarget.5Crepo_projects.5CpRealEcu.5CcL_LATEST.5Cmake.5Coutput.5Cobjects.5CSwcApplTpms_Diag.
0000253b 00000000*      9791 	.word	___ghs_eofn_DIAG__ReqCallback_ReadBCMPosition
0000253f 0153           9792 	.byte	1,83
00002541 828080e00b     9793 	.byte	130,128,128,224,11
00002546 14             9794 	.byte	20
00002547 03             9795 	.byte	3
00002548 30             9796 	.byte	48
00002549 00             9797 	.byte	0
0000254a 00             9798 	.byte	0
0000254b 00             9799 	.byte	0
0000254c 00             9800 	.byte	0
0000254d 01             9801 	.byte	1
0000254e 00             9802 	.byte	0
0000254f 01             9803 	.byte	1
                        9804 
                        9805 	.section	.debug_frame
                        9806 .LDW_16e39a8:
000003cc 00000000*      9807 	.word	.LDW_unq_32-.LDW_unq_31
                        9808 .LDW_unq_31:
000003d0 00000000*      9809 	.word	.LDW_4ca0d40
000003d4 00000000*      9810 	.word	_DIAG__ReqCallback_ReadBCMPosition..C.3A.5C_ECU2.5CECU_Rivian_A1.5CTarget.5Crepo_projects.5CpRealEcu.5CcL_LATEST.5Cmake.5Coutput.5Cobjects.5CSwcApplTpms_Diag.
000003d8 00000000*      9811 	.word	___ghs_eofn_DIAG__ReqCallback_ReadBCMPosition-_DIAG__ReqCallback_ReadBCMPosition..C.3A.5C_ECU2.5CECU_Rivian_A1.5CTarget.5Crepo_projects.5CpRealEcu.5CcL_LATEST.5Cmake.5Coutput.5Cobjects.5CSwcApplTpms_Diag.
000003dc 44             9812 	.byte	68
000003dd 9f             9813 	.byte	159
000003de 15             9814 	.byte	21
000003df 40             9815 	.byte	64
000003e0 9d             9816 	.byte	157
000003e1 19             9817 	.byte	25

                                                                      Page 180
                                                              C:\Users\nhuliyap\AppData\Local\Temp\gh_00008941.s
000003e2 40             9818 	.byte	64
000003e3 9c             9819 	.byte	156
000003e4 1d             9820 	.byte	29
000003e5 40             9821 	.byte	64
000003e6 9b             9822 	.byte	155
000003e7 21             9823 	.byte	33
000003e8 40             9824 	.byte	64
000003e9 9a             9825 	.byte	154
000003ea 25             9826 	.byte	37
000003eb 01             9827 	.byte	1
000003ec 00000000*      9828 	.word	.LDW37
                        9829 .LDW_unq_32:
                        9830 	.section	.debug_line
00000bc4 000502         9831 	.byte	0,5,2
00000bc7 00000000*      9832 	.word	_DIAG__ReqCallback_ReadBCMPosition..C.3A.5C_ECU2.5CECU_Rivian_A1.5CTarget.5Crepo_projects.5CpRealEcu.5CcL_LATEST.5Cmake.5Coutput.5Cobjects.5CSwcApplTpms_Diag.
00000bcb 03             9833 	.byte	3
00000bcc d305           9834 	.byte	211,5
00000bce 02             9835 	.byte	2
00000bcf 00             9836 	.byte	0
00000bd0 01             9837 	.byte	1
00000bd1 06             9838 	.byte	6
00000bd2 000502         9839 	.byte	0,5,2
00000bd5 00000000*      9840 	.word	.LDWlin130
00000bd9 0c             9841 	.byte	12
00000bda 13             9842 	.byte	19
00000bdb 2b             9843 	.byte	43
00000bdc 1b             9844 	.byte	27
00000bdd 000502         9845 	.byte	0,5,2
00000be0 00000000*      9846 	.word	.LDWlin131
00000be4 0b             9847 	.byte	11
00000be5 000502         9848 	.byte	0,5,2
00000be8 00000000*      9849 	.word	.LDWlin132
00000bec 0d             9850 	.byte	13
00000bed 0b             9851 	.byte	11
00000bee 0b             9852 	.byte	11
00000bef 0b             9853 	.byte	11
00000bf0 1d             9854 	.byte	29
00000bf1 14             9855 	.byte	20
00000bf2 03             9856 	.byte	3
00000bf3 7c             9857 	.byte	124
00000bf4 02             9858 	.byte	2
00000bf5 02             9859 	.byte	2
00000bf6 01             9860 	.byte	1
00000bf7 02             9861 	.byte	2
00000bf8 00             9862 	.byte	0
00000bf9 0b             9863 	.byte	11
00000bfa 03             9864 	.byte	3
00000bfb 04             9865 	.byte	4
00000bfc 02             9866 	.byte	2
00000bfd 0a             9867 	.byte	10
00000bfe 01             9868 	.byte	1
00000bff 13             9869 	.byte	19
00000c00 06             9870 	.byte	6
00000c01 02             9871 	.byte	2
00000c02 02             9872 	.byte	2
00000c03 02             9873 	.byte	2
00000c04 04             9874 	.byte	4
00000c05 000101         9875 	.byte	0,1,1
                        9876 	.section	.debug_info
                        9877 .LDW_4d09708:
00002550 0f             9878 	.byte	15

                                                                      Page 181
                                                              C:\Users\nhuliyap\AppData\Local\Temp\gh_00008941.s
00002551 50535f4d7367   9879 	.strz	"PS_MsgContext"
00002557 436f6e746578 
0000255d 7400 
0000255f d305           9880 	.byte	211,5
00002561 41             9881 	.byte	65
00002562 01             9882 	.byte	1
00002563 00000000*      9883 	.word	.LDW_16b6d78
00002567 00             9884 	.byte	0
00002568 016a           9885 	.byte	1,106
                        9886 
                        9887 .LDW_4cee4e8:
0000256a 1d             9888 	.byte	29
0000256b 00000000*      9889 	.word	.LDW27
0000256f 00000000*      9890 	.word	.LDW37
                        9891 
                        9892 .LDW_4d08fd0:
00002573 04             9893 	.byte	4
00002574 745741506172   9894 	.strz	"tWAParLocal"
0000257a 4c6f63616c00 
00002580 d505           9895 	.byte	213,5
00002582 0f             9896 	.byte	15
00002583 01             9897 	.byte	1
00002584 00000000*      9898 	.word	.LDW_4cfefb8
00002588 00             9899 	.byte	0
00002589 00             9900 	.byte	0
0000258a 0273           9901 	.byte	2,115
0000258c 00             9902 	.byte	0
                        9903 
                        9904 .LDW_4d094f8:
0000258d 04             9905 	.byte	4
0000258e 55385f526574   9906 	.strz	"U8_RetVal"
00002594 56616c00 
00002598 d605           9907 	.byte	214,5
0000259a 09             9908 	.byte	9
0000259b 01             9909 	.byte	1
0000259c 00000000*      9910 	.word	.LDW_16f9eb0
000025a0 00             9911 	.byte	0
000025a1 00             9912 	.byte	0
000025a2 016b           9913 	.byte	1,107
                        9914 
000025a4 00             9915 	.byte	0
                        9916 
000025a5 00             9917 	.byte	0
                        9918 
                        9919 .LDW_4d08810:
000025a6 14             9920 	.byte	20
000025a7 444941475f5f   9921 	.strz	"DIAG__ReqCallback_WriteBCMPosition"
000025ad 52657143616c 
000025b3 6c6261636b5f 
000025b9 577269746542 
000025bf 434d506f7369 
000025c5 74696f6e00 
000025ca fa05           9922 	.byte	250,5
000025cc 0e             9923 	.byte	14
000025cd 01             9924 	.byte	1
000025ce 00000000*      9925 	.word	.LDW_16f9eb0
000025d2 00000000*      9926 	.word	_DIAG__ReqCallback_WriteBCMPosition..C.3A.5C_ECU2.5CECU_Rivian_A1.5CTarget.5Crepo_projects.5CpRealEcu.5CcL_LATEST.5Cmake.5Coutput.5Cobjects.5CSwcApplTpms_Diag.
000025d6 00000000*      9927 	.word	___ghs_eofn_DIAG__ReqCallback_WriteBCMPosition
000025da 0153           9928 	.byte	1,83
000025dc 828080f00b     9929 	.byte	130,128,128,240,11
000025e1 18             9930 	.byte	24

                                                                      Page 182
                                                              C:\Users\nhuliyap\AppData\Local\Temp\gh_00008941.s
000025e2 03             9931 	.byte	3
000025e3 18             9932 	.byte	24
000025e4 00             9933 	.byte	0
000025e5 00             9934 	.byte	0
000025e6 00             9935 	.byte	0
000025e7 00             9936 	.byte	0
000025e8 01             9937 	.byte	1
000025e9 00             9938 	.byte	0
000025ea 01             9939 	.byte	1
                        9940 
                        9941 	.section	.debug_frame
                        9942 .LDW_16e3f28:
000003f0 00000000*      9943 	.word	.LDW_unq_34-.LDW_unq_33
                        9944 .LDW_unq_33:
000003f4 00000000*      9945 	.word	.LDW_4ca0d40
000003f8 00000000*      9946 	.word	_DIAG__ReqCallback_WriteBCMPosition..C.3A.5C_ECU2.5CECU_Rivian_A1.5CTarget.5Crepo_projects.5CpRealEcu.5CcL_LATEST.5Cmake.5Coutput.5Cobjects.5CSwcApplTpms_Diag.
000003fc 00000000*      9947 	.word	___ghs_eofn_DIAG__ReqCallback_WriteBCMPosition-_DIAG__ReqCallback_WriteBCMPosition..C.3A.5C_ECU2.5CECU_Rivian_A1.5CTarget.5Crepo_projects.5CpRealEcu.5CcL_LATEST.5Cmake.5Coutput.5Cobjects.5CSwcApplTpms_Diag.
00000400 44             9948 	.byte	68
00000401 9f             9949 	.byte	159
00000402 00             9950 	.byte	0
00000403 40             9951 	.byte	64
00000404 9d             9952 	.byte	157
00000405 04             9953 	.byte	4
00000406 40             9954 	.byte	64
00000407 9c             9955 	.byte	156
00000408 08             9956 	.byte	8
00000409 40             9957 	.byte	64
0000040a 9b             9958 	.byte	155
0000040b 0c             9959 	.byte	12
0000040c 40             9960 	.byte	64
0000040d 9a             9961 	.byte	154
0000040e 10             9962 	.byte	16
0000040f 40             9963 	.byte	64
00000410 99             9964 	.byte	153
00000411 14             9965 	.byte	20
00000412 01             9966 	.byte	1
00000413 00000000*      9967 	.word	.LDW57
00000417 00             9968 	.byte	0
                        9969 .LDW_unq_34:
                        9970 	.section	.debug_line
00000c08 000502         9971 	.byte	0,5,2
00000c0b 00000000*      9972 	.word	_DIAG__ReqCallback_WriteBCMPosition..C.3A.5C_ECU2.5CECU_Rivian_A1.5CTarget.5Crepo_projects.5CpRealEcu.5CcL_LATEST.5Cmake.5Coutput.5Cobjects.5CSwcApplTpms_Diag.
00000c0f 03             9973 	.byte	3
00000c10 fa05           9974 	.byte	250,5
00000c12 02             9975 	.byte	2
00000c13 00             9976 	.byte	0
00000c14 01             9977 	.byte	1
00000c15 06             9978 	.byte	6
00000c16 000502         9979 	.byte	0,5,2
00000c19 00000000*      9980 	.word	.LDWlin133
00000c1d 0d             9981 	.byte	13
00000c1e 03             9982 	.byte	3
00000c1f 7e             9983 	.byte	126
00000c20 02             9984 	.byte	2
00000c21 04             9985 	.byte	4
00000c22 01             9986 	.byte	1
00000c23 03             9987 	.byte	3
00000c24 04             9988 	.byte	4
00000c25 02             9989 	.byte	2
00000c26 04             9990 	.byte	4
00000c27 01             9991 	.byte	1

                                                                      Page 183
                                                              C:\Users\nhuliyap\AppData\Local\Temp\gh_00008941.s
00000c28 000502         9992 	.byte	0,5,2
00000c2b 00000000*      9993 	.word	.LDWlin134
00000c2f 0d             9994 	.byte	13
00000c30 0c             9995 	.byte	12
00000c31 000502         9996 	.byte	0,5,2
00000c34 00000000*      9997 	.word	.LDWlin135
00000c38 0b             9998 	.byte	11
00000c39 1b             9999 	.byte	27
00000c3a 000502        10000 	.byte	0,5,2
00000c3d 00000000*     10001 	.word	.LDWlin136
00000c41 0b            10002 	.byte	11
00000c42 0b            10003 	.byte	11
00000c43 0b            10004 	.byte	11
00000c44 1b            10005 	.byte	27
00000c45 02            10006 	.byte	2
00000c46 00            10007 	.byte	0
00000c47 0c            10008 	.byte	12
00000c48 1b            10009 	.byte	27
00000c49 1b            10010 	.byte	27
00000c4a 06            10011 	.byte	6
00000c4b 02            10012 	.byte	2
00000c4c 02            10013 	.byte	2
00000c4d 02            10014 	.byte	2
00000c4e 04            10015 	.byte	4
00000c4f 000101        10016 	.byte	0,1,1
                       10017 	.section	.debug_info
                       10018 .LDW_4d098c0:
000025eb 0f            10019 	.byte	15
000025ec 50535f4d7367  10020 	.strz	"PS_MsgContext"
000025f2 436f6e746578 
000025f8 7400 
000025fa fa05          10021 	.byte	250,5
000025fc 42            10022 	.byte	66
000025fd 01            10023 	.byte	1
000025fe 00000000*     10024 	.word	.LDW_16b6d78
00002602 00            10025 	.byte	0
00002603 0169          10026 	.byte	1,105
                       10027 
                       10028 .LDW_4cee548:
00002605 1d            10029 	.byte	29
00002606 00000000*     10030 	.word	.LDW47
0000260a 00000000*     10031 	.word	.LDW57
                       10032 
                       10033 .LDW_4d09600:
0000260e 04            10034 	.byte	4
0000260f 55385f526574  10035 	.strz	"U8_RetVal"
00002615 56616c00 
00002619 fc05          10036 	.byte	252,5
0000261b 09            10037 	.byte	9
0000261c 01            10038 	.byte	1
0000261d 00000000*     10039 	.word	.LDW_16f9eb0
00002621 00            10040 	.byte	0
00002622 00            10041 	.byte	0
00002623 016a          10042 	.byte	1,106
                       10043 
                       10044 .LDW_4d09918:
00002625 04            10045 	.byte	4
00002626 55385f4e6577  10046 	.strz	"U8_NewECUPosition"
0000262c 454355506f73 
00002632 6974696f6e00 
00002638 fd05          10047 	.byte	253,5

                                                                      Page 184
                                                              C:\Users\nhuliyap\AppData\Local\Temp\gh_00008941.s
0000263a 09            10048 	.byte	9
0000263b 01            10049 	.byte	1
0000263c 00000000*     10050 	.word	.LDW_16f9eb0
00002640 00            10051 	.byte	0
00002641 00            10052 	.byte	0
00002642 016c          10053 	.byte	1,108
                       10054 
00002644 00            10055 	.byte	0
                       10056 
00002645 00            10057 	.byte	0
                       10058 
                       10059 .LDW_4d08cd0:
00002646 14            10060 	.byte	20
00002647 444941475f5f  10061 	.strz	"DIAG__ReqCallback_ReadABSTicksValue"
0000264d 52657143616c 
00002653 6c6261636b5f 
00002659 526561644142 
0000265f 535469636b73 
00002665 56616c756500 
0000266b 9206          10062 	.byte	146,6
0000266d 0e            10063 	.byte	14
0000266e 01            10064 	.byte	1
0000266f 00000000*     10065 	.word	.LDW_16f9eb0
00002673 00000000*     10066 	.word	_DIAG__ReqCallback_ReadABSTicksValue..C.3A.5C_ECU2.5CECU_Rivian_A1.5CTarget.5Crepo_projects.5CpRealEcu.5CcL_LATEST.5Cmake.5Coutput.5Cobjects.5CSwcApplTpms_Diag.
00002677 00000000*     10067 	.word	___ghs_eofn_DIAG__ReqCallback_ReadABSTicksValue
0000267b 0153          10068 	.byte	1,83
0000267d 828080c00b    10069 	.byte	130,128,128,192,11
00002682 10            10070 	.byte	16
00002683 03            10071 	.byte	3
00002684 14            10072 	.byte	20
00002685 00            10073 	.byte	0
00002686 00            10074 	.byte	0
00002687 00            10075 	.byte	0
00002688 00            10076 	.byte	0
00002689 01            10077 	.byte	1
0000268a 00            10078 	.byte	0
0000268b 01            10079 	.byte	1
                       10080 
                       10081 	.section	.debug_frame
                       10082 .LDW_16e3be8:
00000418 00000000*     10083 	.word	.LDW_unq_36-.LDW_unq_35
                       10084 .LDW_unq_35:
0000041c 00000000*     10085 	.word	.LDW_4ca0d40
00000420 00000000*     10086 	.word	_DIAG__ReqCallback_ReadABSTicksValue..C.3A.5C_ECU2.5CECU_Rivian_A1.5CTarget.5Crepo_projects.5CpRealEcu.5CcL_LATEST.5Cmake.5Coutput.5Cobjects.5CSwcApplTpms_Diag.
00000424 00000000*     10087 	.word	___ghs_eofn_DIAG__ReqCallback_ReadABSTicksValue-_DIAG__ReqCallback_ReadABSTicksValue..C.3A.5C_ECU2.5CECU_Rivian_A1.5CTarget.5Crepo_projects.5CpRealEcu.5CcL_LATEST.5Cmake.5Coutput.5Cobjects.5CSwcApplTpms_Diag.
00000428 44            10088 	.byte	68
00000429 9f            10089 	.byte	159
0000042a 03            10090 	.byte	3
0000042b 40            10091 	.byte	64
0000042c 9d            10092 	.byte	157
0000042d 07            10093 	.byte	7
0000042e 40            10094 	.byte	64
0000042f 9c            10095 	.byte	156
00000430 0b            10096 	.byte	11
00000431 40            10097 	.byte	64
00000432 9b            10098 	.byte	155
00000433 0f            10099 	.byte	15
00000434 01            10100 	.byte	1
00000435 00000000*     10101 	.word	.LDW77
00000439 00            10102 	.byte	0
0000043a 00            10103 	.byte	0

                                                                      Page 185
                                                              C:\Users\nhuliyap\AppData\Local\Temp\gh_00008941.s
0000043b 00            10104 	.byte	0
                       10105 .LDW_unq_36:
                       10106 	.section	.debug_line
00000c52 000502        10107 	.byte	0,5,2
00000c55 00000000*     10108 	.word	_DIAG__ReqCallback_ReadABSTicksValue..C.3A.5C_ECU2.5CECU_Rivian_A1.5CTarget.5Crepo_projects.5CpRealEcu.5CcL_LATEST.5Cmake.5Coutput.5Cobjects.5CSwcApplTpms_Diag.
00000c59 03            10109 	.byte	3
00000c5a 9206          10110 	.byte	146,6
00000c5c 02            10111 	.byte	2
00000c5d 00            10112 	.byte	0
00000c5e 01            10113 	.byte	1
00000c5f 06            10114 	.byte	6
00000c60 000502        10115 	.byte	0,5,2
00000c63 00000000*     10116 	.word	.LDWlin137
00000c67 0b            10117 	.byte	11
00000c68 15            10118 	.byte	21
00000c69 13            10119 	.byte	19
00000c6a 14            10120 	.byte	20
00000c6b 000502        10121 	.byte	0,5,2
00000c6e 00000000*     10122 	.word	.LDWlin138
00000c72 0b            10123 	.byte	11
00000c73 000502        10124 	.byte	0,5,2
00000c76 00000000*     10125 	.word	.LDWlin139
00000c7a 0c            10126 	.byte	12
00000c7b 0b            10127 	.byte	11
00000c7c 0b            10128 	.byte	11
00000c7d 0b            10129 	.byte	11
00000c7e 1d            10130 	.byte	29
00000c7f 03            10131 	.byte	3
00000c80 7e            10132 	.byte	126
00000c81 02            10133 	.byte	2
00000c82 04            10134 	.byte	4
00000c83 01            10135 	.byte	1
00000c84 02            10136 	.byte	2
00000c85 00            10137 	.byte	0
00000c86 0b            10138 	.byte	11
00000c87 03            10139 	.byte	3
00000c88 04            10140 	.byte	4
00000c89 02            10141 	.byte	2
00000c8a 04            10142 	.byte	4
00000c8b 01            10143 	.byte	1
00000c8c 03            10144 	.byte	3
00000c8d 7e            10145 	.byte	126
00000c8e 02            10146 	.byte	2
00000c8f 06            10147 	.byte	6
00000c90 01            10148 	.byte	1
00000c91 2d            10149 	.byte	45
00000c92 1b            10150 	.byte	27
00000c93 06            10151 	.byte	6
00000c94 02            10152 	.byte	2
00000c95 02            10153 	.byte	2
00000c96 02            10154 	.byte	2
00000c97 04            10155 	.byte	4
00000c98 000101        10156 	.byte	0,1,1
                       10157 	.section	.debug_info
                       10158 .LDW_4d09340:
0000268c 0f            10159 	.byte	15
0000268d 50535f4d7367  10160 	.strz	"PS_MsgContext"
00002693 436f6e746578 
00002699 7400 
0000269b 9206          10161 	.byte	146,6
0000269d 43            10162 	.byte	67

                                                                      Page 186
                                                              C:\Users\nhuliyap\AppData\Local\Temp\gh_00008941.s
0000269e 01            10163 	.byte	1
0000269f 00000000*     10164 	.word	.LDW_16b6d78
000026a3 00            10165 	.byte	0
000026a4 016b          10166 	.byte	1,107
                       10167 
                       10168 .LDW_4cee068:
000026a6 1d            10169 	.byte	29
000026a7 00000000*     10170 	.word	.LDW67
000026ab 00000000*     10171 	.word	.LDW77
                       10172 
                       10173 .LDW_4d09658:
000026af 04            10174 	.byte	4
000026b0 55385f526574  10175 	.strz	"U8_RetVal"
000026b6 56616c00 
000026ba 9406          10176 	.byte	148,6
000026bc 09            10177 	.byte	9
000026bd 01            10178 	.byte	1
000026be 00000000*     10179 	.word	.LDW_16f9eb0
000026c2 00            10180 	.byte	0
000026c3 00            10181 	.byte	0
000026c4 016c          10182 	.byte	1,108
                       10183 
                       10184 .LDW_4d09398:
000026c6 04            10185 	.byte	4
000026c7 4c6f63616c41  10186 	.strz	"LocalABSTicksInOneRev"
000026cd 42535469636b 
000026d3 73496e4f6e65 
000026d9 52657600 
000026dd 9506          10187 	.byte	149,6
000026df 1d            10188 	.byte	29
000026e0 01            10189 	.byte	1
000026e1 00000000*     10190 	.word	.LDW_4d099c8
000026e5 00            10191 	.byte	0
000026e6 00            10192 	.byte	0
000026e7 0273          10193 	.byte	2,115
000026e9 02            10194 	.byte	2
                       10195 
000026ea 00            10196 	.byte	0
                       10197 
000026eb 00            10198 	.byte	0
                       10199 
                       10200 .LDW_4d08940:
000026ec 14            10201 	.byte	20
000026ed 444941475f5f  10202 	.strz	"DIAG__ReqCallback_WriteABSTicksValue"
000026f3 52657143616c 
000026f9 6c6261636b5f 
000026ff 577269746541 
00002705 42535469636b 
0000270b 7356616c7565 
00002711 00 
00002712 bb06          10203 	.byte	187,6
00002714 0e            10204 	.byte	14
00002715 01            10205 	.byte	1
00002716 00000000*     10206 	.word	.LDW_16f9eb0
0000271a 00000000*     10207 	.word	_DIAG__ReqCallback_WriteABSTicksValue..C.3A.5C_ECU2.5CECU_Rivian_A1.5CTarget.5Crepo_projects.5CpRealEcu.5CcL_LATEST.5Cmake.5Coutput.5Cobjects.5CSwcApplTpms_Diag.
0000271e 00000000*     10208 	.word	___ghs_eofn_DIAG__ReqCallback_WriteABSTicksValue
00002722 0153          10209 	.byte	1,83
00002724 828080c00b    10210 	.byte	130,128,128,192,11
00002729 10            10211 	.byte	16
0000272a 03            10212 	.byte	3
0000272b 14            10213 	.byte	20

                                                                      Page 187
                                                              C:\Users\nhuliyap\AppData\Local\Temp\gh_00008941.s
0000272c 00            10214 	.byte	0
0000272d 00            10215 	.byte	0
0000272e 00            10216 	.byte	0
0000272f 00            10217 	.byte	0
00002730 01            10218 	.byte	1
00002731 00            10219 	.byte	0
00002732 01            10220 	.byte	1
                       10221 
                       10222 	.section	.debug_frame
                       10223 .LDW_16e3ce8:
0000043c 00000000*     10224 	.word	.LDW_unq_38-.LDW_unq_37
                       10225 .LDW_unq_37:
00000440 00000000*     10226 	.word	.LDW_4ca0d40
00000444 00000000*     10227 	.word	_DIAG__ReqCallback_WriteABSTicksValue..C.3A.5C_ECU2.5CECU_Rivian_A1.5CTarget.5Crepo_projects.5CpRealEcu.5CcL_LATEST.5Cmake.5Coutput.5Cobjects.5CSwcApplTpms_Diag.
00000448 00000000*     10228 	.word	___ghs_eofn_DIAG__ReqCallback_WriteABSTicksValue-_DIAG__ReqCallback_WriteABSTicksValue..C.3A.5C_ECU2.5CECU_Rivian_A1.5CTarget.5Crepo_projects.5CpRealEcu.5CcL_LATEST.5Cmake.5Coutput.5Cobjects.5CSwcApplTpms_Diag.
0000044c 44            10229 	.byte	68
0000044d 9f            10230 	.byte	159
0000044e 03            10231 	.byte	3
0000044f 40            10232 	.byte	64
00000450 9d            10233 	.byte	157
00000451 07            10234 	.byte	7
00000452 40            10235 	.byte	64
00000453 9c            10236 	.byte	156
00000454 0b            10237 	.byte	11
00000455 40            10238 	.byte	64
00000456 9b            10239 	.byte	155
00000457 0f            10240 	.byte	15
00000458 01            10241 	.byte	1
00000459 00000000*     10242 	.word	.LDW97
0000045d 00            10243 	.byte	0
0000045e 00            10244 	.byte	0
0000045f 00            10245 	.byte	0
                       10246 .LDW_unq_38:
                       10247 	.section	.debug_line
00000c9b 000502        10248 	.byte	0,5,2
00000c9e 00000000*     10249 	.word	_DIAG__ReqCallback_WriteABSTicksValue..C.3A.5C_ECU2.5CECU_Rivian_A1.5CTarget.5Crepo_projects.5CpRealEcu.5CcL_LATEST.5Cmake.5Coutput.5Cobjects.5CSwcApplTpms_Diag.
00000ca2 03            10250 	.byte	3
00000ca3 bb06          10251 	.byte	187,6
00000ca5 02            10252 	.byte	2
00000ca6 00            10253 	.byte	0
00000ca7 01            10254 	.byte	1
00000ca8 06            10255 	.byte	6
00000ca9 000502        10256 	.byte	0,5,2
00000cac 00000000*     10257 	.word	.LDWlin140
00000cb0 0d            10258 	.byte	13
00000cb1 13            10259 	.byte	19
00000cb2 14            10260 	.byte	20
00000cb3 03            10261 	.byte	3
00000cb4 7b            10262 	.byte	123
00000cb5 02            10263 	.byte	2
00000cb6 04            10264 	.byte	4
00000cb7 01            10265 	.byte	1
00000cb8 03            10266 	.byte	3
00000cb9 06            10267 	.byte	6
00000cba 02            10268 	.byte	2
00000cbb 08            10269 	.byte	8
00000cbc 01            10270 	.byte	1
00000cbd 14            10271 	.byte	20
00000cbe 000502        10272 	.byte	0,5,2
00000cc1 00000000*     10273 	.word	.LDWlin141
00000cc5 0c            10274 	.byte	12

                                                                      Page 188
                                                              C:\Users\nhuliyap\AppData\Local\Temp\gh_00008941.s
00000cc6 0b            10275 	.byte	11
00000cc7 000502        10276 	.byte	0,5,2
00000cca 00000000*     10277 	.word	.LDWlin142
00000cce 0b            10278 	.byte	11
00000ccf 000502        10279 	.byte	0,5,2
00000cd2 00000000*     10280 	.word	.LDWlin143
00000cd6 0c            10281 	.byte	12
00000cd7 0b            10282 	.byte	11
00000cd8 0b            10283 	.byte	11
00000cd9 0b            10284 	.byte	11
00000cda 000502        10285 	.byte	0,5,2
00000cdd 00000000*     10286 	.word	.LDWlin144
00000ce1 0b            10287 	.byte	11
00000ce2 02            10288 	.byte	2
00000ce3 00            10289 	.byte	0
00000ce4 0b            10290 	.byte	11
00000ce5 0b            10291 	.byte	11
00000ce6 0b            10292 	.byte	11
00000ce7 1b            10293 	.byte	27
00000ce8 02            10294 	.byte	2
00000ce9 00            10295 	.byte	0
00000cea 0d            10296 	.byte	13
00000ceb 1b            10297 	.byte	27
00000cec 1b            10298 	.byte	27
00000ced 06            10299 	.byte	6
00000cee 02            10300 	.byte	2
00000cef 02            10301 	.byte	2
00000cf0 02            10302 	.byte	2
00000cf1 04            10303 	.byte	4
00000cf2 000101        10304 	.byte	0,1,1
                       10305 	.section	.debug_info
                       10306 .LDW_4d09290:
00002733 0f            10307 	.byte	15
00002734 50535f4d7367  10308 	.strz	"PS_MsgContext"
0000273a 436f6e746578 
00002740 7400 
00002742 bb06          10309 	.byte	187,6
00002744 44            10310 	.byte	68
00002745 01            10311 	.byte	1
00002746 00000000*     10312 	.word	.LDW_16b6d78
0000274a 00            10313 	.byte	0
0000274b 016b          10314 	.byte	1,107
                       10315 
                       10316 .LDW_4cee0c8:
0000274d 1d            10317 	.byte	29
0000274e 00000000*     10318 	.word	.LDW87
00002752 00000000*     10319 	.word	.LDW97
                       10320 
                       10321 .LDW_4d091e0:
00002756 04            10322 	.byte	4
00002757 55385f526574  10323 	.strz	"U8_RetVal"
0000275d 56616c00 
00002761 bd06          10324 	.byte	189,6
00002763 09            10325 	.byte	9
00002764 01            10326 	.byte	1
00002765 00000000*     10327 	.word	.LDW_16f9eb0
00002769 00            10328 	.byte	0
0000276a 00            10329 	.byte	0
0000276b 016c          10330 	.byte	1,108
                       10331 
                       10332 .LDW_4d09028:

                                                                      Page 189
                                                              C:\Users\nhuliyap\AppData\Local\Temp\gh_00008941.s
0000276d 04            10333 	.byte	4
0000276e 4c6f63616c41  10334 	.strz	"LocalABSTicksInOneRev"
00002774 42535469636b 
0000277a 73496e4f6e65 
00002780 52657600 
00002784 be06          10335 	.byte	190,6
00002786 1d            10336 	.byte	29
00002787 01            10337 	.byte	1
00002788 00000000*     10338 	.word	.LDW_4d099c8
0000278c 00            10339 	.byte	0
0000278d 00            10340 	.byte	0
0000278e 0273          10341 	.byte	2,115
00002790 00            10342 	.byte	0
                       10343 
                       10344 .LDW_4d093f0:
00002791 04            10345 	.byte	4
00002792 506172616d61  10346 	.strz	"ParamaterABSTicksInOneRev"
00002798 746572414253 
0000279e 5469636b7349 
000027a4 6e4f6e655265 
000027aa 7600 
000027ac be06          10347 	.byte	190,6
000027ae 34            10348 	.byte	52
000027af 01            10349 	.byte	1
000027b0 00000000*     10350 	.word	.LDW_4d099c8
000027b4 00            10351 	.byte	0
000027b5 00            10352 	.byte	0
000027b6 0273          10353 	.byte	2,115
000027b8 02            10354 	.byte	2
                       10355 
000027b9 00            10356 	.byte	0
                       10357 
000027ba 00            10358 	.byte	0
                       10359 
                       10360 .LDW_4d088a8:
000027bb 14            10361 	.byte	20
000027bc 444941475f5f  10362 	.strz	"DIAG__ReqCallback_ReadRSSINoiseLevel"
000027c2 52657143616c 
000027c8 6c6261636b5f 
000027ce 526561645253 
000027d4 53494e6f6973 
000027da 654c6576656c 
000027e0 00 
000027e1 eb06          10363 	.byte	235,6
000027e3 0e            10364 	.byte	14
000027e4 01            10365 	.byte	1
000027e5 00000000*     10366 	.word	.LDW_16f9eb0
000027e9 00000000*     10367 	.word	_DIAG__ReqCallback_ReadRSSINoiseLevel..C.3A.5C_ECU2.5CECU_Rivian_A1.5CTarget.5Crepo_projects.5CpRealEcu.5CcL_LATEST.5Cmake.5Coutput.5Cobjects.5CSwcApplTpms_Diag.
000027ed 00000000*     10368 	.word	___ghs_eofn_DIAG__ReqCallback_ReadRSSINoiseLevel
000027f1 0153          10369 	.byte	1,83
000027f3 828080c00b    10370 	.byte	130,128,128,192,11
000027f8 10            10371 	.byte	16
000027f9 03            10372 	.byte	3
000027fa 10            10373 	.byte	16
000027fb 00            10374 	.byte	0
000027fc 00            10375 	.byte	0
000027fd 00            10376 	.byte	0
000027fe 00            10377 	.byte	0
000027ff 01            10378 	.byte	1
00002800 00            10379 	.byte	0
00002801 01            10380 	.byte	1

                                                                      Page 190
                                                              C:\Users\nhuliyap\AppData\Local\Temp\gh_00008941.s
                       10381 
                       10382 	.section	.debug_frame
                       10383 .LDW_16e3fa8:
00000460 00000000*     10384 	.word	.LDW_unq_3a-.LDW_unq_39
                       10385 .LDW_unq_39:
00000464 00000000*     10386 	.word	.LDW_4ca0d40
00000468 00000000*     10387 	.word	_DIAG__ReqCallback_ReadRSSINoiseLevel..C.3A.5C_ECU2.5CECU_Rivian_A1.5CTarget.5Crepo_projects.5CpRealEcu.5CcL_LATEST.5Cmake.5Coutput.5Cobjects.5CSwcApplTpms_Diag.
0000046c 00000000*     10388 	.word	___ghs_eofn_DIAG__ReqCallback_ReadRSSINoiseLevel-_DIAG__ReqCallback_ReadRSSINoiseLevel..C.3A.5C_ECU2.5CECU_Rivian_A1.5CTarget.5Crepo_projects.5CpRealEcu.5CcL_LATEST.5Cmake.5Coutput.5Cobjects.5CSwcApplTpms_Diag.
00000470 44            10389 	.byte	68
00000471 9f            10390 	.byte	159
00000472 00            10391 	.byte	0
00000473 40            10392 	.byte	64
00000474 9d            10393 	.byte	157
00000475 04            10394 	.byte	4
00000476 40            10395 	.byte	64
00000477 9c            10396 	.byte	156
00000478 08            10397 	.byte	8
00000479 40            10398 	.byte	64
0000047a 9b            10399 	.byte	155
0000047b 0c            10400 	.byte	12
0000047c 01            10401 	.byte	1
0000047d 00000000*     10402 	.word	.LDW18
00000481 44            10403 	.byte	68
00000482 df            10404 	.byte	223
00000483 40            10405 	.byte	64
00000484 dd            10406 	.byte	221
00000485 40            10407 	.byte	64
00000486 dc            10408 	.byte	220
00000487 40            10409 	.byte	64
00000488 db            10410 	.byte	219
00000489 00            10411 	.byte	0
0000048a 00            10412 	.byte	0
0000048b 00            10413 	.byte	0
                       10414 .LDW_unq_3a:
                       10415 	.section	.debug_line
00000cf5 000502        10416 	.byte	0,5,2
00000cf8 00000000*     10417 	.word	_DIAG__ReqCallback_ReadRSSINoiseLevel..C.3A.5C_ECU2.5CECU_Rivian_A1.5CTarget.5Crepo_projects.5CpRealEcu.5CcL_LATEST.5Cmake.5Coutput.5Cobjects.5CSwcApplTpms_Diag.
00000cfc 03            10418 	.byte	3
00000cfd eb06          10419 	.byte	235,6
00000cff 02            10420 	.byte	2
00000d00 00            10421 	.byte	0
00000d01 01            10422 	.byte	1
00000d02 06            10423 	.byte	6
00000d03 000502        10424 	.byte	0,5,2
00000d06 00000000*     10425 	.word	.LDWlin145
00000d0a 03            10426 	.byte	3
00000d0b 05            10427 	.byte	5
00000d0c 02            10428 	.byte	2
00000d0d 00            10429 	.byte	0
00000d0e 01            10430 	.byte	1
00000d0f 000502        10431 	.byte	0,5,2
00000d12 00000000*     10432 	.word	.LDWlin146
00000d16 0b            10433 	.byte	11
00000d17 1b            10434 	.byte	27
00000d18 2d            10435 	.byte	45
00000d19 03            10436 	.byte	3
00000d1a 7e            10437 	.byte	126
00000d1b 02            10438 	.byte	2
00000d1c 06            10439 	.byte	6
00000d1d 01            10440 	.byte	1
00000d1e 2d            10441 	.byte	45

                                                                      Page 191
                                                              C:\Users\nhuliyap\AppData\Local\Temp\gh_00008941.s
00000d1f 1b            10442 	.byte	27
00000d20 06            10443 	.byte	6
00000d21 02            10444 	.byte	2
00000d22 02            10445 	.byte	2
00000d23 02            10446 	.byte	2
00000d24 04            10447 	.byte	4
00000d25 000101        10448 	.byte	0,1,1
                       10449 	.section	.debug_info
                       10450 .LDW_4d095a8:
00002802 0f            10451 	.byte	15
00002803 50535f4d7367  10452 	.strz	"PS_MsgContext"
00002809 436f6e746578 
0000280f 7400 
00002811 eb06          10453 	.byte	235,6
00002813 44            10454 	.byte	68
00002814 01            10455 	.byte	1
00002815 00000000*     10456 	.word	.LDW_16b6d78
00002819 00            10457 	.byte	0
0000281a 016b          10458 	.byte	1,107
                       10459 
                       10460 .LDW_4cee5d8:
0000281c 1d            10461 	.byte	29
0000281d 00000000*     10462 	.word	.LDW08
00002821 00000000*     10463 	.word	.LDW18
                       10464 
                       10465 .LDW_4d090d8:
00002825 05            10466 	.byte	5
00002826 55385f526574  10467 	.strz	"U8_RetVal"
0000282c 56616c00 
00002830 ed06          10468 	.byte	237,6
00002832 09            10469 	.byte	9
00002833 01            10470 	.byte	1
00002834 00000000*     10471 	.word	.LDW_16f9eb0
00002838 00            10472 	.byte	0
00002839 00            10473 	.byte	0
                       10474 
                       10475 .LDW_4d09080:
0000283a 05            10476 	.byte	5
0000283b 55385f4c6f63  10477 	.strz	"U8_LocalNoiseLevel"
00002841 616c4e6f6973 
00002847 654c6576656c 
0000284d 00 
0000284e ee06          10478 	.byte	238,6
00002850 09            10479 	.byte	9
00002851 01            10480 	.byte	1
00002852 00000000*     10481 	.word	.LDW_16f9eb0
00002856 00            10482 	.byte	0
00002857 00            10483 	.byte	0
                       10484 
00002858 00            10485 	.byte	0
                       10486 
00002859 00            10487 	.byte	0
                       10488 
                       10489 .LDW_4d08d68:
0000285a 14            10490 	.byte	20
0000285b 444941475f5f  10491 	.strz	"DIAG__ReqCallback_WriteRSSINoiseLevel"
00002861 52657143616c 
00002867 6c6261636b5f 
0000286d 577269746552 
00002873 5353494e6f69 
00002879 73654c657665 

                                                                      Page 192
                                                              C:\Users\nhuliyap\AppData\Local\Temp\gh_00008941.s
0000287f 6c00 
00002881 8b07          10492 	.byte	139,7
00002883 0e            10493 	.byte	14
00002884 01            10494 	.byte	1
00002885 00000000*     10495 	.word	.LDW_16f9eb0
00002889 00000000*     10496 	.word	_DIAG__ReqCallback_WriteRSSINoiseLevel..C.3A.5C_ECU2.5CECU_Rivian_A1.5CTarget.5Crepo_projects.5CpRealEcu.5CcL_LATEST.5Cmake.5Coutput.5Cobjects.5CSwcApplTpms_Diag.
0000288d 00000000*     10497 	.word	___ghs_eofn_DIAG__ReqCallback_WriteRSSINoiseLevel
00002891 0153          10498 	.byte	1,83
00002893 828080e00b    10499 	.byte	130,128,128,224,11
00002898 14            10500 	.byte	20
00002899 03            10501 	.byte	3
0000289a 14            10502 	.byte	20
0000289b 00            10503 	.byte	0
0000289c 00            10504 	.byte	0
0000289d 00            10505 	.byte	0
0000289e 00            10506 	.byte	0
0000289f 01            10507 	.byte	1
000028a0 00            10508 	.byte	0
000028a1 01            10509 	.byte	1
                       10510 
                       10511 	.section	.debug_frame
                       10512 .LDW_16e3d28:
0000048c 00000000*     10513 	.word	.LDW_unq_3c-.LDW_unq_3b
                       10514 .LDW_unq_3b:
00000490 00000000*     10515 	.word	.LDW_4ca0d40
00000494 00000000*     10516 	.word	_DIAG__ReqCallback_WriteRSSINoiseLevel..C.3A.5C_ECU2.5CECU_Rivian_A1.5CTarget.5Crepo_projects.5CpRealEcu.5CcL_LATEST.5Cmake.5Coutput.5Cobjects.5CSwcApplTpms_Diag.
00000498 00000000*     10517 	.word	___ghs_eofn_DIAG__ReqCallback_WriteRSSINoiseLevel-_DIAG__ReqCallback_WriteRSSINoiseLevel..C.3A.5C_ECU2.5CECU_Rivian_A1.5CTarget.5Crepo_projects.5CpRealEcu.5CcL_LATEST.5Cmake.5Coutput.5Cobjects.5CSwcApplTpms_Diag.
0000049c 44            10518 	.byte	68
0000049d 9f            10519 	.byte	159
0000049e 00            10520 	.byte	0
0000049f 40            10521 	.byte	64
000004a0 9d            10522 	.byte	157
000004a1 04            10523 	.byte	4
000004a2 40            10524 	.byte	64
000004a3 9c            10525 	.byte	156
000004a4 08            10526 	.byte	8
000004a5 40            10527 	.byte	64
000004a6 9b            10528 	.byte	155
000004a7 0c            10529 	.byte	12
000004a8 40            10530 	.byte	64
000004a9 9a            10531 	.byte	154
000004aa 10            10532 	.byte	16
000004ab 01            10533 	.byte	1
000004ac 00000000*     10534 	.word	.LDW38
                       10535 .LDW_unq_3c:
                       10536 	.section	.debug_line
00000d28 000502        10537 	.byte	0,5,2
00000d2b 00000000*     10538 	.word	_DIAG__ReqCallback_WriteRSSINoiseLevel..C.3A.5C_ECU2.5CECU_Rivian_A1.5CTarget.5Crepo_projects.5CpRealEcu.5CcL_LATEST.5Cmake.5Coutput.5Cobjects.5CSwcApplTpms_Diag.
00000d2f 03            10539 	.byte	3
00000d30 8b07          10540 	.byte	139,7
00000d32 02            10541 	.byte	2
00000d33 00            10542 	.byte	0
00000d34 01            10543 	.byte	1
00000d35 06            10544 	.byte	6
00000d36 000502        10545 	.byte	0,5,2
00000d39 00000000*     10546 	.word	.LDWlin147
00000d3d 0d            10547 	.byte	13
00000d3e 03            10548 	.byte	3
00000d3f 7e            10549 	.byte	126
00000d40 02            10550 	.byte	2
00000d41 04            10551 	.byte	4

                                                                      Page 193
                                                              C:\Users\nhuliyap\AppData\Local\Temp\gh_00008941.s
00000d42 01            10552 	.byte	1
00000d43 000502        10553 	.byte	0,5,2
00000d46 00000000*     10554 	.word	.LDWlin148
00000d4a 0d            10555 	.byte	13
00000d4b 0c            10556 	.byte	12
00000d4c 000502        10557 	.byte	0,5,2
00000d4f 00000000*     10558 	.word	.LDWlin149
00000d53 0b            10559 	.byte	11
00000d54 1c            10560 	.byte	28
00000d55 03            10561 	.byte	3
00000d56 7f            10562 	.byte	127
00000d57 02            10563 	.byte	2
00000d58 0a            10564 	.byte	10
00000d59 01            10565 	.byte	1
00000d5a 000502        10566 	.byte	0,5,2
00000d5d 00000000*     10567 	.word	.LDWlin150
00000d61 0c            10568 	.byte	12
00000d62 0b            10569 	.byte	11
00000d63 0b            10570 	.byte	11
00000d64 1b            10571 	.byte	27
00000d65 02            10572 	.byte	2
00000d66 00            10573 	.byte	0
00000d67 0c            10574 	.byte	12
00000d68 1b            10575 	.byte	27
00000d69 1c            10576 	.byte	28
00000d6a 06            10577 	.byte	6
00000d6b 02            10578 	.byte	2
00000d6c 02            10579 	.byte	2
00000d6d 02            10580 	.byte	2
00000d6e 04            10581 	.byte	4
00000d6f 000101        10582 	.byte	0,1,1
                       10583 	.section	.debug_info
                       10584 .LDW_4d09130:
000028a2 0f            10585 	.byte	15
000028a3 50535f4d7367  10586 	.strz	"PS_MsgContext"
000028a9 436f6e746578 
000028af 7400 
000028b1 8b07          10587 	.byte	139,7
000028b3 45            10588 	.byte	69
000028b4 01            10589 	.byte	1
000028b5 00000000*     10590 	.word	.LDW_16b6d78
000028b9 00            10591 	.byte	0
000028ba 016b          10592 	.byte	1,107
                       10593 
                       10594 .LDW_4ceea28:
000028bc 1d            10595 	.byte	29
000028bd 00000000*     10596 	.word	.LDW28
000028c1 00000000*     10597 	.word	.LDW38
                       10598 
                       10599 .LDW_4d09a78:
000028c5 04            10600 	.byte	4
000028c6 55385f526574  10601 	.strz	"U8_RetVal"
000028cc 56616c00 
000028d0 8d07          10602 	.byte	141,7
000028d2 09            10603 	.byte	9
000028d3 01            10604 	.byte	1
000028d4 00000000*     10605 	.word	.LDW_16f9eb0
000028d8 00            10606 	.byte	0
000028d9 00            10607 	.byte	0
000028da 016a          10608 	.byte	1,106
                       10609 

                                                                      Page 194
                                                              C:\Users\nhuliyap\AppData\Local\Temp\gh_00008941.s
000028dc 00            10610 	.byte	0
                       10611 
000028dd 00            10612 	.byte	0
                       10613 
                       10614 .LDW_4d089d8:
000028de 14            10615 	.byte	20
000028df 444941475f5f  10616 	.strz	"DIAG__ReqCallback_ReadTemperatureWarningThreshold"
000028e5 52657143616c 
000028eb 6c6261636b5f 
000028f1 526561645465 
000028f7 6d7065726174 
000028fd 757265576172 
00002903 6e696e675468 
00002909 726573686f6c 
0000290f 6400 
00002911 a107          10617 	.byte	161,7
00002913 0e            10618 	.byte	14
00002914 01            10619 	.byte	1
00002915 00000000*     10620 	.word	.LDW_16f9eb0
00002919 00000000*     10621 	.word	_DIAG__ReqCallback_ReadTemperatureWarningThreshold..C.3A.5C_ECU2.5CECU_Rivian_A1.5CTarget.5Crepo_projects.5CpRealEcu.5CcL_LATEST.5Cmake.5Coutput.5Cobjects.5CSwcApplTpms_Diag.
0000291d 00000000*     10622 	.word	___ghs_eofn_DIAG__ReqCallback_ReadTemperatureWarningThreshold
00002921 0153          10623 	.byte	1,83
00002923 828080800b    10624 	.byte	130,128,128,128,11
00002928 0c            10625 	.byte	12
00002929 03            10626 	.byte	3
0000292a 0c            10627 	.byte	12
0000292b 00            10628 	.byte	0
0000292c 00            10629 	.byte	0
0000292d 00            10630 	.byte	0
0000292e 00            10631 	.byte	0
0000292f 01            10632 	.byte	1
00002930 00            10633 	.byte	0
00002931 01            10634 	.byte	1
                       10635 
                       10636 	.section	.debug_frame
                       10637 .LDW_16e3aa8:
000004b0 00000000*     10638 	.word	.LDW_unq_3e-.LDW_unq_3d
                       10639 .LDW_unq_3d:
000004b4 00000000*     10640 	.word	.LDW_4ca0d40
000004b8 00000000*     10641 	.word	_DIAG__ReqCallback_ReadTemperatureWarningThreshold..C.3A.5C_ECU2.5CECU_Rivian_A1.5CTarget.5Crepo_projects.5CpRealEcu.5CcL_LATEST.5Cmake.5Coutput.5Cobjects.5CSwcApplTpms_Diag.
000004bc 00000000*     10642 	.word	___ghs_eofn_DIAG__ReqCallback_ReadTemperatureWarningThreshold-_DIAG__ReqCallback_ReadTemperatureWarningThreshold..C.3A.5C_ECU2.5CECU_Rivian_A1.5CTarget.5Crepo_projects.5CpRealEcu.5CcL_LATEST.5Cmake.5Coutput.5Cobjects.5CSwcApplTpms_Diag.
000004c0 44            10643 	.byte	68
000004c1 9f            10644 	.byte	159
000004c2 00            10645 	.byte	0
000004c3 40            10646 	.byte	64
000004c4 9d            10647 	.byte	157
000004c5 04            10648 	.byte	4
000004c6 40            10649 	.byte	64
000004c7 9c            10650 	.byte	156
000004c8 08            10651 	.byte	8
000004c9 01            10652 	.byte	1
000004ca 00000000*     10653 	.word	.LDW58
000004ce 44            10654 	.byte	68
000004cf df            10655 	.byte	223
000004d0 40            10656 	.byte	64
000004d1 dd            10657 	.byte	221
000004d2 40            10658 	.byte	64
000004d3 dc            10659 	.byte	220
                       10660 .LDW_unq_3e:
                       10661 	.section	.debug_line
00000d72 000502        10662 	.byte	0,5,2

                                                                      Page 195
                                                              C:\Users\nhuliyap\AppData\Local\Temp\gh_00008941.s
00000d75 00000000*     10663 	.word	_DIAG__ReqCallback_ReadTemperatureWarningThreshold..C.3A.5C_ECU2.5CECU_Rivian_A1.5CTarget.5Crepo_projects.5CpRealEcu.5CcL_LATEST.5Cmake.5Coutput.5Cobjects.5CSwcApplTpms_Diag.
00000d79 03            10664 	.byte	3
00000d7a a107          10665 	.byte	161,7
00000d7c 02            10666 	.byte	2
00000d7d 00            10667 	.byte	0
00000d7e 01            10668 	.byte	1
00000d7f 06            10669 	.byte	6
00000d80 000502        10670 	.byte	0,5,2
00000d83 00000000*     10671 	.word	.LDWlin151
00000d87 0d            10672 	.byte	13
00000d88 000502        10673 	.byte	0,5,2
00000d8b 00000000*     10674 	.word	.LDWlin152
00000d8f 03            10675 	.byte	3
00000d90 04            10676 	.byte	4
00000d91 02            10677 	.byte	2
00000d92 00            10678 	.byte	0
00000d93 01            10679 	.byte	1
00000d94 03            10680 	.byte	3
00000d95 7e            10681 	.byte	126
00000d96 02            10682 	.byte	2
00000d97 04            10683 	.byte	4
00000d98 01            10684 	.byte	1
00000d99 2d            10685 	.byte	45
00000d9a 1c            10686 	.byte	28
00000d9b 06            10687 	.byte	6
00000d9c 02            10688 	.byte	2
00000d9d 02            10689 	.byte	2
00000d9e 02            10690 	.byte	2
00000d9f 04            10691 	.byte	4
00000da0 000101        10692 	.byte	0,1,1
                       10693 	.section	.debug_info
                       10694 .LDW_4d09760:
00002932 0f            10695 	.byte	15
00002933 50535f4d7367  10696 	.strz	"PS_MsgContext"
00002939 436f6e746578 
0000293f 7400 
00002941 a107          10697 	.byte	161,7
00002943 51            10698 	.byte	81
00002944 01            10699 	.byte	1
00002945 00000000*     10700 	.word	.LDW_16b6d78
00002949 00            10701 	.byte	0
0000294a 016c          10702 	.byte	1,108
                       10703 
                       10704 .LDW_4cee7e8:
0000294c 1d            10705 	.byte	29
0000294d 00000000*     10706 	.word	.LDW48
00002951 00000000*     10707 	.word	.LDW58
                       10708 
                       10709 .LDW_4d09188:
00002955 05            10710 	.byte	5
00002956 55385f526574  10711 	.strz	"U8_RetVal"
0000295c 56616c00 
00002960 a307          10712 	.byte	163,7
00002962 09            10713 	.byte	9
00002963 01            10714 	.byte	1
00002964 00000000*     10715 	.word	.LDW_16f9eb0
00002968 00            10716 	.byte	0
00002969 00            10717 	.byte	0
                       10718 
0000296a 00            10719 	.byte	0
                       10720 

                                                                      Page 196
                                                              C:\Users\nhuliyap\AppData\Local\Temp\gh_00008941.s
0000296b 00            10721 	.byte	0
                       10722 
                       10723 .LDW_4d08e00:
0000296c 14            10724 	.byte	20
0000296d 444941475f5f  10725 	.strz	"DIAG__ReqCallback_WriteTemperatureWarningThreshold"
00002973 52657143616c 
00002979 6c6261636b5f 
0000297f 577269746554 
00002985 656d70657261 
0000298b 747572655761 
00002991 726e696e6754 
00002997 68726573686f 
0000299d 6c6400 
000029a0 af07          10726 	.byte	175,7
000029a2 0e            10727 	.byte	14
000029a3 01            10728 	.byte	1
000029a4 00000000*     10729 	.word	.LDW_16f9eb0
000029a8 00000000*     10730 	.word	_DIAG__ReqCallback_WriteTemperatureWarningThreshold..C.3A.5C_ECU2.5CECU_Rivian_A1.5CTarget.5Crepo_projects.5CpRealEcu.5CcL_LATEST.5Cmake.5Coutput.5Cobjects.5CSwcApplTpms_Diag.
000029ac 00000000*     10731 	.word	___ghs_eofn_DIAG__ReqCallback_WriteTemperatureWarningThreshold
000029b0 0153          10732 	.byte	1,83
000029b2 828080800a    10733 	.byte	130,128,128,128,10
000029b7 08            10734 	.byte	8
000029b8 03            10735 	.byte	3
000029b9 08            10736 	.byte	8
000029ba 00            10737 	.byte	0
000029bb 00            10738 	.byte	0
000029bc 00            10739 	.byte	0
000029bd 00            10740 	.byte	0
000029be 01            10741 	.byte	1
000029bf 00            10742 	.byte	0
000029c0 01            10743 	.byte	1
                       10744 
                       10745 	.section	.debug_frame
                       10746 .LDW_16e3d68:
000004d4 00000000*     10747 	.word	.LDW_unq_40-.LDW_unq_3f
                       10748 .LDW_unq_3f:
000004d8 00000000*     10749 	.word	.LDW_4ca0d40
000004dc 00000000*     10750 	.word	_DIAG__ReqCallback_WriteTemperatureWarningThreshold..C.3A.5C_ECU2.5CECU_Rivian_A1.5CTarget.5Crepo_projects.5CpRealEcu.5CcL_LATEST.5Cmake.5Coutput.5Cobjects.5CSwcApplTpms_Diag.
000004e0 00000000*     10751 	.word	___ghs_eofn_DIAG__ReqCallback_WriteTemperatureWarningThreshold-_DIAG__ReqCallback_WriteTemperatureWarningThreshold..C.3A.5C_ECU2.5CECU_Rivian_A1.5CTarget.5Crepo_projects.5CpRealEcu.5CcL_LATEST.5Cmake.5Coutput.5Cobjects.5CSwcApplTpms_Diag.
000004e4 44            10752 	.byte	68
000004e5 9f            10753 	.byte	159
000004e6 00            10754 	.byte	0
000004e7 40            10755 	.byte	64
000004e8 9d            10756 	.byte	157
000004e9 04            10757 	.byte	4
000004ea 01            10758 	.byte	1
000004eb 00000000*     10759 	.word	.LDW78
000004ef 00            10760 	.byte	0
                       10761 .LDW_unq_40:
                       10762 	.section	.debug_line
00000da3 000502        10763 	.byte	0,5,2
00000da6 00000000*     10764 	.word	_DIAG__ReqCallback_WriteTemperatureWarningThreshold..C.3A.5C_ECU2.5CECU_Rivian_A1.5CTarget.5Crepo_projects.5CpRealEcu.5CcL_LATEST.5Cmake.5Coutput.5Cobjects.5CSwcApplTpms_Diag.
00000daa 03            10765 	.byte	3
00000dab af07          10766 	.byte	175,7
00000dad 02            10767 	.byte	2
00000dae 00            10768 	.byte	0
00000daf 01            10769 	.byte	1
00000db0 06            10770 	.byte	6
00000db1 24            10771 	.byte	36
00000db2 34            10772 	.byte	52
00000db3 000502        10773 	.byte	0,5,2

                                                                      Page 197
                                                              C:\Users\nhuliyap\AppData\Local\Temp\gh_00008941.s
00000db6 00000000*     10774 	.word	.LDWlin153
00000dba 0b            10775 	.byte	11
00000dbb 0b            10776 	.byte	11
00000dbc 000502        10777 	.byte	0,5,2
00000dbf 00000000*     10778 	.word	.LDWlin154
00000dc3 0b            10779 	.byte	11
00000dc4 0b            10780 	.byte	11
00000dc5 0b            10781 	.byte	11
00000dc6 1b            10782 	.byte	27
00000dc7 02            10783 	.byte	2
00000dc8 00            10784 	.byte	0
00000dc9 0c            10785 	.byte	12
00000dca 06            10786 	.byte	6
00000dcb 02            10787 	.byte	2
00000dcc 02            10788 	.byte	2
00000dcd 02            10789 	.byte	2
00000dce 04            10790 	.byte	4
00000dcf 000101        10791 	.byte	0,1,1
                       10792 	.section	.debug_info
                       10793 .LDW_4d09868:
000029c1 0f            10794 	.byte	15
000029c2 50535f4d7367  10795 	.strz	"PS_MsgContext"
000029c8 436f6e746578 
000029ce 7400 
000029d0 af07          10796 	.byte	175,7
000029d2 52            10797 	.byte	82
000029d3 01            10798 	.byte	1
000029d4 00000000*     10799 	.word	.LDW_16b6d78
000029d8 00            10800 	.byte	0
000029d9 016e          10801 	.byte	1,110
                       10802 
                       10803 .LDW_4cee728:
000029db 1d            10804 	.byte	29
000029dc 00000000*     10805 	.word	.LDW68
000029e0 00000000*     10806 	.word	.LDW78
                       10807 
                       10808 .LDW_4d097b8:
000029e4 04            10809 	.byte	4
000029e5 55385f526574  10810 	.strz	"U8_RetVal"
000029eb 56616c00 
000029ef b107          10811 	.byte	177,7
000029f1 09            10812 	.byte	9
000029f2 01            10813 	.byte	1
000029f3 00000000*     10814 	.word	.LDW_16f9eb0
000029f7 00            10815 	.byte	0
000029f8 00            10816 	.byte	0
000029f9 016d          10817 	.byte	1,109
                       10818 
                       10819 .LDW_4d09810:
000029fb 04            10820 	.byte	4
000029fc 53385f54656d  10821 	.strz	"S8_TemperatureWarningThres"
00002a02 706572617475 
00002a08 72655761726e 
00002a0e 696e67546872 
00002a14 657300 
00002a17 b207          10822 	.byte	178,7
00002a19 09            10823 	.byte	9
00002a1a 01            10824 	.byte	1
00002a1b 00000000*     10825 	.word	.LDW_4d09550
00002a1f 00            10826 	.byte	0
00002a20 00            10827 	.byte	0

                                                                      Page 198
                                                              C:\Users\nhuliyap\AppData\Local\Temp\gh_00008941.s
00002a21 0156          10828 	.byte	1,86
                       10829 
00002a23 00            10830 	.byte	0
                       10831 
00002a24 00            10832 	.byte	0
                       10833 
                       10834 .LDW_4d08058:
00002a25 14            10835 	.byte	20
00002a26 444941475f5f  10836 	.strz	"DIAG__ReqCallback_StartEOL_TPMS_TestProcedure"
00002a2c 52657143616c 
00002a32 6c6261636b5f 
00002a38 537461727445 
00002a3e 4f4c5f54504d 
00002a44 535f54657374 
00002a4a 50726f636564 
00002a50 75726500 
00002a54 bf07          10837 	.byte	191,7
00002a56 0e            10838 	.byte	14
00002a57 01            10839 	.byte	1
00002a58 00000000*     10840 	.word	.LDW_16f9eb0
00002a5c 00000000*     10841 	.word	_DIAG__ReqCallback_StartEOL_TPMS_TestProcedure..C.3A.5C_ECU2.5CECU_Rivian_A1.5CTarget.5Crepo_projects.5CpRealEcu.5CcL_LATEST.5Cmake.5Coutput.5Cobjects.5CSwcApplTpms_Diag.
00002a60 00000000*     10842 	.word	___ghs_eofn_DIAG__ReqCallback_StartEOL_TPMS_TestProcedure
00002a64 0153          10843 	.byte	1,83
00002a66 828080e00b    10844 	.byte	130,128,128,224,11
00002a6b 18            10845 	.byte	24
00002a6c 03            10846 	.byte	3
00002a6d 1c            10847 	.byte	28
00002a6e 00            10848 	.byte	0
00002a6f 00            10849 	.byte	0
00002a70 00            10850 	.byte	0
00002a71 00            10851 	.byte	0
00002a72 01            10852 	.byte	1
00002a73 00            10853 	.byte	0
00002a74 01            10854 	.byte	1
                       10855 
                       10856 	.section	.debug_frame
                       10857 .LDW_4f12f00:
000004f0 00000000*     10858 	.word	.LDW_unq_42-.LDW_unq_41
                       10859 .LDW_unq_41:
000004f4 00000000*     10860 	.word	.LDW_4ca0d40
000004f8 00000000*     10861 	.word	_DIAG__ReqCallback_StartEOL_TPMS_TestProcedure..C.3A.5C_ECU2.5CECU_Rivian_A1.5CTarget.5Crepo_projects.5CpRealEcu.5CcL_LATEST.5Cmake.5Coutput.5Cobjects.5CSwcApplTpms_Diag.
000004fc 00000000*     10862 	.word	___ghs_eofn_DIAG__ReqCallback_StartEOL_TPMS_TestProcedure-_DIAG__ReqCallback_StartEOL_TPMS_TestProcedure..C.3A.5C_ECU2.5CECU_Rivian_A1.5CTarget.5Crepo_projects.5CpRealEcu.5CcL_LATEST.5Cmake.5Coutput.5Cobjects.5CSwcApplTpms_Diag.
00000500 44            10863 	.byte	68
00000501 9f            10864 	.byte	159
00000502 06            10865 	.byte	6
00000503 40            10866 	.byte	64
00000504 9d            10867 	.byte	157
00000505 0a            10868 	.byte	10
00000506 40            10869 	.byte	64
00000507 9c            10870 	.byte	156
00000508 0e            10871 	.byte	14
00000509 40            10872 	.byte	64
0000050a 9b            10873 	.byte	155
0000050b 12            10874 	.byte	18
0000050c 40            10875 	.byte	64
0000050d 9a            10876 	.byte	154
0000050e 16            10877 	.byte	22
0000050f 01            10878 	.byte	1
00000510 00000000*     10879 	.word	.LDW39
                       10880 .LDW_unq_42:
                       10881 	.section	.debug_line

                                                                      Page 199
                                                              C:\Users\nhuliyap\AppData\Local\Temp\gh_00008941.s
00000dd2 000502        10882 	.byte	0,5,2
00000dd5 00000000*     10883 	.word	_DIAG__ReqCallback_StartEOL_TPMS_TestProcedure..C.3A.5C_ECU2.5CECU_Rivian_A1.5CTarget.5Crepo_projects.5CpRealEcu.5CcL_LATEST.5Cmake.5Coutput.5Cobjects.5CSwcApplTpms_Diag.
00000dd9 03            10884 	.byte	3
00000dda bf07          10885 	.byte	191,7
00000ddc 02            10886 	.byte	2
00000ddd 00            10887 	.byte	0
00000dde 01            10888 	.byte	1
00000ddf 06            10889 	.byte	6
00000de0 000502        10890 	.byte	0,5,2
00000de3 00000000*     10891 	.word	.LDWlin159
00000de7 03            10892 	.byte	3
00000de8 08            10893 	.byte	8
00000de9 02            10894 	.byte	2
00000dea 00            10895 	.byte	0
00000deb 01            10896 	.byte	1
00000dec 03            10897 	.byte	3
00000ded 7a            10898 	.byte	122
00000dee 02            10899 	.byte	2
00000def 04            10900 	.byte	4
00000df0 01            10901 	.byte	1
00000df1 13            10902 	.byte	19
00000df2 14            10903 	.byte	20
00000df3 2b            10904 	.byte	43
00000df4 000502        10905 	.byte	0,5,2
00000df7 00000000*     10906 	.word	.LDWlin160
00000dfb 0d            10907 	.byte	13
00000dfc 0c            10908 	.byte	12
00000dfd 23            10909 	.byte	35
00000dfe 000502        10910 	.byte	0,5,2
00000e01 00000000*     10911 	.word	.LDWlin161
00000e05 0b            10912 	.byte	11
00000e06 000502        10913 	.byte	0,5,2
00000e09 00000000*     10914 	.word	.LDWlin162
00000e0d 0b            10915 	.byte	11
00000e0e 0c            10916 	.byte	12
00000e0f 000502        10917 	.byte	0,5,2
00000e12 00000000*     10918 	.word	.LDWlin163
00000e16 0b            10919 	.byte	11
00000e17 0b            10920 	.byte	11
00000e18 0c            10921 	.byte	12
00000e19 000502        10922 	.byte	0,5,2
00000e1c 00000000*     10923 	.word	.LDWlin164
00000e20 0b            10924 	.byte	11
00000e21 000502        10925 	.byte	0,5,2
00000e24 00000000*     10926 	.word	.LDWlin165
00000e28 0b            10927 	.byte	11
00000e29 02            10928 	.byte	2
00000e2a 00            10929 	.byte	0
00000e2b 0b            10930 	.byte	11
00000e2c 0b            10931 	.byte	11
00000e2d 0c            10932 	.byte	12
00000e2e 1b            10933 	.byte	27
00000e2f 02            10934 	.byte	2
00000e30 00            10935 	.byte	0
00000e31 0c            10936 	.byte	12
00000e32 1b            10937 	.byte	27
00000e33 14            10938 	.byte	20
00000e34 06            10939 	.byte	6
00000e35 02            10940 	.byte	2
00000e36 02            10941 	.byte	2
00000e37 02            10942 	.byte	2

                                                                      Page 200
                                                              C:\Users\nhuliyap\AppData\Local\Temp\gh_00008941.s
00000e38 04            10943 	.byte	4
00000e39 000101        10944 	.byte	0,1,1
                       10945 	.section	.debug_info
                       10946 .LDW_4d09238:
00002a75 0f            10947 	.byte	15
00002a76 50535f4d7367  10948 	.strz	"PS_MsgContext"
00002a7c 436f6e746578 
00002a82 7400 
00002a84 bf07          10949 	.byte	191,7
00002a86 4d            10950 	.byte	77
00002a87 01            10951 	.byte	1
00002a88 00000000*     10952 	.word	.LDW_16b6d78
00002a8c 00            10953 	.byte	0
00002a8d 016c          10954 	.byte	1,108
                       10955 
                       10956 .LDW_4cee818:
00002a8f 1d            10957 	.byte	29
00002a90 00000000*     10958 	.word	.LDW29
00002a94 00000000*     10959 	.word	.LDW39
                       10960 
                       10961 .LDW_4d09a20:
00002a98 04            10962 	.byte	4
00002a99 55385f526574  10963 	.strz	"U8_RetVal"
00002a9f 56616c00 
00002aa3 c107          10964 	.byte	193,7
00002aa5 09            10965 	.byte	9
00002aa6 01            10966 	.byte	1
00002aa7 00000000*     10967 	.word	.LDW_16f9eb0
00002aab 00            10968 	.byte	0
00002aac 00            10969 	.byte	0
00002aad 016b          10970 	.byte	1,107
                       10971 
                       10972 .LDW_4d09448:
00002aaf 04            10973 	.byte	4
00002ab0 55385f546d70  10974 	.strz	"U8_TmpReq"
00002ab6 52657100 
00002aba c207          10975 	.byte	194,7
00002abc 09            10976 	.byte	9
00002abd 01            10977 	.byte	1
00002abe 00000000*     10978 	.word	.LDW_16f9eb0
00002ac2 00            10979 	.byte	0
00002ac3 00            10980 	.byte	0
00002ac4 0273          10981 	.byte	2,115
00002ac6 02            10982 	.byte	2
                       10983 
                       10984 .LDW_4d094a0:
00002ac7 04            10985 	.byte	4
00002ac8 55385f546d70  10986 	.strz	"U8_TmpRes"
00002ace 52657300 
00002ad2 c307          10987 	.byte	195,7
00002ad4 09            10988 	.byte	9
00002ad5 01            10989 	.byte	1
00002ad6 00000000*     10990 	.word	.LDW_16f9eb0
00002ada 00            10991 	.byte	0
00002adb 00            10992 	.byte	0
00002adc 0273          10993 	.byte	2,115
00002ade 03            10994 	.byte	3
                       10995 
00002adf 00            10996 	.byte	0
                       10997 
00002ae0 00            10998 	.byte	0

                                                                      Page 201
                                                              C:\Users\nhuliyap\AppData\Local\Temp\gh_00008941.s
                       10999 
                       11000 .LDW_4d08518:
00002ae1 14            11001 	.byte	20
00002ae2 444941475f5f  11002 	.strz	"DIAG__ReqCallback_StopEOL_TPMS_TestProcedure"
00002ae8 52657143616c 
00002aee 6c6261636b5f 
00002af4 53746f70454f 
00002afa 4c5f54504d53 
00002b00 5f5465737450 
00002b06 726f63656475 
00002b0c 726500 
00002b0f e307          11003 	.byte	227,7
00002b11 0e            11004 	.byte	14
00002b12 01            11005 	.byte	1
00002b13 00000000*     11006 	.word	.LDW_16f9eb0
00002b17 00000000*     11007 	.word	_DIAG__ReqCallback_StopEOL_TPMS_TestProcedure..C.3A.5C_ECU2.5CECU_Rivian_A1.5CTarget.5Crepo_projects.5CpRealEcu.5CcL_LATEST.5Cmake.5Coutput.5Cobjects.5CSwcApplTpms_Diag.
00002b1b 00000000*     11008 	.word	___ghs_eofn_DIAG__ReqCallback_StopEOL_TPMS_TestProcedure
00002b1f 0153          11009 	.byte	1,83
00002b21 828080e00b    11010 	.byte	130,128,128,224,11
00002b26 14            11011 	.byte	20
00002b27 03            11012 	.byte	3
00002b28 14            11013 	.byte	20
00002b29 00            11014 	.byte	0
00002b2a 00            11015 	.byte	0
00002b2b 00            11016 	.byte	0
00002b2c 00            11017 	.byte	0
00002b2d 01            11018 	.byte	1
00002b2e 00            11019 	.byte	0
00002b2f 01            11020 	.byte	1
                       11021 
                       11022 	.section	.debug_frame
                       11023 .LDW_4f12d80:
00000514 00000000*     11024 	.word	.LDW_unq_44-.LDW_unq_43
                       11025 .LDW_unq_43:
00000518 00000000*     11026 	.word	.LDW_4ca0d40
0000051c 00000000*     11027 	.word	_DIAG__ReqCallback_StopEOL_TPMS_TestProcedure..C.3A.5C_ECU2.5CECU_Rivian_A1.5CTarget.5Crepo_projects.5CpRealEcu.5CcL_LATEST.5Cmake.5Coutput.5Cobjects.5CSwcApplTpms_Diag.
00000520 00000000*     11028 	.word	___ghs_eofn_DIAG__ReqCallback_StopEOL_TPMS_TestProcedure-_DIAG__ReqCallback_StopEOL_TPMS_TestProcedure..C.3A.5C_ECU2.5CECU_Rivian_A1.5CTarget.5Crepo_projects.5CpRealEcu.5CcL_LATEST.5Cmake.5Coutput.5Cobjects.5CSwcApplTpms_Diag.
00000524 44            11029 	.byte	68
00000525 9f            11030 	.byte	159
00000526 00            11031 	.byte	0
00000527 40            11032 	.byte	64
00000528 9d            11033 	.byte	157
00000529 04            11034 	.byte	4
0000052a 40            11035 	.byte	64
0000052b 9c            11036 	.byte	156
0000052c 08            11037 	.byte	8
0000052d 40            11038 	.byte	64
0000052e 9b            11039 	.byte	155
0000052f 0c            11040 	.byte	12
00000530 40            11041 	.byte	64
00000531 9a            11042 	.byte	154
00000532 10            11043 	.byte	16
00000533 01            11044 	.byte	1
00000534 00000000*     11045 	.word	.LDW59
                       11046 .LDW_unq_44:
                       11047 	.section	.debug_line
00000e3c 000502        11048 	.byte	0,5,2
00000e3f 00000000*     11049 	.word	_DIAG__ReqCallback_StopEOL_TPMS_TestProcedure..C.3A.5C_ECU2.5CECU_Rivian_A1.5CTarget.5Crepo_projects.5CpRealEcu.5CcL_LATEST.5Cmake.5Coutput.5Cobjects.5CSwcApplTpms_Diag.
00000e43 03            11050 	.byte	3
00000e44 e307          11051 	.byte	227,7
00000e46 02            11052 	.byte	2

                                                                      Page 202
                                                              C:\Users\nhuliyap\AppData\Local\Temp\gh_00008941.s
00000e47 00            11053 	.byte	0
00000e48 01            11054 	.byte	1
00000e49 06            11055 	.byte	6
00000e4a 000502        11056 	.byte	0,5,2
00000e4d 00000000*     11057 	.word	.LDWlin166
00000e51 03            11058 	.byte	3
00000e52 06            11059 	.byte	6
00000e53 02            11060 	.byte	2
00000e54 00            11061 	.byte	0
00000e55 01            11062 	.byte	1
00000e56 03            11063 	.byte	3
00000e57 7d            11064 	.byte	125
00000e58 02            11065 	.byte	2
00000e59 04            11066 	.byte	4
00000e5a 01            11067 	.byte	1
00000e5b 33            11068 	.byte	51
00000e5c 000502        11069 	.byte	0,5,2
00000e5f 00000000*     11070 	.word	.LDWlin167
00000e63 0d            11071 	.byte	13
00000e64 0c            11072 	.byte	12
00000e65 000502        11073 	.byte	0,5,2
00000e68 00000000*     11074 	.word	.LDWlin168
00000e6c 0b            11075 	.byte	11
00000e6d 0c            11076 	.byte	12
00000e6e 000502        11077 	.byte	0,5,2
00000e71 00000000*     11078 	.word	.LDWlin169
00000e75 0b            11079 	.byte	11
00000e76 000502        11080 	.byte	0,5,2
00000e79 00000000*     11081 	.word	.LDWlin170
00000e7d 0c            11082 	.byte	12
00000e7e 0b            11083 	.byte	11
00000e7f 0c            11084 	.byte	12
00000e80 000502        11085 	.byte	0,5,2
00000e83 00000000*     11086 	.word	.LDWlin171
00000e87 0b            11087 	.byte	11
00000e88 02            11088 	.byte	2
00000e89 00            11089 	.byte	0
00000e8a 0b            11090 	.byte	11
00000e8b 0b            11091 	.byte	11
00000e8c 0c            11092 	.byte	12
00000e8d 1b            11093 	.byte	27
00000e8e 02            11094 	.byte	2
00000e8f 00            11095 	.byte	0
00000e90 0c            11096 	.byte	12
00000e91 1b            11097 	.byte	27
00000e92 14            11098 	.byte	20
00000e93 06            11099 	.byte	6
00000e94 02            11100 	.byte	2
00000e95 02            11101 	.byte	2
00000e96 02            11102 	.byte	2
00000e97 04            11103 	.byte	4
00000e98 000101        11104 	.byte	0,1,1
                       11105 	.section	.debug_info
                       11106 .LDW_4d096b0:
00002b30 0f            11107 	.byte	15
00002b31 50535f4d7367  11108 	.strz	"PS_MsgContext"
00002b37 436f6e746578 
00002b3d 7400 
00002b3f e307          11109 	.byte	227,7
00002b41 4c            11110 	.byte	76
00002b42 01            11111 	.byte	1

                                                                      Page 203
                                                              C:\Users\nhuliyap\AppData\Local\Temp\gh_00008941.s
00002b43 00000000*     11112 	.word	.LDW_16b6d78
00002b47 00            11113 	.byte	0
00002b48 016c          11114 	.byte	1,108
                       11115 
                       11116 .LDW_4cee6c8:
00002b4a 1d            11117 	.byte	29
00002b4b 00000000*     11118 	.word	.LDW49
00002b4f 00000000*     11119 	.word	.LDW59
                       11120 
                       11121 .LDW_4d09ad0:
00002b53 04            11122 	.byte	4
00002b54 55385f526574  11123 	.strz	"U8_RetVal"
00002b5a 56616c00 
00002b5e e507          11124 	.byte	229,7
00002b60 09            11125 	.byte	9
00002b61 01            11126 	.byte	1
00002b62 00000000*     11127 	.word	.LDW_16f9eb0
00002b66 00            11128 	.byte	0
00002b67 00            11129 	.byte	0
00002b68 016b          11130 	.byte	1,107
                       11131 
00002b6a 00            11132 	.byte	0
                       11133 
00002b6b 00            11134 	.byte	0
                       11135 
                       11136 .LDW_4d08a70:
00002b6c 14            11137 	.byte	20
00002b6d 444941475f5f  11138 	.strz	"DIAG__ReqCallback_RequestResultsEOL_TPMS_TestProcedure"
00002b73 52657143616c 
00002b79 6c6261636b5f 
00002b7f 526571756573 
00002b85 74526573756c 
00002b8b 7473454f4c5f 
00002b91 54504d535f54 
00002b97 65737450726f 
00002b9d 636564757265 
00002ba3 00 
00002ba4 8408          11139 	.byte	132,8
00002ba6 0e            11140 	.byte	14
00002ba7 01            11141 	.byte	1
00002ba8 00000000*     11142 	.word	.LDW_16f9eb0
00002bac 00000000*     11143 	.word	_DIAG__ReqCallback_RequestResultsEOL_TPMS_TestProcedure..C.3A.5C_ECU2.5CECU_Rivian_A1.5CTarget.5Crepo_projects.5CpRealEcu.5CcL_LATEST.5Cmake.5Coutput.5Cobjects.5CSwcApplTpms_Diag.
00002bb0 00000000*     11144 	.word	___ghs_eofn_DIAG__ReqCallback_RequestResultsEOL_TPMS_TestProcedure
00002bb4 0153          11145 	.byte	1,83
00002bb6 828080e00b    11146 	.byte	130,128,128,224,11
00002bbb 14            11147 	.byte	20
00002bbc 03            11148 	.byte	3
00002bbd 14            11149 	.byte	20
00002bbe 00            11150 	.byte	0
00002bbf 00            11151 	.byte	0
00002bc0 00            11152 	.byte	0
00002bc1 00            11153 	.byte	0
00002bc2 01            11154 	.byte	1
00002bc3 00            11155 	.byte	0
00002bc4 01            11156 	.byte	1
                       11157 
                       11158 	.section	.debug_frame
                       11159 .LDW_4f12bc0:
00000538 00000000*     11160 	.word	.LDW_unq_46-.LDW_unq_45
                       11161 .LDW_unq_45:
0000053c 00000000*     11162 	.word	.LDW_4ca0d40

                                                                      Page 204
                                                              C:\Users\nhuliyap\AppData\Local\Temp\gh_00008941.s
00000540 00000000*     11163 	.word	_DIAG__ReqCallback_RequestResultsEOL_TPMS_TestProcedure..C.3A.5C_ECU2.5CECU_Rivian_A1.5CTarget.5Crepo_projects.5CpRealEcu.5CcL_LATEST.5Cmake.5Coutput.5Cobjects.5CSwcApplTpms_Diag.
00000544 00000000*     11164 	.word	___ghs_eofn_DIAG__ReqCallback_RequestResultsEOL_TPMS_TestProcedure-_DIAG__ReqCallback_RequestResultsEOL_TPMS_TestProcedure..C.3A.5C_ECU2.5CECU_Rivian_A1.5CTarget.5Crepo_projects.5CpRealEcu.5CcL_LATEST.5Cmake.5Coutput.5Cobjects.5CSwcApplTpms_Diag.
00000548 44            11165 	.byte	68
00000549 9f            11166 	.byte	159
0000054a 00            11167 	.byte	0
0000054b 40            11168 	.byte	64
0000054c 9d            11169 	.byte	157
0000054d 04            11170 	.byte	4
0000054e 40            11171 	.byte	64
0000054f 9c            11172 	.byte	156
00000550 08            11173 	.byte	8
00000551 40            11174 	.byte	64
00000552 9b            11175 	.byte	155
00000553 0c            11176 	.byte	12
00000554 40            11177 	.byte	64
00000555 9a            11178 	.byte	154
00000556 10            11179 	.byte	16
00000557 01            11180 	.byte	1
00000558 00000000*     11181 	.word	.LDW79
                       11182 .LDW_unq_46:
                       11183 	.section	.debug_line
00000e9b 000502        11184 	.byte	0,5,2
00000e9e 00000000*     11185 	.word	_DIAG__ReqCallback_RequestResultsEOL_TPMS_TestProcedure..C.3A.5C_ECU2.5CECU_Rivian_A1.5CTarget.5Crepo_projects.5CpRealEcu.5CcL_LATEST.5Cmake.5Coutput.5Cobjects.5CSwcApplTpms_Diag.
00000ea2 03            11186 	.byte	3
00000ea3 8408          11187 	.byte	132,8
00000ea5 02            11188 	.byte	2
00000ea6 00            11189 	.byte	0
00000ea7 01            11190 	.byte	1
00000ea8 06            11191 	.byte	6
00000ea9 000502        11192 	.byte	0,5,2
00000eac 00000000*     11193 	.word	.LDWlin172
00000eb0 03            11194 	.byte	3
00000eb1 05            11195 	.byte	5
00000eb2 02            11196 	.byte	2
00000eb3 00            11197 	.byte	0
00000eb4 01            11198 	.byte	1
00000eb5 03            11199 	.byte	3
00000eb6 7d            11200 	.byte	125
00000eb7 02            11201 	.byte	2
00000eb8 04            11202 	.byte	4
00000eb9 01            11203 	.byte	1
00000eba 1b            11204 	.byte	27
00000ebb 000502        11205 	.byte	0,5,2
00000ebe 00000000*     11206 	.word	.LDWlin173
00000ec2 0d            11207 	.byte	13
00000ec3 0c            11208 	.byte	12
00000ec4 000502        11209 	.byte	0,5,2
00000ec7 00000000*     11210 	.word	.LDWlin174
00000ecb 0c            11211 	.byte	12
00000ecc 000502        11212 	.byte	0,5,2
00000ecf 00000000*     11213 	.word	.LDWlin175
00000ed3 0b            11214 	.byte	11
00000ed4 000502        11215 	.byte	0,5,2
00000ed7 00000000*     11216 	.word	.LDWlin176
00000edb 0b            11217 	.byte	11
00000edc 000502        11218 	.byte	0,5,2
00000edf 00000000*     11219 	.word	.LDWlin177
00000ee3 0b            11220 	.byte	11
00000ee4 000502        11221 	.byte	0,5,2
00000ee7 00000000*     11222 	.word	.LDWlin178
00000eeb 03            11223 	.byte	3

                                                                      Page 205
                                                              C:\Users\nhuliyap\AppData\Local\Temp\gh_00008941.s
00000eec 04            11224 	.byte	4
00000eed 02            11225 	.byte	2
00000eee 00            11226 	.byte	0
00000eef 01            11227 	.byte	1
00000ef0 03            11228 	.byte	3
00000ef1 7e            11229 	.byte	126
00000ef2 02            11230 	.byte	2
00000ef3 04            11231 	.byte	4
00000ef4 01            11232 	.byte	1
00000ef5 25            11233 	.byte	37
00000ef6 000502        11234 	.byte	0,5,2
00000ef9 00000000*     11235 	.word	.LDWlin179
00000efd 0b            11236 	.byte	11
00000efe 0b            11237 	.byte	11
00000eff 0c            11238 	.byte	12
00000f00 1b            11239 	.byte	27
00000f01 02            11240 	.byte	2
00000f02 00            11241 	.byte	0
00000f03 0c            11242 	.byte	12
00000f04 06            11243 	.byte	6
00000f05 02            11244 	.byte	2
00000f06 02            11245 	.byte	2
00000f07 02            11246 	.byte	2
00000f08 04            11247 	.byte	4
00000f09 000101        11248 	.byte	0,1,1
                       11249 	.section	.debug_info
                       11250 .LDW_4d09de8:
00002bc5 0f            11251 	.byte	15
00002bc6 50535f4d7367  11252 	.strz	"PS_MsgContext"
00002bcc 436f6e746578 
00002bd2 7400 
00002bd4 8408          11253 	.byte	132,8
00002bd6 56            11254 	.byte	86
00002bd7 01            11255 	.byte	1
00002bd8 00000000*     11256 	.word	.LDW_16b6d78
00002bdc 00            11257 	.byte	0
00002bdd 016b          11258 	.byte	1,107
                       11259 
                       11260 .LDW_4cee638:
00002bdf 1d            11261 	.byte	29
00002be0 00000000*     11262 	.word	.LDW69
00002be4 00000000*     11263 	.word	.LDW79
                       11264 
                       11265 .LDW_4d09c88:
00002be8 04            11266 	.byte	4
00002be9 55385f526574  11267 	.strz	"U8_RetVal"
00002bef 56616c00 
00002bf3 8608          11268 	.byte	134,8
00002bf5 09            11269 	.byte	9
00002bf6 01            11270 	.byte	1
00002bf7 00000000*     11271 	.word	.LDW_16f9eb0
00002bfb 00            11272 	.byte	0
00002bfc 00            11273 	.byte	0
00002bfd 016a          11274 	.byte	1,106
                       11275 
00002bff 00            11276 	.byte	0
                       11277 
00002c00 00            11278 	.byte	0
                       11279 
                       11280 .LDW_4d080f0:
00002c01 13            11281 	.byte	19

                                                                      Page 206
                                                              C:\Users\nhuliyap\AppData\Local\Temp\gh_00008941.s
00002c02 444941475f5f  11282 	.strz	"DIAG__GetWSDataForPosition"
00002c08 476574575344 
00002c0e 617461466f72 
00002c14 506f73697469 
00002c1a 6f6e00 
00002c1d a108          11283 	.byte	161,8
00002c1f 0d            11284 	.byte	13
00002c20 01            11285 	.byte	1
00002c21 00000000*     11286 	.word	_DIAG__GetWSDataForPosition..C.3A.5C_ECU2.5CECU_Rivian_A1.5CTarget.5Crepo_projects.5CpRealEcu.5CcL_LATEST.5Cmake.5Coutput.5Cobjects.5CSwcApplTpms_Diag.
00002c25 00000000*     11287 	.word	___ghs_eofn_DIAG__GetWSDataForPosition
00002c29 0153          11288 	.byte	1,83
00002c2b 828080c00b    11289 	.byte	130,128,128,192,11
00002c30 10            11290 	.byte	16
00002c31 03            11291 	.byte	3
00002c32 10            11292 	.byte	16
00002c33 00            11293 	.byte	0
00002c34 00            11294 	.byte	0
00002c35 00            11295 	.byte	0
00002c36 00            11296 	.byte	0
00002c37 01            11297 	.byte	1
00002c38 00            11298 	.byte	0
00002c39 01            11299 	.byte	1
                       11300 
                       11301 	.section	.debug_abbrev
0000017c 13            11302 	.byte	19
0000017d 2e            11303 	.byte	46
0000017e 01            11304 	.byte	1
0000017f 0308          11305 	.byte	3,8
00000181 3b0f          11306 	.byte	59,15
00000183 390f          11307 	.byte	57,15
00000185 3a0f          11308 	.byte	58,15
00000187 1101          11309 	.byte	17,1
00000189 1201          11310 	.byte	18,1
0000018b 400a          11311 	.byte	64,10
0000018d 8341          11312 	.byte	131,65
0000018f 0f            11313 	.byte	15
00000190 8741          11314 	.byte	135,65
00000192 0d            11315 	.byte	13
00000193 8541          11316 	.byte	133,65
00000195 0f            11317 	.byte	15
00000196 8641          11318 	.byte	134,65
00000198 0d            11319 	.byte	13
00000199 9241          11320 	.byte	146,65
0000019b 0f            11321 	.byte	15
0000019c 3c0c          11322 	.byte	60,12
0000019e 200b          11323 	.byte	32,11
000001a0 3f0c          11324 	.byte	63,12
000001a2 320b          11325 	.byte	50,11
000001a4 4c0b          11326 	.byte	76,11
000001a6 270c          11327 	.byte	39,12
000001a8 0000          11328 	.byte	0,0
                       11329 
                       11330 	.section	.debug_frame
                       11331 .LDW_4d3e328:
0000055c 00000000*     11332 	.word	.LDW_unq_48-.LDW_unq_47
                       11333 .LDW_unq_47:
00000560 00000000*     11334 	.word	.LDW_4ca0d40
00000564 00000000*     11335 	.word	_DIAG__GetWSDataForPosition..C.3A.5C_ECU2.5CECU_Rivian_A1.5CTarget.5Crepo_projects.5CpRealEcu.5CcL_LATEST.5Cmake.5Coutput.5Cobjects.5CSwcApplTpms_Diag.
00000568 00000000*     11336 	.word	___ghs_eofn_DIAG__GetWSDataForPosition-_DIAG__GetWSDataForPosition..C.3A.5C_ECU2.5CECU_Rivian_A1.5CTarget.5Crepo_projects.5CpRealEcu.5CcL_LATEST.5Cmake.5Coutput.5Cobjects.5CSwcApplTpms_Diag.
0000056c 44            11337 	.byte	68
0000056d 9f            11338 	.byte	159

                                                                      Page 207
                                                              C:\Users\nhuliyap\AppData\Local\Temp\gh_00008941.s
0000056e 00            11339 	.byte	0
0000056f 40            11340 	.byte	64
00000570 9d            11341 	.byte	157
00000571 04            11342 	.byte	4
00000572 40            11343 	.byte	64
00000573 9c            11344 	.byte	156
00000574 08            11345 	.byte	8
00000575 40            11346 	.byte	64
00000576 9b            11347 	.byte	155
00000577 0c            11348 	.byte	12
00000578 01            11349 	.byte	1
00000579 00000000*     11350 	.word	.LDW11
0000057d 00            11351 	.byte	0
0000057e 00            11352 	.byte	0
0000057f 00            11353 	.byte	0
                       11354 .LDW_unq_48:
                       11355 	.section	.debug_line
00000f0c 000502        11356 	.byte	0,5,2
00000f0f 00000000*     11357 	.word	_DIAG__GetWSDataForPosition..C.3A.5C_ECU2.5CECU_Rivian_A1.5CTarget.5Crepo_projects.5CpRealEcu.5CcL_LATEST.5Cmake.5Coutput.5Cobjects.5CSwcApplTpms_Diag.
00000f13 03            11358 	.byte	3
00000f14 a108          11359 	.byte	161,8
00000f16 02            11360 	.byte	2
00000f17 00            11361 	.byte	0
00000f18 01            11362 	.byte	1
00000f19 06            11363 	.byte	6
00000f1a 03            11364 	.byte	3
00000f1b 09            11365 	.byte	9
00000f1c 02            11366 	.byte	2
00000f1d 08            11367 	.byte	8
00000f1e 01            11368 	.byte	1
00000f1f 000502        11369 	.byte	0,5,2
00000f22 00000000*     11370 	.word	.LDWlin1
00000f26 03            11371 	.byte	3
00000f27 06            11372 	.byte	6
00000f28 02            11373 	.byte	2
00000f29 00            11374 	.byte	0
00000f2a 01            11375 	.byte	1
00000f2b 03            11376 	.byte	3
00000f2c 7c            11377 	.byte	124
00000f2d 02            11378 	.byte	2
00000f2e 02            11379 	.byte	2
00000f2f 01            11380 	.byte	1
00000f30 1c            11381 	.byte	28
00000f31 03            11382 	.byte	3
00000f32 04            11383 	.byte	4
00000f33 02            11384 	.byte	2
00000f34 0e            11385 	.byte	14
00000f35 01            11386 	.byte	1
00000f36 15            11387 	.byte	21
00000f37 000502        11388 	.byte	0,5,2
00000f3a 00000000*     11389 	.word	.LDWlin2
00000f3e 0b            11390 	.byte	11
00000f3f 0b            11391 	.byte	11
00000f40 000502        11392 	.byte	0,5,2
00000f43 00000000*     11393 	.word	.LDWlin3
00000f47 03            11394 	.byte	3
00000f48 04            11395 	.byte	4
00000f49 02            11396 	.byte	2
00000f4a 00            11397 	.byte	0
00000f4b 01            11398 	.byte	1
00000f4c 02            11399 	.byte	2

                                                                      Page 208
                                                              C:\Users\nhuliyap\AppData\Local\Temp\gh_00008941.s
00000f4d 00            11400 	.byte	0
00000f4e 0c            11401 	.byte	12
00000f4f 1d            11402 	.byte	29
00000f50 25            11403 	.byte	37
00000f51 000502        11404 	.byte	0,5,2
00000f54 00000000*     11405 	.word	.LDWlin4
00000f58 0b            11406 	.byte	11
00000f59 000502        11407 	.byte	0,5,2
00000f5c 00000000*     11408 	.word	.LDWlin5
00000f60 0b            11409 	.byte	11
00000f61 0b            11410 	.byte	11
00000f62 03            11411 	.byte	3
00000f63 04            11412 	.byte	4
00000f64 02            11413 	.byte	2
00000f65 06            11414 	.byte	6
00000f66 01            11415 	.byte	1
00000f67 02            11416 	.byte	2
00000f68 00            11417 	.byte	0
00000f69 0c            11418 	.byte	12
00000f6a 1c            11419 	.byte	28
00000f6b 000502        11420 	.byte	0,5,2
00000f6e 00000000*     11421 	.word	.LDWlin6
00000f72 0b            11422 	.byte	11
00000f73 2b            11423 	.byte	43
00000f74 0c            11424 	.byte	12
00000f75 0b            11425 	.byte	11
00000f76 0c            11426 	.byte	12
00000f77 02            11427 	.byte	2
00000f78 00            11428 	.byte	0
00000f79 0c            11429 	.byte	12
00000f7a 1c            11430 	.byte	28
00000f7b 000502        11431 	.byte	0,5,2
00000f7e 00000000*     11432 	.word	.LDWlin7
00000f82 0b            11433 	.byte	11
00000f83 03            11434 	.byte	3
00000f84 04            11435 	.byte	4
00000f85 02            11436 	.byte	2
00000f86 0a            11437 	.byte	10
00000f87 01            11438 	.byte	1
00000f88 000502        11439 	.byte	0,5,2
00000f8b 00000000*     11440 	.word	.LDWlin8
00000f8f 0b            11441 	.byte	11
00000f90 02            11442 	.byte	2
00000f91 04            11443 	.byte	4
00000f92 000101        11444 	.byte	0,1,1
                       11445 	.section	.debug_info
                       11446 .LDW_4d09c30:
00002c3a 0f            11447 	.byte	15
00002c3b 4355385f506f  11448 	.strz	"CU8_PosIndex"
00002c41 73496e646578 
00002c47 00 
00002c48 a108          11449 	.byte	161,8
00002c4a 34            11450 	.byte	52
00002c4b 01            11451 	.byte	1
00002c4c 00000000*     11452 	.word	.LDW_4d09f48
00002c50 00            11453 	.byte	0
00002c51 016c          11454 	.byte	1,108
                       11455 
                       11456 .LDW_4d09b28:
00002c53 0f            11457 	.byte	15
00002c54 5055385f496e  11458 	.strz	"PU8_InterfaceData"

                                                                      Page 209
                                                              C:\Users\nhuliyap\AppData\Local\Temp\gh_00008941.s
00002c5a 746572666163 
00002c60 654461746100 
00002c66 a108          11459 	.byte	161,8
00002c68 49            11460 	.byte	73
00002c69 01            11461 	.byte	1
00002c6a 00000000*     11462 	.word	.LDW_4cedab0
00002c6e 00            11463 	.byte	0
00002c6f 016d          11464 	.byte	1,109
                       11465 
                       11466 .LDW_4cee5a8:
00002c71 1d            11467 	.byte	29
00002c72 00000000*     11468 	.word	.LDW01
00002c76 00000000*     11469 	.word	.LDW11
                       11470 
                       11471 .LDW_4d09b80:
00002c7a 05            11472 	.byte	5
00002c7b 55385f496478  11473 	.strz	"U8_Idx"
00002c81 00 
00002c82 a308          11474 	.byte	163,8
00002c84 09            11475 	.byte	9
00002c85 01            11476 	.byte	1
00002c86 00000000*     11477 	.word	.LDW_16f9eb0
00002c8a 00            11478 	.byte	0
00002c8b 00            11479 	.byte	0
                       11480 
                       11481 .LDW_4d09ce0:
00002c8c 04            11482 	.byte	4
00002c8d 55385f54656d  11483 	.strz	"U8_TempRadPos"
00002c93 70526164506f 
00002c99 7300 
00002c9b a408          11484 	.byte	164,8
00002c9d 09            11485 	.byte	9
00002c9e 01            11486 	.byte	1
00002c9f 00000000*     11487 	.word	.LDW_16f9eb0
00002ca3 00            11488 	.byte	0
00002ca4 00            11489 	.byte	0
00002ca5 016b          11490 	.byte	1,107
                       11491 
                       11492 .LDW_4d09ef0:
00002ca7 05            11493 	.byte	5
00002ca8 5533325f546d  11494 	.strz	"U32_TmpID"
00002cae 70494400 
00002cb2 a508          11495 	.byte	165,8
00002cb4 0a            11496 	.byte	10
00002cb5 01            11497 	.byte	1
00002cb6 00000000*     11498 	.word	.LDW_4cff328
00002cba 00            11499 	.byte	0
00002cbb 00            11500 	.byte	0
                       11501 
                       11502 .LDW_4d09bd8:
00002cbc 04            11503 	.byte	4
00002cbd 55385f54656d  11504 	.strz	"U8_Temp"
00002cc3 7000 
00002cc5 a608          11505 	.byte	166,8
00002cc7 09            11506 	.byte	9
00002cc8 01            11507 	.byte	1
00002cc9 00000000*     11508 	.word	.LDW_16f9eb0
00002ccd 00            11509 	.byte	0
00002cce 00            11510 	.byte	0
00002ccf 0162          11511 	.byte	1,98
                       11512 

                                                                      Page 210
                                                              C:\Users\nhuliyap\AppData\Local\Temp\gh_00008941.s
                       11513 .LDW_4d09d90:
00002cd1 04            11514 	.byte	4
00002cd2 55385f4c6f63  11515 	.strz	"U8_LocalReifendruckPD"
00002cd8 616c52656966 
00002cde 656e64727563 
00002ce4 6b504400 
00002ce8 a708          11516 	.byte	167,8
00002cea 09            11517 	.byte	9
00002ceb 01            11518 	.byte	1
00002cec 00000000*     11519 	.word	.LDW_16f9eb0
00002cf0 00            11520 	.byte	0
00002cf1 00            11521 	.byte	0
00002cf2 015a          11522 	.byte	1,90
                       11523 
00002cf4 00            11524 	.byte	0
                       11525 
00002cf5 00            11526 	.byte	0
                       11527 
                       11528 .LDW_4d082b8:
00002cf6 13            11529 	.byte	19
00002cf7 444941475f5f  11530 	.strz	"DIAG__GetWsIdForPosition"
00002cfd 476574577349 
00002d03 64466f72506f 
00002d09 736974696f6e 
00002d0f 00 
00002d10 e208          11531 	.byte	226,8
00002d12 0d            11532 	.byte	13
00002d13 01            11533 	.byte	1
00002d14 00000000*     11534 	.word	_DIAG__GetWsIdForPosition..C.3A.5C_ECU2.5CECU_Rivian_A1.5CTarget.5Crepo_projects.5CpRealEcu.5CcL_LATEST.5Cmake.5Coutput.5Cobjects.5CSwcApplTpms_Diag.
00002d18 00000000*     11535 	.word	___ghs_eofn_DIAG__GetWsIdForPosition
00002d1c 0153          11536 	.byte	1,83
00002d1e 828080800a    11537 	.byte	130,128,128,128,10
00002d23 08            11538 	.byte	8
00002d24 03            11539 	.byte	3
00002d25 08            11540 	.byte	8
00002d26 00            11541 	.byte	0
00002d27 00            11542 	.byte	0
00002d28 00            11543 	.byte	0
00002d29 00            11544 	.byte	0
00002d2a 01            11545 	.byte	1
00002d2b 00            11546 	.byte	0
00002d2c 01            11547 	.byte	1
                       11548 
                       11549 	.section	.debug_frame
                       11550 .LDW_4d3ef68:
00000580 00000000*     11551 	.word	.LDW_unq_4a-.LDW_unq_49
                       11552 .LDW_unq_49:
00000584 00000000*     11553 	.word	.LDW_4ca0d40
00000588 00000000*     11554 	.word	_DIAG__GetWsIdForPosition..C.3A.5C_ECU2.5CECU_Rivian_A1.5CTarget.5Crepo_projects.5CpRealEcu.5CcL_LATEST.5Cmake.5Coutput.5Cobjects.5CSwcApplTpms_Diag.
0000058c 00000000*     11555 	.word	___ghs_eofn_DIAG__GetWsIdForPosition-_DIAG__GetWsIdForPosition..C.3A.5C_ECU2.5CECU_Rivian_A1.5CTarget.5Crepo_projects.5CpRealEcu.5CcL_LATEST.5Cmake.5Coutput.5Cobjects.5CSwcApplTpms_Diag.
00000590 44            11556 	.byte	68
00000591 9f            11557 	.byte	159
00000592 00            11558 	.byte	0
00000593 40            11559 	.byte	64
00000594 9d            11560 	.byte	157
00000595 04            11561 	.byte	4
00000596 01            11562 	.byte	1
00000597 00000000*     11563 	.word	.LDW12
0000059b 44            11564 	.byte	68
0000059c df            11565 	.byte	223
0000059d 40            11566 	.byte	64

                                                                      Page 211
                                                              C:\Users\nhuliyap\AppData\Local\Temp\gh_00008941.s
0000059e dd            11567 	.byte	221
0000059f 00            11568 	.byte	0
                       11569 .LDW_unq_4a:
                       11570 	.section	.debug_line
00000f95 000502        11571 	.byte	0,5,2
00000f98 00000000*     11572 	.word	_DIAG__GetWsIdForPosition..C.3A.5C_ECU2.5CECU_Rivian_A1.5CTarget.5Crepo_projects.5CpRealEcu.5CcL_LATEST.5Cmake.5Coutput.5Cobjects.5CSwcApplTpms_Diag.
00000f9c 03            11573 	.byte	3
00000f9d e208          11574 	.byte	226,8
00000f9f 02            11575 	.byte	2
00000fa0 00            11576 	.byte	0
00000fa1 01            11577 	.byte	1
00000fa2 06            11578 	.byte	6
00000fa3 03            11579 	.byte	3
00000fa4 06            11580 	.byte	6
00000fa5 02            11581 	.byte	2
00000fa6 08            11582 	.byte	8
00000fa7 01            11583 	.byte	1
00000fa8 000502        11584 	.byte	0,5,2
00000fab 00000000*     11585 	.word	.LDWlin21
00000faf 0c            11586 	.byte	12
00000fb0 14            11587 	.byte	20
00000fb1 14            11588 	.byte	20
00000fb2 4c            11589 	.byte	76
00000fb3 13            11590 	.byte	19
00000fb4 02            11591 	.byte	2
00000fb5 04            11592 	.byte	4
00000fb6 000101        11593 	.byte	0,1,1
                       11594 	.section	.debug_info
                       11595 .LDW_4d09d38:
00002d2d 0f            11596 	.byte	15
00002d2e 4355385f506f  11597 	.strz	"CU8_PosIndex"
00002d34 73496e646578 
00002d3a 00 
00002d3b e208          11598 	.byte	226,8
00002d3d 32            11599 	.byte	50
00002d3e 01            11600 	.byte	1
00002d3f 00000000*     11601 	.word	.LDW_4d09f48
00002d43 00            11602 	.byte	0
00002d44 0156          11603 	.byte	1,86
                       11604 
                       11605 .LDW_4d09e40:
00002d46 0f            11606 	.byte	15
00002d47 5055385f496e  11607 	.strz	"PU8_InterfaceData"
00002d4d 746572666163 
00002d53 654461746100 
00002d59 e208          11608 	.byte	226,8
00002d5b 47            11609 	.byte	71
00002d5c 01            11610 	.byte	1
00002d5d 00000000*     11611 	.word	.LDW_4cedab0
00002d61 00            11612 	.byte	0
00002d62 016d          11613 	.byte	1,109
                       11614 
                       11615 .LDW_4cee698:
00002d64 1d            11616 	.byte	29
00002d65 00000000*     11617 	.word	.LDW02
00002d69 00000000*     11618 	.word	.LDW12
                       11619 
                       11620 .LDW_4d09e98:
00002d6d 05            11621 	.byte	5
00002d6e 55385f496478  11622 	.strz	"U8_Idx"
00002d74 00 

                                                                      Page 212
                                                              C:\Users\nhuliyap\AppData\Local\Temp\gh_00008941.s
00002d75 e408          11623 	.byte	228,8
00002d77 09            11624 	.byte	9
00002d78 01            11625 	.byte	1
00002d79 00000000*     11626 	.word	.LDW_16f9eb0
00002d7d 00            11627 	.byte	0
00002d7e 00            11628 	.byte	0
                       11629 
                       11630 .LDW_4d22460:
00002d7f 05            11631 	.byte	5
00002d80 5533325f546d  11632 	.strz	"U32_TmpID"
00002d86 70494400 
00002d8a e508          11633 	.byte	229,8
00002d8c 0a            11634 	.byte	10
00002d8d 01            11635 	.byte	1
00002d8e 00000000*     11636 	.word	.LDW_4cff328
00002d92 00            11637 	.byte	0
00002d93 00            11638 	.byte	0
                       11639 
00002d94 00            11640 	.byte	0
                       11641 
00002d95 00            11642 	.byte	0
                       11643 
                       11644 .LDW_4d08b08:
00002d96 14            11645 	.byte	20
00002d97 444941475f5f  11646 	.strz	"DIAG__GetLastReceivedWheelId"
00002d9d 4765744c6173 
00002da3 745265636569 
00002da9 766564576865 
00002daf 656c496400 
00002db4 f408          11647 	.byte	244,8
00002db6 0e            11648 	.byte	14
00002db7 01            11649 	.byte	1
00002db8 00000000*     11650 	.word	.LDW_16f9eb0
00002dbc 00000000*     11651 	.word	_DIAG__GetLastReceivedWheelId..C.3A.5C_ECU2.5CECU_Rivian_A1.5CTarget.5Crepo_projects.5CpRealEcu.5CcL_LATEST.5Cmake.5Coutput.5Cobjects.5CSwcApplTpms_Diag.
00002dc0 00000000*     11652 	.word	___ghs_eofn_DIAG__GetLastReceivedWheelId
00002dc4 0153          11653 	.byte	1,83
00002dc6 828080800b    11654 	.byte	130,128,128,128,11
00002dcb 0c            11655 	.byte	12
00002dcc 03            11656 	.byte	3
00002dcd 10            11657 	.byte	16
00002dce 00            11658 	.byte	0
00002dcf 00            11659 	.byte	0
00002dd0 00            11660 	.byte	0
00002dd1 00            11661 	.byte	0
00002dd2 01            11662 	.byte	1
00002dd3 00            11663 	.byte	0
00002dd4 01            11664 	.byte	1
                       11665 
                       11666 	.section	.debug_frame
                       11667 .LDW_4d3ede8:
000005a0 00000000*     11668 	.word	.LDW_unq_4c-.LDW_unq_4b
                       11669 .LDW_unq_4b:
000005a4 00000000*     11670 	.word	.LDW_4ca0d40
000005a8 00000000*     11671 	.word	_DIAG__GetLastReceivedWheelId..C.3A.5C_ECU2.5CECU_Rivian_A1.5CTarget.5Crepo_projects.5CpRealEcu.5CcL_LATEST.5Cmake.5Coutput.5Cobjects.5CSwcApplTpms_Diag.
000005ac 00000000*     11672 	.word	___ghs_eofn_DIAG__GetLastReceivedWheelId-_DIAG__GetLastReceivedWheelId..C.3A.5C_ECU2.5CECU_Rivian_A1.5CTarget.5Crepo_projects.5CpRealEcu.5CcL_LATEST.5Cmake.5Coutput.5Cobjects.5CSwcApplTpms_Diag.
000005b0 44            11673 	.byte	68
000005b1 9f            11674 	.byte	159
000005b2 03            11675 	.byte	3
000005b3 40            11676 	.byte	64
000005b4 9d            11677 	.byte	157
000005b5 07            11678 	.byte	7

                                                                      Page 213
                                                              C:\Users\nhuliyap\AppData\Local\Temp\gh_00008941.s
000005b6 40            11679 	.byte	64
000005b7 9c            11680 	.byte	156
000005b8 0b            11681 	.byte	11
000005b9 01            11682 	.byte	1
000005ba 00000000*     11683 	.word	.LDW13
000005be 00            11684 	.byte	0
000005bf 00            11685 	.byte	0
                       11686 .LDW_unq_4c:
                       11687 	.section	.debug_line
00000fb9 000502        11688 	.byte	0,5,2
00000fbc 00000000*     11689 	.word	_DIAG__GetLastReceivedWheelId..C.3A.5C_ECU2.5CECU_Rivian_A1.5CTarget.5Crepo_projects.5CpRealEcu.5CcL_LATEST.5Cmake.5Coutput.5Cobjects.5CSwcApplTpms_Diag.
00000fc0 03            11690 	.byte	3
00000fc1 f408          11691 	.byte	244,8
00000fc3 02            11692 	.byte	2
00000fc4 00            11693 	.byte	0
00000fc5 01            11694 	.byte	1
00000fc6 06            11695 	.byte	6
00000fc7 03            11696 	.byte	3
00000fc8 07            11697 	.byte	7
00000fc9 02            11698 	.byte	2
00000fca 06            11699 	.byte	6
00000fcb 01            11700 	.byte	1
00000fcc 000502        11701 	.byte	0,5,2
00000fcf 00000000*     11702 	.word	.LDWlin34
00000fd3 0b            11703 	.byte	11
00000fd4 02            11704 	.byte	2
00000fd5 02            11705 	.byte	2
00000fd6 0c            11706 	.byte	12
00000fd7 4b            11707 	.byte	75
00000fd8 03            11708 	.byte	3
00000fd9 7d            11709 	.byte	125
00000fda 02            11710 	.byte	2
00000fdb 02            11711 	.byte	2
00000fdc 01            11712 	.byte	1
00000fdd 000502        11713 	.byte	0,5,2
00000fe0 00000000*     11714 	.word	.LDWlin35
00000fe4 03            11715 	.byte	3
00000fe5 04            11716 	.byte	4
00000fe6 02            11717 	.byte	2
00000fe7 00            11718 	.byte	0
00000fe8 01            11719 	.byte	1
00000fe9 0c            11720 	.byte	12
00000fea 000502        11721 	.byte	0,5,2
00000fed 00000000*     11722 	.word	.LDWlin36
00000ff1 0b            11723 	.byte	11
00000ff2 0b            11724 	.byte	11
00000ff3 000502        11725 	.byte	0,5,2
00000ff6 00000000*     11726 	.word	.LDWlin37
00000ffa 03            11727 	.byte	3
00000ffb 04            11728 	.byte	4
00000ffc 02            11729 	.byte	2
00000ffd 00            11730 	.byte	0
00000ffe 01            11731 	.byte	1
00000fff 02            11732 	.byte	2
00001000 00            11733 	.byte	0
00001001 0b            11734 	.byte	11
00001002 1d            11735 	.byte	29
00001003 2d            11736 	.byte	45
00001004 000502        11737 	.byte	0,5,2
00001007 00000000*     11738 	.word	.LDWlin38
0000100b 0b            11739 	.byte	11

                                                                      Page 214
                                                              C:\Users\nhuliyap\AppData\Local\Temp\gh_00008941.s
0000100c 000502        11740 	.byte	0,5,2
0000100f 00000000*     11741 	.word	.LDWlin39
00001013 0b            11742 	.byte	11
00001014 0b            11743 	.byte	11
00001015 03            11744 	.byte	3
00001016 04            11745 	.byte	4
00001017 02            11746 	.byte	2
00001018 06            11747 	.byte	6
00001019 01            11748 	.byte	1
0000101a 02            11749 	.byte	2
0000101b 00            11750 	.byte	0
0000101c 0b            11751 	.byte	11
0000101d 1c            11752 	.byte	28
0000101e 000502        11753 	.byte	0,5,2
00001021 00000000*     11754 	.word	.LDWlin40
00001025 0b            11755 	.byte	11
00001026 2b            11756 	.byte	43
00001027 0c            11757 	.byte	12
00001028 0b            11758 	.byte	11
00001029 0c            11759 	.byte	12
0000102a 02            11760 	.byte	2
0000102b 00            11761 	.byte	0
0000102c 0b            11762 	.byte	11
0000102d 1c            11763 	.byte	28
0000102e 06            11764 	.byte	6
0000102f 02            11765 	.byte	2
00001030 02            11766 	.byte	2
00001031 02            11767 	.byte	2
00001032 04            11768 	.byte	4
00001033 000101        11769 	.byte	0,1,1
                       11770 	.section	.debug_info
                       11771 .LDW_4d229e0:
00002dd5 0f            11772 	.byte	15
00002dd6 5055385f5265  11773 	.strz	"PU8_ResData"
00002ddc 734461746100 
00002de2 f408          11774 	.byte	244,8
00002de4 32            11775 	.byte	50
00002de5 01            11776 	.byte	1
00002de6 00000000*     11777 	.word	.LDW_4cedab0
00002dea 00            11778 	.byte	0
00002deb 016d          11779 	.byte	1,109
                       11780 
                       11781 .LDW_4cee8a8:
00002ded 1d            11782 	.byte	29
00002dee 00000000*     11783 	.word	.LDW03
00002df2 00000000*     11784 	.word	.LDW13
                       11785 
                       11786 .LDW_4d22880:
00002df6 04            11787 	.byte	4
00002df7 55385f496478  11788 	.strz	"U8_Idx"
00002dfd 00 
00002dfe f608          11789 	.byte	246,8
00002e00 09            11790 	.byte	9
00002e01 01            11791 	.byte	1
00002e02 00000000*     11792 	.word	.LDW_16f9eb0
00002e06 00            11793 	.byte	0
00002e07 00            11794 	.byte	0
00002e08 0161          11795 	.byte	1,97
                       11796 
                       11797 .LDW_4d22510:
00002e0a 04            11798 	.byte	4

                                                                      Page 215
                                                              C:\Users\nhuliyap\AppData\Local\Temp\gh_00008941.s
00002e0b 55385f526164  11799 	.strz	"U8_RadPos"
00002e11 506f7300 
00002e15 f708          11800 	.byte	247,8
00002e17 09            11801 	.byte	9
00002e18 01            11802 	.byte	1
00002e19 00000000*     11803 	.word	.LDW_16f9eb0
00002e1d 00            11804 	.byte	0
00002e1e 00            11805 	.byte	0
00002e1f 016c          11806 	.byte	1,108
                       11807 
                       11808 .LDW_4d226c8:
00002e21 04            11809 	.byte	4
00002e22 5533325f5245  11810 	.strz	"U32_REId"
00002e28 496400 
00002e2b f808          11811 	.byte	248,8
00002e2d 0a            11812 	.byte	10
00002e2e 01            11813 	.byte	1
00002e2f 00000000*     11814 	.word	.LDW_4cff328
00002e33 00            11815 	.byte	0
00002e34 00            11816 	.byte	0
00002e35 0273          11817 	.byte	2,115
00002e37 00            11818 	.byte	0
                       11819 
                       11820 .LDW_4d22098:
00002e38 04            11821 	.byte	4
00002e39 55385f4c6f63  11822 	.strz	"U8_LocalTemperature"
00002e3f 616c54656d70 
00002e45 657261747572 
00002e4b 6500 
00002e4d f908          11823 	.byte	249,8
00002e4f 09            11824 	.byte	9
00002e50 01            11825 	.byte	1
00002e51 00000000*     11826 	.word	.LDW_16f9eb0
00002e55 00            11827 	.byte	0
00002e56 00            11828 	.byte	0
00002e57 0162          11829 	.byte	1,98
                       11830 
                       11831 .LDW_4d22720:
00002e59 04            11832 	.byte	4
00002e5a 55385f4c6f63  11833 	.strz	"U8_LocalPreProcPressurePD"
00002e60 616c50726550 
00002e66 726f63507265 
00002e6c 737375726550 
00002e72 4400 
00002e74 fa08          11834 	.byte	250,8
00002e76 09            11835 	.byte	9
00002e77 01            11836 	.byte	1
00002e78 00000000*     11837 	.word	.LDW_16f9eb0
00002e7c 00            11838 	.byte	0
00002e7d 00            11839 	.byte	0
00002e7e 015a          11840 	.byte	1,90
                       11841 
00002e80 00            11842 	.byte	0
                       11843 
00002e81 00            11844 	.byte	0
                       11845 
                       11846 .LDW_4d08ba0:
00002e82 14            11847 	.byte	20
00002e83 444941475f5f  11848 	.strz	"DIAG__PutNewIDAndResetWarning"
00002e89 5075744e6577 
00002e8f 4944416e6452 

                                                                      Page 216
                                                              C:\Users\nhuliyap\AppData\Local\Temp\gh_00008941.s
00002e95 657365745761 
00002e9b 726e696e6700 
00002ea1 a709          11849 	.byte	167,9
00002ea3 0e            11850 	.byte	14
00002ea4 01            11851 	.byte	1
00002ea5 00000000*     11852 	.word	.LDW_16f9eb0
00002ea9 00000000*     11853 	.word	_DIAG__PutNewIDAndResetWarning..C.3A.5C_ECU2.5CECU_Rivian_A1.5CTarget.5Crepo_projects.5CpRealEcu.5CcL_LATEST.5Cmake.5Coutput.5Cobjects.5CSwcApplTpms_Diag.
00002ead 00000000*     11854 	.word	___ghs_eofn_DIAG__PutNewIDAndResetWarning
00002eb1 0153          11855 	.byte	1,83
00002eb3 828080e00b    11856 	.byte	130,128,128,224,11
00002eb8 14            11857 	.byte	20
00002eb9 03            11858 	.byte	3
00002eba 1c            11859 	.byte	28
00002ebb 00            11860 	.byte	0
00002ebc 00            11861 	.byte	0
00002ebd 00            11862 	.byte	0
00002ebe 00            11863 	.byte	0
00002ebf 01            11864 	.byte	1
00002ec0 00            11865 	.byte	0
00002ec1 01            11866 	.byte	1
                       11867 
                       11868 	.section	.debug_frame
                       11869 .LDW_4d3e8a8:
000005c0 00000000*     11870 	.word	.LDW_unq_4e-.LDW_unq_4d
                       11871 .LDW_unq_4d:
000005c4 00000000*     11872 	.word	.LDW_4ca0d40
000005c8 00000000*     11873 	.word	_DIAG__PutNewIDAndResetWarning..C.3A.5C_ECU2.5CECU_Rivian_A1.5CTarget.5Crepo_projects.5CpRealEcu.5CcL_LATEST.5Cmake.5Coutput.5Cobjects.5CSwcApplTpms_Diag.
000005cc 00000000*     11874 	.word	___ghs_eofn_DIAG__PutNewIDAndResetWarning-_DIAG__PutNewIDAndResetWarning..C.3A.5C_ECU2.5CECU_Rivian_A1.5CTarget.5Crepo_projects.5CpRealEcu.5CcL_LATEST.5Cmake.5Coutput.5Cobjects.5CSwcApplTpms_Diag.
000005d0 44            11875 	.byte	68
000005d1 9f            11876 	.byte	159
000005d2 06            11877 	.byte	6
000005d3 40            11878 	.byte	64
000005d4 9d            11879 	.byte	157
000005d5 0a            11880 	.byte	10
000005d6 40            11881 	.byte	64
000005d7 9c            11882 	.byte	156
000005d8 0e            11883 	.byte	14
000005d9 40            11884 	.byte	64
000005da 9b            11885 	.byte	155
000005db 12            11886 	.byte	18
000005dc 40            11887 	.byte	64
000005dd 9a            11888 	.byte	154
000005de 16            11889 	.byte	22
000005df 01            11890 	.byte	1
000005e0 00000000*     11891 	.word	.LDW53
                       11892 .LDW_unq_4e:
                       11893 	.section	.debug_line
00001036 000502        11894 	.byte	0,5,2
00001039 00000000*     11895 	.word	_DIAG__PutNewIDAndResetWarning..C.3A.5C_ECU2.5CECU_Rivian_A1.5CTarget.5Crepo_projects.5CpRealEcu.5CcL_LATEST.5Cmake.5Coutput.5Cobjects.5CSwcApplTpms_Diag.
0000103d 03            11896 	.byte	3
0000103e a709          11897 	.byte	167,9
00001040 02            11898 	.byte	2
00001041 00            11899 	.byte	0
00001042 01            11900 	.byte	1
00001043 06            11901 	.byte	6
00001044 25            11902 	.byte	37
00001045 13            11903 	.byte	19
00001046 14            11904 	.byte	20
00001047 02            11905 	.byte	2
00001048 02            11906 	.byte	2
00001049 0c            11907 	.byte	12

                                                                      Page 217
                                                              C:\Users\nhuliyap\AppData\Local\Temp\gh_00008941.s
0000104a 53            11908 	.byte	83
0000104b 03            11909 	.byte	3
0000104c 7d            11910 	.byte	125
0000104d 02            11911 	.byte	2
0000104e 02            11912 	.byte	2
0000104f 01            11913 	.byte	1
00001050 000502        11914 	.byte	0,5,2
00001053 00000000*     11915 	.word	.LDWlin44
00001057 03            11916 	.byte	3
00001058 04            11917 	.byte	4
00001059 02            11918 	.byte	2
0000105a 00            11919 	.byte	0
0000105b 01            11920 	.byte	1
0000105c 0c            11921 	.byte	12
0000105d 000502        11922 	.byte	0,5,2
00001060 00000000*     11923 	.word	.LDWlin45
00001064 0c            11924 	.byte	12
00001065 000502        11925 	.byte	0,5,2
00001068 00000000*     11926 	.word	.LDWlin46
0000106c 0b            11927 	.byte	11
0000106d 0b            11928 	.byte	11
0000106e 000502        11929 	.byte	0,5,2
00001071 00000000*     11930 	.word	.LDWlin47
00001075 0b            11931 	.byte	11
00001076 0b            11932 	.byte	11
00001077 0b            11933 	.byte	11
00001078 000502        11934 	.byte	0,5,2
0000107b 00000000*     11935 	.word	.LDWlin48
0000107f 0c            11936 	.byte	12
00001080 000502        11937 	.byte	0,5,2
00001083 00000000*     11938 	.word	.LDWlin49
00001087 0b            11939 	.byte	11
00001088 0b            11940 	.byte	11
00001089 1b            11941 	.byte	27
0000108a 23            11942 	.byte	35
0000108b 000502        11943 	.byte	0,5,2
0000108e 00000000*     11944 	.word	.LDWlin50
00001092 0b            11945 	.byte	11
00001093 1b            11946 	.byte	27
00001094 13            11947 	.byte	19
00001095 000502        11948 	.byte	0,5,2
00001098 00000000*     11949 	.word	.LDWlin51
0000109c 0b            11950 	.byte	11
0000109d 0b            11951 	.byte	11
0000109e 0c            11952 	.byte	12
0000109f 02            11953 	.byte	2
000010a0 02            11954 	.byte	2
000010a1 0c            11955 	.byte	12
000010a2 000502        11956 	.byte	0,5,2
000010a5 00000000*     11957 	.word	.LDWlin52
000010a9 0b            11958 	.byte	11
000010aa 0b            11959 	.byte	11
000010ab 23            11960 	.byte	35
000010ac 13            11961 	.byte	19
000010ad 000502        11962 	.byte	0,5,2
000010b0 00000000*     11963 	.word	.LDWlin53
000010b4 0b            11964 	.byte	11
000010b5 1b            11965 	.byte	27
000010b6 13            11966 	.byte	19
000010b7 000502        11967 	.byte	0,5,2
000010ba 00000000*     11968 	.word	.LDWlin54

                                                                      Page 218
                                                              C:\Users\nhuliyap\AppData\Local\Temp\gh_00008941.s
000010be 0b            11969 	.byte	11
000010bf 0b            11970 	.byte	11
000010c0 0c            11971 	.byte	12
000010c1 02            11972 	.byte	2
000010c2 00            11973 	.byte	0
000010c3 03            11974 	.byte	3
000010c4 73            11975 	.byte	115
000010c5 02            11976 	.byte	2
000010c6 00            11977 	.byte	0
000010c7 01            11978 	.byte	1
000010c8 000502        11979 	.byte	0,5,2
000010cb 00000000*     11980 	.word	.LDWlin55
000010cf 03            11981 	.byte	3
000010d0 0e            11982 	.byte	14
000010d1 02            11983 	.byte	2
000010d2 00            11984 	.byte	0
000010d3 01            11985 	.byte	1
000010d4 0b            11986 	.byte	11
000010d5 02            11987 	.byte	2
000010d6 00            11988 	.byte	0
000010d7 0b            11989 	.byte	11
000010d8 02            11990 	.byte	2
000010d9 00            11991 	.byte	0
000010da 0c            11992 	.byte	12
000010db 06            11993 	.byte	6
000010dc 02            11994 	.byte	2
000010dd 02            11995 	.byte	2
000010de 02            11996 	.byte	2
000010df 04            11997 	.byte	4
000010e0 000101        11998 	.byte	0,1,1
                       11999 	.section	.debug_info
                       12000 .LDW_4d22618:
00002ec2 0f            12001 	.byte	15
00002ec3 5055385f5265  12002 	.strz	"PU8_ReqData"
00002ec9 714461746100 
00002ecf a709          12003 	.byte	167,9
00002ed1 33            12004 	.byte	51
00002ed2 01            12005 	.byte	1
00002ed3 00000000*     12006 	.word	.LDW_4cedab0
00002ed7 00            12007 	.byte	0
00002ed8 016c          12008 	.byte	1,108
                       12009 
                       12010 .LDW_4cee758:
00002eda 1d            12011 	.byte	29
00002edb 00000000*     12012 	.word	.LDW43
00002edf 00000000*     12013 	.word	.LDW53
                       12014 
                       12015 .LDW_4d22670:
00002ee3 04            12016 	.byte	4
00002ee4 4155385f5365  12017 	.strz	"AU8_Service"
00002eea 727669636500 
00002ef0 a909          12018 	.byte	169,9
00002ef2 09            12019 	.byte	9
00002ef3 01            12020 	.byte	1
00002ef4 00000000*     12021 	.word	.LDW_4c5f3d0
00002ef8 00            12022 	.byte	0
00002ef9 00            12023 	.byte	0
00002efa 0273          12024 	.byte	2,115
00002efc 02            12025 	.byte	2
                       12026 
                       12027 .LDW_4d22040:

                                                                      Page 219
                                                              C:\Users\nhuliyap\AppData\Local\Temp\gh_00008941.s
00002efd 04            12028 	.byte	4
00002efe 55385f496478  12029 	.strz	"U8_Idx"
00002f04 00 
00002f05 a909          12030 	.byte	169,9
00002f07 18            12031 	.byte	24
00002f08 01            12032 	.byte	1
00002f09 00000000*     12033 	.word	.LDW_16f9eb0
00002f0d 00            12034 	.byte	0
00002f0e 00            12035 	.byte	0
00002f0f 016d          12036 	.byte	1,109
                       12037 
                       12038 .LDW_4d224b8:
00002f11 04            12039 	.byte	4
00002f12 55385f526574  12040 	.strz	"U8_Ret"
00002f18 00 
00002f19 aa09          12041 	.byte	170,9
00002f1b 09            12042 	.byte	9
00002f1c 01            12043 	.byte	1
00002f1d 00000000*     12044 	.word	.LDW_16f9eb0
00002f21 00            12045 	.byte	0
00002f22 00            12046 	.byte	0
00002f23 016b          12047 	.byte	1,107
                       12048 
                       12049 .LDW_4d228d8:
00002f25 04            12050 	.byte	4
00002f26 55385f526574  12051 	.strz	"U8_RetVal"
00002f2c 56616c00 
00002f30 ab09          12052 	.byte	171,9
00002f32 09            12053 	.byte	9
00002f33 01            12054 	.byte	1
00002f34 00000000*     12055 	.word	.LDW_16f9eb0
00002f38 00            12056 	.byte	0
00002f39 00            12057 	.byte	0
00002f3a 016a          12058 	.byte	1,106
                       12059 
                       12060 .LDW_4d22778:
00002f3c 04            12061 	.byte	4
00002f3d 5533325f5245  12062 	.strz	"U32_REId"
00002f43 496400 
00002f46 ac09          12063 	.byte	172,9
00002f48 0a            12064 	.byte	10
00002f49 01            12065 	.byte	1
00002f4a 00000000*     12066 	.word	.LDW_4cff328
00002f4e 00            12067 	.byte	0
00002f4f 00            12068 	.byte	0
00002f50 0273          12069 	.byte	2,115
00002f52 04            12070 	.byte	4
                       12071 
00002f53 00            12072 	.byte	0
                       12073 
00002f54 00            12074 	.byte	0
                       12075 
                       12076 .LDW_4d08188:
00002f55 13            12077 	.byte	19
00002f56 444941475f5f  12078 	.strz	"DIAG__GetVehicleSpecPara"
00002f5c 476574566568 
00002f62 69636c655370 
00002f68 656350617261 
00002f6e 00 
00002f6f dd09          12079 	.byte	221,9
00002f71 0d            12080 	.byte	13

                                                                      Page 220
                                                              C:\Users\nhuliyap\AppData\Local\Temp\gh_00008941.s
00002f72 01            12081 	.byte	1
00002f73 00000000*     12082 	.word	_DIAG__GetVehicleSpecPara..C.3A.5C_ECU2.5CECU_Rivian_A1.5CTarget.5Crepo_projects.5CpRealEcu.5CcL_LATEST.5Cmake.5Coutput.5Cobjects.5CSwcApplTpms_Diag.
00002f77 00000000*     12083 	.word	___ghs_eofn_DIAG__GetVehicleSpecPara
00002f7b 0153          12084 	.byte	1,83
00002f7d 828080800a    12085 	.byte	130,128,128,128,10
00002f82 08            12086 	.byte	8
00002f83 03            12087 	.byte	3
00002f84 08            12088 	.byte	8
00002f85 00            12089 	.byte	0
00002f86 00            12090 	.byte	0
00002f87 00            12091 	.byte	0
00002f88 00            12092 	.byte	0
00002f89 01            12093 	.byte	1
00002f8a 00            12094 	.byte	0
00002f8b 01            12095 	.byte	1
                       12096 
                       12097 	.section	.debug_frame
                       12098 .LDW_16e3728:
000005e4 00000000*     12099 	.word	.LDW_unq_50-.LDW_unq_4f
                       12100 .LDW_unq_4f:
000005e8 00000000*     12101 	.word	.LDW_4ca0d40
000005ec 00000000*     12102 	.word	_DIAG__GetVehicleSpecPara..C.3A.5C_ECU2.5CECU_Rivian_A1.5CTarget.5Crepo_projects.5CpRealEcu.5CcL_LATEST.5Cmake.5Coutput.5Cobjects.5CSwcApplTpms_Diag.
000005f0 00000000*     12103 	.word	___ghs_eofn_DIAG__GetVehicleSpecPara-_DIAG__GetVehicleSpecPara..C.3A.5C_ECU2.5CECU_Rivian_A1.5CTarget.5Crepo_projects.5CpRealEcu.5CcL_LATEST.5Cmake.5Coutput.5Cobjects.5CSwcApplTpms_Diag.
000005f4 44            12104 	.byte	68
000005f5 9f            12105 	.byte	159
000005f6 00            12106 	.byte	0
000005f7 40            12107 	.byte	64
000005f8 9d            12108 	.byte	157
000005f9 04            12109 	.byte	4
000005fa 01            12110 	.byte	1
000005fb 00000000*     12111 	.word	.LDW94
000005ff 44            12112 	.byte	68
00000600 df            12113 	.byte	223
00000601 40            12114 	.byte	64
00000602 dd            12115 	.byte	221
00000603 00            12116 	.byte	0
                       12117 .LDW_unq_50:
                       12118 	.section	.debug_line
000010e3 000502        12119 	.byte	0,5,2
000010e6 00000000*     12120 	.word	_DIAG__GetVehicleSpecPara..C.3A.5C_ECU2.5CECU_Rivian_A1.5CTarget.5Crepo_projects.5CpRealEcu.5CcL_LATEST.5Cmake.5Coutput.5Cobjects.5CSwcApplTpms_Diag.
000010ea 03            12121 	.byte	3
000010eb dd09          12122 	.byte	221,9
000010ed 02            12123 	.byte	2
000010ee 00            12124 	.byte	0
000010ef 01            12125 	.byte	1
000010f0 06            12126 	.byte	6
000010f1 23            12127 	.byte	35
000010f2 000502        12128 	.byte	0,5,2
000010f5 00000000*     12129 	.word	.LDWlin80
000010f9 0c            12130 	.byte	12
000010fa 000502        12131 	.byte	0,5,2
000010fd 00000000*     12132 	.word	.LDWlin81
00001101 0c            12133 	.byte	12
00001102 000502        12134 	.byte	0,5,2
00001105 00000000*     12135 	.word	.LDWlin82
00001109 0c            12136 	.byte	12
0000110a 000502        12137 	.byte	0,5,2
0000110d 00000000*     12138 	.word	.LDWlin83
00001111 0c            12139 	.byte	12
00001112 02            12140 	.byte	2
00001113 04            12141 	.byte	4

                                                                      Page 221
                                                              C:\Users\nhuliyap\AppData\Local\Temp\gh_00008941.s
00001114 000101        12142 	.byte	0,1,1
                       12143 	.section	.debug_info
                       12144 .LDW_4d22828:
00002f8c 0f            12145 	.byte	15
00002f8d 5055385f5265  12146 	.strz	"PU8_ResData"
00002f93 734461746100 
00002f99 dd09          12147 	.byte	221,9
00002f9b 2d            12148 	.byte	45
00002f9c 01            12149 	.byte	1
00002f9d 00000000*     12150 	.word	.LDW_4cedab0
00002fa1 00            12151 	.byte	0
00002fa2 016d          12152 	.byte	1,109
                       12153 
                       12154 .LDW_4cee908:
00002fa4 1d            12155 	.byte	29
00002fa5 00000000*     12156 	.word	.LDW84
00002fa9 00000000*     12157 	.word	.LDW94
                       12158 
00002fad 00            12159 	.byte	0
                       12160 
00002fae 00            12161 	.byte	0
                       12162 
                       12163 .LDW_4d08e98:
00002faf 13            12164 	.byte	19
00002fb0 444941475f5f  12165 	.strz	"DIAG__PutVehicleSpecPara"
00002fb6 507574566568 
00002fbc 69636c655370 
00002fc2 656350617261 
00002fc8 00 
00002fc9 e909          12166 	.byte	233,9
00002fcb 0d            12167 	.byte	13
00002fcc 01            12168 	.byte	1
00002fcd 00000000*     12169 	.word	_DIAG__PutVehicleSpecPara..C.3A.5C_ECU2.5CECU_Rivian_A1.5CTarget.5Crepo_projects.5CpRealEcu.5CcL_LATEST.5Cmake.5Coutput.5Cobjects.5CSwcApplTpms_Diag.
00002fd1 00000000*     12170 	.word	___ghs_eofn_DIAG__PutVehicleSpecPara
00002fd5 0153          12171 	.byte	1,83
00002fd7 828080800a    12172 	.byte	130,128,128,128,10
00002fdc 08            12173 	.byte	8
00002fdd 03            12174 	.byte	3
00002fde 08            12175 	.byte	8
00002fdf 00            12176 	.byte	0
00002fe0 00            12177 	.byte	0
00002fe1 00            12178 	.byte	0
00002fe2 00            12179 	.byte	0
00002fe3 01            12180 	.byte	1
00002fe4 00            12181 	.byte	0
00002fe5 01            12182 	.byte	1
                       12183 
                       12184 	.section	.debug_frame
                       12185 .LDW_16e3768:
00000604 00000000*     12186 	.word	.LDW_unq_52-.LDW_unq_51
                       12187 .LDW_unq_51:
00000608 00000000*     12188 	.word	.LDW_4ca0d40
0000060c 00000000*     12189 	.word	_DIAG__PutVehicleSpecPara..C.3A.5C_ECU2.5CECU_Rivian_A1.5CTarget.5Crepo_projects.5CpRealEcu.5CcL_LATEST.5Cmake.5Coutput.5Cobjects.5CSwcApplTpms_Diag.
00000610 00000000*     12190 	.word	___ghs_eofn_DIAG__PutVehicleSpecPara-_DIAG__PutVehicleSpecPara..C.3A.5C_ECU2.5CECU_Rivian_A1.5CTarget.5Crepo_projects.5CpRealEcu.5CcL_LATEST.5Cmake.5Coutput.5Cobjects.5CSwcApplTpms_Diag.
00000614 44            12191 	.byte	68
00000615 9f            12192 	.byte	159
00000616 00            12193 	.byte	0
00000617 40            12194 	.byte	64
00000618 9d            12195 	.byte	157
00000619 04            12196 	.byte	4
0000061a 01            12197 	.byte	1

                                                                      Page 222
                                                              C:\Users\nhuliyap\AppData\Local\Temp\gh_00008941.s
0000061b 00000000*     12198 	.word	.LDW35
0000061f 44            12199 	.byte	68
00000620 df            12200 	.byte	223
00000621 40            12201 	.byte	64
00000622 dd            12202 	.byte	221
00000623 00            12203 	.byte	0
                       12204 .LDW_unq_52:
                       12205 	.section	.debug_line
00001117 000502        12206 	.byte	0,5,2
0000111a 00000000*     12207 	.word	_DIAG__PutVehicleSpecPara..C.3A.5C_ECU2.5CECU_Rivian_A1.5CTarget.5Crepo_projects.5CpRealEcu.5CcL_LATEST.5Cmake.5Coutput.5Cobjects.5CSwcApplTpms_Diag.
0000111e 03            12208 	.byte	3
0000111f e909          12209 	.byte	233,9
00001121 02            12210 	.byte	2
00001122 00            12211 	.byte	0
00001123 01            12212 	.byte	1
00001124 06            12213 	.byte	6
00001125 24            12214 	.byte	36
00001126 000502        12215 	.byte	0,5,2
00001129 00000000*     12216 	.word	.LDWlin87
0000112d 0b            12217 	.byte	11
0000112e 000502        12218 	.byte	0,5,2
00001131 00000000*     12219 	.word	.LDWlin88
00001135 0c            12220 	.byte	12
00001136 000502        12221 	.byte	0,5,2
00001139 00000000*     12222 	.word	.LDWlin89
0000113d 0b            12223 	.byte	11
0000113e 02            12224 	.byte	2
0000113f 04            12225 	.byte	4
00001140 000101        12226 	.byte	0,1,1
                       12227 	.section	.debug_info
                       12228 .LDW_4d22a90:
00002fe6 0f            12229 	.byte	15
00002fe7 5055385f5265  12230 	.strz	"PU8_ReqData"
00002fed 714461746100 
00002ff3 e909          12231 	.byte	233,9
00002ff5 2d            12232 	.byte	45
00002ff6 01            12233 	.byte	1
00002ff7 00000000*     12234 	.word	.LDW_4cedab0
00002ffb 00            12235 	.byte	0
00002ffc 016d          12236 	.byte	1,109
                       12237 
                       12238 .LDW_4ceeab8:
00002ffe 1d            12239 	.byte	29
00002fff 00000000*     12240 	.word	.LDW25
00003003 00000000*     12241 	.word	.LDW35
                       12242 
00003007 00            12243 	.byte	0
                       12244 
00003008 00            12245 	.byte	0
                       12246 
                       12247 .LDW_4d08220:
00003009 13            12248 	.byte	19
0000300a 444941475f5f  12249 	.strz	"DIAG__GetMinPressThresEE"
00003010 4765744d696e 
00003016 507265737354 
0000301c 687265734545 
00003022 00 
00003023 f209          12250 	.byte	242,9
00003025 0d            12251 	.byte	13
00003026 01            12252 	.byte	1
00003027 00000000*     12253 	.word	_DIAG__GetMinPressThresEE..C.3A.5C_ECU2.5CECU_Rivian_A1.5CTarget.5Crepo_projects.5CpRealEcu.5CcL_LATEST.5Cmake.5Coutput.5Cobjects.5CSwcApplTpms_Diag.

                                                                      Page 223
                                                              C:\Users\nhuliyap\AppData\Local\Temp\gh_00008941.s
0000302b 00000000*     12254 	.word	___ghs_eofn_DIAG__GetMinPressThresEE
0000302f 0153          12255 	.byte	1,83
00003031 828080800a    12256 	.byte	130,128,128,128,10
00003036 08            12257 	.byte	8
00003037 03            12258 	.byte	3
00003038 08            12259 	.byte	8
00003039 00            12260 	.byte	0
0000303a 00            12261 	.byte	0
0000303b 00            12262 	.byte	0
0000303c 00            12263 	.byte	0
0000303d 01            12264 	.byte	1
0000303e 00            12265 	.byte	0
0000303f 01            12266 	.byte	1
                       12267 
                       12268 	.section	.debug_frame
                       12269 .LDW_16e3ba8:
00000624 00000000*     12270 	.word	.LDW_unq_54-.LDW_unq_53
                       12271 .LDW_unq_53:
00000628 00000000*     12272 	.word	.LDW_4ca0d40
0000062c 00000000*     12273 	.word	_DIAG__GetMinPressThresEE..C.3A.5C_ECU2.5CECU_Rivian_A1.5CTarget.5Crepo_projects.5CpRealEcu.5CcL_LATEST.5Cmake.5Coutput.5Cobjects.5CSwcApplTpms_Diag.
00000630 00000000*     12274 	.word	___ghs_eofn_DIAG__GetMinPressThresEE-_DIAG__GetMinPressThresEE..C.3A.5C_ECU2.5CECU_Rivian_A1.5CTarget.5Crepo_projects.5CpRealEcu.5CcL_LATEST.5Cmake.5Coutput.5Cobjects.5CSwcApplTpms_Diag.
00000634 44            12275 	.byte	68
00000635 9f            12276 	.byte	159
00000636 00            12277 	.byte	0
00000637 40            12278 	.byte	64
00000638 9d            12279 	.byte	157
00000639 04            12280 	.byte	4
0000063a 01            12281 	.byte	1
0000063b 00000000*     12282 	.word	.LDW36
0000063f 44            12283 	.byte	68
00000640 df            12284 	.byte	223
00000641 40            12285 	.byte	64
00000642 dd            12286 	.byte	221
00000643 00            12287 	.byte	0
                       12288 .LDW_unq_54:
                       12289 	.section	.debug_line
00001143 000502        12290 	.byte	0,5,2
00001146 00000000*     12291 	.word	_DIAG__GetMinPressThresEE..C.3A.5C_ECU2.5CECU_Rivian_A1.5CTarget.5Crepo_projects.5CpRealEcu.5CcL_LATEST.5Cmake.5Coutput.5Cobjects.5CSwcApplTpms_Diag.
0000114a 03            12292 	.byte	3
0000114b f209          12293 	.byte	242,9
0000114d 02            12294 	.byte	2
0000114e 00            12295 	.byte	0
0000114f 01            12296 	.byte	1
00001150 06            12297 	.byte	6
00001151 23            12298 	.byte	35
00001152 000502        12299 	.byte	0,5,2
00001155 00000000*     12300 	.word	.LDWlin112
00001159 0b            12301 	.byte	11
0000115a 02            12302 	.byte	2
0000115b 04            12303 	.byte	4
0000115c 000101        12304 	.byte	0,1,1
                       12305 	.section	.debug_info
                       12306 .LDW_4d220f0:
00003040 0f            12307 	.byte	15
00003041 5055385f5265  12308 	.strz	"PU8_ResData"
00003047 734461746100 
0000304d f209          12309 	.byte	242,9
0000304f 2d            12310 	.byte	45
00003050 01            12311 	.byte	1
00003051 00000000*     12312 	.word	.LDW_4cedab0
00003055 00            12313 	.byte	0

                                                                      Page 224
                                                              C:\Users\nhuliyap\AppData\Local\Temp\gh_00008941.s
00003056 016d          12314 	.byte	1,109
                       12315 
                       12316 .LDW_4ceeb48:
00003058 1d            12317 	.byte	29
00003059 00000000*     12318 	.word	.LDW26
0000305d 00000000*     12319 	.word	.LDW36
                       12320 
00003061 00            12321 	.byte	0
                       12322 
00003062 00            12323 	.byte	0
                       12324 
                       12325 .LDW_4d08350:
00003063 13            12326 	.byte	19
00003064 444941475f5f  12327 	.strz	"DIAG__PutMinPressThresEE"
0000306a 5075744d696e 
00003070 507265737354 
00003076 687265734545 
0000307c 00 
0000307d f709          12328 	.byte	247,9
0000307f 0d            12329 	.byte	13
00003080 01            12330 	.byte	1
00003081 00000000*     12331 	.word	_DIAG__PutMinPressThresEE..C.3A.5C_ECU2.5CECU_Rivian_A1.5CTarget.5Crepo_projects.5CpRealEcu.5CcL_LATEST.5Cmake.5Coutput.5Cobjects.5CSwcApplTpms_Diag.
00003085 00000000*     12332 	.word	___ghs_eofn_DIAG__PutMinPressThresEE
00003089 0153          12333 	.byte	1,83
0000308b 8280808008    12334 	.byte	130,128,128,128,8
00003090 04            12335 	.byte	4
00003091 03            12336 	.byte	3
00003092 04            12337 	.byte	4
00003093 00            12338 	.byte	0
00003094 00            12339 	.byte	0
00003095 00            12340 	.byte	0
00003096 00            12341 	.byte	0
00003097 01            12342 	.byte	1
00003098 00            12343 	.byte	0
00003099 01            12344 	.byte	1
                       12345 
                       12346 	.section	.debug_frame
                       12347 .LDW_16e3228:
00000644 00000000*     12348 	.word	.LDW_unq_56-.LDW_unq_55
                       12349 .LDW_unq_55:
00000648 00000000*     12350 	.word	.LDW_4ca0d40
0000064c 00000000*     12351 	.word	_DIAG__PutMinPressThresEE..C.3A.5C_ECU2.5CECU_Rivian_A1.5CTarget.5Crepo_projects.5CpRealEcu.5CcL_LATEST.5Cmake.5Coutput.5Cobjects.5CSwcApplTpms_Diag.
00000650 00000000*     12352 	.word	___ghs_eofn_DIAG__PutMinPressThresEE-_DIAG__PutMinPressThresEE..C.3A.5C_ECU2.5CECU_Rivian_A1.5CTarget.5Crepo_projects.5CpRealEcu.5CcL_LATEST.5Cmake.5Coutput.5Cobjects.5CSwcApplTpms_Diag.
00000654 44            12353 	.byte	68
00000655 9f            12354 	.byte	159
00000656 00            12355 	.byte	0
00000657 01            12356 	.byte	1
00000658 00000000*     12357 	.word	.LDW55
0000065c 44            12358 	.byte	68
0000065d df            12359 	.byte	223
0000065e 00            12360 	.byte	0
0000065f 00            12361 	.byte	0
                       12362 .LDW_unq_56:
                       12363 	.section	.debug_line
0000115f 000502        12364 	.byte	0,5,2
00001162 00000000*     12365 	.word	_DIAG__PutMinPressThresEE..C.3A.5C_ECU2.5CECU_Rivian_A1.5CTarget.5Crepo_projects.5CpRealEcu.5CcL_LATEST.5Cmake.5Coutput.5Cobjects.5CSwcApplTpms_Diag.
00001166 03            12366 	.byte	3
00001167 f709          12367 	.byte	247,9
00001169 02            12368 	.byte	2
0000116a 00            12369 	.byte	0
0000116b 01            12370 	.byte	1

                                                                      Page 225
                                                              C:\Users\nhuliyap\AppData\Local\Temp\gh_00008941.s
0000116c 06            12371 	.byte	6
0000116d 23            12372 	.byte	35
0000116e 000502        12373 	.byte	0,5,2
00001171 00000000*     12374 	.word	.LDWlin90
00001175 0c            12375 	.byte	12
00001176 000502        12376 	.byte	0,5,2
00001179 00000000*     12377 	.word	.LDWlin91
0000117d 0b            12378 	.byte	11
0000117e 02            12379 	.byte	2
0000117f 04            12380 	.byte	4
00001180 000101        12381 	.byte	0,1,1
                       12382 	.section	.debug_info
                       12383 .LDW_4d22988:
0000309a 0f            12384 	.byte	15
0000309b 5055385f5265  12385 	.strz	"PU8_ReqData"
000030a1 714461746100 
000030a7 f709          12386 	.byte	247,9
000030a9 2d            12387 	.byte	45
000030aa 01            12388 	.byte	1
000030ab 00000000*     12389 	.word	.LDW_4cedab0
000030af 00            12390 	.byte	0
000030b0 016e          12391 	.byte	1,110
                       12392 
                       12393 .LDW_4ceecf8:
000030b2 1d            12394 	.byte	29
000030b3 00000000*     12395 	.word	.LDW45
000030b7 00000000*     12396 	.word	.LDW55
                       12397 
000030bb 00            12398 	.byte	0
                       12399 
000030bc 00            12400 	.byte	0
                       12401 
                       12402 .LDW_4d083e8:
000030bd 13            12403 	.byte	19
000030be 444941475f5f  12404 	.strz	"DIAG__EOLRoutineStart"
000030c4 454f4c526f75 
000030ca 74696e655374 
000030d0 61727400 
000030d4 fe09          12405 	.byte	254,9
000030d6 0d            12406 	.byte	13
000030d7 01            12407 	.byte	1
000030d8 00000000*     12408 	.word	_DIAG__EOLRoutineStart..C.3A.5C_ECU2.5CECU_Rivian_A1.5CTarget.5Crepo_projects.5CpRealEcu.5CcL_LATEST.5Cmake.5Coutput.5Cobjects.5CSwcApplTpms_Diag.
000030dc 00000000*     12409 	.word	___ghs_eofn_DIAG__EOLRoutineStart
000030e0 0153          12410 	.byte	1,83
000030e2 828080800a    12411 	.byte	130,128,128,128,10
000030e7 08            12412 	.byte	8
000030e8 03            12413 	.byte	3
000030e9 08            12414 	.byte	8
000030ea 00            12415 	.byte	0
000030eb 00            12416 	.byte	0
000030ec 00            12417 	.byte	0
000030ed 00            12418 	.byte	0
000030ee 01            12419 	.byte	1
000030ef 00            12420 	.byte	0
000030f0 01            12421 	.byte	1
                       12422 
                       12423 	.section	.debug_frame
                       12424 .LDW_4f12b00:
00000660 00000000*     12425 	.word	.LDW_unq_58-.LDW_unq_57
                       12426 .LDW_unq_57:
00000664 00000000*     12427 	.word	.LDW_4ca0d40

                                                                      Page 226
                                                              C:\Users\nhuliyap\AppData\Local\Temp\gh_00008941.s
00000668 00000000*     12428 	.word	_DIAG__EOLRoutineStart..C.3A.5C_ECU2.5CECU_Rivian_A1.5CTarget.5Crepo_projects.5CpRealEcu.5CcL_LATEST.5Cmake.5Coutput.5Cobjects.5CSwcApplTpms_Diag.
0000066c 00000000*     12429 	.word	___ghs_eofn_DIAG__EOLRoutineStart-_DIAG__EOLRoutineStart..C.3A.5C_ECU2.5CECU_Rivian_A1.5CTarget.5Crepo_projects.5CpRealEcu.5CcL_LATEST.5Cmake.5Coutput.5Cobjects.5CSwcApplTpms_Diag.
00000670 44            12430 	.byte	68
00000671 9f            12431 	.byte	159
00000672 00            12432 	.byte	0
00000673 40            12433 	.byte	64
00000674 9d            12434 	.byte	157
00000675 04            12435 	.byte	4
00000676 01            12436 	.byte	1
00000677 00000000*     12437 	.word	.LDW98
0000067b 44            12438 	.byte	68
0000067c df            12439 	.byte	223
0000067d 40            12440 	.byte	64
0000067e dd            12441 	.byte	221
0000067f 00            12442 	.byte	0
                       12443 .LDW_unq_58:
                       12444 	.section	.debug_line
00001183 000502        12445 	.byte	0,5,2
00001186 00000000*     12446 	.word	_DIAG__EOLRoutineStart..C.3A.5C_ECU2.5CECU_Rivian_A1.5CTarget.5Crepo_projects.5CpRealEcu.5CcL_LATEST.5Cmake.5Coutput.5Cobjects.5CSwcApplTpms_Diag.
0000118a 03            12447 	.byte	3
0000118b fe09          12448 	.byte	254,9
0000118d 02            12449 	.byte	2
0000118e 00            12450 	.byte	0
0000118f 01            12451 	.byte	1
00001190 06            12452 	.byte	6
00001191 2b            12453 	.byte	43
00001192 000502        12454 	.byte	0,5,2
00001195 00000000*     12455 	.word	.LDWlin155
00001199 0b            12456 	.byte	11
0000119a 02            12457 	.byte	2
0000119b 04            12458 	.byte	4
0000119c 000101        12459 	.byte	0,1,1
                       12460 	.section	.debug_info
                       12461 .LDW_4d223b0:
000030f1 0f            12462 	.byte	15
000030f2 5055385f5265  12463 	.strz	"PU8_ReqData"
000030f8 714461746100 
000030fe fe09          12464 	.byte	254,9
00003100 2a            12465 	.byte	42
00003101 01            12466 	.byte	1
00003102 00000000*     12467 	.word	.LDW_4cedab0
00003106 00            12468 	.byte	0
00003107 016e          12469 	.byte	1,110
                       12470 
                       12471 .LDW_4d227d0:
00003109 0f            12472 	.byte	15
0000310a 5055385f5265  12473 	.strz	"PU8_ResData"
00003110 734461746100 
00003116 fe09          12474 	.byte	254,9
00003118 3e            12475 	.byte	62
00003119 01            12476 	.byte	1
0000311a 00000000*     12477 	.word	.LDW_4cedab0
0000311e 00            12478 	.byte	0
0000311f 016d          12479 	.byte	1,109
                       12480 
                       12481 .LDW_4ceedb8:
00003121 1d            12482 	.byte	29
00003122 00000000*     12483 	.word	.LDW88
00003126 00000000*     12484 	.word	.LDW98
                       12485 
0000312a 00            12486 	.byte	0

                                                                      Page 227
                                                              C:\Users\nhuliyap\AppData\Local\Temp\gh_00008941.s
                       12487 
0000312b 00            12488 	.byte	0
                       12489 
                       12490 .LDW_4d3ba68:
0000312c 13            12491 	.byte	19
0000312d 444941475f5f  12492 	.strz	"DIAG__EOLRoutineReqResponse"
00003133 454f4c526f75 
00003139 74696e655265 
0000313f 71526573706f 
00003145 6e736500 
00003149 830a          12493 	.byte	131,10
0000314b 0d            12494 	.byte	13
0000314c 01            12495 	.byte	1
0000314d 00000000*     12496 	.word	_DIAG__EOLRoutineReqResponse..C.3A.5C_ECU2.5CECU_Rivian_A1.5CTarget.5Crepo_projects.5CpRealEcu.5CcL_LATEST.5Cmake.5Coutput.5Cobjects.5CSwcApplTpms_Diag.
00003151 00000000*     12497 	.word	___ghs_eofn_DIAG__EOLRoutineReqResponse
00003155 0153          12498 	.byte	1,83
00003157 828080800a    12499 	.byte	130,128,128,128,10
0000315c 08            12500 	.byte	8
0000315d 03            12501 	.byte	3
0000315e 08            12502 	.byte	8
0000315f 00            12503 	.byte	0
00003160 00            12504 	.byte	0
00003161 00            12505 	.byte	0
00003162 00            12506 	.byte	0
00003163 01            12507 	.byte	1
00003164 00            12508 	.byte	0
00003165 01            12509 	.byte	1
                       12510 
                       12511 	.section	.debug_frame
                       12512 .LDW_4f12980:
00000680 00000000*     12513 	.word	.LDW_unq_5a-.LDW_unq_59
                       12514 .LDW_unq_59:
00000684 00000000*     12515 	.word	.LDW_4ca0d40
00000688 00000000*     12516 	.word	_DIAG__EOLRoutineReqResponse..C.3A.5C_ECU2.5CECU_Rivian_A1.5CTarget.5Crepo_projects.5CpRealEcu.5CcL_LATEST.5Cmake.5Coutput.5Cobjects.5CSwcApplTpms_Diag.
0000068c 00000000*     12517 	.word	___ghs_eofn_DIAG__EOLRoutineReqResponse-_DIAG__EOLRoutineReqResponse..C.3A.5C_ECU2.5CECU_Rivian_A1.5CTarget.5Crepo_projects.5CpRealEcu.5CcL_LATEST.5Cmake.5Coutput.5Cobjects.5CSwcApplTpms_Diag.
00000690 44            12518 	.byte	68
00000691 9f            12519 	.byte	159
00000692 00            12520 	.byte	0
00000693 40            12521 	.byte	64
00000694 9d            12522 	.byte	157
00000695 04            12523 	.byte	4
00000696 01            12524 	.byte	1
00000697 00000000*     12525 	.word	.LDW19
0000069b 00            12526 	.byte	0
                       12527 .LDW_unq_5a:
                       12528 	.section	.debug_line
0000119f 000502        12529 	.byte	0,5,2
000011a2 00000000*     12530 	.word	_DIAG__EOLRoutineReqResponse..C.3A.5C_ECU2.5CECU_Rivian_A1.5CTarget.5Crepo_projects.5CpRealEcu.5CcL_LATEST.5Cmake.5Coutput.5Cobjects.5CSwcApplTpms_Diag.
000011a6 03            12531 	.byte	3
000011a7 830a          12532 	.byte	131,10
000011a9 02            12533 	.byte	2
000011aa 00            12534 	.byte	0
000011ab 01            12535 	.byte	1
000011ac 06            12536 	.byte	6
000011ad 24            12537 	.byte	36
000011ae 000502        12538 	.byte	0,5,2
000011b1 00000000*     12539 	.word	.LDWlin156
000011b5 0b            12540 	.byte	11
000011b6 000502        12541 	.byte	0,5,2
000011b9 00000000*     12542 	.word	.LDWlin157
000011bd 0b            12543 	.byte	11

                                                                      Page 228
                                                              C:\Users\nhuliyap\AppData\Local\Temp\gh_00008941.s
000011be 0c            12544 	.byte	12
000011bf 000502        12545 	.byte	0,5,2
000011c2 00000000*     12546 	.word	.LDWlin158
000011c6 0b            12547 	.byte	11
000011c7 13            12548 	.byte	19
000011c8 0b            12549 	.byte	11
000011c9 0c            12550 	.byte	12
000011ca 02            12551 	.byte	2
000011cb 00            12552 	.byte	0
000011cc 0b            12553 	.byte	11
000011cd 1b            12554 	.byte	27
000011ce 02            12555 	.byte	2
000011cf 04            12556 	.byte	4
000011d0 000101        12557 	.byte	0,1,1
                       12558 	.section	.debug_info
                       12559 .LDW_4d22930:
00003166 0f            12560 	.byte	15
00003167 5055385f5265  12561 	.strz	"PU8_ResData"
0000316d 734461746100 
00003173 830a          12562 	.byte	131,10
00003175 30            12563 	.byte	48
00003176 01            12564 	.byte	1
00003177 00000000*     12565 	.word	.LDW_4cedab0
0000317b 00            12566 	.byte	0
0000317c 016d          12567 	.byte	1,109
                       12568 
                       12569 .LDW_4ceef08:
0000317e 1d            12570 	.byte	29
0000317f 00000000*     12571 	.word	.LDW09
00003183 00000000*     12572 	.word	.LDW19
                       12573 
                       12574 .LDW_4d22a38:
00003187 04            12575 	.byte	4
00003188 7563526f7574  12576 	.strz	"ucRoutineStatusValue"
0000318e 696e65537461 
00003194 74757356616c 
0000319a 756500 
0000319d 850a          12577 	.byte	133,10
0000319f 09            12578 	.byte	9
000031a0 01            12579 	.byte	1
000031a1 00000000*     12580 	.word	.LDW_16f9eb0
000031a5 00            12581 	.byte	0
000031a6 00            12582 	.byte	0
000031a7 015a          12583 	.byte	1,90
                       12584 
000031a9 00            12585 	.byte	0
                       12586 
000031aa 00            12587 	.byte	0
                       12588 
                       12589 .LDW_4d3c6e0:
000031ab 14            12590 	.byte	20
000031ac 48756649665f  12591 	.strz	"HufIf_DiagReqCallback"
000031b2 446961675265 
000031b8 7143616c6c62 
000031be 61636b00 
000031c2 930a          12592 	.byte	147,10
000031c4 07            12593 	.byte	7
000031c5 01            12594 	.byte	1
000031c6 00000000*     12595 	.word	.LDW_16f9eb0
000031ca 00000000*     12596 	.word	_HufIf_DiagReqCallback
000031ce 00000000*     12597 	.word	___ghs_eofn_HufIf_DiagReqCallback

                                                                      Page 229
                                                              C:\Users\nhuliyap\AppData\Local\Temp\gh_00008941.s
000031d2 0153          12598 	.byte	1,83
000031d4 828080c00b    12599 	.byte	130,128,128,192,11
000031d9 10            12600 	.byte	16
000031da 03            12601 	.byte	3
000031db 10            12602 	.byte	16
000031dc 00            12603 	.byte	0
000031dd 00            12604 	.byte	0
000031de 00            12605 	.byte	0
000031df 01            12606 	.byte	1
000031e0 01            12607 	.byte	1
000031e1 00            12608 	.byte	0
000031e2 01            12609 	.byte	1
                       12610 
                       12611 	.section	.debug_frame
                       12612 .LDW_4f12cc0:
0000069c 00000000*     12613 	.word	.LDW_unq_5c-.LDW_unq_5b
                       12614 .LDW_unq_5b:
000006a0 00000000*     12615 	.word	.LDW_4ca0d40
000006a4 00000000*     12616 	.word	_HufIf_DiagReqCallback
000006a8 00000000*     12617 	.word	___ghs_eofn_HufIf_DiagReqCallback-_HufIf_DiagReqCallback
000006ac 44            12618 	.byte	68
000006ad 9f            12619 	.byte	159
000006ae 00            12620 	.byte	0
000006af 40            12621 	.byte	64
000006b0 9d            12622 	.byte	157
000006b1 04            12623 	.byte	4
000006b2 40            12624 	.byte	64
000006b3 9c            12625 	.byte	156
000006b4 08            12626 	.byte	8
000006b5 40            12627 	.byte	64
000006b6 9b            12628 	.byte	155
000006b7 0c            12629 	.byte	12
000006b8 01            12630 	.byte	1
000006b9 00000000*     12631 	.word	.LDW99
000006bd 00            12632 	.byte	0
000006be 00            12633 	.byte	0
000006bf 00            12634 	.byte	0
                       12635 .LDW_unq_5c:
                       12636 	.section	.debug_line
000011d3 000502        12637 	.byte	0,5,2
000011d6 00000000*     12638 	.word	_HufIf_DiagReqCallback
000011da 03            12639 	.byte	3
000011db 930a          12640 	.byte	147,10
000011dd 02            12641 	.byte	2
000011de 00            12642 	.byte	0
000011df 01            12643 	.byte	1
000011e0 06            12644 	.byte	6
000011e1 03            12645 	.byte	3
000011e2 04            12646 	.byte	4
000011e3 02            12647 	.byte	2
000011e4 0a            12648 	.byte	10
000011e5 01            12649 	.byte	1
000011e6 02            12650 	.byte	2
000011e7 02            12651 	.byte	2
000011e8 0c            12652 	.byte	12
000011e9 000502        12653 	.byte	0,5,2
000011ec 00000000*     12654 	.word	.LDWlin180
000011f0 0b            12655 	.byte	11
000011f1 0b            12656 	.byte	11
000011f2 000502        12657 	.byte	0,5,2
000011f5 00000000*     12658 	.word	.LDWlin181

                                                                      Page 230
                                                              C:\Users\nhuliyap\AppData\Local\Temp\gh_00008941.s
000011f9 0b            12659 	.byte	11
000011fa 0b            12660 	.byte	11
000011fb 000502        12661 	.byte	0,5,2
000011fe 00000000*     12662 	.word	.LDWlin182
00001202 03            12663 	.byte	3
00001203 05            12664 	.byte	5
00001204 02            12665 	.byte	2
00001205 00            12666 	.byte	0
00001206 01            12667 	.byte	1
00001207 02            12668 	.byte	2
00001208 00            12669 	.byte	0
00001209 0d            12670 	.byte	13
0000120a 02            12671 	.byte	2
0000120b 00            12672 	.byte	0
0000120c 03            12673 	.byte	3
0000120d 72            12674 	.byte	114
0000120e 02            12675 	.byte	2
0000120f 00            12676 	.byte	0
00001210 01            12677 	.byte	1
00001211 000502        12678 	.byte	0,5,2
00001214 00000000*     12679 	.word	.LDWlin183
00001218 03            12680 	.byte	3
00001219 0f            12681 	.byte	15
0000121a 02            12682 	.byte	2
0000121b 00            12683 	.byte	0
0000121c 01            12684 	.byte	1
0000121d 0c            12685 	.byte	12
0000121e 06            12686 	.byte	6
0000121f 03            12687 	.byte	3
00001220 79            12688 	.byte	121
00001221 02            12689 	.byte	2
00001222 00            12690 	.byte	0
00001223 01            12691 	.byte	1
00001224 06            12692 	.byte	6
00001225 03            12693 	.byte	3
00001226 08            12694 	.byte	8
00001227 02            12695 	.byte	2
00001228 00            12696 	.byte	0
00001229 01            12697 	.byte	1
0000122a 0c            12698 	.byte	12
0000122b 1b            12699 	.byte	27
0000122c 0b            12700 	.byte	11
0000122d 0c            12701 	.byte	12
0000122e 02            12702 	.byte	2
0000122f 00            12703 	.byte	0
00001230 0c            12704 	.byte	12
00001231 000502        12705 	.byte	0,5,2
00001234 00000000*     12706 	.word	.LDWlin184
00001238 0c            12707 	.byte	12
00001239 06            12708 	.byte	6
0000123a 02            12709 	.byte	2
0000123b 02            12710 	.byte	2
0000123c 02            12711 	.byte	2
0000123d 04            12712 	.byte	4
0000123e 000101        12713 	.byte	0,1,1
                       12714 	.section	.debug_info
                       12715 .LDW_4d22250:
000031e3 0f            12716 	.byte	15
000031e4 654469616752  12717 	.strz	"eDiagRequest"
000031ea 657175657374 
000031f0 00 

                                                                      Page 231
                                                              C:\Users\nhuliyap\AppData\Local\Temp\gh_00008941.s
000031f1 930a          12718 	.byte	147,10
000031f3 3e            12719 	.byte	62
000031f4 01            12720 	.byte	1
000031f5 00000000*     12721 	.word	.LDW_4d225c0
000031f9 00            12722 	.byte	0
000031fa 016c          12723 	.byte	1,108
                       12724 
                       12725 .LDW_4d21fe8:
000031fc 0f            12726 	.byte	15
000031fd 50535f4d7367  12727 	.strz	"PS_MsgContext"
00003203 436f6e746578 
00003209 7400 
0000320b 930a          12728 	.byte	147,10
0000320d 5d            12729 	.byte	93
0000320e 01            12730 	.byte	1
0000320f 00000000*     12731 	.word	.LDW_16b6d78
00003213 00            12732 	.byte	0
00003214 016b          12733 	.byte	1,107
                       12734 
                       12735 .LDW_4ceec98:
00003216 1d            12736 	.byte	29
00003217 00000000*     12737 	.word	.LDW89
0000321b 00000000*     12738 	.word	.LDW99
                       12739 
                       12740 .LDW_4d22300:
0000321f 04            12741 	.byte	4
00003220 55385f526574  12742 	.strz	"U8_RetVal"
00003226 56616c00 
0000322a 950a          12743 	.byte	149,10
0000322c 09            12744 	.byte	9
0000322d 01            12745 	.byte	1
0000322e 00000000*     12746 	.word	.LDW_16f9eb0
00003232 00            12747 	.byte	0
00003233 00            12748 	.byte	0
00003234 016d          12749 	.byte	1,109
                       12750 
                       12751 .LDW_4d221f8:
00003236 04            12752 	.byte	4
00003237 55385f496e64  12753 	.strz	"U8_Index"
0000323d 657800 
00003240 960a          12754 	.byte	150,10
00003242 09            12755 	.byte	9
00003243 01            12756 	.byte	1
00003244 00000000*     12757 	.word	.LDW_16f9eb0
00003248 00            12758 	.byte	0
00003249 00            12759 	.byte	0
0000324a 0162          12760 	.byte	1,98
                       12761 
0000324c 00            12762 	.byte	0
                       12763 
0000324d 00            12764 	.byte	0
                       12765 
0000324e 00            12766 	.byte	0
                       12767 
                       12768 	.section	.debug_line
                       12769 .Ldw_line_end:
                       12770 	.section	.debug_macinfo
00000000 01            12771 	.byte	1
00000001 00            12772 	.byte	0
00000002 5f5f6768735f  12773 	.strz	"__ghs__ 1"
00000008 5f203100 

                                                                      Page 232
                                                              C:\Users\nhuliyap\AppData\Local\Temp\gh_00008941.s
0000000c 01            12774 	.byte	1
0000000d 00            12775 	.byte	0
0000000e 5f5f4c4c4f4e  12776 	.strz	"__LLONG_BIT 64"
00000014 475f42495420 
0000001a 363400 
0000001d 01            12777 	.byte	1
0000001e 00            12778 	.byte	0
0000001f 494254434d5f  12779 	.strz	"IBTCM_SW_ANPASSUNGEN 1"
00000025 53575f414e50 
0000002b 415353554e47 
00000031 454e203100 
00000036 01            12780 	.byte	1
00000037 00            12781 	.byte	0
00000038 4255494c445f  12782 	.strz	"BUILD_LORDSTOWN 1"
0000003e 4c4f52445354 
00000044 4f574e203100 
0000004a 03            12783 	.byte	3
0000004b 00            12784 	.byte	0
0000004c 01            12785 	.byte	1
0000004d 03            12786 	.byte	3
0000004e 03            12787 	.byte	3
0000004f 02            12788 	.byte	2
00000050 03            12789 	.byte	3
00000051 06            12790 	.byte	6
00000052 03            12791 	.byte	3
00000053 03            12792 	.byte	3
00000054 04            12793 	.byte	4
00000055 04            12794 	.byte	4
00000056 03            12795 	.byte	3
00000057 07            12796 	.byte	7
00000058 05            12797 	.byte	5
00000059 03            12798 	.byte	3
0000005a 1c            12799 	.byte	28
0000005b 06            12800 	.byte	6
0000005c 01            12801 	.byte	1
0000005d 3c            12802 	.byte	60
0000005e 545255452031  12803 	.strz	"TRUE 1u"
00000064 7500 
00000066 01            12804 	.byte	1
00000067 40            12805 	.byte	64
00000068 46414c534520  12806 	.strz	"FALSE 0u"
0000006e 307500 
00000071 04            12807 	.byte	4
00000072 03            12808 	.byte	3
00000073 1d            12809 	.byte	29
00000074 07            12810 	.byte	7
00000075 03            12811 	.byte	3
00000076 1b            12812 	.byte	27
00000077 08            12813 	.byte	8
00000078 03            12814 	.byte	3
00000079 54            12815 	.byte	84
0000007a 09            12816 	.byte	9
0000007b 04            12817 	.byte	4
0000007c 04            12818 	.byte	4
0000007d 04            12819 	.byte	4
0000007e 04            12820 	.byte	4
0000007f 04            12821 	.byte	4
00000080 01            12822 	.byte	1
00000081 0e            12823 	.byte	14
00000082 50524f445543  12824 	.strz	"PRODUCTION_SW 0x0"
00000088 54494f4e5f53 

                                                                      Page 233
                                                              C:\Users\nhuliyap\AppData\Local\Temp\gh_00008941.s
0000008e 572030783000 
00000094 01            12825 	.byte	1
00000095 0f            12826 	.byte	15
00000096 444556454c4f  12827 	.strz	"DEVELOPMENT_SW 0x1"
0000009c 504d454e545f 
000000a2 535720307831 
000000a8 00 
000000a9 01            12828 	.byte	1
000000aa 10            12829 	.byte	16
000000ab 53575f434154  12830 	.strz	"SW_CATEGORY PRODUCTION_SW"
000000b1 45474f525920 
000000b7 50524f445543 
000000bd 54494f4e5f53 
000000c3 5700 
000000c5 04            12831 	.byte	4
000000c6 01            12832 	.byte	1
000000c7 08            12833 	.byte	8
000000c8 4d41585f5349  12834 	.strz	"MAX_SIZE_WS_TELEGRAM 16U"
000000ce 5a455f57535f 
000000d4 54454c454752 
000000da 414d20313655 
000000e0 00 
000000e1 01            12835 	.byte	1
000000e2 11            12836 	.byte	17
000000e3 4e564d5f424c  12837 	.strz	"NVM_BLOCK_TYPE uint32"
000000e9 4f434b5f5459 
000000ef 50452075696e 
000000f5 74333200 
000000f9 04            12838 	.byte	4
000000fa 03            12839 	.byte	3
000000fb 04            12840 	.byte	4
000000fc 0a            12841 	.byte	10
000000fd 03            12842 	.byte	3
000000fe 06            12843 	.byte	6
000000ff 0b            12844 	.byte	11
00000100 04            12845 	.byte	4
00000101 01            12846 	.byte	1
00000102 13            12847 	.byte	19
00000103 5245545f4552  12848 	.strz	"RET_ERROR 0x01u"
00000109 524f52203078 
0000010f 30317500 
00000113 01            12849 	.byte	1
00000114 18            12850 	.byte	24
00000115 53454e534f52  12851 	.strz	"SENSOR_AUFLOESUNG_25MBAR "
0000011b 5f4155464c4f 
00000121 4553554e475f 
00000127 32354d424152 
0000012d 2000 
0000012f 04            12852 	.byte	4
00000130 03            12853 	.byte	3
00000131 05            12854 	.byte	5
00000132 0c            12855 	.byte	12
00000133 01            12856 	.byte	1
00000134 0e            12857 	.byte	14
00000135 70625f514143  12858 	.strz	"pb_QACStatic_160503 "
0000013b 537461746963 
00000141 5f3136303530 
00000147 332000 
0000014a 01            12859 	.byte	1
0000014b 16            12860 	.byte	22
0000014c 75634d617850  12861 	.strz	"ucMaxPosc 4"

                                                                      Page 234
                                                              C:\Users\nhuliyap\AppData\Local\Temp\gh_00008941.s
00000152 6f7363203400 
00000158 01            12862 	.byte	1
00000159 17            12863 	.byte	23
0000015a 756353756d57  12864 	.strz	"ucSumWEc (unsigned char) 4"
00000160 45632028756e 
00000166 7369676e6564 
0000016c 206368617229 
00000172 203400 
00000175 01            12865 	.byte	1
00000176 1c            12866 	.byte	28
00000177 756343644964  12867 	.strz	"ucCdIdWNc (unsigned short) 2"
0000017d 574e63202875 
00000183 6e7369676e65 
00000189 642073686f72 
0000018f 7429203200 
00000194 04            12868 	.byte	4
00000195 03            12869 	.byte	3
00000196 06            12870 	.byte	6
00000197 0d            12871 	.byte	13
00000198 03            12872 	.byte	3
00000199 04            12873 	.byte	4
0000019a 0e            12874 	.byte	14
0000019b 03            12875 	.byte	3
0000019c 08            12876 	.byte	8
0000019d 0f            12877 	.byte	15
0000019e 01            12878 	.byte	1
0000019f 1f            12879 	.byte	31
000001a0 46494c544552  12880 	.strz	"FILTER_SYMC_CAN_MSGS "
000001a6 5f53594d435f 
000001ac 43414e5f4d53 
000001b2 47532000 
000001b6 04            12881 	.byte	4
000001b7 01            12882 	.byte	1
000001b8 12            12883 	.byte	18
000001b9 63526164506f  12884 	.strz	"cRadPosVL ( (uint8) 0 )"
000001bf 73564c202820 
000001c5 2875696e7438 
000001cb 292030202900 
000001d1 01            12885 	.byte	1
000001d2 13            12886 	.byte	19
000001d3 63526164506f  12887 	.strz	"cRadPosVR ( (uint8) 1 )"
000001d9 735652202820 
000001df 2875696e7438 
000001e5 292031202900 
000001eb 01            12888 	.byte	1
000001ec 14            12889 	.byte	20
000001ed 63526164506f  12890 	.strz	"cRadPosHL ( (uint8) 2 )"
000001f3 73484c202820 
000001f9 2875696e7438 
000001ff 292032202900 
00000205 01            12891 	.byte	1
00000206 15            12892 	.byte	21
00000207 63526164506f  12893 	.strz	"cRadPosHR ( (uint8) 3 )"
0000020d 734852202820 
00000213 2875696e7438 
00000219 292033202900 
0000021f 01            12894 	.byte	1
00000220 16            12895 	.byte	22
00000221 63526164506f  12896 	.strz	"cRadPosRR ( (uint8) 4 )"
00000227 735252202820 
0000022d 2875696e7438 

                                                                      Page 235
                                                              C:\Users\nhuliyap\AppData\Local\Temp\gh_00008941.s
00000233 292034202900 
00000239 04            12897 	.byte	4
0000023a 04            12898 	.byte	4
0000023b 03            12899 	.byte	3
0000023c 07            12900 	.byte	7
0000023d 10            12901 	.byte	16
0000023e 01            12902 	.byte	1
0000023f 0d            12903 	.byte	13
00000240 635a5547454f  12904 	.strz	"cZUGEORDNET ((uint16) 0x0010)"
00000246 52444e455420 
0000024c 282875696e74 
00000252 313629203078 
00000258 303031302900 
0000025e 04            12905 	.byte	4
0000025f 03            12906 	.byte	3
00000260 08            12907 	.byte	8
00000261 11            12908 	.byte	17
00000262 03            12909 	.byte	3
00000263 06            12910 	.byte	6
00000264 12            12911 	.byte	18
00000265 01            12912 	.byte	1
00000266 14            12913 	.byte	20
00000267 634d6178414b  12914 	.strz	"cMaxAK35DataBytes 14U"
0000026d 333544617461 
00000273 427974657320 
00000279 31345500 
0000027d 04            12915 	.byte	4
0000027e 04            12916 	.byte	4
0000027f 03            12917 	.byte	3
00000280 09            12918 	.byte	9
00000281 13            12919 	.byte	19
00000282 01            12920 	.byte	1
00000283 36            12921 	.byte	54
00000284 6353756d5745  12922 	.strz	"cSumWE 8"
0000028a 203800 
0000028d 01            12923 	.byte	1
0000028e 37            12924 	.byte	55
0000028f 634d61784c52  12925 	.strz	"cMaxLR 4"
00000295 203400 
00000298 01            12926 	.byte	1
00000299 56            12927 	.byte	86
0000029a 756345435550  12928 	.strz	"ucECUPosFront (unsigned char) 0x55"
000002a0 6f7346726f6e 
000002a6 742028756e73 
000002ac 69676e656420 
000002b2 636861722920 
000002b8 3078353500 
000002bd 01            12929 	.byte	1
000002be 57            12930 	.byte	87
000002bf 756345435550  12931 	.strz	"ucECUPosRear (unsigned char) 0xAA"
000002c5 6f7352656172 
000002cb 2028756e7369 
000002d1 676e65642063 
000002d7 686172292030 
000002dd 78414100 
000002e1 01            12932 	.byte	1
000002e2 58            12933 	.byte	88
000002e3 756345435550  12934 	.strz	"ucECUPosNeutral (unsigned char) 0xFF"
000002e9 6f734e657574 
000002ef 72616c202875 
000002f5 6e7369676e65 

                                                                      Page 236
                                                              C:\Users\nhuliyap\AppData\Local\Temp\gh_00008941.s
000002fb 642063686172 
00000301 292030784646 
00000307 00 
00000308 01            12935 	.byte	1
00000309 9d01          12936 	.byte	157,1
0000030b 4650412000    12937 	.strz	"FPA "
00000310 01            12938 	.byte	1
00000311 9f01          12939 	.byte	159,1
00000313 4142535f5465  12940 	.strz	"ABS_Test_LOG_ENABLE "
00000319 73745f4c4f47 
0000031f 5f454e41424c 
00000325 452000 
00000328 04            12941 	.byte	4
00000329 03            12942 	.byte	3
0000032a 0a            12943 	.byte	10
0000032b 14            12944 	.byte	20
0000032c 03            12945 	.byte	3
0000032d 07            12946 	.byte	7
0000032e 15            12947 	.byte	21
0000032f 01            12948 	.byte	1
00000330 4b            12949 	.byte	75
00000331 756350526573  12950 	.strz	"ucPResInMBarc 25"
00000337 496e4d426172 
0000033d 6320323500 
00000342 04            12951 	.byte	4
00000343 01            12952 	.byte	1
00000344 66            12953 	.byte	102
00000345 455f45555f4b  12954 	.strz	"E_EU_KO_LEG ((uint8)0x01)"
0000034b 4f5f4c454720 
00000351 282875696e74 
00000357 382930783031 
0000035d 2900 
0000035f 01            12955 	.byte	1
00000360 67            12956 	.byte	103
00000361 455f55535f4c  12957 	.strz	"E_US_LEG_NON_EXTRA_LOAD_TIRES ((uint8)0x02)"
00000367 45475f4e4f4e 
0000036d 5f4558545241 
00000373 5f4c4f41445f 
00000379 544952455320 
0000037f 282875696e74 
00000385 382930783032 
0000038b 2900 
0000038d 01            12958 	.byte	1
0000038e 68            12959 	.byte	104
0000038f 455f55535f4c  12960 	.strz	"E_US_LEG_EXTRA_LOAD_TIRES ((uint8)0x03)"
00000395 45475f455854 
0000039b 52415f4c4f41 
000003a1 445f54495245 
000003a7 532028287569 
000003ad 6e7438293078 
000003b3 30332900 
000003b7 01            12961 	.byte	1
000003b8 69            12962 	.byte	105
000003b9 455f5052435f  12963 	.strz	"E_PRC_LEG ((uint8)0x04)"
000003bf 4c4547202828 
000003c5 75696e743829 
000003cb 307830342900 
000003d1 01            12964 	.byte	1
000003d2 c301          12965 	.byte	195,1
000003d4 75385f45555f  12966 	.strz	"u8_EU_MinPrs_mBar ((uint16) 1500U)"
000003da 4d696e507273 

                                                                      Page 237
                                                              C:\Users\nhuliyap\AppData\Local\Temp\gh_00008941.s
000003e0 5f6d42617220 
000003e6 282875696e74 
000003ec 313629203135 
000003f2 3030552900 
000003f7 01            12967 	.byte	1
000003f8 c401          12968 	.byte	196,1
000003fa 75385f45555f  12969 	.strz	"u8_EU_MinPrs_digits ((uint8) (u8_EU_MinPrs_mBar / ucPResInMBarc))"
00000400 4d696e507273 
00000406 5f6469676974 
0000040c 732028287569 
00000412 6e7438292028 
00000418 75385f45555f 
0000041e 4d696e507273 
00000424 5f6d42617220 
0000042a 2f2075635052 
00000430 6573496e4d42 
00000436 617263292900 
0000043c 01            12970 	.byte	1
0000043d c501          12971 	.byte	197,1
0000043f 75385f45555f  12972 	.strz	"u8_EU_Offroad_Press_mBar ((uint16) 1600U)"
00000445 4f6666726f61 
0000044b 645f50726573 
00000451 735f6d426172 
00000457 20282875696e 
0000045d 743136292031 
00000463 363030552900 
00000469 01            12973 	.byte	1
0000046a c601          12974 	.byte	198,1
0000046c 75385f45555f  12975 	.strz	"u8_EU_Offroad_Press_digits ((uint8) (u8_EU_Offroad_Press_mBar / ucPResInMBarc))"
00000472 4f6666726f61 
00000478 645f50726573 
0000047e 735f64696769 
00000484 747320282875 
0000048a 696e74382920 
00000490 2875385f4555 
00000496 5f4f6666726f 
0000049c 61645f507265 
000004a2 73735f6d4261 
000004a8 72202f207563 
000004ae 50526573496e 
000004b4 4d4261726329 
000004ba 2900 
000004bc 01            12976 	.byte	1
000004bd c801          12977 	.byte	200,1
000004bf 75385f55535f  12978 	.strz	"u8_US_NonExtra_MinPrs_mBar ((uint16) 1400U)"
000004c5 4e6f6e457874 
000004cb 72615f4d696e 
000004d1 5072735f6d42 
000004d7 617220282875 
000004dd 696e74313629 
000004e3 203134303055 
000004e9 2900 
000004eb 01            12979 	.byte	1
000004ec c901          12980 	.byte	201,1
000004ee 75385f55535f  12981 	.strz	"u8_US_Extra_MinPrs_mBar ((uint16) 1600U)"
000004f4 45787472615f 
000004fa 4d696e507273 
00000500 5f6d42617220 
00000506 282875696e74 
0000050c 313629203136 
00000512 3030552900 

                                                                      Page 238
                                                              C:\Users\nhuliyap\AppData\Local\Temp\gh_00008941.s
00000517 01            12982 	.byte	1
00000518 ca01          12983 	.byte	202,1
0000051a 75385f55535f  12984 	.strz	"u8_US_NonExtra_MinPrs_digits ((uint8) (u8_US_NonExtra_MinPrs_mBar / ucPResInMBarc))"
00000520 4e6f6e457874 
00000526 72615f4d696e 
0000052c 5072735f6469 
00000532 676974732028 
00000538 2875696e7438 
0000053e 29202875385f 
00000544 55535f4e6f6e 
0000054a 45787472615f 
00000550 4d696e507273 
00000556 5f6d42617220 
0000055c 2f2075635052 
00000562 6573496e4d42 
00000568 617263292900 
0000056e 01            12985 	.byte	1
0000056f cb01          12986 	.byte	203,1
00000571 75385f55535f  12987 	.strz	"u8_US_Extra_MinPrs_digits ((uint8) (u8_US_Extra_MinPrs_mBar / ucPResInMBarc))"
00000577 45787472615f 
0000057d 4d696e507273 
00000583 5f6469676974 
00000589 732028287569 
0000058f 6e7438292028 
00000595 75385f55535f 
0000059b 45787472615f 
000005a1 4d696e507273 
000005a7 5f6d42617220 
000005ad 2f2075635052 
000005b3 6573496e4d42 
000005b9 617263292900 
000005bf 01            12988 	.byte	1
000005c0 cc01          12989 	.byte	204,1
000005c2 75385f55535f  12990 	.strz	"u8_US_NonExtra_Offroad_Press_mBar ((uint16) 1600U)"
000005c8 4e6f6e457874 
000005ce 72615f4f6666 
000005d4 726f61645f50 
000005da 726573735f6d 
000005e0 426172202828 
000005e6 75696e743136 
000005ec 292031363030 
000005f2 552900 
000005f5 01            12991 	.byte	1
000005f6 cd01          12992 	.byte	205,1
000005f8 75385f55535f  12993 	.strz	"u8_US_Extra_Offroad_Press_mBar ((uint16) 1800U)"
000005fe 45787472615f 
00000604 4f6666726f61 
0000060a 645f50726573 
00000610 735f6d426172 
00000616 20282875696e 
0000061c 743136292031 
00000622 383030552900 
00000628 01            12994 	.byte	1
00000629 ce01          12995 	.byte	206,1
0000062b 75385f55735f  12996 	.strz	"u8_Us_NonExtra_Offroad_Press_digits ((uint8) (u8_US_NonExtra_Offroad_Press_mBar / ucPResInMBarc))"
00000631 4e6f6e457874 
00000637 72615f4f6666 
0000063d 726f61645f50 
00000643 726573735f64 
00000649 696769747320 
0000064f 282875696e74 

                                                                      Page 239
                                                              C:\Users\nhuliyap\AppData\Local\Temp\gh_00008941.s
00000655 382920287538 
0000065b 5f55535f4e6f 
00000661 6e4578747261 
00000667 5f4f6666726f 
0000066d 61645f507265 
00000673 73735f6d4261 
00000679 72202f207563 
0000067f 50526573496e 
00000685 4d4261726329 
0000068b 2900 
0000068d 01            12997 	.byte	1
0000068e cf01          12998 	.byte	207,1
00000690 75385f55735f  12999 	.strz	"u8_Us_Extra_Offroad_Press_digits ((uint8) (u8_US_Extra_Offroad_Press_mBar / ucPResInMBarc))"
00000696 45787472615f 
0000069c 4f6666726f61 
000006a2 645f50726573 
000006a8 735f64696769 
000006ae 747320282875 
000006b4 696e74382920 
000006ba 2875385f5553 
000006c0 5f4578747261 
000006c6 5f4f6666726f 
000006cc 61645f507265 
000006d2 73735f6d4261 
000006d8 72202f207563 
000006de 50526573496e 
000006e4 4d4261726329 
000006ea 2900 
000006ec 01            13000 	.byte	1
000006ed d801          13001 	.byte	216,1
000006ef 75385f505243  13002 	.strz	"u8_PRC_MinPrs_mBar ((uint16) 1500U)"
000006f5 5f4d696e5072 
000006fb 735f6d426172 
00000701 20282875696e 
00000707 743136292031 
0000070d 353030552900 
00000713 01            13003 	.byte	1
00000714 db01          13004 	.byte	219,1
00000716 75385f505243  13005 	.strz	"u8_PRC_MinPrs_digits ((uint8) (u8_PRC_MinPrs_mBar / ucPResInMBarc))"
0000071c 5f4d696e5072 
00000722 735f64696769 
00000728 747320282875 
0000072e 696e74382920 
00000734 2875385f5052 
0000073a 435f4d696e50 
00000740 72735f6d4261 
00000746 72202f207563 
0000074c 50526573496e 
00000752 4d4261726329 
00000758 2900 
0000075a 01            13006 	.byte	1
0000075b dc01          13007 	.byte	220,1
0000075d 75385f505243  13008 	.strz	"u8_PRC_Offroad_Press_mBar ((uint16) 1600U)"
00000763 5f4f6666726f 
00000769 61645f507265 
0000076f 73735f6d4261 
00000775 722028287569 
0000077b 6e7431362920 
00000781 313630305529 
00000787 00 
00000788 01            13009 	.byte	1

                                                                      Page 240
                                                              C:\Users\nhuliyap\AppData\Local\Temp\gh_00008941.s
00000789 dd01          13010 	.byte	221,1
0000078b 75385f505243  13011 	.strz	"u8_PRC_Offroad_Press_digits ((uint8) (u8_PRC_Offroad_Press_mBar / ucPResInMBarc))"
00000791 5f4f6666726f 
00000797 61645f507265 
0000079d 73735f646967 
000007a3 697473202828 
000007a9 75696e743829 
000007af 202875385f50 
000007b5 52435f4f6666 
000007bb 726f61645f50 
000007c1 726573735f6d 
000007c7 426172202f20 
000007cd 756350526573 
000007d3 496e4d426172 
000007d9 63292900 
000007dd 04            13012 	.byte	4
000007de 03            13013 	.byte	3
000007df 0b            13014 	.byte	11
000007e0 16            13015 	.byte	22
000007e1 01            13016 	.byte	1
000007e2 58            13017 	.byte	88
000007e3 7563506f7249  13018 	.strz	"ucPorInitc 1"
000007e9 6e6974632031 
000007ef 00 
000007f0 01            13019 	.byte	1
000007f1 5b            13020 	.byte	91
000007f2 756344696167  13021 	.strz	"ucDiagServicec 4"
000007f8 536572766963 
000007fe 6563203400 
00000803 01            13022 	.byte	1
00000804 64            13023 	.byte	100
00000805 756352657365  13024 	.strz	"ucResetWarnVectorc 14"
0000080b 745761726e56 
00000811 6563746f7263 
00000817 20313400 
0000081b 04            13025 	.byte	4
0000081c 03            13026 	.byte	3
0000081d 0c            13027 	.byte	12
0000081e 17            13028 	.byte	23
0000081f 04            13029 	.byte	4
00000820 03            13030 	.byte	3
00000821 0d            13031 	.byte	13
00000822 18            13032 	.byte	24
00000823 01            13033 	.byte	1
00000824 3d            13034 	.byte	61
00000825 635741506172  13035 	.strz	"cWAParameter 3U"
0000082b 616d65746572 
00000831 20335500 
00000835 01            13036 	.byte	1
00000836 3e            13037 	.byte	62
00000837 635741414253  13038 	.strz	"cWAABSTicksInOneRevolution 4U"
0000083d 5469636b7349 
00000843 6e4f6e655265 
00000849 766f6c757469 
0000084f 6f6e20345500 
00000855 04            13039 	.byte	4
00000856 03            13040 	.byte	3
00000857 0e            13041 	.byte	14
00000858 19            13042 	.byte	25
00000859 04            13043 	.byte	4
0000085a 03            13044 	.byte	3

                                                                      Page 241
                                                              C:\Users\nhuliyap\AppData\Local\Temp\gh_00008941.s
0000085b 0f            13045 	.byte	15
0000085c 1a            13046 	.byte	26
0000085d 04            13047 	.byte	4
0000085e 03            13048 	.byte	3
0000085f 10            13049 	.byte	16
00000860 1b            13050 	.byte	27
00000861 04            13051 	.byte	4
00000862 03            13052 	.byte	3
00000863 11            13053 	.byte	17
00000864 1c            13054 	.byte	28
00000865 04            13055 	.byte	4
00000866 03            13056 	.byte	3
00000867 13            13057 	.byte	19
00000868 1d            13058 	.byte	29
00000869 01            13059 	.byte	1
0000086a 08            13060 	.byte	8
0000086b 454f4c5f524f  13061 	.strz	"EOL_ROUT_NEVER_STARTED 0x00U"
00000871 55545f4e4556 
00000877 45525f535441 
0000087d 525445442030 
00000883 7830305500 
00000888 01            13062 	.byte	1
00000889 0b            13063 	.byte	11
0000088a 454f4c5f524f  13064 	.strz	"EOL_ROUT_RESERVED 0x03U"
00000890 55545f524553 
00000896 455256454420 
0000089c 307830335500 
000008a2 01            13065 	.byte	1
000008a3 0e            13066 	.byte	14
000008a4 454f4c5f524f  13067 	.strz	"EOL_ROUT_ENDED_WITH_ERROR 0x07U"
000008aa 55545f454e44 
000008b0 45445f574954 
000008b6 485f4552524f 
000008bc 522030783037 
000008c2 5500 
000008c4 04            13068 	.byte	4
000008c5 01            13069 	.byte	1
000008c6 15            13070 	.byte	21
000008c7 444941475f5f  13071 	.strz	"DIAG__TEMPERATURE_OFFSET_FOR_UNSIGNED ((sint8)40)"
000008cd 54454d504552 
000008d3 41545552455f 
000008d9 4f4646534554 
000008df 5f464f525f55 
000008e5 4e5349474e45 
000008eb 442028287369 
000008f1 6e7438293430 
000008f7 2900 
000008f9 01            13072 	.byte	1
000008fa 18            13073 	.byte	24
000008fb 444941475f5f  13074 	.strz	"DIAG__CU8_POSITIVE_RESPONSE ((uint8)0x00)"
00000901 4355385f504f 
00000907 534954495645 
0000090d 5f524553504f 
00000913 4e5345202828 
00000919 75696e743829 
0000091f 307830302900 
00000925 01            13075 	.byte	1
00000926 19            13076 	.byte	25
00000927 444941475f5f  13077 	.strz	"DIAG__CU8_NEG_RES_INVALID_FORMAT ((uint8)0x13)"
0000092d 4355385f4e45 
00000933 475f5245535f 

                                                                      Page 242
                                                              C:\Users\nhuliyap\AppData\Local\Temp\gh_00008941.s
00000939 494e56414c49 
0000093f 445f464f524d 
00000945 415420282875 
0000094b 696e74382930 
00000951 7831332900 
00000956 01            13078 	.byte	1
00000957 1c            13079 	.byte	28
00000958 444941475f5f  13080 	.strz	"DIAG__CU8_NEG_RES_CONDITIONS_NOT_CORRECT ((uint8)0x22)"
0000095e 4355385f4e45 
00000964 475f5245535f 
0000096a 434f4e444954 
00000970 494f4e535f4e 
00000976 4f545f434f52 
0000097c 524543542028 
00000982 2875696e7438 
00000988 293078323229 
0000098e 00 
0000098f 01            13081 	.byte	1
00000990 1d            13082 	.byte	29
00000991 444941475f5f  13083 	.strz	"DIAG__CU8_NEG_RES_REQUEST_OUT_OF_RANGE ((uint8)0x31)"
00000997 4355385f4e45 
0000099d 475f5245535f 
000009a3 524551554553 
000009a9 545f4f55545f 
000009af 4f465f52414e 
000009b5 474520282875 
000009bb 696e74382930 
000009c1 7833312900 
000009c6 01            13084 	.byte	1
000009c7 1f            13085 	.byte	31
000009c8 444941475f5f  13086 	.strz	"DIAG__CU8_ROUTINESTARTSTOP_LENGTH ((uint8)0x01)"
000009ce 4355385f524f 
000009d4 5554494e4553 
000009da 544152545354 
000009e0 4f505f4c454e 
000009e6 475448202828 
000009ec 75696e743829 
000009f2 307830312900 
000009f8 01            13087 	.byte	1
000009f9 20            13088 	.byte	32
000009fa 444941475f5f  13089 	.strz	"DIAG__CU8_ROUTINERESULT_LENGTH ((uint8)0x00)"
00000a00 4355385f524f 
00000a06 5554494e4552 
00000a0c 4553554c545f 
00000a12 4c454e475448 
00000a18 20282875696e 
00000a1e 743829307830 
00000a24 302900 
00000a27 01            13090 	.byte	1
00000a28 22            13091 	.byte	34
00000a29 444941475f5f  13092 	.strz	"DIAG__CU8_ROUTINESTOP ((uint8)0x00)"
00000a2f 4355385f524f 
00000a35 5554494e4553 
00000a3b 544f50202828 
00000a41 75696e743829 
00000a47 307830302900 
00000a4d 04            13093 	.byte	4
00000a4e 00            13094 	.byte	0
                       13095 	.section	.debug_abbrev
000001aa 00            13096 	.byte	0
                       13097 	.section	.debug_info

                                                                      Page 243
                                                              C:\Users\nhuliyap\AppData\Local\Temp\gh_00008941.s
                       13098 .Ldw_end:
                       13099 .rh850_flags REGMODE32,DATA_ALIGN8,GP_FIX,EP_NONFIX,TP_FIX,REG2_RESERVE,G3K,GHS_MISALIGN,SDA_EXTRA_REGS_0
