                                                                      Page 1
                                                              C:\Users\nhuliyap\AppData\Local\Temp\gh_00006601.s
Command Line: C:\ghs\comp_201517\ease850.exe -w -elf -b0 -I../source/common -I../source/ProjectCompiler -I../source/ProjectCfg -I../source/SwcApplTpms -I../source/SwcApplTpms/Intface -I../source/SwcApplEcuM -I../source/SwcServiceEcuM -I../source/SwcServiceNvM -I../source/SwcServiceOs -I../source/SwcServiceStartUp -I../source/McalAdc -I../source/McalDio -I../source/McalGpt -I../source/McalMcu -I../source/McalWdg -I../source/wrappers -I../source/wrappers/McalAta -I../source/McalLin -I../source/McalCan -I../source/wrappers/OS -I../source/McalFls -I../source/EcuabFee -I../source/EcuabMemIf -I../source/wrappers/VStdLib -I../source/wrappers/Crc -I../source/wrappers/FBL_APPL -I../source/wrappers/CAN_MANAGER -I../source/wrappers/NVM_MANAGER -I../source/wrappers/DEM_MANAGER -I../source/wrappers/RDC_MANAGER -I../source/wrappers/ENV_MANAGER -I../source/wrappers/SYS_MANAGER -I../source/wrappers/EcuabCanIf -I../source/wrappers/SwcServiceCanSM -I../source/wrappers/SwcServiceCanTp -I../source/wrappers/SwcServiceCanTp_PreCompile -I../source/wrappers/SwcServiceCom -I../source/wrappers/SwcServiceComM -I../source/wrappers/SwcServiceComStack -I../source/wrappers/SwcServiceDcm -I../source/wrappers/SwcServicePduR -I../source/wrappers/SwcServiceEcuM -I../source/wrappers/Bfx -I../source/wrappers/SwcServiceDem -I../source/SwcServiceDet -I../source/SwcServiceFiM -I../source/wrappers/LibAutosarDiag -I../source/wrappers/rba_BswSrv -I../source/SwcServiceSchM -I../source/wrappers/SwcServiceComM/Integration -I../source/wrappers/SwcServicePduR/Integration -I../source/wrappers/EcuabCanIf/Integration -I../source/wrappers/SwcServiceCom/Integration -I../source/wrappers/SwcServiceCanTp/Integration -I../source/wrappers/SwcServiceEcuM/Integration -I../source/SwcServiceDet/Integration -I../source/wrappers/SwcServiceDcm/Integration -I../source/wrappers/SwcServiceDem/Integration -I../source/SwcServiceFiM/Integration -I../source/wrappers/EcuabCanIf/api -I../source/wrappers/SwcServiceCom/api -I../source/wrappers/SwcServiceComM/api -I../source/wrappers/SwcServicePduR/api -I../source/wrappers/Bfx/api -I../source/SwcServiceDet/api -I../source/SwcServiceFiM/api -I../source/wrappers/LibAutosarDiag/api -I../source/wrappers/rba_BswSrv/api -IC:\ghs\comp_201517\lib\rh850 -cg_underscore -cpu=rh850g3k -no_v850_simd -rh850_fpsimd=none -nomacro -patch_dbo=C:\_ECU2\ECU_Rivian_A1\Target\repo_projects\pRealEcu\cL_LATEST\make\output\objects\SwcApplTpms_DevCanMessages.dbo -source=SwcApplTpms_DevCanMessages.c -o output\objects\gh_00006601.o -list=output\list\SwcApplTpms_DevCanMessages.lst C:\Users\nhuliyap\AppData\Local\Temp\gh_00006601.s 
Original File: C:\Users\nhuliyap\AppData\Local\Temp\gh_00006601.s
Source File: SwcApplTpms_DevCanMessages.c
Directory: C:\_ECU2\ECU_Rivian_A1\Target\repo_projects\pRealEcu\cL_LATEST\make
Host OS: Windows
EASE: Copyright (C) 1983-2015 Green Hills Software.  All Rights Reserved.
Release: Compiler v2015.1.7
Build Directory: [Directory] BTOWORKER6:c:/build_2015_1_bto/2015-10-21.2100-2015_1_bto/win32-comp-ecom
Revision: [VCInfo] http://toolsvc/branches/release-branch-70-bto/src@544153 (built by build)
Revision Date: Thu Oct 22 07:50:13 2015

Release Date: Thu Oct 22 09:32:32 2015

                           1 --Driver Command: ccv850 ../source/SwcApplTpms/SwcApplTpms_DevCanMessages.c
                           2 --		-cpu=rh850 -fhard -ignore_callt_state_in_interrupts -large_sda
                           3 --		-misalign_pack -nofarcalls -nofloatio -no_callt -Ogeneral
                           4 --		-Onounroll -prepare_dispose -registermode=32 -reserve_r2 -sda=0
                           5 --		-shorten_loads -Wshadow --brief_diagnostics --no_commons
                           6 --		--no_wrap_diagnostics --prototype_errors --short_enum -list -G
                           7 --		-dual_debug -dwarf -X5523 -lnk=-no_xda_modifications -D
                           8 --		NOT_READY_FOR_TESTING_OR_DEPLOYMENT -D IBTCM_SW_ANPASSUNGEN -D
                           9 --		BUILD_LORDSTOWN -c -inline_prologue -I../source/common
                          10 --		-I../source/ProjectCompiler -I../source/ProjectCfg
                          11 --		-I../source/SwcApplTpms -I../source/SwcApplTpms/Intface
                          12 --		-I../source/SwcApplEcuM -I../source/SwcServiceEcuM
                          13 --		-I../source/SwcServiceNvM -I../source/SwcServiceOs
                          14 --		-I../source/SwcServiceStartUp -I../source/McalAdc
                          15 --		-I../source/McalDio -I../source/McalGpt -I../source/McalMcu
                          16 --		-I../source/McalWdg -I../source/wrappers
                          17 --		-I../source/wrappers/McalAta -I../source/McalLin
                          18 --		-I../source/McalCan -I../source/wrappers/OS -I../source/McalFls
                          19 --		-I../source/EcuabFee -I../source/EcuabMemIf
                          20 --		-I../source/wrappers/VStdLib -I../source/wrappers
                          21 --		-I../source/wrappers/Crc -I../source/wrappers/FBL_APPL
                          22 --		-I../source/wrappers/CAN_MANAGER -I../source/wrappers/NVM_MANAGER
                          23 --		-I../source/wrappers/DEM_MANAGER -I../source/wrappers/RDC_MANAGER
                          24 --		-I../source/wrappers/ENV_MANAGER -I../source/wrappers/SYS_MANAGER
                          25 --		-I../source/wrappers/EcuabCanIf
                          26 --		-I../source/wrappers/SwcServiceCanSM
                          27 --		-I../source/wrappers/SwcServiceCanTp
                          28 --		-I../source/wrappers/SwcServiceCanTp_PreCompile
                          29 --		-I../source/wrappers/SwcServiceCom
                          30 --		-I../source/wrappers/SwcServiceComM
                          31 --		-I../source/wrappers/SwcServiceComStack
                          32 --		-I../source/wrappers/SwcServiceDcm
                          33 --		-I../source/wrappers/SwcServicePduR
                          34 --		-I../source/wrappers/SwcServiceEcuM -I../source/wrappers/Bfx
                          35 --		-I../source/wrappers/SwcServiceDem -I../source/SwcServiceDet
                          36 --		-I../source/SwcServiceFiM -I../source/wrappers/LibAutosarDiag
                          37 --		-I../source/wrappers/rba_BswSrv -I../source/SwcServiceSchM
                          38 --		-I../source/wrappers/SwcServiceComM/Integration
                          39 --		-I../source/wrappers/SwcServicePduR/Integration
                          40 --		-I../source/wrappers/EcuabCanIf/Integration
                          41 --		-I../source/wrappers/SwcServiceCom/Integration
                          42 --		-I../source/wrappers/SwcServiceCanTp/Integration
                          43 --		-I../source/wrappers/SwcServiceEcuM/Integration
                          44 --		-I../source/SwcServiceDet/Integration
                          45 --		-I../source/wrappers/SwcServiceDcm/Integration
                          46 --		-I../source/wrappers/SwcServiceDem/Integration
                          47 --		-I../source/SwcServiceFiM/Integration
                          48 --		-I../source/wrappers/EcuabCanIf/api
                          49 --		-I../source/wrappers/SwcServiceCom/api
                          50 --		-I../source/wrappers/SwcServiceComM/api

                                                                      Page 2
                                                              C:\Users\nhuliyap\AppData\Local\Temp\gh_00006601.s
                          51 --		-I../source/wrappers/SwcServicePduR/api
                          52 --		-I../source/wrappers/Bfx/api -I../source/SwcServiceDet/api
                          53 --		-I../source/SwcServiceFiM/api
                          54 --		-I../source/wrappers/LibAutosarDiag/api
                          55 --		-I../source/wrappers/rba_BswSrv/api -object_dir=output/objects
                          56 --		-list_dir=output/list
                          57 --Source File:   ../source/SwcApplTpms/SwcApplTpms_DevCanMessages.c
                          58 --Directory:     
                          59 --		C:\_ECU2\ECU_Rivian_A1\Target\repo_projects\pRealEcu\cL_LATEST\make
                          60 --Compile Date:  Wed Sep 06 09:45:08 2023
                          61 --Host OS:       Win32
                          62 --Version:       C-RH850 2015.1.7 RELEASE VERSION
                          63 --Release:       Compiler v2015.1.7
                          64 --Revision Date: Thu Oct 22 08:06:12 2015
                          65 --Release Date:  Thu Oct 22 09:34:32 2015
                          66 -- ecom  -g -w -OM
                          67 	.text
                          68 ..bof.C.3A.5C_ECU2.5CECU_Rivian_A1.5CTarget.5Crepo_projects.5CpRealEcu.5CcL_LATEST.5Cmake.5Coutput.5Cobjects.5CSwcApplTpms_DevCanMessages...43.3A.5C_ECU2.5CECU_Rivian_A1.5CTarget.5Crepo_projects.5CpRealEcu.5CcL_LATEST.5Cmake..64F82E04..0::
                          69 	.align	2
                          70 ..gh.f.f.1.e.0:
                          71 	.type	..gh.f.f.1.e.0,@object
                          72 	.size	..gh.f.f.1.e.0,0
                          73 	.global	_DCM_MessageUpdateMultiplex_00..C.3A.5C_ECU2.5CECU_Rivian_A1.5CTarget.5Crepo_projects.5CpRealEcu.5CcL_LATEST.5Cmake.5Coutput.5Cobjects.5CSwcApplTpms_DevCanMessages.
                          74 _DCM_MessageUpdateMultiplex_00..C.3A.5C_ECU2.5CECU_Rivian_A1.5CTarget.5Crepo_projects.5CpRealEcu.5CcL_LATEST.5Cmake.5Coutput.5Cobjects.5CSwcApplTpms_DevCanMessages.:
                          75 _DCM_MessageUpdateMultiplex_00:
00000000 80076110         76 	prepare	{r27,r29,r31},0
00000004 06d8             77 	mov	r6,r27
00000006 9b00             78 	zxb	r27
00000008 3d0600000000*    79 	mov	.L33,r29
                          80 --	    .bf
                          81 .LDW01:
                          82 --line232
                          83 ..lin.C.3A.5C_ECU2.5CECU_Rivian_A1.5CTarget.5Crepo_projects.5CpRealEcu.5CcL_LATEST.5Cmake.5Coutput.5Cobjects.5CSwcApplTpms_DevCanMessages.1::
                          84 .LDWlin1:
0000000e 5d078008         85 	st.b	zero,2176[r29]
00000012 1d368108         86 	addi	2177,r29,r6
                          87 	jarl	_DCM_InvIf_RFTimeStampGetValue,lp
                          87 <EXPANSION BEGIN>
                          87 jarl22 _DCM_InvIf_RFTimeStampGetValue , lp 
00000016 80ff0000*        87 <EXPANSION END>
                          88 --line234
                          89 ..lin.C.3A.5C_ECU2.5CECU_Rivian_A1.5CTarget.5Crepo_projects.5CpRealEcu.5CcL_LATEST.5Cmake.5Coutput.5Cobjects.5CSwcApplTpms_DevCanMessages.2::
                          90 .LDWlin2:
0000001a 1d368408         91 	addi	2180,r29,r6
                          92 	jarl	_DCM_InvIf_LastRxIDGetValue,lp
                          92 <EXPANSION BEGIN>
                          92 jarl22 _DCM_InvIf_LastRxIDGetValue , lp 
0000001e 80ff0000*        92 <EXPANSION END>
                          93 --line236
                          94 ..lin.C.3A.5C_ECU2.5CECU_Rivian_A1.5CTarget.5Crepo_projects.5CpRealEcu.5CcL_LATEST.5Cmake.5Coutput.5Cobjects.5CSwcApplTpms_DevCanMessages.3::
                          95 .LDWlin3:
00000022 3d8f8108         96 	ld.w	2176[r29],r17
00000026 3d878508         97 	ld.w	2180[r29],r16
0000002a 1bf0             98 	mov	r27,ep
0000002c c3f2             99 	shl	3,ep
0000002e ddf1            100 	add	r29,ep
00000030 058d            101 	sst.w	r17,8[ep]
00000032 0785            102 	sst.w	r16,12[ep]
                         103 --	    .ef
                         104 .LDW11:
00000034 40067f10        105 	dispose	0,{r27,r29,r31},[lp]

                                                                      Page 3
                                                              C:\Users\nhuliyap\AppData\Local\Temp\gh_00006601.s
                         106 ___ghs_eofn_DCM_MessageUpdateMultiplex_00:
                         107 	.type	_DCM_MessageUpdateMultiplex_00,@function
                         108 	.size	_DCM_MessageUpdateMultiplex_00,.-_DCM_MessageUpdateMultiplex_00
                         109 	.type	_DCM_MessageUpdateMultiplex_00..C.3A.5C_ECU2.5CECU_Rivian_A1.5CTarget.5Crepo_projects.5CpRealEcu.5CcL_LATEST.5Cmake.5Coutput.5Cobjects.5CSwcApplTpms_DevCanMessages.,@function
                         110 	.size	_DCM_MessageUpdateMultiplex_00..C.3A.5C_ECU2.5CECU_Rivian_A1.5CTarget.5Crepo_projects.5CpRealEcu.5CcL_LATEST.5Cmake.5Coutput.5Cobjects.5CSwcApplTpms_DevCanMessages.,.-_DCM_MessageUpdateMultiplex_00..C.3A.5C_ECU2.5CECU_Rivian_A1.5CTarget.5Crepo_projects.5CpRealEcu.5CcL_LATEST.5Cmake.5Coutput.5Cobjects.5CSwcApplTpms_DevCanMessages.
                         111 	.align	2
                         112 
                         113 --_U8_CfgArrPosition	r27	param
                         114 
                         115 	.section ".bss","awb"
                         116 	.align	4
                         117 .L33:
                         118 	.type	.L33,@object
                         119 	.size	.L33,0
                         120 	.global	_bo_StructSystemMultiLast..C.3A.5C_ECU2.5CECU_Rivian_A1.5CTarget.5Crepo_projects.5CpRealEcu.5CcL_LATEST.5Cmake.5Coutput.5Cobjects.5CSwcApplTpms_DevCanMessages.
                         121 _bo_StructSystemMultiLast..C.3A.5C_ECU2.5CECU_Rivian_A1.5CTarget.5Crepo_projects.5CpRealEcu.5CcL_LATEST.5Cmake.5Coutput.5Cobjects.5CSwcApplTpms_DevCanMessages.:
00000000 00              122 _bo_StructSystemMultiLast:	.space	1
                         123 	.type	_bo_StructSystemMultiLast..C.3A.5C_ECU2.5CECU_Rivian_A1.5CTarget.5Crepo_projects.5CpRealEcu.5CcL_LATEST.5Cmake.5Coutput.5Cobjects.5CSwcApplTpms_DevCanMessages.,@object
                         124 	.size	_bo_StructSystemMultiLast..C.3A.5C_ECU2.5CECU_Rivian_A1.5CTarget.5Crepo_projects.5CpRealEcu.5CcL_LATEST.5Cmake.5Coutput.5Cobjects.5CSwcApplTpms_DevCanMessages.,1
                         125 	.type	_bo_StructSystemMultiLast,@object
                         126 	.size	_bo_StructSystemMultiLast,1
                         127 	.global	_u8_EnvReadCnt..C.3A.5C_ECU2.5CECU_Rivian_A1.5CTarget.5Crepo_projects.5CpRealEcu.5CcL_LATEST.5Cmake.5Coutput.5Cobjects.5CSwcApplTpms_DevCanMessages.
                         128 _u8_EnvReadCnt..C.3A.5C_ECU2.5CECU_Rivian_A1.5CTarget.5Crepo_projects.5CpRealEcu.5CcL_LATEST.5Cmake.5Coutput.5Cobjects.5CSwcApplTpms_DevCanMessages.:
00000001 00              129 _u8_EnvReadCnt:	.space	1
                         130 	.type	_u8_EnvReadCnt..C.3A.5C_ECU2.5CECU_Rivian_A1.5CTarget.5Crepo_projects.5CpRealEcu.5CcL_LATEST.5Cmake.5Coutput.5Cobjects.5CSwcApplTpms_DevCanMessages.,@object
                         131 	.size	_u8_EnvReadCnt..C.3A.5C_ECU2.5CECU_Rivian_A1.5CTarget.5Crepo_projects.5CpRealEcu.5CcL_LATEST.5Cmake.5Coutput.5Cobjects.5CSwcApplTpms_DevCanMessages.,1
                         132 	.type	_u8_EnvReadCnt,@object
                         133 	.size	_u8_EnvReadCnt,1
                         134 	.global	_u8_SysReadCnt..C.3A.5C_ECU2.5CECU_Rivian_A1.5CTarget.5Crepo_projects.5CpRealEcu.5CcL_LATEST.5Cmake.5Coutput.5Cobjects.5CSwcApplTpms_DevCanMessages.
                         135 _u8_SysReadCnt..C.3A.5C_ECU2.5CECU_Rivian_A1.5CTarget.5Crepo_projects.5CpRealEcu.5CcL_LATEST.5Cmake.5Coutput.5Cobjects.5CSwcApplTpms_DevCanMessages.:
00000002 00              136 _u8_SysReadCnt:	.space	1
                         137 	.type	_u8_SysReadCnt..C.3A.5C_ECU2.5CECU_Rivian_A1.5CTarget.5Crepo_projects.5CpRealEcu.5CcL_LATEST.5Cmake.5Coutput.5Cobjects.5CSwcApplTpms_DevCanMessages.,@object
                         138 	.size	_u8_SysReadCnt..C.3A.5C_ECU2.5CECU_Rivian_A1.5CTarget.5Crepo_projects.5CpRealEcu.5CcL_LATEST.5Cmake.5Coutput.5Cobjects.5CSwcApplTpms_DevCanMessages.,1
                         139 	.type	_u8_SysReadCnt,@object
                         140 	.size	_u8_SysReadCnt,1
                         141 	.global	_u8_EnvWriteCnt..C.3A.5C_ECU2.5CECU_Rivian_A1.5CTarget.5Crepo_projects.5CpRealEcu.5CcL_LATEST.5Cmake.5Coutput.5Cobjects.5CSwcApplTpms_DevCanMessages.
                         142 _u8_EnvWriteCnt..C.3A.5C_ECU2.5CECU_Rivian_A1.5CTarget.5Crepo_projects.5CpRealEcu.5CcL_LATEST.5Cmake.5Coutput.5Cobjects.5CSwcApplTpms_DevCanMessages.:
00000003 00              143 _u8_EnvWriteCnt:	.space	1
                         144 	.type	_u8_EnvWriteCnt..C.3A.5C_ECU2.5CECU_Rivian_A1.5CTarget.5Crepo_projects.5CpRealEcu.5CcL_LATEST.5Cmake.5Coutput.5Cobjects.5CSwcApplTpms_DevCanMessages.,@object
                         145 	.size	_u8_EnvWriteCnt..C.3A.5C_ECU2.5CECU_Rivian_A1.5CTarget.5Crepo_projects.5CpRealEcu.5CcL_LATEST.5Cmake.5Coutput.5Cobjects.5CSwcApplTpms_DevCanMessages.,1
                         146 	.type	_u8_EnvWriteCnt,@object
                         147 	.size	_u8_EnvWriteCnt,1
                         148 	.global	_u8_SysWriteCnt..C.3A.5C_ECU2.5CECU_Rivian_A1.5CTarget.5Crepo_projects.5CpRealEcu.5CcL_LATEST.5Cmake.5Coutput.5Cobjects.5CSwcApplTpms_DevCanMessages.
                         149 _u8_SysWriteCnt..C.3A.5C_ECU2.5CECU_Rivian_A1.5CTarget.5Crepo_projects.5CpRealEcu.5CcL_LATEST.5Cmake.5Coutput.5Cobjects.5CSwcApplTpms_DevCanMessages.:
00000004 00              150 _u8_SysWriteCnt:	.space	1
                         151 	.type	_u8_SysWriteCnt..C.3A.5C_ECU2.5CECU_Rivian_A1.5CTarget.5Crepo_projects.5CpRealEcu.5CcL_LATEST.5Cmake.5Coutput.5Cobjects.5CSwcApplTpms_DevCanMessages.,@object
                         152 	.size	_u8_SysWriteCnt..C.3A.5C_ECU2.5CECU_Rivian_A1.5CTarget.5Crepo_projects.5CpRealEcu.5CcL_LATEST.5Cmake.5Coutput.5Cobjects.5CSwcApplTpms_DevCanMessages.,1
                         153 	.type	_u8_SysWriteCnt,@object
                         154 	.size	_u8_SysWriteCnt,1
                         155 	.global	_DCM_U8_EventDataMaxMultiplexNr..C.3A.5C_ECU2.5CECU_Rivian_A1.5CTarget.5Crepo_projects.5CpRealEcu.5CcL_LATEST.5Cmake.5Coutput.5Cobjects.5CSwcApplTpms_DevCanMessages.
                         156 _DCM_U8_EventDataMaxMultiplexNr..C.3A.5C_ECU2.5CECU_Rivian_A1.5CTarget.5Crepo_projects.5CpRealEcu.5CcL_LATEST.5Cmake.5Coutput.5Cobjects.5CSwcApplTpms_DevCanMessages.:
00000005 00              157 _DCM_U8_EventDataMaxMultiplexNr:	.space	1
                         158 	.type	_DCM_U8_EventDataMaxMultiplexNr..C.3A.5C_ECU2.5CECU_Rivian_A1.5CTarget.5Crepo_projects.5CpRealEcu.5CcL_LATEST.5Cmake.5Coutput.5Cobjects.5CSwcApplTpms_DevCanMessages.,@object
                         159 	.size	_DCM_U8_EventDataMaxMultiplexNr..C.3A.5C_ECU2.5CECU_Rivian_A1.5CTarget.5Crepo_projects.5CpRealEcu.5CcL_LATEST.5Cmake.5Coutput.5Cobjects.5CSwcApplTpms_DevCanMessages.,1
                         160 	.type	_DCM_U8_EventDataMaxMultiplexNr,@object
                         161 	.size	_DCM_U8_EventDataMaxMultiplexNr,1
                         162 	.global	_DCM_U8_SystemDataMaxMultiplexNr..C.3A.5C_ECU2.5CECU_Rivian_A1.5CTarget.5Crepo_projects.5CpRealEcu.5CcL_LATEST.5Cmake.5Coutput.5Cobjects.5CSwcApplTpms_DevCanMessages.
                         163 _DCM_U8_SystemDataMaxMultiplexNr..C.3A.5C_ECU2.5CECU_Rivian_A1.5CTarget.5Crepo_projects.5CpRealEcu.5CcL_LATEST.5Cmake.5Coutput.5Cobjects.5CSwcApplTpms_DevCanMessages.:
00000006 00              164 _DCM_U8_SystemDataMaxMultiplexNr:	.space	1
                         165 	.type	_DCM_U8_SystemDataMaxMultiplexNr..C.3A.5C_ECU2.5CECU_Rivian_A1.5CTarget.5Crepo_projects.5CpRealEcu.5CcL_LATEST.5Cmake.5Coutput.5Cobjects.5CSwcApplTpms_DevCanMessages.,@object
                         166 	.size	_DCM_U8_SystemDataMaxMultiplexNr..C.3A.5C_ECU2.5CECU_Rivian_A1.5CTarget.5Crepo_projects.5CpRealEcu.5CcL_LATEST.5Cmake.5Coutput.5Cobjects.5CSwcApplTpms_DevCanMessages.,1

                                                                      Page 4
                                                              C:\Users\nhuliyap\AppData\Local\Temp\gh_00006601.s
                         167 	.type	_DCM_U8_SystemDataMaxMultiplexNr,@object
                         168 	.size	_DCM_U8_SystemDataMaxMultiplexNr,1
                         169 	.section ".rodata","a"
                         170 	.align	4
                         171 	.global	_DCM_AS_ConfigureEventMultiplexMsg..C.3A.5C_ECU2.5CECU_Rivian_A1.5CTarget.5Crepo_projects.5CpRealEcu.5CcL_LATEST.5Cmake.5Coutput.5Cobjects.5CSwcApplTpms_DevCanMessages.
                         172 _DCM_AS_ConfigureEventMultiplexMsg..C.3A.5C_ECU2.5CECU_Rivian_A1.5CTarget.5Crepo_projects.5CpRealEcu.5CcL_LATEST.5Cmake.5Coutput.5Cobjects.5CSwcApplTpms_DevCanMessages.:
00000000 00              173 _DCM_AS_ConfigureEventMultiplexMsg:	.space	1
00000001 000000          174 	.space	3
00000004 00000000*       175 	.word	_DCM_MessageUpdateMultiplex_00
00000008 01              176 	.byte	1
00000009 000000          177 	.space	3
0000000c 00000000*       178 	.word	_DCM_MessageUpdateMultiplex_01
00000010 02              179 	.byte	2
00000011 000000          180 	.space	3
00000014 00000000*       181 	.word	_DCM_MessageUpdateMultiplex_02
00000018 03              182 	.byte	3
00000019 000000          183 	.space	3
0000001c 00000000*       184 	.word	_DCM_MessageUpdateMultiplex_03
00000020 04              185 	.byte	4
00000021 000000          186 	.space	3
00000024 00000000*       187 	.word	_DCM_MessageUpdateMultiplex_04
00000028 05              188 	.byte	5
00000029 000000          189 	.space	3
0000002c 00000000*       190 	.word	_DCM_MessageUpdateMultiplex_05
00000030 14              191 	.byte	20
00000031 000000          192 	.space	3
00000034 00000000*       193 	.word	_DCM_MessageUpdateMultiplex_20
00000038 15              194 	.byte	21
00000039 000000          195 	.space	3
0000003c 00000000*       196 	.word	_DCM_MessageUpdateMultiplex_21
                         197 	.type	_DCM_AS_ConfigureEventMultiplexMsg..C.3A.5C_ECU2.5CECU_Rivian_A1.5CTarget.5Crepo_projects.5CpRealEcu.5CcL_LATEST.5Cmake.5Coutput.5Cobjects.5CSwcApplTpms_DevCanMessages.,@object
                         198 	.size	_DCM_AS_ConfigureEventMultiplexMsg..C.3A.5C_ECU2.5CECU_Rivian_A1.5CTarget.5Crepo_projects.5CpRealEcu.5CcL_LATEST.5Cmake.5Coutput.5Cobjects.5CSwcApplTpms_DevCanMessages.,64
                         199 	.type	_DCM_AS_ConfigureEventMultiplexMsg,@object
                         200 	.size	_DCM_AS_ConfigureEventMultiplexMsg,64
                         201 	.section ".bss","awb"
00000007 00              202 	.space	1
                         203 	.global	_DCM_S_LastEventDataReceivedOnMultiplex..C.3A.5C_ECU2.5CECU_Rivian_A1.5CTarget.5Crepo_projects.5CpRealEcu.5CcL_LATEST.5Cmake.5Coutput.5Cobjects.5CSwcApplTpms_DevCanMessages.
                         204 _DCM_S_LastEventDataReceivedOnMultiplex..C.3A.5C_ECU2.5CECU_Rivian_A1.5CTarget.5Crepo_projects.5CpRealEcu.5CcL_LATEST.5Cmake.5Coutput.5Cobjects.5CSwcApplTpms_DevCanMessages.:
00000008 000000000000    205 _DCM_S_LastEventDataReceivedOnMultiplex:	.space	64
0000000e 000000000000 
00000014 000000000000 
0000001a 000000000000 
00000020 000000000000 
00000026 000000000000 
0000002c 000000000000 
00000032 000000000000 
00000038 000000000000 
0000003e 000000000000 
00000044 00000000 
                         206 	.type	_DCM_S_LastEventDataReceivedOnMultiplex..C.3A.5C_ECU2.5CECU_Rivian_A1.5CTarget.5Crepo_projects.5CpRealEcu.5CcL_LATEST.5Cmake.5Coutput.5Cobjects.5CSwcApplTpms_DevCanMessages.,@object
                         207 	.size	_DCM_S_LastEventDataReceivedOnMultiplex..C.3A.5C_ECU2.5CECU_Rivian_A1.5CTarget.5Crepo_projects.5CpRealEcu.5CcL_LATEST.5Cmake.5Coutput.5Cobjects.5CSwcApplTpms_DevCanMessages.,64
                         208 	.type	_DCM_S_LastEventDataReceivedOnMultiplex,@object
                         209 	.size	_DCM_S_LastEventDataReceivedOnMultiplex,64
                         210 	.global	_S_HufEnvMsgBuf..C.3A.5C_ECU2.5CECU_Rivian_A1.5CTarget.5Crepo_projects.5CpRealEcu.5CcL_LATEST.5Cmake.5Coutput.5Cobjects.5CSwcApplTpms_DevCanMessages.
                         211 _S_HufEnvMsgBuf..C.3A.5C_ECU2.5CECU_Rivian_A1.5CTarget.5Crepo_projects.5CpRealEcu.5CcL_LATEST.5Cmake.5Coutput.5Cobjects.5CSwcApplTpms_DevCanMessages.:
00000048 000000000000    212 _S_HufEnvMsgBuf:	.space	1984
0000004e 000000000000 
00000054 000000000000 
0000005a 000000000000 
00000060 000000000000 
00000066 000000000000 

                                                                      Page 5
                                                              C:\Users\nhuliyap\AppData\Local\Temp\gh_00006601.s
0000006c 000000000000 
00000072 000000000000 
00000078 000000000000 
0000007e 000000000000 
00000084 000000000000 
0000008a 000000000000 
00000090 000000000000 
00000096 000000000000 
0000009c 000000000000 
000000a2 000000000000 
000000a8 000000000000 
000000ae 000000000000 
000000b4 000000000000 
000000ba 000000000000 
000000c0 000000000000 
000000c6 000000000000 
000000cc 000000000000 
000000d2 000000000000 
000000d8 000000000000 
000000de 000000000000 
000000e4 000000000000 
000000ea 000000000000 
000000f0 000000000000 
000000f6 000000000000 
000000fc 000000000000 
00000102 000000000000 
00000108 000000000000 
0000010e 000000000000 
00000114 000000000000 
0000011a 000000000000 
00000120 000000000000 
00000126 000000000000 
0000012c 000000000000 
00000132 000000000000 
00000138 000000000000 
0000013e 000000000000 
00000144 00000000 
                         213 	.type	_S_HufEnvMsgBuf..C.3A.5C_ECU2.5CECU_Rivian_A1.5CTarget.5Crepo_projects.5CpRealEcu.5CcL_LATEST.5Cmake.5Coutput.5Cobjects.5CSwcApplTpms_DevCanMessages.,@object
                         214 	.size	_S_HufEnvMsgBuf..C.3A.5C_ECU2.5CECU_Rivian_A1.5CTarget.5Crepo_projects.5CpRealEcu.5CcL_LATEST.5Cmake.5Coutput.5Cobjects.5CSwcApplTpms_DevCanMessages.,1984
                         215 	.type	_S_HufEnvMsgBuf,@object
                         216 	.size	_S_HufEnvMsgBuf,1984
                         217 	.global	_S_HufSysMsgBuf..C.3A.5C_ECU2.5CECU_Rivian_A1.5CTarget.5Crepo_projects.5CpRealEcu.5CcL_LATEST.5Cmake.5Coutput.5Cobjects.5CSwcApplTpms_DevCanMessages.
                         218 _S_HufSysMsgBuf..C.3A.5C_ECU2.5CECU_Rivian_A1.5CTarget.5Crepo_projects.5CpRealEcu.5CcL_LATEST.5Cmake.5Coutput.5Cobjects.5CSwcApplTpms_DevCanMessages.:
00000808 000000000000    219 _S_HufSysMsgBuf:	.space	120
0000080e 000000000000 
00000814 000000000000 
0000081a 000000000000 
00000820 000000000000 
00000826 000000000000 
0000082c 000000000000 
00000832 000000000000 
00000838 000000000000 
0000083e 000000000000 
00000844 000000000000 
0000084a 000000000000 
00000850 000000000000 
00000856 000000000000 
0000085c 000000000000 
00000862 000000000000 
00000868 000000000000 
0000086e 000000000000 

                                                                      Page 6
                                                              C:\Users\nhuliyap\AppData\Local\Temp\gh_00006601.s
00000874 000000000000 
0000087a 000000000000 
                         220 	.type	_S_HufSysMsgBuf..C.3A.5C_ECU2.5CECU_Rivian_A1.5CTarget.5Crepo_projects.5CpRealEcu.5CcL_LATEST.5Cmake.5Coutput.5Cobjects.5CSwcApplTpms_DevCanMessages.,@object
                         221 	.size	_S_HufSysMsgBuf..C.3A.5C_ECU2.5CECU_Rivian_A1.5CTarget.5Crepo_projects.5CpRealEcu.5CcL_LATEST.5Cmake.5Coutput.5Cobjects.5CSwcApplTpms_DevCanMessages.,120
                         222 	.type	_S_HufSysMsgBuf,@object
                         223 	.size	_S_HufSysMsgBuf,120
                         224 	.global	_DCM_S_MultiplexMessageIDs..C.3A.5C_ECU2.5CECU_Rivian_A1.5CTarget.5Crepo_projects.5CpRealEcu.5CcL_LATEST.5Cmake.5Coutput.5Cobjects.5CSwcApplTpms_DevCanMessages.
                         225 _DCM_S_MultiplexMessageIDs..C.3A.5C_ECU2.5CECU_Rivian_A1.5CTarget.5Crepo_projects.5CpRealEcu.5CcL_LATEST.5Cmake.5Coutput.5Cobjects.5CSwcApplTpms_DevCanMessages.:
00000880 000000000000    226 _DCM_S_MultiplexMessageIDs:	.space	188
00000886 000000000000 
0000088c 000000000000 
00000892 000000000000 
00000898 000000000000 
0000089e 000000000000 
000008a4 000000000000 
000008aa 000000000000 
000008b0 000000000000 
000008b6 000000000000 
000008bc 000000000000 
000008c2 000000000000 
000008c8 000000000000 
000008ce 000000000000 
000008d4 000000000000 
000008da 000000000000 
000008e0 000000000000 
000008e6 000000000000 
000008ec 000000000000 
000008f2 000000000000 
000008f8 000000000000 
000008fe 000000000000 
00000904 000000000000 
0000090a 000000000000 
00000910 000000000000 
00000916 000000000000 
0000091c 000000000000 
00000922 000000000000 
00000928 000000000000 
0000092e 000000000000 
00000934 000000000000 
0000093a 0000 
                         227 	.type	_DCM_S_MultiplexMessageIDs..C.3A.5C_ECU2.5CECU_Rivian_A1.5CTarget.5Crepo_projects.5CpRealEcu.5CcL_LATEST.5Cmake.5Coutput.5Cobjects.5CSwcApplTpms_DevCanMessages.,@object
                         228 	.size	_DCM_S_MultiplexMessageIDs..C.3A.5C_ECU2.5CECU_Rivian_A1.5CTarget.5Crepo_projects.5CpRealEcu.5CcL_LATEST.5Cmake.5Coutput.5Cobjects.5CSwcApplTpms_DevCanMessages.,188
                         229 	.type	_DCM_S_MultiplexMessageIDs,@object
                         230 	.size	_DCM_S_MultiplexMessageIDs,188
                         231 	.section ".rodata","a"
                         232 	.global	_DCM_AS_ConfigureSystemMultiplexMsg..C.3A.5C_ECU2.5CECU_Rivian_A1.5CTarget.5Crepo_projects.5CpRealEcu.5CcL_LATEST.5Cmake.5Coutput.5Cobjects.5CSwcApplTpms_DevCanMessages.
                         233 _DCM_AS_ConfigureSystemMultiplexMsg..C.3A.5C_ECU2.5CECU_Rivian_A1.5CTarget.5Crepo_projects.5CpRealEcu.5CcL_LATEST.5Cmake.5Coutput.5Cobjects.5CSwcApplTpms_DevCanMessages.:
00000040 16              234 _DCM_AS_ConfigureSystemMultiplexMsg:	.byte	22
00000041 000000          235 	.space	3
00000044 00000000*       236 	.word	_DCM_MessageUpdateMultiplex_22
00000048 17              237 	.byte	23
00000049 000000          238 	.space	3
0000004c 00000000*       239 	.word	_DCM_MessageUpdateMultiplex_23
00000050 18              240 	.byte	24
00000051 000000          241 	.space	3
00000054 00000000*       242 	.word	_DCM_MessageUpdateMultiplex_24
00000058 1e              243 	.byte	30
00000059 000000          244 	.space	3
0000005c 00000000*       245 	.word	_DCM_MessageUpdateMultiplex_30
00000060 1f              246 	.byte	31
00000061 000000          247 	.space	3

                                                                      Page 7
                                                              C:\Users\nhuliyap\AppData\Local\Temp\gh_00006601.s
00000064 00000000*       248 	.word	_DCM_MessageUpdateMultiplex_31
00000068 20              249 	.byte	32
00000069 000000          250 	.space	3
0000006c 00000000*       251 	.word	_DCM_MessageUpdateMultiplex_32
00000070 21              252 	.byte	33
00000071 000000          253 	.space	3
00000074 00000000*       254 	.word	_DCM_MessageUpdateMultiplex_33
00000078 28              255 	.byte	40
00000079 000000          256 	.space	3
0000007c 00000000*       257 	.word	_DCM_MessageUpdateMultiplex_40
00000080 29              258 	.byte	41
00000081 000000          259 	.space	3
00000084 00000000*       260 	.word	_DCM_MessageUpdateMultiplex_41
00000088 2a              261 	.byte	42
00000089 000000          262 	.space	3
0000008c 00000000*       263 	.word	_DCM_MessageUpdateMultiplex_42
00000090 2b              264 	.byte	43
00000091 000000          265 	.space	3
00000094 00000000*       266 	.word	_DCM_MessageUpdateMultiplex_43
00000098 2c              267 	.byte	44
00000099 000000          268 	.space	3
0000009c 00000000*       269 	.word	_DCM_MessageUpdateMultiplex_44
000000a0 2d              270 	.byte	45
000000a1 000000          271 	.space	3
000000a4 00000000*       272 	.word	_DCM_MessageUpdateMultiplex_45
000000a8 2e              273 	.byte	46
000000a9 000000          274 	.space	3
000000ac 00000000*       275 	.word	_DCM_MessageUpdateMultiplex_46
000000b0 2f              276 	.byte	47
000000b1 000000          277 	.space	3
000000b4 00000000*       278 	.word	_DCM_MessageUpdateMultiplex_47
                         279 	.type	_DCM_AS_ConfigureSystemMultiplexMsg..C.3A.5C_ECU2.5CECU_Rivian_A1.5CTarget.5Crepo_projects.5CpRealEcu.5CcL_LATEST.5Cmake.5Coutput.5Cobjects.5CSwcApplTpms_DevCanMessages.,@object
                         280 	.size	_DCM_AS_ConfigureSystemMultiplexMsg..C.3A.5C_ECU2.5CECU_Rivian_A1.5CTarget.5Crepo_projects.5CpRealEcu.5CcL_LATEST.5Cmake.5Coutput.5Cobjects.5CSwcApplTpms_DevCanMessages.,120
                         281 	.type	_DCM_AS_ConfigureSystemMultiplexMsg,@object
                         282 	.size	_DCM_AS_ConfigureSystemMultiplexMsg,120
                         283 	.section ".bss","awb"
                         284 	.global	_DCM_S_LastSystemDataReceivedOnMultiplex..C.3A.5C_ECU2.5CECU_Rivian_A1.5CTarget.5Crepo_projects.5CpRealEcu.5CcL_LATEST.5Cmake.5Coutput.5Cobjects.5CSwcApplTpms_DevCanMessages.
                         285 _DCM_S_LastSystemDataReceivedOnMultiplex..C.3A.5C_ECU2.5CECU_Rivian_A1.5CTarget.5Crepo_projects.5CpRealEcu.5CcL_LATEST.5Cmake.5Coutput.5Cobjects.5CSwcApplTpms_DevCanMessages.:
0000093c 000000000000    286 _DCM_S_LastSystemDataReceivedOnMultiplex:	.space	120
00000942 000000000000 
00000948 000000000000 
0000094e 000000000000 
00000954 000000000000 
0000095a 000000000000 
00000960 000000000000 
00000966 000000000000 
0000096c 000000000000 
00000972 000000000000 
00000978 000000000000 
0000097e 000000000000 
00000984 000000000000 
0000098a 000000000000 
00000990 000000000000 
00000996 000000000000 
0000099c 000000000000 
000009a2 000000000000 
000009a8 000000000000 
000009ae 000000000000 
                         287 	.type	_DCM_S_LastSystemDataReceivedOnMultiplex..C.3A.5C_ECU2.5CECU_Rivian_A1.5CTarget.5Crepo_projects.5CpRealEcu.5CcL_LATEST.5Cmake.5Coutput.5Cobjects.5CSwcApplTpms_DevCanMessages.,@object
                         288 	.size	_DCM_S_LastSystemDataReceivedOnMultiplex..C.3A.5C_ECU2.5CECU_Rivian_A1.5CTarget.5Crepo_projects.5CpRealEcu.5CcL_LATEST.5Cmake.5Coutput.5Cobjects.5CSwcApplTpms_DevCanMessages.,120
                         289 	.type	_DCM_S_LastSystemDataReceivedOnMultiplex,@object

                                                                      Page 8
                                                              C:\Users\nhuliyap\AppData\Local\Temp\gh_00006601.s
                         290 	.size	_DCM_S_LastSystemDataReceivedOnMultiplex,120
                         291 	.data
                         292 	.text
                         293 	.align	2
                         294 	.align	2
                         295 ..gh.f.f.1.e.1:
                         296 	.type	..gh.f.f.1.e.1,@object
                         297 	.size	..gh.f.f.1.e.1,0
                         298 	.global	_DCM_MessageUpdateMultiplex_01..C.3A.5C_ECU2.5CECU_Rivian_A1.5CTarget.5Crepo_projects.5CpRealEcu.5CcL_LATEST.5Cmake.5Coutput.5Cobjects.5CSwcApplTpms_DevCanMessages.
                         299 _DCM_MessageUpdateMultiplex_01..C.3A.5C_ECU2.5CECU_Rivian_A1.5CTarget.5Crepo_projects.5CpRealEcu.5CcL_LATEST.5Cmake.5Coutput.5Cobjects.5CSwcApplTpms_DevCanMessages.:
                         300 _DCM_MessageUpdateMultiplex_01:
00000038 8007e110        301 	prepare	{r27,r28,r29,r31},0
0000003c 06d8            302 	mov	r6,r27
0000003e 9b00            303 	zxb	r27
00000040 3d0600000000*   304 	mov	_DCM_S_LastEventDataReceivedOnMultiplex,r29
                         305 --	    .bf
                         306 .LDW21:
                         307 --line241
                         308 ..lin.C.3A.5C_ECU2.5CECU_Rivian_A1.5CTarget.5Crepo_projects.5CpRealEcu.5CcL_LATEST.5Cmake.5Coutput.5Cobjects.5CSwcApplTpms_DevCanMessages.4::
                         309 .LDWlin4:
00000046 0192            310 	mov	1,r18
00000048 3de68008        311 	movea	2176,r29,r28
0000004c 5d978008        312 	st.b	r18,2176[r29]
00000050 0032            313 	mov	0,r6
                         314 	jarl	_DCM_InvIf_WheelPosReceptionCounter,lp
                         314 <EXPANSION BEGIN>
                         314 jarl22 _DCM_InvIf_WheelPosReceptionCounter , lp 
00000052 80ff0000*       314 <EXPANSION END>
00000056 5d578108        315 	st.b	r10,2177[r29]
                         316 --line248
                         317 ..lin.C.3A.5C_ECU2.5CECU_Rivian_A1.5CTarget.5Crepo_projects.5CpRealEcu.5CcL_LATEST.5Cmake.5Coutput.5Cobjects.5CSwcApplTpms_DevCanMessages.5::
                         318 .LDWlin5:
0000005a 0132            319 	mov	1,r6
                         320 	jarl	_DCM_InvIf_WheelPosReceptionCounter,lp
                         320 <EXPANSION BEGIN>
                         320 jarl22 _DCM_InvIf_WheelPosReceptionCounter , lp 
0000005c 80ff0000*       320 <EXPANSION END>
00000060 5d578208        321 	st.b	r10,2178[r29]
                         322 --line249
                         323 ..lin.C.3A.5C_ECU2.5CECU_Rivian_A1.5CTarget.5Crepo_projects.5CpRealEcu.5CcL_LATEST.5Cmake.5Coutput.5Cobjects.5CSwcApplTpms_DevCanMessages.6::
                         324 .LDWlin6:
00000064 0232            325 	mov	2,r6
                         326 	jarl	_DCM_InvIf_WheelPosReceptionCounter,lp
                         326 <EXPANSION BEGIN>
                         326 jarl22 _DCM_InvIf_WheelPosReceptionCounter , lp 
00000066 80ff0000*       326 <EXPANSION END>
0000006a 5d578308        327 	st.b	r10,2179[r29]
                         328 --line250
                         329 ..lin.C.3A.5C_ECU2.5CECU_Rivian_A1.5CTarget.5Crepo_projects.5CpRealEcu.5CcL_LATEST.5Cmake.5Coutput.5Cobjects.5CSwcApplTpms_DevCanMessages.7::
                         330 .LDWlin7:
0000006e 0332            331 	mov	3,r6
                         332 	jarl	_DCM_InvIf_WheelPosReceptionCounter,lp
                         332 <EXPANSION BEGIN>
                         332 jarl22 _DCM_InvIf_WheelPosReceptionCounter , lp 
00000070 80ff0000*       332 <EXPANSION END>
00000074 5d578408        333 	st.b	r10,2180[r29]
                         334 --line255
                         335 ..lin.C.3A.5C_ECU2.5CECU_Rivian_A1.5CTarget.5Crepo_projects.5CpRealEcu.5CcL_LATEST.5Cmake.5Coutput.5Cobjects.5CSwcApplTpms_DevCanMessages.8::
                         336 .LDWlin8:
00000078 3c870100        337 	ld.w	0[r28],r16
0000007c 3c7f0500        338 	ld.w	4[r28],r15

                                                                      Page 9
                                                              C:\Users\nhuliyap\AppData\Local\Temp\gh_00006601.s
00000080 1bf0            339 	mov	r27,ep
00000082 c3f2            340 	shl	3,ep
00000084 ddf1            341 	add	r29,ep
00000086 0185            342 	sst.w	r16,0[ep]
00000088 037d            343 	sst.w	r15,4[ep]
                         344 --	    .ef
                         345 .LDW31:
0000008a 4006ff10        346 	dispose	0,{r27,r28,r29,r31},[lp]
                         347 ___ghs_eofn_DCM_MessageUpdateMultiplex_01:
                         348 	.type	_DCM_MessageUpdateMultiplex_01,@function
                         349 	.size	_DCM_MessageUpdateMultiplex_01,.-_DCM_MessageUpdateMultiplex_01
                         350 	.type	_DCM_MessageUpdateMultiplex_01..C.3A.5C_ECU2.5CECU_Rivian_A1.5CTarget.5Crepo_projects.5CpRealEcu.5CcL_LATEST.5Cmake.5Coutput.5Cobjects.5CSwcApplTpms_DevCanMessages.,@function
                         351 	.size	_DCM_MessageUpdateMultiplex_01..C.3A.5C_ECU2.5CECU_Rivian_A1.5CTarget.5Crepo_projects.5CpRealEcu.5CcL_LATEST.5Cmake.5Coutput.5Cobjects.5CSwcApplTpms_DevCanMessages.,.-_DCM_MessageUpdateMultiplex_01..C.3A.5C_ECU2.5CECU_Rivian_A1.5CTarget.5Crepo_projects.5CpRealEcu.5CcL_LATEST.5Cmake.5Coutput.5Cobjects.5CSwcApplTpms_DevCanMessages.
                         352 	.align	2
                         353 
                         354 --_U8_CfgArrPosition	r27	param
                         355 
                         356 	.data
                         357 	.text
                         358 	.align	2
                         359 	.align	2
                         360 ..gh.f.f.1.e.2:
                         361 	.type	..gh.f.f.1.e.2,@object
                         362 	.size	..gh.f.f.1.e.2,0
                         363 	.global	_DCM_MessageUpdateMultiplex_02..C.3A.5C_ECU2.5CECU_Rivian_A1.5CTarget.5Crepo_projects.5CpRealEcu.5CcL_LATEST.5Cmake.5Coutput.5Cobjects.5CSwcApplTpms_DevCanMessages.
                         364 _DCM_MessageUpdateMultiplex_02..C.3A.5C_ECU2.5CECU_Rivian_A1.5CTarget.5Crepo_projects.5CpRealEcu.5CcL_LATEST.5Cmake.5Coutput.5Cobjects.5CSwcApplTpms_DevCanMessages.:
                         365 _DCM_MessageUpdateMultiplex_02:
0000008e 8007e110        366 	prepare	{r27,r28,r29,r31},0
00000092 06d8            367 	mov	r6,r27
00000094 9b00            368 	zxb	r27
00000096 3d0600000000*   369 	mov	_DCM_S_LastEventDataReceivedOnMultiplex,r29
                         370 --	    .bf
                         371 .LDW41:
                         372 --line260
                         373 ..lin.C.3A.5C_ECU2.5CECU_Rivian_A1.5CTarget.5Crepo_projects.5CpRealEcu.5CcL_LATEST.5Cmake.5Coutput.5Cobjects.5CSwcApplTpms_DevCanMessages.9::
                         374 .LDWlin9:
0000009c 0292            375 	mov	2,r18
0000009e 3de68808        376 	movea	2184,r29,r28
000000a2 5d978808        377 	st.b	r18,2184[r29]
                         378 	jarl	_DCM_InvIf_AbsLinGetCntValueFL,lp
                         378 <EXPANSION BEGIN>
                         378 jarl22 _DCM_InvIf_AbsLinGetCntValueFL , lp 
000000a6 80ff0000*       378 <EXPANSION END>
000000aa 5d578908        379 	st.b	r10,2185[r29]
                         380 --line262
                         381 ..lin.C.3A.5C_ECU2.5CECU_Rivian_A1.5CTarget.5Crepo_projects.5CpRealEcu.5CcL_LATEST.5Cmake.5Coutput.5Cobjects.5CSwcApplTpms_DevCanMessages.10::
                         382 .LDWlin10:
                         383 	jarl	_DCM_InvIf_AbsLinGetCntValueFR,lp
                         383 <EXPANSION BEGIN>
                         383 jarl22 _DCM_InvIf_AbsLinGetCntValueFR , lp 
000000ae 80ff0000*       383 <EXPANSION END>
000000b2 5d578a08        384 	st.b	r10,2186[r29]
                         385 --line263
                         386 ..lin.C.3A.5C_ECU2.5CECU_Rivian_A1.5CTarget.5Crepo_projects.5CpRealEcu.5CcL_LATEST.5Cmake.5Coutput.5Cobjects.5CSwcApplTpms_DevCanMessages.11::
                         387 .LDWlin11:
                         388 	jarl	_DCM_InvIf_AbsLinGetCntValueRL,lp
                         388 <EXPANSION BEGIN>
                         388 jarl22 _DCM_InvIf_AbsLinGetCntValueRL , lp 
000000b6 80ff0000*       388 <EXPANSION END>
000000ba 5d578b08        389 	st.b	r10,2187[r29]
                         390 --line264

                                                                      Page 10
                                                              C:\Users\nhuliyap\AppData\Local\Temp\gh_00006601.s
                         391 ..lin.C.3A.5C_ECU2.5CECU_Rivian_A1.5CTarget.5Crepo_projects.5CpRealEcu.5CcL_LATEST.5Cmake.5Coutput.5Cobjects.5CSwcApplTpms_DevCanMessages.12::
                         392 .LDWlin12:
                         393 	jarl	_DCM_InvIf_AbsLinGetCntValueRR,lp
                         393 <EXPANSION BEGIN>
                         393 jarl22 _DCM_InvIf_AbsLinGetCntValueRR , lp 
000000be 80ff0000*       393 <EXPANSION END>
000000c2 5d578c08        394 	st.b	r10,2188[r29]
                         395 --line269
                         396 ..lin.C.3A.5C_ECU2.5CECU_Rivian_A1.5CTarget.5Crepo_projects.5CpRealEcu.5CcL_LATEST.5Cmake.5Coutput.5Cobjects.5CSwcApplTpms_DevCanMessages.13::
                         397 .LDWlin13:
000000c6 3c870100        398 	ld.w	0[r28],r16
000000ca 3c7f0500        399 	ld.w	4[r28],r15
000000ce 1bf0            400 	mov	r27,ep
000000d0 c3f2            401 	shl	3,ep
000000d2 ddf1            402 	add	r29,ep
000000d4 0185            403 	sst.w	r16,0[ep]
000000d6 037d            404 	sst.w	r15,4[ep]
                         405 --	    .ef
                         406 .LDW51:
000000d8 4006ff10        407 	dispose	0,{r27,r28,r29,r31},[lp]
                         408 ___ghs_eofn_DCM_MessageUpdateMultiplex_02:
                         409 	.type	_DCM_MessageUpdateMultiplex_02,@function
                         410 	.size	_DCM_MessageUpdateMultiplex_02,.-_DCM_MessageUpdateMultiplex_02
                         411 	.type	_DCM_MessageUpdateMultiplex_02..C.3A.5C_ECU2.5CECU_Rivian_A1.5CTarget.5Crepo_projects.5CpRealEcu.5CcL_LATEST.5Cmake.5Coutput.5Cobjects.5CSwcApplTpms_DevCanMessages.,@function
                         412 	.size	_DCM_MessageUpdateMultiplex_02..C.3A.5C_ECU2.5CECU_Rivian_A1.5CTarget.5Crepo_projects.5CpRealEcu.5CcL_LATEST.5Cmake.5Coutput.5Cobjects.5CSwcApplTpms_DevCanMessages.,.-_DCM_MessageUpdateMultiplex_02..C.3A.5C_ECU2.5CECU_Rivian_A1.5CTarget.5Crepo_projects.5CpRealEcu.5CcL_LATEST.5Cmake.5Coutput.5Cobjects.5CSwcApplTpms_DevCanMessages.
                         413 	.align	2
                         414 
                         415 --_U8_CfgArrPosition	r27	param
                         416 
                         417 	.data
                         418 	.text
                         419 	.align	2
                         420 	.align	2
                         421 ..gh.f.f.1.e.3:
                         422 	.type	..gh.f.f.1.e.3,@object
                         423 	.size	..gh.f.f.1.e.3,0
                         424 	.global	_DCM_MessageUpdateMultiplex_03..C.3A.5C_ECU2.5CECU_Rivian_A1.5CTarget.5Crepo_projects.5CpRealEcu.5CcL_LATEST.5Cmake.5Coutput.5Cobjects.5CSwcApplTpms_DevCanMessages.
                         425 _DCM_MessageUpdateMultiplex_03..C.3A.5C_ECU2.5CECU_Rivian_A1.5CTarget.5Crepo_projects.5CpRealEcu.5CcL_LATEST.5Cmake.5Coutput.5Cobjects.5CSwcApplTpms_DevCanMessages.:
                         426 _DCM_MessageUpdateMultiplex_03:
000000dc 8007e130        427 	prepare	{r26,r27,r28,r29,r31},0
000000e0 06d0            428 	mov	r6,r26
000000e2 9a00            429 	zxb	r26
000000e4 3d0600000000*   430 	mov	_DCM_S_LastEventDataReceivedOnMultiplex,r29
                         431 --	    .bf
                         432 .LDW61:
                         433 --line275
                         434 ..lin.C.3A.5C_ECU2.5CECU_Rivian_A1.5CTarget.5Crepo_projects.5CpRealEcu.5CcL_LATEST.5Cmake.5Coutput.5Cobjects.5CSwcApplTpms_DevCanMessages.14::
                         435 .LDWlin14:
                         436 	jarl	_DCM_InvIf_ZomPosCurrIDGetValue,lp
                         436 <EXPANSION BEGIN>
                         436 jarl22 _DCM_InvIf_ZomPosCurrIDGetValue , lp 
000000ea 80ff0000*       436 <EXPANSION END>
                         437 --line276
                         438 ..lin.C.3A.5C_ECU2.5CECU_Rivian_A1.5CTarget.5Crepo_projects.5CpRealEcu.5CcL_LATEST.5Cmake.5Coutput.5Cobjects.5CSwcApplTpms_DevCanMessages.15::
                         439 .LDWlin15:
000000ee 0392            440 	mov	3,r18
000000f0 0ad8            441 	mov	r10,r27
000000f2 3de69008        442 	movea	2192,r29,r28
000000f6 5d979008        443 	st.b	r18,2192[r29]
000000fa 0a30            444 	mov	r10,r6
                         445 	jarl	_DCM_InvIf_AbsCorrGetCntValueFL,lp

                                                                      Page 11
                                                              C:\Users\nhuliyap\AppData\Local\Temp\gh_00006601.s
                         445 <EXPANSION BEGIN>
                         445 jarl22 _DCM_InvIf_AbsCorrGetCntValueFL , lp 
000000fc 80ff0000*       445 <EXPANSION END>
00000100 5d579108        446 	st.b	r10,2193[r29]
                         447 --line278
                         448 ..lin.C.3A.5C_ECU2.5CECU_Rivian_A1.5CTarget.5Crepo_projects.5CpRealEcu.5CcL_LATEST.5Cmake.5Coutput.5Cobjects.5CSwcApplTpms_DevCanMessages.16::
                         449 .LDWlin16:
00000104 1b30            450 	mov	r27,r6
                         451 	jarl	_DCM_InvIf_AbsCorrGetCntValueFR,lp
                         451 <EXPANSION BEGIN>
                         451 jarl22 _DCM_InvIf_AbsCorrGetCntValueFR , lp 
00000106 80ff0000*       451 <EXPANSION END>
0000010a 5d579208        452 	st.b	r10,2194[r29]
                         453 --line279
                         454 ..lin.C.3A.5C_ECU2.5CECU_Rivian_A1.5CTarget.5Crepo_projects.5CpRealEcu.5CcL_LATEST.5Cmake.5Coutput.5Cobjects.5CSwcApplTpms_DevCanMessages.17::
                         455 .LDWlin17:
0000010e 1b30            456 	mov	r27,r6
                         457 	jarl	_DCM_InvIf_AbsCorrGetCntValueRL,lp
                         457 <EXPANSION BEGIN>
                         457 jarl22 _DCM_InvIf_AbsCorrGetCntValueRL , lp 
00000110 80ff0000*       457 <EXPANSION END>
00000114 5d579308        458 	st.b	r10,2195[r29]
                         459 --line280
                         460 ..lin.C.3A.5C_ECU2.5CECU_Rivian_A1.5CTarget.5Crepo_projects.5CpRealEcu.5CcL_LATEST.5Cmake.5Coutput.5Cobjects.5CSwcApplTpms_DevCanMessages.18::
                         461 .LDWlin18:
00000118 1b30            462 	mov	r27,r6
                         463 	jarl	_DCM_InvIf_AbsCorrGetCntValueRR,lp
                         463 <EXPANSION BEGIN>
                         463 jarl22 _DCM_InvIf_AbsCorrGetCntValueRR , lp 
0000011a 80ff0000*       463 <EXPANSION END>
0000011e 5d579408        464 	st.b	r10,2196[r29]
                         465 --line281
                         466 ..lin.C.3A.5C_ECU2.5CECU_Rivian_A1.5CTarget.5Crepo_projects.5CpRealEcu.5CcL_LATEST.5Cmake.5Coutput.5Cobjects.5CSwcApplTpms_DevCanMessages.19::
                         467 .LDWlin19:
                         468 	jarl	_DCM_InvIf_AbsLinAngle_FL_GetHistoryValue,lp
                         468 <EXPANSION BEGIN>
                         468 jarl22 _DCM_InvIf_AbsLinAngle_FL_GetHistoryValue , lp 
00000122 80ff0000*       468 <EXPANSION END>
00000126 5d579608        469 	st.b	r10,2198[r29]
                         470 --line282
                         471 ..lin.C.3A.5C_ECU2.5CECU_Rivian_A1.5CTarget.5Crepo_projects.5CpRealEcu.5CcL_LATEST.5Cmake.5Coutput.5Cobjects.5CSwcApplTpms_DevCanMessages.20::
                         472 .LDWlin20:
                         473 	jarl	_DCM_InvIf_AbsLinAngle_FR_GetHistoryValue,lp
                         473 <EXPANSION BEGIN>
                         473 jarl22 _DCM_InvIf_AbsLinAngle_FR_GetHistoryValue , lp 
0000012a 80ff0000*       473 <EXPANSION END>
0000012e 5d579708        474 	st.b	r10,2199[r29]
                         475 --line284
                         476 ..lin.C.3A.5C_ECU2.5CECU_Rivian_A1.5CTarget.5Crepo_projects.5CpRealEcu.5CcL_LATEST.5Cmake.5Coutput.5Cobjects.5CSwcApplTpms_DevCanMessages.21::
                         477 .LDWlin21:
00000132 3c870100        478 	ld.w	0[r28],r16
00000136 3c7f0500        479 	ld.w	4[r28],r15
0000013a 1af0            480 	mov	r26,ep
0000013c c3f2            481 	shl	3,ep
0000013e ddf1            482 	add	r29,ep
00000140 0185            483 	sst.w	r16,0[ep]
00000142 037d            484 	sst.w	r15,4[ep]
                         485 --	    .ef
                         486 .LDW71:
00000144 4006ff30        487 	dispose	0,{r26,r27,r28,r29,r31},[lp]
                         488 ___ghs_eofn_DCM_MessageUpdateMultiplex_03:

                                                                      Page 12
                                                              C:\Users\nhuliyap\AppData\Local\Temp\gh_00006601.s
                         489 	.type	_DCM_MessageUpdateMultiplex_03,@function
                         490 	.size	_DCM_MessageUpdateMultiplex_03,.-_DCM_MessageUpdateMultiplex_03
                         491 	.type	_DCM_MessageUpdateMultiplex_03..C.3A.5C_ECU2.5CECU_Rivian_A1.5CTarget.5Crepo_projects.5CpRealEcu.5CcL_LATEST.5Cmake.5Coutput.5Cobjects.5CSwcApplTpms_DevCanMessages.,@function
                         492 	.size	_DCM_MessageUpdateMultiplex_03..C.3A.5C_ECU2.5CECU_Rivian_A1.5CTarget.5Crepo_projects.5CpRealEcu.5CcL_LATEST.5Cmake.5Coutput.5Cobjects.5CSwcApplTpms_DevCanMessages.,.-_DCM_MessageUpdateMultiplex_03..C.3A.5C_ECU2.5CECU_Rivian_A1.5CTarget.5Crepo_projects.5CpRealEcu.5CcL_LATEST.5Cmake.5Coutput.5Cobjects.5CSwcApplTpms_DevCanMessages.
                         493 	.align	2
                         494 --_U8_ZomPositionCurrentID	r27	local
                         495 
                         496 --_U8_CfgArrPosition	r26	param
                         497 
                         498 	.data
                         499 	.text
                         500 	.align	2
                         501 	.align	2
                         502 ..gh.f.f.1.e.4:
                         503 	.type	..gh.f.f.1.e.4,@object
                         504 	.size	..gh.f.f.1.e.4,0
                         505 	.global	_DCM_MessageUpdateMultiplex_04..C.3A.5C_ECU2.5CECU_Rivian_A1.5CTarget.5Crepo_projects.5CpRealEcu.5CcL_LATEST.5Cmake.5Coutput.5Cobjects.5CSwcApplTpms_DevCanMessages.
                         506 _DCM_MessageUpdateMultiplex_04..C.3A.5C_ECU2.5CECU_Rivian_A1.5CTarget.5Crepo_projects.5CpRealEcu.5CcL_LATEST.5Cmake.5Coutput.5Cobjects.5CSwcApplTpms_DevCanMessages.:
                         507 _DCM_MessageUpdateMultiplex_04:
00000148 8007e110        508 	prepare	{r27,r28,r29,r31},0
0000014c 06d8            509 	mov	r6,r27
0000014e 9b00            510 	zxb	r27
00000150 3d0600000000*   511 	mov	_DCM_S_LastEventDataReceivedOnMultiplex,r29
                         512 --	    .bf
                         513 .LDW81:
                         514 --line289
                         515 ..lin.C.3A.5C_ECU2.5CECU_Rivian_A1.5CTarget.5Crepo_projects.5CpRealEcu.5CcL_LATEST.5Cmake.5Coutput.5Cobjects.5CSwcApplTpms_DevCanMessages.22::
                         516 .LDWlin22:
00000156 0492            517 	mov	4,r18
00000158 3de69808        518 	movea	2200,r29,r28
0000015c 5d979808        519 	st.b	r18,2200[r29]
00000160 1d469908        520 	addi	2201,r29,r8
00000164 0532            521 	mov	5,r6
00000166 073a            522 	mov	7,r7
                         523 	jarl	_DCM_InvIf_RawRfTelGetValue,lp
                         523 <EXPANSION BEGIN>
                         523 jarl22 _DCM_InvIf_RawRfTelGetValue , lp 
00000168 80ff0000*       523 <EXPANSION END>
                         524 --line292
                         525 ..lin.C.3A.5C_ECU2.5CECU_Rivian_A1.5CTarget.5Crepo_projects.5CpRealEcu.5CcL_LATEST.5Cmake.5Coutput.5Cobjects.5CSwcApplTpms_DevCanMessages.23::
                         526 .LDWlin23:
0000016c 3c870100        527 	ld.w	0[r28],r16
00000170 3c7f0500        528 	ld.w	4[r28],r15
00000174 1bf0            529 	mov	r27,ep
00000176 c3f2            530 	shl	3,ep
00000178 ddf1            531 	add	r29,ep
0000017a 0185            532 	sst.w	r16,0[ep]
0000017c 037d            533 	sst.w	r15,4[ep]
                         534 --	    .ef
                         535 .LDW91:
0000017e 4006ff10        536 	dispose	0,{r27,r28,r29,r31},[lp]
                         537 ___ghs_eofn_DCM_MessageUpdateMultiplex_04:
                         538 	.type	_DCM_MessageUpdateMultiplex_04,@function
                         539 	.size	_DCM_MessageUpdateMultiplex_04,.-_DCM_MessageUpdateMultiplex_04
                         540 	.type	_DCM_MessageUpdateMultiplex_04..C.3A.5C_ECU2.5CECU_Rivian_A1.5CTarget.5Crepo_projects.5CpRealEcu.5CcL_LATEST.5Cmake.5Coutput.5Cobjects.5CSwcApplTpms_DevCanMessages.,@function
                         541 	.size	_DCM_MessageUpdateMultiplex_04..C.3A.5C_ECU2.5CECU_Rivian_A1.5CTarget.5Crepo_projects.5CpRealEcu.5CcL_LATEST.5Cmake.5Coutput.5Cobjects.5CSwcApplTpms_DevCanMessages.,.-_DCM_MessageUpdateMultiplex_04..C.3A.5C_ECU2.5CECU_Rivian_A1.5CTarget.5Crepo_projects.5CpRealEcu.5CcL_LATEST.5Cmake.5Coutput.5Cobjects.5CSwcApplTpms_DevCanMessages.
                         542 	.align	2
                         543 
                         544 --_U8_CfgArrPosition	r27	param
                         545 
                         546 	.data

                                                                      Page 13
                                                              C:\Users\nhuliyap\AppData\Local\Temp\gh_00006601.s
                         547 	.text
                         548 	.align	2
                         549 	.align	2
                         550 ..gh.f.f.1.e.5:
                         551 	.type	..gh.f.f.1.e.5,@object
                         552 	.size	..gh.f.f.1.e.5,0
                         553 	.global	_DCM_MessageUpdateMultiplex_05..C.3A.5C_ECU2.5CECU_Rivian_A1.5CTarget.5Crepo_projects.5CpRealEcu.5CcL_LATEST.5Cmake.5Coutput.5Cobjects.5CSwcApplTpms_DevCanMessages.
                         554 _DCM_MessageUpdateMultiplex_05..C.3A.5C_ECU2.5CECU_Rivian_A1.5CTarget.5Crepo_projects.5CpRealEcu.5CcL_LATEST.5Cmake.5Coutput.5Cobjects.5CSwcApplTpms_DevCanMessages.:
                         555 _DCM_MessageUpdateMultiplex_05:
00000182 8007e110        556 	prepare	{r27,r28,r29,r31},0
00000186 06d8            557 	mov	r6,r27
00000188 9b00            558 	zxb	r27
0000018a 3d0600000000*   559 	mov	_DCM_S_LastEventDataReceivedOnMultiplex,r29
                         560 --	    .bf
                         561 .LDW02:
                         562 --line297
                         563 ..lin.C.3A.5C_ECU2.5CECU_Rivian_A1.5CTarget.5Crepo_projects.5CpRealEcu.5CcL_LATEST.5Cmake.5Coutput.5Cobjects.5CSwcApplTpms_DevCanMessages.24::
                         564 .LDWlin24:
00000190 0592            565 	mov	5,r18
00000192 3de6a008        566 	movea	2208,r29,r28
00000196 5d97a008        567 	st.b	r18,2208[r29]
0000019a 1d46a108        568 	addi	2209,r29,r8
0000019e 0c32            569 	mov	12,r6
000001a0 043a            570 	mov	4,r7
                         571 	jarl	_DCM_InvIf_RawRfTelGetValue,lp
                         571 <EXPANSION BEGIN>
                         571 jarl22 _DCM_InvIf_RawRfTelGetValue , lp 
000001a2 80ff0000*       571 <EXPANSION END>
                         572 --line309
                         573 ..lin.C.3A.5C_ECU2.5CECU_Rivian_A1.5CTarget.5Crepo_projects.5CpRealEcu.5CcL_LATEST.5Cmake.5Coutput.5Cobjects.5CSwcApplTpms_DevCanMessages.25::
                         574 .LDWlin25:
000001a6 3c870100        575 	ld.w	0[r28],r16
000001aa 3c7f0500        576 	ld.w	4[r28],r15
000001ae 1bf0            577 	mov	r27,ep
000001b0 c3f2            578 	shl	3,ep
000001b2 ddf1            579 	add	r29,ep
000001b4 0185            580 	sst.w	r16,0[ep]
000001b6 037d            581 	sst.w	r15,4[ep]
                         582 --	    .ef
                         583 .LDW12:
000001b8 4006ff10        584 	dispose	0,{r27,r28,r29,r31},[lp]
                         585 ___ghs_eofn_DCM_MessageUpdateMultiplex_05:
                         586 	.type	_DCM_MessageUpdateMultiplex_05,@function
                         587 	.size	_DCM_MessageUpdateMultiplex_05,.-_DCM_MessageUpdateMultiplex_05
                         588 	.type	_DCM_MessageUpdateMultiplex_05..C.3A.5C_ECU2.5CECU_Rivian_A1.5CTarget.5Crepo_projects.5CpRealEcu.5CcL_LATEST.5Cmake.5Coutput.5Cobjects.5CSwcApplTpms_DevCanMessages.,@function
                         589 	.size	_DCM_MessageUpdateMultiplex_05..C.3A.5C_ECU2.5CECU_Rivian_A1.5CTarget.5Crepo_projects.5CpRealEcu.5CcL_LATEST.5Cmake.5Coutput.5Cobjects.5CSwcApplTpms_DevCanMessages.,.-_DCM_MessageUpdateMultiplex_05..C.3A.5C_ECU2.5CECU_Rivian_A1.5CTarget.5Crepo_projects.5CpRealEcu.5CcL_LATEST.5Cmake.5Coutput.5Cobjects.5CSwcApplTpms_DevCanMessages.
                         590 	.align	2
                         591 
                         592 --_U8_CfgArrPosition	r27	param
                         593 
                         594 	.data
                         595 	.text
                         596 	.align	2
                         597 	.align	2
                         598 ..gh.f.f.1.e.6:
                         599 	.type	..gh.f.f.1.e.6,@object
                         600 	.size	..gh.f.f.1.e.6,0
                         601 	.global	_DCM_MessageUpdateMultiplex_20..C.3A.5C_ECU2.5CECU_Rivian_A1.5CTarget.5Crepo_projects.5CpRealEcu.5CcL_LATEST.5Cmake.5Coutput.5Cobjects.5CSwcApplTpms_DevCanMessages.
                         602 _DCM_MessageUpdateMultiplex_20..C.3A.5C_ECU2.5CECU_Rivian_A1.5CTarget.5Crepo_projects.5CpRealEcu.5CcL_LATEST.5Cmake.5Coutput.5Cobjects.5CSwcApplTpms_DevCanMessages.:
                         603 _DCM_MessageUpdateMultiplex_20:
000001bc 80076110        604 	prepare	{r27,r29,r31},0

                                                                      Page 14
                                                              C:\Users\nhuliyap\AppData\Local\Temp\gh_00006601.s
000001c0 06d8            605 	mov	r6,r27
000001c2 9b00            606 	zxb	r27
000001c4 3d0600000000*   607 	mov	_DCM_S_LastEventDataReceivedOnMultiplex,r29
                         608 --	    .bf
                         609 .LDW22:
                         610 --line466
                         611 ..lin.C.3A.5C_ECU2.5CECU_Rivian_A1.5CTarget.5Crepo_projects.5CpRealEcu.5CcL_LATEST.5Cmake.5Coutput.5Cobjects.5CSwcApplTpms_DevCanMessages.26::
                         612 .LDWlin26:
000001ca 203e1400        613 	movea	20,zero,r7
000001ce 5d3fa808        614 	st.b	r7,2216[r29]
                         615 	jarl	_DCM_InvIf_PressAmbientGetValue,lp
                         615 <EXPANSION BEGIN>
                         615 jarl22 _DCM_InvIf_PressAmbientGetValue , lp 
000001d2 80ff0000*       615 <EXPANSION END>
000001d6 5d57a908        616 	st.b	r10,2217[r29]
                         617 --line468
                         618 ..lin.C.3A.5C_ECU2.5CECU_Rivian_A1.5CTarget.5Crepo_projects.5CpRealEcu.5CcL_LATEST.5Cmake.5Coutput.5Cobjects.5CSwcApplTpms_DevCanMessages.27::
                         619 .LDWlin27:
                         620 	jarl	_DCM_InvIf_TempAmbientGetValue,lp
                         620 <EXPANSION BEGIN>
                         620 jarl22 _DCM_InvIf_TempAmbientGetValue , lp 
000001da 80ff0000*       620 <EXPANSION END>
000001de 5d57aa08        621 	st.b	r10,2218[r29]
                         622 --line469
                         623 ..lin.C.3A.5C_ECU2.5CECU_Rivian_A1.5CTarget.5Crepo_projects.5CpRealEcu.5CcL_LATEST.5Cmake.5Coutput.5Cobjects.5CSwcApplTpms_DevCanMessages.28::
                         624 .LDWlin28:
                         625 	jarl	_DCM_InvIf_SpeedVehicGetValue,lp
                         625 <EXPANSION BEGIN>
                         625 jarl22 _DCM_InvIf_SpeedVehicGetValue , lp 
000001e2 80ff0000*       625 <EXPANSION END>
000001e6 8252            626 	shr	2,r10
000001e8 5d57ab08        627 	st.b	r10,2219[r29]
                         628 --line470
                         629 ..lin.C.3A.5C_ECU2.5CECU_Rivian_A1.5CTarget.5Crepo_projects.5CpRealEcu.5CcL_LATEST.5Cmake.5Coutput.5Cobjects.5CSwcApplTpms_DevCanMessages.29::
                         630 .LDWlin29:
                         631 	jarl	_DCM_InvIf_SpeedVehicGetValue,lp
                         631 <EXPANSION BEGIN>
                         631 jarl22 _DCM_InvIf_SpeedVehicGetValue , lp 
000001ec 80ff0000*       631 <EXPANSION END>
000001f0 3df6ac08        632 	movea	2220,r29,ep
000001f4 6048            633 	sld.bu	0[ep],r9
000001f6 ea4fdc70        634 	bins	r10,6,2,r9
000001fa 804b            635 	sst.b	r9,0[ep]
                         636 --line471
                         637 ..lin.C.3A.5C_ECU2.5CECU_Rivian_A1.5CTarget.5Crepo_projects.5CpRealEcu.5CcL_LATEST.5Cmake.5Coutput.5Cobjects.5CSwcApplTpms_DevCanMessages.30::
                         638 .LDWlin30:
                         639 	jarl	_DCM_InvIf_ZomPosCurrIDGetValue,lp
                         639 <EXPANSION BEGIN>
                         639 jarl22 _DCM_InvIf_ZomPosCurrIDGetValue , lp 
000001fc 80ff0000*       639 <EXPANSION END>
00000200 3df6ac08        640 	movea	2220,r29,ep
00000204 6040            641 	sld.bu	0[ep],r8
00000206 ea47d030        642 	bins	r10,0,4,r8
0000020a 8043            643 	sst.b	r8,0[ep]
                         644 --line472
                         645 ..lin.C.3A.5C_ECU2.5CECU_Rivian_A1.5CTarget.5Crepo_projects.5CpRealEcu.5CcL_LATEST.5Cmake.5Coutput.5Cobjects.5CSwcApplTpms_DevCanMessages.31::
                         646 .LDWlin31:
                         647 	jarl	_DCM_InvIf_WheelPosCurrIDGetValue,lp
                         647 <EXPANSION BEGIN>
                         647 jarl22 _DCM_InvIf_WheelPosCurrIDGetValue , lp 
0000020c 80ff0000*       647 <EXPANSION END>

                                                                      Page 15
                                                              C:\Users\nhuliyap\AppData\Local\Temp\gh_00006601.s
00000210 5d57ad08        648 	st.b	r10,2221[r29]
                         649 --line473
                         650 ..lin.C.3A.5C_ECU2.5CECU_Rivian_A1.5CTarget.5Crepo_projects.5CpRealEcu.5CcL_LATEST.5Cmake.5Coutput.5Cobjects.5CSwcApplTpms_DevCanMessages.32::
                         651 .LDWlin32:
                         652 	jarl	_DCM_InvIf_AbsLinAngle_RL_GetHistoryValue,lp
                         652 <EXPANSION BEGIN>
                         652 jarl22 _DCM_InvIf_AbsLinAngle_RL_GetHistoryValue , lp 
00000214 80ff0000*       652 <EXPANSION END>
00000218 5d57ae08        653 	st.b	r10,2222[r29]
                         654 --line474
                         655 ..lin.C.3A.5C_ECU2.5CECU_Rivian_A1.5CTarget.5Crepo_projects.5CpRealEcu.5CcL_LATEST.5Cmake.5Coutput.5Cobjects.5CSwcApplTpms_DevCanMessages.33::
                         656 .LDWlin33:
                         657 	jarl	_DCM_InvIf_AbsLinAngle_RR_GetHistoryValue,lp
                         657 <EXPANSION BEGIN>
                         657 jarl22 _DCM_InvIf_AbsLinAngle_RR_GetHistoryValue , lp 
0000021c 80ff0000*       657 <EXPANSION END>
00000220 5d57af08        658 	st.b	r10,2223[r29]
                         659 --line476
                         660 ..lin.C.3A.5C_ECU2.5CECU_Rivian_A1.5CTarget.5Crepo_projects.5CpRealEcu.5CcL_LATEST.5Cmake.5Coutput.5Cobjects.5CSwcApplTpms_DevCanMessages.34::
                         661 .LDWlin34:
00000224 3d47a908        662 	ld.w	2216[r29],r8
00000228 3d3fad08        663 	ld.w	2220[r29],r7
0000022c 1bf0            664 	mov	r27,ep
0000022e c3f2            665 	shl	3,ep
00000230 ddf1            666 	add	r29,ep
00000232 0145            667 	sst.w	r8,0[ep]
00000234 033d            668 	sst.w	r7,4[ep]
                         669 --	    .ef
                         670 .LDW32:
00000236 40067f10        671 	dispose	0,{r27,r29,r31},[lp]
                         672 ___ghs_eofn_DCM_MessageUpdateMultiplex_20:
                         673 	.type	_DCM_MessageUpdateMultiplex_20,@function
                         674 	.size	_DCM_MessageUpdateMultiplex_20,.-_DCM_MessageUpdateMultiplex_20
                         675 	.type	_DCM_MessageUpdateMultiplex_20..C.3A.5C_ECU2.5CECU_Rivian_A1.5CTarget.5Crepo_projects.5CpRealEcu.5CcL_LATEST.5Cmake.5Coutput.5Cobjects.5CSwcApplTpms_DevCanMessages.,@function
                         676 	.size	_DCM_MessageUpdateMultiplex_20..C.3A.5C_ECU2.5CECU_Rivian_A1.5CTarget.5Crepo_projects.5CpRealEcu.5CcL_LATEST.5Cmake.5Coutput.5Cobjects.5CSwcApplTpms_DevCanMessages.,.-_DCM_MessageUpdateMultiplex_20..C.3A.5C_ECU2.5CECU_Rivian_A1.5CTarget.5Crepo_projects.5CpRealEcu.5CcL_LATEST.5Cmake.5Coutput.5Cobjects.5CSwcApplTpms_DevCanMessages.
                         677 	.align	2
                         678 
                         679 --_U8_CfgArrPosition	r27	param
                         680 
                         681 	.data
                         682 	.text
                         683 	.align	2
                         684 	.align	2
                         685 ..gh.f.f.1.e.7:
                         686 	.type	..gh.f.f.1.e.7,@object
                         687 	.size	..gh.f.f.1.e.7,0
                         688 	.global	_DCM_MessageUpdateMultiplex_21..C.3A.5C_ECU2.5CECU_Rivian_A1.5CTarget.5Crepo_projects.5CpRealEcu.5CcL_LATEST.5Cmake.5Coutput.5Cobjects.5CSwcApplTpms_DevCanMessages.
                         689 _DCM_MessageUpdateMultiplex_21..C.3A.5C_ECU2.5CECU_Rivian_A1.5CTarget.5Crepo_projects.5CpRealEcu.5CcL_LATEST.5Cmake.5Coutput.5Cobjects.5CSwcApplTpms_DevCanMessages.:
                         690 _DCM_MessageUpdateMultiplex_21:
0000023a 8007e110        691 	prepare	{r27,r28,r29,r31},0
0000023e 06d8            692 	mov	r6,r27
00000240 9b00            693 	zxb	r27
00000242 3d0600000000*   694 	mov	_DCM_S_LastEventDataReceivedOnMultiplex,r29
                         695 --	    .bf
                         696 .LDW42:
                         697 --line481
                         698 ..lin.C.3A.5C_ECU2.5CECU_Rivian_A1.5CTarget.5Crepo_projects.5CpRealEcu.5CcL_LATEST.5Cmake.5Coutput.5Cobjects.5CSwcApplTpms_DevCanMessages.35::
                         699 .LDWlin35:
00000248 20961500        700 	movea	21,zero,r18
0000024c 3de6b008        701 	movea	2224,r29,r28
00000250 5d97b008        702 	st.b	r18,2224[r29]

                                                                      Page 16
                                                              C:\Users\nhuliyap\AppData\Local\Temp\gh_00006601.s
                         703 	jarl	_DCM_InvIf_RawRSSIGetValue,lp
                         703 <EXPANSION BEGIN>
                         703 jarl22 _DCM_InvIf_RawRSSIGetValue , lp 
00000254 80ff0000*       703 <EXPANSION END>
00000258 5d57b108        704 	st.b	r10,2225[r29]
                         705 --line483
                         706 ..lin.C.3A.5C_ECU2.5CECU_Rivian_A1.5CTarget.5Crepo_projects.5CpRealEcu.5CcL_LATEST.5Cmake.5Coutput.5Cobjects.5CSwcApplTpms_DevCanMessages.36::
                         707 .LDWlin36:
                         708 	jarl	_DCM_InvIf_TelTypeCurrIDGetValue,lp
                         708 <EXPANSION BEGIN>
                         708 jarl22 _DCM_InvIf_TelTypeCurrIDGetValue , lp 
0000025c 80ff0000*       708 <EXPANSION END>
00000260 5d57b208        709 	st.b	r10,2226[r29]
                         710 --line484
                         711 ..lin.C.3A.5C_ECU2.5CECU_Rivian_A1.5CTarget.5Crepo_projects.5CpRealEcu.5CcL_LATEST.5Cmake.5Coutput.5Cobjects.5CSwcApplTpms_DevCanMessages.37::
                         712 .LDWlin37:
                         713 	jarl	_DCM_InvIf_PressLastRxIDGetValue,lp
                         713 <EXPANSION BEGIN>
                         713 jarl22 _DCM_InvIf_PressLastRxIDGetValue , lp 
00000264 80ff0000*       713 <EXPANSION END>
00000268 5d57b308        714 	st.b	r10,2227[r29]
                         715 --line485
                         716 ..lin.C.3A.5C_ECU2.5CECU_Rivian_A1.5CTarget.5Crepo_projects.5CpRealEcu.5CcL_LATEST.5Cmake.5Coutput.5Cobjects.5CSwcApplTpms_DevCanMessages.38::
                         717 .LDWlin38:
                         718 	jarl	_DCM_InvIf_TempLastRxIDGetValue,lp
                         718 <EXPANSION BEGIN>
                         718 jarl22 _DCM_InvIf_TempLastRxIDGetValue , lp 
0000026c 80ff0000*       718 <EXPANSION END>
00000270 5d57b408        719 	st.b	r10,2228[r29]
                         720 --line486
                         721 ..lin.C.3A.5C_ECU2.5CECU_Rivian_A1.5CTarget.5Crepo_projects.5CpRealEcu.5CcL_LATEST.5Cmake.5Coutput.5Cobjects.5CSwcApplTpms_DevCanMessages.39::
                         722 .LDWlin39:
00000274 1d36b508        723 	addi	2229,r29,r6
                         724 	jarl	_DCM_InvIf_RxStatusFieldGetValue,lp
                         724 <EXPANSION BEGIN>
                         724 jarl22 _DCM_InvIf_RxStatusFieldGetValue , lp 
00000278 80ff0000*       724 <EXPANSION END>
                         725 --line487
                         726 ..lin.C.3A.5C_ECU2.5CECU_Rivian_A1.5CTarget.5Crepo_projects.5CpRealEcu.5CcL_LATEST.5Cmake.5Coutput.5Cobjects.5CSwcApplTpms_DevCanMessages.40::
                         727 .LDWlin40:
                         728 	jarl	_DCM_InvIf_RecEventGetCntValue,lp
                         728 <EXPANSION BEGIN>
                         728 jarl22 _DCM_InvIf_RecEventGetCntValue , lp 
0000027c 80ff0000*       728 <EXPANSION END>
00000280 5d57b708        729 	st.b	r10,2231[r29]
                         730 --line489
                         731 ..lin.C.3A.5C_ECU2.5CECU_Rivian_A1.5CTarget.5Crepo_projects.5CpRealEcu.5CcL_LATEST.5Cmake.5Coutput.5Cobjects.5CSwcApplTpms_DevCanMessages.41::
                         732 .LDWlin41:
00000284 3c870100        733 	ld.w	0[r28],r16
00000288 3c7f0500        734 	ld.w	4[r28],r15
0000028c 1bf0            735 	mov	r27,ep
0000028e c3f2            736 	shl	3,ep
00000290 ddf1            737 	add	r29,ep
00000292 0185            738 	sst.w	r16,0[ep]
00000294 037d            739 	sst.w	r15,4[ep]
                         740 --	    .ef
                         741 .LDW52:
00000296 4006ff10        742 	dispose	0,{r27,r28,r29,r31},[lp]
                         743 ___ghs_eofn_DCM_MessageUpdateMultiplex_21:
                         744 	.type	_DCM_MessageUpdateMultiplex_21,@function
                         745 	.size	_DCM_MessageUpdateMultiplex_21,.-_DCM_MessageUpdateMultiplex_21

                                                                      Page 17
                                                              C:\Users\nhuliyap\AppData\Local\Temp\gh_00006601.s
                         746 	.type	_DCM_MessageUpdateMultiplex_21..C.3A.5C_ECU2.5CECU_Rivian_A1.5CTarget.5Crepo_projects.5CpRealEcu.5CcL_LATEST.5Cmake.5Coutput.5Cobjects.5CSwcApplTpms_DevCanMessages.,@function
                         747 	.size	_DCM_MessageUpdateMultiplex_21..C.3A.5C_ECU2.5CECU_Rivian_A1.5CTarget.5Crepo_projects.5CpRealEcu.5CcL_LATEST.5Cmake.5Coutput.5Cobjects.5CSwcApplTpms_DevCanMessages.,.-_DCM_MessageUpdateMultiplex_21..C.3A.5C_ECU2.5CECU_Rivian_A1.5CTarget.5Crepo_projects.5CpRealEcu.5CcL_LATEST.5Cmake.5Coutput.5Cobjects.5CSwcApplTpms_DevCanMessages.
                         748 	.align	2
                         749 
                         750 --_U8_CfgArrPosition	r27	param
                         751 
                         752 	.data
                         753 	.text
                         754 	.align	2
                         755 	.align	2
                         756 ..gh.f.f.1.e.8:
                         757 	.type	..gh.f.f.1.e.8,@object
                         758 	.size	..gh.f.f.1.e.8,0
                         759 	.global	_DCM_InvIf_PressRefCurrIDGetValue
                         760 _DCM_InvIf_PressRefCurrIDGetValue:
0000029a 80072100        761 	prepare	{r31},0
                         762 --	    .bf
                         763 .LDW62:
                         764 	jarl	_DCM_InvIf_ZomPosCurrIDGetValue,lp
                         764 <EXPANSION BEGIN>
                         764 jarl22 _DCM_InvIf_ZomPosCurrIDGetValue , lp 
0000029e 80ff0000*       764 <EXPANSION END>
000002a2 0a30            765 	mov	r10,r6
                         766 	jarl	_ucGetPSollCS,lp
                         766 <EXPANSION BEGIN>
                         766 jarl22 _ucGetPSollCS , lp 
000002a4 80ff0000*       766 <EXPANSION END>
                         767 --	    .ef
                         768 .LDW72:
                         769 --line711
                         770 ..lin.C.3A.5C_ECU2.5CECU_Rivian_A1.5CTarget.5Crepo_projects.5CpRealEcu.5CcL_LATEST.5Cmake.5Coutput.5Cobjects.5CSwcApplTpms_DevCanMessages.42::
                         771 .LDWlin42:
000002a8 40063f00        772 	dispose	0,{r31},[lp]
                         773 	.global	___ghs_eofn_DCM_InvIf_PressRefCurrIDGetValue
                         774 ___ghs_eofn_DCM_InvIf_PressRefCurrIDGetValue:
                         775 	.type	_DCM_InvIf_PressRefCurrIDGetValue,@function
                         776 	.size	_DCM_InvIf_PressRefCurrIDGetValue,.-_DCM_InvIf_PressRefCurrIDGetValue
                         777 	.align	2
                         778 
                         779 	.section ".bss","awb"
                         780 .L420:
                         781 	.type	.L420,@object
                         782 	.size	.L420,0
                         783 	.data
                         784 	.text
                         785 	.align	2
                         786 	.align	2
                         787 ..gh.f.f.1.e.9:
                         788 	.type	..gh.f.f.1.e.9,@object
                         789 	.size	..gh.f.f.1.e.9,0
                         790 	.global	_DCM_MessageUpdateMultiplex_22..C.3A.5C_ECU2.5CECU_Rivian_A1.5CTarget.5Crepo_projects.5CpRealEcu.5CcL_LATEST.5Cmake.5Coutput.5Cobjects.5CSwcApplTpms_DevCanMessages.
                         791 _DCM_MessageUpdateMultiplex_22..C.3A.5C_ECU2.5CECU_Rivian_A1.5CTarget.5Crepo_projects.5CpRealEcu.5CcL_LATEST.5Cmake.5Coutput.5Cobjects.5CSwcApplTpms_DevCanMessages.:
                         792 _DCM_MessageUpdateMultiplex_22:
000002ac 8007e110        793 	prepare	{r27,r28,r29,r31},0
000002b0 06d8            794 	mov	r6,r27
000002b2 9b00            795 	zxb	r27
000002b4 3d0600000000*   796 	mov	_DCM_S_MultiplexMessageIDs+188,r29
                         797 --	    .bf
                         798 .LDW82:
                         799 --line494
                         800 ..lin.C.3A.5C_ECU2.5CECU_Rivian_A1.5CTarget.5Crepo_projects.5CpRealEcu.5CcL_LATEST.5Cmake.5Coutput.5Cobjects.5CSwcApplTpms_DevCanMessages.43::

                                                                      Page 18
                                                              C:\Users\nhuliyap\AppData\Local\Temp\gh_00006601.s
                         801 .LDWlin43:
000002ba 209e1600        802 	movea	22,zero,r19
000002be 1de684ff        803 	addi	-124,r29,r28
000002c2 5d9f84ff        804 	st.b	r19,-124[r29]
                         805 	jarl	_DCM_InvIf_NoiseLevelGetValue,lp
                         805 <EXPANSION BEGIN>
                         805 jarl22 _DCM_InvIf_NoiseLevelGetValue , lp 
000002c6 80ff0000*       805 <EXPANSION END>
000002ca 5d5785ff        806 	st.b	r10,-123[r29]
                         807 --line496
                         808 ..lin.C.3A.5C_ECU2.5CECU_Rivian_A1.5CTarget.5Crepo_projects.5CpRealEcu.5CcL_LATEST.5Cmake.5Coutput.5Cobjects.5CSwcApplTpms_DevCanMessages.44::
                         809 .LDWlin44:
                         810 	jarl	_DCM_InvIf_TPMSStateGetStatus,lp
                         810 <EXPANSION BEGIN>
                         810 jarl22 _DCM_InvIf_TPMSStateGetStatus , lp 
000002ce 80ff0000*       810 <EXPANSION END>
000002d2 8852            811 	shr	8,r10
000002d4 5d5786ff        812 	st.b	r10,-122[r29]
                         813 --line497
                         814 ..lin.C.3A.5C_ECU2.5CECU_Rivian_A1.5CTarget.5Crepo_projects.5CpRealEcu.5CcL_LATEST.5Cmake.5Coutput.5Cobjects.5CSwcApplTpms_DevCanMessages.45::
                         815 .LDWlin45:
                         816 	jarl	_DCM_InvIf_TPMSStateGetStatus,lp
                         816 <EXPANSION BEGIN>
                         816 jarl22 _DCM_InvIf_TPMSStateGetStatus , lp 
000002d8 80ff0000*       816 <EXPANSION END>
000002dc 5d5787ff        817 	st.b	r10,-121[r29]
                         818 --line498
                         819 ..lin.C.3A.5C_ECU2.5CECU_Rivian_A1.5CTarget.5Crepo_projects.5CpRealEcu.5CcL_LATEST.5Cmake.5Coutput.5Cobjects.5CSwcApplTpms_DevCanMessages.46::
                         820 .LDWlin46:
                         821 	jarl	_DCM_InvIf_AutoLocGetTimeoutCntValue,lp
                         821 <EXPANSION BEGIN>
                         821 jarl22 _DCM_InvIf_AutoLocGetTimeoutCntValue , lp 
000002e0 80ff0000*       821 <EXPANSION END>
000002e4 5d5788ff        822 	st.b	r10,-120[r29]
                         823 --line499
                         824 ..lin.C.3A.5C_ECU2.5CECU_Rivian_A1.5CTarget.5Crepo_projects.5CpRealEcu.5CcL_LATEST.5Cmake.5Coutput.5Cobjects.5CSwcApplTpms_DevCanMessages.47::
                         825 .LDWlin47:
                         826 	jarl	_DCM_InvIf_AbsGetResetCntValue,lp
                         826 <EXPANSION BEGIN>
                         826 jarl22 _DCM_InvIf_AbsGetResetCntValue , lp 
000002e8 80ff0000*       826 <EXPANSION END>
000002ec 1cf0            827 	mov	r28,ep
000002ee 6548            828 	sld.bu	5[ep],r9
000002f0 ea4fd870        829 	bins	r10,4,4,r9
000002f4 854b            830 	sst.b	r9,5[ep]
                         831 --line500
                         832 ..lin.C.3A.5C_ECU2.5CECU_Rivian_A1.5CTarget.5Crepo_projects.5CpRealEcu.5CcL_LATEST.5Cmake.5Coutput.5Cobjects.5CSwcApplTpms_DevCanMessages.48::
                         833 .LDWlin48:
                         834 	jarl	_DCM_InvIf_GearReverseGetCntValue,lp
                         834 <EXPANSION BEGIN>
                         834 jarl22 _DCM_InvIf_GearReverseGetCntValue , lp 
000002f6 80ff0000*       834 <EXPANSION END>
000002fa 1cf0            835 	mov	r28,ep
000002fc 6540            836 	sld.bu	5[ep],r8
000002fe ea47d030        837 	bins	r10,0,4,r8
00000302 8543            838 	sst.b	r8,5[ep]
                         839 --line501
                         840 ..lin.C.3A.5C_ECU2.5CECU_Rivian_A1.5CTarget.5Crepo_projects.5CpRealEcu.5CcL_LATEST.5Cmake.5Coutput.5Cobjects.5CSwcApplTpms_DevCanMessages.49::
                         841 .LDWlin49:
                         842 	jarl	_DCM_InvIf_StopEventsGetCntValue,lp
                         842 <EXPANSION BEGIN>

                                                                      Page 19
                                                              C:\Users\nhuliyap\AppData\Local\Temp\gh_00006601.s
                         842 jarl22 _DCM_InvIf_StopEventsGetCntValue , lp 
00000304 80ff0000*       842 <EXPANSION END>
00000308 1cf0            843 	mov	r28,ep
0000030a 6638            844 	sld.bu	6[ep],r7
0000030c ea3fd870        845 	bins	r10,4,4,r7
00000310 863b            846 	sst.b	r7,6[ep]
                         847 --line502
                         848 ..lin.C.3A.5C_ECU2.5CECU_Rivian_A1.5CTarget.5Crepo_projects.5CpRealEcu.5CcL_LATEST.5Cmake.5Coutput.5Cobjects.5CSwcApplTpms_DevCanMessages.50::
                         849 .LDWlin50:
                         850 	jarl	_DCM_InvIf_VehicleStatusGetValue,lp
                         850 <EXPANSION BEGIN>
                         850 jarl22 _DCM_InvIf_VehicleStatusGetValue , lp 
00000312 80ff0000*       850 <EXPANSION END>
00000316 1cf0            851 	mov	r28,ep
00000318 6630            852 	sld.bu	6[ep],r6
0000031a ea37d030        853 	bins	r10,0,4,r6
0000031e 8633            854 	sst.b	r6,6[ep]
                         855 --line503
                         856 ..lin.C.3A.5C_ECU2.5CECU_Rivian_A1.5CTarget.5Crepo_projects.5CpRealEcu.5CcL_LATEST.5Cmake.5Coutput.5Cobjects.5CSwcApplTpms_DevCanMessages.51::
                         857 .LDWlin51:
                         858 	jarl	_DCM_InvIf_PressRefCurrIDGetValue,lp
                         858 <EXPANSION BEGIN>
                         858 jarl22 _DCM_InvIf_PressRefCurrIDGetValue , lp 
00000320 bfff7aff*       858 <EXPANSION END>
00000324 5d578bff        859 	st.b	r10,-117[r29]
                         860 --line505
                         861 ..lin.C.3A.5C_ECU2.5CECU_Rivian_A1.5CTarget.5Crepo_projects.5CpRealEcu.5CcL_LATEST.5Cmake.5Coutput.5Cobjects.5CSwcApplTpms_DevCanMessages.52::
                         862 .LDWlin52:
00000328 3d4785ff        863 	ld.w	-124[r29],r8
0000032c 3d3f89ff        864 	ld.w	-120[r29],r7
00000330 1bf0            865 	mov	r27,ep
00000332 c3f2            866 	shl	3,ep
00000334 ddf1            867 	add	r29,ep
00000336 0145            868 	sst.w	r8,0[ep]
00000338 033d            869 	sst.w	r7,4[ep]
                         870 --	    .ef
                         871 .LDW92:
0000033a 4006ff10        872 	dispose	0,{r27,r28,r29,r31},[lp]
                         873 ___ghs_eofn_DCM_MessageUpdateMultiplex_22:
                         874 	.type	_DCM_MessageUpdateMultiplex_22,@function
                         875 	.size	_DCM_MessageUpdateMultiplex_22,.-_DCM_MessageUpdateMultiplex_22
                         876 	.type	_DCM_MessageUpdateMultiplex_22..C.3A.5C_ECU2.5CECU_Rivian_A1.5CTarget.5Crepo_projects.5CpRealEcu.5CcL_LATEST.5Cmake.5Coutput.5Cobjects.5CSwcApplTpms_DevCanMessages.,@function
                         877 	.size	_DCM_MessageUpdateMultiplex_22..C.3A.5C_ECU2.5CECU_Rivian_A1.5CTarget.5Crepo_projects.5CpRealEcu.5CcL_LATEST.5Cmake.5Coutput.5Cobjects.5CSwcApplTpms_DevCanMessages.,.-_DCM_MessageUpdateMultiplex_22..C.3A.5C_ECU2.5CECU_Rivian_A1.5CTarget.5Crepo_projects.5CpRealEcu.5CcL_LATEST.5Cmake.5Coutput.5Cobjects.5CSwcApplTpms_DevCanMessages.
                         878 	.align	2
                         879 
                         880 --_U8_CfgArrPosition	r27	param
                         881 
                         882 	.data
                         883 	.text
                         884 	.align	2
                         885 	.align	2
                         886 ..gh.f.f.1.e.10:
                         887 	.type	..gh.f.f.1.e.10,@object
                         888 	.size	..gh.f.f.1.e.10,0
                         889 	.global	_DCM_InvIf_TempWarnGetStatus
                         890 _DCM_InvIf_TempWarnGetStatus:
0000033e 80072100        891 	prepare	{r31},0
                         892 --	    .bf
                         893 .LDW03:
                         894 	jarl	_GETucReHeatUpStatusEE,lp
                         894 <EXPANSION BEGIN>

                                                                      Page 20
                                                              C:\Users\nhuliyap\AppData\Local\Temp\gh_00006601.s
                         894 jarl22 _GETucReHeatUpStatusEE , lp 
00000342 80ff0000*       894 <EXPANSION END>
00000346 ca560f00        895 	andi	15,r10,r10
                         896 --	    .ef
                         897 .LDW13:
                         898 --line719
                         899 ..lin.C.3A.5C_ECU2.5CECU_Rivian_A1.5CTarget.5Crepo_projects.5CpRealEcu.5CcL_LATEST.5Cmake.5Coutput.5Cobjects.5CSwcApplTpms_DevCanMessages.53::
                         900 .LDWlin53:
0000034a 40063f00        901 	dispose	0,{r31},[lp]
                         902 	.global	___ghs_eofn_DCM_InvIf_TempWarnGetStatus
                         903 ___ghs_eofn_DCM_InvIf_TempWarnGetStatus:
                         904 	.type	_DCM_InvIf_TempWarnGetStatus,@function
                         905 	.size	_DCM_InvIf_TempWarnGetStatus,.-_DCM_InvIf_TempWarnGetStatus
                         906 	.align	2
                         907 
                         908 	.section ".bss","awb"
                         909 .L516:
                         910 	.type	.L516,@object
                         911 	.size	.L516,0
                         912 	.data
                         913 	.text
                         914 	.align	2
                         915 	.align	2
                         916 ..gh.f.f.1.e.11:
                         917 	.type	..gh.f.f.1.e.11,@object
                         918 	.size	..gh.f.f.1.e.11,0
                         919 	.global	_DCM_InvIf_RfJammerGetStatus
                         920 _DCM_InvIf_RfJammerGetStatus:
                         921 --	    .bf
                         922 .LDW23:
0000034e 80070000*       923 	jr	_GETbHfIntLatchEE
                         924 --	    .ef
                         925 .LDW33:
                         926 	.global	___ghs_eofn_DCM_InvIf_RfJammerGetStatus
                         927 ___ghs_eofn_DCM_InvIf_RfJammerGetStatus:
                         928 	.type	_DCM_InvIf_RfJammerGetStatus,@function
                         929 	.size	_DCM_InvIf_RfJammerGetStatus,.-_DCM_InvIf_RfJammerGetStatus
                         930 	.align	2
                         931 
                         932 	.section ".bss","awb"
                         933 .L564:
                         934 	.type	.L564,@object
                         935 	.size	.L564,0
                         936 	.data
                         937 	.text
                         938 	.align	2
                         939 	.align	2
                         940 ..gh.f.f.1.e.12:
                         941 	.type	..gh.f.f.1.e.12,@object
                         942 	.size	..gh.f.f.1.e.12,0
                         943 	.global	_DCM_MessageUpdateMultiplex_23..C.3A.5C_ECU2.5CECU_Rivian_A1.5CTarget.5Crepo_projects.5CpRealEcu.5CcL_LATEST.5Cmake.5Coutput.5Cobjects.5CSwcApplTpms_DevCanMessages.
                         944 _DCM_MessageUpdateMultiplex_23..C.3A.5C_ECU2.5CECU_Rivian_A1.5CTarget.5Crepo_projects.5CpRealEcu.5CcL_LATEST.5Cmake.5Coutput.5Cobjects.5CSwcApplTpms_DevCanMessages.:
                         945 _DCM_MessageUpdateMultiplex_23:
00000352 8007e110        946 	prepare	{r27,r28,r29,r31},0
00000356 06d8            947 	mov	r6,r27
00000358 9b00            948 	zxb	r27
0000035a 3d0600000000*   949 	mov	_DCM_S_MultiplexMessageIDs,r29
                         950 --	    .bf
                         951 .LDW43:
                         952 --line510
                         953 ..lin.C.3A.5C_ECU2.5CECU_Rivian_A1.5CTarget.5Crepo_projects.5CpRealEcu.5CcL_LATEST.5Cmake.5Coutput.5Cobjects.5CSwcApplTpms_DevCanMessages.54::

                                                                      Page 21
                                                              C:\Users\nhuliyap\AppData\Local\Temp\gh_00006601.s
                         954 .LDWlin54:
00000360 208e1700        955 	movea	23,zero,r17
00000364 1de64800        956 	addi	72,r29,r28
00000368 5d8f4800        957 	st.b	r17,72[r29]
                         958 	jarl	_DCM_InvIf_TempWarnGetStatus,lp
                         958 <EXPANSION BEGIN>
                         958 jarl22 _DCM_InvIf_TempWarnGetStatus , lp 
0000036c bfffd2ff*       958 <EXPANSION END>
00000370 1cf0            959 	mov	r28,ep
00000372 6190            960 	sld.bu	1[ep],r18
00000374 ea97d870        961 	bins	r10,4,4,r18
00000378 8193            962 	sst.b	r18,1[ep]
                         963 --line512
                         964 ..lin.C.3A.5C_ECU2.5CECU_Rivian_A1.5CTarget.5Crepo_projects.5CpRealEcu.5CcL_LATEST.5Cmake.5Coutput.5Cobjects.5CSwcApplTpms_DevCanMessages.55::
                         965 .LDWlin55:
                         966 	jarl	_DCM_InvIf_RfJammerGetStatus,lp
                         966 <EXPANSION BEGIN>
                         966 jarl22 _DCM_InvIf_RfJammerGetStatus , lp 
0000037a bfffd4ff*       966 <EXPANSION END>
0000037e dc1f0100        967 	set1	3,1[r28]
00000382 8152            968 	shr	1,r10
00000384 b105*           969 	bl	.L613
00000386 dc9f0100        970 	clr1	3,1[r28]
                         971 .L613:
                         972 --line513
                         973 ..lin.C.3A.5C_ECU2.5CECU_Rivian_A1.5CTarget.5Crepo_projects.5CpRealEcu.5CcL_LATEST.5Cmake.5Coutput.5Cobjects.5CSwcApplTpms_DevCanMessages.56::
                         974 .LDWlin56:
                         975 	jarl	_DCM_InvIf_AxImbWarnSetThresholdGetValue,lp
                         975 <EXPANSION BEGIN>
                         975 jarl22 _DCM_InvIf_AxImbWarnSetThresholdGetValue , lp 
0000038a 80ff0000*       975 <EXPANSION END>
0000038e 5c570200        976 	st.b	r10,2[r28]
                         977 --line514
                         978 ..lin.C.3A.5C_ECU2.5CECU_Rivian_A1.5CTarget.5Crepo_projects.5CpRealEcu.5CcL_LATEST.5Cmake.5Coutput.5Cobjects.5CSwcApplTpms_DevCanMessages.57::
                         979 .LDWlin57:
                         980 	jarl	_DCM_InvIf_DHWWarnSetThresholdGetValue,lp
                         980 <EXPANSION BEGIN>
                         980 jarl22 _DCM_InvIf_DHWWarnSetThresholdGetValue , lp 
00000392 80ff0000*       980 <EXPANSION END>
00000396 5c570300        981 	st.b	r10,3[r28]
                         982 --line515
                         983 ..lin.C.3A.5C_ECU2.5CECU_Rivian_A1.5CTarget.5Crepo_projects.5CpRealEcu.5CcL_LATEST.5Cmake.5Coutput.5Cobjects.5CSwcApplTpms_DevCanMessages.58::
                         984 .LDWlin58:
                         985 	jarl	_DCM_InvIf_EuFWarnSetThresholdGetValue,lp
                         985 <EXPANSION BEGIN>
                         985 jarl22 _DCM_InvIf_EuFWarnSetThresholdGetValue , lp 
0000039a 80ff0000*       985 <EXPANSION END>
0000039e 5c570400        986 	st.b	r10,4[r28]
                         987 --line516
                         988 ..lin.C.3A.5C_ECU2.5CECU_Rivian_A1.5CTarget.5Crepo_projects.5CpRealEcu.5CcL_LATEST.5Cmake.5Coutput.5Cobjects.5CSwcApplTpms_DevCanMessages.59::
                         989 .LDWlin59:
                         990 	jarl	_DCM_InvIf_FTWarnSetThresholdGetValue,lp
                         990 <EXPANSION BEGIN>
                         990 jarl22 _DCM_InvIf_FTWarnSetThresholdGetValue , lp 
000003a2 80ff0000*       990 <EXPANSION END>
000003a6 5c570500        991 	st.b	r10,5[r28]
                         992 --line517
                         993 ..lin.C.3A.5C_ECU2.5CECU_Rivian_A1.5CTarget.5Crepo_projects.5CpRealEcu.5CcL_LATEST.5Cmake.5Coutput.5Cobjects.5CSwcApplTpms_DevCanMessages.60::
                         994 .LDWlin60:
                         995 	jarl	_DCM_InvIf_HardTDRWarnSetThresholdGetValue,lp
                         995 <EXPANSION BEGIN>

                                                                      Page 22
                                                              C:\Users\nhuliyap\AppData\Local\Temp\gh_00006601.s
                         995 jarl22 _DCM_InvIf_HardTDRWarnSetThresholdGetValue , lp 
000003aa 80ff0000*       995 <EXPANSION END>
000003ae 5c570600        996 	st.b	r10,6[r28]
                         997 --line518
                         998 ..lin.C.3A.5C_ECU2.5CECU_Rivian_A1.5CTarget.5Crepo_projects.5CpRealEcu.5CcL_LATEST.5Cmake.5Coutput.5Cobjects.5CSwcApplTpms_DevCanMessages.61::
                         999 .LDWlin61:
                        1000 	jarl	_DCM_InvIf_DebugAllocType,lp
                        1000 <EXPANSION BEGIN>
                        1000 jarl22 _DCM_InvIf_DebugAllocType , lp 
000003b2 80ff0000*      1000 <EXPANSION END>
000003b6 5c570700       1001 	st.b	r10,7[r28]
                        1002 --line520
                        1003 ..lin.C.3A.5C_ECU2.5CECU_Rivian_A1.5CTarget.5Crepo_projects.5CpRealEcu.5CcL_LATEST.5Cmake.5Coutput.5Cobjects.5CSwcApplTpms_DevCanMessages.62::
                        1004 .LDWlin62:
000003ba 3c470100       1005 	ld.w	0[r28],r8
000003be 3c3f0500       1006 	ld.w	4[r28],r7
000003c2 1bf0           1007 	mov	r27,ep
000003c4 c3f2           1008 	shl	3,ep
000003c6 ddf1           1009 	add	r29,ep
000003c8 5f45           1010 	sst.w	r8,188[ep]
000003ca 613d           1011 	sst.w	r7,192[ep]
                        1012 --	    .ef
                        1013 .LDW53:
000003cc 4006ff10       1014 	dispose	0,{r27,r28,r29,r31},[lp]
                        1015 ___ghs_eofn_DCM_MessageUpdateMultiplex_23:
                        1016 	.type	_DCM_MessageUpdateMultiplex_23,@function
                        1017 	.size	_DCM_MessageUpdateMultiplex_23,.-_DCM_MessageUpdateMultiplex_23
                        1018 	.type	_DCM_MessageUpdateMultiplex_23..C.3A.5C_ECU2.5CECU_Rivian_A1.5CTarget.5Crepo_projects.5CpRealEcu.5CcL_LATEST.5Cmake.5Coutput.5Cobjects.5CSwcApplTpms_DevCanMessages.,@function
                        1019 	.size	_DCM_MessageUpdateMultiplex_23..C.3A.5C_ECU2.5CECU_Rivian_A1.5CTarget.5Crepo_projects.5CpRealEcu.5CcL_LATEST.5Cmake.5Coutput.5Cobjects.5CSwcApplTpms_DevCanMessages.,.-_DCM_MessageUpdateMultiplex_23..C.3A.5C_ECU2.5CECU_Rivian_A1.5CTarget.5Crepo_projects.5CpRealEcu.5CcL_LATEST.5Cmake.5Coutput.5Cobjects.5CSwcApplTpms_DevCanMessages.
                        1020 	.align	2
                        1021 
                        1022 --_U8_CfgArrPosition	r27	param
                        1023 
                        1024 	.data
                        1025 	.text
                        1026 	.align	2
                        1027 	.align	2
                        1028 ..gh.f.f.1.e.13:
                        1029 	.type	..gh.f.f.1.e.13,@object
                        1030 	.size	..gh.f.f.1.e.13,0
                        1031 	.global	_DCM_MessageUpdateMultiplex_24..C.3A.5C_ECU2.5CECU_Rivian_A1.5CTarget.5Crepo_projects.5CpRealEcu.5CcL_LATEST.5Cmake.5Coutput.5Cobjects.5CSwcApplTpms_DevCanMessages.
                        1032 _DCM_MessageUpdateMultiplex_24..C.3A.5C_ECU2.5CECU_Rivian_A1.5CTarget.5Crepo_projects.5CpRealEcu.5CcL_LATEST.5Cmake.5Coutput.5Cobjects.5CSwcApplTpms_DevCanMessages.:
                        1033 _DCM_MessageUpdateMultiplex_24:
000003d0 8007e110       1034 	prepare	{r27,r28,r29,r31},0
000003d4 06d8           1035 	mov	r6,r27
000003d6 9b00           1036 	zxb	r27
000003d8 3d0600000000*  1037 	mov	_DCM_S_MultiplexMessageIDs+188,r29
                        1038 --	    .bf
                        1039 .LDW63:
                        1040 --line525
                        1041 ..lin.C.3A.5C_ECU2.5CECU_Rivian_A1.5CTarget.5Crepo_projects.5CpRealEcu.5CcL_LATEST.5Cmake.5Coutput.5Cobjects.5CSwcApplTpms_DevCanMessages.63::
                        1042 .LDWlin63:
000003de 20961800       1043 	movea	24,zero,r18
000003e2 1de694ff       1044 	addi	-108,r29,r28
000003e6 5d9794ff       1045 	st.b	r18,-108[r29]
                        1046 	jarl	_DCM_InvIf_HiPWarnSetThresholdGetValue,lp
                        1046 <EXPANSION BEGIN>
                        1046 jarl22 _DCM_InvIf_HiPWarnSetThresholdGetValue , lp 
000003ea 80ff0000*      1046 <EXPANSION END>
000003ee 5d5795ff       1047 	st.b	r10,-107[r29]
                        1048 --line527

                                                                      Page 23
                                                              C:\Users\nhuliyap\AppData\Local\Temp\gh_00006601.s
                        1049 ..lin.C.3A.5C_ECU2.5CECU_Rivian_A1.5CTarget.5Crepo_projects.5CpRealEcu.5CcL_LATEST.5Cmake.5Coutput.5Cobjects.5CSwcApplTpms_DevCanMessages.64::
                        1050 .LDWlin64:
                        1051 	jarl	_DCM_InvIf_LowPWarnSetThresholdGetValue,lp
                        1051 <EXPANSION BEGIN>
                        1051 jarl22 _DCM_InvIf_LowPWarnSetThresholdGetValue , lp 
000003f2 80ff0000*      1051 <EXPANSION END>
000003f6 5d5796ff       1052 	st.b	r10,-106[r29]
                        1053 --line528
                        1054 ..lin.C.3A.5C_ECU2.5CECU_Rivian_A1.5CTarget.5Crepo_projects.5CpRealEcu.5CcL_LATEST.5Cmake.5Coutput.5Cobjects.5CSwcApplTpms_DevCanMessages.65::
                        1055 .LDWlin65:
                        1056 	jarl	_DCM_InvIf_PminDRWarnSetThresholdGetValue,lp
                        1056 <EXPANSION BEGIN>
                        1056 jarl22 _DCM_InvIf_PminDRWarnSetThresholdGetValue , lp 
000003fa 80ff0000*      1056 <EXPANSION END>
000003fe 5d5797ff       1057 	st.b	r10,-105[r29]
                        1058 --line529
                        1059 ..lin.C.3A.5C_ECU2.5CECU_Rivian_A1.5CTarget.5Crepo_projects.5CpRealEcu.5CcL_LATEST.5Cmake.5Coutput.5Cobjects.5CSwcApplTpms_DevCanMessages.66::
                        1060 .LDWlin66:
                        1061 	jarl	_DCM_InvIf_VehDirectionGetValue,lp
                        1061 <EXPANSION BEGIN>
                        1061 jarl22 _DCM_InvIf_VehDirectionGetValue , lp 
00000402 80ff0000*      1061 <EXPANSION END>
00000406 5d579aff       1062 	st.b	r10,-102[r29]
                        1063 --line530
                        1064 ..lin.C.3A.5C_ECU2.5CECU_Rivian_A1.5CTarget.5Crepo_projects.5CpRealEcu.5CcL_LATEST.5Cmake.5Coutput.5Cobjects.5CSwcApplTpms_DevCanMessages.67::
                        1065 .LDWlin67:
                        1066 	jarl	_DCM_InvIf_AllReceivedTelegGetValue,lp
                        1066 <EXPANSION BEGIN>
                        1066 jarl22 _DCM_InvIf_AllReceivedTelegGetValue , lp 
0000040a 80ff0000*      1066 <EXPANSION END>
0000040e 5d579bff       1067 	st.b	r10,-101[r29]
                        1068 --line531
                        1069 ..lin.C.3A.5C_ECU2.5CECU_Rivian_A1.5CTarget.5Crepo_projects.5CpRealEcu.5CcL_LATEST.5Cmake.5Coutput.5Cobjects.5CSwcApplTpms_DevCanMessages.68::
                        1070 .LDWlin68:
00000412 3c870100       1071 	ld.w	0[r28],r16
00000416 3c7f0500       1072 	ld.w	4[r28],r15
0000041a 1bf0           1073 	mov	r27,ep
0000041c c3f2           1074 	shl	3,ep
0000041e ddf1           1075 	add	r29,ep
00000420 0185           1076 	sst.w	r16,0[ep]
00000422 037d           1077 	sst.w	r15,4[ep]
                        1078 --	    .ef
                        1079 .LDW73:
00000424 4006ff10       1080 	dispose	0,{r27,r28,r29,r31},[lp]
                        1081 ___ghs_eofn_DCM_MessageUpdateMultiplex_24:
                        1082 	.type	_DCM_MessageUpdateMultiplex_24,@function
                        1083 	.size	_DCM_MessageUpdateMultiplex_24,.-_DCM_MessageUpdateMultiplex_24
                        1084 	.type	_DCM_MessageUpdateMultiplex_24..C.3A.5C_ECU2.5CECU_Rivian_A1.5CTarget.5Crepo_projects.5CpRealEcu.5CcL_LATEST.5Cmake.5Coutput.5Cobjects.5CSwcApplTpms_DevCanMessages.,@function
                        1085 	.size	_DCM_MessageUpdateMultiplex_24..C.3A.5C_ECU2.5CECU_Rivian_A1.5CTarget.5Crepo_projects.5CpRealEcu.5CcL_LATEST.5Cmake.5Coutput.5Cobjects.5CSwcApplTpms_DevCanMessages.,.-_DCM_MessageUpdateMultiplex_24..C.3A.5C_ECU2.5CECU_Rivian_A1.5CTarget.5Crepo_projects.5CpRealEcu.5CcL_LATEST.5Cmake.5Coutput.5Cobjects.5CSwcApplTpms_DevCanMessages.
                        1086 	.align	2
                        1087 
                        1088 --_U8_CfgArrPosition	r27	param
                        1089 
                        1090 	.data
                        1091 	.text
                        1092 	.align	2
                        1093 	.align	2
                        1094 ..gh.f.f.1.e.14:
                        1095 	.type	..gh.f.f.1.e.14,@object
                        1096 	.size	..gh.f.f.1.e.14,0
                        1097 	.global	_DCM_MessageUpdateMultiplex_30..C.3A.5C_ECU2.5CECU_Rivian_A1.5CTarget.5Crepo_projects.5CpRealEcu.5CcL_LATEST.5Cmake.5Coutput.5Cobjects.5CSwcApplTpms_DevCanMessages.

                                                                      Page 24
                                                              C:\Users\nhuliyap\AppData\Local\Temp\gh_00006601.s
                        1098 _DCM_MessageUpdateMultiplex_30..C.3A.5C_ECU2.5CECU_Rivian_A1.5CTarget.5Crepo_projects.5CpRealEcu.5CcL_LATEST.5Cmake.5Coutput.5Cobjects.5CSwcApplTpms_DevCanMessages.:
                        1099 _DCM_MessageUpdateMultiplex_30:
00000428 8007e110       1100 	prepare	{r27,r28,r29,r31},0
0000042c 06d8           1101 	mov	r6,r27
0000042e 9b00           1102 	zxb	r27
00000430 3d0600000000*  1103 	mov	_DCM_S_MultiplexMessageIDs+188,r29
                        1104 --	    .bf
                        1105 .LDW83:
                        1106 --line550
                        1107 ..lin.C.3A.5C_ECU2.5CECU_Rivian_A1.5CTarget.5Crepo_projects.5CpRealEcu.5CcL_LATEST.5Cmake.5Coutput.5Cobjects.5CSwcApplTpms_DevCanMessages.69::
                        1108 .LDWlin69:
00000436 20961e00       1109 	movea	30,zero,r18
0000043a 1de69cff       1110 	addi	-100,r29,r28
0000043e 5d979cff       1111 	st.b	r18,-100[r29]
00000442 1d3e9dff       1112 	addi	-99,r29,r7
00000446 0032           1113 	mov	0,r6
                        1114 	jarl	_DCM_InvIf_HistoryIDReadValue,lp
                        1114 <EXPANSION BEGIN>
                        1114 jarl22 _DCM_InvIf_HistoryIDReadValue , lp 
00000448 80ff0000*      1114 <EXPANSION END>
                        1115 --line552
                        1116 ..lin.C.3A.5C_ECU2.5CECU_Rivian_A1.5CTarget.5Crepo_projects.5CpRealEcu.5CcL_LATEST.5Cmake.5Coutput.5Cobjects.5CSwcApplTpms_DevCanMessages.70::
                        1117 .LDWlin70:
0000044c 1d3ea1ff       1118 	addi	-95,r29,r7
00000450 0032           1119 	mov	0,r6
                        1120 	jarl	_DCM_InvIf_HistoryWPReadValue,lp
                        1120 <EXPANSION BEGIN>
                        1120 jarl22 _DCM_InvIf_HistoryWPReadValue , lp 
00000452 80ff0000*      1120 <EXPANSION END>
                        1121 --line553
                        1122 ..lin.C.3A.5C_ECU2.5CECU_Rivian_A1.5CTarget.5Crepo_projects.5CpRealEcu.5CcL_LATEST.5Cmake.5Coutput.5Cobjects.5CSwcApplTpms_DevCanMessages.71::
                        1123 .LDWlin71:
00000456 0032           1124 	mov	0,r6
                        1125 	jarl	_DCM_InvIf_RecepMissedGetCntValue,lp
                        1125 <EXPANSION BEGIN>
                        1125 jarl22 _DCM_InvIf_RecepMissedGetCntValue , lp 
00000458 80ff0000*      1125 <EXPANSION END>
0000045c 5d57a2ff       1126 	st.b	r10,-94[r29]
                        1127 --line554
                        1128 ..lin.C.3A.5C_ECU2.5CECU_Rivian_A1.5CTarget.5Crepo_projects.5CpRealEcu.5CcL_LATEST.5Cmake.5Coutput.5Cobjects.5CSwcApplTpms_DevCanMessages.72::
                        1129 .LDWlin72:
00000460 1d3ea3ff       1130 	addi	-93,r29,r7
00000464 0032           1131 	mov	0,r6
                        1132 	jarl	_DCM_InvIf_WarnVectReadHistoryStatus,lp
                        1132 <EXPANSION BEGIN>
                        1132 jarl22 _DCM_InvIf_WarnVectReadHistoryStatus , lp 
00000466 80ff0000*      1132 <EXPANSION END>
                        1133 --line556
                        1134 ..lin.C.3A.5C_ECU2.5CECU_Rivian_A1.5CTarget.5Crepo_projects.5CpRealEcu.5CcL_LATEST.5Cmake.5Coutput.5Cobjects.5CSwcApplTpms_DevCanMessages.73::
                        1135 .LDWlin73:
0000046a 3c870100       1136 	ld.w	0[r28],r16
0000046e 3c7f0500       1137 	ld.w	4[r28],r15
00000472 1bf0           1138 	mov	r27,ep
00000474 c3f2           1139 	shl	3,ep
00000476 ddf1           1140 	add	r29,ep
00000478 0185           1141 	sst.w	r16,0[ep]
0000047a 037d           1142 	sst.w	r15,4[ep]
                        1143 --	    .ef
                        1144 .LDW93:
0000047c 4006ff10       1145 	dispose	0,{r27,r28,r29,r31},[lp]
                        1146 ___ghs_eofn_DCM_MessageUpdateMultiplex_30:

                                                                      Page 25
                                                              C:\Users\nhuliyap\AppData\Local\Temp\gh_00006601.s
                        1147 	.type	_DCM_MessageUpdateMultiplex_30,@function
                        1148 	.size	_DCM_MessageUpdateMultiplex_30,.-_DCM_MessageUpdateMultiplex_30
                        1149 	.type	_DCM_MessageUpdateMultiplex_30..C.3A.5C_ECU2.5CECU_Rivian_A1.5CTarget.5Crepo_projects.5CpRealEcu.5CcL_LATEST.5Cmake.5Coutput.5Cobjects.5CSwcApplTpms_DevCanMessages.,@function
                        1150 	.size	_DCM_MessageUpdateMultiplex_30..C.3A.5C_ECU2.5CECU_Rivian_A1.5CTarget.5Crepo_projects.5CpRealEcu.5CcL_LATEST.5Cmake.5Coutput.5Cobjects.5CSwcApplTpms_DevCanMessages.,.-_DCM_MessageUpdateMultiplex_30..C.3A.5C_ECU2.5CECU_Rivian_A1.5CTarget.5Crepo_projects.5CpRealEcu.5CcL_LATEST.5Cmake.5Coutput.5Cobjects.5CSwcApplTpms_DevCanMessages.
                        1151 	.align	2
                        1152 
                        1153 --_U8_CfgArrPosition	r27	param
                        1154 
                        1155 	.data
                        1156 	.text
                        1157 	.align	2
                        1158 	.align	2
                        1159 ..gh.f.f.1.e.15:
                        1160 	.type	..gh.f.f.1.e.15,@object
                        1161 	.size	..gh.f.f.1.e.15,0
                        1162 	.global	_DCM_MessageUpdateMultiplex_31..C.3A.5C_ECU2.5CECU_Rivian_A1.5CTarget.5Crepo_projects.5CpRealEcu.5CcL_LATEST.5Cmake.5Coutput.5Cobjects.5CSwcApplTpms_DevCanMessages.
                        1163 _DCM_MessageUpdateMultiplex_31..C.3A.5C_ECU2.5CECU_Rivian_A1.5CTarget.5Crepo_projects.5CpRealEcu.5CcL_LATEST.5Cmake.5Coutput.5Cobjects.5CSwcApplTpms_DevCanMessages.:
                        1164 _DCM_MessageUpdateMultiplex_31:
00000480 8007e110       1165 	prepare	{r27,r28,r29,r31},0
00000484 06d8           1166 	mov	r6,r27
00000486 9b00           1167 	zxb	r27
00000488 3d0600000000*  1168 	mov	_DCM_S_MultiplexMessageIDs+188,r29
                        1169 --	    .bf
                        1170 .LDW04:
                        1171 --line561
                        1172 ..lin.C.3A.5C_ECU2.5CECU_Rivian_A1.5CTarget.5Crepo_projects.5CpRealEcu.5CcL_LATEST.5Cmake.5Coutput.5Cobjects.5CSwcApplTpms_DevCanMessages.74::
                        1173 .LDWlin74:
0000048e 20961f00       1174 	movea	31,zero,r18
00000492 1de6a4ff       1175 	addi	-92,r29,r28
00000496 5d97a4ff       1176 	st.b	r18,-92[r29]
0000049a 1d3ea5ff       1177 	addi	-91,r29,r7
0000049e 0132           1178 	mov	1,r6
                        1179 	jarl	_DCM_InvIf_HistoryIDReadValue,lp
                        1179 <EXPANSION BEGIN>
                        1179 jarl22 _DCM_InvIf_HistoryIDReadValue , lp 
000004a0 80ff0000*      1179 <EXPANSION END>
                        1180 --line563
                        1181 ..lin.C.3A.5C_ECU2.5CECU_Rivian_A1.5CTarget.5Crepo_projects.5CpRealEcu.5CcL_LATEST.5Cmake.5Coutput.5Cobjects.5CSwcApplTpms_DevCanMessages.75::
                        1182 .LDWlin75:
000004a4 1d3ea9ff       1183 	addi	-87,r29,r7
000004a8 0132           1184 	mov	1,r6
                        1185 	jarl	_DCM_InvIf_HistoryWPReadValue,lp
                        1185 <EXPANSION BEGIN>
                        1185 jarl22 _DCM_InvIf_HistoryWPReadValue , lp 
000004aa 80ff0000*      1185 <EXPANSION END>
                        1186 --line564
                        1187 ..lin.C.3A.5C_ECU2.5CECU_Rivian_A1.5CTarget.5Crepo_projects.5CpRealEcu.5CcL_LATEST.5Cmake.5Coutput.5Cobjects.5CSwcApplTpms_DevCanMessages.76::
                        1188 .LDWlin76:
000004ae 0132           1189 	mov	1,r6
                        1190 	jarl	_DCM_InvIf_RecepMissedGetCntValue,lp
                        1190 <EXPANSION BEGIN>
                        1190 jarl22 _DCM_InvIf_RecepMissedGetCntValue , lp 
000004b0 80ff0000*      1190 <EXPANSION END>
000004b4 5d57aaff       1191 	st.b	r10,-86[r29]
                        1192 --line565
                        1193 ..lin.C.3A.5C_ECU2.5CECU_Rivian_A1.5CTarget.5Crepo_projects.5CpRealEcu.5CcL_LATEST.5Cmake.5Coutput.5Cobjects.5CSwcApplTpms_DevCanMessages.77::
                        1194 .LDWlin77:
000004b8 1d3eabff       1195 	addi	-85,r29,r7
000004bc 0132           1196 	mov	1,r6
                        1197 	jarl	_DCM_InvIf_WarnVectReadHistoryStatus,lp
                        1197 <EXPANSION BEGIN>

                                                                      Page 26
                                                              C:\Users\nhuliyap\AppData\Local\Temp\gh_00006601.s
                        1197 jarl22 _DCM_InvIf_WarnVectReadHistoryStatus , lp 
000004be 80ff0000*      1197 <EXPANSION END>
                        1198 --line567
                        1199 ..lin.C.3A.5C_ECU2.5CECU_Rivian_A1.5CTarget.5Crepo_projects.5CpRealEcu.5CcL_LATEST.5Cmake.5Coutput.5Cobjects.5CSwcApplTpms_DevCanMessages.78::
                        1200 .LDWlin78:
000004c2 3c870100       1201 	ld.w	0[r28],r16
000004c6 3c7f0500       1202 	ld.w	4[r28],r15
000004ca 1bf0           1203 	mov	r27,ep
000004cc c3f2           1204 	shl	3,ep
000004ce ddf1           1205 	add	r29,ep
000004d0 0185           1206 	sst.w	r16,0[ep]
000004d2 037d           1207 	sst.w	r15,4[ep]
                        1208 --	    .ef
                        1209 .LDW14:
000004d4 4006ff10       1210 	dispose	0,{r27,r28,r29,r31},[lp]
                        1211 ___ghs_eofn_DCM_MessageUpdateMultiplex_31:
                        1212 	.type	_DCM_MessageUpdateMultiplex_31,@function
                        1213 	.size	_DCM_MessageUpdateMultiplex_31,.-_DCM_MessageUpdateMultiplex_31
                        1214 	.type	_DCM_MessageUpdateMultiplex_31..C.3A.5C_ECU2.5CECU_Rivian_A1.5CTarget.5Crepo_projects.5CpRealEcu.5CcL_LATEST.5Cmake.5Coutput.5Cobjects.5CSwcApplTpms_DevCanMessages.,@function
                        1215 	.size	_DCM_MessageUpdateMultiplex_31..C.3A.5C_ECU2.5CECU_Rivian_A1.5CTarget.5Crepo_projects.5CpRealEcu.5CcL_LATEST.5Cmake.5Coutput.5Cobjects.5CSwcApplTpms_DevCanMessages.,.-_DCM_MessageUpdateMultiplex_31..C.3A.5C_ECU2.5CECU_Rivian_A1.5CTarget.5Crepo_projects.5CpRealEcu.5CcL_LATEST.5Cmake.5Coutput.5Cobjects.5CSwcApplTpms_DevCanMessages.
                        1216 	.align	2
                        1217 
                        1218 --_U8_CfgArrPosition	r27	param
                        1219 
                        1220 	.data
                        1221 	.text
                        1222 	.align	2
                        1223 	.align	2
                        1224 ..gh.f.f.1.e.16:
                        1225 	.type	..gh.f.f.1.e.16,@object
                        1226 	.size	..gh.f.f.1.e.16,0
                        1227 	.global	_DCM_MessageUpdateMultiplex_32..C.3A.5C_ECU2.5CECU_Rivian_A1.5CTarget.5Crepo_projects.5CpRealEcu.5CcL_LATEST.5Cmake.5Coutput.5Cobjects.5CSwcApplTpms_DevCanMessages.
                        1228 _DCM_MessageUpdateMultiplex_32..C.3A.5C_ECU2.5CECU_Rivian_A1.5CTarget.5Crepo_projects.5CpRealEcu.5CcL_LATEST.5Cmake.5Coutput.5Cobjects.5CSwcApplTpms_DevCanMessages.:
                        1229 _DCM_MessageUpdateMultiplex_32:
000004d8 8007e110       1230 	prepare	{r27,r28,r29,r31},0
000004dc 06d8           1231 	mov	r6,r27
000004de 9b00           1232 	zxb	r27
000004e0 3d0600000000*  1233 	mov	_DCM_S_MultiplexMessageIDs+188,r29
                        1234 --	    .bf
                        1235 .LDW24:
                        1236 --line572
                        1237 ..lin.C.3A.5C_ECU2.5CECU_Rivian_A1.5CTarget.5Crepo_projects.5CpRealEcu.5CcL_LATEST.5Cmake.5Coutput.5Cobjects.5CSwcApplTpms_DevCanMessages.79::
                        1238 .LDWlin79:
000004e6 20962000       1239 	movea	32,zero,r18
000004ea 1de6acff       1240 	addi	-84,r29,r28
000004ee 5d97acff       1241 	st.b	r18,-84[r29]
000004f2 1d3eadff       1242 	addi	-83,r29,r7
000004f6 0232           1243 	mov	2,r6
                        1244 	jarl	_DCM_InvIf_HistoryIDReadValue,lp
                        1244 <EXPANSION BEGIN>
                        1244 jarl22 _DCM_InvIf_HistoryIDReadValue , lp 
000004f8 80ff0000*      1244 <EXPANSION END>
                        1245 --line574
                        1246 ..lin.C.3A.5C_ECU2.5CECU_Rivian_A1.5CTarget.5Crepo_projects.5CpRealEcu.5CcL_LATEST.5Cmake.5Coutput.5Cobjects.5CSwcApplTpms_DevCanMessages.80::
                        1247 .LDWlin80:
000004fc 1d3eb1ff       1248 	addi	-79,r29,r7
00000500 0232           1249 	mov	2,r6
                        1250 	jarl	_DCM_InvIf_HistoryWPReadValue,lp
                        1250 <EXPANSION BEGIN>
                        1250 jarl22 _DCM_InvIf_HistoryWPReadValue , lp 
00000502 80ff0000*      1250 <EXPANSION END>

                                                                      Page 27
                                                              C:\Users\nhuliyap\AppData\Local\Temp\gh_00006601.s
                        1251 --line575
                        1252 ..lin.C.3A.5C_ECU2.5CECU_Rivian_A1.5CTarget.5Crepo_projects.5CpRealEcu.5CcL_LATEST.5Cmake.5Coutput.5Cobjects.5CSwcApplTpms_DevCanMessages.81::
                        1253 .LDWlin81:
00000506 0232           1254 	mov	2,r6
                        1255 	jarl	_DCM_InvIf_RecepMissedGetCntValue,lp
                        1255 <EXPANSION BEGIN>
                        1255 jarl22 _DCM_InvIf_RecepMissedGetCntValue , lp 
00000508 80ff0000*      1255 <EXPANSION END>
0000050c 5d57b2ff       1256 	st.b	r10,-78[r29]
                        1257 --line576
                        1258 ..lin.C.3A.5C_ECU2.5CECU_Rivian_A1.5CTarget.5Crepo_projects.5CpRealEcu.5CcL_LATEST.5Cmake.5Coutput.5Cobjects.5CSwcApplTpms_DevCanMessages.82::
                        1259 .LDWlin82:
00000510 1d3eb3ff       1260 	addi	-77,r29,r7
00000514 0232           1261 	mov	2,r6
                        1262 	jarl	_DCM_InvIf_WarnVectReadHistoryStatus,lp
                        1262 <EXPANSION BEGIN>
                        1262 jarl22 _DCM_InvIf_WarnVectReadHistoryStatus , lp 
00000516 80ff0000*      1262 <EXPANSION END>
                        1263 --line578
                        1264 ..lin.C.3A.5C_ECU2.5CECU_Rivian_A1.5CTarget.5Crepo_projects.5CpRealEcu.5CcL_LATEST.5Cmake.5Coutput.5Cobjects.5CSwcApplTpms_DevCanMessages.83::
                        1265 .LDWlin83:
0000051a 3c870100       1266 	ld.w	0[r28],r16
0000051e 3c7f0500       1267 	ld.w	4[r28],r15
00000522 1bf0           1268 	mov	r27,ep
00000524 c3f2           1269 	shl	3,ep
00000526 ddf1           1270 	add	r29,ep
00000528 0185           1271 	sst.w	r16,0[ep]
0000052a 037d           1272 	sst.w	r15,4[ep]
                        1273 --	    .ef
                        1274 .LDW34:
0000052c 4006ff10       1275 	dispose	0,{r27,r28,r29,r31},[lp]
                        1276 ___ghs_eofn_DCM_MessageUpdateMultiplex_32:
                        1277 	.type	_DCM_MessageUpdateMultiplex_32,@function
                        1278 	.size	_DCM_MessageUpdateMultiplex_32,.-_DCM_MessageUpdateMultiplex_32
                        1279 	.type	_DCM_MessageUpdateMultiplex_32..C.3A.5C_ECU2.5CECU_Rivian_A1.5CTarget.5Crepo_projects.5CpRealEcu.5CcL_LATEST.5Cmake.5Coutput.5Cobjects.5CSwcApplTpms_DevCanMessages.,@function
                        1280 	.size	_DCM_MessageUpdateMultiplex_32..C.3A.5C_ECU2.5CECU_Rivian_A1.5CTarget.5Crepo_projects.5CpRealEcu.5CcL_LATEST.5Cmake.5Coutput.5Cobjects.5CSwcApplTpms_DevCanMessages.,.-_DCM_MessageUpdateMultiplex_32..C.3A.5C_ECU2.5CECU_Rivian_A1.5CTarget.5Crepo_projects.5CpRealEcu.5CcL_LATEST.5Cmake.5Coutput.5Cobjects.5CSwcApplTpms_DevCanMessages.
                        1281 	.align	2
                        1282 
                        1283 --_U8_CfgArrPosition	r27	param
                        1284 
                        1285 	.data
                        1286 	.text
                        1287 	.align	2
                        1288 	.align	2
                        1289 ..gh.f.f.1.e.17:
                        1290 	.type	..gh.f.f.1.e.17,@object
                        1291 	.size	..gh.f.f.1.e.17,0
                        1292 	.global	_DCM_MessageUpdateMultiplex_33..C.3A.5C_ECU2.5CECU_Rivian_A1.5CTarget.5Crepo_projects.5CpRealEcu.5CcL_LATEST.5Cmake.5Coutput.5Cobjects.5CSwcApplTpms_DevCanMessages.
                        1293 _DCM_MessageUpdateMultiplex_33..C.3A.5C_ECU2.5CECU_Rivian_A1.5CTarget.5Crepo_projects.5CpRealEcu.5CcL_LATEST.5Cmake.5Coutput.5Cobjects.5CSwcApplTpms_DevCanMessages.:
                        1294 _DCM_MessageUpdateMultiplex_33:
00000530 8007e110       1295 	prepare	{r27,r28,r29,r31},0
00000534 06d8           1296 	mov	r6,r27
00000536 9b00           1297 	zxb	r27
00000538 3d0600000000*  1298 	mov	_DCM_S_MultiplexMessageIDs+188,r29
                        1299 --	    .bf
                        1300 .LDW44:
                        1301 --line583
                        1302 ..lin.C.3A.5C_ECU2.5CECU_Rivian_A1.5CTarget.5Crepo_projects.5CpRealEcu.5CcL_LATEST.5Cmake.5Coutput.5Cobjects.5CSwcApplTpms_DevCanMessages.84::
                        1303 .LDWlin84:
0000053e 20962100       1304 	movea	33,zero,r18
00000542 1de6b4ff       1305 	addi	-76,r29,r28

                                                                      Page 28
                                                              C:\Users\nhuliyap\AppData\Local\Temp\gh_00006601.s
00000546 5d97b4ff       1306 	st.b	r18,-76[r29]
0000054a 1d3eb5ff       1307 	addi	-75,r29,r7
0000054e 0332           1308 	mov	3,r6
                        1309 	jarl	_DCM_InvIf_HistoryIDReadValue,lp
                        1309 <EXPANSION BEGIN>
                        1309 jarl22 _DCM_InvIf_HistoryIDReadValue , lp 
00000550 80ff0000*      1309 <EXPANSION END>
                        1310 --line585
                        1311 ..lin.C.3A.5C_ECU2.5CECU_Rivian_A1.5CTarget.5Crepo_projects.5CpRealEcu.5CcL_LATEST.5Cmake.5Coutput.5Cobjects.5CSwcApplTpms_DevCanMessages.85::
                        1312 .LDWlin85:
00000554 1d3eb9ff       1313 	addi	-71,r29,r7
00000558 0332           1314 	mov	3,r6
                        1315 	jarl	_DCM_InvIf_HistoryWPReadValue,lp
                        1315 <EXPANSION BEGIN>
                        1315 jarl22 _DCM_InvIf_HistoryWPReadValue , lp 
0000055a 80ff0000*      1315 <EXPANSION END>
                        1316 --line586
                        1317 ..lin.C.3A.5C_ECU2.5CECU_Rivian_A1.5CTarget.5Crepo_projects.5CpRealEcu.5CcL_LATEST.5Cmake.5Coutput.5Cobjects.5CSwcApplTpms_DevCanMessages.86::
                        1318 .LDWlin86:
0000055e 0332           1319 	mov	3,r6
                        1320 	jarl	_DCM_InvIf_RecepMissedGetCntValue,lp
                        1320 <EXPANSION BEGIN>
                        1320 jarl22 _DCM_InvIf_RecepMissedGetCntValue , lp 
00000560 80ff0000*      1320 <EXPANSION END>
00000564 5d57baff       1321 	st.b	r10,-70[r29]
                        1322 --line587
                        1323 ..lin.C.3A.5C_ECU2.5CECU_Rivian_A1.5CTarget.5Crepo_projects.5CpRealEcu.5CcL_LATEST.5Cmake.5Coutput.5Cobjects.5CSwcApplTpms_DevCanMessages.87::
                        1324 .LDWlin87:
00000568 1d3ebbff       1325 	addi	-69,r29,r7
0000056c 0332           1326 	mov	3,r6
                        1327 	jarl	_DCM_InvIf_WarnVectReadHistoryStatus,lp
                        1327 <EXPANSION BEGIN>
                        1327 jarl22 _DCM_InvIf_WarnVectReadHistoryStatus , lp 
0000056e 80ff0000*      1327 <EXPANSION END>
                        1328 --line589
                        1329 ..lin.C.3A.5C_ECU2.5CECU_Rivian_A1.5CTarget.5Crepo_projects.5CpRealEcu.5CcL_LATEST.5Cmake.5Coutput.5Cobjects.5CSwcApplTpms_DevCanMessages.88::
                        1330 .LDWlin88:
00000572 3c870100       1331 	ld.w	0[r28],r16
00000576 3c7f0500       1332 	ld.w	4[r28],r15
0000057a 1bf0           1333 	mov	r27,ep
0000057c c3f2           1334 	shl	3,ep
0000057e ddf1           1335 	add	r29,ep
00000580 0185           1336 	sst.w	r16,0[ep]
00000582 037d           1337 	sst.w	r15,4[ep]
                        1338 --	    .ef
                        1339 .LDW54:
00000584 4006ff10       1340 	dispose	0,{r27,r28,r29,r31},[lp]
                        1341 ___ghs_eofn_DCM_MessageUpdateMultiplex_33:
                        1342 	.type	_DCM_MessageUpdateMultiplex_33,@function
                        1343 	.size	_DCM_MessageUpdateMultiplex_33,.-_DCM_MessageUpdateMultiplex_33
                        1344 	.type	_DCM_MessageUpdateMultiplex_33..C.3A.5C_ECU2.5CECU_Rivian_A1.5CTarget.5Crepo_projects.5CpRealEcu.5CcL_LATEST.5Cmake.5Coutput.5Cobjects.5CSwcApplTpms_DevCanMessages.,@function
                        1345 	.size	_DCM_MessageUpdateMultiplex_33..C.3A.5C_ECU2.5CECU_Rivian_A1.5CTarget.5Crepo_projects.5CpRealEcu.5CcL_LATEST.5Cmake.5Coutput.5Cobjects.5CSwcApplTpms_DevCanMessages.,.-_DCM_MessageUpdateMultiplex_33..C.3A.5C_ECU2.5CECU_Rivian_A1.5CTarget.5Crepo_projects.5CpRealEcu.5CcL_LATEST.5Cmake.5Coutput.5Cobjects.5CSwcApplTpms_DevCanMessages.
                        1346 	.align	2
                        1347 
                        1348 --_U8_CfgArrPosition	r27	param
                        1349 
                        1350 	.data
                        1351 	.text
                        1352 	.align	2
                        1353 	.align	2
                        1354 ..gh.f.f.1.e.18:

                                                                      Page 29
                                                              C:\Users\nhuliyap\AppData\Local\Temp\gh_00006601.s
                        1355 	.type	..gh.f.f.1.e.18,@object
                        1356 	.size	..gh.f.f.1.e.18,0
                        1357 	.global	_DCM_MessageUpdateMultiplex_40..C.3A.5C_ECU2.5CECU_Rivian_A1.5CTarget.5Crepo_projects.5CpRealEcu.5CcL_LATEST.5Cmake.5Coutput.5Cobjects.5CSwcApplTpms_DevCanMessages.
                        1358 _DCM_MessageUpdateMultiplex_40..C.3A.5C_ECU2.5CECU_Rivian_A1.5CTarget.5Crepo_projects.5CpRealEcu.5CcL_LATEST.5Cmake.5Coutput.5Cobjects.5CSwcApplTpms_DevCanMessages.:
                        1359 _DCM_MessageUpdateMultiplex_40:
00000588 8007e110       1360 	prepare	{r27,r28,r29,r31},0
0000058c 06d8           1361 	mov	r6,r27
0000058e 9b00           1362 	zxb	r27
00000590 3d0600000000*  1363 	mov	_DCM_S_MultiplexMessageIDs+188,r29
                        1364 --	    .bf
                        1365 .LDW64:
                        1366 --line594
                        1367 ..lin.C.3A.5C_ECU2.5CECU_Rivian_A1.5CTarget.5Crepo_projects.5CpRealEcu.5CcL_LATEST.5Cmake.5Coutput.5Cobjects.5CSwcApplTpms_DevCanMessages.89::
                        1368 .LDWlin89:
00000596 20962800       1369 	movea	40,zero,r18
0000059a 1de6bcff       1370 	addi	-68,r29,r28
0000059e 5d97bcff       1371 	st.b	r18,-68[r29]
000005a2 1d3ebdff       1372 	addi	-67,r29,r7
000005a6 0032           1373 	mov	0,r6
                        1374 	jarl	_DCM_InvIf_ZomWuIDGetFromMemory,lp
                        1374 <EXPANSION BEGIN>
                        1374 jarl22 _DCM_InvIf_ZomWuIDGetFromMemory , lp 
000005a8 80ff0000*      1374 <EXPANSION END>
                        1375 --line596
                        1376 ..lin.C.3A.5C_ECU2.5CECU_Rivian_A1.5CTarget.5Crepo_projects.5CpRealEcu.5CcL_LATEST.5Cmake.5Coutput.5Cobjects.5CSwcApplTpms_DevCanMessages.90::
                        1377 .LDWlin90:
000005ac 0032           1378 	mov	0,r6
                        1379 	jarl	_DCM_InvIf_ZomStatusGetFromMemory,lp
                        1379 <EXPANSION BEGIN>
                        1379 jarl22 _DCM_InvIf_ZomStatusGetFromMemory , lp 
000005ae 80ff0000*      1379 <EXPANSION END>
000005b2 5d57c1ff       1380 	st.b	r10,-63[r29]
                        1381 --line597
                        1382 ..lin.C.3A.5C_ECU2.5CECU_Rivian_A1.5CTarget.5Crepo_projects.5CpRealEcu.5CcL_LATEST.5Cmake.5Coutput.5Cobjects.5CSwcApplTpms_DevCanMessages.91::
                        1383 .LDWlin91:
000005b6 0032           1384 	mov	0,r6
                        1385 	jarl	_DCM_InvIf_ZomTelCntGetFromMemory,lp
                        1385 <EXPANSION BEGIN>
                        1385 jarl22 _DCM_InvIf_ZomTelCntGetFromMemory , lp 
000005b8 80ff0000*      1385 <EXPANSION END>
000005bc 5d57c2ff       1386 	st.b	r10,-62[r29]
                        1387 --line599
                        1388 ..lin.C.3A.5C_ECU2.5CECU_Rivian_A1.5CTarget.5Crepo_projects.5CpRealEcu.5CcL_LATEST.5Cmake.5Coutput.5Cobjects.5CSwcApplTpms_DevCanMessages.92::
                        1389 .LDWlin92:
000005c0 3c870100       1390 	ld.w	0[r28],r16
000005c4 3c7f0500       1391 	ld.w	4[r28],r15
000005c8 1bf0           1392 	mov	r27,ep
000005ca c3f2           1393 	shl	3,ep
000005cc ddf1           1394 	add	r29,ep
000005ce 0185           1395 	sst.w	r16,0[ep]
000005d0 037d           1396 	sst.w	r15,4[ep]
                        1397 --	    .ef
                        1398 .LDW74:
000005d2 4006ff10       1399 	dispose	0,{r27,r28,r29,r31},[lp]
                        1400 ___ghs_eofn_DCM_MessageUpdateMultiplex_40:
                        1401 	.type	_DCM_MessageUpdateMultiplex_40,@function
                        1402 	.size	_DCM_MessageUpdateMultiplex_40,.-_DCM_MessageUpdateMultiplex_40
                        1403 	.type	_DCM_MessageUpdateMultiplex_40..C.3A.5C_ECU2.5CECU_Rivian_A1.5CTarget.5Crepo_projects.5CpRealEcu.5CcL_LATEST.5Cmake.5Coutput.5Cobjects.5CSwcApplTpms_DevCanMessages.,@function
                        1404 	.size	_DCM_MessageUpdateMultiplex_40..C.3A.5C_ECU2.5CECU_Rivian_A1.5CTarget.5Crepo_projects.5CpRealEcu.5CcL_LATEST.5Cmake.5Coutput.5Cobjects.5CSwcApplTpms_DevCanMessages.,.-_DCM_MessageUpdateMultiplex_40..C.3A.5C_ECU2.5CECU_Rivian_A1.5CTarget.5Crepo_projects.5CpRealEcu.5CcL_LATEST.5Cmake.5Coutput.5Cobjects.5CSwcApplTpms_DevCanMessages.
                        1405 	.align	2
                        1406 

                                                                      Page 30
                                                              C:\Users\nhuliyap\AppData\Local\Temp\gh_00006601.s
                        1407 --_U8_CfgArrPosition	r27	param
                        1408 
                        1409 	.data
                        1410 	.text
                        1411 	.align	2
                        1412 	.align	2
                        1413 ..gh.f.f.1.e.19:
                        1414 	.type	..gh.f.f.1.e.19,@object
                        1415 	.size	..gh.f.f.1.e.19,0
                        1416 	.global	_DCM_MessageUpdateMultiplex_41..C.3A.5C_ECU2.5CECU_Rivian_A1.5CTarget.5Crepo_projects.5CpRealEcu.5CcL_LATEST.5Cmake.5Coutput.5Cobjects.5CSwcApplTpms_DevCanMessages.
                        1417 _DCM_MessageUpdateMultiplex_41..C.3A.5C_ECU2.5CECU_Rivian_A1.5CTarget.5Crepo_projects.5CpRealEcu.5CcL_LATEST.5Cmake.5Coutput.5Cobjects.5CSwcApplTpms_DevCanMessages.:
                        1418 _DCM_MessageUpdateMultiplex_41:
000005d6 8007e110       1419 	prepare	{r27,r28,r29,r31},0
000005da 06d8           1420 	mov	r6,r27
000005dc 9b00           1421 	zxb	r27
000005de 3d0600000000*  1422 	mov	_DCM_S_MultiplexMessageIDs+188,r29
                        1423 --	    .bf
                        1424 .LDW84:
                        1425 --line604
                        1426 ..lin.C.3A.5C_ECU2.5CECU_Rivian_A1.5CTarget.5Crepo_projects.5CpRealEcu.5CcL_LATEST.5Cmake.5Coutput.5Cobjects.5CSwcApplTpms_DevCanMessages.93::
                        1427 .LDWlin93:
000005e4 20962900       1428 	movea	41,zero,r18
000005e8 1de6c4ff       1429 	addi	-60,r29,r28
000005ec 5d97c4ff       1430 	st.b	r18,-60[r29]
000005f0 1d3ec5ff       1431 	addi	-59,r29,r7
000005f4 0132           1432 	mov	1,r6
                        1433 	jarl	_DCM_InvIf_ZomWuIDGetFromMemory,lp
                        1433 <EXPANSION BEGIN>
                        1433 jarl22 _DCM_InvIf_ZomWuIDGetFromMemory , lp 
000005f6 80ff0000*      1433 <EXPANSION END>
                        1434 --line606
                        1435 ..lin.C.3A.5C_ECU2.5CECU_Rivian_A1.5CTarget.5Crepo_projects.5CpRealEcu.5CcL_LATEST.5Cmake.5Coutput.5Cobjects.5CSwcApplTpms_DevCanMessages.94::
                        1436 .LDWlin94:
000005fa 0132           1437 	mov	1,r6
                        1438 	jarl	_DCM_InvIf_ZomStatusGetFromMemory,lp
                        1438 <EXPANSION BEGIN>
                        1438 jarl22 _DCM_InvIf_ZomStatusGetFromMemory , lp 
000005fc 80ff0000*      1438 <EXPANSION END>
00000600 5d57c9ff       1439 	st.b	r10,-55[r29]
                        1440 --line607
                        1441 ..lin.C.3A.5C_ECU2.5CECU_Rivian_A1.5CTarget.5Crepo_projects.5CpRealEcu.5CcL_LATEST.5Cmake.5Coutput.5Cobjects.5CSwcApplTpms_DevCanMessages.95::
                        1442 .LDWlin95:
00000604 0132           1443 	mov	1,r6
                        1444 	jarl	_DCM_InvIf_ZomTelCntGetFromMemory,lp
                        1444 <EXPANSION BEGIN>
                        1444 jarl22 _DCM_InvIf_ZomTelCntGetFromMemory , lp 
00000606 80ff0000*      1444 <EXPANSION END>
0000060a 5d57caff       1445 	st.b	r10,-54[r29]
                        1446 --line609
                        1447 ..lin.C.3A.5C_ECU2.5CECU_Rivian_A1.5CTarget.5Crepo_projects.5CpRealEcu.5CcL_LATEST.5Cmake.5Coutput.5Cobjects.5CSwcApplTpms_DevCanMessages.96::
                        1448 .LDWlin96:
0000060e 3c870100       1449 	ld.w	0[r28],r16
00000612 3c7f0500       1450 	ld.w	4[r28],r15
00000616 1bf0           1451 	mov	r27,ep
00000618 c3f2           1452 	shl	3,ep
0000061a ddf1           1453 	add	r29,ep
0000061c 0185           1454 	sst.w	r16,0[ep]
0000061e 037d           1455 	sst.w	r15,4[ep]
                        1456 --	    .ef
                        1457 .LDW94:
00000620 4006ff10       1458 	dispose	0,{r27,r28,r29,r31},[lp]

                                                                      Page 31
                                                              C:\Users\nhuliyap\AppData\Local\Temp\gh_00006601.s
                        1459 ___ghs_eofn_DCM_MessageUpdateMultiplex_41:
                        1460 	.type	_DCM_MessageUpdateMultiplex_41,@function
                        1461 	.size	_DCM_MessageUpdateMultiplex_41,.-_DCM_MessageUpdateMultiplex_41
                        1462 	.type	_DCM_MessageUpdateMultiplex_41..C.3A.5C_ECU2.5CECU_Rivian_A1.5CTarget.5Crepo_projects.5CpRealEcu.5CcL_LATEST.5Cmake.5Coutput.5Cobjects.5CSwcApplTpms_DevCanMessages.,@function
                        1463 	.size	_DCM_MessageUpdateMultiplex_41..C.3A.5C_ECU2.5CECU_Rivian_A1.5CTarget.5Crepo_projects.5CpRealEcu.5CcL_LATEST.5Cmake.5Coutput.5Cobjects.5CSwcApplTpms_DevCanMessages.,.-_DCM_MessageUpdateMultiplex_41..C.3A.5C_ECU2.5CECU_Rivian_A1.5CTarget.5Crepo_projects.5CpRealEcu.5CcL_LATEST.5Cmake.5Coutput.5Cobjects.5CSwcApplTpms_DevCanMessages.
                        1464 	.align	2
                        1465 
                        1466 --_U8_CfgArrPosition	r27	param
                        1467 
                        1468 	.data
                        1469 	.text
                        1470 	.align	2
                        1471 	.align	2
                        1472 ..gh.f.f.1.e.20:
                        1473 	.type	..gh.f.f.1.e.20,@object
                        1474 	.size	..gh.f.f.1.e.20,0
                        1475 	.global	_DCM_MessageUpdateMultiplex_42..C.3A.5C_ECU2.5CECU_Rivian_A1.5CTarget.5Crepo_projects.5CpRealEcu.5CcL_LATEST.5Cmake.5Coutput.5Cobjects.5CSwcApplTpms_DevCanMessages.
                        1476 _DCM_MessageUpdateMultiplex_42..C.3A.5C_ECU2.5CECU_Rivian_A1.5CTarget.5Crepo_projects.5CpRealEcu.5CcL_LATEST.5Cmake.5Coutput.5Cobjects.5CSwcApplTpms_DevCanMessages.:
                        1477 _DCM_MessageUpdateMultiplex_42:
00000624 8007e110       1478 	prepare	{r27,r28,r29,r31},0
00000628 06d8           1479 	mov	r6,r27
0000062a 9b00           1480 	zxb	r27
0000062c 3d0600000000*  1481 	mov	_DCM_S_MultiplexMessageIDs+188,r29
                        1482 --	    .bf
                        1483 .LDW05:
                        1484 --line614
                        1485 ..lin.C.3A.5C_ECU2.5CECU_Rivian_A1.5CTarget.5Crepo_projects.5CpRealEcu.5CcL_LATEST.5Cmake.5Coutput.5Cobjects.5CSwcApplTpms_DevCanMessages.97::
                        1486 .LDWlin97:
00000632 20962a00       1487 	movea	42,zero,r18
00000636 1de6ccff       1488 	addi	-52,r29,r28
0000063a 5d97ccff       1489 	st.b	r18,-52[r29]
0000063e 1d3ecdff       1490 	addi	-51,r29,r7
00000642 0232           1491 	mov	2,r6
                        1492 	jarl	_DCM_InvIf_ZomWuIDGetFromMemory,lp
                        1492 <EXPANSION BEGIN>
                        1492 jarl22 _DCM_InvIf_ZomWuIDGetFromMemory , lp 
00000644 80ff0000*      1492 <EXPANSION END>
                        1493 --line616
                        1494 ..lin.C.3A.5C_ECU2.5CECU_Rivian_A1.5CTarget.5Crepo_projects.5CpRealEcu.5CcL_LATEST.5Cmake.5Coutput.5Cobjects.5CSwcApplTpms_DevCanMessages.98::
                        1495 .LDWlin98:
00000648 0232           1496 	mov	2,r6
                        1497 	jarl	_DCM_InvIf_ZomStatusGetFromMemory,lp
                        1497 <EXPANSION BEGIN>
                        1497 jarl22 _DCM_InvIf_ZomStatusGetFromMemory , lp 
0000064a 80ff0000*      1497 <EXPANSION END>
0000064e 5d57d1ff       1498 	st.b	r10,-47[r29]
                        1499 --line617
                        1500 ..lin.C.3A.5C_ECU2.5CECU_Rivian_A1.5CTarget.5Crepo_projects.5CpRealEcu.5CcL_LATEST.5Cmake.5Coutput.5Cobjects.5CSwcApplTpms_DevCanMessages.99::
                        1501 .LDWlin99:
00000652 0232           1502 	mov	2,r6
                        1503 	jarl	_DCM_InvIf_ZomTelCntGetFromMemory,lp
                        1503 <EXPANSION BEGIN>
                        1503 jarl22 _DCM_InvIf_ZomTelCntGetFromMemory , lp 
00000654 80ff0000*      1503 <EXPANSION END>
00000658 5d57d2ff       1504 	st.b	r10,-46[r29]
                        1505 --line619
                        1506 ..lin.C.3A.5C_ECU2.5CECU_Rivian_A1.5CTarget.5Crepo_projects.5CpRealEcu.5CcL_LATEST.5Cmake.5Coutput.5Cobjects.5CSwcApplTpms_DevCanMessages.100::
                        1507 .LDWlin100:
0000065c 3c870100       1508 	ld.w	0[r28],r16
00000660 3c7f0500       1509 	ld.w	4[r28],r15
00000664 1bf0           1510 	mov	r27,ep

                                                                      Page 32
                                                              C:\Users\nhuliyap\AppData\Local\Temp\gh_00006601.s
00000666 c3f2           1511 	shl	3,ep
00000668 ddf1           1512 	add	r29,ep
0000066a 0185           1513 	sst.w	r16,0[ep]
0000066c 037d           1514 	sst.w	r15,4[ep]
                        1515 --	    .ef
                        1516 .LDW15:
0000066e 4006ff10       1517 	dispose	0,{r27,r28,r29,r31},[lp]
                        1518 ___ghs_eofn_DCM_MessageUpdateMultiplex_42:
                        1519 	.type	_DCM_MessageUpdateMultiplex_42,@function
                        1520 	.size	_DCM_MessageUpdateMultiplex_42,.-_DCM_MessageUpdateMultiplex_42
                        1521 	.type	_DCM_MessageUpdateMultiplex_42..C.3A.5C_ECU2.5CECU_Rivian_A1.5CTarget.5Crepo_projects.5CpRealEcu.5CcL_LATEST.5Cmake.5Coutput.5Cobjects.5CSwcApplTpms_DevCanMessages.,@function
                        1522 	.size	_DCM_MessageUpdateMultiplex_42..C.3A.5C_ECU2.5CECU_Rivian_A1.5CTarget.5Crepo_projects.5CpRealEcu.5CcL_LATEST.5Cmake.5Coutput.5Cobjects.5CSwcApplTpms_DevCanMessages.,.-_DCM_MessageUpdateMultiplex_42..C.3A.5C_ECU2.5CECU_Rivian_A1.5CTarget.5Crepo_projects.5CpRealEcu.5CcL_LATEST.5Cmake.5Coutput.5Cobjects.5CSwcApplTpms_DevCanMessages.
                        1523 	.align	2
                        1524 
                        1525 --_U8_CfgArrPosition	r27	param
                        1526 
                        1527 	.data
                        1528 	.text
                        1529 	.align	2
                        1530 	.align	2
                        1531 ..gh.f.f.1.e.21:
                        1532 	.type	..gh.f.f.1.e.21,@object
                        1533 	.size	..gh.f.f.1.e.21,0
                        1534 	.global	_DCM_MessageUpdateMultiplex_43..C.3A.5C_ECU2.5CECU_Rivian_A1.5CTarget.5Crepo_projects.5CpRealEcu.5CcL_LATEST.5Cmake.5Coutput.5Cobjects.5CSwcApplTpms_DevCanMessages.
                        1535 _DCM_MessageUpdateMultiplex_43..C.3A.5C_ECU2.5CECU_Rivian_A1.5CTarget.5Crepo_projects.5CpRealEcu.5CcL_LATEST.5Cmake.5Coutput.5Cobjects.5CSwcApplTpms_DevCanMessages.:
                        1536 _DCM_MessageUpdateMultiplex_43:
00000672 8007e110       1537 	prepare	{r27,r28,r29,r31},0
00000676 06d8           1538 	mov	r6,r27
00000678 9b00           1539 	zxb	r27
0000067a 3d0600000000*  1540 	mov	_DCM_S_MultiplexMessageIDs+188,r29
                        1541 --	    .bf
                        1542 .LDW25:
                        1543 --line624
                        1544 ..lin.C.3A.5C_ECU2.5CECU_Rivian_A1.5CTarget.5Crepo_projects.5CpRealEcu.5CcL_LATEST.5Cmake.5Coutput.5Cobjects.5CSwcApplTpms_DevCanMessages.101::
                        1545 .LDWlin101:
00000680 20962b00       1546 	movea	43,zero,r18
00000684 1de6d4ff       1547 	addi	-44,r29,r28
00000688 5d97d4ff       1548 	st.b	r18,-44[r29]
0000068c 1d3ed5ff       1549 	addi	-43,r29,r7
00000690 0332           1550 	mov	3,r6
                        1551 	jarl	_DCM_InvIf_ZomWuIDGetFromMemory,lp
                        1551 <EXPANSION BEGIN>
                        1551 jarl22 _DCM_InvIf_ZomWuIDGetFromMemory , lp 
00000692 80ff0000*      1551 <EXPANSION END>
                        1552 --line626
                        1553 ..lin.C.3A.5C_ECU2.5CECU_Rivian_A1.5CTarget.5Crepo_projects.5CpRealEcu.5CcL_LATEST.5Cmake.5Coutput.5Cobjects.5CSwcApplTpms_DevCanMessages.102::
                        1554 .LDWlin102:
00000696 0332           1555 	mov	3,r6
                        1556 	jarl	_DCM_InvIf_ZomStatusGetFromMemory,lp
                        1556 <EXPANSION BEGIN>
                        1556 jarl22 _DCM_InvIf_ZomStatusGetFromMemory , lp 
00000698 80ff0000*      1556 <EXPANSION END>
0000069c 5d57d9ff       1557 	st.b	r10,-39[r29]
                        1558 --line627
                        1559 ..lin.C.3A.5C_ECU2.5CECU_Rivian_A1.5CTarget.5Crepo_projects.5CpRealEcu.5CcL_LATEST.5Cmake.5Coutput.5Cobjects.5CSwcApplTpms_DevCanMessages.103::
                        1560 .LDWlin103:
000006a0 0332           1561 	mov	3,r6
                        1562 	jarl	_DCM_InvIf_ZomTelCntGetFromMemory,lp
                        1562 <EXPANSION BEGIN>
                        1562 jarl22 _DCM_InvIf_ZomTelCntGetFromMemory , lp 
000006a2 80ff0000*      1562 <EXPANSION END>

                                                                      Page 33
                                                              C:\Users\nhuliyap\AppData\Local\Temp\gh_00006601.s
000006a6 5d57daff       1563 	st.b	r10,-38[r29]
                        1564 --line629
                        1565 ..lin.C.3A.5C_ECU2.5CECU_Rivian_A1.5CTarget.5Crepo_projects.5CpRealEcu.5CcL_LATEST.5Cmake.5Coutput.5Cobjects.5CSwcApplTpms_DevCanMessages.104::
                        1566 .LDWlin104:
000006aa 3c870100       1567 	ld.w	0[r28],r16
000006ae 3c7f0500       1568 	ld.w	4[r28],r15
000006b2 1bf0           1569 	mov	r27,ep
000006b4 c3f2           1570 	shl	3,ep
000006b6 ddf1           1571 	add	r29,ep
000006b8 0185           1572 	sst.w	r16,0[ep]
000006ba 037d           1573 	sst.w	r15,4[ep]
                        1574 --	    .ef
                        1575 .LDW35:
000006bc 4006ff10       1576 	dispose	0,{r27,r28,r29,r31},[lp]
                        1577 ___ghs_eofn_DCM_MessageUpdateMultiplex_43:
                        1578 	.type	_DCM_MessageUpdateMultiplex_43,@function
                        1579 	.size	_DCM_MessageUpdateMultiplex_43,.-_DCM_MessageUpdateMultiplex_43
                        1580 	.type	_DCM_MessageUpdateMultiplex_43..C.3A.5C_ECU2.5CECU_Rivian_A1.5CTarget.5Crepo_projects.5CpRealEcu.5CcL_LATEST.5Cmake.5Coutput.5Cobjects.5CSwcApplTpms_DevCanMessages.,@function
                        1581 	.size	_DCM_MessageUpdateMultiplex_43..C.3A.5C_ECU2.5CECU_Rivian_A1.5CTarget.5Crepo_projects.5CpRealEcu.5CcL_LATEST.5Cmake.5Coutput.5Cobjects.5CSwcApplTpms_DevCanMessages.,.-_DCM_MessageUpdateMultiplex_43..C.3A.5C_ECU2.5CECU_Rivian_A1.5CTarget.5Crepo_projects.5CpRealEcu.5CcL_LATEST.5Cmake.5Coutput.5Cobjects.5CSwcApplTpms_DevCanMessages.
                        1582 	.align	2
                        1583 
                        1584 --_U8_CfgArrPosition	r27	param
                        1585 
                        1586 	.data
                        1587 	.text
                        1588 	.align	2
                        1589 	.align	2
                        1590 ..gh.f.f.1.e.22:
                        1591 	.type	..gh.f.f.1.e.22,@object
                        1592 	.size	..gh.f.f.1.e.22,0
                        1593 	.global	_DCM_MessageUpdateMultiplex_44..C.3A.5C_ECU2.5CECU_Rivian_A1.5CTarget.5Crepo_projects.5CpRealEcu.5CcL_LATEST.5Cmake.5Coutput.5Cobjects.5CSwcApplTpms_DevCanMessages.
                        1594 _DCM_MessageUpdateMultiplex_44..C.3A.5C_ECU2.5CECU_Rivian_A1.5CTarget.5Crepo_projects.5CpRealEcu.5CcL_LATEST.5Cmake.5Coutput.5Cobjects.5CSwcApplTpms_DevCanMessages.:
                        1595 _DCM_MessageUpdateMultiplex_44:
000006c0 8007e110       1596 	prepare	{r27,r28,r29,r31},0
000006c4 06d8           1597 	mov	r6,r27
000006c6 9b00           1598 	zxb	r27
000006c8 3d0600000000*  1599 	mov	_DCM_S_MultiplexMessageIDs+188,r29
                        1600 --	    .bf
                        1601 .LDW45:
                        1602 --line634
                        1603 ..lin.C.3A.5C_ECU2.5CECU_Rivian_A1.5CTarget.5Crepo_projects.5CpRealEcu.5CcL_LATEST.5Cmake.5Coutput.5Cobjects.5CSwcApplTpms_DevCanMessages.105::
                        1604 .LDWlin105:
000006ce 20962c00       1605 	movea	44,zero,r18
000006d2 1de6dcff       1606 	addi	-36,r29,r28
000006d6 5d97dcff       1607 	st.b	r18,-36[r29]
000006da 1d3eddff       1608 	addi	-35,r29,r7
000006de 0432           1609 	mov	4,r6
                        1610 	jarl	_DCM_InvIf_ZomWuIDGetFromMemory,lp
                        1610 <EXPANSION BEGIN>
                        1610 jarl22 _DCM_InvIf_ZomWuIDGetFromMemory , lp 
000006e0 80ff0000*      1610 <EXPANSION END>
                        1611 --line636
                        1612 ..lin.C.3A.5C_ECU2.5CECU_Rivian_A1.5CTarget.5Crepo_projects.5CpRealEcu.5CcL_LATEST.5Cmake.5Coutput.5Cobjects.5CSwcApplTpms_DevCanMessages.106::
                        1613 .LDWlin106:
000006e4 0432           1614 	mov	4,r6
                        1615 	jarl	_DCM_InvIf_ZomStatusGetFromMemory,lp
                        1615 <EXPANSION BEGIN>
                        1615 jarl22 _DCM_InvIf_ZomStatusGetFromMemory , lp 
000006e6 80ff0000*      1615 <EXPANSION END>
000006ea 5d57e1ff       1616 	st.b	r10,-31[r29]
                        1617 --line637

                                                                      Page 34
                                                              C:\Users\nhuliyap\AppData\Local\Temp\gh_00006601.s
                        1618 ..lin.C.3A.5C_ECU2.5CECU_Rivian_A1.5CTarget.5Crepo_projects.5CpRealEcu.5CcL_LATEST.5Cmake.5Coutput.5Cobjects.5CSwcApplTpms_DevCanMessages.107::
                        1619 .LDWlin107:
000006ee 0432           1620 	mov	4,r6
                        1621 	jarl	_DCM_InvIf_ZomTelCntGetFromMemory,lp
                        1621 <EXPANSION BEGIN>
                        1621 jarl22 _DCM_InvIf_ZomTelCntGetFromMemory , lp 
000006f0 80ff0000*      1621 <EXPANSION END>
000006f4 5d57e2ff       1622 	st.b	r10,-30[r29]
                        1623 --line639
                        1624 ..lin.C.3A.5C_ECU2.5CECU_Rivian_A1.5CTarget.5Crepo_projects.5CpRealEcu.5CcL_LATEST.5Cmake.5Coutput.5Cobjects.5CSwcApplTpms_DevCanMessages.108::
                        1625 .LDWlin108:
000006f8 3c870100       1626 	ld.w	0[r28],r16
000006fc 3c7f0500       1627 	ld.w	4[r28],r15
00000700 1bf0           1628 	mov	r27,ep
00000702 c3f2           1629 	shl	3,ep
00000704 ddf1           1630 	add	r29,ep
00000706 0185           1631 	sst.w	r16,0[ep]
00000708 037d           1632 	sst.w	r15,4[ep]
                        1633 --	    .ef
                        1634 .LDW55:
0000070a 4006ff10       1635 	dispose	0,{r27,r28,r29,r31},[lp]
                        1636 ___ghs_eofn_DCM_MessageUpdateMultiplex_44:
                        1637 	.type	_DCM_MessageUpdateMultiplex_44,@function
                        1638 	.size	_DCM_MessageUpdateMultiplex_44,.-_DCM_MessageUpdateMultiplex_44
                        1639 	.type	_DCM_MessageUpdateMultiplex_44..C.3A.5C_ECU2.5CECU_Rivian_A1.5CTarget.5Crepo_projects.5CpRealEcu.5CcL_LATEST.5Cmake.5Coutput.5Cobjects.5CSwcApplTpms_DevCanMessages.,@function
                        1640 	.size	_DCM_MessageUpdateMultiplex_44..C.3A.5C_ECU2.5CECU_Rivian_A1.5CTarget.5Crepo_projects.5CpRealEcu.5CcL_LATEST.5Cmake.5Coutput.5Cobjects.5CSwcApplTpms_DevCanMessages.,.-_DCM_MessageUpdateMultiplex_44..C.3A.5C_ECU2.5CECU_Rivian_A1.5CTarget.5Crepo_projects.5CpRealEcu.5CcL_LATEST.5Cmake.5Coutput.5Cobjects.5CSwcApplTpms_DevCanMessages.
                        1641 	.align	2
                        1642 
                        1643 --_U8_CfgArrPosition	r27	param
                        1644 
                        1645 	.data
                        1646 	.text
                        1647 	.align	2
                        1648 	.align	2
                        1649 ..gh.f.f.1.e.23:
                        1650 	.type	..gh.f.f.1.e.23,@object
                        1651 	.size	..gh.f.f.1.e.23,0
                        1652 	.global	_DCM_MessageUpdateMultiplex_45..C.3A.5C_ECU2.5CECU_Rivian_A1.5CTarget.5Crepo_projects.5CpRealEcu.5CcL_LATEST.5Cmake.5Coutput.5Cobjects.5CSwcApplTpms_DevCanMessages.
                        1653 _DCM_MessageUpdateMultiplex_45..C.3A.5C_ECU2.5CECU_Rivian_A1.5CTarget.5Crepo_projects.5CpRealEcu.5CcL_LATEST.5Cmake.5Coutput.5Cobjects.5CSwcApplTpms_DevCanMessages.:
                        1654 _DCM_MessageUpdateMultiplex_45:
0000070e 8007e110       1655 	prepare	{r27,r28,r29,r31},0
00000712 06d8           1656 	mov	r6,r27
00000714 9b00           1657 	zxb	r27
00000716 3d0600000000*  1658 	mov	_DCM_S_MultiplexMessageIDs+188,r29
                        1659 --	    .bf
                        1660 .LDW65:
                        1661 --line644
                        1662 ..lin.C.3A.5C_ECU2.5CECU_Rivian_A1.5CTarget.5Crepo_projects.5CpRealEcu.5CcL_LATEST.5Cmake.5Coutput.5Cobjects.5CSwcApplTpms_DevCanMessages.109::
                        1663 .LDWlin109:
0000071c 20962d00       1664 	movea	45,zero,r18
00000720 1de6e4ff       1665 	addi	-28,r29,r28
00000724 5d97e4ff       1666 	st.b	r18,-28[r29]
00000728 1d3ee5ff       1667 	addi	-27,r29,r7
0000072c 0532           1668 	mov	5,r6
                        1669 	jarl	_DCM_InvIf_ZomWuIDGetFromMemory,lp
                        1669 <EXPANSION BEGIN>
                        1669 jarl22 _DCM_InvIf_ZomWuIDGetFromMemory , lp 
0000072e 80ff0000*      1669 <EXPANSION END>
                        1670 --line646
                        1671 ..lin.C.3A.5C_ECU2.5CECU_Rivian_A1.5CTarget.5Crepo_projects.5CpRealEcu.5CcL_LATEST.5Cmake.5Coutput.5Cobjects.5CSwcApplTpms_DevCanMessages.110::
                        1672 .LDWlin110:

                                                                      Page 35
                                                              C:\Users\nhuliyap\AppData\Local\Temp\gh_00006601.s
00000732 0532           1673 	mov	5,r6
                        1674 	jarl	_DCM_InvIf_ZomStatusGetFromMemory,lp
                        1674 <EXPANSION BEGIN>
                        1674 jarl22 _DCM_InvIf_ZomStatusGetFromMemory , lp 
00000734 80ff0000*      1674 <EXPANSION END>
00000738 5d57edff       1675 	st.b	r10,-19[r29]
                        1676 --line647
                        1677 ..lin.C.3A.5C_ECU2.5CECU_Rivian_A1.5CTarget.5Crepo_projects.5CpRealEcu.5CcL_LATEST.5Cmake.5Coutput.5Cobjects.5CSwcApplTpms_DevCanMessages.111::
                        1678 .LDWlin111:
0000073c 0532           1679 	mov	5,r6
                        1680 	jarl	_DCM_InvIf_ZomTelCntGetFromMemory,lp
                        1680 <EXPANSION BEGIN>
                        1680 jarl22 _DCM_InvIf_ZomTelCntGetFromMemory , lp 
0000073e 80ff0000*      1680 <EXPANSION END>
00000742 5d57eeff       1681 	st.b	r10,-18[r29]
                        1682 --line649
                        1683 ..lin.C.3A.5C_ECU2.5CECU_Rivian_A1.5CTarget.5Crepo_projects.5CpRealEcu.5CcL_LATEST.5Cmake.5Coutput.5Cobjects.5CSwcApplTpms_DevCanMessages.112::
                        1684 .LDWlin112:
00000746 3c870100       1685 	ld.w	0[r28],r16
0000074a 3c7f0500       1686 	ld.w	4[r28],r15
0000074e 1bf0           1687 	mov	r27,ep
00000750 c3f2           1688 	shl	3,ep
00000752 ddf1           1689 	add	r29,ep
00000754 0185           1690 	sst.w	r16,0[ep]
00000756 037d           1691 	sst.w	r15,4[ep]
                        1692 --	    .ef
                        1693 .LDW75:
00000758 4006ff10       1694 	dispose	0,{r27,r28,r29,r31},[lp]
                        1695 ___ghs_eofn_DCM_MessageUpdateMultiplex_45:
                        1696 	.type	_DCM_MessageUpdateMultiplex_45,@function
                        1697 	.size	_DCM_MessageUpdateMultiplex_45,.-_DCM_MessageUpdateMultiplex_45
                        1698 	.type	_DCM_MessageUpdateMultiplex_45..C.3A.5C_ECU2.5CECU_Rivian_A1.5CTarget.5Crepo_projects.5CpRealEcu.5CcL_LATEST.5Cmake.5Coutput.5Cobjects.5CSwcApplTpms_DevCanMessages.,@function
                        1699 	.size	_DCM_MessageUpdateMultiplex_45..C.3A.5C_ECU2.5CECU_Rivian_A1.5CTarget.5Crepo_projects.5CpRealEcu.5CcL_LATEST.5Cmake.5Coutput.5Cobjects.5CSwcApplTpms_DevCanMessages.,.-_DCM_MessageUpdateMultiplex_45..C.3A.5C_ECU2.5CECU_Rivian_A1.5CTarget.5Crepo_projects.5CpRealEcu.5CcL_LATEST.5Cmake.5Coutput.5Cobjects.5CSwcApplTpms_DevCanMessages.
                        1700 	.align	2
                        1701 
                        1702 --_U8_CfgArrPosition	r27	param
                        1703 
                        1704 	.data
                        1705 	.text
                        1706 	.align	2
                        1707 	.align	2
                        1708 ..gh.f.f.1.e.24:
                        1709 	.type	..gh.f.f.1.e.24,@object
                        1710 	.size	..gh.f.f.1.e.24,0
                        1711 	.global	_DCM_MessageUpdateMultiplex_46..C.3A.5C_ECU2.5CECU_Rivian_A1.5CTarget.5Crepo_projects.5CpRealEcu.5CcL_LATEST.5Cmake.5Coutput.5Cobjects.5CSwcApplTpms_DevCanMessages.
                        1712 _DCM_MessageUpdateMultiplex_46..C.3A.5C_ECU2.5CECU_Rivian_A1.5CTarget.5Crepo_projects.5CpRealEcu.5CcL_LATEST.5Cmake.5Coutput.5Cobjects.5CSwcApplTpms_DevCanMessages.:
                        1713 _DCM_MessageUpdateMultiplex_46:
0000075c 8007e110       1714 	prepare	{r27,r28,r29,r31},0
00000760 06d8           1715 	mov	r6,r27
00000762 9b00           1716 	zxb	r27
00000764 3d0600000000*  1717 	mov	_DCM_S_MultiplexMessageIDs+188,r29
                        1718 --	    .bf
                        1719 .LDW85:
                        1720 --line654
                        1721 ..lin.C.3A.5C_ECU2.5CECU_Rivian_A1.5CTarget.5Crepo_projects.5CpRealEcu.5CcL_LATEST.5Cmake.5Coutput.5Cobjects.5CSwcApplTpms_DevCanMessages.113::
                        1722 .LDWlin113:
0000076a 20962e00       1723 	movea	46,zero,r18
0000076e 1de6f0ff       1724 	addi	-16,r29,r28
00000772 5d97f0ff       1725 	st.b	r18,-16[r29]
00000776 1d3ef1ff       1726 	addi	-15,r29,r7
0000077a 0632           1727 	mov	6,r6

                                                                      Page 36
                                                              C:\Users\nhuliyap\AppData\Local\Temp\gh_00006601.s
                        1728 	jarl	_DCM_InvIf_ZomWuIDGetFromMemory,lp
                        1728 <EXPANSION BEGIN>
                        1728 jarl22 _DCM_InvIf_ZomWuIDGetFromMemory , lp 
0000077c 80ff0000*      1728 <EXPANSION END>
                        1729 --line656
                        1730 ..lin.C.3A.5C_ECU2.5CECU_Rivian_A1.5CTarget.5Crepo_projects.5CpRealEcu.5CcL_LATEST.5Cmake.5Coutput.5Cobjects.5CSwcApplTpms_DevCanMessages.114::
                        1731 .LDWlin114:
00000780 0632           1732 	mov	6,r6
                        1733 	jarl	_DCM_InvIf_ZomStatusGetFromMemory,lp
                        1733 <EXPANSION BEGIN>
                        1733 jarl22 _DCM_InvIf_ZomStatusGetFromMemory , lp 
00000782 80ff0000*      1733 <EXPANSION END>
00000786 5d57f5ff       1734 	st.b	r10,-11[r29]
                        1735 --line657
                        1736 ..lin.C.3A.5C_ECU2.5CECU_Rivian_A1.5CTarget.5Crepo_projects.5CpRealEcu.5CcL_LATEST.5Cmake.5Coutput.5Cobjects.5CSwcApplTpms_DevCanMessages.115::
                        1737 .LDWlin115:
0000078a 0632           1738 	mov	6,r6
                        1739 	jarl	_DCM_InvIf_ZomTelCntGetFromMemory,lp
                        1739 <EXPANSION BEGIN>
                        1739 jarl22 _DCM_InvIf_ZomTelCntGetFromMemory , lp 
0000078c 80ff0000*      1739 <EXPANSION END>
00000790 5d57f6ff       1740 	st.b	r10,-10[r29]
                        1741 --line659
                        1742 ..lin.C.3A.5C_ECU2.5CECU_Rivian_A1.5CTarget.5Crepo_projects.5CpRealEcu.5CcL_LATEST.5Cmake.5Coutput.5Cobjects.5CSwcApplTpms_DevCanMessages.116::
                        1743 .LDWlin116:
00000794 3c870100       1744 	ld.w	0[r28],r16
00000798 3c7f0500       1745 	ld.w	4[r28],r15
0000079c 1bf0           1746 	mov	r27,ep
0000079e c3f2           1747 	shl	3,ep
000007a0 ddf1           1748 	add	r29,ep
000007a2 0185           1749 	sst.w	r16,0[ep]
000007a4 037d           1750 	sst.w	r15,4[ep]
                        1751 --	    .ef
                        1752 .LDW95:
000007a6 4006ff10       1753 	dispose	0,{r27,r28,r29,r31},[lp]
                        1754 ___ghs_eofn_DCM_MessageUpdateMultiplex_46:
                        1755 	.type	_DCM_MessageUpdateMultiplex_46,@function
                        1756 	.size	_DCM_MessageUpdateMultiplex_46,.-_DCM_MessageUpdateMultiplex_46
                        1757 	.type	_DCM_MessageUpdateMultiplex_46..C.3A.5C_ECU2.5CECU_Rivian_A1.5CTarget.5Crepo_projects.5CpRealEcu.5CcL_LATEST.5Cmake.5Coutput.5Cobjects.5CSwcApplTpms_DevCanMessages.,@function
                        1758 	.size	_DCM_MessageUpdateMultiplex_46..C.3A.5C_ECU2.5CECU_Rivian_A1.5CTarget.5Crepo_projects.5CpRealEcu.5CcL_LATEST.5Cmake.5Coutput.5Cobjects.5CSwcApplTpms_DevCanMessages.,.-_DCM_MessageUpdateMultiplex_46..C.3A.5C_ECU2.5CECU_Rivian_A1.5CTarget.5Crepo_projects.5CpRealEcu.5CcL_LATEST.5Cmake.5Coutput.5Cobjects.5CSwcApplTpms_DevCanMessages.
                        1759 	.align	2
                        1760 
                        1761 --_U8_CfgArrPosition	r27	param
                        1762 
                        1763 	.data
                        1764 	.text
                        1765 	.align	2
                        1766 	.align	2
                        1767 ..gh.f.f.1.e.25:
                        1768 	.type	..gh.f.f.1.e.25,@object
                        1769 	.size	..gh.f.f.1.e.25,0
                        1770 	.global	_DCM_MessageUpdateMultiplex_47..C.3A.5C_ECU2.5CECU_Rivian_A1.5CTarget.5Crepo_projects.5CpRealEcu.5CcL_LATEST.5Cmake.5Coutput.5Cobjects.5CSwcApplTpms_DevCanMessages.
                        1771 _DCM_MessageUpdateMultiplex_47..C.3A.5C_ECU2.5CECU_Rivian_A1.5CTarget.5Crepo_projects.5CpRealEcu.5CcL_LATEST.5Cmake.5Coutput.5Cobjects.5CSwcApplTpms_DevCanMessages.:
                        1772 _DCM_MessageUpdateMultiplex_47:
000007aa 8007e110       1773 	prepare	{r27,r28,r29,r31},0
000007ae 06d8           1774 	mov	r6,r27
000007b0 9b00           1775 	zxb	r27
000007b2 3d0600000000*  1776 	mov	_DCM_S_MultiplexMessageIDs+188,r29
                        1777 --	    .bf
                        1778 .LDW06:
                        1779 --line664

                                                                      Page 37
                                                              C:\Users\nhuliyap\AppData\Local\Temp\gh_00006601.s
                        1780 ..lin.C.3A.5C_ECU2.5CECU_Rivian_A1.5CTarget.5Crepo_projects.5CpRealEcu.5CcL_LATEST.5Cmake.5Coutput.5Cobjects.5CSwcApplTpms_DevCanMessages.117::
                        1781 .LDWlin117:
000007b8 20962f00       1782 	movea	47,zero,r18
000007bc 1de6f8ff       1783 	addi	-8,r29,r28
000007c0 5d97f8ff       1784 	st.b	r18,-8[r29]
000007c4 1d3ef9ff       1785 	addi	-7,r29,r7
000007c8 0732           1786 	mov	7,r6
                        1787 	jarl	_DCM_InvIf_ZomWuIDGetFromMemory,lp
                        1787 <EXPANSION BEGIN>
                        1787 jarl22 _DCM_InvIf_ZomWuIDGetFromMemory , lp 
000007ca 80ff0000*      1787 <EXPANSION END>
                        1788 --line666
                        1789 ..lin.C.3A.5C_ECU2.5CECU_Rivian_A1.5CTarget.5Crepo_projects.5CpRealEcu.5CcL_LATEST.5Cmake.5Coutput.5Cobjects.5CSwcApplTpms_DevCanMessages.118::
                        1790 .LDWlin118:
000007ce 0732           1791 	mov	7,r6
                        1792 	jarl	_DCM_InvIf_ZomStatusGetFromMemory,lp
                        1792 <EXPANSION BEGIN>
                        1792 jarl22 _DCM_InvIf_ZomStatusGetFromMemory , lp 
000007d0 80ff0000*      1792 <EXPANSION END>
000007d4 5d57fdff       1793 	st.b	r10,-3[r29]
                        1794 --line667
                        1795 ..lin.C.3A.5C_ECU2.5CECU_Rivian_A1.5CTarget.5Crepo_projects.5CpRealEcu.5CcL_LATEST.5Cmake.5Coutput.5Cobjects.5CSwcApplTpms_DevCanMessages.119::
                        1796 .LDWlin119:
000007d8 0732           1797 	mov	7,r6
                        1798 	jarl	_DCM_InvIf_ZomTelCntGetFromMemory,lp
                        1798 <EXPANSION BEGIN>
                        1798 jarl22 _DCM_InvIf_ZomTelCntGetFromMemory , lp 
000007da 80ff0000*      1798 <EXPANSION END>
000007de 5d57feff       1799 	st.b	r10,-2[r29]
                        1800 --line669
                        1801 ..lin.C.3A.5C_ECU2.5CECU_Rivian_A1.5CTarget.5Crepo_projects.5CpRealEcu.5CcL_LATEST.5Cmake.5Coutput.5Cobjects.5CSwcApplTpms_DevCanMessages.120::
                        1802 .LDWlin120:
000007e2 3c870100       1803 	ld.w	0[r28],r16
000007e6 3c7f0500       1804 	ld.w	4[r28],r15
000007ea 1bf0           1805 	mov	r27,ep
000007ec c3f2           1806 	shl	3,ep
000007ee ddf1           1807 	add	r29,ep
000007f0 0185           1808 	sst.w	r16,0[ep]
000007f2 037d           1809 	sst.w	r15,4[ep]
                        1810 --	    .ef
                        1811 .LDW16:
000007f4 4006ff10       1812 	dispose	0,{r27,r28,r29,r31},[lp]
                        1813 ___ghs_eofn_DCM_MessageUpdateMultiplex_47:
                        1814 	.type	_DCM_MessageUpdateMultiplex_47,@function
                        1815 	.size	_DCM_MessageUpdateMultiplex_47,.-_DCM_MessageUpdateMultiplex_47
                        1816 	.type	_DCM_MessageUpdateMultiplex_47..C.3A.5C_ECU2.5CECU_Rivian_A1.5CTarget.5Crepo_projects.5CpRealEcu.5CcL_LATEST.5Cmake.5Coutput.5Cobjects.5CSwcApplTpms_DevCanMessages.,@function
                        1817 	.size	_DCM_MessageUpdateMultiplex_47..C.3A.5C_ECU2.5CECU_Rivian_A1.5CTarget.5Crepo_projects.5CpRealEcu.5CcL_LATEST.5Cmake.5Coutput.5Cobjects.5CSwcApplTpms_DevCanMessages.,.-_DCM_MessageUpdateMultiplex_47..C.3A.5C_ECU2.5CECU_Rivian_A1.5CTarget.5Crepo_projects.5CpRealEcu.5CcL_LATEST.5Cmake.5Coutput.5Cobjects.5CSwcApplTpms_DevCanMessages.
                        1818 	.align	2
                        1819 
                        1820 --_U8_CfgArrPosition	r27	param
                        1821 
                        1822 	.data
                        1823 	.text
                        1824 	.align	2
                        1825 	.align	2
                        1826 ..gh.f.f.1.e.26:
                        1827 	.type	..gh.f.f.1.e.26,@object
                        1828 	.size	..gh.f.f.1.e.26,0
                        1829 	.global	_DCM_StoreMaxMultiplexEventNr..C.3A.5C_ECU2.5CECU_Rivian_A1.5CTarget.5Crepo_projects.5CpRealEcu.5CcL_LATEST.5Cmake.5Coutput.5Cobjects.5CSwcApplTpms_DevCanMessages.
                        1830 _DCM_StoreMaxMultiplexEventNr..C.3A.5C_ECU2.5CECU_Rivian_A1.5CTarget.5Crepo_projects.5CpRealEcu.5CcL_LATEST.5Cmake.5Coutput.5Cobjects.5CSwcApplTpms_DevCanMessages.:
                        1831 _DCM_StoreMaxMultiplexEventNr:

                                                                      Page 38
                                                              C:\Users\nhuliyap\AppData\Local\Temp\gh_00006601.s
000007f8 8600           1832 	zxb	r6
000007fa 320600000000*  1833 	mov	_DCM_U8_EventDataMaxMultiplexNr-1,r18
                        1834 --	    .bf
                        1835 .LDW26:
                        1836 --line725
                        1837 ..lin.C.3A.5C_ECU2.5CECU_Rivian_A1.5CTarget.5Crepo_projects.5CpRealEcu.5CcL_LATEST.5Cmake.5Coutput.5Cobjects.5CSwcApplTpms_DevCanMessages.121::
                        1838 .LDWlin121:
00000800 b28f0100       1839 	ld.bu	1[r18],r17
00000804 e689           1840 	cmp	r6,r17
00000806 b905*          1841 	bnl	.L1266
                        1842 --line727
                        1843 ..lin.C.3A.5C_ECU2.5CECU_Rivian_A1.5CTarget.5Crepo_projects.5CpRealEcu.5CcL_LATEST.5Cmake.5Coutput.5Cobjects.5CSwcApplTpms_DevCanMessages.122::
                        1844 .LDWlin122:
00000808 52370100       1845 	st.b	r6,1[r18]
                        1846 .L1266:
                        1847 --	    .ef
                        1848 .LDW36:
0000080c 7f00           1849 	jmp	[lp]
                        1850 ___ghs_eofn_DCM_StoreMaxMultiplexEventNr:
                        1851 	.type	_DCM_StoreMaxMultiplexEventNr,@function
                        1852 	.size	_DCM_StoreMaxMultiplexEventNr,.-_DCM_StoreMaxMultiplexEventNr
                        1853 	.type	_DCM_StoreMaxMultiplexEventNr..C.3A.5C_ECU2.5CECU_Rivian_A1.5CTarget.5Crepo_projects.5CpRealEcu.5CcL_LATEST.5Cmake.5Coutput.5Cobjects.5CSwcApplTpms_DevCanMessages.,@function
                        1854 	.size	_DCM_StoreMaxMultiplexEventNr..C.3A.5C_ECU2.5CECU_Rivian_A1.5CTarget.5Crepo_projects.5CpRealEcu.5CcL_LATEST.5Cmake.5Coutput.5Cobjects.5CSwcApplTpms_DevCanMessages.,.-_DCM_StoreMaxMultiplexEventNr..C.3A.5C_ECU2.5CECU_Rivian_A1.5CTarget.5Crepo_projects.5CpRealEcu.5CcL_LATEST.5Cmake.5Coutput.5Cobjects.5CSwcApplTpms_DevCanMessages.
                        1855 	.align	2
                        1856 
                        1857 --_U8_CurrentMultiplexNr	r6	param
                        1858 
                        1859 	.data
                        1860 	.text
                        1861 	.align	2
                        1862 	.align	2
                        1863 ..gh.f.f.1.e.27:
                        1864 	.type	..gh.f.f.1.e.27,@object
                        1865 	.size	..gh.f.f.1.e.27,0
                        1866 	.global	_DCM_PutEventData2Buffer..C.3A.5C_ECU2.5CECU_Rivian_A1.5CTarget.5Crepo_projects.5CpRealEcu.5CcL_LATEST.5Cmake.5Coutput.5Cobjects.5CSwcApplTpms_DevCanMessages.
                        1867 _DCM_PutEventData2Buffer..C.3A.5C_ECU2.5CECU_Rivian_A1.5CTarget.5Crepo_projects.5CpRealEcu.5CcL_LATEST.5Cmake.5Coutput.5Cobjects.5CSwcApplTpms_DevCanMessages.:
                        1868 _DCM_PutEventData2Buffer:
0000080e 031ee0ff       1869 	addi	-32,sp,sp
00000812 03f0           1870 	mov	sp,ep
00000814 0b3d           1871 	sst.w	r7,20[ep]
00000816 0935           1872 	sst.w	r6,16[ep]
00000818 07fd           1873 	sst.w	lp,12[ep]
0000081a 05dd           1874 	sst.w	r27,8[ep]
0000081c 03e5           1875 	sst.w	r28,4[ep]
0000081e 01ed           1876 	sst.w	r29,0[ep]
                        1877 --	    .bf
                        1878 .LDW46:
00000820 83df1100       1879 	ld.bu	16[sp],r27
00000824 1b30           1880 	mov	r27,r6
                        1881 	jarl	_DCH_MultiplexMsgGetActiveStatus,lp
                        1881 <EXPANSION BEGIN>
                        1881 jarl22 _DCH_MultiplexMsgGetActiveStatus , lp 
00000826 80ff0000*      1881 <EXPANSION END>
0000082a e051           1882 	cmp	zero,r10
0000082c 8225*          1883 	be	.L1334
0000082e 3c0600000000*  1884 	mov	_u8_EnvWriteCnt,r28
                        1885 --line778
                        1886 ..lin.C.3A.5C_ECU2.5CECU_Rivian_A1.5CTarget.5Crepo_projects.5CpRealEcu.5CcL_LATEST.5Cmake.5Coutput.5Cobjects.5CSwcApplTpms_DevCanMessages.123::
                        1887 .LDWlin123:
00000834 9c870100       1888 	ld.bu	0[r28],r16
00000838 1ceefdff       1889 	addi	-3,r28,r29

                                                                      Page 39
                                                              C:\Users\nhuliyap\AppData\Local\Temp\gh_00006601.s
0000083c 100608ff       1890 	addi	-248,r16,zero
00000840 b905*          1891 	bnl	.L1338
                        1892 --line780
                        1893 ..lin.C.3A.5C_ECU2.5CECU_Rivian_A1.5CTarget.5Crepo_projects.5CpRealEcu.5CcL_LATEST.5Cmake.5Coutput.5Cobjects.5CSwcApplTpms_DevCanMessages.124::
                        1894 .LDWlin124:
00000842 5c070000       1895 	st.b	zero,0[r28]
                        1896 .L1338:
00000846 1b30           1897 	mov	r27,r6
                        1898 	jarl	_DCM_StoreMaxMultiplexEventNr,lp
                        1898 <EXPANSION BEGIN>
                        1898 jarl22 _DCM_StoreMaxMultiplexEventNr , lp 
00000848 bfffb0ff*      1898 <EXPANSION END>
                        1899 --line785
                        1900 ..lin.C.3A.5C_ECU2.5CECU_Rivian_A1.5CTarget.5Crepo_projects.5CpRealEcu.5CcL_LATEST.5Cmake.5Coutput.5Cobjects.5CSwcApplTpms_DevCanMessages.125::
                        1901 .LDWlin125:
0000084c 9c8f0100       1902 	ld.bu	0[r28],r17
00000850 23f61000       1903 	movea	16,sp,ep
00000854 0075           1904 	sld.w	0[ep],r14
00000856 026d           1905 	sld.w	4[ep],r13
00000858 1190           1906 	mov	r17,r18
0000085a c392           1907 	shl	3,r18
0000085c dd91           1908 	add	r29,r18
0000085e 12f0           1909 	mov	r18,ep
00000860 2575           1910 	sst.w	r14,72[ep]
00000862 276d           1911 	sst.w	r13,76[ep]
00000864 11660100       1912 	addi	1,r17,r12
00000868 5c670000       1913 	st.b	r12,0[r28]
                        1914 .L1334:
                        1915 --	    .ef
                        1916 .LDW56:
0000086c 03f0           1917 	mov	sp,ep
0000086e 06fd           1918 	sld.w	12[ep],lp
00000870 00ed           1919 	sld.w	0[ep],r29
00000872 02e5           1920 	sld.w	4[ep],r28
00000874 04dd           1921 	sld.w	8[ep],r27
00000876 031e2000       1922 	addi	32,sp,sp
0000087a 7f00           1923 	jmp	[lp]
                        1924 ___ghs_eofn_DCM_PutEventData2Buffer:
                        1925 	.type	_DCM_PutEventData2Buffer,@function
                        1926 	.size	_DCM_PutEventData2Buffer,.-_DCM_PutEventData2Buffer
                        1927 	.type	_DCM_PutEventData2Buffer..C.3A.5C_ECU2.5CECU_Rivian_A1.5CTarget.5Crepo_projects.5CpRealEcu.5CcL_LATEST.5Cmake.5Coutput.5Cobjects.5CSwcApplTpms_DevCanMessages.,@function
                        1928 	.size	_DCM_PutEventData2Buffer..C.3A.5C_ECU2.5CECU_Rivian_A1.5CTarget.5Crepo_projects.5CpRealEcu.5CcL_LATEST.5Cmake.5Coutput.5Cobjects.5CSwcApplTpms_DevCanMessages.,.-_DCM_PutEventData2Buffer..C.3A.5C_ECU2.5CECU_Rivian_A1.5CTarget.5Crepo_projects.5CpRealEcu.5CcL_LATEST.5Cmake.5Coutput.5Cobjects.5CSwcApplTpms_DevCanMessages.
                        1929 	.align	2
                        1930 
                        1931 --_S_EnvDataMultiplex	16[sp]	param
                        1932 
                        1933 	.data
                        1934 	.text
                        1935 	.align	2
                        1936 	.align	2
                        1937 ..gh.f.f.1.e.28:
                        1938 	.type	..gh.f.f.1.e.28,@object
                        1939 	.size	..gh.f.f.1.e.28,0
                        1940 	.global	_DCM_EventDataPutToQueue..C.3A.5C_ECU2.5CECU_Rivian_A1.5CTarget.5Crepo_projects.5CpRealEcu.5CcL_LATEST.5Cmake.5Coutput.5Cobjects.5CSwcApplTpms_DevCanMessages.
                        1941 _DCM_EventDataPutToQueue..C.3A.5C_ECU2.5CECU_Rivian_A1.5CTarget.5Crepo_projects.5CpRealEcu.5CcL_LATEST.5Cmake.5Coutput.5Cobjects.5CSwcApplTpms_DevCanMessages.:
                        1942 _DCM_EventDataPutToQueue:
0000087c 8407e110       1943 	prepare	{r27,r28,r29,r31},2
                        1944 --	    .bf
                        1945 .LDW66:
                        1946 	jarl	_DCH_IsCanDebugEnabled,lp
                        1946 <EXPANSION BEGIN>

                                                                      Page 40
                                                              C:\Users\nhuliyap\AppData\Local\Temp\gh_00006601.s
                        1946 jarl22 _DCH_IsCanDebugEnabled , lp 
00000880 80ff0000*      1946 <EXPANSION END>
00000884 e051           1947 	cmp	zero,r10
00000886 c225*          1948 	be	.L1427
                        1949 	jarl	_DCH_SubmultiplexConfigGetStatus,lp
                        1949 <EXPANSION BEGIN>
                        1949 jarl22 _DCH_SubmultiplexConfigGetStatus , lp 
00000888 80ff0000*      1949 <EXPANSION END>
0000088c e051           1950 	cmp	zero,r10
                        1951 --line680
                        1952 ..lin.C.3A.5C_ECU2.5CECU_Rivian_A1.5CTarget.5Crepo_projects.5CpRealEcu.5CcL_LATEST.5Cmake.5Coutput.5Cobjects.5CSwcApplTpms_DevCanMessages.126::
                        1953 .LDWlin126:
0000088e 00e2           1954 	mov	0,r28
00000890 f21d*          1955 	be	.L1427
                        1956 .L1434:
                        1957 --line682
                        1958 ..lin.C.3A.5C_ECU2.5CECU_Rivian_A1.5CTarget.5Crepo_projects.5CpRealEcu.5CcL_LATEST.5Cmake.5Coutput.5Cobjects.5CSwcApplTpms_DevCanMessages.127::
                        1959 .LDWlin127:
00000892 1ce8           1960 	mov	r28,r29
00000894 c3ea           1961 	shl	3,r29
00000896 3e0600000000*  1962 	mov	_DCM_AS_ConfigureEventMultiplexMsg,ep
0000089c ddf1           1963 	add	r29,ep
0000089e 02dd           1964 	sld.w	4[ep],r27
000008a0 1c30           1965 	mov	r28,r6
000008a2 fbc760f9       1966 	jarl	[r27],lp
                        1967 --line684
                        1968 ..lin.C.3A.5C_ECU2.5CECU_Rivian_A1.5CTarget.5Crepo_projects.5CpRealEcu.5CcL_LATEST.5Cmake.5Coutput.5Cobjects.5CSwcApplTpms_DevCanMessages.128::
                        1969 .LDWlin128:
000008a6 404e0000*      1970 	movhi	hi(_DCM_S_LastEventDataReceivedOnMultiplex),zero,r9
000008aa c9e9           1971 	add	r9,r29
000008ac 3d470100*      1972 	ld.w	lo(_DCM_S_LastEventDataReceivedOnMultiplex)[r29],r8
000008b0 3dee0000*      1973 	movea	lo(_DCM_S_LastEventDataReceivedOnMultiplex),r29,r29
000008b4 3d3f0500       1974 	ld.w	4[r29],r7
000008b8 03f0           1975 	mov	sp,ep
000008ba 0145           1976 	sst.w	r8,0[ep]
000008bc 033d           1977 	sst.w	r7,4[ep]
000008be be0709300000   1978 	ld.dw	0[ep],r6
                        1979 	jarl	_DCM_PutEventData2Buffer,lp
                        1979 <EXPANSION BEGIN>
                        1979 jarl22 _DCM_PutEventData2Buffer , lp 
000008c4 bfff4aff*      1979 <EXPANSION END>
                        1980 --line680
                        1981 ..lin.C.3A.5C_ECU2.5CECU_Rivian_A1.5CTarget.5Crepo_projects.5CpRealEcu.5CcL_LATEST.5Cmake.5Coutput.5Cobjects.5CSwcApplTpms_DevCanMessages.129::
                        1982 .LDWlin129:
000008c8 41e2           1983 	add	1,r28
000008ca 68e2           1984 	cmp	8,r28
000008cc b1e5*          1985 	bl	.L1434
                        1986 .L1427:
                        1987 --	    .ef
                        1988 .LDW76:
                        1989 --line690
                        1990 ..lin.C.3A.5C_ECU2.5CECU_Rivian_A1.5CTarget.5Crepo_projects.5CpRealEcu.5CcL_LATEST.5Cmake.5Coutput.5Cobjects.5CSwcApplTpms_DevCanMessages.130::
                        1991 .LDWlin130:
000008ce 4406ff10       1992 	dispose	2,{r27,r28,r29,r31},[lp]
                        1993 ___ghs_eofn_DCM_EventDataPutToQueue:
                        1994 	.type	_DCM_EventDataPutToQueue,@function
                        1995 	.size	_DCM_EventDataPutToQueue,.-_DCM_EventDataPutToQueue
                        1996 	.type	_DCM_EventDataPutToQueue..C.3A.5C_ECU2.5CECU_Rivian_A1.5CTarget.5Crepo_projects.5CpRealEcu.5CcL_LATEST.5Cmake.5Coutput.5Cobjects.5CSwcApplTpms_DevCanMessages.,@function
                        1997 	.size	_DCM_EventDataPutToQueue..C.3A.5C_ECU2.5CECU_Rivian_A1.5CTarget.5Crepo_projects.5CpRealEcu.5CcL_LATEST.5Cmake.5Coutput.5Cobjects.5CSwcApplTpms_DevCanMessages.,.-_DCM_EventDataPutToQueue..C.3A.5C_ECU2.5CECU_Rivian_A1.5CTarget.5Crepo_projects.5CpRealEcu.5CcL_LATEST.5Cmake.5Coutput.5Cobjects.5CSwcApplTpms_DevCanMessages.
                        1998 	.align	2
                        1999 --_U8_LocalCnt	r28	local

                                                                      Page 41
                                                              C:\Users\nhuliyap\AppData\Local\Temp\gh_00006601.s
                        2000 
                        2001 	.data
                        2002 	.text
                        2003 	.align	2
                        2004 	.align	2
                        2005 ..gh.f.f.1.e.29:
                        2006 	.type	..gh.f.f.1.e.29,@object
                        2007 	.size	..gh.f.f.1.e.29,0
                        2008 	.global	_DCM_EventDataUpdateOnRx
                        2009 _DCM_EventDataUpdateOnRx:
                        2010 --	    .bf
                        2011 .LDW86:
000008d2 bf07aaff*      2012 	jr	_DCM_EventDataPutToQueue
                        2013 --	    .ef
                        2014 .LDW96:
                        2015 	.global	___ghs_eofn_DCM_EventDataUpdateOnRx
                        2016 ___ghs_eofn_DCM_EventDataUpdateOnRx:
                        2017 	.type	_DCM_EventDataUpdateOnRx,@function
                        2018 	.size	_DCM_EventDataUpdateOnRx,.-_DCM_EventDataUpdateOnRx
                        2019 	.align	2
                        2020 
                        2021 	.section ".bss","awb"
                        2022 .L1905:
                        2023 	.type	.L1905,@object
                        2024 	.size	.L1905,0
                        2025 	.data
                        2026 	.text
                        2027 	.align	2
                        2028 	.align	2
                        2029 ..gh.f.f.1.e.30:
                        2030 	.type	..gh.f.f.1.e.30,@object
                        2031 	.size	..gh.f.f.1.e.30,0
                        2032 	.global	_DCM_StoreMaxMultiplexSystemNr..C.3A.5C_ECU2.5CECU_Rivian_A1.5CTarget.5Crepo_projects.5CpRealEcu.5CcL_LATEST.5Cmake.5Coutput.5Cobjects.5CSwcApplTpms_DevCanMessages.
                        2033 _DCM_StoreMaxMultiplexSystemNr..C.3A.5C_ECU2.5CECU_Rivian_A1.5CTarget.5Crepo_projects.5CpRealEcu.5CcL_LATEST.5Cmake.5Coutput.5Cobjects.5CSwcApplTpms_DevCanMessages.:
                        2034 _DCM_StoreMaxMultiplexSystemNr:
000008d6 8600           2035 	zxb	r6
000008d8 320600000000*  2036 	mov	_DCM_U8_SystemDataMaxMultiplexNr-2,r18
                        2037 --	    .bf
                        2038 .LDW07:
                        2039 --line734
                        2040 ..lin.C.3A.5C_ECU2.5CECU_Rivian_A1.5CTarget.5Crepo_projects.5CpRealEcu.5CcL_LATEST.5Cmake.5Coutput.5Cobjects.5CSwcApplTpms_DevCanMessages.131::
                        2041 .LDWlin131:
000008de 928f0300       2042 	ld.bu	2[r18],r17
000008e2 e689           2043 	cmp	r6,r17
000008e4 b905*          2044 	bnl	.L1924
                        2045 --line736
                        2046 ..lin.C.3A.5C_ECU2.5CECU_Rivian_A1.5CTarget.5Crepo_projects.5CpRealEcu.5CcL_LATEST.5Cmake.5Coutput.5Cobjects.5CSwcApplTpms_DevCanMessages.132::
                        2047 .LDWlin132:
000008e6 52370200       2048 	st.b	r6,2[r18]
                        2049 .L1924:
                        2050 --	    .ef
                        2051 .LDW17:
000008ea 7f00           2052 	jmp	[lp]
                        2053 ___ghs_eofn_DCM_StoreMaxMultiplexSystemNr:
                        2054 	.type	_DCM_StoreMaxMultiplexSystemNr,@function
                        2055 	.size	_DCM_StoreMaxMultiplexSystemNr,.-_DCM_StoreMaxMultiplexSystemNr
                        2056 	.type	_DCM_StoreMaxMultiplexSystemNr..C.3A.5C_ECU2.5CECU_Rivian_A1.5CTarget.5Crepo_projects.5CpRealEcu.5CcL_LATEST.5Cmake.5Coutput.5Cobjects.5CSwcApplTpms_DevCanMessages.,@function
                        2057 	.size	_DCM_StoreMaxMultiplexSystemNr..C.3A.5C_ECU2.5CECU_Rivian_A1.5CTarget.5Crepo_projects.5CpRealEcu.5CcL_LATEST.5Cmake.5Coutput.5Cobjects.5CSwcApplTpms_DevCanMessages.,.-_DCM_StoreMaxMultiplexSystemNr..C.3A.5C_ECU2.5CECU_Rivian_A1.5CTarget.5Crepo_projects.5CpRealEcu.5CcL_LATEST.5Cmake.5Coutput.5Cobjects.5CSwcApplTpms_DevCanMessages.
                        2058 	.align	2
                        2059 
                        2060 --_U8_CurrentMultiplexNr	r6	param

                                                                      Page 42
                                                              C:\Users\nhuliyap\AppData\Local\Temp\gh_00006601.s
                        2061 
                        2062 	.data
                        2063 	.text
                        2064 	.align	2
                        2065 	.align	2
                        2066 ..gh.f.f.1.e.31:
                        2067 	.type	..gh.f.f.1.e.31,@object
                        2068 	.size	..gh.f.f.1.e.31,0
                        2069 	.global	_DCM_PutSystemData2Buffer..C.3A.5C_ECU2.5CECU_Rivian_A1.5CTarget.5Crepo_projects.5CpRealEcu.5CcL_LATEST.5Cmake.5Coutput.5Cobjects.5CSwcApplTpms_DevCanMessages.
                        2070 _DCM_PutSystemData2Buffer..C.3A.5C_ECU2.5CECU_Rivian_A1.5CTarget.5Crepo_projects.5CpRealEcu.5CcL_LATEST.5Cmake.5Coutput.5Cobjects.5CSwcApplTpms_DevCanMessages.:
                        2071 _DCM_PutSystemData2Buffer:
000008ec 031ee4ff       2072 	addi	-28,sp,sp
000008f0 03f0           2073 	mov	sp,ep
000008f2 093d           2074 	sst.w	r7,16[ep]
000008f4 0735           2075 	sst.w	r6,12[ep]
000008f6 05fd           2076 	sst.w	lp,8[ep]
000008f8 03e5           2077 	sst.w	r28,4[ep]
000008fa 01ed           2078 	sst.w	r29,0[ep]
                        2079 --	    .bf
                        2080 .LDW27:
000008fc 8600           2081 	zxb	r6
000008fe 06e0           2082 	mov	r6,r28
                        2083 	jarl	_DCH_MultiplexMsgGetActiveStatus,lp
                        2083 <EXPANSION BEGIN>
                        2083 jarl22 _DCH_MultiplexMsgGetActiveStatus , lp 
00000900 80ff0000*      2083 <EXPANSION END>
00000904 e051           2084 	cmp	zero,r10
00000906 e21d*          2085 	be	.L1990
00000908 3d0600000000*  2086 	mov	_u8_SysWriteCnt,r29
                        2087 --line798
                        2088 ..lin.C.3A.5C_ECU2.5CECU_Rivian_A1.5CTarget.5Crepo_projects.5CpRealEcu.5CcL_LATEST.5Cmake.5Coutput.5Cobjects.5CSwcApplTpms_DevCanMessages.133::
                        2089 .LDWlin133:
0000090e 9d7f0100       2090 	ld.bu	0[r29],r15
00000912 6f7a           2091 	cmp	15,r15
00000914 b105*          2092 	bl	.L1994
                        2093 --line800
                        2094 ..lin.C.3A.5C_ECU2.5CECU_Rivian_A1.5CTarget.5Crepo_projects.5CpRealEcu.5CcL_LATEST.5Cmake.5Coutput.5Cobjects.5CSwcApplTpms_DevCanMessages.134::
                        2095 .LDWlin134:
00000916 5d070000       2096 	st.b	zero,0[r29]
                        2097 .L1994:
0000091a 1c30           2098 	mov	r28,r6
                        2099 	jarl	_DCM_StoreMaxMultiplexSystemNr,lp
                        2099 <EXPANSION BEGIN>
                        2099 jarl22 _DCM_StoreMaxMultiplexSystemNr , lp 
0000091c bfffbaff*      2099 <EXPANSION END>
                        2100 --line804
                        2101 ..lin.C.3A.5C_ECU2.5CECU_Rivian_A1.5CTarget.5Crepo_projects.5CpRealEcu.5CcL_LATEST.5Cmake.5Coutput.5Cobjects.5CSwcApplTpms_DevCanMessages.135::
                        2102 .LDWlin135:
00000920 9d8f0100       2103 	ld.bu	0[r29],r17
00000924 23f60c00       2104 	movea	12,sp,ep
00000928 006d           2105 	sld.w	0[ep],r13
0000092a 0265           2106 	sld.w	4[ep],r12
0000092c 1190           2107 	mov	r17,r18
0000092e c392           2108 	shl	3,r18
00000930 dd91           2109 	add	r29,r18
00000932 32f60408       2110 	movea	2052,r18,ep
00000936 016d           2111 	sst.w	r13,0[ep]
00000938 0365           2112 	sst.w	r12,4[ep]
0000093a 115e0100       2113 	addi	1,r17,r11
0000093e 5d5f0000       2114 	st.b	r11,0[r29]
                        2115 .L1990:

                                                                      Page 43
                                                              C:\Users\nhuliyap\AppData\Local\Temp\gh_00006601.s
                        2116 --	    .ef
                        2117 .LDW37:
00000942 03f0           2118 	mov	sp,ep
00000944 04fd           2119 	sld.w	8[ep],lp
00000946 00ed           2120 	sld.w	0[ep],r29
00000948 02e5           2121 	sld.w	4[ep],r28
0000094a 031e1c00       2122 	addi	28,sp,sp
0000094e 7f00           2123 	jmp	[lp]
                        2124 ___ghs_eofn_DCM_PutSystemData2Buffer:
                        2125 	.type	_DCM_PutSystemData2Buffer,@function
                        2126 	.size	_DCM_PutSystemData2Buffer,.-_DCM_PutSystemData2Buffer
                        2127 	.type	_DCM_PutSystemData2Buffer..C.3A.5C_ECU2.5CECU_Rivian_A1.5CTarget.5Crepo_projects.5CpRealEcu.5CcL_LATEST.5Cmake.5Coutput.5Cobjects.5CSwcApplTpms_DevCanMessages.,@function
                        2128 	.size	_DCM_PutSystemData2Buffer..C.3A.5C_ECU2.5CECU_Rivian_A1.5CTarget.5Crepo_projects.5CpRealEcu.5CcL_LATEST.5Cmake.5Coutput.5Cobjects.5CSwcApplTpms_DevCanMessages.,.-_DCM_PutSystemData2Buffer..C.3A.5C_ECU2.5CECU_Rivian_A1.5CTarget.5Crepo_projects.5CpRealEcu.5CcL_LATEST.5Cmake.5Coutput.5Cobjects.5CSwcApplTpms_DevCanMessages.
                        2129 	.align	2
                        2130 
                        2131 --_S_SysDataMultiplex	12[sp]	param
                        2132 
                        2133 	.data
                        2134 	.text
                        2135 	.align	2
                        2136 	.align	2
                        2137 ..gh.f.f.1.e.32:
                        2138 	.type	..gh.f.f.1.e.32,@object
                        2139 	.size	..gh.f.f.1.e.32,0
                        2140 	.global	_DCM_SystemDataPutToQueue..C.3A.5C_ECU2.5CECU_Rivian_A1.5CTarget.5Crepo_projects.5CpRealEcu.5CcL_LATEST.5Cmake.5Coutput.5Cobjects.5CSwcApplTpms_DevCanMessages.
                        2141 _DCM_SystemDataPutToQueue..C.3A.5C_ECU2.5CECU_Rivian_A1.5CTarget.5Crepo_projects.5CpRealEcu.5CcL_LATEST.5Cmake.5Coutput.5Cobjects.5CSwcApplTpms_DevCanMessages.:
                        2142 _DCM_SystemDataPutToQueue:
00000950 8407e110       2143 	prepare	{r27,r28,r29,r31},2
                        2144 --	    .bf
                        2145 .LDW47:
                        2146 	jarl	_DCH_IsCanDebugEnabled,lp
                        2146 <EXPANSION BEGIN>
                        2146 jarl22 _DCH_IsCanDebugEnabled , lp 
00000954 80ff0000*      2146 <EXPANSION END>
00000958 e051           2147 	cmp	zero,r10
0000095a c225*          2148 	be	.L2083
                        2149 	jarl	_DCH_SubmultiplexConfigGetStatus,lp
                        2149 <EXPANSION BEGIN>
                        2149 jarl22 _DCH_SubmultiplexConfigGetStatus , lp 
0000095c 80ff0000*      2149 <EXPANSION END>
00000960 e051           2150 	cmp	zero,r10
                        2151 --line700
                        2152 ..lin.C.3A.5C_ECU2.5CECU_Rivian_A1.5CTarget.5Crepo_projects.5CpRealEcu.5CcL_LATEST.5Cmake.5Coutput.5Cobjects.5CSwcApplTpms_DevCanMessages.136::
                        2153 .LDWlin136:
00000962 00e2           2154 	mov	0,r28
00000964 f21d*          2155 	be	.L2083
                        2156 .L2090:
                        2157 --line702
                        2158 ..lin.C.3A.5C_ECU2.5CECU_Rivian_A1.5CTarget.5Crepo_projects.5CpRealEcu.5CcL_LATEST.5Cmake.5Coutput.5Cobjects.5CSwcApplTpms_DevCanMessages.137::
                        2159 .LDWlin137:
00000966 1ce8           2160 	mov	r28,r29
00000968 c3ea           2161 	shl	3,r29
0000096a 3e0600000000*  2162 	mov	_DCM_AS_ConfigureSystemMultiplexMsg,ep
00000970 ddf1           2163 	add	r29,ep
00000972 02dd           2164 	sld.w	4[ep],r27
00000974 1c30           2165 	mov	r28,r6
00000976 fbc760f9       2166 	jarl	[r27],lp
                        2167 --line703
                        2168 ..lin.C.3A.5C_ECU2.5CECU_Rivian_A1.5CTarget.5Crepo_projects.5CpRealEcu.5CcL_LATEST.5Cmake.5Coutput.5Cobjects.5CSwcApplTpms_DevCanMessages.138::
                        2169 .LDWlin138:
0000097a 404e0000*      2170 	movhi	hi(_DCM_S_LastSystemDataReceivedOnMultiplex),zero,r9

                                                                      Page 44
                                                              C:\Users\nhuliyap\AppData\Local\Temp\gh_00006601.s
0000097e c9e9           2171 	add	r9,r29
00000980 3d470100*      2172 	ld.w	lo(_DCM_S_LastSystemDataReceivedOnMultiplex)[r29],r8
00000984 3dee0000*      2173 	movea	lo(_DCM_S_LastSystemDataReceivedOnMultiplex),r29,r29
00000988 3d3f0500       2174 	ld.w	4[r29],r7
0000098c 03f0           2175 	mov	sp,ep
0000098e 0145           2176 	sst.w	r8,0[ep]
00000990 033d           2177 	sst.w	r7,4[ep]
00000992 be0709300000   2178 	ld.dw	0[ep],r6
                        2179 	jarl	_DCM_PutSystemData2Buffer,lp
                        2179 <EXPANSION BEGIN>
                        2179 jarl22 _DCM_PutSystemData2Buffer , lp 
00000998 bfff54ff*      2179 <EXPANSION END>
                        2180 --line700
                        2181 ..lin.C.3A.5C_ECU2.5CECU_Rivian_A1.5CTarget.5Crepo_projects.5CpRealEcu.5CcL_LATEST.5Cmake.5Coutput.5Cobjects.5CSwcApplTpms_DevCanMessages.139::
                        2182 .LDWlin139:
0000099c 41e2           2183 	add	1,r28
0000099e 6fe2           2184 	cmp	15,r28
000009a0 b1e5*          2185 	bl	.L2090
                        2186 .L2083:
                        2187 --	    .ef
                        2188 .LDW57:
                        2189 --line709
                        2190 ..lin.C.3A.5C_ECU2.5CECU_Rivian_A1.5CTarget.5Crepo_projects.5CpRealEcu.5CcL_LATEST.5Cmake.5Coutput.5Cobjects.5CSwcApplTpms_DevCanMessages.140::
                        2191 .LDWlin140:
000009a2 4406ff10       2192 	dispose	2,{r27,r28,r29,r31},[lp]
                        2193 ___ghs_eofn_DCM_SystemDataPutToQueue:
                        2194 	.type	_DCM_SystemDataPutToQueue,@function
                        2195 	.size	_DCM_SystemDataPutToQueue,.-_DCM_SystemDataPutToQueue
                        2196 	.type	_DCM_SystemDataPutToQueue..C.3A.5C_ECU2.5CECU_Rivian_A1.5CTarget.5Crepo_projects.5CpRealEcu.5CcL_LATEST.5Cmake.5Coutput.5Cobjects.5CSwcApplTpms_DevCanMessages.,@function
                        2197 	.size	_DCM_SystemDataPutToQueue..C.3A.5C_ECU2.5CECU_Rivian_A1.5CTarget.5Crepo_projects.5CpRealEcu.5CcL_LATEST.5Cmake.5Coutput.5Cobjects.5CSwcApplTpms_DevCanMessages.,.-_DCM_SystemDataPutToQueue..C.3A.5C_ECU2.5CECU_Rivian_A1.5CTarget.5Crepo_projects.5CpRealEcu.5CcL_LATEST.5Cmake.5Coutput.5Cobjects.5CSwcApplTpms_DevCanMessages.
                        2198 	.align	2
                        2199 --_U8_LocalCnt	r28	local
                        2200 
                        2201 	.data
                        2202 	.text
                        2203 	.align	2
                        2204 	.align	2
                        2205 ..gh.f.f.1.e.33:
                        2206 	.type	..gh.f.f.1.e.33,@object
                        2207 	.size	..gh.f.f.1.e.33,0
                        2208 	.global	_DCM_CyclicDebugSystemDataUpdate
                        2209 _DCM_CyclicDebugSystemDataUpdate:
                        2210 --	    .bf
                        2211 .LDW67:
000009a6 bf07aaff*      2212 	jr	_DCM_SystemDataPutToQueue
                        2213 --	    .ef
                        2214 .LDW77:
                        2215 	.global	___ghs_eofn_DCM_CyclicDebugSystemDataUpdate
                        2216 ___ghs_eofn_DCM_CyclicDebugSystemDataUpdate:
                        2217 	.type	_DCM_CyclicDebugSystemDataUpdate,@function
                        2218 	.size	_DCM_CyclicDebugSystemDataUpdate,.-_DCM_CyclicDebugSystemDataUpdate
                        2219 	.align	2
                        2220 
                        2221 	.section ".bss","awb"
                        2222 .L2561:
                        2223 	.type	.L2561,@object
                        2224 	.size	.L2561,0
                        2225 	.data
                        2226 	.text
                        2227 	.align	2
                        2228 	.align	2

                                                                      Page 45
                                                              C:\Users\nhuliyap\AppData\Local\Temp\gh_00006601.s
                        2229 ..gh.f.f.1.e.34:
                        2230 	.type	..gh.f.f.1.e.34,@object
                        2231 	.size	..gh.f.f.1.e.34,0
                        2232 	.global	_DCM_InitCanDebug
                        2233 _DCM_InitCanDebug:
000009aa 320600000000*  2234 	mov	_bo_StructSystemMultiLast,r18
                        2235 --	    .bf
                        2236 .LDW87:
                        2237 --line743
                        2238 ..lin.C.3A.5C_ECU2.5CECU_Rivian_A1.5CTarget.5Crepo_projects.5CpRealEcu.5CcL_LATEST.5Cmake.5Coutput.5Cobjects.5CSwcApplTpms_DevCanMessages.141::
                        2239 .LDWlin141:
000009b0 12f0           2240 	mov	r18,ep
000009b2 8503           2241 	sst.b	zero,5[ep]
000009b4 8603           2242 	sst.b	zero,6[ep]
000009b6 8103           2243 	sst.b	zero,1[ep]
000009b8 8303           2244 	sst.b	zero,3[ep]
000009ba 8203           2245 	sst.b	zero,2[ep]
000009bc 8403           2246 	sst.b	zero,4[ep]
000009be 8003           2247 	sst.b	zero,0[ep]
000009c0 008a           2248 	mov	0,r17
                        2249 .L2584:
000009c2 32f68008       2250 	movea	2176,r18,ep
000009c6 d1f1           2251 	add	r17,ep
000009c8 418a           2252 	add	1,r17
000009ca 8003           2253 	sst.b	zero,0[ep]
000009cc 110644ff       2254 	addi	-188,r17,zero
000009d0 99fd*          2255 	bnl	.L2584
000009d2 008a           2256 	mov	0,r17
                        2257 .L2587:
                        2258 --line759
                        2259 ..lin.C.3A.5C_ECU2.5CECU_Rivian_A1.5CTarget.5Crepo_projects.5CpRealEcu.5CcL_LATEST.5Cmake.5Coutput.5Cobjects.5CSwcApplTpms_DevCanMessages.142::
                        2260 .LDWlin142:
000009d4 0082           2261 	mov	0,r16
                        2262 .L2590:
000009d6 1178           2263 	mov	r17,r15
000009d8 c37a           2264 	shl	3,r15
000009da 32660808       2265 	movea	2056,r18,r12
000009de cc79           2266 	add	r12,r15
000009e0 10f0           2267 	mov	r16,ep
000009e2 cff1           2268 	add	r15,ep
000009e4 4182           2269 	add	1,r16
000009e6 8003           2270 	sst.b	zero,0[ep]
000009e8 6882           2271 	cmp	8,r16
000009ea e1f5*          2272 	bl	.L2590
                        2273 --line757
                        2274 ..lin.C.3A.5C_ECU2.5CECU_Rivian_A1.5CTarget.5Crepo_projects.5CpRealEcu.5CcL_LATEST.5Cmake.5Coutput.5Cobjects.5CSwcApplTpms_DevCanMessages.143::
                        2275 .LDWlin143:
000009ec 418a           2276 	add	1,r17
000009ee 6f8a           2277 	cmp	15,r17
000009f0 a1f5*          2278 	bl	.L2587
000009f2 008a           2279 	mov	0,r17
                        2280 .L2593:
                        2281 --line766
                        2282 ..lin.C.3A.5C_ECU2.5CECU_Rivian_A1.5CTarget.5Crepo_projects.5CpRealEcu.5CcL_LATEST.5Cmake.5Coutput.5Cobjects.5CSwcApplTpms_DevCanMessages.144::
                        2283 .LDWlin144:
000009f4 0082           2284 	mov	0,r16
                        2285 .L2596:
000009f6 1170           2286 	mov	r17,r14
000009f8 c372           2287 	shl	3,r14
000009fa 325e4800       2288 	movea	72,r18,r11
000009fe cb71           2289 	add	r11,r14

                                                                      Page 46
                                                              C:\Users\nhuliyap\AppData\Local\Temp\gh_00006601.s
00000a00 10f0           2290 	mov	r16,ep
00000a02 cef1           2291 	add	r14,ep
00000a04 4182           2292 	add	1,r16
00000a06 8003           2293 	sst.b	zero,0[ep]
00000a08 6882           2294 	cmp	8,r16
00000a0a e1f5*          2295 	bl	.L2596
                        2296 --line764
                        2297 ..lin.C.3A.5C_ECU2.5CECU_Rivian_A1.5CTarget.5Crepo_projects.5CpRealEcu.5CcL_LATEST.5Cmake.5Coutput.5Cobjects.5CSwcApplTpms_DevCanMessages.145::
                        2298 .LDWlin145:
00000a0c 418a           2299 	add	1,r17
00000a0e 110608ff       2300 	addi	-248,r17,zero
00000a12 99f5*          2301 	bnl	.L2593
                        2302 --	    .ef
                        2303 .LDW97:
                        2304 --line771
                        2305 ..lin.C.3A.5C_ECU2.5CECU_Rivian_A1.5CTarget.5Crepo_projects.5CpRealEcu.5CcL_LATEST.5Cmake.5Coutput.5Cobjects.5CSwcApplTpms_DevCanMessages.146::
                        2306 .LDWlin146:
00000a14 7f00           2307 	jmp	[lp]
                        2308 	.global	___ghs_eofn_DCM_InitCanDebug
                        2309 ___ghs_eofn_DCM_InitCanDebug:
                        2310 	.type	_DCM_InitCanDebug,@function
                        2311 	.size	_DCM_InitCanDebug,.-_DCM_InitCanDebug
                        2312 	.align	2
                        2313 --_ArrayCnt	r17	local
                        2314 --_StructureCnt	r16	local
                        2315 
                        2316 	.data
                        2317 	.text
                        2318 	.align	2
                        2319 	.align	2
                        2320 ..gh.f.f.1.e.35:
                        2321 	.type	..gh.f.f.1.e.35,@object
                        2322 	.size	..gh.f.f.1.e.35,0
                        2323 	.global	_DCM_EventDataGetFromBuffer..C.3A.5C_ECU2.5CECU_Rivian_A1.5CTarget.5Crepo_projects.5CpRealEcu.5CcL_LATEST.5Cmake.5Coutput.5Cobjects.5CSwcApplTpms_DevCanMessages.
                        2324 _DCM_EventDataGetFromBuffer..C.3A.5C_ECU2.5CECU_Rivian_A1.5CTarget.5Crepo_projects.5CpRealEcu.5CcL_LATEST.5Cmake.5Coutput.5Cobjects.5CSwcApplTpms_DevCanMessages.:
                        2325 _DCM_EventDataGetFromBuffer:
00000a16 320600000000*  2326 	mov	_u8_EnvReadCnt-1,r18
                        2327 --	    .bf
                        2328 .LDW08:
                        2329 --line836
                        2330 ..lin.C.3A.5C_ECU2.5CECU_Rivian_A1.5CTarget.5Crepo_projects.5CpRealEcu.5CcL_LATEST.5Cmake.5Coutput.5Cobjects.5CSwcApplTpms_DevCanMessages.147::
                        2331 .LDWlin147:
00000a1c 12f0           2332 	mov	r18,ep
00000a1e 6188           2333 	sld.bu	1[ep],r17
00000a20 6340           2334 	sld.bu	3[ep],r8
00000a22 f141           2335 	cmp	r17,r8
00000a24 d215*          2336 	be	.L2768
                        2337 --line839
                        2338 ..lin.C.3A.5C_ECU2.5CECU_Rivian_A1.5CTarget.5Crepo_projects.5CpRealEcu.5CcL_LATEST.5Cmake.5Coutput.5Cobjects.5CSwcApplTpms_DevCanMessages.148::
                        2339 .LDWlin148:
00000a26 110608ff       2340 	addi	-248,r17,zero
00000a2a e08f028b       2341 	cmovl	0,r17,r17
00000a2e 11f0           2342 	mov	r17,ep
00000a30 c3f2           2343 	shl	3,ep
00000a32 d2f1           2344 	add	r18,ep
00000a34 249d           2345 	sld.w	72[ep],r19
00000a36 2685           2346 	sld.w	76[ep],r16
00000a38 06f60400       2347 	addi	4,r6,ep
00000a3c 117e0100       2348 	addi	1,r17,r15
00000a40 669f0100       2349 	st.w	r19,0[r6]
00000a44 0185           2350 	sst.w	r16,0[ep]

                                                                      Page 47
                                                              C:\Users\nhuliyap\AppData\Local\Temp\gh_00006601.s
00000a46 527f0100       2351 	st.b	r15,1[r18]
00000a4a 0152           2352 	mov	1,r10
00000a4c 7f00           2353 	jmp	[lp]
                        2354 .L2768:
                        2355 --line854
                        2356 ..lin.C.3A.5C_ECU2.5CECU_Rivian_A1.5CTarget.5Crepo_projects.5CpRealEcu.5CcL_LATEST.5Cmake.5Coutput.5Cobjects.5CSwcApplTpms_DevCanMessages.149::
                        2357 .LDWlin149:
00000a4e 0052           2358 	mov	0,r10
                        2359 --	    .ef
                        2360 .LDW18:
00000a50 7f00           2361 	jmp	[lp]
                        2362 ___ghs_eofn_DCM_EventDataGetFromBuffer:
                        2363 	.type	_DCM_EventDataGetFromBuffer,@function
                        2364 	.size	_DCM_EventDataGetFromBuffer,.-_DCM_EventDataGetFromBuffer
                        2365 	.type	_DCM_EventDataGetFromBuffer..C.3A.5C_ECU2.5CECU_Rivian_A1.5CTarget.5Crepo_projects.5CpRealEcu.5CcL_LATEST.5Cmake.5Coutput.5Cobjects.5CSwcApplTpms_DevCanMessages.,@function
                        2366 	.size	_DCM_EventDataGetFromBuffer..C.3A.5C_ECU2.5CECU_Rivian_A1.5CTarget.5Crepo_projects.5CpRealEcu.5CcL_LATEST.5Cmake.5Coutput.5Cobjects.5CSwcApplTpms_DevCanMessages.,.-_DCM_EventDataGetFromBuffer..C.3A.5C_ECU2.5CECU_Rivian_A1.5CTarget.5Crepo_projects.5CpRealEcu.5CcL_LATEST.5Cmake.5Coutput.5Cobjects.5CSwcApplTpms_DevCanMessages.
                        2367 	.align	2
                        2368 --_ucRet	r10	local
                        2369 
                        2370 --_tHufDisplay	r6	param
                        2371 
                        2372 	.data
                        2373 	.text
                        2374 	.align	2
                        2375 	.align	2
                        2376 ..gh.f.f.1.e.36:
                        2377 	.type	..gh.f.f.1.e.36,@object
                        2378 	.size	..gh.f.f.1.e.36,0
                        2379 	.global	_DCM_SystemDataGetFromBuffer..C.3A.5C_ECU2.5CECU_Rivian_A1.5CTarget.5Crepo_projects.5CpRealEcu.5CcL_LATEST.5Cmake.5Coutput.5Cobjects.5CSwcApplTpms_DevCanMessages.
                        2380 _DCM_SystemDataGetFromBuffer..C.3A.5C_ECU2.5CECU_Rivian_A1.5CTarget.5Crepo_projects.5CpRealEcu.5CcL_LATEST.5Cmake.5Coutput.5Cobjects.5CSwcApplTpms_DevCanMessages.:
                        2381 _DCM_SystemDataGetFromBuffer:
00000a52 320600000000*  2382 	mov	_bo_StructSystemMultiLast,r18
                        2383 --	    .bf
                        2384 .LDW28:
                        2385 --line864
                        2386 ..lin.C.3A.5C_ECU2.5CECU_Rivian_A1.5CTarget.5Crepo_projects.5CpRealEcu.5CcL_LATEST.5Cmake.5Coutput.5Cobjects.5CSwcApplTpms_DevCanMessages.150::
                        2387 .LDWlin150:
00000a58 928f0300       2388 	ld.bu	2[r18],r17
00000a5c 32860808       2389 	movea	2056,r18,r16
00000a60 6f8a           2390 	cmp	15,r17
00000a62 e08f128b       2391 	cmovnl	0,r17,r17
00000a66 11f0           2392 	mov	r17,ep
00000a68 c3f2           2393 	shl	3,ep
00000a6a d0f1           2394 	add	r16,ep
00000a6c 007d           2395 	sld.w	0[ep],r15
00000a6e 0275           2396 	sld.w	4[ep],r14
00000a70 667f0100       2397 	st.w	r15,0[r6]
00000a74 66770500       2398 	st.w	r14,4[r6]
00000a78 6050           2399 	sld.bu	0[ep],r10
00000a7a 12f0           2400 	mov	r18,ep
00000a7c 6648           2401 	sld.bu	6[ep],r9
00000a7e ea49           2402 	cmp	r10,r9
00000a80 e25f0000       2403 	setfe	r11
00000a84 11460100       2404 	addi	1,r17,r8
00000a88 805b           2405 	sst.b	r11,0[ep]
00000a8a 8243           2406 	sst.b	r8,2[ep]
                        2407 --	    .ef
                        2408 .LDW38:
00000a8c 7f00           2409 	jmp	[lp]
                        2410 ___ghs_eofn_DCM_SystemDataGetFromBuffer:
                        2411 	.type	_DCM_SystemDataGetFromBuffer,@function

                                                                      Page 48
                                                              C:\Users\nhuliyap\AppData\Local\Temp\gh_00006601.s
                        2412 	.size	_DCM_SystemDataGetFromBuffer,.-_DCM_SystemDataGetFromBuffer
                        2413 	.type	_DCM_SystemDataGetFromBuffer..C.3A.5C_ECU2.5CECU_Rivian_A1.5CTarget.5Crepo_projects.5CpRealEcu.5CcL_LATEST.5Cmake.5Coutput.5Cobjects.5CSwcApplTpms_DevCanMessages.,@function
                        2414 	.size	_DCM_SystemDataGetFromBuffer..C.3A.5C_ECU2.5CECU_Rivian_A1.5CTarget.5Crepo_projects.5CpRealEcu.5CcL_LATEST.5Cmake.5Coutput.5Cobjects.5CSwcApplTpms_DevCanMessages.,.-_DCM_SystemDataGetFromBuffer..C.3A.5C_ECU2.5CECU_Rivian_A1.5CTarget.5Crepo_projects.5CpRealEcu.5CcL_LATEST.5Cmake.5Coutput.5Cobjects.5CSwcApplTpms_DevCanMessages.
                        2415 	.align	2
                        2416 
                        2417 --_tHufDisplay	r6	param
                        2418 
                        2419 	.data
                        2420 	.text
                        2421 	.align	2
                        2422 	.align	2
                        2423 ..gh.f.f.1.e.37:
                        2424 	.type	..gh.f.f.1.e.37,@object
                        2425 	.size	..gh.f.f.1.e.37,0
                        2426 	.global	_DCM_DataToTransmitOnCAN
                        2427 _DCM_DataToTransmitOnCAN:
00000a8e 80072100       2428 	prepare	{r31},0
                        2429 --	    .bf
                        2430 .LDW48:
00000a92 40960000*      2431 	movhi	hi(_bo_StructSystemMultiLast),zero,r18
00000a96 92970100*      2432 	ld.bu	lo(_bo_StructSystemMultiLast)[r18],r18
00000a9a e091           2433 	cmp	zero,r18
00000a9c d205*          2434 	be	.L2971
                        2435 --	    .bs
                        2436 .LDW58:
                        2437 --line818
                        2438 ..lin.C.3A.5C_ECU2.5CECU_Rivian_A1.5CTarget.5Crepo_projects.5CpRealEcu.5CcL_LATEST.5Cmake.5Coutput.5Cobjects.5CSwcApplTpms_DevCanMessages.151::
                        2439 .LDWlin151:
                        2440 	jarl	_DCM_EventDataGetFromBuffer,lp
                        2440 <EXPANSION BEGIN>
                        2440 jarl22 _DCM_EventDataGetFromBuffer , lp 
00000a9e bfff78ff*      2440 <EXPANSION END>
                        2441 --line820
                        2442 ..lin.C.3A.5C_ECU2.5CECU_Rivian_A1.5CTarget.5Crepo_projects.5CpRealEcu.5CcL_LATEST.5Cmake.5Coutput.5Cobjects.5CSwcApplTpms_DevCanMessages.152::
                        2443 .LDWlin152:
00000aa2 e051           2444 	cmp	zero,r10
00000aa4 ba05*          2445 	bne	.L2969
                        2446 .L2971:
                        2447 --	    .es
                        2448 .LDW68:
                        2449 --line828
                        2450 ..lin.C.3A.5C_ECU2.5CECU_Rivian_A1.5CTarget.5Crepo_projects.5CpRealEcu.5CcL_LATEST.5Cmake.5Coutput.5Cobjects.5CSwcApplTpms_DevCanMessages.153::
                        2451 .LDWlin153:
                        2452 	jarl	_DCM_SystemDataGetFromBuffer,lp
                        2452 <EXPANSION BEGIN>
                        2452 jarl22 _DCM_SystemDataGetFromBuffer , lp 
00000aa6 bfffacff*      2452 <EXPANSION END>
                        2453 .L2969:
                        2454 --	    .ef
                        2455 .LDW78:
                        2456 --line830
                        2457 ..lin.C.3A.5C_ECU2.5CECU_Rivian_A1.5CTarget.5Crepo_projects.5CpRealEcu.5CcL_LATEST.5Cmake.5Coutput.5Cobjects.5CSwcApplTpms_DevCanMessages.154::
                        2458 .LDWlin154:
00000aaa 40063f00       2459 	dispose	0,{r31},[lp]
                        2460 	.global	___ghs_eofn_DCM_DataToTransmitOnCAN
                        2461 ___ghs_eofn_DCM_DataToTransmitOnCAN:
                        2462 	.type	_DCM_DataToTransmitOnCAN,@function
                        2463 	.size	_DCM_DataToTransmitOnCAN,.-_DCM_DataToTransmitOnCAN
                        2464 	.align	2
                        2465 
                        2466 --_spCAN_Message	r29	param

                                                                      Page 49
                                                              C:\Users\nhuliyap\AppData\Local\Temp\gh_00006601.s
                        2467 
                        2468 	.data
                        2469 	.text
                        2470 	.align	2
                        2471 --_bo_StructSystemMultiLast	_bo_StructSystemMultiLast	static
                        2472 --_u8_EnvReadCnt	_u8_EnvReadCnt	static
                        2473 --_u8_SysReadCnt	_u8_SysReadCnt	static
                        2474 --_u8_EnvWriteCnt	_u8_EnvWriteCnt	static
                        2475 --_u8_SysWriteCnt	_u8_SysWriteCnt	static
                        2476 --_DCM_U8_EventDataMaxMultiplexNr	_DCM_U8_EventDataMaxMultiplexNr	static
                        2477 --_DCM_U8_SystemDataMaxMultiplexNr	_DCM_U8_SystemDataMaxMultiplexNr	static
                        2478 --_S_HufEnvMsgBuf	_S_HufEnvMsgBuf	static
                        2479 --_S_HufSysMsgBuf	_S_HufSysMsgBuf	static
                        2480 --_DCM_S_MultiplexMessageIDs	_DCM_S_MultiplexMessageIDs	static
                        2481 --_DCM_AS_ConfigureEventMultiplexMsg	_DCM_AS_ConfigureEventMultiplexMsg	static
                        2482 --_DCM_AS_ConfigureSystemMultiplexMsg	_DCM_AS_ConfigureSystemMultiplexMsg	static
                        2483 --_DCM_S_LastEventDataReceivedOnMultiplex	_DCM_S_LastEventDataReceivedOnMultiplex	static
                        2484 --_DCM_S_LastSystemDataReceivedOnMultiplex	_DCM_S_LastSystemDataReceivedOnMultiplex	static
                        2485 
                        2486 	.data
                        2487 	.ghsnote version,17
                        2488 	.ghsnote tools,3
                        2489 	.ghsnote options,144
                        2490 	.text
                        2491 	.align	2
                        2492 ..eof.C.3A.5C_ECU2.5CECU_Rivian_A1.5CTarget.5Crepo_projects.5CpRealEcu.5CcL_LATEST.5Cmake.5Coutput.5Cobjects.5CSwcApplTpms_DevCanMessages...43.3A.5C_ECU2.5CECU_Rivian_A1.5CTarget.5Crepo_projects.5CpRealEcu.5CcL_LATEST.5Cmake..64F82E04..0::
                        2493 	.section	.debug_info
                        2494 .Ldw_begin:
00000000 28430000       2495 	.word	.Ldw_end-.Ldw_begin-4
00000004 0200           2496 	.byte	2,0
00000006 00000000*      2497 	.word	.Ldw_abbr_begin
0000000a 04             2498 	.byte	4
                        2499 	.section	.debug_abbrev
                        2500 .Ldw_abbr_begin:
                        2501 	.section	.debug_info
0000000b 01             2502 	.byte	1
0000000c 00000000*      2503 	.word	..bof.C.3A.5C_ECU2.5CECU_Rivian_A1.5CTarget.5Crepo_projects.5CpRealEcu.5CcL_LATEST.5Cmake.5Coutput.5Cobjects.5CSwcApplTpms_DevCanMessages...43.3A.5C_ECU2.5CECU_Rivian_A1.5CTarget.5Crepo_projects.5CpRealEcu.5CcL_LATEST.5Cmake..64F82E04..0
00000010 00000000*      2504 	.word	..eof.C.3A.5C_ECU2.5CECU_Rivian_A1.5CTarget.5Crepo_projects.5CpRealEcu.5CcL_LATEST.5Cmake.5Coutput.5Cobjects.5CSwcApplTpms_DevCanMessages...43.3A.5C_ECU2.5CECU_Rivian_A1.5CTarget.5Crepo_projects.5CpRealEcu.5CcL_LATEST.5Cmake..64F82E04..0
00000014 2e2e2f736f75   2505 	.strz	"../source/SwcApplTpms/SwcApplTpms_DevCanMessages.c"
0000001a 7263652f5377 
00000020 634170706c54 
00000026 706d732f5377 
0000002c 634170706c54 
00000032 706d735f4465 
00000038 7643616e4d65 
0000003e 737361676573 
00000044 2e6300 
00000047 433a5c5f4543   2506 	.strz	"C:\\_ECU2\\ECU_Rivian_A1\\Target\\repo_projects\\pRealEcu\\cL_LATEST\\make"
0000004d 55325c454355 
00000053 5f5269766961 
00000059 6e5f41315c54 
0000005f 61726765745c 
00000065 7265706f5f70 
0000006b 726f6a656374 
00000071 735c70526561 
00000077 6c4563755c63 
0000007d 4c5f4c415445 
00000083 53545c6d616b 
00000089 6500 
0000008b 474853204320   2507 	.strz	"GHS C 2015.1.7 [dual]"
00000091 323031352e31 

                                                                      Page 50
                                                              C:\Users\nhuliyap\AppData\Local\Temp\gh_00006601.s
00000097 2e37205b6475 
0000009d 616c5d00 
000000a1 0100           2508 	.byte	1,0
000000a3 00000000*      2509 	.word	.Ldw_line_begin
000000a7 00000000*      2510 	.word	.Ldw_macinfo_begin
000000ab 00             2511 	.byte	0
                        2512 
                        2513 	.section	.debug_abbrev
00000000 01             2514 	.byte	1
00000001 11             2515 	.byte	17
00000002 01             2516 	.byte	1
00000003 1101           2517 	.byte	17,1
00000005 1201           2518 	.byte	18,1
00000007 0308           2519 	.byte	3,8
00000009 1b08           2520 	.byte	27,8
0000000b 2508           2521 	.byte	37,8
0000000d 1305           2522 	.byte	19,5
0000000f 1006           2523 	.byte	16,6
00000011 4306           2524 	.byte	67,6
00000013 420b           2525 	.byte	66,11
00000015 0000           2526 	.byte	0,0
                        2527 
                        2528 	.section	.debug_line
                        2529 .Ldw_line_begin:
00000000 820b0000       2530 	.word	.Ldw_line_end-.Ldw_line_begin-4
00000004 0200           2531 	.byte	2,0
00000006 00000000*      2532 	.word	.Ldw_lpro_end-.Ldw_lpro_begin
                        2533 .Ldw_lpro_begin:
0000000a 01             2534 	.byte	1
0000000b 00             2535 	.byte	0
0000000c 00             2536 	.byte	0
0000000d 04             2537 	.byte	4
0000000e 0a             2538 	.byte	10
0000000f 000101         2539 	.byte	0,1,1
00000012 010100         2540 	.byte	1,1,0
00000015 000001         2541 	.byte	0,0,1
00000018 00             2542 	.byte	0
00000019 2e2e2f736f75   2543 	.strz	"../source/SwcApplTpms/SwcApplTpms_DevCanMessages.c"
0000001f 7263652f5377 
00000025 634170706c54 
0000002b 706d732f5377 
00000031 634170706c54 
00000037 706d735f4465 
0000003d 7643616e4d65 
00000043 737361676573 
00000049 2e6300 
0000004c 000000         2544 	.byte	0,0,0
0000004f 2e2e2f736f75   2545 	.strz	"../source/SwcApplTpms/SwcApplTpms_DevCanMessages.hpp"
00000055 7263652f5377 
0000005b 634170706c54 
00000061 706d732f5377 
00000067 634170706c54 
0000006d 706d735f4465 
00000073 7643616e4d65 
00000079 737361676573 
0000007f 2e68707000 
00000084 000000         2546 	.byte	0,0,0
00000087 2e2e2f736f75   2547 	.strz	"../source/SwcApplTpms/Tpms_Rte_Data_Type.hpp"
0000008d 7263652f5377 
00000093 634170706c54 
00000099 706d732f5470 

                                                                      Page 51
                                                              C:\Users\nhuliyap\AppData\Local\Temp\gh_00006601.s
0000009f 6d735f527465 
000000a5 5f446174615f 
000000ab 547970652e68 
000000b1 707000 
000000b4 000000         2548 	.byte	0,0,0
000000b7 2e2e2f736f75   2549 	.strz	"../source/McalMcu/Types.hpp"
000000bd 7263652f4d63 
000000c3 616c4d63752f 
000000c9 54797065732e 
000000cf 68707000 
000000d3 000000         2550 	.byte	0,0,0
000000d6 2e2e2f736f75   2551 	.strz	"../source/common/Std_Types.hpp"
000000dc 7263652f636f 
000000e2 6d6d6f6e2f53 
000000e8 74645f547970 
000000ee 65732e687070 
000000f4 00 
000000f5 000000         2552 	.byte	0,0,0
000000f8 2e2e2f736f75   2553 	.strz	"../source/common/Platform_Types.hpp"
000000fe 7263652f636f 
00000104 6d6d6f6e2f50 
0000010a 6c6174666f72 
00000110 6d5f54797065 
00000116 732e68707000 
0000011c 000000         2554 	.byte	0,0,0
0000011f 2e2e2f736f75   2555 	.strz	"../source/common/Compiler.hpp"
00000125 7263652f636f 
0000012b 6d6d6f6e2f43 
00000131 6f6d70696c65 
00000137 722e68707000 
0000013d 000000         2556 	.byte	0,0,0
00000140 2e2e2f736f75   2557 	.strz	"../source/ProjectCompiler/Compiler_Cfg.hpp"
00000146 7263652f5072 
0000014c 6f6a65637443 
00000152 6f6d70696c65 
00000158 722f436f6d70 
0000015e 696c65725f43 
00000164 66672e687070 
0000016a 00 
0000016b 000000         2558 	.byte	0,0,0
0000016e 2e2e2f736f75   2559 	.strz	"../source/ProjectCompiler/CompilerCfg_SwcServiceOs.hpp"
00000174 7263652f5072 
0000017a 6f6a65637443 
00000180 6f6d70696c65 
00000186 722f436f6d70 
0000018c 696c65724366 
00000192 675f53776353 
00000198 657276696365 
0000019e 4f732e687070 
000001a4 00 
000001a5 000000         2560 	.byte	0,0,0
000001a8 2e2e2f736f75   2561 	.strz	"../source/SwcApplTpms/iTpms_Interface.hpp"
000001ae 7263652f5377 
000001b4 634170706c54 
000001ba 706d732f6954 
000001c0 706d735f496e 
000001c6 746572666163 
000001cc 652e68707000 
000001d2 000000         2562 	.byte	0,0,0
000001d5 2e2e2f736f75   2563 	.strz	"../source/SwcApplTpms/SwcApplTpms_DevCanMesReqInterfaces.hpp"
000001db 7263652f5377 

                                                                      Page 52
                                                              C:\Users\nhuliyap\AppData\Local\Temp\gh_00006601.s
000001e1 634170706c54 
000001e7 706d732f5377 
000001ed 634170706c54 
000001f3 706d735f4465 
000001f9 7643616e4d65 
000001ff 73526571496e 
00000205 746572666163 
0000020b 65732e687070 
00000211 00 
00000212 000000         2564 	.byte	0,0,0
00000215 2e2e2f736f75   2565 	.strz	"../source/SwcApplTpms/DevCanHandling.hpp"
0000021b 7263652f5377 
00000221 634170706c54 
00000227 706d732f4465 
0000022d 7643616e4861 
00000233 6e646c696e67 
00000239 2e68707000 
0000023e 000000         2566 	.byte	0,0,0
00000241 2e2e2f736f75   2567 	.strz	"../source/SwcApplTpms/global.hpp"
00000247 7263652f5377 
0000024d 634170706c54 
00000253 706d732f676c 
00000259 6f62616c2e68 
0000025f 707000 
00000262 000000         2568 	.byte	0,0,0
00000265 2e2e2f736f75   2569 	.strz	"../source/SwcApplTpms/WallocX.hpp"
0000026b 7263652f5377 
00000271 634170706c54 
00000277 706d732f5761 
0000027d 6c6c6f63582e 
00000283 68707000 
00000287 000000         2570 	.byte	0,0,0
0000028a 2e2e2f736f75   2571 	.strz	"../source/ProjectCfg/SwcApplTpms_NvM_If.hpp"
00000290 7263652f5072 
00000296 6f6a65637443 
0000029c 66672f537763 
000002a2 4170706c5470 
000002a8 6d735f4e764d 
000002ae 5f49662e6870 
000002b4 7000 
000002b6 000000         2572 	.byte	0,0,0
000002b9 2e2e2f736f75   2573 	.strz	"../source/SwcApplTpms/USCS.hpp"
000002bf 7263652f5377 
000002c5 634170706c54 
000002cb 706d732f5553 
000002d1 43532e687070 
000002d7 00 
000002d8 000000         2574 	.byte	0,0,0
000002db 00             2575 	.byte	0
                        2576 .Ldw_lpro_end:
                        2577 	.section	.debug_macinfo
                        2578 .Ldw_macinfo_begin:
                        2579 	.section	.debug_frame
                        2580 .LDW_4c03450:
00000000 00000000*      2581 	.word	.LDW_unq_2-.LDW_unq_1
                        2582 .LDW_unq_1:
00000004 ffffffff       2583 	.byte	255,255,255,255
00000008 01             2584 	.byte	1
00000009 00             2585 	.byte	0
0000000a 01             2586 	.byte	1
0000000b 01             2587 	.byte	1

                                                                      Page 53
                                                              C:\Users\nhuliyap\AppData\Local\Temp\gh_00006601.s
0000000c 1f             2588 	.byte	31
0000000d 0c             2589 	.byte	12
0000000e 03             2590 	.byte	3
0000000f 00             2591 	.byte	0
00000010 07             2592 	.byte	7
00000011 00             2593 	.byte	0
00000012 07             2594 	.byte	7
00000013 01             2595 	.byte	1
00000014 07             2596 	.byte	7
00000015 02             2597 	.byte	2
00000016 07             2598 	.byte	7
00000017 03             2599 	.byte	3
00000018 07             2600 	.byte	7
00000019 04             2601 	.byte	4
0000001a 07             2602 	.byte	7
0000001b 05             2603 	.byte	5
0000001c 07             2604 	.byte	7
0000001d 06             2605 	.byte	6
0000001e 07             2606 	.byte	7
0000001f 07             2607 	.byte	7
00000020 07             2608 	.byte	7
00000021 08             2609 	.byte	8
00000022 07             2610 	.byte	7
00000023 09             2611 	.byte	9
00000024 07             2612 	.byte	7
00000025 0a             2613 	.byte	10
00000026 07             2614 	.byte	7
00000027 0b             2615 	.byte	11
00000028 07             2616 	.byte	7
00000029 0c             2617 	.byte	12
0000002a 07             2618 	.byte	7
0000002b 0d             2619 	.byte	13
0000002c 07             2620 	.byte	7
0000002d 0e             2621 	.byte	14
0000002e 07             2622 	.byte	7
0000002f 0f             2623 	.byte	15
00000030 07             2624 	.byte	7
00000031 10             2625 	.byte	16
00000032 07             2626 	.byte	7
00000033 11             2627 	.byte	17
00000034 07             2628 	.byte	7
00000035 12             2629 	.byte	18
00000036 07             2630 	.byte	7
00000037 13             2631 	.byte	19
00000038 08             2632 	.byte	8
00000039 14             2633 	.byte	20
0000003a 08             2634 	.byte	8
0000003b 15             2635 	.byte	21
0000003c 08             2636 	.byte	8
0000003d 16             2637 	.byte	22
0000003e 08             2638 	.byte	8
0000003f 17             2639 	.byte	23
00000040 08             2640 	.byte	8
00000041 18             2641 	.byte	24
00000042 08             2642 	.byte	8
00000043 19             2643 	.byte	25
00000044 08             2644 	.byte	8
00000045 1a             2645 	.byte	26
00000046 08             2646 	.byte	8
00000047 1b             2647 	.byte	27
00000048 08             2648 	.byte	8

                                                                      Page 54
                                                              C:\Users\nhuliyap\AppData\Local\Temp\gh_00006601.s
00000049 1c             2649 	.byte	28
0000004a 08             2650 	.byte	8
0000004b 1d             2651 	.byte	29
0000004c 07             2652 	.byte	7
0000004d 1e             2653 	.byte	30
0000004e 08             2654 	.byte	8
0000004f 1f             2655 	.byte	31
00000050 07             2656 	.byte	7
00000051 20             2657 	.byte	32
00000052 07             2658 	.byte	7
00000053 21             2659 	.byte	33
00000054 07             2660 	.byte	7
00000055 22             2661 	.byte	34
00000056 07             2662 	.byte	7
00000057 23             2663 	.byte	35
00000058 07             2664 	.byte	7
00000059 24             2665 	.byte	36
0000005a 07             2666 	.byte	7
0000005b 25             2667 	.byte	37
0000005c 07             2668 	.byte	7
0000005d 26             2669 	.byte	38
0000005e 07             2670 	.byte	7
0000005f 27             2671 	.byte	39
00000060 07             2672 	.byte	7
00000061 28             2673 	.byte	40
00000062 07             2674 	.byte	7
00000063 29             2675 	.byte	41
00000064 07             2676 	.byte	7
00000065 2a             2677 	.byte	42
00000066 07             2678 	.byte	7
00000067 2b             2679 	.byte	43
00000068 07             2680 	.byte	7
00000069 2c             2681 	.byte	44
0000006a 07             2682 	.byte	7
0000006b 2d             2683 	.byte	45
0000006c 07             2684 	.byte	7
0000006d 2e             2685 	.byte	46
0000006e 07             2686 	.byte	7
0000006f 2f             2687 	.byte	47
00000070 07             2688 	.byte	7
00000071 30             2689 	.byte	48
00000072 07             2690 	.byte	7
00000073 31             2691 	.byte	49
00000074 07             2692 	.byte	7
00000075 32             2693 	.byte	50
00000076 07             2694 	.byte	7
00000077 33             2695 	.byte	51
00000078 07             2696 	.byte	7
00000079 34             2697 	.byte	52
0000007a 07             2698 	.byte	7
0000007b 35             2699 	.byte	53
0000007c 07             2700 	.byte	7
0000007d 36             2701 	.byte	54
0000007e 07             2702 	.byte	7
0000007f 37             2703 	.byte	55
00000080 07             2704 	.byte	7
00000081 38             2705 	.byte	56
00000082 07             2706 	.byte	7
00000083 39             2707 	.byte	57
00000084 07             2708 	.byte	7
00000085 3a             2709 	.byte	58

                                                                      Page 55
                                                              C:\Users\nhuliyap\AppData\Local\Temp\gh_00006601.s
00000086 07             2710 	.byte	7
00000087 3b             2711 	.byte	59
00000088 07             2712 	.byte	7
00000089 3c             2713 	.byte	60
0000008a 07             2714 	.byte	7
0000008b 3d             2715 	.byte	61
0000008c 07             2716 	.byte	7
0000008d 3e             2717 	.byte	62
0000008e 07             2718 	.byte	7
0000008f 3f             2719 	.byte	63
                        2720 .LDW_unq_2:
                        2721 	.section	.debug_info
                        2722 .LDW_28670b0:
000000ac 25             2723 	.byte	37
000000ad 756e7369676e   2724 	.strz	"unsigned char"
000000b3 656420636861 
000000b9 7200 
000000bb 08             2725 	.byte	8
000000bc 01             2726 	.byte	1
                        2727 
                        2728 	.section	.debug_abbrev
00000017 25             2729 	.byte	37
00000018 24             2730 	.byte	36
00000019 00             2731 	.byte	0
0000001a 0308           2732 	.byte	3,8
0000001c 3e0b           2733 	.byte	62,11
0000001e 0b0b           2734 	.byte	11,11
00000020 0000           2735 	.byte	0,0
                        2736 
                        2737 	.section	.debug_info
                        2738 .LDW_2866dd8:
000000bd 45             2739 	.byte	69
000000be 01             2740 	.byte	1
                        2741 
                        2742 	.section	.debug_abbrev
00000022 45             2743 	.byte	69
00000023 15             2744 	.byte	21
00000024 01             2745 	.byte	1
00000025 270c           2746 	.byte	39,12
00000027 0000           2747 	.byte	0,0
                        2748 
                        2749 	.section	.debug_info
                        2750 .LDW_28ae748:
000000bf 12             2751 	.byte	18
000000c0 00000000*      2752 	.word	.LDW_28a9ed8
000000c4 00             2753 	.byte	0
                        2754 
                        2755 	.section	.debug_abbrev
00000029 12             2756 	.byte	18
0000002a 05             2757 	.byte	5
0000002b 00             2758 	.byte	0
0000002c 4910           2759 	.byte	73,16
0000002e 4b0c           2760 	.byte	75,12
00000030 0000           2761 	.byte	0,0
                        2762 
                        2763 	.section	.debug_info
000000c5 00             2764 	.byte	0
                        2765 
                        2766 .LDW_2867120:
000000c6 45             2767 	.byte	69
000000c7 01             2768 	.byte	1

                                                                      Page 56
                                                              C:\Users\nhuliyap\AppData\Local\Temp\gh_00006601.s
                        2769 
                        2770 .LDW_28ae778:
000000c8 12             2771 	.byte	18
000000c9 00000000*      2772 	.word	.LDW_28a9ed8
000000cd 00             2773 	.byte	0
                        2774 
000000ce 00             2775 	.byte	0
                        2776 
                        2777 .LDW_2866e48:
000000cf 45             2778 	.byte	69
000000d0 01             2779 	.byte	1
                        2780 
                        2781 .LDW_28ae3e8:
000000d1 12             2782 	.byte	18
000000d2 00000000*      2783 	.word	.LDW_28a9ed8
000000d6 00             2784 	.byte	0
                        2785 
000000d7 00             2786 	.byte	0
                        2787 
                        2788 .LDW_2866f98:
000000d8 45             2789 	.byte	69
000000d9 01             2790 	.byte	1
                        2791 
                        2792 .LDW_28ae6b8:
000000da 12             2793 	.byte	18
000000db 00000000*      2794 	.word	.LDW_28a9ed8
000000df 00             2795 	.byte	0
                        2796 
000000e0 00             2797 	.byte	0
                        2798 
                        2799 .LDW_2866f60:
000000e1 45             2800 	.byte	69
000000e2 01             2801 	.byte	1
                        2802 
                        2803 .LDW_28ae808:
000000e3 12             2804 	.byte	18
000000e4 00000000*      2805 	.word	.LDW_28a9ed8
000000e8 00             2806 	.byte	0
                        2807 
000000e9 00             2808 	.byte	0
                        2809 
                        2810 .LDW_2867008:
000000ea 45             2811 	.byte	69
000000eb 01             2812 	.byte	1
                        2813 
                        2814 .LDW_28ae5f8:
000000ec 12             2815 	.byte	18
000000ed 00000000*      2816 	.word	.LDW_28a9ed8
000000f1 00             2817 	.byte	0
                        2818 
000000f2 00             2819 	.byte	0
                        2820 
                        2821 .LDW_2867238:
000000f3 45             2822 	.byte	69
000000f4 01             2823 	.byte	1
                        2824 
                        2825 .LDW_28ae8c8:
000000f5 12             2826 	.byte	18
000000f6 00000000*      2827 	.word	.LDW_28a9ed8
000000fa 00             2828 	.byte	0
                        2829 

                                                                      Page 57
                                                              C:\Users\nhuliyap\AppData\Local\Temp\gh_00006601.s
000000fb 00             2830 	.byte	0
                        2831 
                        2832 .LDW_28670e8:
000000fc 45             2833 	.byte	69
000000fd 01             2834 	.byte	1
                        2835 
                        2836 .LDW_28ae5c8:
000000fe 12             2837 	.byte	18
000000ff 00000000*      2838 	.word	.LDW_28a9ed8
00000103 00             2839 	.byte	0
                        2840 
00000104 00             2841 	.byte	0
                        2842 
                        2843 .LDW_2866e80:
00000105 45             2844 	.byte	69
00000106 01             2845 	.byte	1
                        2846 
                        2847 .LDW_28ae418:
00000107 12             2848 	.byte	18
00000108 00000000*      2849 	.word	.LDW_28a9ed8
0000010c 00             2850 	.byte	0
                        2851 
0000010d 00             2852 	.byte	0
                        2853 
                        2854 .LDW_2867158:
0000010e 45             2855 	.byte	69
0000010f 01             2856 	.byte	1
                        2857 
                        2858 .LDW_28ae898:
00000110 12             2859 	.byte	18
00000111 00000000*      2860 	.word	.LDW_28a9ed8
00000115 00             2861 	.byte	0
                        2862 
00000116 00             2863 	.byte	0
                        2864 
                        2865 .LDW_2866fd0:
00000117 45             2866 	.byte	69
00000118 01             2867 	.byte	1
                        2868 
                        2869 .LDW_28ae508:
00000119 12             2870 	.byte	18
0000011a 00000000*      2871 	.word	.LDW_28a9ed8
0000011e 00             2872 	.byte	0
                        2873 
0000011f 00             2874 	.byte	0
                        2875 
                        2876 .LDW_2867040:
00000120 45             2877 	.byte	69
00000121 01             2878 	.byte	1
                        2879 
                        2880 .LDW_28ae628:
00000122 12             2881 	.byte	18
00000123 00000000*      2882 	.word	.LDW_28a9ed8
00000127 00             2883 	.byte	0
                        2884 
00000128 00             2885 	.byte	0
                        2886 
                        2887 .LDW_2867190:
00000129 45             2888 	.byte	69
0000012a 01             2889 	.byte	1
                        2890 

                                                                      Page 58
                                                              C:\Users\nhuliyap\AppData\Local\Temp\gh_00006601.s
                        2891 .LDW_28aea78:
0000012b 12             2892 	.byte	18
0000012c 00000000*      2893 	.word	.LDW_28a9ed8
00000130 00             2894 	.byte	0
                        2895 
00000131 00             2896 	.byte	0
                        2897 
                        2898 .LDW_28674a0:
00000132 45             2899 	.byte	69
00000133 01             2900 	.byte	1
                        2901 
                        2902 .LDW_28aeaa8:
00000134 12             2903 	.byte	18
00000135 00000000*      2904 	.word	.LDW_28a9ed8
00000139 00             2905 	.byte	0
                        2906 
0000013a 00             2907 	.byte	0
                        2908 
                        2909 .LDW_28674d8:
0000013b 45             2910 	.byte	69
0000013c 01             2911 	.byte	1
                        2912 
                        2913 .LDW_28ae9e8:
0000013d 12             2914 	.byte	18
0000013e 00000000*      2915 	.word	.LDW_28a9ed8
00000142 00             2916 	.byte	0
                        2917 
00000143 00             2918 	.byte	0
                        2919 
                        2920 .LDW_2867468:
00000144 45             2921 	.byte	69
00000145 01             2922 	.byte	1
                        2923 
                        2924 .LDW_28aeb68:
00000146 12             2925 	.byte	18
00000147 00000000*      2926 	.word	.LDW_28a9ed8
0000014b 00             2927 	.byte	0
                        2928 
0000014c 00             2929 	.byte	0
                        2930 
                        2931 .LDW_4c38db0:
0000014d 45             2932 	.byte	69
0000014e 01             2933 	.byte	1
                        2934 
                        2935 .LDW_4c39368:
0000014f 12             2936 	.byte	18
00000150 00000000*      2937 	.word	.LDW_28a9ed8
00000154 00             2938 	.byte	0
                        2939 
00000155 00             2940 	.byte	0
                        2941 
                        2942 .LDW_4c38d78:
00000156 45             2943 	.byte	69
00000157 01             2944 	.byte	1
                        2945 
                        2946 .LDW_4c391e8:
00000158 12             2947 	.byte	18
00000159 00000000*      2948 	.word	.LDW_28a9ed8
0000015d 00             2949 	.byte	0
                        2950 
0000015e 00             2951 	.byte	0

                                                                      Page 59
                                                              C:\Users\nhuliyap\AppData\Local\Temp\gh_00006601.s
                        2952 
                        2953 .LDW_4c38ad8:
0000015f 45             2954 	.byte	69
00000160 01             2955 	.byte	1
                        2956 
                        2957 .LDW_4c39428:
00000161 12             2958 	.byte	18
00000162 00000000*      2959 	.word	.LDW_28a9ed8
00000166 00             2960 	.byte	0
                        2961 
00000167 00             2962 	.byte	0
                        2963 
                        2964 .LDW_4c38988:
00000168 45             2965 	.byte	69
00000169 01             2966 	.byte	1
                        2967 
                        2968 .LDW_4c39158:
0000016a 12             2969 	.byte	18
0000016b 00000000*      2970 	.word	.LDW_28a9ed8
0000016f 00             2971 	.byte	0
                        2972 
00000170 00             2973 	.byte	0
                        2974 
                        2975 .LDW_4c38918:
00000171 45             2976 	.byte	69
00000172 01             2977 	.byte	1
                        2978 
                        2979 .LDW_4c39098:
00000173 12             2980 	.byte	18
00000174 00000000*      2981 	.word	.LDW_28a9ed8
00000178 00             2982 	.byte	0
                        2983 
00000179 00             2984 	.byte	0
                        2985 
                        2986 .LDW_4c38de8:
0000017a 45             2987 	.byte	69
0000017b 01             2988 	.byte	1
                        2989 
                        2990 .LDW_4c39458:
0000017c 12             2991 	.byte	18
0000017d 00000000*      2992 	.word	.LDW_28a9ed8
00000181 00             2993 	.byte	0
                        2994 
00000182 00             2995 	.byte	0
                        2996 
                        2997 .LDW_4c38e20:
00000183 45             2998 	.byte	69
00000184 01             2999 	.byte	1
                        3000 
                        3001 .LDW_4c39068:
00000185 12             3002 	.byte	18
00000186 00000000*      3003 	.word	.LDW_28a9ed8
0000018a 00             3004 	.byte	0
                        3005 
0000018b 00             3006 	.byte	0
                        3007 
                        3008 .LDW_4c389c0:
0000018c 45             3009 	.byte	69
0000018d 01             3010 	.byte	1
                        3011 
0000018e 00             3012 	.byte	0

                                                                      Page 60
                                                              C:\Users\nhuliyap\AppData\Local\Temp\gh_00006601.s
                        3013 
                        3014 .LDW_4c38d08:
0000018f 45             3015 	.byte	69
00000190 01             3016 	.byte	1
                        3017 
00000191 00             3018 	.byte	0
                        3019 
                        3020 .LDW_4c38838:
00000192 45             3021 	.byte	69
00000193 01             3022 	.byte	1
                        3023 
00000194 00             3024 	.byte	0
                        3025 
                        3026 .LDW_4c38b80:
00000195 45             3027 	.byte	69
00000196 01             3028 	.byte	1
                        3029 
00000197 00             3030 	.byte	0
                        3031 
                        3032 .LDW_4c38a30:
00000198 44             3033 	.byte	68
00000199 00000000*      3034 	.word	.LDW_28a9ed8
0000019d 01             3035 	.byte	1
                        3036 
                        3037 	.section	.debug_abbrev
00000032 44             3038 	.byte	68
00000033 15             3039 	.byte	21
00000034 01             3040 	.byte	1
00000035 4910           3041 	.byte	73,16
00000037 270c           3042 	.byte	39,12
00000039 0000           3043 	.byte	0,0
                        3044 
                        3045 	.section	.debug_info
0000019e 00             3046 	.byte	0
                        3047 
                        3048 .LDW_4c38950:
0000019f 44             3049 	.byte	68
000001a0 00000000*      3050 	.word	.LDW_28ac5a8
000001a4 01             3051 	.byte	1
                        3052 
000001a5 00             3053 	.byte	0
                        3054 
                        3055 .LDW_4c38800:
000001a6 44             3056 	.byte	68
000001a7 00000000*      3057 	.word	.LDW_28a9ed8
000001ab 01             3058 	.byte	1
                        3059 
000001ac 00             3060 	.byte	0
                        3061 
                        3062 .LDW_4c38d40:
000001ad 45             3063 	.byte	69
000001ae 01             3064 	.byte	1
                        3065 
                        3066 .LDW_4c39278:
000001af 12             3067 	.byte	18
000001b0 00000000*      3068 	.word	.LDW_28a9ed8
000001b4 00             3069 	.byte	0
                        3070 
000001b5 00             3071 	.byte	0
                        3072 
                        3073 .LDW_4c38870:

                                                                      Page 61
                                                              C:\Users\nhuliyap\AppData\Local\Temp\gh_00006601.s
000001b6 45             3074 	.byte	69
000001b7 01             3075 	.byte	1
                        3076 
                        3077 .LDW_4c390c8:
000001b8 12             3078 	.byte	18
000001b9 00000000*      3079 	.word	.LDW_28a9ed8
000001bd 00             3080 	.byte	0
                        3081 
000001be 00             3082 	.byte	0
                        3083 
                        3084 .LDW_4c38cd0:
000001bf 45             3085 	.byte	69
000001c0 01             3086 	.byte	1
                        3087 
000001c1 00             3088 	.byte	0
                        3089 
                        3090 .LDW_4c38c98:
000001c2 25             3091 	.byte	37
000001c3 756e7369676e   3092 	.strz	"unsigned short"
000001c9 65642073686f 
000001cf 727400 
000001d2 07             3093 	.byte	7
000001d3 02             3094 	.byte	2
                        3095 
                        3096 .LDW_4c38c28:
000001d4 45             3097 	.byte	69
000001d5 01             3098 	.byte	1
                        3099 
                        3100 .LDW_4c39308:
000001d6 12             3101 	.byte	18
000001d7 00000000*      3102 	.word	.LDW_28ac600
000001db 00             3103 	.byte	0
                        3104 
000001dc 00             3105 	.byte	0
                        3106 
                        3107 .LDW_4c38c60:
000001dd 45             3108 	.byte	69
000001de 01             3109 	.byte	1
                        3110 
                        3111 .LDW_4c391b8:
000001df 12             3112 	.byte	18
000001e0 00000000*      3113 	.word	.LDW_28ac600
000001e4 00             3114 	.byte	0
                        3115 
000001e5 00             3116 	.byte	0
                        3117 
                        3118 .LDW_4c38bf0:
000001e6 2f             3119 	.byte	47
000001e7 00000000*      3120 	.word	.LDW_28ac600
                        3121 
                        3122 	.section	.debug_abbrev
0000003b 2f             3123 	.byte	47
0000003c 0f             3124 	.byte	15
0000003d 00             3125 	.byte	0
0000003e 4910           3126 	.byte	73,16
00000040 0000           3127 	.byte	0,0
                        3128 
                        3129 	.section	.debug_info
                        3130 .LDW_4c38bb8:
000001eb 45             3131 	.byte	69
000001ec 01             3132 	.byte	1

                                                                      Page 62
                                                              C:\Users\nhuliyap\AppData\Local\Temp\gh_00006601.s
                        3133 
                        3134 .LDW_4c39518:
000001ed 12             3135 	.byte	18
000001ee 00000000*      3136 	.word	.LDW_4c38bf0
000001f2 00             3137 	.byte	0
                        3138 
000001f3 00             3139 	.byte	0
                        3140 
                        3141 .LDW_4c38b10:
000001f4 44             3142 	.byte	68
000001f5 00000000*      3143 	.word	.LDW_28ac5a8
000001f9 01             3144 	.byte	1
                        3145 
                        3146 .LDW_4c39788:
000001fa 12             3147 	.byte	18
000001fb 00000000*      3148 	.word	.LDW_4c38bf0
000001ff 00             3149 	.byte	0
                        3150 
00000200 00             3151 	.byte	0
                        3152 
                        3153 .LDW_4c389f8:
00000201 45             3154 	.byte	69
00000202 01             3155 	.byte	1
                        3156 
                        3157 .LDW_4c39758:
00000203 12             3158 	.byte	18
00000204 00000000*      3159 	.word	.LDW_4c38bf0
00000208 00             3160 	.byte	0
                        3161 
00000209 00             3162 	.byte	0
                        3163 
                        3164 .LDW_4c38e58:
0000020a 25             3165 	.byte	37
0000020b 7369676e6564   3166 	.strz	"signed char"
00000211 206368617200 
00000217 06             3167 	.byte	6
00000218 01             3168 	.byte	1
                        3169 
                        3170 .LDW_4c388a8:
00000219 25             3171 	.byte	37
0000021a 756e7369676e   3172 	.strz	"unsigned int"
00000220 656420696e74 
00000226 00 
00000227 07             3173 	.byte	7
00000228 04             3174 	.byte	4
                        3175 
                        3176 .LDW_4c3def8:
00000229 25             3177 	.byte	37
0000022a 696e7400       3178 	.strz	"int"
0000022e 05             3179 	.byte	5
0000022f 04             3180 	.byte	4
                        3181 
                        3182 .LDW_4c3d8d8:
00000230 2f             3183 	.byte	47
00000231 00000000*      3184 	.word	.LDW_28a9ed8
                        3185 
                        3186 .LDW_4c40238:
00000235 3a             3187 	.byte	58
00000236 00             3188 	.byte	0
00000237 03             3189 	.byte	3
00000238 00000000*      3190 	.word	.LDW_28a9ed8

                                                                      Page 63
                                                              C:\Users\nhuliyap\AppData\Local\Temp\gh_00006601.s
                        3191 
                        3192 	.section	.debug_abbrev
00000042 3a             3193 	.byte	58
00000043 01             3194 	.byte	1
00000044 01             3195 	.byte	1
00000045 090b           3196 	.byte	9,11
00000047 0b0f           3197 	.byte	11,15
00000049 4910           3198 	.byte	73,16
0000004b 0000           3199 	.byte	0,0
                        3200 
                        3201 	.section	.debug_info
0000023c 32             3202 	.byte	50
0000023d 00000000*      3203 	.word	.LDW_4c3def8
00000241 04             3204 	.byte	4
00000242 00             3205 	.byte	0
00000243 02             3206 	.byte	2
                        3207 
                        3208 	.section	.debug_abbrev
0000004d 32             3209 	.byte	50
0000004e 21             3210 	.byte	33
0000004f 00             3211 	.byte	0
00000050 4910           3212 	.byte	73,16
00000052 0b0f           3213 	.byte	11,15
00000054 220d           3214 	.byte	34,13
00000056 2f0d           3215 	.byte	47,13
00000058 0000           3216 	.byte	0,0
                        3217 
                        3218 	.section	.debug_info
00000244 00             3219 	.byte	0
                        3220 
                        3221 .LDW_4c402c0:
00000245 3a             3222 	.byte	58
00000246 00             3223 	.byte	0
00000247 04             3224 	.byte	4
00000248 00000000*      3225 	.word	.LDW_28a9ed8
                        3226 
0000024c 32             3227 	.byte	50
0000024d 00000000*      3228 	.word	.LDW_4c3def8
00000251 04             3229 	.byte	4
00000252 00             3230 	.byte	0
00000253 03             3231 	.byte	3
                        3232 
00000254 00             3233 	.byte	0
                        3234 
                        3235 .LDW_4c40348:
00000255 3a             3236 	.byte	58
00000256 00             3237 	.byte	0
00000257 03             3238 	.byte	3
00000258 00000000*      3239 	.word	.LDW_28a9ed8
                        3240 
0000025c 32             3241 	.byte	50
0000025d 00000000*      3242 	.word	.LDW_4c3def8
00000261 04             3243 	.byte	4
00000262 00             3244 	.byte	0
00000263 02             3245 	.byte	2
                        3246 
00000264 00             3247 	.byte	0
                        3248 
                        3249 .LDW_4c403d0:
00000265 3a             3250 	.byte	58
00000266 00             3251 	.byte	0

                                                                      Page 64
                                                              C:\Users\nhuliyap\AppData\Local\Temp\gh_00006601.s
00000267 03             3252 	.byte	3
00000268 00000000*      3253 	.word	.LDW_28a9ed8
                        3254 
0000026c 32             3255 	.byte	50
0000026d 00000000*      3256 	.word	.LDW_4c3def8
00000271 04             3257 	.byte	4
00000272 00             3258 	.byte	0
00000273 02             3259 	.byte	2
                        3260 
00000274 00             3261 	.byte	0
                        3262 
                        3263 .LDW_4c40458:
00000275 3a             3264 	.byte	58
00000276 00             3265 	.byte	0
00000277 07             3266 	.byte	7
00000278 00000000*      3267 	.word	.LDW_28a9ed8
                        3268 
0000027c 32             3269 	.byte	50
0000027d 00000000*      3270 	.word	.LDW_4c3def8
00000281 04             3271 	.byte	4
00000282 00             3272 	.byte	0
00000283 06             3273 	.byte	6
                        3274 
00000284 00             3275 	.byte	0
                        3276 
                        3277 .LDW_4c404e0:
00000285 3a             3278 	.byte	58
00000286 00             3279 	.byte	0
00000287 04             3280 	.byte	4
00000288 00000000*      3281 	.word	.LDW_28a9ed8
                        3282 
0000028c 32             3283 	.byte	50
0000028d 00000000*      3284 	.word	.LDW_4c3def8
00000291 04             3285 	.byte	4
00000292 00             3286 	.byte	0
00000293 03             3287 	.byte	3
                        3288 
00000294 00             3289 	.byte	0
                        3290 
                        3291 .LDW_4c40b68:
00000295 3a             3292 	.byte	58
00000296 00             3293 	.byte	0
00000297 03             3294 	.byte	3
00000298 00000000*      3295 	.word	.LDW_28a9ed8
                        3296 
0000029c 32             3297 	.byte	50
0000029d 00000000*      3298 	.word	.LDW_4c3def8
000002a1 04             3299 	.byte	4
000002a2 00             3300 	.byte	0
000002a3 02             3301 	.byte	2
                        3302 
000002a4 00             3303 	.byte	0
                        3304 
                        3305 .LDW_4c40590:
000002a5 3a             3306 	.byte	58
000002a6 00             3307 	.byte	0
000002a7 02             3308 	.byte	2
000002a8 00000000*      3309 	.word	.LDW_28a9ed8
                        3310 
000002ac 32             3311 	.byte	50
000002ad 00000000*      3312 	.word	.LDW_4c3def8

                                                                      Page 65
                                                              C:\Users\nhuliyap\AppData\Local\Temp\gh_00006601.s
000002b1 04             3313 	.byte	4
000002b2 00             3314 	.byte	0
000002b3 01             3315 	.byte	1
                        3316 
000002b4 00             3317 	.byte	0
                        3318 
                        3319 .LDW_4c412d8:
000002b5 3a             3320 	.byte	58
000002b6 00             3321 	.byte	0
000002b7 02             3322 	.byte	2
000002b8 00000000*      3323 	.word	.LDW_28a9ed8
                        3324 
000002bc 32             3325 	.byte	50
000002bd 00000000*      3326 	.word	.LDW_4c3def8
000002c1 04             3327 	.byte	4
000002c2 00             3328 	.byte	0
000002c3 01             3329 	.byte	1
                        3330 
000002c4 00             3331 	.byte	0
                        3332 
                        3333 .LDW_4c40618:
000002c5 3a             3334 	.byte	58
000002c6 00             3335 	.byte	0
000002c7 04             3336 	.byte	4
000002c8 00000000*      3337 	.word	.LDW_28a9ed8
                        3338 
000002cc 32             3339 	.byte	50
000002cd 00000000*      3340 	.word	.LDW_4c3def8
000002d1 04             3341 	.byte	4
000002d2 00             3342 	.byte	0
000002d3 03             3343 	.byte	3
                        3344 
000002d4 00             3345 	.byte	0
                        3346 
                        3347 .LDW_4c407b0:
000002d5 3a             3348 	.byte	58
000002d6 00             3349 	.byte	0
000002d7 04             3350 	.byte	4
000002d8 00000000*      3351 	.word	.LDW_28a9ed8
                        3352 
000002dc 32             3353 	.byte	50
000002dd 00000000*      3354 	.word	.LDW_4c3def8
000002e1 04             3355 	.byte	4
000002e2 00             3356 	.byte	0
000002e3 03             3357 	.byte	3
                        3358 
000002e4 00             3359 	.byte	0
                        3360 
                        3361 .LDW_4c406a0:
000002e5 3a             3362 	.byte	58
000002e6 00             3363 	.byte	0
000002e7 04             3364 	.byte	4
000002e8 00000000*      3365 	.word	.LDW_28a9ed8
                        3366 
000002ec 32             3367 	.byte	50
000002ed 00000000*      3368 	.word	.LDW_4c3def8
000002f1 04             3369 	.byte	4
000002f2 00             3370 	.byte	0
000002f3 03             3371 	.byte	3
                        3372 
000002f4 00             3373 	.byte	0

                                                                      Page 66
                                                              C:\Users\nhuliyap\AppData\Local\Temp\gh_00006601.s
                        3374 
                        3375 .LDW_4c41360:
000002f5 3a             3376 	.byte	58
000002f6 00             3377 	.byte	0
000002f7 04             3378 	.byte	4
000002f8 00000000*      3379 	.word	.LDW_28a9ed8
                        3380 
000002fc 32             3381 	.byte	50
000002fd 00000000*      3382 	.word	.LDW_4c3def8
00000301 04             3383 	.byte	4
00000302 00             3384 	.byte	0
00000303 03             3385 	.byte	3
                        3386 
00000304 00             3387 	.byte	0
                        3388 
                        3389 .LDW_4c40728:
00000305 3a             3390 	.byte	58
00000306 00             3391 	.byte	0
00000307 04             3392 	.byte	4
00000308 00000000*      3393 	.word	.LDW_28a9ed8
                        3394 
0000030c 32             3395 	.byte	50
0000030d 00000000*      3396 	.word	.LDW_4c3def8
00000311 04             3397 	.byte	4
00000312 00             3398 	.byte	0
00000313 03             3399 	.byte	3
                        3400 
00000314 00             3401 	.byte	0
                        3402 
                        3403 .LDW_4c40e10:
00000315 3a             3404 	.byte	58
00000316 00             3405 	.byte	0
00000317 04             3406 	.byte	4
00000318 00000000*      3407 	.word	.LDW_28a9ed8
                        3408 
0000031c 32             3409 	.byte	50
0000031d 00000000*      3410 	.word	.LDW_4c3def8
00000321 04             3411 	.byte	4
00000322 00             3412 	.byte	0
00000323 03             3413 	.byte	3
                        3414 
00000324 00             3415 	.byte	0
                        3416 
                        3417 .LDW_4c40fa8:
00000325 3a             3418 	.byte	58
00000326 00             3419 	.byte	0
00000327 04             3420 	.byte	4
00000328 00000000*      3421 	.word	.LDW_28a9ed8
                        3422 
0000032c 32             3423 	.byte	50
0000032d 00000000*      3424 	.word	.LDW_4c3def8
00000331 04             3425 	.byte	4
00000332 00             3426 	.byte	0
00000333 03             3427 	.byte	3
                        3428 
00000334 00             3429 	.byte	0
                        3430 
                        3431 .LDW_4c40838:
00000335 3a             3432 	.byte	58
00000336 00             3433 	.byte	0
00000337 04             3434 	.byte	4

                                                                      Page 67
                                                              C:\Users\nhuliyap\AppData\Local\Temp\gh_00006601.s
00000338 00000000*      3435 	.word	.LDW_28a9ed8
                        3436 
0000033c 32             3437 	.byte	50
0000033d 00000000*      3438 	.word	.LDW_4c3def8
00000341 04             3439 	.byte	4
00000342 00             3440 	.byte	0
00000343 03             3441 	.byte	3
                        3442 
00000344 00             3443 	.byte	0
                        3444 
                        3445 .LDW_4c41140:
00000345 3a             3446 	.byte	58
00000346 00             3447 	.byte	0
00000347 04             3448 	.byte	4
00000348 00000000*      3449 	.word	.LDW_28a9ed8
                        3450 
0000034c 32             3451 	.byte	50
0000034d 00000000*      3452 	.word	.LDW_4c3def8
00000351 04             3453 	.byte	4
00000352 00             3454 	.byte	0
00000353 03             3455 	.byte	3
                        3456 
00000354 00             3457 	.byte	0
                        3458 
                        3459 .LDW_4c40c78:
00000355 3a             3460 	.byte	58
00000356 00             3461 	.byte	0
00000357 08             3462 	.byte	8
00000358 00000000*      3463 	.word	.LDW_28a9ed8
                        3464 
0000035c 32             3465 	.byte	50
0000035d 00000000*      3466 	.word	.LDW_4c3def8
00000361 04             3467 	.byte	4
00000362 00             3468 	.byte	0
00000363 07             3469 	.byte	7
                        3470 
00000364 00             3471 	.byte	0
                        3472 
                        3473 .LDW_4c40bf0:
00000365 3a             3474 	.byte	58
00000366 00             3475 	.byte	0
00000367 04             3476 	.byte	4
00000368 00000000*      3477 	.word	.LDW_28a9ed8
                        3478 
0000036c 32             3479 	.byte	50
0000036d 00000000*      3480 	.word	.LDW_4c3def8
00000371 04             3481 	.byte	4
00000372 00             3482 	.byte	0
00000373 03             3483 	.byte	3
                        3484 
00000374 00             3485 	.byte	0
                        3486 
                        3487 .LDW_4c40f20:
00000375 3a             3488 	.byte	58
00000376 00             3489 	.byte	0
00000377 04             3490 	.byte	4
00000378 00000000*      3491 	.word	.LDW_28a9ed8
                        3492 
0000037c 32             3493 	.byte	50
0000037d 00000000*      3494 	.word	.LDW_4c3def8
00000381 04             3495 	.byte	4

                                                                      Page 68
                                                              C:\Users\nhuliyap\AppData\Local\Temp\gh_00006601.s
00000382 00             3496 	.byte	0
00000383 03             3497 	.byte	3
                        3498 
00000384 00             3499 	.byte	0
                        3500 
                        3501 .LDW_4c3d9f0:
00000385 45             3502 	.byte	69
00000386 01             3503 	.byte	1
                        3504 
                        3505 .LDW_4c397b8:
00000387 12             3506 	.byte	18
00000388 00000000*      3507 	.word	.LDW_28a9ed8
0000038c 00             3508 	.byte	0
                        3509 
0000038d 00             3510 	.byte	0
                        3511 
                        3512 .LDW_4c3dd70:
0000038e 2f             3513 	.byte	47
0000038f 00000000*      3514 	.word	.LDW_4c3d9f0
                        3515 
                        3516 .LDW_4c43768:
00000393 29             3517 	.byte	41
00000394 00000000*      3518 	.word	.LDW_4c43c38
                        3519 
                        3520 	.section	.debug_abbrev
0000005a 29             3521 	.byte	41
0000005b 26             3522 	.byte	38
0000005c 00             3523 	.byte	0
0000005d 4910           3524 	.byte	73,16
0000005f 0000           3525 	.byte	0,0
                        3526 
                        3527 	.section	.debug_info
                        3528 .LDW_4c40d00:
00000398 3a             3529 	.byte	58
00000399 00             3530 	.byte	0
0000039a c00f           3531 	.byte	192,15
0000039c 00000000*      3532 	.word	.LDW_28ac600
                        3533 
000003a0 32             3534 	.byte	50
000003a1 00000000*      3535 	.word	.LDW_4c3def8
000003a5 04             3536 	.byte	4
000003a6 00             3537 	.byte	0
000003a7 f701           3538 	.byte	247,1
                        3539 
000003a9 00             3540 	.byte	0
                        3541 
                        3542 .LDW_4c41250:
000003aa 3a             3543 	.byte	58
000003ab 00             3544 	.byte	0
000003ac 78             3545 	.byte	120
000003ad 00000000*      3546 	.word	.LDW_28ac600
                        3547 
000003b1 32             3548 	.byte	50
000003b2 00000000*      3549 	.word	.LDW_4c3def8
000003b6 04             3550 	.byte	4
000003b7 00             3551 	.byte	0
000003b8 0e             3552 	.byte	14
                        3553 
000003b9 00             3554 	.byte	0
                        3555 
                        3556 .LDW_4c46c50:

                                                                      Page 69
                                                              C:\Users\nhuliyap\AppData\Local\Temp\gh_00006601.s
000003ba 29             3557 	.byte	41
000003bb 00000000*      3558 	.word	.LDW_4c43d98
                        3559 
                        3560 .LDW_4c40d88:
000003bf 3a             3561 	.byte	58
000003c0 00             3562 	.byte	0
000003c1 40             3563 	.byte	64
000003c2 00000000*      3564 	.word	.LDW_4c46c50
                        3565 
000003c6 32             3566 	.byte	50
000003c7 00000000*      3567 	.word	.LDW_4c3def8
000003cb 04             3568 	.byte	4
000003cc 00             3569 	.byte	0
000003cd 07             3570 	.byte	7
                        3571 
000003ce 00             3572 	.byte	0
                        3573 
                        3574 .LDW_4c40e98:
000003cf 3a             3575 	.byte	58
000003d0 00             3576 	.byte	0
000003d1 78             3577 	.byte	120
000003d2 00000000*      3578 	.word	.LDW_4c46c50
                        3579 
000003d6 32             3580 	.byte	50
000003d7 00000000*      3581 	.word	.LDW_4c3def8
000003db 04             3582 	.byte	4
000003dc 00             3583 	.byte	0
000003dd 0e             3584 	.byte	14
                        3585 
000003de 00             3586 	.byte	0
                        3587 
                        3588 .LDW_4c41030:
000003df 3a             3589 	.byte	58
000003e0 00             3590 	.byte	0
000003e1 40             3591 	.byte	64
000003e2 00000000*      3592 	.word	.LDW_28ac600
                        3593 
000003e6 32             3594 	.byte	50
000003e7 00000000*      3595 	.word	.LDW_4c3def8
000003eb 04             3596 	.byte	4
000003ec 00             3597 	.byte	0
000003ed 07             3598 	.byte	7
                        3599 
000003ee 00             3600 	.byte	0
                        3601 
                        3602 .LDW_4c49390:
000003ef 3a             3603 	.byte	58
000003f0 00             3604 	.byte	0
000003f1 78             3605 	.byte	120
000003f2 00000000*      3606 	.word	.LDW_28ac600
                        3607 
000003f6 32             3608 	.byte	50
000003f7 00000000*      3609 	.word	.LDW_4c3def8
000003fb 04             3610 	.byte	4
000003fc 00             3611 	.byte	0
000003fd 0e             3612 	.byte	14
                        3613 
000003fe 00             3614 	.byte	0
                        3615 
                        3616 .LDW_4c4b688:
000003ff 44             3617 	.byte	68

                                                                      Page 70
                                                              C:\Users\nhuliyap\AppData\Local\Temp\gh_00006601.s
00000400 00000000*      3618 	.word	.LDW_28a9ed8
00000404 01             3619 	.byte	1
                        3620 
00000405 00             3621 	.byte	0
                        3622 
                        3623 .LDW_4c4b8b8:
00000406 44             3624 	.byte	68
00000407 00000000*      3625 	.word	.LDW_28a9ed8
0000040b 01             3626 	.byte	1
                        3627 
0000040c 00             3628 	.byte	0
                        3629 
                        3630 .LDW_4c4bab0:
0000040d 44             3631 	.byte	68
0000040e 00000000*      3632 	.word	.LDW_28a9ed8
00000412 01             3633 	.byte	1
                        3634 
00000413 00             3635 	.byte	0
                        3636 
                        3637 .LDW_4c4bae8:
00000414 45             3638 	.byte	69
00000415 01             3639 	.byte	1
                        3640 
                        3641 .LDW_4c39cc8:
00000416 12             3642 	.byte	18
00000417 00000000*      3643 	.word	.LDW_28a9ed8
0000041b 00             3644 	.byte	0
                        3645 
                        3646 .LDW_4c4c7a8:
0000041c 12             3647 	.byte	18
0000041d 00000000*      3648 	.word	.LDW_4c3d8d8
00000421 00             3649 	.byte	0
                        3650 
00000422 00             3651 	.byte	0
                        3652 
                        3653 .LDW_4c4b880:
00000423 45             3654 	.byte	69
00000424 01             3655 	.byte	1
                        3656 
                        3657 .LDW_4c4c838:
00000425 12             3658 	.byte	18
00000426 00000000*      3659 	.word	.LDW_28a9ed8
0000042a 00             3660 	.byte	0
                        3661 
                        3662 .LDW_4c4c628:
0000042b 12             3663 	.byte	18
0000042c 00000000*      3664 	.word	.LDW_4c3d8d8
00000430 00             3665 	.byte	0
                        3666 
00000431 00             3667 	.byte	0
                        3668 
                        3669 .LDW_4c4bb20:
00000432 44             3670 	.byte	68
00000433 00000000*      3671 	.word	.LDW_28a9ed8
00000437 01             3672 	.byte	1
                        3673 
                        3674 .LDW_4c4c538:
00000438 12             3675 	.byte	18
00000439 00000000*      3676 	.word	.LDW_28a9ed8
0000043d 00             3677 	.byte	0
                        3678 

                                                                      Page 71
                                                              C:\Users\nhuliyap\AppData\Local\Temp\gh_00006601.s
0000043e 00             3679 	.byte	0
                        3680 
                        3681 .LDW_4c4ba40:
0000043f 44             3682 	.byte	68
00000440 00000000*      3683 	.word	.LDW_28a9ed8
00000444 01             3684 	.byte	1
                        3685 
00000445 00             3686 	.byte	0
                        3687 
                        3688 .LDW_4c4ba08:
00000446 44             3689 	.byte	68
00000447 00000000*      3690 	.word	.LDW_28a9ed8
0000044b 01             3691 	.byte	1
                        3692 
0000044c 00             3693 	.byte	0
                        3694 
                        3695 .LDW_4c4b8f0:
0000044d 44             3696 	.byte	68
0000044e 00000000*      3697 	.word	.LDW_28acbd8
00000452 01             3698 	.byte	1
                        3699 
00000453 00             3700 	.byte	0
                        3701 
                        3702 .LDW_4c4b6f8:
00000454 44             3703 	.byte	68
00000455 00000000*      3704 	.word	.LDW_28a9ed8
00000459 01             3705 	.byte	1
                        3706 
0000045a 00             3707 	.byte	0
                        3708 
                        3709 .LDW_4c4b810:
0000045b 45             3710 	.byte	69
0000045c 01             3711 	.byte	1
                        3712 
                        3713 .LDW_4c4c988:
0000045d 12             3714 	.byte	18
0000045e 00000000*      3715 	.word	.LDW_28a9ed8
00000462 00             3716 	.byte	0
                        3717 
                        3718 .LDW_4c4c478:
00000463 12             3719 	.byte	18
00000464 00000000*      3720 	.word	.LDW_4c3d8d8
00000468 00             3721 	.byte	0
                        3722 
00000469 00             3723 	.byte	0
                        3724 
                        3725 .LDW_4c4b998:
0000046a 45             3726 	.byte	69
0000046b 01             3727 	.byte	1
                        3728 
                        3729 .LDW_4c4c9b8:
0000046c 12             3730 	.byte	18
0000046d 00000000*      3731 	.word	.LDW_28a9ed8
00000471 00             3732 	.byte	0
                        3733 
                        3734 .LDW_4c4c868:
00000472 12             3735 	.byte	18
00000473 00000000*      3736 	.word	.LDW_4c3d8d8
00000477 00             3737 	.byte	0
                        3738 
00000478 00             3739 	.byte	0

                                                                      Page 72
                                                              C:\Users\nhuliyap\AppData\Local\Temp\gh_00006601.s
                        3740 
                        3741 .LDW_4c4b730:
00000479 44             3742 	.byte	68
0000047a 00000000*      3743 	.word	.LDW_28a9ed8
0000047e 01             3744 	.byte	1
                        3745 
                        3746 .LDW_4c4c6b8:
0000047f 12             3747 	.byte	18
00000480 00000000*      3748 	.word	.LDW_28a9ed8
00000484 00             3749 	.byte	0
                        3750 
00000485 00             3751 	.byte	0
                        3752 
                        3753 .LDW_4c4b6c0:
00000486 44             3754 	.byte	68
00000487 00000000*      3755 	.word	.LDW_28a9ed8
0000048b 01             3756 	.byte	1
                        3757 
                        3758 .LDW_4c4c8f8:
0000048c 12             3759 	.byte	18
0000048d 00000000*      3760 	.word	.LDW_28a9ed8
00000491 00             3761 	.byte	0
                        3762 
00000492 00             3763 	.byte	0
                        3764 
                        3765 .LDW_4c4bb90:
00000493 44             3766 	.byte	68
00000494 00000000*      3767 	.word	.LDW_28a9ed8
00000498 01             3768 	.byte	1
                        3769 
00000499 00             3770 	.byte	0
                        3771 
                        3772 .LDW_4c4b5e0:
0000049a 44             3773 	.byte	68
0000049b 00000000*      3774 	.word	.LDW_28a9ed8
0000049f 01             3775 	.byte	1
                        3776 
                        3777 .LDW_4c4c958:
000004a0 12             3778 	.byte	18
000004a1 00000000*      3779 	.word	.LDW_28a9ed8
000004a5 00             3780 	.byte	0
                        3781 
000004a6 00             3782 	.byte	0
                        3783 
                        3784 .LDW_4c4ba78:
000004a7 44             3785 	.byte	68
000004a8 00000000*      3786 	.word	.LDW_28a9ed8
000004ac 01             3787 	.byte	1
                        3788 
                        3789 .LDW_4c4c7d8:
000004ad 12             3790 	.byte	18
000004ae 00000000*      3791 	.word	.LDW_28a9ed8
000004b2 00             3792 	.byte	0
                        3793 
000004b3 00             3794 	.byte	0
                        3795 
                        3796 .LDW_4c4b618:
000004b4 44             3797 	.byte	68
000004b5 00000000*      3798 	.word	.LDW_28a9ed8
000004b9 01             3799 	.byte	1
                        3800 

                                                                      Page 73
                                                              C:\Users\nhuliyap\AppData\Local\Temp\gh_00006601.s
                        3801 .LDW_4c4c928:
000004ba 12             3802 	.byte	18
000004bb 00000000*      3803 	.word	.LDW_28a9ed8
000004bf 00             3804 	.byte	0
                        3805 
000004c0 00             3806 	.byte	0
                        3807 
                        3808 .LDW_4c4b650:
000004c1 44             3809 	.byte	68
000004c2 00000000*      3810 	.word	.LDW_28a9ed8
000004c6 01             3811 	.byte	1
                        3812 
                        3813 .LDW_4c4c658:
000004c7 12             3814 	.byte	18
000004c8 00000000*      3815 	.word	.LDW_28a9ed8
000004cc 00             3816 	.byte	0
                        3817 
000004cd 00             3818 	.byte	0
                        3819 
                        3820 .LDW_4c4b7a0:
000004ce 44             3821 	.byte	68
000004cf 00000000*      3822 	.word	.LDW_28a9ed8
000004d3 01             3823 	.byte	1
                        3824 
                        3825 .LDW_4c4c508:
000004d4 12             3826 	.byte	18
000004d5 00000000*      3827 	.word	.LDW_28a9ed8
000004d9 00             3828 	.byte	0
                        3829 
000004da 00             3830 	.byte	0
                        3831 
                        3832 .LDW_4c4b768:
000004db 44             3833 	.byte	68
000004dc 00000000*      3834 	.word	.LDW_28a9ed8
000004e0 01             3835 	.byte	1
                        3836 
000004e1 00             3837 	.byte	0
                        3838 
                        3839 .LDW_4c4b7d8:
000004e2 44             3840 	.byte	68
000004e3 00000000*      3841 	.word	.LDW_28a9ed8
000004e7 01             3842 	.byte	1
                        3843 
000004e8 00             3844 	.byte	0
                        3845 
                        3846 .LDW_4c4b848:
000004e9 44             3847 	.byte	68
000004ea 00000000*      3848 	.word	.LDW_28a9ed8
000004ee 01             3849 	.byte	1
                        3850 
000004ef 00             3851 	.byte	0
                        3852 
                        3853 .LDW_4c4b928:
000004f0 44             3854 	.byte	68
000004f1 00000000*      3855 	.word	.LDW_28a9ed8
000004f5 01             3856 	.byte	1
                        3857 
000004f6 00             3858 	.byte	0
                        3859 
                        3860 .LDW_4c4bd18:
000004f7 44             3861 	.byte	68

                                                                      Page 74
                                                              C:\Users\nhuliyap\AppData\Local\Temp\gh_00006601.s
000004f8 00000000*      3862 	.word	.LDW_28a9ed8
000004fc 01             3863 	.byte	1
                        3864 
000004fd 00             3865 	.byte	0
                        3866 
                        3867 .LDW_4c4bce0:
000004fe 44             3868 	.byte	68
000004ff 00000000*      3869 	.word	.LDW_28a9ed8
00000503 01             3870 	.byte	1
                        3871 
00000504 00             3872 	.byte	0
                        3873 
                        3874 .LDW_4c4bd50:
00000505 44             3875 	.byte	68
00000506 00000000*      3876 	.word	.LDW_28a9ed8
0000050a 01             3877 	.byte	1
                        3878 
0000050b 00             3879 	.byte	0
                        3880 
                        3881 .LDW_4c4d538:
0000050c 44             3882 	.byte	68
0000050d 00000000*      3883 	.word	.LDW_28a9ed8
00000511 01             3884 	.byte	1
                        3885 
00000512 00             3886 	.byte	0
                        3887 
                        3888 .LDW_4c4d810:
00000513 44             3889 	.byte	68
00000514 00000000*      3890 	.word	.LDW_28a9ed8
00000518 01             3891 	.byte	1
                        3892 
00000519 00             3893 	.byte	0
                        3894 
                        3895 .LDW_4c4d5e0:
0000051a 44             3896 	.byte	68
0000051b 00000000*      3897 	.word	.LDW_28a9ed8
0000051f 01             3898 	.byte	1
                        3899 
00000520 00             3900 	.byte	0
                        3901 
                        3902 .LDW_4c4d768:
00000521 44             3903 	.byte	68
00000522 00000000*      3904 	.word	.LDW_28a9ed8
00000526 01             3905 	.byte	1
                        3906 
00000527 00             3907 	.byte	0
                        3908 
                        3909 .LDW_4c4d340:
00000528 44             3910 	.byte	68
00000529 00000000*      3911 	.word	.LDW_28a9ed8
0000052d 01             3912 	.byte	1
                        3913 
0000052e 00             3914 	.byte	0
                        3915 
                        3916 .LDW_4c4d570:
0000052f 44             3917 	.byte	68
00000530 00000000*      3918 	.word	.LDW_28a9ed8
00000534 01             3919 	.byte	1
                        3920 
00000535 00             3921 	.byte	0
                        3922 

                                                                      Page 75
                                                              C:\Users\nhuliyap\AppData\Local\Temp\gh_00006601.s
                        3923 .LDW_4c4d420:
00000536 45             3924 	.byte	69
00000537 01             3925 	.byte	1
                        3926 
                        3927 .LDW_4c4c808:
00000538 12             3928 	.byte	18
00000539 00000000*      3929 	.word	.LDW_4c3d8d8
0000053d 00             3930 	.byte	0
                        3931 
0000053e 00             3932 	.byte	0
                        3933 
                        3934 .LDW_4c4d1f0:
0000053f 44             3935 	.byte	68
00000540 00000000*      3936 	.word	.LDW_28a9ed8
00000544 01             3937 	.byte	1
                        3938 
00000545 00             3939 	.byte	0
                        3940 
                        3941 .LDW_4c4d228:
00000546 44             3942 	.byte	68
00000547 00000000*      3943 	.word	.LDW_28a9ed8
0000054b 01             3944 	.byte	1
                        3945 
0000054c 00             3946 	.byte	0
                        3947 
                        3948 .LDW_4c4d4c8:
0000054d 44             3949 	.byte	68
0000054e 00000000*      3950 	.word	.LDW_28a9ed8
00000552 01             3951 	.byte	1
                        3952 
00000553 00             3953 	.byte	0
                        3954 
                        3955 .LDW_4c4d5a8:
00000554 44             3956 	.byte	68
00000555 00000000*      3957 	.word	.LDW_28acbd8
00000559 01             3958 	.byte	1
                        3959 
0000055a 00             3960 	.byte	0
                        3961 
                        3962 .LDW_4c4d848:
0000055b 44             3963 	.byte	68
0000055c 00000000*      3964 	.word	.LDW_28a9ed8
00000560 01             3965 	.byte	1
                        3966 
00000561 00             3967 	.byte	0
                        3968 
                        3969 .LDW_4c4d500:
00000562 45             3970 	.byte	69
00000563 01             3971 	.byte	1
                        3972 
                        3973 .LDW_4c4c418:
00000564 12             3974 	.byte	18
00000565 00000000*      3975 	.word	.LDW_4c3d8d8
00000569 00             3976 	.byte	0
                        3977 
0000056a 00             3978 	.byte	0
                        3979 
                        3980 .LDW_4c4d260:
0000056b 45             3981 	.byte	69
0000056c 01             3982 	.byte	1
                        3983 

                                                                      Page 76
                                                              C:\Users\nhuliyap\AppData\Local\Temp\gh_00006601.s
                        3984 .LDW_4c4c898:
0000056d 12             3985 	.byte	18
0000056e 00000000*      3986 	.word	.LDW_4c3d8d8
00000572 00             3987 	.byte	0
                        3988 
00000573 00             3989 	.byte	0
                        3990 
                        3991 .LDW_4c4d618:
00000574 45             3992 	.byte	69
00000575 01             3993 	.byte	1
                        3994 
                        3995 .LDW_4c4c4d8:
00000576 12             3996 	.byte	18
00000577 00000000*      3997 	.word	.LDW_28a9ed8
0000057b 00             3998 	.byte	0
                        3999 
                        4000 .LDW_4c4c568:
0000057c 12             4001 	.byte	18
0000057d 00000000*      4002 	.word	.LDW_28a9ed8
00000581 00             4003 	.byte	0
                        4004 
                        4005 .LDW_4c4c5c8:
00000582 12             4006 	.byte	18
00000583 00000000*      4007 	.word	.LDW_4c3d8d8
00000587 00             4008 	.byte	0
                        4009 
00000588 00             4010 	.byte	0
                        4011 
                        4012 .LDW_4c4d298:
00000589 44             4013 	.byte	68
0000058a 00000000*      4014 	.word	.LDW_28a9ed8
0000058e 01             4015 	.byte	1
                        4016 
0000058f 00             4017 	.byte	0
                        4018 
                        4019 .LDW_4c4d7d8:
00000590 44             4020 	.byte	68
00000591 00000000*      4021 	.word	.LDW_4c3b908
00000595 01             4022 	.byte	1
                        4023 
00000596 00             4024 	.byte	0
                        4025 
                        4026 .LDW_4c4d880:
00000597 44             4027 	.byte	68
00000598 00000000*      4028 	.word	.LDW_28a9ed8
0000059c 01             4029 	.byte	1
                        4030 
0000059d 00             4031 	.byte	0
                        4032 
                        4033 .LDW_4c4d8b8:
0000059e 44             4034 	.byte	68
0000059f 00000000*      4035 	.word	.LDW_28a9ed8
000005a3 01             4036 	.byte	1
                        4037 
000005a4 00             4038 	.byte	0
                        4039 
                        4040 .LDW_4c4d2d0:
000005a5 44             4041 	.byte	68
000005a6 00000000*      4042 	.word	.LDW_28a9ed8
000005aa 01             4043 	.byte	1
                        4044 

                                                                      Page 77
                                                              C:\Users\nhuliyap\AppData\Local\Temp\gh_00006601.s
000005ab 00             4045 	.byte	0
                        4046 
                        4047 .LDW_4c4d490:
000005ac 44             4048 	.byte	68
000005ad 00000000*      4049 	.word	.LDW_28a9ed8
000005b1 01             4050 	.byte	1
                        4051 
000005b2 00             4052 	.byte	0
                        4053 
                        4054 .LDW_4c4d688:
000005b3 44             4055 	.byte	68
000005b4 00000000*      4056 	.word	.LDW_28a9ed8
000005b8 01             4057 	.byte	1
                        4058 
000005b9 00             4059 	.byte	0
                        4060 
                        4061 .LDW_4c4d308:
000005ba 44             4062 	.byte	68
000005bb 00000000*      4063 	.word	.LDW_28a9ed8
000005bf 01             4064 	.byte	1
                        4065 
000005c0 00             4066 	.byte	0
                        4067 
                        4068 .LDW_4c4d7a0:
000005c1 44             4069 	.byte	68
000005c2 00000000*      4070 	.word	.LDW_28a9ed8
000005c6 01             4071 	.byte	1
                        4072 
000005c7 00             4073 	.byte	0
                        4074 
                        4075 .LDW_4c4d6c0:
000005c8 44             4076 	.byte	68
000005c9 00000000*      4077 	.word	.LDW_28a9ed8
000005cd 01             4078 	.byte	1
                        4079 
000005ce 00             4080 	.byte	0
                        4081 
                        4082 .LDW_4c4d650:
000005cf 44             4083 	.byte	68
000005d0 00000000*      4084 	.word	.LDW_28a9ed8
000005d4 01             4085 	.byte	1
                        4086 
                        4087 .LDW_4c4c748:
000005d5 12             4088 	.byte	18
000005d6 00000000*      4089 	.word	.LDW_28a9ed8
000005da 00             4090 	.byte	0
                        4091 
000005db 00             4092 	.byte	0
                        4093 
                        4094 .LDW_4c4d3e8:
000005dc 44             4095 	.byte	68
000005dd 00000000*      4096 	.word	.LDW_28ac5a8
000005e1 01             4097 	.byte	1
                        4098 
000005e2 00             4099 	.byte	0
                        4100 
                        4101 .LDW_4c4d8f0:
000005e3 44             4102 	.byte	68
000005e4 00000000*      4103 	.word	.LDW_28a9ed8
000005e8 01             4104 	.byte	1
                        4105 

                                                                      Page 78
                                                              C:\Users\nhuliyap\AppData\Local\Temp\gh_00006601.s
000005e9 00             4106 	.byte	0
                        4107 
                        4108 .LDW_4c528a0:
000005ea 44             4109 	.byte	68
000005eb 00000000*      4110 	.word	.LDW_28a9ed8
000005ef 01             4111 	.byte	1
                        4112 
000005f0 00             4113 	.byte	0
                        4114 
                        4115 .LDW_4c52788:
000005f1 44             4116 	.byte	68
000005f2 00000000*      4117 	.word	.LDW_28ac5a8
000005f6 01             4118 	.byte	1
                        4119 
000005f7 00             4120 	.byte	0
                        4121 
                        4122 .LDW_4c52eb0:
000005f8 44             4123 	.byte	68
000005f9 00000000*      4124 	.word	.LDW_28670b0
000005fd 01             4125 	.byte	1
                        4126 
                        4127 .LDW_4c55f08:
000005fe 12             4128 	.byte	18
000005ff 00000000*      4129 	.word	.LDW_28670b0
00000603 00             4130 	.byte	0
                        4131 
00000604 00             4132 	.byte	0
                        4133 
                        4134 .LDW_28ac5a8:
00000605 28             4135 	.byte	40
00000606 626f6f6c6561   4136 	.strz	"boolean"
0000060c 6e00 
0000060e 4e             4137 	.byte	78
0000060f 49             4138 	.byte	73
00000610 06             4139 	.byte	6
00000611 00000000*      4140 	.word	.LDW_28670b0
                        4141 
                        4142 	.section	.debug_abbrev
00000061 28             4143 	.byte	40
00000062 16             4144 	.byte	22
00000063 00             4145 	.byte	0
00000064 0308           4146 	.byte	3,8
00000066 3b0f           4147 	.byte	59,15
00000068 390f           4148 	.byte	57,15
0000006a 3a0f           4149 	.byte	58,15
0000006c 4910           4150 	.byte	73,16
0000006e 0000           4151 	.byte	0,0
                        4152 
                        4153 	.section	.debug_info
                        4154 .LDW_4c3b908:
00000615 28             4155 	.byte	40
00000616 73696e743800   4156 	.strz	"sint8"
0000061c 4f             4157 	.byte	79
0000061d 4b             4158 	.byte	75
0000061e 06             4159 	.byte	6
0000061f 00000000*      4160 	.word	.LDW_4c38e58
                        4161 
                        4162 .LDW_28a9ed8:
00000623 28             4163 	.byte	40
00000624 75696e743800   4164 	.strz	"uint8"
0000062a 50             4165 	.byte	80

                                                                      Page 79
                                                              C:\Users\nhuliyap\AppData\Local\Temp\gh_00006601.s
0000062b 4b             4166 	.byte	75
0000062c 06             4167 	.byte	6
0000062d 00000000*      4168 	.word	.LDW_28670b0
                        4169 
                        4170 .LDW_28acbd8:
00000631 28             4171 	.byte	40
00000632 75696e743136   4172 	.strz	"uint16"
00000638 00 
00000639 52             4173 	.byte	82
0000063a 4a             4174 	.byte	74
0000063b 06             4175 	.byte	6
0000063c 00000000*      4176 	.word	.LDW_4c38c98
                        4177 
                        4178 .LDW_4c3bf38:
00000640 28             4179 	.byte	40
00000641 626974666965   4180 	.strz	"bitfield"
00000647 6c6400 
0000064a 1a             4181 	.byte	26
0000064b 1f             4182 	.byte	31
0000064c 03             4183 	.byte	3
0000064d 00000000*      4184 	.word	.LDW_4c388a8
                        4185 
                        4186 .LDW_28ac550:
00000651 41             4187 	.byte	65
00000652 b001           4188 	.byte	176,1
00000654 0f             4189 	.byte	15
00000655 0a             4190 	.byte	10
00000656 08             4191 	.byte	8
00000657 01             4192 	.byte	1
                        4193 
                        4194 	.section	.debug_abbrev
00000070 41             4195 	.byte	65
00000071 13             4196 	.byte	19
00000072 01             4197 	.byte	1
00000073 3b0f           4198 	.byte	59,15
00000075 390f           4199 	.byte	57,15
00000077 3a0f           4200 	.byte	58,15
00000079 0b0f           4201 	.byte	11,15
0000007b 320b           4202 	.byte	50,11
0000007d 0000           4203 	.byte	0,0
                        4204 
                        4205 	.section	.debug_info
                        4206 .LDW_4c3f380:
00000658 23             4207 	.byte	35
00000659 756344617461   4208 	.strz	"ucData0"
0000065f 3000 
00000661 b101           4209 	.byte	177,1
00000663 09             4210 	.byte	9
00000664 0a             4211 	.byte	10
00000665 00000000*      4212 	.word	.LDW_28a9ed8
00000669 0223           4213 	.byte	2,35
0000066b 00             4214 	.byte	0
0000066c 01             4215 	.byte	1
                        4216 
                        4217 	.section	.debug_abbrev
0000007f 23             4218 	.byte	35
00000080 0d             4219 	.byte	13
00000081 00             4220 	.byte	0
00000082 0308           4221 	.byte	3,8
00000084 3b0f           4222 	.byte	59,15
00000086 390f           4223 	.byte	57,15

                                                                      Page 80
                                                              C:\Users\nhuliyap\AppData\Local\Temp\gh_00006601.s
00000088 3a0f           4224 	.byte	58,15
0000008a 4910           4225 	.byte	73,16
0000008c 380a           4226 	.byte	56,10
0000008e 320b           4227 	.byte	50,11
00000090 0000           4228 	.byte	0,0
                        4229 
                        4230 	.section	.debug_info
                        4231 .LDW_4c3fa40:
0000066d 23             4232 	.byte	35
0000066e 756344617461   4233 	.strz	"ucData1"
00000674 3100 
00000676 b201           4234 	.byte	178,1
00000678 09             4235 	.byte	9
00000679 0a             4236 	.byte	10
0000067a 00000000*      4237 	.word	.LDW_28a9ed8
0000067e 0223           4238 	.byte	2,35
00000680 01             4239 	.byte	1
00000681 01             4240 	.byte	1
                        4241 
                        4242 .LDW_4c3f920:
00000682 23             4243 	.byte	35
00000683 756344617461   4244 	.strz	"ucData2"
00000689 3200 
0000068b b301           4245 	.byte	179,1
0000068d 09             4246 	.byte	9
0000068e 0a             4247 	.byte	10
0000068f 00000000*      4248 	.word	.LDW_28a9ed8
00000693 0223           4249 	.byte	2,35
00000695 02             4250 	.byte	2
00000696 01             4251 	.byte	1
                        4252 
                        4253 .LDW_4c3f260:
00000697 23             4254 	.byte	35
00000698 756344617461   4255 	.strz	"ucData3"
0000069e 3300 
000006a0 b401           4256 	.byte	180,1
000006a2 09             4257 	.byte	9
000006a3 0a             4258 	.byte	10
000006a4 00000000*      4259 	.word	.LDW_28a9ed8
000006a8 0223           4260 	.byte	2,35
000006aa 03             4261 	.byte	3
000006ab 01             4262 	.byte	1
                        4263 
                        4264 .LDW_4c3f698:
000006ac 23             4265 	.byte	35
000006ad 756344617461   4266 	.strz	"ucData4"
000006b3 3400 
000006b5 b501           4267 	.byte	181,1
000006b7 09             4268 	.byte	9
000006b8 0a             4269 	.byte	10
000006b9 00000000*      4270 	.word	.LDW_28a9ed8
000006bd 0223           4271 	.byte	2,35
000006bf 04             4272 	.byte	4
000006c0 01             4273 	.byte	1
                        4274 
                        4275 .LDW_4c3f5c0:
000006c1 23             4276 	.byte	35
000006c2 756344617461   4277 	.strz	"ucData5"
000006c8 3500 
000006ca b601           4278 	.byte	182,1
000006cc 09             4279 	.byte	9

                                                                      Page 81
                                                              C:\Users\nhuliyap\AppData\Local\Temp\gh_00006601.s
000006cd 0a             4280 	.byte	10
000006ce 00000000*      4281 	.word	.LDW_28a9ed8
000006d2 0223           4282 	.byte	2,35
000006d4 05             4283 	.byte	5
000006d5 01             4284 	.byte	1
                        4285 
                        4286 .LDW_4c3f578:
000006d6 23             4287 	.byte	35
000006d7 756344617461   4288 	.strz	"ucData6"
000006dd 3600 
000006df b701           4289 	.byte	183,1
000006e1 09             4290 	.byte	9
000006e2 0a             4291 	.byte	10
000006e3 00000000*      4292 	.word	.LDW_28a9ed8
000006e7 0223           4293 	.byte	2,35
000006e9 06             4294 	.byte	6
000006ea 01             4295 	.byte	1
                        4296 
                        4297 .LDW_4c3f848:
000006eb 23             4298 	.byte	35
000006ec 756344617461   4299 	.strz	"ucData7"
000006f2 3700 
000006f4 b801           4300 	.byte	184,1
000006f6 09             4301 	.byte	9
000006f7 0a             4302 	.byte	10
000006f8 00000000*      4303 	.word	.LDW_28a9ed8
000006fc 0223           4304 	.byte	2,35
000006fe 07             4305 	.byte	7
000006ff 01             4306 	.byte	1
                        4307 
00000700 00             4308 	.byte	0
                        4309 
                        4310 .LDW_28ac600:
00000701 28             4311 	.byte	40
00000702 747343414e5f   4312 	.strz	"tsCAN_Message"
00000708 4d6573736167 
0000070e 6500 
00000710 b901           4313 	.byte	185,1
00000712 02             4314 	.byte	2
00000713 0a             4315 	.byte	10
00000714 00000000*      4316 	.word	.LDW_28ac550
                        4317 
                        4318 .LDW_4c3f0c8:
00000718 40             4319 	.byte	64
00000719 44434d5f535f   4320 	.strz	"DCM_S_MultiplexMessage_00"
0000071f 4d756c746970 
00000725 6c65784d6573 
0000072b 736167655f30 
00000731 3000 
00000733 4d             4321 	.byte	77
00000734 0a             4322 	.byte	10
00000735 02             4323 	.byte	2
00000736 08             4324 	.byte	8
00000737 01             4325 	.byte	1
                        4326 
                        4327 	.section	.debug_abbrev
00000092 40             4328 	.byte	64
00000093 13             4329 	.byte	19
00000094 01             4330 	.byte	1
00000095 0308           4331 	.byte	3,8
00000097 3b0f           4332 	.byte	59,15

                                                                      Page 82
                                                              C:\Users\nhuliyap\AppData\Local\Temp\gh_00006601.s
00000099 390f           4333 	.byte	57,15
0000009b 3a0f           4334 	.byte	58,15
0000009d 0b0f           4335 	.byte	11,15
0000009f 320b           4336 	.byte	50,11
000000a1 0000           4337 	.byte	0,0
                        4338 
                        4339 	.section	.debug_info
                        4340 .LDW_4c3f9f8:
00000738 23             4341 	.byte	35
00000739 75385f4d756c   4342 	.strz	"u8_MultiplexID"
0000073f 7469706c6578 
00000745 494400 
00000748 4f             4343 	.byte	79
00000749 0a             4344 	.byte	10
0000074a 02             4345 	.byte	2
0000074b 00000000*      4346 	.word	.LDW_28a9ed8
0000074f 0223           4347 	.byte	2,35
00000751 00             4348 	.byte	0
00000752 01             4349 	.byte	1
                        4350 
                        4351 .LDW_4c3f770:
00000753 23             4352 	.byte	35
00000754 75385f524654   4353 	.strz	"u8_RFTelegramTimeStamp"
0000075a 656c65677261 
00000760 6d54696d6553 
00000766 74616d7000 
0000076b 50             4354 	.byte	80
0000076c 0a             4355 	.byte	10
0000076d 02             4356 	.byte	2
0000076e 00000000*      4357 	.word	.LDW_4c40238
00000772 0223           4358 	.byte	2,35
00000774 01             4359 	.byte	1
00000775 01             4360 	.byte	1
                        4361 
                        4362 .LDW_4c3f3c8:
00000776 23             4363 	.byte	35
00000777 75385f49444c   4364 	.strz	"u8_IDLastRF"
0000077d 617374524600 
00000783 51             4365 	.byte	81
00000784 0a             4366 	.byte	10
00000785 02             4367 	.byte	2
00000786 00000000*      4368 	.word	.LDW_4c402c0
0000078a 0223           4369 	.byte	2,35
0000078c 04             4370 	.byte	4
0000078d 01             4371 	.byte	1
                        4372 
0000078e 00             4373 	.byte	0
                        4374 
                        4375 .LDW_4c3ef10:
0000078f 43             4376 	.byte	67
00000790 4b             4377 	.byte	75
00000791 01             4378 	.byte	1
00000792 02             4379 	.byte	2
00000793 08             4380 	.byte	8
00000794 01             4381 	.byte	1
                        4382 
                        4383 	.section	.debug_abbrev
000000a3 43             4384 	.byte	67
000000a4 17             4385 	.byte	23
000000a5 01             4386 	.byte	1
000000a6 3b0f           4387 	.byte	59,15

                                                                      Page 83
                                                              C:\Users\nhuliyap\AppData\Local\Temp\gh_00006601.s
000000a8 390f           4388 	.byte	57,15
000000aa 3a0f           4389 	.byte	58,15
000000ac 0b0f           4390 	.byte	11,15
000000ae 320b           4391 	.byte	50,11
000000b0 0000           4392 	.byte	0,0
                        4393 
                        4394 	.section	.debug_info
                        4395 .LDW_4c3f7b8:
00000795 23             4396 	.byte	35
00000796 4d6573736167   4397 	.strz	"MessageMultiplex_00"
0000079c 654d756c7469 
000007a2 706c65785f30 
000007a8 3000 
000007aa 4c             4398 	.byte	76
000007ab 11             4399 	.byte	17
000007ac 02             4400 	.byte	2
000007ad 00000000*      4401 	.word	.LDW_28ac600
000007b1 0223           4402 	.byte	2,35
000007b3 00             4403 	.byte	0
000007b4 01             4404 	.byte	1
                        4405 
                        4406 .LDW_4c3f410:
000007b5 23             4407 	.byte	35
000007b6 537472756374   4408 	.strz	"Struct_MessageMultiplex_00"
000007bc 5f4d65737361 
000007c2 67654d756c74 
000007c8 69706c65785f 
000007ce 303000 
000007d1 52             4409 	.byte	82
000007d2 04             4410 	.byte	4
000007d3 02             4411 	.byte	2
000007d4 00000000*      4412 	.word	.LDW_4c3f0c8
000007d8 0223           4413 	.byte	2,35
000007da 00             4414 	.byte	0
000007db 01             4415 	.byte	1
                        4416 
000007dc 00             4417 	.byte	0
                        4418 
                        4419 .LDW_4c3edb0:
000007dd 28             4420 	.byte	40
000007de 44434d5f555f   4421 	.strz	"DCM_U_MultiplexMessage_00"
000007e4 4d756c746970 
000007ea 6c65784d6573 
000007f0 736167655f30 
000007f6 3000 
000007f8 53             4422 	.byte	83
000007f9 02             4423 	.byte	2
000007fa 02             4424 	.byte	2
000007fb 00000000*      4425 	.word	.LDW_4c3ef10
                        4426 
                        4427 .LDW_4c3f018:
000007ff 40             4428 	.byte	64
00000800 44434d5f535f   4429 	.strz	"DCM_S_MultiplexMessage_01"
00000806 4d756c746970 
0000080c 6c65784d6573 
00000812 736167655f30 
00000818 3100 
0000081a 58             4430 	.byte	88
0000081b 0a             4431 	.byte	10
0000081c 02             4432 	.byte	2
0000081d 08             4433 	.byte	8

                                                                      Page 84
                                                              C:\Users\nhuliyap\AppData\Local\Temp\gh_00006601.s
0000081e 01             4434 	.byte	1
                        4435 
                        4436 .LDW_4c3f890:
0000081f 23             4437 	.byte	35
00000820 75385f4d756c   4438 	.strz	"u8_MultiplexID"
00000826 7469706c6578 
0000082c 494400 
0000082f 5a             4439 	.byte	90
00000830 0a             4440 	.byte	10
00000831 02             4441 	.byte	2
00000832 00000000*      4442 	.word	.LDW_28a9ed8
00000836 0223           4443 	.byte	2,35
00000838 00             4444 	.byte	0
00000839 01             4445 	.byte	1
                        4446 
                        4447 .LDW_4c3f458:
0000083a 23             4448 	.byte	35
0000083b 75385f506f73   4449 	.strz	"u8_PositionRecCntFL"
00000841 6974696f6e52 
00000847 6563436e7446 
0000084d 4c00 
0000084f 60             4450 	.byte	96
00000850 0a             4451 	.byte	10
00000851 02             4452 	.byte	2
00000852 00000000*      4453 	.word	.LDW_28a9ed8
00000856 0223           4454 	.byte	2,35
00000858 01             4455 	.byte	1
00000859 01             4456 	.byte	1
                        4457 
                        4458 .LDW_4c3f4a0:
0000085a 23             4459 	.byte	35
0000085b 75385f506f73   4460 	.strz	"u8_PositionRecCntFR"
00000861 6974696f6e52 
00000867 6563436e7446 
0000086d 5200 
0000086f 61             4461 	.byte	97
00000870 0a             4462 	.byte	10
00000871 02             4463 	.byte	2
00000872 00000000*      4464 	.word	.LDW_28a9ed8
00000876 0223           4465 	.byte	2,35
00000878 02             4466 	.byte	2
00000879 01             4467 	.byte	1
                        4468 
                        4469 .LDW_4c3f8d8:
0000087a 23             4470 	.byte	35
0000087b 75385f506f73   4471 	.strz	"u8_PositionRecCntRL"
00000881 6974696f6e52 
00000887 6563436e7452 
0000088d 4c00 
0000088f 62             4472 	.byte	98
00000890 0a             4473 	.byte	10
00000891 02             4474 	.byte	2
00000892 00000000*      4475 	.word	.LDW_28a9ed8
00000896 0223           4476 	.byte	2,35
00000898 03             4477 	.byte	3
00000899 01             4478 	.byte	1
                        4479 
                        4480 .LDW_4c3f2f0:
0000089a 23             4481 	.byte	35
0000089b 75385f506f73   4482 	.strz	"u8_PositionRecCntRR"
000008a1 6974696f6e52 

                                                                      Page 85
                                                              C:\Users\nhuliyap\AppData\Local\Temp\gh_00006601.s
000008a7 6563436e7452 
000008ad 5200 
000008af 63             4483 	.byte	99
000008b0 0a             4484 	.byte	10
000008b1 02             4485 	.byte	2
000008b2 00000000*      4486 	.word	.LDW_28a9ed8
000008b6 0223           4487 	.byte	2,35
000008b8 04             4488 	.byte	4
000008b9 01             4489 	.byte	1
                        4490 
                        4491 .LDW_4c3fa88:
000008ba 23             4492 	.byte	35
000008bb 75385f526573   4493 	.strz	"u8_ReservedM1B7"
000008c1 65727665644d 
000008c7 31423700 
000008cb 68             4494 	.byte	104
000008cc 0a             4495 	.byte	10
000008cd 02             4496 	.byte	2
000008ce 00000000*      4497 	.word	.LDW_4c40348
000008d2 0223           4498 	.byte	2,35
000008d4 05             4499 	.byte	5
000008d5 01             4500 	.byte	1
                        4501 
000008d6 00             4502 	.byte	0
                        4503 
                        4504 .LDW_4c3f070:
000008d7 43             4505 	.byte	67
000008d8 56             4506 	.byte	86
000008d9 01             4507 	.byte	1
000008da 02             4508 	.byte	2
000008db 08             4509 	.byte	8
000008dc 01             4510 	.byte	1
                        4511 
                        4512 .LDW_4c3f2a8:
000008dd 23             4513 	.byte	35
000008de 4d6573736167   4514 	.strz	"MessageMultiplex_01"
000008e4 654d756c7469 
000008ea 706c65785f30 
000008f0 3100 
000008f2 57             4515 	.byte	87
000008f3 11             4516 	.byte	17
000008f4 02             4517 	.byte	2
000008f5 00000000*      4518 	.word	.LDW_28ac600
000008f9 0223           4519 	.byte	2,35
000008fb 00             4520 	.byte	0
000008fc 01             4521 	.byte	1
                        4522 
                        4523 .LDW_4c3f800:
000008fd 23             4524 	.byte	35
000008fe 537472756374   4525 	.strz	"Struct_MessageMultiplex_01"
00000904 5f4d65737361 
0000090a 67654d756c74 
00000910 69706c65785f 
00000916 303100 
00000919 6a             4526 	.byte	106
0000091a 04             4527 	.byte	4
0000091b 02             4528 	.byte	2
0000091c 00000000*      4529 	.word	.LDW_4c3f018
00000920 0223           4530 	.byte	2,35
00000922 00             4531 	.byte	0
00000923 01             4532 	.byte	1

                                                                      Page 86
                                                              C:\Users\nhuliyap\AppData\Local\Temp\gh_00006601.s
                        4533 
00000924 00             4534 	.byte	0
                        4535 
                        4536 .LDW_4c3efc0:
00000925 28             4537 	.byte	40
00000926 44434d5f555f   4538 	.strz	"DCM_U_MultiplexMessage_01"
0000092c 4d756c746970 
00000932 6c65784d6573 
00000938 736167655f30 
0000093e 3100 
00000940 6b             4539 	.byte	107
00000941 02             4540 	.byte	2
00000942 02             4541 	.byte	2
00000943 00000000*      4542 	.word	.LDW_4c3f070
                        4543 
                        4544 .LDW_4c3eeb8:
00000947 40             4545 	.byte	64
00000948 44434d5f535f   4546 	.strz	"DCM_S_MultiplexMessage_02"
0000094e 4d756c746970 
00000954 6c65784d6573 
0000095a 736167655f30 
00000960 3200 
00000962 70             4547 	.byte	112
00000963 0a             4548 	.byte	10
00000964 02             4549 	.byte	2
00000965 08             4550 	.byte	8
00000966 01             4551 	.byte	1
                        4552 
                        4553 .LDW_4c3f4e8:
00000967 23             4554 	.byte	35
00000968 75385f4d756c   4555 	.strz	"u8_MultiplexID"
0000096e 7469706c6578 
00000974 494400 
00000977 72             4556 	.byte	114
00000978 0a             4557 	.byte	10
00000979 02             4558 	.byte	2
0000097a 00000000*      4559 	.word	.LDW_28a9ed8
0000097e 0223           4560 	.byte	2,35
00000980 00             4561 	.byte	0
00000981 01             4562 	.byte	1
                        4563 
                        4564 .LDW_4c3f530:
00000982 23             4565 	.byte	35
00000983 75385f416273   4566 	.strz	"u8_AbsLinCntFL"
00000989 4c696e436e74 
0000098f 464c00 
00000992 73             4567 	.byte	115
00000993 0a             4568 	.byte	10
00000994 02             4569 	.byte	2
00000995 00000000*      4570 	.word	.LDW_28a9ed8
00000999 0223           4571 	.byte	2,35
0000099b 01             4572 	.byte	1
0000099c 01             4573 	.byte	1
                        4574 
                        4575 .LDW_4c3fad0:
0000099d 23             4576 	.byte	35
0000099e 75385f416273   4577 	.strz	"u8_AbsLinCntFR"
000009a4 4c696e436e74 
000009aa 465200 
000009ad 74             4578 	.byte	116
000009ae 0a             4579 	.byte	10

                                                                      Page 87
                                                              C:\Users\nhuliyap\AppData\Local\Temp\gh_00006601.s
000009af 02             4580 	.byte	2
000009b0 00000000*      4581 	.word	.LDW_28a9ed8
000009b4 0223           4582 	.byte	2,35
000009b6 02             4583 	.byte	2
000009b7 01             4584 	.byte	1
                        4585 
                        4586 .LDW_4c3fb18:
000009b8 23             4587 	.byte	35
000009b9 75385f416273   4588 	.strz	"u8_AbsLinCntRL"
000009bf 4c696e436e74 
000009c5 524c00 
000009c8 75             4589 	.byte	117
000009c9 0a             4590 	.byte	10
000009ca 02             4591 	.byte	2
000009cb 00000000*      4592 	.word	.LDW_28a9ed8
000009cf 0223           4593 	.byte	2,35
000009d1 03             4594 	.byte	3
000009d2 01             4595 	.byte	1
                        4596 
                        4597 .LDW_4c3f338:
000009d3 23             4598 	.byte	35
000009d4 75385f416273   4599 	.strz	"u8_AbsLinCntRR"
000009da 4c696e436e74 
000009e0 525200 
000009e3 76             4600 	.byte	118
000009e4 0a             4601 	.byte	10
000009e5 02             4602 	.byte	2
000009e6 00000000*      4603 	.word	.LDW_28a9ed8
000009ea 0223           4604 	.byte	2,35
000009ec 04             4605 	.byte	4
000009ed 01             4606 	.byte	1
                        4607 
                        4608 .LDW_4c3ff50:
000009ee 23             4609 	.byte	35
000009ef 75385f526573   4610 	.strz	"u8_ReservedM2B5_7"
000009f5 65727665644d 
000009fb 3242355f3700 
00000a01 7a             4611 	.byte	122
00000a02 0a             4612 	.byte	10
00000a03 02             4613 	.byte	2
00000a04 00000000*      4614 	.word	.LDW_4c403d0
00000a08 0223           4615 	.byte	2,35
00000a0a 05             4616 	.byte	5
00000a0b 01             4617 	.byte	1
                        4618 
00000a0c 00             4619 	.byte	0
                        4620 
                        4621 .LDW_4c3f1d0:
00000a0d 43             4622 	.byte	67
00000a0e 6e             4623 	.byte	110
00000a0f 01             4624 	.byte	1
00000a10 02             4625 	.byte	2
00000a11 08             4626 	.byte	8
00000a12 01             4627 	.byte	1
                        4628 
                        4629 .LDW_4c3fcc8:
00000a13 23             4630 	.byte	35
00000a14 4d6573736167   4631 	.strz	"MessageMultiplex_02"
00000a1a 654d756c7469 
00000a20 706c65785f30 
00000a26 3200 

                                                                      Page 88
                                                              C:\Users\nhuliyap\AppData\Local\Temp\gh_00006601.s
00000a28 6f             4632 	.byte	111
00000a29 11             4633 	.byte	17
00000a2a 02             4634 	.byte	2
00000a2b 00000000*      4635 	.word	.LDW_28ac600
00000a2f 0223           4636 	.byte	2,35
00000a31 00             4637 	.byte	0
00000a32 01             4638 	.byte	1
                        4639 
                        4640 .LDW_4c400b8:
00000a33 23             4641 	.byte	35
00000a34 537472756374   4642 	.strz	"Struct_MessageMultiplex_02"
00000a3a 5f4d65737361 
00000a40 67654d756c74 
00000a46 69706c65785f 
00000a4c 303200 
00000a4f 7c             4643 	.byte	124
00000a50 04             4644 	.byte	4
00000a51 02             4645 	.byte	2
00000a52 00000000*      4646 	.word	.LDW_4c3eeb8
00000a56 0223           4647 	.byte	2,35
00000a58 00             4648 	.byte	0
00000a59 01             4649 	.byte	1
                        4650 
00000a5a 00             4651 	.byte	0
                        4652 
                        4653 .LDW_4c3ee08:
00000a5b 28             4654 	.byte	40
00000a5c 44434d5f555f   4655 	.strz	"DCM_U_MultiplexMessage_02"
00000a62 4d756c746970 
00000a68 6c65784d6573 
00000a6e 736167655f30 
00000a74 3200 
00000a76 7d             4656 	.byte	125
00000a77 02             4657 	.byte	2
00000a78 02             4658 	.byte	2
00000a79 00000000*      4659 	.word	.LDW_4c3f1d0
                        4660 
                        4661 .LDW_4c3e780:
00000a7d 40             4662 	.byte	64
00000a7e 44434d5f535f   4663 	.strz	"DCM_S_MultiplexMessage_03"
00000a84 4d756c746970 
00000a8a 6c65784d6573 
00000a90 736167655f30 
00000a96 3300 
00000a98 8201           4664 	.byte	130,1
00000a9a 0a             4665 	.byte	10
00000a9b 02             4666 	.byte	2
00000a9c 08             4667 	.byte	8
00000a9d 01             4668 	.byte	1
                        4669 
                        4670 .LDW_4c40190:
00000a9e 23             4671 	.byte	35
00000a9f 75385f4d756c   4672 	.strz	"u8_MultiplexID"
00000aa5 7469706c6578 
00000aab 494400 
00000aae 8401           4673 	.byte	132,1
00000ab0 0a             4674 	.byte	10
00000ab1 02             4675 	.byte	2
00000ab2 00000000*      4676 	.word	.LDW_28a9ed8
00000ab6 0223           4677 	.byte	2,35
00000ab8 00             4678 	.byte	0

                                                                      Page 89
                                                              C:\Users\nhuliyap\AppData\Local\Temp\gh_00006601.s
00000ab9 01             4679 	.byte	1
                        4680 
                        4681 .LDW_4c3fe30:
00000aba 23             4682 	.byte	35
00000abb 75385f416273   4683 	.strz	"u8_AbsCorrCntFL"
00000ac1 436f7272436e 
00000ac7 74464c00 
00000acb 8501           4684 	.byte	133,1
00000acd 0a             4685 	.byte	10
00000ace 02             4686 	.byte	2
00000acf 00000000*      4687 	.word	.LDW_28a9ed8
00000ad3 0223           4688 	.byte	2,35
00000ad5 01             4689 	.byte	1
00000ad6 01             4690 	.byte	1
                        4691 
                        4692 .LDW_4c3ff98:
00000ad7 23             4693 	.byte	35
00000ad8 75385f416273   4694 	.strz	"u8_AbsCorrCntFR"
00000ade 436f7272436e 
00000ae4 74465200 
00000ae8 8601           4695 	.byte	134,1
00000aea 0a             4696 	.byte	10
00000aeb 02             4697 	.byte	2
00000aec 00000000*      4698 	.word	.LDW_28a9ed8
00000af0 0223           4699 	.byte	2,35
00000af2 02             4700 	.byte	2
00000af3 01             4701 	.byte	1
                        4702 
                        4703 .LDW_4c3fbf0:
00000af4 23             4704 	.byte	35
00000af5 75385f416273   4705 	.strz	"u8_AbsCorrCntRL"
00000afb 436f7272436e 
00000b01 74524c00 
00000b05 8701           4706 	.byte	135,1
00000b07 0a             4707 	.byte	10
00000b08 02             4708 	.byte	2
00000b09 00000000*      4709 	.word	.LDW_28a9ed8
00000b0d 0223           4710 	.byte	2,35
00000b0f 03             4711 	.byte	3
00000b10 01             4712 	.byte	1
                        4713 
                        4714 .LDW_4c401d8:
00000b11 23             4715 	.byte	35
00000b12 75385f416273   4716 	.strz	"u8_AbsCorrCntRR"
00000b18 436f7272436e 
00000b1e 74525200 
00000b22 8801           4717 	.byte	136,1
00000b24 0a             4718 	.byte	10
00000b25 02             4719 	.byte	2
00000b26 00000000*      4720 	.word	.LDW_28a9ed8
00000b2a 0223           4721 	.byte	2,35
00000b2c 04             4722 	.byte	4
00000b2d 01             4723 	.byte	1
                        4724 
                        4725 .LDW_4c3fb60:
00000b2e 23             4726 	.byte	35
00000b2f 75385f526573   4727 	.strz	"u8_ReservedM3B5"
00000b35 65727665644d 
00000b3b 33423500 
00000b3f 8901           4728 	.byte	137,1
00000b41 0a             4729 	.byte	10

                                                                      Page 90
                                                              C:\Users\nhuliyap\AppData\Local\Temp\gh_00006601.s
00000b42 02             4730 	.byte	2
00000b43 00000000*      4731 	.word	.LDW_28a9ed8
00000b47 0223           4732 	.byte	2,35
00000b49 05             4733 	.byte	5
00000b4a 01             4734 	.byte	1
                        4735 
                        4736 .LDW_4c3fc38:
00000b4b 23             4737 	.byte	35
00000b4c 75385f416273   4738 	.strz	"u8_AbsLinAngleFL"
00000b52 4c696e416e67 
00000b58 6c65464c00 
00000b5d 8a01           4739 	.byte	138,1
00000b5f 0a             4740 	.byte	10
00000b60 02             4741 	.byte	2
00000b61 00000000*      4742 	.word	.LDW_28a9ed8
00000b65 0223           4743 	.byte	2,35
00000b67 06             4744 	.byte	6
00000b68 01             4745 	.byte	1
                        4746 
                        4747 .LDW_4c3ffe0:
00000b69 23             4748 	.byte	35
00000b6a 75385f416273   4749 	.strz	"u8_AbsLinAngleFR"
00000b70 4c696e416e67 
00000b76 6c65465200 
00000b7b 8b01           4750 	.byte	139,1
00000b7d 0a             4751 	.byte	10
00000b7e 02             4752 	.byte	2
00000b7f 00000000*      4753 	.word	.LDW_28a9ed8
00000b83 0223           4754 	.byte	2,35
00000b85 07             4755 	.byte	7
00000b86 01             4756 	.byte	1
                        4757 
00000b87 00             4758 	.byte	0
                        4759 
                        4760 .LDW_4c3e678:
00000b88 43             4761 	.byte	67
00000b89 8001           4762 	.byte	128,1
00000b8b 01             4763 	.byte	1
00000b8c 02             4764 	.byte	2
00000b8d 08             4765 	.byte	8
00000b8e 01             4766 	.byte	1
                        4767 
                        4768 .LDW_4c3fde8:
00000b8f 23             4769 	.byte	35
00000b90 4d6573736167   4770 	.strz	"MessageMultiplex_03"
00000b96 654d756c7469 
00000b9c 706c65785f30 
00000ba2 3300 
00000ba4 8101           4771 	.byte	129,1
00000ba6 11             4772 	.byte	17
00000ba7 02             4773 	.byte	2
00000ba8 00000000*      4774 	.word	.LDW_28ac600
00000bac 0223           4775 	.byte	2,35
00000bae 00             4776 	.byte	0
00000baf 01             4777 	.byte	1
                        4778 
                        4779 .LDW_4c40148:
00000bb0 23             4780 	.byte	35
00000bb1 537472756374   4781 	.strz	"Struct_MessageMultiplex_03"
00000bb7 5f4d65737361 
00000bbd 67654d756c74 

                                                                      Page 91
                                                              C:\Users\nhuliyap\AppData\Local\Temp\gh_00006601.s
00000bc3 69706c65785f 
00000bc9 303300 
00000bcc 8c01           4782 	.byte	140,1
00000bce 04             4783 	.byte	4
00000bcf 02             4784 	.byte	2
00000bd0 00000000*      4785 	.word	.LDW_4c3e780
00000bd4 0223           4786 	.byte	2,35
00000bd6 00             4787 	.byte	0
00000bd7 01             4788 	.byte	1
                        4789 
00000bd8 00             4790 	.byte	0
                        4791 
                        4792 .LDW_4c3eb48:
00000bd9 28             4793 	.byte	40
00000bda 44434d5f555f   4794 	.strz	"DCM_U_MultiplexMessage_03"
00000be0 4d756c746970 
00000be6 6c65784d6573 
00000bec 736167655f30 
00000bf2 3300 
00000bf4 8d01           4795 	.byte	141,1
00000bf6 02             4796 	.byte	2
00000bf7 02             4797 	.byte	2
00000bf8 00000000*      4798 	.word	.LDW_4c3e678
                        4799 
                        4800 .LDW_4c3e570:
00000bfc 40             4801 	.byte	64
00000bfd 44434d5f535f   4802 	.strz	"DCM_S_MultiplexMessage_04"
00000c03 4d756c746970 
00000c09 6c65784d6573 
00000c0f 736167655f30 
00000c15 3400 
00000c17 9201           4803 	.byte	146,1
00000c19 0a             4804 	.byte	10
00000c1a 02             4805 	.byte	2
00000c1b 08             4806 	.byte	8
00000c1c 01             4807 	.byte	1
                        4808 
                        4809 .LDW_4c40028:
00000c1d 23             4810 	.byte	35
00000c1e 75385f4d756c   4811 	.strz	"u8_MultiplexID"
00000c24 7469706c6578 
00000c2a 494400 
00000c2d 9401           4812 	.byte	148,1
00000c2f 0a             4813 	.byte	10
00000c30 02             4814 	.byte	2
00000c31 00000000*      4815 	.word	.LDW_28a9ed8
00000c35 0223           4816 	.byte	2,35
00000c37 00             4817 	.byte	0
00000c38 01             4818 	.byte	1
                        4819 
                        4820 .LDW_4c3fc80:
00000c39 23             4821 	.byte	35
00000c3a 75385f526654   4822 	.strz	"u8_RfTelByteValue"
00000c40 656c42797465 
00000c46 56616c756500 
00000c4c 9501           4823 	.byte	149,1
00000c4e 0a             4824 	.byte	10
00000c4f 02             4825 	.byte	2
00000c50 00000000*      4826 	.word	.LDW_4c40458
00000c54 0223           4827 	.byte	2,35
00000c56 01             4828 	.byte	1

                                                                      Page 92
                                                              C:\Users\nhuliyap\AppData\Local\Temp\gh_00006601.s
00000c57 01             4829 	.byte	1
                        4830 
00000c58 00             4831 	.byte	0
                        4832 
                        4833 .LDW_4c3ed00:
00000c59 43             4834 	.byte	67
00000c5a 9001           4835 	.byte	144,1
00000c5c 01             4836 	.byte	1
00000c5d 02             4837 	.byte	2
00000c5e 08             4838 	.byte	8
00000c5f 01             4839 	.byte	1
                        4840 
                        4841 .LDW_4c3fba8:
00000c60 23             4842 	.byte	35
00000c61 4d6573736167   4843 	.strz	"MessageMultiplex_04"
00000c67 654d756c7469 
00000c6d 706c65785f30 
00000c73 3400 
00000c75 9101           4844 	.byte	145,1
00000c77 11             4845 	.byte	17
00000c78 02             4846 	.byte	2
00000c79 00000000*      4847 	.word	.LDW_28ac600
00000c7d 0223           4848 	.byte	2,35
00000c7f 00             4849 	.byte	0
00000c80 01             4850 	.byte	1
                        4851 
                        4852 .LDW_4c40070:
00000c81 23             4853 	.byte	35
00000c82 537472756374   4854 	.strz	"Struct_MessageMultiplex_04"
00000c88 5f4d65737361 
00000c8e 67654d756c74 
00000c94 69706c65785f 
00000c9a 303400 
00000c9d 9601           4855 	.byte	150,1
00000c9f 04             4856 	.byte	4
00000ca0 02             4857 	.byte	2
00000ca1 00000000*      4858 	.word	.LDW_4c3e570
00000ca5 0223           4859 	.byte	2,35
00000ca7 00             4860 	.byte	0
00000ca8 01             4861 	.byte	1
                        4862 
00000ca9 00             4863 	.byte	0
                        4864 
                        4865 .LDW_4c3e308:
00000caa 28             4866 	.byte	40
00000cab 44434d5f555f   4867 	.strz	"DCM_U_MultiplexMessage_04"
00000cb1 4d756c746970 
00000cb7 6c65784d6573 
00000cbd 736167655f30 
00000cc3 3400 
00000cc5 9701           4868 	.byte	151,1
00000cc7 02             4869 	.byte	2
00000cc8 02             4870 	.byte	2
00000cc9 00000000*      4871 	.word	.LDW_4c3ed00
                        4872 
                        4873 .LDW_4c3e830:
00000ccd 40             4874 	.byte	64
00000cce 44434d5f535f   4875 	.strz	"DCM_S_MultiplexMessage_05"
00000cd4 4d756c746970 
00000cda 6c65784d6573 
00000ce0 736167655f30 

                                                                      Page 93
                                                              C:\Users\nhuliyap\AppData\Local\Temp\gh_00006601.s
00000ce6 3500 
00000ce8 9c01           4876 	.byte	156,1
00000cea 0a             4877 	.byte	10
00000ceb 02             4878 	.byte	2
00000cec 08             4879 	.byte	8
00000ced 01             4880 	.byte	1
                        4881 
                        4882 .LDW_4c3fe78:
00000cee 23             4883 	.byte	35
00000cef 75385f4d756c   4884 	.strz	"u8_MultiplexID"
00000cf5 7469706c6578 
00000cfb 494400 
00000cfe 9e01           4885 	.byte	158,1
00000d00 0a             4886 	.byte	10
00000d01 02             4887 	.byte	2
00000d02 00000000*      4888 	.word	.LDW_28a9ed8
00000d06 0223           4889 	.byte	2,35
00000d08 00             4890 	.byte	0
00000d09 01             4891 	.byte	1
                        4892 
                        4893 .LDW_4c3fec0:
00000d0a 23             4894 	.byte	35
00000d0b 75385f526654   4895 	.strz	"u8_RfTelByteValue"
00000d11 656c42797465 
00000d17 56616c756500 
00000d1d 9f01           4896 	.byte	159,1
00000d1f 0a             4897 	.byte	10
00000d20 02             4898 	.byte	2
00000d21 00000000*      4899 	.word	.LDW_4c404e0
00000d25 0223           4900 	.byte	2,35
00000d27 01             4901 	.byte	1
00000d28 01             4902 	.byte	1
                        4903 
                        4904 .LDW_4c3fd58:
00000d29 23             4905 	.byte	35
00000d2a 75385f526573   4906 	.strz	"u8_ReservedM5B5_7"
00000d30 65727665644d 
00000d36 3542355f3700 
00000d3c a501           4907 	.byte	165,1
00000d3e 0a             4908 	.byte	10
00000d3f 02             4909 	.byte	2
00000d40 00000000*      4910 	.word	.LDW_4c40b68
00000d44 0223           4911 	.byte	2,35
00000d46 05             4912 	.byte	5
00000d47 01             4913 	.byte	1
                        4914 
00000d48 00             4915 	.byte	0
                        4916 
                        4917 .LDW_4c3e6d0:
00000d49 43             4918 	.byte	67
00000d4a 9a01           4919 	.byte	154,1
00000d4c 01             4920 	.byte	1
00000d4d 02             4921 	.byte	2
00000d4e 08             4922 	.byte	8
00000d4f 01             4923 	.byte	1
                        4924 
                        4925 .LDW_4c40100:
00000d50 23             4926 	.byte	35
00000d51 4d6573736167   4927 	.strz	"MessageMultiplex_05"
00000d57 654d756c7469 
00000d5d 706c65785f30 

                                                                      Page 94
                                                              C:\Users\nhuliyap\AppData\Local\Temp\gh_00006601.s
00000d63 3500 
00000d65 9b01           4928 	.byte	155,1
00000d67 11             4929 	.byte	17
00000d68 02             4930 	.byte	2
00000d69 00000000*      4931 	.word	.LDW_28ac600
00000d6d 0223           4932 	.byte	2,35
00000d6f 00             4933 	.byte	0
00000d70 01             4934 	.byte	1
                        4935 
                        4936 .LDW_4c3fd10:
00000d71 23             4937 	.byte	35
00000d72 537472756374   4938 	.strz	"Struct_MessageMultiplex_05"
00000d78 5f4d65737361 
00000d7e 67654d756c74 
00000d84 69706c65785f 
00000d8a 303500 
00000d8d a701           4939 	.byte	167,1
00000d8f 04             4940 	.byte	4
00000d90 02             4941 	.byte	2
00000d91 00000000*      4942 	.word	.LDW_4c3e830
00000d95 0223           4943 	.byte	2,35
00000d97 00             4944 	.byte	0
00000d98 01             4945 	.byte	1
                        4946 
00000d99 00             4947 	.byte	0
                        4948 
                        4949 .LDW_4c3e7d8:
00000d9a 28             4950 	.byte	40
00000d9b 44434d5f555f   4951 	.strz	"DCM_U_MultiplexMessage_05"
00000da1 4d756c746970 
00000da7 6c65784d6573 
00000dad 736167655f30 
00000db3 3500 
00000db5 a801           4952 	.byte	168,1
00000db7 02             4953 	.byte	2
00000db8 02             4954 	.byte	2
00000db9 00000000*      4955 	.word	.LDW_4c3e6d0
                        4956 
                        4957 .LDW_4c3e728:
00000dbd 40             4958 	.byte	64
00000dbe 44434d5f535f   4959 	.strz	"DCM_S_MultiplexMessage_20"
00000dc4 4d756c746970 
00000dca 6c65784d6573 
00000dd0 736167655f32 
00000dd6 3000 
00000dd8 cf02           4960 	.byte	207,2
00000dda 0a             4961 	.byte	10
00000ddb 02             4962 	.byte	2
00000ddc 08             4963 	.byte	8
00000ddd 01             4964 	.byte	1
                        4965 
                        4966 .LDW_4c3fda0:
00000dde 24             4967 	.byte	36
00000ddf 75385f4d756c   4968 	.strz	"u8_MultiplexID"
00000de5 7469706c6578 
00000deb 494400 
00000dee d102           4969 	.byte	209,2
00000df0 0d             4970 	.byte	13
00000df1 02             4971 	.byte	2
00000df2 00000000*      4972 	.word	.LDW_4c3bf38
00000df6 04             4973 	.byte	4

                                                                      Page 95
                                                              C:\Users\nhuliyap\AppData\Local\Temp\gh_00006601.s
00000df7 18             4974 	.byte	24
00000df8 08             4975 	.byte	8
00000df9 0223           4976 	.byte	2,35
00000dfb 00             4977 	.byte	0
00000dfc 01             4978 	.byte	1
                        4979 
                        4980 	.section	.debug_abbrev
000000b2 24             4981 	.byte	36
000000b3 0d             4982 	.byte	13
000000b4 00             4983 	.byte	0
000000b5 0308           4984 	.byte	3,8
000000b7 3b0f           4985 	.byte	59,15
000000b9 390f           4986 	.byte	57,15
000000bb 3a0f           4987 	.byte	58,15
000000bd 4910           4988 	.byte	73,16
000000bf 0b0f           4989 	.byte	11,15
000000c1 0c0f           4990 	.byte	12,15
000000c3 0d0b           4991 	.byte	13,11
000000c5 380a           4992 	.byte	56,10
000000c7 320b           4993 	.byte	50,11
000000c9 0000           4994 	.byte	0,0
                        4995 
                        4996 	.section	.debug_info
                        4997 .LDW_4c3ff08:
00000dfd 24             4998 	.byte	36
00000dfe 75385f507265   4999 	.strz	"u8_PressAmbient"
00000e04 7373416d6269 
00000e0a 656e7400 
00000e0e d202           5000 	.byte	210,2
00000e10 0d             5001 	.byte	13
00000e11 02             5002 	.byte	2
00000e12 00000000*      5003 	.word	.LDW_4c3bf38
00000e16 04             5004 	.byte	4
00000e17 10             5005 	.byte	16
00000e18 08             5006 	.byte	8
00000e19 0223           5007 	.byte	2,35
00000e1b 00             5008 	.byte	0
00000e1c 01             5009 	.byte	1
                        5010 
                        5011 .LDW_4c41630:
00000e1d 24             5012 	.byte	36
00000e1e 75385f54656d   5013 	.strz	"u8_TempAmbient"
00000e24 70416d626965 
00000e2a 6e7400 
00000e2d d302           5014 	.byte	211,2
00000e2f 0d             5015 	.byte	13
00000e30 02             5016 	.byte	2
00000e31 00000000*      5017 	.word	.LDW_4c3bf38
00000e35 04             5018 	.byte	4
00000e36 08             5019 	.byte	8
00000e37 08             5020 	.byte	8
00000e38 0223           5021 	.byte	2,35
00000e3a 00             5022 	.byte	0
00000e3b 01             5023 	.byte	1
                        5024 
                        5025 .LDW_4c41e58:
00000e3c 24             5026 	.byte	36
00000e3d 75385f537065   5027 	.strz	"u8_SpeedVehicleMsbits"
00000e43 656456656869 
00000e49 636c654d7362 
00000e4f 69747300 

                                                                      Page 96
                                                              C:\Users\nhuliyap\AppData\Local\Temp\gh_00006601.s
00000e53 d402           5028 	.byte	212,2
00000e55 0d             5029 	.byte	13
00000e56 02             5030 	.byte	2
00000e57 00000000*      5031 	.word	.LDW_4c3bf38
00000e5b 04             5032 	.byte	4
00000e5c 00             5033 	.byte	0
00000e5d 08             5034 	.byte	8
00000e5e 0223           5035 	.byte	2,35
00000e60 00             5036 	.byte	0
00000e61 01             5037 	.byte	1
                        5038 
                        5039 .LDW_4c41990:
00000e62 24             5040 	.byte	36
00000e63 75345f5a6f6d   5041 	.strz	"u4_ZomCurrIDPosition"
00000e69 437572724944 
00000e6f 506f73697469 
00000e75 6f6e00 
00000e78 da02           5042 	.byte	218,2
00000e7a 0d             5043 	.byte	13
00000e7b 02             5044 	.byte	2
00000e7c 00000000*      5045 	.word	.LDW_4c3bf38
00000e80 04             5046 	.byte	4
00000e81 1c             5047 	.byte	28
00000e82 04             5048 	.byte	4
00000e83 0223           5049 	.byte	2,35
00000e85 04             5050 	.byte	4
00000e86 01             5051 	.byte	1
                        5052 
                        5053 .LDW_4c41d80:
00000e87 24             5054 	.byte	36
00000e88 75325f526573   5055 	.strz	"u2_ReservedM20B4b4_5"
00000e8e 65727665644d 
00000e94 323042346234 
00000e9a 5f3500 
00000e9d db02           5056 	.byte	219,2
00000e9f 0d             5057 	.byte	13
00000ea0 02             5058 	.byte	2
00000ea1 00000000*      5059 	.word	.LDW_4c3bf38
00000ea5 04             5060 	.byte	4
00000ea6 1a             5061 	.byte	26
00000ea7 02             5062 	.byte	2
00000ea8 0223           5063 	.byte	2,35
00000eaa 04             5064 	.byte	4
00000eab 01             5065 	.byte	1
                        5066 
                        5067 .LDW_4c41dc8:
00000eac 24             5068 	.byte	36
00000ead 75325f537065   5069 	.strz	"u2_SpeedVehicleLsbits"
00000eb3 656456656869 
00000eb9 636c654c7362 
00000ebf 69747300 
00000ec3 dc02           5070 	.byte	220,2
00000ec5 0d             5071 	.byte	13
00000ec6 02             5072 	.byte	2
00000ec7 00000000*      5073 	.word	.LDW_4c3bf38
00000ecb 04             5074 	.byte	4
00000ecc 18             5075 	.byte	24
00000ecd 02             5076 	.byte	2
00000ece 0223           5077 	.byte	2,35
00000ed0 04             5078 	.byte	4
00000ed1 01             5079 	.byte	1

                                                                      Page 97
                                                              C:\Users\nhuliyap\AppData\Local\Temp\gh_00006601.s
                        5080 
                        5081 .LDW_4c419d8:
00000ed2 24             5082 	.byte	36
00000ed3 75385f576865   5083 	.strz	"u8_WheelPosCurrID"
00000ed9 656c506f7343 
00000edf 757272494400 
00000ee5 de02           5084 	.byte	222,2
00000ee7 0d             5085 	.byte	13
00000ee8 02             5086 	.byte	2
00000ee9 00000000*      5087 	.word	.LDW_4c3bf38
00000eed 04             5088 	.byte	4
00000eee 10             5089 	.byte	16
00000eef 08             5090 	.byte	8
00000ef0 0223           5091 	.byte	2,35
00000ef2 04             5092 	.byte	4
00000ef3 01             5093 	.byte	1
                        5094 
                        5095 .LDW_4c41a20:
00000ef4 24             5096 	.byte	36
00000ef5 75385f416273   5097 	.strz	"u8_AbsLinAngleRL"
00000efb 4c696e416e67 
00000f01 6c65524c00 
00000f06 df02           5098 	.byte	223,2
00000f08 0d             5099 	.byte	13
00000f09 02             5100 	.byte	2
00000f0a 00000000*      5101 	.word	.LDW_4c3bf38
00000f0e 04             5102 	.byte	4
00000f0f 08             5103 	.byte	8
00000f10 08             5104 	.byte	8
00000f11 0223           5105 	.byte	2,35
00000f13 04             5106 	.byte	4
00000f14 01             5107 	.byte	1
                        5108 
                        5109 .LDW_4c41d38:
00000f15 24             5110 	.byte	36
00000f16 75385f416273   5111 	.strz	"u8_AbsLinAngleRR"
00000f1c 4c696e416e67 
00000f22 6c65525200 
00000f27 e002           5112 	.byte	224,2
00000f29 0d             5113 	.byte	13
00000f2a 02             5114 	.byte	2
00000f2b 00000000*      5115 	.word	.LDW_4c3bf38
00000f2f 04             5116 	.byte	4
00000f30 00             5117 	.byte	0
00000f31 08             5118 	.byte	8
00000f32 0223           5119 	.byte	2,35
00000f34 04             5120 	.byte	4
00000f35 01             5121 	.byte	1
                        5122 
00000f36 00             5123 	.byte	0
                        5124 
                        5125 .LDW_4c3e8e0:
00000f37 43             5126 	.byte	67
00000f38 cd02           5127 	.byte	205,2
00000f3a 01             5128 	.byte	1
00000f3b 02             5129 	.byte	2
00000f3c 08             5130 	.byte	8
00000f3d 01             5131 	.byte	1
                        5132 
                        5133 .LDW_4c41cf0:
00000f3e 23             5134 	.byte	35

                                                                      Page 98
                                                              C:\Users\nhuliyap\AppData\Local\Temp\gh_00006601.s
00000f3f 4d6573736167   5135 	.strz	"MessageMultiplex_20"
00000f45 654d756c7469 
00000f4b 706c65785f32 
00000f51 3000 
00000f53 ce02           5136 	.byte	206,2
00000f55 11             5137 	.byte	17
00000f56 02             5138 	.byte	2
00000f57 00000000*      5139 	.word	.LDW_28ac600
00000f5b 0223           5140 	.byte	2,35
00000f5d 00             5141 	.byte	0
00000f5e 01             5142 	.byte	1
                        5143 
                        5144 .LDW_4c415a0:
00000f5f 23             5145 	.byte	35
00000f60 537472756374   5146 	.strz	"Struct_MessageMultiplex_20"
00000f66 5f4d65737361 
00000f6c 67654d756c74 
00000f72 69706c65785f 
00000f78 323000 
00000f7b e102           5147 	.byte	225,2
00000f7d 04             5148 	.byte	4
00000f7e 02             5149 	.byte	2
00000f7f 00000000*      5150 	.word	.LDW_4c3e728
00000f83 0223           5151 	.byte	2,35
00000f85 00             5152 	.byte	0
00000f86 01             5153 	.byte	1
                        5154 
00000f87 00             5155 	.byte	0
                        5156 
                        5157 .LDW_4c3e888:
00000f88 28             5158 	.byte	40
00000f89 44434d5f555f   5159 	.strz	"DCM_U_MultiplexMessage_20"
00000f8f 4d756c746970 
00000f95 6c65784d6573 
00000f9b 736167655f32 
00000fa1 3000 
00000fa3 e202           5160 	.byte	226,2
00000fa5 02             5161 	.byte	2
00000fa6 02             5162 	.byte	2
00000fa7 00000000*      5163 	.word	.LDW_4c3e8e0
                        5164 
                        5165 .LDW_4c3e2b0:
00000fab 40             5166 	.byte	64
00000fac 44434d5f535f   5167 	.strz	"DCM_S_MultiplexMessage_21"
00000fb2 4d756c746970 
00000fb8 6c65784d6573 
00000fbe 736167655f32 
00000fc4 3100 
00000fc6 e702           5168 	.byte	231,2
00000fc8 0a             5169 	.byte	10
00000fc9 02             5170 	.byte	2
00000fca 08             5171 	.byte	8
00000fcb 01             5172 	.byte	1
                        5173 
                        5174 .LDW_4c41678:
00000fcc 23             5175 	.byte	35
00000fcd 75385f4d756c   5176 	.strz	"u8_MultiplexID"
00000fd3 7469706c6578 
00000fd9 494400 
00000fdc e902           5177 	.byte	233,2
00000fde 0a             5178 	.byte	10

                                                                      Page 99
                                                              C:\Users\nhuliyap\AppData\Local\Temp\gh_00006601.s
00000fdf 02             5179 	.byte	2
00000fe0 00000000*      5180 	.word	.LDW_28a9ed8
00000fe4 0223           5181 	.byte	2,35
00000fe6 00             5182 	.byte	0
00000fe7 01             5183 	.byte	1
                        5184 
                        5185 .LDW_4c41e10:
00000fe8 23             5186 	.byte	35
00000fe9 75385f527852   5187 	.strz	"u8_RxRSSIRawValue"
00000fef 535349526177 
00000ff5 56616c756500 
00000ffb ea02           5188 	.byte	234,2
00000ffd 0a             5189 	.byte	10
00000ffe 02             5190 	.byte	2
00000fff 00000000*      5191 	.word	.LDW_28a9ed8
00001003 0223           5192 	.byte	2,35
00001005 01             5193 	.byte	1
00001006 01             5194 	.byte	1
                        5195 
                        5196 .LDW_4c41948:
00001007 23             5197 	.byte	35
00001008 75385f54656c   5198 	.strz	"u8_TelTypeCurrID"
0000100e 547970654375 
00001014 7272494400 
00001019 eb02           5199 	.byte	235,2
0000101b 0a             5200 	.byte	10
0000101c 02             5201 	.byte	2
0000101d 00000000*      5202 	.word	.LDW_28a9ed8
00001021 0223           5203 	.byte	2,35
00001023 02             5204 	.byte	2
00001024 01             5205 	.byte	1
                        5206 
                        5207 .LDW_4c41a68:
00001025 23             5208 	.byte	35
00001026 75385f507265   5209 	.strz	"u8_PressLastRx"
0000102c 73734c617374 
00001032 527800 
00001035 ec02           5210 	.byte	236,2
00001037 0a             5211 	.byte	10
00001038 02             5212 	.byte	2
00001039 00000000*      5213 	.word	.LDW_28a9ed8
0000103d 0223           5214 	.byte	2,35
0000103f 03             5215 	.byte	3
00001040 01             5216 	.byte	1
                        5217 
                        5218 .LDW_4c41bd0:
00001041 23             5219 	.byte	35
00001042 73385f54656d   5220 	.strz	"s8_TempLastRx"
00001048 704c61737452 
0000104e 7800 
00001050 ed02           5221 	.byte	237,2
00001052 0a             5222 	.byte	10
00001053 02             5223 	.byte	2
00001054 00000000*      5224 	.word	.LDW_4c3b908
00001058 0223           5225 	.byte	2,35
0000105a 04             5226 	.byte	4
0000105b 01             5227 	.byte	1
                        5228 
                        5229 .LDW_4c418b8:
0000105c 23             5230 	.byte	35
0000105d 75385f527853   5231 	.strz	"u8_RxStatusFields"

                                                                      Page 100
                                                              C:\Users\nhuliyap\AppData\Local\Temp\gh_00006601.s
00001063 746174757346 
00001069 69656c647300 
0000106f ee02           5232 	.byte	238,2
00001071 0a             5233 	.byte	10
00001072 02             5234 	.byte	2
00001073 00000000*      5235 	.word	.LDW_4c40590
00001077 0223           5236 	.byte	2,35
00001079 05             5237 	.byte	5
0000107a 01             5238 	.byte	1
                        5239 
                        5240 .LDW_4c41750:
0000107b 23             5241 	.byte	35
0000107c 75385f526563   5242 	.strz	"u8_RecEvent"
00001082 4576656e7400 
00001088 ef02           5243 	.byte	239,2
0000108a 0a             5244 	.byte	10
0000108b 02             5245 	.byte	2
0000108c 00000000*      5246 	.word	.LDW_28a9ed8
00001090 0223           5247 	.byte	2,35
00001092 07             5248 	.byte	7
00001093 01             5249 	.byte	1
                        5250 
00001094 00             5251 	.byte	0
                        5252 
                        5253 .LDW_4c3e938:
00001095 43             5254 	.byte	67
00001096 e502           5255 	.byte	229,2
00001098 01             5256 	.byte	1
00001099 02             5257 	.byte	2
0000109a 08             5258 	.byte	8
0000109b 01             5259 	.byte	1
                        5260 
                        5261 .LDW_4c41ab0:
0000109c 23             5262 	.byte	35
0000109d 4d6573736167   5263 	.strz	"MessageMultiplex_21"
000010a3 654d756c7469 
000010a9 706c65785f32 
000010af 3100 
000010b1 e602           5264 	.byte	230,2
000010b3 11             5265 	.byte	17
000010b4 02             5266 	.byte	2
000010b5 00000000*      5267 	.word	.LDW_28ac600
000010b9 0223           5268 	.byte	2,35
000010bb 00             5269 	.byte	0
000010bc 01             5270 	.byte	1
                        5271 
                        5272 .LDW_4c415e8:
000010bd 23             5273 	.byte	35
000010be 537472756374   5274 	.strz	"Struct_MessageMultiplex_21"
000010c4 5f4d65737361 
000010ca 67654d756c74 
000010d0 69706c65785f 
000010d6 323100 
000010d9 f002           5275 	.byte	240,2
000010db 04             5276 	.byte	4
000010dc 02             5277 	.byte	2
000010dd 00000000*      5278 	.word	.LDW_4c3e2b0
000010e1 0223           5279 	.byte	2,35
000010e3 00             5280 	.byte	0
000010e4 01             5281 	.byte	1
                        5282 

                                                                      Page 101
                                                              C:\Users\nhuliyap\AppData\Local\Temp\gh_00006601.s
000010e5 00             5283 	.byte	0
                        5284 
                        5285 .LDW_4c3e990:
000010e6 28             5286 	.byte	40
000010e7 44434d5f555f   5287 	.strz	"DCM_U_MultiplexMessage_21"
000010ed 4d756c746970 
000010f3 6c65784d6573 
000010f9 736167655f32 
000010ff 3100 
00001101 f102           5288 	.byte	241,2
00001103 02             5289 	.byte	2
00001104 02             5290 	.byte	2
00001105 00000000*      5291 	.word	.LDW_4c3e938
                        5292 
                        5293 .LDW_4c3e9e8:
00001109 40             5294 	.byte	64
0000110a 44434d5f535f   5295 	.strz	"DCM_S_MultiplexMessage_22"
00001110 4d756c746970 
00001116 6c65784d6573 
0000111c 736167655f32 
00001122 3200 
00001124 f802           5296 	.byte	248,2
00001126 0a             5297 	.byte	10
00001127 02             5298 	.byte	2
00001128 08             5299 	.byte	8
00001129 01             5300 	.byte	1
                        5301 
                        5302 .LDW_4c41708:
0000112a 24             5303 	.byte	36
0000112b 75385f4d756c   5304 	.strz	"u8_MultiplexID"
00001131 7469706c6578 
00001137 494400 
0000113a fa02           5305 	.byte	250,2
0000113c 0d             5306 	.byte	13
0000113d 02             5307 	.byte	2
0000113e 00000000*      5308 	.word	.LDW_4c3bf38
00001142 04             5309 	.byte	4
00001143 18             5310 	.byte	24
00001144 08             5311 	.byte	8
00001145 0223           5312 	.byte	2,35
00001147 00             5313 	.byte	0
00001148 01             5314 	.byte	1
                        5315 
                        5316 .LDW_4c41798:
00001149 24             5317 	.byte	36
0000114a 75385f4e6f69   5318 	.strz	"u8_NoiseLevel"
00001150 73654c657665 
00001156 6c00 
00001158 fb02           5319 	.byte	251,2
0000115a 0d             5320 	.byte	13
0000115b 02             5321 	.byte	2
0000115c 00000000*      5322 	.word	.LDW_4c3bf38
00001160 04             5323 	.byte	4
00001161 10             5324 	.byte	16
00001162 08             5325 	.byte	8
00001163 0223           5326 	.byte	2,35
00001165 00             5327 	.byte	0
00001166 01             5328 	.byte	1
                        5329 
                        5330 .LDW_4c417e0:
00001167 24             5331 	.byte	36

                                                                      Page 102
                                                              C:\Users\nhuliyap\AppData\Local\Temp\gh_00006601.s
00001168 75385f54504d   5332 	.strz	"u8_TPMSStateMsbits"
0000116e 535374617465 
00001174 4d7362697473 
0000117a 00 
0000117b fc02           5333 	.byte	252,2
0000117d 0d             5334 	.byte	13
0000117e 02             5335 	.byte	2
0000117f 00000000*      5336 	.word	.LDW_4c3bf38
00001183 04             5337 	.byte	4
00001184 08             5338 	.byte	8
00001185 08             5339 	.byte	8
00001186 0223           5340 	.byte	2,35
00001188 00             5341 	.byte	0
00001189 01             5342 	.byte	1
                        5343 
                        5344 .LDW_4c41b40:
0000118a 24             5345 	.byte	36
0000118b 75385f54504d   5346 	.strz	"u8_TPMSStateLsbits"
00001191 535374617465 
00001197 4c7362697473 
0000119d 00 
0000119e fd02           5347 	.byte	253,2
000011a0 0d             5348 	.byte	13
000011a1 02             5349 	.byte	2
000011a2 00000000*      5350 	.word	.LDW_4c3bf38
000011a6 04             5351 	.byte	4
000011a7 00             5352 	.byte	0
000011a8 08             5353 	.byte	8
000011a9 0223           5354 	.byte	2,35
000011ab 00             5355 	.byte	0
000011ac 01             5356 	.byte	1
                        5357 
                        5358 .LDW_4c41b88:
000011ad 24             5359 	.byte	36
000011ae 75385f57416c   5360 	.strz	"u8_WAllocTimeoutCnt"
000011b4 6c6f6354696d 
000011ba 656f7574436e 
000011c0 7400 
000011c2 fe02           5361 	.byte	254,2
000011c4 0d             5362 	.byte	13
000011c5 02             5363 	.byte	2
000011c6 00000000*      5364 	.word	.LDW_4c3bf38
000011ca 04             5365 	.byte	4
000011cb 18             5366 	.byte	24
000011cc 08             5367 	.byte	8
000011cd 0223           5368 	.byte	2,35
000011cf 04             5369 	.byte	4
000011d0 01             5370 	.byte	1
                        5371 
                        5372 .LDW_4c41af8:
000011d1 24             5373 	.byte	36
000011d2 75345f526576   5374 	.strz	"u4_RevGearCnt"
000011d8 47656172436e 
000011de 7400 
000011e0 8503           5375 	.byte	133,3
000011e2 0d             5376 	.byte	13
000011e3 02             5377 	.byte	2
000011e4 00000000*      5378 	.word	.LDW_4c3bf38
000011e8 04             5379 	.byte	4
000011e9 14             5380 	.byte	20
000011ea 04             5381 	.byte	4

                                                                      Page 103
                                                              C:\Users\nhuliyap\AppData\Local\Temp\gh_00006601.s
000011eb 0223           5382 	.byte	2,35
000011ed 04             5383 	.byte	4
000011ee 01             5384 	.byte	1
                        5385 
                        5386 .LDW_4c41ca8:
000011ef 24             5387 	.byte	36
000011f0 75345f416273   5388 	.strz	"u4_AbsResetCnt"
000011f6 526573657443 
000011fc 6e7400 
000011ff 8603           5389 	.byte	134,3
00001201 0d             5390 	.byte	13
00001202 02             5391 	.byte	2
00001203 00000000*      5392 	.word	.LDW_4c3bf38
00001207 04             5393 	.byte	4
00001208 10             5394 	.byte	16
00001209 04             5395 	.byte	4
0000120a 0223           5396 	.byte	2,35
0000120c 04             5397 	.byte	4
0000120d 01             5398 	.byte	1
                        5399 
                        5400 .LDW_4c41c18:
0000120e 24             5401 	.byte	36
0000120f 75345f566568   5402 	.strz	"u4_VehiculeStatus"
00001215 6963756c6553 
0000121b 746174757300 
00001221 8703           5403 	.byte	135,3
00001223 0d             5404 	.byte	13
00001224 02             5405 	.byte	2
00001225 00000000*      5406 	.word	.LDW_4c3bf38
00001229 04             5407 	.byte	4
0000122a 0c             5408 	.byte	12
0000122b 04             5409 	.byte	4
0000122c 0223           5410 	.byte	2,35
0000122e 04             5411 	.byte	4
0000122f 01             5412 	.byte	1
                        5413 
                        5414 .LDW_4c416c0:
00001230 24             5415 	.byte	36
00001231 75345f53746f   5416 	.strz	"u4_StopEventCnt"
00001237 704576656e74 
0000123d 436e7400 
00001241 8803           5417 	.byte	136,3
00001243 0d             5418 	.byte	13
00001244 02             5419 	.byte	2
00001245 00000000*      5420 	.word	.LDW_4c3bf38
00001249 04             5421 	.byte	4
0000124a 08             5422 	.byte	8
0000124b 04             5423 	.byte	4
0000124c 0223           5424 	.byte	2,35
0000124e 04             5425 	.byte	4
0000124f 01             5426 	.byte	1
                        5427 
                        5428 .LDW_4c41828:
00001250 24             5429 	.byte	36
00001251 75385f507265   5430 	.strz	"u8_PressRefCurrID"
00001257 737352656643 
0000125d 757272494400 
00001263 8b03           5431 	.byte	139,3
00001265 0d             5432 	.byte	13
00001266 02             5433 	.byte	2
00001267 00000000*      5434 	.word	.LDW_4c3bf38

                                                                      Page 104
                                                              C:\Users\nhuliyap\AppData\Local\Temp\gh_00006601.s
0000126b 04             5435 	.byte	4
0000126c 00             5436 	.byte	0
0000126d 08             5437 	.byte	8
0000126e 0223           5438 	.byte	2,35
00001270 04             5439 	.byte	4
00001271 01             5440 	.byte	1
                        5441 
00001272 00             5442 	.byte	0
                        5443 
                        5444 .LDW_4c3ea40:
00001273 43             5445 	.byte	67
00001274 f602           5446 	.byte	246,2
00001276 01             5447 	.byte	1
00001277 02             5448 	.byte	2
00001278 08             5449 	.byte	8
00001279 01             5450 	.byte	1
                        5451 
                        5452 .LDW_4c41870:
0000127a 23             5453 	.byte	35
0000127b 4d6573736167   5454 	.strz	"MessageMultiplex_22"
00001281 654d756c7469 
00001287 706c65785f32 
0000128d 3200 
0000128f f702           5455 	.byte	247,2
00001291 11             5456 	.byte	17
00001292 02             5457 	.byte	2
00001293 00000000*      5458 	.word	.LDW_28ac600
00001297 0223           5459 	.byte	2,35
00001299 00             5460 	.byte	0
0000129a 01             5461 	.byte	1
                        5462 
                        5463 .LDW_4c41900:
0000129b 23             5464 	.byte	35
0000129c 537472756374   5465 	.strz	"Struct_MessageMultiplex_22"
000012a2 5f4d65737361 
000012a8 67654d756c74 
000012ae 69706c65785f 
000012b4 323200 
000012b7 8c03           5466 	.byte	140,3
000012b9 04             5467 	.byte	4
000012ba 02             5468 	.byte	2
000012bb 00000000*      5469 	.word	.LDW_4c3e9e8
000012bf 0223           5470 	.byte	2,35
000012c1 00             5471 	.byte	0
000012c2 01             5472 	.byte	1
                        5473 
000012c3 00             5474 	.byte	0
                        5475 
                        5476 .LDW_4c3e360:
000012c4 28             5477 	.byte	40
000012c5 44434d5f555f   5478 	.strz	"DCM_U_MultiplexMessage_22"
000012cb 4d756c746970 
000012d1 6c65784d6573 
000012d7 736167655f32 
000012dd 3200 
000012df 8d03           5479 	.byte	141,3
000012e1 02             5480 	.byte	2
000012e2 02             5481 	.byte	2
000012e3 00000000*      5482 	.word	.LDW_4c3ea40
                        5483 
                        5484 .LDW_4c3ea98:

                                                                      Page 105
                                                              C:\Users\nhuliyap\AppData\Local\Temp\gh_00006601.s
000012e7 40             5485 	.byte	64
000012e8 44434d5f535f   5486 	.strz	"DCM_S_MultiplexMessage_23"
000012ee 4d756c746970 
000012f4 6c65784d6573 
000012fa 736167655f32 
00001300 3300 
00001302 9203           5487 	.byte	146,3
00001304 0a             5488 	.byte	10
00001305 02             5489 	.byte	2
00001306 08             5490 	.byte	8
00001307 01             5491 	.byte	1
                        5492 
                        5493 .LDW_4c41c60:
00001308 24             5494 	.byte	36
00001309 75385f4d756c   5495 	.strz	"u8_MultiplexID"
0000130f 7469706c6578 
00001315 494400 
00001318 9403           5496 	.byte	148,3
0000131a 0d             5497 	.byte	13
0000131b 02             5498 	.byte	2
0000131c 00000000*      5499 	.word	.LDW_4c3bf38
00001320 04             5500 	.byte	4
00001321 18             5501 	.byte	24
00001322 08             5502 	.byte	8
00001323 0223           5503 	.byte	2,35
00001325 00             5504 	.byte	0
00001326 01             5505 	.byte	1
                        5506 
                        5507 .LDW_4c42518:
00001327 24             5508 	.byte	36
00001328 75335f526573   5509 	.strz	"u3_ReservedM23B1b0_2"
0000132e 65727665644d 
00001334 323342316230 
0000133a 5f3200 
0000133d 9a03           5510 	.byte	154,3
0000133f 0d             5511 	.byte	13
00001340 02             5512 	.byte	2
00001341 00000000*      5513 	.word	.LDW_4c3bf38
00001345 04             5514 	.byte	4
00001346 15             5515 	.byte	21
00001347 03             5516 	.byte	3
00001348 0223           5517 	.byte	2,35
0000134a 00             5518 	.byte	0
0000134b 01             5519 	.byte	1
                        5520 
                        5521 .LDW_4c42368:
0000134c 24             5522 	.byte	36
0000134d 75315f52464a   5523 	.strz	"u1_RFJammerStatus"
00001353 616d6d657253 
00001359 746174757300 
0000135f 9b03           5524 	.byte	155,3
00001361 0d             5525 	.byte	13
00001362 02             5526 	.byte	2
00001363 00000000*      5527 	.word	.LDW_4c3bf38
00001367 04             5528 	.byte	4
00001368 14             5529 	.byte	20
00001369 01             5530 	.byte	1
0000136a 0223           5531 	.byte	2,35
0000136c 00             5532 	.byte	0
0000136d 01             5533 	.byte	1
                        5534 

                                                                      Page 106
                                                              C:\Users\nhuliyap\AppData\Local\Temp\gh_00006601.s
                        5535 .LDW_4c423f8:
0000136e 24             5536 	.byte	36
0000136f 75345f54656d   5537 	.strz	"u4_TempWarnStatus"
00001375 705761726e53 
0000137b 746174757300 
00001381 9c03           5538 	.byte	156,3
00001383 0d             5539 	.byte	13
00001384 02             5540 	.byte	2
00001385 00000000*      5541 	.word	.LDW_4c3bf38
00001389 04             5542 	.byte	4
0000138a 10             5543 	.byte	16
0000138b 04             5544 	.byte	4
0000138c 0223           5545 	.byte	2,35
0000138e 00             5546 	.byte	0
0000138f 01             5547 	.byte	1
                        5548 
                        5549 .LDW_4c41fc0:
00001390 24             5550 	.byte	36
00001391 75385f74436d   5551 	.strz	"u8_tCmp_AxImb"
00001397 705f4178496d 
0000139d 6200 
0000139f 9e03           5552 	.byte	158,3
000013a1 0d             5553 	.byte	13
000013a2 02             5554 	.byte	2
000013a3 00000000*      5555 	.word	.LDW_4c3bf38
000013a7 04             5556 	.byte	4
000013a8 08             5557 	.byte	8
000013a9 08             5558 	.byte	8
000013aa 0223           5559 	.byte	2,35
000013ac 00             5560 	.byte	0
000013ad 01             5561 	.byte	1
                        5562 
                        5563 .LDW_4c421b8:
000013ae 24             5564 	.byte	36
000013af 75385f74436d   5565 	.strz	"u8_tCmp_DHW"
000013b5 705f44485700 
000013bb 9f03           5566 	.byte	159,3
000013bd 0d             5567 	.byte	13
000013be 02             5568 	.byte	2
000013bf 00000000*      5569 	.word	.LDW_4c3bf38
000013c3 04             5570 	.byte	4
000013c4 00             5571 	.byte	0
000013c5 08             5572 	.byte	8
000013c6 0223           5573 	.byte	2,35
000013c8 00             5574 	.byte	0
000013c9 01             5575 	.byte	1
                        5576 
                        5577 .LDW_4c41ee8:
000013ca 24             5578 	.byte	36
000013cb 75385f74436d   5579 	.strz	"u8_tCmp_EuF"
000013d1 705f45754600 
000013d7 a003           5580 	.byte	160,3
000013d9 0d             5581 	.byte	13
000013da 02             5582 	.byte	2
000013db 00000000*      5583 	.word	.LDW_4c3bf38
000013df 04             5584 	.byte	4
000013e0 18             5585 	.byte	24
000013e1 08             5586 	.byte	8
000013e2 0223           5587 	.byte	2,35
000013e4 04             5588 	.byte	4
000013e5 01             5589 	.byte	1

                                                                      Page 107
                                                              C:\Users\nhuliyap\AppData\Local\Temp\gh_00006601.s
                        5590 
                        5591 .LDW_4c41f78:
000013e6 24             5592 	.byte	36
000013e7 75385f74436d   5593 	.strz	"u8_tCmp_FT"
000013ed 705f465400 
000013f2 a103           5594 	.byte	161,3
000013f4 0d             5595 	.byte	13
000013f5 02             5596 	.byte	2
000013f6 00000000*      5597 	.word	.LDW_4c3bf38
000013fa 04             5598 	.byte	4
000013fb 10             5599 	.byte	16
000013fc 08             5600 	.byte	8
000013fd 0223           5601 	.byte	2,35
000013ff 04             5602 	.byte	4
00001400 01             5603 	.byte	1
                        5604 
                        5605 .LDW_4c42440:
00001401 24             5606 	.byte	36
00001402 75385f74436d   5607 	.strz	"u8_tCmp_HardTDR"
00001408 705f48617264 
0000140e 54445200 
00001412 a203           5608 	.byte	162,3
00001414 0d             5609 	.byte	13
00001415 02             5610 	.byte	2
00001416 00000000*      5611 	.word	.LDW_4c3bf38
0000141a 04             5612 	.byte	4
0000141b 08             5613 	.byte	8
0000141c 08             5614 	.byte	8
0000141d 0223           5615 	.byte	2,35
0000141f 04             5616 	.byte	4
00001420 01             5617 	.byte	1
                        5618 
                        5619 .LDW_4c42488:
00001421 24             5620 	.byte	36
00001422 75385f446562   5621 	.strz	"u8_DebugAllocType"
00001428 7567416c6c6f 
0000142e 635479706500 
00001434 a303           5622 	.byte	163,3
00001436 0d             5623 	.byte	13
00001437 02             5624 	.byte	2
00001438 00000000*      5625 	.word	.LDW_4c3bf38
0000143c 04             5626 	.byte	4
0000143d 00             5627 	.byte	0
0000143e 08             5628 	.byte	8
0000143f 0223           5629 	.byte	2,35
00001441 04             5630 	.byte	4
00001442 01             5631 	.byte	1
                        5632 
00001443 00             5633 	.byte	0
                        5634 
                        5635 .LDW_4c3eaf0:
00001444 43             5636 	.byte	67
00001445 9003           5637 	.byte	144,3
00001447 01             5638 	.byte	1
00001448 02             5639 	.byte	2
00001449 08             5640 	.byte	8
0000144a 01             5641 	.byte	1
                        5642 
                        5643 .LDW_4c42008:
0000144b 23             5644 	.byte	35
0000144c 4d6573736167   5645 	.strz	"MessageMultiplex_23"

                                                                      Page 108
                                                              C:\Users\nhuliyap\AppData\Local\Temp\gh_00006601.s
00001452 654d756c7469 
00001458 706c65785f32 
0000145e 3300 
00001460 9103           5646 	.byte	145,3
00001462 11             5647 	.byte	17
00001463 02             5648 	.byte	2
00001464 00000000*      5649 	.word	.LDW_28ac600
00001468 0223           5650 	.byte	2,35
0000146a 00             5651 	.byte	0
0000146b 01             5652 	.byte	1
                        5653 
                        5654 .LDW_4c424d0:
0000146c 23             5655 	.byte	35
0000146d 537472756374   5656 	.strz	"Struct_MessageMultiplex_23"
00001473 5f4d65737361 
00001479 67654d756c74 
0000147f 69706c65785f 
00001485 323300 
00001488 a403           5657 	.byte	164,3
0000148a 04             5658 	.byte	4
0000148b 02             5659 	.byte	2
0000148c 00000000*      5660 	.word	.LDW_4c3ea98
00001490 0223           5661 	.byte	2,35
00001492 00             5662 	.byte	0
00001493 01             5663 	.byte	1
                        5664 
00001494 00             5665 	.byte	0
                        5666 
                        5667 .LDW_4c3ec50:
00001495 28             5668 	.byte	40
00001496 44434d5f555f   5669 	.strz	"DCM_U_MultiplexMessage_23"
0000149c 4d756c746970 
000014a2 6c65784d6573 
000014a8 736167655f32 
000014ae 3300 
000014b0 a503           5670 	.byte	165,3
000014b2 02             5671 	.byte	2
000014b3 02             5672 	.byte	2
000014b4 00000000*      5673 	.word	.LDW_4c3eaf0
                        5674 
                        5675 .LDW_4c3eba0:
000014b8 40             5676 	.byte	64
000014b9 44434d5f535f   5677 	.strz	"DCM_S_MultiplexMessage_24"
000014bf 4d756c746970 
000014c5 6c65784d6573 
000014cb 736167655f32 
000014d1 3400 
000014d3 aa03           5678 	.byte	170,3
000014d5 0a             5679 	.byte	10
000014d6 02             5680 	.byte	2
000014d7 08             5681 	.byte	8
000014d8 01             5682 	.byte	1
                        5683 
                        5684 .LDW_4c42200:
000014d9 23             5685 	.byte	35
000014da 75385f4d756c   5686 	.strz	"u8_MultiplexID"
000014e0 7469706c6578 
000014e6 494400 
000014e9 ac03           5687 	.byte	172,3
000014eb 0a             5688 	.byte	10
000014ec 02             5689 	.byte	2

                                                                      Page 109
                                                              C:\Users\nhuliyap\AppData\Local\Temp\gh_00006601.s
000014ed 00000000*      5690 	.word	.LDW_28a9ed8
000014f1 0223           5691 	.byte	2,35
000014f3 00             5692 	.byte	0
000014f4 01             5693 	.byte	1
                        5694 
                        5695 .LDW_4c42320:
000014f5 23             5696 	.byte	35
000014f6 75385f74436d   5697 	.strz	"u8_tCmp_HiP"
000014fc 705f48695000 
00001502 ad03           5698 	.byte	173,3
00001504 0a             5699 	.byte	10
00001505 02             5700 	.byte	2
00001506 00000000*      5701 	.word	.LDW_28a9ed8
0000150a 0223           5702 	.byte	2,35
0000150c 01             5703 	.byte	1
0000150d 01             5704 	.byte	1
                        5705 
                        5706 .LDW_4c41ea0:
0000150e 23             5707 	.byte	35
0000150f 75385f74436d   5708 	.strz	"u8_tCmp_LowP"
00001515 705f4c6f7750 
0000151b 00 
0000151c ae03           5709 	.byte	174,3
0000151e 0a             5710 	.byte	10
0000151f 02             5711 	.byte	2
00001520 00000000*      5712 	.word	.LDW_28a9ed8
00001524 0223           5713 	.byte	2,35
00001526 02             5714 	.byte	2
00001527 01             5715 	.byte	1
                        5716 
                        5717 .LDW_4c41f30:
00001528 23             5718 	.byte	35
00001529 75385f74436d   5719 	.strz	"u8_tCmp_PminDR"
0000152f 705f506d696e 
00001535 445200 
00001538 af03           5720 	.byte	175,3
0000153a 0a             5721 	.byte	10
0000153b 02             5722 	.byte	2
0000153c 00000000*      5723 	.word	.LDW_28a9ed8
00001540 0223           5724 	.byte	2,35
00001542 03             5725 	.byte	3
00001543 01             5726 	.byte	1
                        5727 
                        5728 .LDW_4c422d8:
00001544 23             5729 	.byte	35
00001545 75385f526573   5730 	.strz	"u8_ReservedM24B4_6"
0000154b 65727665644d 
00001551 323442345f36 
00001557 00 
00001558 b003           5731 	.byte	176,3
0000155a 0a             5732 	.byte	10
0000155b 02             5733 	.byte	2
0000155c 00000000*      5734 	.word	.LDW_4c412d8
00001560 0223           5735 	.byte	2,35
00001562 04             5736 	.byte	4
00001563 01             5737 	.byte	1
                        5738 
                        5739 .LDW_4c42170:
00001564 23             5740 	.byte	35
00001565 75385f566568   5741 	.strz	"u8_VehDirection"
0000156b 446972656374 

                                                                      Page 110
                                                              C:\Users\nhuliyap\AppData\Local\Temp\gh_00006601.s
00001571 696f6e00 
00001575 b103           5742 	.byte	177,3
00001577 0a             5743 	.byte	10
00001578 02             5744 	.byte	2
00001579 00000000*      5745 	.word	.LDW_28a9ed8
0000157d 0223           5746 	.byte	2,35
0000157f 06             5747 	.byte	6
00001580 01             5748 	.byte	1
                        5749 
                        5750 .LDW_4c42248:
00001581 23             5751 	.byte	35
00001582 75385f416c6c   5752 	.strz	"u8_AllRecEventCnt"
00001588 526563457665 
0000158e 6e74436e7400 
00001594 b203           5753 	.byte	178,3
00001596 0a             5754 	.byte	10
00001597 02             5755 	.byte	2
00001598 00000000*      5756 	.word	.LDW_28a9ed8
0000159c 0223           5757 	.byte	2,35
0000159e 07             5758 	.byte	7
0000159f 01             5759 	.byte	1
                        5760 
000015a0 00             5761 	.byte	0
                        5762 
                        5763 .LDW_4c3e468:
000015a1 43             5764 	.byte	67
000015a2 a803           5765 	.byte	168,3
000015a4 01             5766 	.byte	1
000015a5 02             5767 	.byte	2
000015a6 08             5768 	.byte	8
000015a7 01             5769 	.byte	1
                        5770 
                        5771 .LDW_4c42050:
000015a8 23             5772 	.byte	35
000015a9 4d6573736167   5773 	.strz	"MessageMultiplex_24"
000015af 654d756c7469 
000015b5 706c65785f32 
000015bb 3400 
000015bd a903           5774 	.byte	169,3
000015bf 11             5775 	.byte	17
000015c0 02             5776 	.byte	2
000015c1 00000000*      5777 	.word	.LDW_28ac600
000015c5 0223           5778 	.byte	2,35
000015c7 00             5779 	.byte	0
000015c8 01             5780 	.byte	1
                        5781 
                        5782 .LDW_4c42098:
000015c9 23             5783 	.byte	35
000015ca 537472756374   5784 	.strz	"Struct_MessageMultiplex_24"
000015d0 5f4d65737361 
000015d6 67654d756c74 
000015dc 69706c65785f 
000015e2 323400 
000015e5 b303           5785 	.byte	179,3
000015e7 04             5786 	.byte	4
000015e8 02             5787 	.byte	2
000015e9 00000000*      5788 	.word	.LDW_4c3eba0
000015ed 0223           5789 	.byte	2,35
000015ef 00             5790 	.byte	0
000015f0 01             5791 	.byte	1
                        5792 

                                                                      Page 111
                                                              C:\Users\nhuliyap\AppData\Local\Temp\gh_00006601.s
000015f1 00             5793 	.byte	0
                        5794 
                        5795 .LDW_4c3eca8:
000015f2 28             5796 	.byte	40
000015f3 44434d5f555f   5797 	.strz	"DCM_U_MultiplexMessage_24"
000015f9 4d756c746970 
000015ff 6c65784d6573 
00001605 736167655f32 
0000160b 3400 
0000160d b403           5798 	.byte	180,3
0000160f 02             5799 	.byte	2
00001610 02             5800 	.byte	2
00001611 00000000*      5801 	.word	.LDW_4c3e468
                        5802 
                        5803 .LDW_4c3ebf8:
00001615 40             5804 	.byte	64
00001616 44434d5f535f   5805 	.strz	"DCM_S_MultiplexMessage_30"
0000161c 4d756c746970 
00001622 6c65784d6573 
00001628 736167655f33 
0000162e 3000 
00001630 cc03           5806 	.byte	204,3
00001632 0a             5807 	.byte	10
00001633 02             5808 	.byte	2
00001634 08             5809 	.byte	8
00001635 01             5810 	.byte	1
                        5811 
                        5812 .LDW_4c42290:
00001636 23             5813 	.byte	35
00001637 75385f4d756c   5814 	.strz	"u8_MultiplexID"
0000163d 7469706c6578 
00001643 494400 
00001646 ce03           5815 	.byte	206,3
00001648 0a             5816 	.byte	10
00001649 02             5817 	.byte	2
0000164a 00000000*      5818 	.word	.LDW_28a9ed8
0000164e 0223           5819 	.byte	2,35
00001650 00             5820 	.byte	0
00001651 01             5821 	.byte	1
                        5822 
                        5823 .LDW_4c423b0:
00001652 23             5824 	.byte	35
00001653 75385f486973   5825 	.strz	"u8_HistoryID0"
00001659 746f72794944 
0000165f 3000 
00001661 cf03           5826 	.byte	207,3
00001663 0a             5827 	.byte	10
00001664 02             5828 	.byte	2
00001665 00000000*      5829 	.word	.LDW_4c40618
00001669 0223           5830 	.byte	2,35
0000166b 01             5831 	.byte	1
0000166c 01             5832 	.byte	1
                        5833 
                        5834 .LDW_4c420e0:
0000166d 23             5835 	.byte	35
0000166e 75385f486973   5836 	.strz	"u8_HistoryWP0"
00001674 746f72795750 
0000167a 3000 
0000167c d003           5837 	.byte	208,3
0000167e 0a             5838 	.byte	10
0000167f 02             5839 	.byte	2

                                                                      Page 112
                                                              C:\Users\nhuliyap\AppData\Local\Temp\gh_00006601.s
00001680 00000000*      5840 	.word	.LDW_28a9ed8
00001684 0223           5841 	.byte	2,35
00001686 05             5842 	.byte	5
00001687 01             5843 	.byte	1
                        5844 
                        5845 .LDW_4c42128:
00001688 23             5846 	.byte	35
00001689 75385f4e6f52   5847 	.strz	"u8_NoRxCntHistoryID0"
0000168f 78436e744869 
00001695 73746f727949 
0000169b 443000 
0000169e d103           5848 	.byte	209,3
000016a0 0a             5849 	.byte	10
000016a1 02             5850 	.byte	2
000016a2 00000000*      5851 	.word	.LDW_28a9ed8
000016a6 0223           5852 	.byte	2,35
000016a8 06             5853 	.byte	6
000016a9 01             5854 	.byte	1
                        5855 
                        5856 .LDW_4c42638:
000016aa 23             5857 	.byte	35
000016ab 75385f576172   5858 	.strz	"u8_WarnVeCtorHist0"
000016b1 6e566543746f 
000016b7 724869737430 
000016bd 00 
000016be d203           5859 	.byte	210,3
000016c0 0a             5860 	.byte	10
000016c1 02             5861 	.byte	2
000016c2 00000000*      5862 	.word	.LDW_28a9ed8
000016c6 0223           5863 	.byte	2,35
000016c8 07             5864 	.byte	7
000016c9 01             5865 	.byte	1
                        5866 
000016ca 00             5867 	.byte	0
                        5868 
                        5869 .LDW_4c3e5c8:
000016cb 43             5870 	.byte	67
000016cc ca03           5871 	.byte	202,3
000016ce 01             5872 	.byte	1
000016cf 02             5873 	.byte	2
000016d0 08             5874 	.byte	8
000016d1 01             5875 	.byte	1
                        5876 
                        5877 .LDW_4c42710:
000016d2 23             5878 	.byte	35
000016d3 4d6573736167   5879 	.strz	"MessageMultiplex_30"
000016d9 654d756c7469 
000016df 706c65785f33 
000016e5 3000 
000016e7 cb03           5880 	.byte	203,3
000016e9 11             5881 	.byte	17
000016ea 02             5882 	.byte	2
000016eb 00000000*      5883 	.word	.LDW_28ac600
000016ef 0223           5884 	.byte	2,35
000016f1 00             5885 	.byte	0
000016f2 01             5886 	.byte	1
                        5887 
                        5888 .LDW_4c427e8:
000016f3 23             5889 	.byte	35
000016f4 537472756374   5890 	.strz	"Struct_MessageMultiplex_30"
000016fa 5f4d65737361 

                                                                      Page 113
                                                              C:\Users\nhuliyap\AppData\Local\Temp\gh_00006601.s
00001700 67654d756c74 
00001706 69706c65785f 
0000170c 333000 
0000170f d303           5891 	.byte	211,3
00001711 04             5892 	.byte	4
00001712 02             5893 	.byte	2
00001713 00000000*      5894 	.word	.LDW_4c3ebf8
00001717 0223           5895 	.byte	2,35
00001719 00             5896 	.byte	0
0000171a 01             5897 	.byte	1
                        5898 
0000171b 00             5899 	.byte	0
                        5900 
                        5901 .LDW_4c3e620:
0000171c 28             5902 	.byte	40
0000171d 44434d5f555f   5903 	.strz	"DCM_U_MultiplexMessage_30"
00001723 4d756c746970 
00001729 6c65784d6573 
0000172f 736167655f33 
00001735 3000 
00001737 d403           5904 	.byte	212,3
00001739 02             5905 	.byte	2
0000173a 02             5906 	.byte	2
0000173b 00000000*      5907 	.word	.LDW_4c3e5c8
                        5908 
                        5909 .LDW_4c3e258:
0000173f 40             5910 	.byte	64
00001740 44434d5f535f   5911 	.strz	"DCM_S_MultiplexMessage_31"
00001746 4d756c746970 
0000174c 6c65784d6573 
00001752 736167655f33 
00001758 3100 
0000175a d903           5912 	.byte	217,3
0000175c 0a             5913 	.byte	10
0000175d 02             5914 	.byte	2
0000175e 08             5915 	.byte	8
0000175f 01             5916 	.byte	1
                        5917 
                        5918 .LDW_4c42830:
00001760 23             5919 	.byte	35
00001761 75385f4d756c   5920 	.strz	"u8_MultiplexID"
00001767 7469706c6578 
0000176d 494400 
00001770 db03           5921 	.byte	219,3
00001772 0a             5922 	.byte	10
00001773 02             5923 	.byte	2
00001774 00000000*      5924 	.word	.LDW_28a9ed8
00001778 0223           5925 	.byte	2,35
0000177a 00             5926 	.byte	0
0000177b 01             5927 	.byte	1
                        5928 
                        5929 .LDW_4c42b90:
0000177c 23             5930 	.byte	35
0000177d 75385f486973   5931 	.strz	"u8_HistoryID1"
00001783 746f72794944 
00001789 3100 
0000178b dc03           5932 	.byte	220,3
0000178d 0a             5933 	.byte	10
0000178e 02             5934 	.byte	2
0000178f 00000000*      5935 	.word	.LDW_4c407b0
00001793 0223           5936 	.byte	2,35

                                                                      Page 114
                                                              C:\Users\nhuliyap\AppData\Local\Temp\gh_00006601.s
00001795 01             5937 	.byte	1
00001796 01             5938 	.byte	1
                        5939 
                        5940 .LDW_4c42b00:
00001797 23             5941 	.byte	35
00001798 75385f486973   5942 	.strz	"u8_HistoryWP1"
0000179e 746f72795750 
000017a4 3100 
000017a6 dd03           5943 	.byte	221,3
000017a8 0a             5944 	.byte	10
000017a9 02             5945 	.byte	2
000017aa 00000000*      5946 	.word	.LDW_28a9ed8
000017ae 0223           5947 	.byte	2,35
000017b0 05             5948 	.byte	5
000017b1 01             5949 	.byte	1
                        5950 
                        5951 .LDW_4c42758:
000017b2 23             5952 	.byte	35
000017b3 75385f4e6f52   5953 	.strz	"u8_NoRxCntHistoryID1"
000017b9 78436e744869 
000017bf 73746f727949 
000017c5 443100 
000017c8 de03           5954 	.byte	222,3
000017ca 0a             5955 	.byte	10
000017cb 02             5956 	.byte	2
000017cc 00000000*      5957 	.word	.LDW_28a9ed8
000017d0 0223           5958 	.byte	2,35
000017d2 06             5959 	.byte	6
000017d3 01             5960 	.byte	1
                        5961 
                        5962 .LDW_4c42878:
000017d4 23             5963 	.byte	35
000017d5 75385f576172   5964 	.strz	"u8_WarnVeCtorHist1"
000017db 6e566543746f 
000017e1 724869737431 
000017e7 00 
000017e8 df03           5965 	.byte	223,3
000017ea 0a             5966 	.byte	10
000017eb 02             5967 	.byte	2
000017ec 00000000*      5968 	.word	.LDW_28a9ed8
000017f0 0223           5969 	.byte	2,35
000017f2 07             5970 	.byte	7
000017f3 01             5971 	.byte	1
                        5972 
000017f4 00             5973 	.byte	0
                        5974 
                        5975 .LDW_4c3e3b8:
000017f5 43             5976 	.byte	67
000017f6 d703           5977 	.byte	215,3
000017f8 01             5978 	.byte	1
000017f9 02             5979 	.byte	2
000017fa 08             5980 	.byte	8
000017fb 01             5981 	.byte	1
                        5982 
                        5983 .LDW_4c42ab8:
000017fc 23             5984 	.byte	35
000017fd 4d6573736167   5985 	.strz	"MessageMultiplex_31"
00001803 654d756c7469 
00001809 706c65785f33 
0000180f 3100 
00001811 d803           5986 	.byte	216,3

                                                                      Page 115
                                                              C:\Users\nhuliyap\AppData\Local\Temp\gh_00006601.s
00001813 11             5987 	.byte	17
00001814 02             5988 	.byte	2
00001815 00000000*      5989 	.word	.LDW_28ac600
00001819 0223           5990 	.byte	2,35
0000181b 00             5991 	.byte	0
0000181c 01             5992 	.byte	1
                        5993 
                        5994 .LDW_4c426c8:
0000181d 23             5995 	.byte	35
0000181e 537472756374   5996 	.strz	"Struct_MessageMultiplex_31"
00001824 5f4d65737361 
0000182a 67654d756c74 
00001830 69706c65785f 
00001836 333100 
00001839 e003           5997 	.byte	224,3
0000183b 04             5998 	.byte	4
0000183c 02             5999 	.byte	2
0000183d 00000000*      6000 	.word	.LDW_4c3e258
00001841 0223           6001 	.byte	2,35
00001843 00             6002 	.byte	0
00001844 01             6003 	.byte	1
                        6004 
00001845 00             6005 	.byte	0
                        6006 
                        6007 .LDW_4c3e410:
00001846 28             6008 	.byte	40
00001847 44434d5f555f   6009 	.strz	"DCM_U_MultiplexMessage_31"
0000184d 4d756c746970 
00001853 6c65784d6573 
00001859 736167655f33 
0000185f 3100 
00001861 e103           6010 	.byte	225,3
00001863 02             6011 	.byte	2
00001864 02             6012 	.byte	2
00001865 00000000*      6013 	.word	.LDW_4c3e3b8
                        6014 
                        6015 .LDW_4c3e4c0:
00001869 40             6016 	.byte	64
0000186a 44434d5f535f   6017 	.strz	"DCM_S_MultiplexMessage_32"
00001870 4d756c746970 
00001876 6c65784d6573 
0000187c 736167655f33 
00001882 3200 
00001884 e603           6018 	.byte	230,3
00001886 0a             6019 	.byte	10
00001887 02             6020 	.byte	2
00001888 08             6021 	.byte	8
00001889 01             6022 	.byte	1
                        6023 
                        6024 .LDW_4c42d88:
0000188a 23             6025 	.byte	35
0000188b 75385f4d756c   6026 	.strz	"u8_MultiplexID"
00001891 7469706c6578 
00001897 494400 
0000189a e803           6027 	.byte	232,3
0000189c 0a             6028 	.byte	10
0000189d 02             6029 	.byte	2
0000189e 00000000*      6030 	.word	.LDW_28a9ed8
000018a2 0223           6031 	.byte	2,35
000018a4 00             6032 	.byte	0
000018a5 01             6033 	.byte	1

                                                                      Page 116
                                                              C:\Users\nhuliyap\AppData\Local\Temp\gh_00006601.s
                        6034 
                        6035 .LDW_4c42bd8:
000018a6 23             6036 	.byte	35
000018a7 75385f486973   6037 	.strz	"u8_HistoryID2"
000018ad 746f72794944 
000018b3 3200 
000018b5 e903           6038 	.byte	233,3
000018b7 0a             6039 	.byte	10
000018b8 02             6040 	.byte	2
000018b9 00000000*      6041 	.word	.LDW_4c406a0
000018bd 0223           6042 	.byte	2,35
000018bf 01             6043 	.byte	1
000018c0 01             6044 	.byte	1
                        6045 
                        6046 .LDW_4c42950:
000018c1 23             6047 	.byte	35
000018c2 75385f486973   6048 	.strz	"u8_HistoryWP2"
000018c8 746f72795750 
000018ce 3200 
000018d0 ea03           6049 	.byte	234,3
000018d2 0a             6050 	.byte	10
000018d3 02             6051 	.byte	2
000018d4 00000000*      6052 	.word	.LDW_28a9ed8
000018d8 0223           6053 	.byte	2,35
000018da 05             6054 	.byte	5
000018db 01             6055 	.byte	1
                        6056 
                        6057 .LDW_4c42998:
000018dc 23             6058 	.byte	35
000018dd 75385f4e6f52   6059 	.strz	"u8_NoRxCntHistoryID2"
000018e3 78436e744869 
000018e9 73746f727949 
000018ef 443200 
000018f2 eb03           6060 	.byte	235,3
000018f4 0a             6061 	.byte	10
000018f5 02             6062 	.byte	2
000018f6 00000000*      6063 	.word	.LDW_28a9ed8
000018fa 0223           6064 	.byte	2,35
000018fc 06             6065 	.byte	6
000018fd 01             6066 	.byte	1
                        6067 
                        6068 .LDW_4c429e0:
000018fe 23             6069 	.byte	35
000018ff 75385f576172   6070 	.strz	"u8_WarnVeCtorHist2"
00001905 6e566543746f 
0000190b 724869737432 
00001911 00 
00001912 ec03           6071 	.byte	236,3
00001914 0a             6072 	.byte	10
00001915 02             6073 	.byte	2
00001916 00000000*      6074 	.word	.LDW_28a9ed8
0000191a 0223           6075 	.byte	2,35
0000191c 07             6076 	.byte	7
0000191d 01             6077 	.byte	1
                        6078 
0000191e 00             6079 	.byte	0
                        6080 
                        6081 .LDW_4c3e518:
0000191f 43             6082 	.byte	67
00001920 e403           6083 	.byte	228,3
00001922 01             6084 	.byte	1

                                                                      Page 117
                                                              C:\Users\nhuliyap\AppData\Local\Temp\gh_00006601.s
00001923 02             6085 	.byte	2
00001924 08             6086 	.byte	8
00001925 01             6087 	.byte	1
                        6088 
                        6089 .LDW_4c42b48:
00001926 23             6090 	.byte	35
00001927 4d6573736167   6091 	.strz	"MessageMultiplex_32"
0000192d 654d756c7469 
00001933 706c65785f33 
00001939 3200 
0000193b e503           6092 	.byte	229,3
0000193d 11             6093 	.byte	17
0000193e 02             6094 	.byte	2
0000193f 00000000*      6095 	.word	.LDW_28ac600
00001943 0223           6096 	.byte	2,35
00001945 00             6097 	.byte	0
00001946 01             6098 	.byte	1
                        6099 
                        6100 .LDW_4c42e18:
00001947 23             6101 	.byte	35
00001948 537472756374   6102 	.strz	"Struct_MessageMultiplex_32"
0000194e 5f4d65737361 
00001954 67654d756c74 
0000195a 69706c65785f 
00001960 333200 
00001963 ed03           6103 	.byte	237,3
00001965 04             6104 	.byte	4
00001966 02             6105 	.byte	2
00001967 00000000*      6106 	.word	.LDW_4c3e4c0
0000196b 0223           6107 	.byte	2,35
0000196d 00             6108 	.byte	0
0000196e 01             6109 	.byte	1
                        6110 
0000196f 00             6111 	.byte	0
                        6112 
                        6113 .LDW_4c440b0:
00001970 28             6114 	.byte	40
00001971 44434d5f555f   6115 	.strz	"DCM_U_MultiplexMessage_32"
00001977 4d756c746970 
0000197d 6c65784d6573 
00001983 736167655f33 
00001989 3200 
0000198b ee03           6116 	.byte	238,3
0000198d 02             6117 	.byte	2
0000198e 02             6118 	.byte	2
0000198f 00000000*      6119 	.word	.LDW_4c3e518
                        6120 
                        6121 .LDW_4c44420:
00001993 40             6122 	.byte	64
00001994 44434d5f535f   6123 	.strz	"DCM_S_MultiplexMessage_33"
0000199a 4d756c746970 
000019a0 6c65784d6573 
000019a6 736167655f33 
000019ac 3300 
000019ae f303           6124 	.byte	243,3
000019b0 0a             6125 	.byte	10
000019b1 02             6126 	.byte	2
000019b2 08             6127 	.byte	8
000019b3 01             6128 	.byte	1
                        6129 
                        6130 .LDW_4c425f0:

                                                                      Page 118
                                                              C:\Users\nhuliyap\AppData\Local\Temp\gh_00006601.s
000019b4 23             6131 	.byte	35
000019b5 75385f4d756c   6132 	.strz	"u8_MultiplexID"
000019bb 7469706c6578 
000019c1 494400 
000019c4 f503           6133 	.byte	245,3
000019c6 0a             6134 	.byte	10
000019c7 02             6135 	.byte	2
000019c8 00000000*      6136 	.word	.LDW_28a9ed8
000019cc 0223           6137 	.byte	2,35
000019ce 00             6138 	.byte	0
000019cf 01             6139 	.byte	1
                        6140 
                        6141 .LDW_4c42e60:
000019d0 23             6142 	.byte	35
000019d1 75385f486973   6143 	.strz	"u8_HistoryID3"
000019d7 746f72794944 
000019dd 3300 
000019df f603           6144 	.byte	246,3
000019e1 0a             6145 	.byte	10
000019e2 02             6146 	.byte	2
000019e3 00000000*      6147 	.word	.LDW_4c41360
000019e7 0223           6148 	.byte	2,35
000019e9 01             6149 	.byte	1
000019ea 01             6150 	.byte	1
                        6151 
                        6152 .LDW_4c42c68:
000019eb 23             6153 	.byte	35
000019ec 75385f486973   6154 	.strz	"u8_HistoryWP3"
000019f2 746f72795750 
000019f8 3300 
000019fa f703           6155 	.byte	247,3
000019fc 0a             6156 	.byte	10
000019fd 02             6157 	.byte	2
000019fe 00000000*      6158 	.word	.LDW_28a9ed8
00001a02 0223           6159 	.byte	2,35
00001a04 05             6160 	.byte	5
00001a05 01             6161 	.byte	1
                        6162 
                        6163 .LDW_4c42c20:
00001a06 23             6164 	.byte	35
00001a07 75385f4e6f52   6165 	.strz	"u8_NoRxCntHistoryID3"
00001a0d 78436e744869 
00001a13 73746f727949 
00001a19 443300 
00001a1c f803           6166 	.byte	248,3
00001a1e 0a             6167 	.byte	10
00001a1f 02             6168 	.byte	2
00001a20 00000000*      6169 	.word	.LDW_28a9ed8
00001a24 0223           6170 	.byte	2,35
00001a26 06             6171 	.byte	6
00001a27 01             6172 	.byte	1
                        6173 
                        6174 .LDW_4c425a8:
00001a28 23             6175 	.byte	35
00001a29 75385f576172   6176 	.strz	"u8_WarnVeCtorHist3"
00001a2f 6e566543746f 
00001a35 724869737433 
00001a3b 00 
00001a3c f903           6177 	.byte	249,3
00001a3e 0a             6178 	.byte	10
00001a3f 02             6179 	.byte	2

                                                                      Page 119
                                                              C:\Users\nhuliyap\AppData\Local\Temp\gh_00006601.s
00001a40 00000000*      6180 	.word	.LDW_28a9ed8
00001a44 0223           6181 	.byte	2,35
00001a46 07             6182 	.byte	7
00001a47 01             6183 	.byte	1
                        6184 
00001a48 00             6185 	.byte	0
                        6186 
                        6187 .LDW_4c44370:
00001a49 43             6188 	.byte	67
00001a4a f103           6189 	.byte	241,3
00001a4c 01             6190 	.byte	1
00001a4d 02             6191 	.byte	2
00001a4e 08             6192 	.byte	8
00001a4f 01             6193 	.byte	1
                        6194 
                        6195 .LDW_4c42dd0:
00001a50 23             6196 	.byte	35
00001a51 4d6573736167   6197 	.strz	"MessageMultiplex_33"
00001a57 654d756c7469 
00001a5d 706c65785f33 
00001a63 3300 
00001a65 f203           6198 	.byte	242,3
00001a67 11             6199 	.byte	17
00001a68 02             6200 	.byte	2
00001a69 00000000*      6201 	.word	.LDW_28ac600
00001a6d 0223           6202 	.byte	2,35
00001a6f 00             6203 	.byte	0
00001a70 01             6204 	.byte	1
                        6205 
                        6206 .LDW_4c42a28:
00001a71 23             6207 	.byte	35
00001a72 537472756374   6208 	.strz	"Struct_MessageMultiplex_33"
00001a78 5f4d65737361 
00001a7e 67654d756c74 
00001a84 69706c65785f 
00001a8a 333300 
00001a8d fa03           6209 	.byte	250,3
00001a8f 04             6210 	.byte	4
00001a90 02             6211 	.byte	2
00001a91 00000000*      6212 	.word	.LDW_4c44420
00001a95 0223           6213 	.byte	2,35
00001a97 00             6214 	.byte	0
00001a98 01             6215 	.byte	1
                        6216 
00001a99 00             6217 	.byte	0
                        6218 
                        6219 .LDW_4c442c0:
00001a9a 28             6220 	.byte	40
00001a9b 44434d5f555f   6221 	.strz	"DCM_U_MultiplexMessage_33"
00001aa1 4d756c746970 
00001aa7 6c65784d6573 
00001aad 736167655f33 
00001ab3 3300 
00001ab5 fb03           6222 	.byte	251,3
00001ab7 02             6223 	.byte	2
00001ab8 02             6224 	.byte	2
00001ab9 00000000*      6225 	.word	.LDW_4c44370
                        6226 
                        6227 .LDW_4c444d0:
00001abd 40             6228 	.byte	64
00001abe 44434d5f535f   6229 	.strz	"DCM_S_MultiplexMessage_40"

                                                                      Page 120
                                                              C:\Users\nhuliyap\AppData\Local\Temp\gh_00006601.s
00001ac4 4d756c746970 
00001aca 6c65784d6573 
00001ad0 736167655f34 
00001ad6 3000 
00001ad8 8004           6230 	.byte	128,4
00001ada 0a             6231 	.byte	10
00001adb 02             6232 	.byte	2
00001adc 08             6233 	.byte	8
00001add 01             6234 	.byte	1
                        6235 
                        6236 .LDW_4c427a0:
00001ade 23             6237 	.byte	35
00001adf 75385f4d756c   6238 	.strz	"u8_MultiplexID"
00001ae5 7469706c6578 
00001aeb 494400 
00001aee 8204           6239 	.byte	130,4
00001af0 0a             6240 	.byte	10
00001af1 02             6241 	.byte	2
00001af2 00000000*      6242 	.word	.LDW_28a9ed8
00001af6 0223           6243 	.byte	2,35
00001af8 00             6244 	.byte	0
00001af9 01             6245 	.byte	1
                        6246 
                        6247 .LDW_4c42a70:
00001afa 23             6248 	.byte	35
00001afb 75385f5a6f6d   6249 	.strz	"u8_ZomWuID0"
00001b01 577549443000 
00001b07 8304           6250 	.byte	131,4
00001b09 0a             6251 	.byte	10
00001b0a 02             6252 	.byte	2
00001b0b 00000000*      6253 	.word	.LDW_4c40728
00001b0f 0223           6254 	.byte	2,35
00001b11 01             6255 	.byte	1
00001b12 01             6256 	.byte	1
                        6257 
                        6258 .LDW_4c42908:
00001b13 23             6259 	.byte	35
00001b14 75385f5a6f6d   6260 	.strz	"u8_ZomAutolocStatus0"
00001b1a 4175746f6c6f 
00001b20 635374617475 
00001b26 733000 
00001b29 8404           6261 	.byte	132,4
00001b2b 0a             6262 	.byte	10
00001b2c 02             6263 	.byte	2
00001b2d 00000000*      6264 	.word	.LDW_28a9ed8
00001b31 0223           6265 	.byte	2,35
00001b33 05             6266 	.byte	5
00001b34 01             6267 	.byte	1
                        6268 
                        6269 .LDW_4c428c0:
00001b35 23             6270 	.byte	35
00001b36 75385f5a6f6d   6271 	.strz	"u8_ZomTelCnt0"
00001b3c 54656c436e74 
00001b42 3000 
00001b44 8504           6272 	.byte	133,4
00001b46 0a             6273 	.byte	10
00001b47 02             6274 	.byte	2
00001b48 00000000*      6275 	.word	.LDW_28a9ed8
00001b4c 0223           6276 	.byte	2,35
00001b4e 06             6277 	.byte	6
00001b4f 01             6278 	.byte	1

                                                                      Page 121
                                                              C:\Users\nhuliyap\AppData\Local\Temp\gh_00006601.s
                        6279 
                        6280 .LDW_4c42cb0:
00001b50 23             6281 	.byte	35
00001b51 75385f526573   6282 	.strz	"u8_ReservedM40B7"
00001b57 65727665644d 
00001b5d 3430423700 
00001b62 8604           6283 	.byte	134,4
00001b64 0a             6284 	.byte	10
00001b65 02             6285 	.byte	2
00001b66 00000000*      6286 	.word	.LDW_28a9ed8
00001b6a 0223           6287 	.byte	2,35
00001b6c 07             6288 	.byte	7
00001b6d 01             6289 	.byte	1
                        6290 
00001b6e 00             6291 	.byte	0
                        6292 
                        6293 .LDW_4c44478:
00001b6f 43             6294 	.byte	67
00001b70 fe03           6295 	.byte	254,3
00001b72 01             6296 	.byte	1
00001b73 02             6297 	.byte	2
00001b74 08             6298 	.byte	8
00001b75 01             6299 	.byte	1
                        6300 
                        6301 .LDW_4c42680:
00001b76 23             6302 	.byte	35
00001b77 4d6573736167   6303 	.strz	"MessageMultiplex_40"
00001b7d 654d756c7469 
00001b83 706c65785f34 
00001b89 3000 
00001b8b ff03           6304 	.byte	255,3
00001b8d 11             6305 	.byte	17
00001b8e 02             6306 	.byte	2
00001b8f 00000000*      6307 	.word	.LDW_28ac600
00001b93 0223           6308 	.byte	2,35
00001b95 00             6309 	.byte	0
00001b96 01             6310 	.byte	1
                        6311 
                        6312 .LDW_4c42cf8:
00001b97 23             6313 	.byte	35
00001b98 537472756374   6314 	.strz	"Struct_MessageMultiplex_40"
00001b9e 5f4d65737361 
00001ba4 67654d756c74 
00001baa 69706c65785f 
00001bb0 343000 
00001bb3 8704           6315 	.byte	135,4
00001bb5 04             6316 	.byte	4
00001bb6 02             6317 	.byte	2
00001bb7 00000000*      6318 	.word	.LDW_4c444d0
00001bbb 0223           6319 	.byte	2,35
00001bbd 00             6320 	.byte	0
00001bbe 01             6321 	.byte	1
                        6322 
00001bbf 00             6323 	.byte	0
                        6324 
                        6325 .LDW_4c44528:
00001bc0 28             6326 	.byte	40
00001bc1 44434d5f555f   6327 	.strz	"DCM_U_MultiplexMessage_40"
00001bc7 4d756c746970 
00001bcd 6c65784d6573 
00001bd3 736167655f34 

                                                                      Page 122
                                                              C:\Users\nhuliyap\AppData\Local\Temp\gh_00006601.s
00001bd9 3000 
00001bdb 8804           6328 	.byte	136,4
00001bdd 02             6329 	.byte	2
00001bde 02             6330 	.byte	2
00001bdf 00000000*      6331 	.word	.LDW_4c44478
                        6332 
                        6333 .LDW_4c443c8:
00001be3 40             6334 	.byte	64
00001be4 44434d5f535f   6335 	.strz	"DCM_S_MultiplexMessage_41"
00001bea 4d756c746970 
00001bf0 6c65784d6573 
00001bf6 736167655f34 
00001bfc 3100 
00001bfe 8d04           6336 	.byte	141,4
00001c00 0a             6337 	.byte	10
00001c01 02             6338 	.byte	2
00001c02 08             6339 	.byte	8
00001c03 01             6340 	.byte	1
                        6341 
                        6342 .LDW_4c42d40:
00001c04 23             6343 	.byte	35
00001c05 75385f4d756c   6344 	.strz	"u8_MultiplexID"
00001c0b 7469706c6578 
00001c11 494400 
00001c14 8f04           6345 	.byte	143,4
00001c16 0a             6346 	.byte	10
00001c17 02             6347 	.byte	2
00001c18 00000000*      6348 	.word	.LDW_28a9ed8
00001c1c 0223           6349 	.byte	2,35
00001c1e 00             6350 	.byte	0
00001c1f 01             6351 	.byte	1
                        6352 
                        6353 .LDW_4c43448:
00001c20 23             6354 	.byte	35
00001c21 75385f5a6f6d   6355 	.strz	"u8_ZomWuID1"
00001c27 577549443100 
00001c2d 9004           6356 	.byte	144,4
00001c2f 0a             6357 	.byte	10
00001c30 02             6358 	.byte	2
00001c31 00000000*      6359 	.word	.LDW_4c40e10
00001c35 0223           6360 	.byte	2,35
00001c37 01             6361 	.byte	1
00001c38 01             6362 	.byte	1
                        6363 
                        6364 .LDW_4c43010:
00001c39 23             6365 	.byte	35
00001c3a 75385f5a6f6d   6366 	.strz	"u8_ZomAutolocStatus1"
00001c40 4175746f6c6f 
00001c46 635374617475 
00001c4c 733100 
00001c4f 9104           6367 	.byte	145,4
00001c51 0a             6368 	.byte	10
00001c52 02             6369 	.byte	2
00001c53 00000000*      6370 	.word	.LDW_28a9ed8
00001c57 0223           6371 	.byte	2,35
00001c59 05             6372 	.byte	5
00001c5a 01             6373 	.byte	1
                        6374 
                        6375 .LDW_4c432e0:
00001c5b 23             6376 	.byte	35
00001c5c 75385f5a6f6d   6377 	.strz	"u8_ZomTelCnt1"

                                                                      Page 123
                                                              C:\Users\nhuliyap\AppData\Local\Temp\gh_00006601.s
00001c62 54656c436e74 
00001c68 3100 
00001c6a 9204           6378 	.byte	146,4
00001c6c 0a             6379 	.byte	10
00001c6d 02             6380 	.byte	2
00001c6e 00000000*      6381 	.word	.LDW_28a9ed8
00001c72 0223           6382 	.byte	2,35
00001c74 06             6383 	.byte	6
00001c75 01             6384 	.byte	1
                        6385 
                        6386 .LDW_4c430e8:
00001c76 23             6387 	.byte	35
00001c77 75385f526573   6388 	.strz	"u8_ReservedM41B7"
00001c7d 65727665644d 
00001c83 3431423700 
00001c88 9304           6389 	.byte	147,4
00001c8a 0a             6390 	.byte	10
00001c8b 02             6391 	.byte	2
00001c8c 00000000*      6392 	.word	.LDW_28a9ed8
00001c90 0223           6393 	.byte	2,35
00001c92 07             6394 	.byte	7
00001c93 01             6395 	.byte	1
                        6396 
00001c94 00             6397 	.byte	0
                        6398 
                        6399 .LDW_4c44108:
00001c95 43             6400 	.byte	67
00001c96 8b04           6401 	.byte	139,4
00001c98 01             6402 	.byte	1
00001c99 02             6403 	.byte	2
00001c9a 08             6404 	.byte	8
00001c9b 01             6405 	.byte	1
                        6406 
                        6407 .LDW_4c43490:
00001c9c 23             6408 	.byte	35
00001c9d 4d6573736167   6409 	.strz	"MessageMultiplex_41"
00001ca3 654d756c7469 
00001ca9 706c65785f34 
00001caf 3100 
00001cb1 8c04           6410 	.byte	140,4
00001cb3 11             6411 	.byte	17
00001cb4 02             6412 	.byte	2
00001cb5 00000000*      6413 	.word	.LDW_28ac600
00001cb9 0223           6414 	.byte	2,35
00001cbb 00             6415 	.byte	0
00001cbc 01             6416 	.byte	1
                        6417 
                        6418 .LDW_4c42f80:
00001cbd 23             6419 	.byte	35
00001cbe 537472756374   6420 	.strz	"Struct_MessageMultiplex_41"
00001cc4 5f4d65737361 
00001cca 67654d756c74 
00001cd0 69706c65785f 
00001cd6 343100 
00001cd9 9404           6421 	.byte	148,4
00001cdb 04             6422 	.byte	4
00001cdc 02             6423 	.byte	2
00001cdd 00000000*      6424 	.word	.LDW_4c443c8
00001ce1 0223           6425 	.byte	2,35
00001ce3 00             6426 	.byte	0
00001ce4 01             6427 	.byte	1

                                                                      Page 124
                                                              C:\Users\nhuliyap\AppData\Local\Temp\gh_00006601.s
                        6428 
00001ce5 00             6429 	.byte	0
                        6430 
                        6431 .LDW_4c44318:
00001ce6 28             6432 	.byte	40
00001ce7 44434d5f555f   6433 	.strz	"DCM_U_MultiplexMessage_41"
00001ced 4d756c746970 
00001cf3 6c65784d6573 
00001cf9 736167655f34 
00001cff 3100 
00001d01 9504           6434 	.byte	149,4
00001d03 02             6435 	.byte	2
00001d04 02             6436 	.byte	2
00001d05 00000000*      6437 	.word	.LDW_4c44108
                        6438 
                        6439 .LDW_4c44160:
00001d09 40             6440 	.byte	64
00001d0a 44434d5f535f   6441 	.strz	"DCM_S_MultiplexMessage_42"
00001d10 4d756c746970 
00001d16 6c65784d6573 
00001d1c 736167655f34 
00001d22 3200 
00001d24 9a04           6442 	.byte	154,4
00001d26 0a             6443 	.byte	10
00001d27 02             6444 	.byte	2
00001d28 08             6445 	.byte	8
00001d29 01             6446 	.byte	1
                        6447 
                        6448 .LDW_4c43130:
00001d2a 23             6449 	.byte	35
00001d2b 75385f4d756c   6450 	.strz	"u8_MultiplexID"
00001d31 7469706c6578 
00001d37 494400 
00001d3a 9c04           6451 	.byte	156,4
00001d3c 0a             6452 	.byte	10
00001d3d 02             6453 	.byte	2
00001d3e 00000000*      6454 	.word	.LDW_28a9ed8
00001d42 0223           6455 	.byte	2,35
00001d44 00             6456 	.byte	0
00001d45 01             6457 	.byte	1
                        6458 
                        6459 .LDW_4c433b8:
00001d46 23             6460 	.byte	35
00001d47 75385f5a6f6d   6461 	.strz	"u8_ZomWuID2"
00001d4d 577549443200 
00001d53 9d04           6462 	.byte	157,4
00001d55 0a             6463 	.byte	10
00001d56 02             6464 	.byte	2
00001d57 00000000*      6465 	.word	.LDW_4c40fa8
00001d5b 0223           6466 	.byte	2,35
00001d5d 01             6467 	.byte	1
00001d5e 01             6468 	.byte	1
                        6469 
                        6470 .LDW_4c42f38:
00001d5f 23             6471 	.byte	35
00001d60 75385f5a6f6d   6472 	.strz	"u8_ZomAutolocStatus2"
00001d66 4175746f6c6f 
00001d6c 635374617475 
00001d72 733200 
00001d75 9e04           6473 	.byte	158,4
00001d77 0a             6474 	.byte	10

                                                                      Page 125
                                                              C:\Users\nhuliyap\AppData\Local\Temp\gh_00006601.s
00001d78 02             6475 	.byte	2
00001d79 00000000*      6476 	.word	.LDW_28a9ed8
00001d7d 0223           6477 	.byte	2,35
00001d7f 05             6478 	.byte	5
00001d80 01             6479 	.byte	1
                        6480 
                        6481 .LDW_4c434d8:
00001d81 23             6482 	.byte	35
00001d82 75385f5a6f6d   6483 	.strz	"u8_ZomTelCnt2"
00001d88 54656c436e74 
00001d8e 3200 
00001d90 9f04           6484 	.byte	159,4
00001d92 0a             6485 	.byte	10
00001d93 02             6486 	.byte	2
00001d94 00000000*      6487 	.word	.LDW_28a9ed8
00001d98 0223           6488 	.byte	2,35
00001d9a 06             6489 	.byte	6
00001d9b 01             6490 	.byte	1
                        6491 
                        6492 .LDW_4c431c0:
00001d9c 23             6493 	.byte	35
00001d9d 75385f526573   6494 	.strz	"u8_ReservedM42B7"
00001da3 65727665644d 
00001da9 3432423700 
00001dae a004           6495 	.byte	160,4
00001db0 0a             6496 	.byte	10
00001db1 02             6497 	.byte	2
00001db2 00000000*      6498 	.word	.LDW_28a9ed8
00001db6 0223           6499 	.byte	2,35
00001db8 07             6500 	.byte	7
00001db9 01             6501 	.byte	1
                        6502 
00001dba 00             6503 	.byte	0
                        6504 
                        6505 .LDW_4c441b8:
00001dbb 43             6506 	.byte	67
00001dbc 9804           6507 	.byte	152,4
00001dbe 01             6508 	.byte	1
00001dbf 02             6509 	.byte	2
00001dc0 08             6510 	.byte	8
00001dc1 01             6511 	.byte	1
                        6512 
                        6513 .LDW_4c43520:
00001dc2 23             6514 	.byte	35
00001dc3 4d6573736167   6515 	.strz	"MessageMultiplex_42"
00001dc9 654d756c7469 
00001dcf 706c65785f34 
00001dd5 3200 
00001dd7 9904           6516 	.byte	153,4
00001dd9 11             6517 	.byte	17
00001dda 02             6518 	.byte	2
00001ddb 00000000*      6519 	.word	.LDW_28ac600
00001ddf 0223           6520 	.byte	2,35
00001de1 00             6521 	.byte	0
00001de2 01             6522 	.byte	1
                        6523 
                        6524 .LDW_4c43178:
00001de3 23             6525 	.byte	35
00001de4 537472756374   6526 	.strz	"Struct_MessageMultiplex_42"
00001dea 5f4d65737361 
00001df0 67654d756c74 

                                                                      Page 126
                                                              C:\Users\nhuliyap\AppData\Local\Temp\gh_00006601.s
00001df6 69706c65785f 
00001dfc 343200 
00001dff a104           6527 	.byte	161,4
00001e01 04             6528 	.byte	4
00001e02 02             6529 	.byte	2
00001e03 00000000*      6530 	.word	.LDW_4c44160
00001e07 0223           6531 	.byte	2,35
00001e09 00             6532 	.byte	0
00001e0a 01             6533 	.byte	1
                        6534 
00001e0b 00             6535 	.byte	0
                        6536 
                        6537 .LDW_4c44210:
00001e0c 28             6538 	.byte	40
00001e0d 44434d5f555f   6539 	.strz	"DCM_U_MultiplexMessage_42"
00001e13 4d756c746970 
00001e19 6c65784d6573 
00001e1f 736167655f34 
00001e25 3200 
00001e27 a204           6540 	.byte	162,4
00001e29 02             6541 	.byte	2
00001e2a 02             6542 	.byte	2
00001e2b 00000000*      6543 	.word	.LDW_4c441b8
                        6544 
                        6545 .LDW_4c44268:
00001e2f 40             6546 	.byte	64
00001e30 44434d5f535f   6547 	.strz	"DCM_S_MultiplexMessage_43"
00001e36 4d756c746970 
00001e3c 6c65784d6573 
00001e42 736167655f34 
00001e48 3300 
00001e4a a704           6548 	.byte	167,4
00001e4c 0a             6549 	.byte	10
00001e4d 02             6550 	.byte	2
00001e4e 08             6551 	.byte	8
00001e4f 01             6552 	.byte	1
                        6553 
                        6554 .LDW_4c43208:
00001e50 23             6555 	.byte	35
00001e51 75385f4d756c   6556 	.strz	"u8_MultiplexID"
00001e57 7469706c6578 
00001e5d 494400 
00001e60 a904           6557 	.byte	169,4
00001e62 0a             6558 	.byte	10
00001e63 02             6559 	.byte	2
00001e64 00000000*      6560 	.word	.LDW_28a9ed8
00001e68 0223           6561 	.byte	2,35
00001e6a 00             6562 	.byte	0
00001e6b 01             6563 	.byte	1
                        6564 
                        6565 .LDW_4c42ea8:
00001e6c 23             6566 	.byte	35
00001e6d 75385f5a6f6d   6567 	.strz	"u8_ZomWuID3"
00001e73 577549443300 
00001e79 aa04           6568 	.byte	170,4
00001e7b 0a             6569 	.byte	10
00001e7c 02             6570 	.byte	2
00001e7d 00000000*      6571 	.word	.LDW_4c40838
00001e81 0223           6572 	.byte	2,35
00001e83 01             6573 	.byte	1
00001e84 01             6574 	.byte	1

                                                                      Page 127
                                                              C:\Users\nhuliyap\AppData\Local\Temp\gh_00006601.s
                        6575 
                        6576 .LDW_4c43298:
00001e85 23             6577 	.byte	35
00001e86 75385f5a6f6d   6578 	.strz	"u8_ZomAutolocStatus3"
00001e8c 4175746f6c6f 
00001e92 635374617475 
00001e98 733300 
00001e9b ab04           6579 	.byte	171,4
00001e9d 0a             6580 	.byte	10
00001e9e 02             6581 	.byte	2
00001e9f 00000000*      6582 	.word	.LDW_28a9ed8
00001ea3 0223           6583 	.byte	2,35
00001ea5 05             6584 	.byte	5
00001ea6 01             6585 	.byte	1
                        6586 
                        6587 .LDW_4c43250:
00001ea7 23             6588 	.byte	35
00001ea8 75385f5a6f6d   6589 	.strz	"u8_ZomTelCnt3"
00001eae 54656c436e74 
00001eb4 3300 
00001eb6 ac04           6590 	.byte	172,4
00001eb8 0a             6591 	.byte	10
00001eb9 02             6592 	.byte	2
00001eba 00000000*      6593 	.word	.LDW_28a9ed8
00001ebe 0223           6594 	.byte	2,35
00001ec0 06             6595 	.byte	6
00001ec1 01             6596 	.byte	1
                        6597 
                        6598 .LDW_4c43328:
00001ec2 23             6599 	.byte	35
00001ec3 75385f526573   6600 	.strz	"u8_ReservedM43B7"
00001ec9 65727665644d 
00001ecf 3433423700 
00001ed4 ad04           6601 	.byte	173,4
00001ed6 0a             6602 	.byte	10
00001ed7 02             6603 	.byte	2
00001ed8 00000000*      6604 	.word	.LDW_28a9ed8
00001edc 0223           6605 	.byte	2,35
00001ede 07             6606 	.byte	7
00001edf 01             6607 	.byte	1
                        6608 
00001ee0 00             6609 	.byte	0
                        6610 
                        6611 .LDW_4c43870:
00001ee1 43             6612 	.byte	67
00001ee2 a504           6613 	.byte	165,4
00001ee4 01             6614 	.byte	1
00001ee5 02             6615 	.byte	2
00001ee6 08             6616 	.byte	8
00001ee7 01             6617 	.byte	1
                        6618 
                        6619 .LDW_4c43400:
00001ee8 23             6620 	.byte	35
00001ee9 4d6573736167   6621 	.strz	"MessageMultiplex_43"
00001eef 654d756c7469 
00001ef5 706c65785f34 
00001efb 3300 
00001efd a604           6622 	.byte	166,4
00001eff 11             6623 	.byte	17
00001f00 02             6624 	.byte	2
00001f01 00000000*      6625 	.word	.LDW_28ac600

                                                                      Page 128
                                                              C:\Users\nhuliyap\AppData\Local\Temp\gh_00006601.s
00001f05 0223           6626 	.byte	2,35
00001f07 00             6627 	.byte	0
00001f08 01             6628 	.byte	1
                        6629 
                        6630 .LDW_4c43370:
00001f09 23             6631 	.byte	35
00001f0a 537472756374   6632 	.strz	"Struct_MessageMultiplex_43"
00001f10 5f4d65737361 
00001f16 67654d756c74 
00001f1c 69706c65785f 
00001f22 343300 
00001f25 ae04           6633 	.byte	174,4
00001f27 04             6634 	.byte	4
00001f28 02             6635 	.byte	2
00001f29 00000000*      6636 	.word	.LDW_4c44268
00001f2d 0223           6637 	.byte	2,35
00001f2f 00             6638 	.byte	0
00001f30 01             6639 	.byte	1
                        6640 
00001f31 00             6641 	.byte	0
                        6642 
                        6643 .LDW_4c43c90:
00001f32 28             6644 	.byte	40
00001f33 44434d5f555f   6645 	.strz	"DCM_U_MultiplexMessage_43"
00001f39 4d756c746970 
00001f3f 6c65784d6573 
00001f45 736167655f34 
00001f4b 3300 
00001f4d af04           6646 	.byte	175,4
00001f4f 02             6647 	.byte	2
00001f50 02             6648 	.byte	2
00001f51 00000000*      6649 	.word	.LDW_4c43870
                        6650 
                        6651 .LDW_4c43ef8:
00001f55 40             6652 	.byte	64
00001f56 44434d5f535f   6653 	.strz	"DCM_S_MultiplexMessage_44"
00001f5c 4d756c746970 
00001f62 6c65784d6573 
00001f68 736167655f34 
00001f6e 3400 
00001f70 b404           6654 	.byte	180,4
00001f72 0a             6655 	.byte	10
00001f73 02             6656 	.byte	2
00001f74 08             6657 	.byte	8
00001f75 01             6658 	.byte	1
                        6659 
                        6660 .LDW_4c42ef0:
00001f76 23             6661 	.byte	35
00001f77 75385f4d756c   6662 	.strz	"u8_MultiplexID"
00001f7d 7469706c6578 
00001f83 494400 
00001f86 b604           6663 	.byte	182,4
00001f88 0a             6664 	.byte	10
00001f89 02             6665 	.byte	2
00001f8a 00000000*      6666 	.word	.LDW_28a9ed8
00001f8e 0223           6667 	.byte	2,35
00001f90 00             6668 	.byte	0
00001f91 01             6669 	.byte	1
                        6670 
                        6671 .LDW_4c42fc8:
00001f92 23             6672 	.byte	35

                                                                      Page 129
                                                              C:\Users\nhuliyap\AppData\Local\Temp\gh_00006601.s
00001f93 75385f5a6f6d   6673 	.strz	"u8_ZomWuID4"
00001f99 577549443400 
00001f9f b704           6674 	.byte	183,4
00001fa1 0a             6675 	.byte	10
00001fa2 02             6676 	.byte	2
00001fa3 00000000*      6677 	.word	.LDW_4c41140
00001fa7 0223           6678 	.byte	2,35
00001fa9 01             6679 	.byte	1
00001faa 01             6680 	.byte	1
                        6681 
                        6682 .LDW_4c43058:
00001fab 23             6683 	.byte	35
00001fac 75385f5a6f6d   6684 	.strz	"u8_ZomAutolocStatus4"
00001fb2 4175746f6c6f 
00001fb8 635374617475 
00001fbe 733400 
00001fc1 b804           6685 	.byte	184,4
00001fc3 0a             6686 	.byte	10
00001fc4 02             6687 	.byte	2
00001fc5 00000000*      6688 	.word	.LDW_28a9ed8
00001fc9 0223           6689 	.byte	2,35
00001fcb 05             6690 	.byte	5
00001fcc 01             6691 	.byte	1
                        6692 
                        6693 .LDW_4c430a0:
00001fcd 23             6694 	.byte	35
00001fce 75385f5a6f6d   6695 	.strz	"u8_ZomTelCnt4"
00001fd4 54656c436e74 
00001fda 3400 
00001fdc b904           6696 	.byte	185,4
00001fde 0a             6697 	.byte	10
00001fdf 02             6698 	.byte	2
00001fe0 00000000*      6699 	.word	.LDW_28a9ed8
00001fe4 0223           6700 	.byte	2,35
00001fe6 06             6701 	.byte	6
00001fe7 01             6702 	.byte	1
                        6703 
                        6704 .LDW_4c44648:
00001fe8 23             6705 	.byte	35
00001fe9 75385f526573   6706 	.strz	"u8_ReservedM44B7"
00001fef 65727665644d 
00001ff5 3434423700 
00001ffa ba04           6707 	.byte	186,4
00001ffc 0a             6708 	.byte	10
00001ffd 02             6709 	.byte	2
00001ffe 00000000*      6710 	.word	.LDW_28a9ed8
00002002 0223           6711 	.byte	2,35
00002004 07             6712 	.byte	7
00002005 01             6713 	.byte	1
                        6714 
00002006 00             6715 	.byte	0
                        6716 
                        6717 .LDW_4c43ea0:
00002007 43             6718 	.byte	67
00002008 b204           6719 	.byte	178,4
0000200a 01             6720 	.byte	1
0000200b 02             6721 	.byte	2
0000200c 08             6722 	.byte	8
0000200d 01             6723 	.byte	1
                        6724 
                        6725 .LDW_4c44690:

                                                                      Page 130
                                                              C:\Users\nhuliyap\AppData\Local\Temp\gh_00006601.s
0000200e 23             6726 	.byte	35
0000200f 4d6573736167   6727 	.strz	"MessageMultiplex_44"
00002015 654d756c7469 
0000201b 706c65785f34 
00002021 3400 
00002023 b304           6728 	.byte	179,4
00002025 11             6729 	.byte	17
00002026 02             6730 	.byte	2
00002027 00000000*      6731 	.word	.LDW_28ac600
0000202b 0223           6732 	.byte	2,35
0000202d 00             6733 	.byte	0
0000202e 01             6734 	.byte	1
                        6735 
                        6736 .LDW_4c44a38:
0000202f 23             6737 	.byte	35
00002030 537472756374   6738 	.strz	"Struct_MessageMultiplex_44"
00002036 5f4d65737361 
0000203c 67654d756c74 
00002042 69706c65785f 
00002048 343400 
0000204b bb04           6739 	.byte	187,4
0000204d 04             6740 	.byte	4
0000204e 02             6741 	.byte	2
0000204f 00000000*      6742 	.word	.LDW_4c43ef8
00002053 0223           6743 	.byte	2,35
00002055 00             6744 	.byte	0
00002056 01             6745 	.byte	1
                        6746 
00002057 00             6747 	.byte	0
                        6748 
                        6749 .LDW_4c43608:
00002058 28             6750 	.byte	40
00002059 44434d5f555f   6751 	.strz	"DCM_U_MultiplexMessage_44"
0000205f 4d756c746970 
00002065 6c65784d6573 
0000206b 736167655f34 
00002071 3400 
00002073 bc04           6752 	.byte	188,4
00002075 02             6753 	.byte	2
00002076 02             6754 	.byte	2
00002077 00000000*      6755 	.word	.LDW_4c43ea0
                        6756 
                        6757 .LDW_4c43a80:
0000207b 40             6758 	.byte	64
0000207c 44434d5f535f   6759 	.strz	"DCM_S_MultiplexMessage_45"
00002082 4d756c746970 
00002088 6c65784d6573 
0000208e 736167655f34 
00002094 3500 
00002096 c104           6760 	.byte	193,4
00002098 0a             6761 	.byte	10
00002099 02             6762 	.byte	2
0000209a 0c             6763 	.byte	12
0000209b 01             6764 	.byte	1
                        6765 
                        6766 .LDW_4c44ba0:
0000209c 23             6767 	.byte	35
0000209d 75385f4d756c   6768 	.strz	"u8_MultiplexID"
000020a3 7469706c6578 
000020a9 494400 
000020ac c304           6769 	.byte	195,4

                                                                      Page 131
                                                              C:\Users\nhuliyap\AppData\Local\Temp\gh_00006601.s
000020ae 0a             6770 	.byte	10
000020af 02             6771 	.byte	2
000020b0 00000000*      6772 	.word	.LDW_28a9ed8
000020b4 0223           6773 	.byte	2,35
000020b6 00             6774 	.byte	0
000020b7 01             6775 	.byte	1
                        6776 
                        6777 .LDW_4c446d8:
000020b8 23             6778 	.byte	35
000020b9 75385f5a6f6d   6779 	.strz	"u8_ZomWuID5"
000020bf 577549443500 
000020c5 c404           6780 	.byte	196,4
000020c7 0a             6781 	.byte	10
000020c8 02             6782 	.byte	2
000020c9 00000000*      6783 	.word	.LDW_4c40c78
000020cd 0223           6784 	.byte	2,35
000020cf 01             6785 	.byte	1
000020d0 01             6786 	.byte	1
                        6787 
                        6788 .LDW_4c44840:
000020d1 23             6789 	.byte	35
000020d2 75385f5a6f6d   6790 	.strz	"u8_ZomAutolocStatus5"
000020d8 4175746f6c6f 
000020de 635374617475 
000020e4 733500 
000020e7 c504           6791 	.byte	197,4
000020e9 0a             6792 	.byte	10
000020ea 02             6793 	.byte	2
000020eb 00000000*      6794 	.word	.LDW_28a9ed8
000020ef 0223           6795 	.byte	2,35
000020f1 09             6796 	.byte	9
000020f2 01             6797 	.byte	1
                        6798 
                        6799 .LDW_4c44888:
000020f3 23             6800 	.byte	35
000020f4 75385f5a6f6d   6801 	.strz	"u8_ZomTelCnt5"
000020fa 54656c436e74 
00002100 3500 
00002102 c604           6802 	.byte	198,4
00002104 0a             6803 	.byte	10
00002105 02             6804 	.byte	2
00002106 00000000*      6805 	.word	.LDW_28a9ed8
0000210a 0223           6806 	.byte	2,35
0000210c 0a             6807 	.byte	10
0000210d 01             6808 	.byte	1
                        6809 
                        6810 .LDW_4c44c30:
0000210e 23             6811 	.byte	35
0000210f 75385f526573   6812 	.strz	"u8_ReservedM45B7"
00002115 65727665644d 
0000211b 3435423700 
00002120 c704           6813 	.byte	199,4
00002122 0a             6814 	.byte	10
00002123 02             6815 	.byte	2
00002124 00000000*      6816 	.word	.LDW_28a9ed8
00002128 0223           6817 	.byte	2,35
0000212a 0b             6818 	.byte	11
0000212b 01             6819 	.byte	1
                        6820 
0000212c 00             6821 	.byte	0
                        6822 

                                                                      Page 132
                                                              C:\Users\nhuliyap\AppData\Local\Temp\gh_00006601.s
                        6823 .LDW_4c43b88:
0000212d 43             6824 	.byte	67
0000212e bf04           6825 	.byte	191,4
00002130 01             6826 	.byte	1
00002131 02             6827 	.byte	2
00002132 0c             6828 	.byte	12
00002133 01             6829 	.byte	1
                        6830 
                        6831 .LDW_4c445b8:
00002134 23             6832 	.byte	35
00002135 4d6573736167   6833 	.strz	"MessageMultiplex_45"
0000213b 654d756c7469 
00002141 706c65785f34 
00002147 3500 
00002149 c004           6834 	.byte	192,4
0000214b 11             6835 	.byte	17
0000214c 02             6836 	.byte	2
0000214d 00000000*      6837 	.word	.LDW_28ac600
00002151 0223           6838 	.byte	2,35
00002153 00             6839 	.byte	0
00002154 01             6840 	.byte	1
                        6841 
                        6842 .LDW_4c449a8:
00002155 23             6843 	.byte	35
00002156 537472756374   6844 	.strz	"Struct_MessageMultiplex_45"
0000215c 5f4d65737361 
00002162 67654d756c74 
00002168 69706c65785f 
0000216e 343500 
00002171 c804           6845 	.byte	200,4
00002173 04             6846 	.byte	4
00002174 02             6847 	.byte	2
00002175 00000000*      6848 	.word	.LDW_4c43a80
00002179 0223           6849 	.byte	2,35
0000217b 00             6850 	.byte	0
0000217c 01             6851 	.byte	1
                        6852 
0000217d 00             6853 	.byte	0
                        6854 
                        6855 .LDW_4c438c8:
0000217e 28             6856 	.byte	40
0000217f 44434d5f555f   6857 	.strz	"DCM_U_MultiplexMessage_45"
00002185 4d756c746970 
0000218b 6c65784d6573 
00002191 736167655f34 
00002197 3500 
00002199 c904           6858 	.byte	201,4
0000219b 02             6859 	.byte	2
0000219c 02             6860 	.byte	2
0000219d 00000000*      6861 	.word	.LDW_4c43b88
                        6862 
                        6863 .LDW_4c436b8:
000021a1 40             6864 	.byte	64
000021a2 44434d5f535f   6865 	.strz	"DCM_S_MultiplexMessage_46"
000021a8 4d756c746970 
000021ae 6c65784d6573 
000021b4 736167655f34 
000021ba 3600 
000021bc ce04           6866 	.byte	206,4
000021be 0a             6867 	.byte	10
000021bf 02             6868 	.byte	2

                                                                      Page 133
                                                              C:\Users\nhuliyap\AppData\Local\Temp\gh_00006601.s
000021c0 08             6869 	.byte	8
000021c1 01             6870 	.byte	1
                        6871 
                        6872 .LDW_4c447b0:
000021c2 23             6873 	.byte	35
000021c3 75385f4d756c   6874 	.strz	"u8_MultiplexID"
000021c9 7469706c6578 
000021cf 494400 
000021d2 d004           6875 	.byte	208,4
000021d4 0a             6876 	.byte	10
000021d5 02             6877 	.byte	2
000021d6 00000000*      6878 	.word	.LDW_28a9ed8
000021da 0223           6879 	.byte	2,35
000021dc 00             6880 	.byte	0
000021dd 01             6881 	.byte	1
                        6882 
                        6883 .LDW_4c44d98:
000021de 23             6884 	.byte	35
000021df 75385f5a6f6d   6885 	.strz	"u8_ZomWuID6"
000021e5 577549443600 
000021eb d104           6886 	.byte	209,4
000021ed 0a             6887 	.byte	10
000021ee 02             6888 	.byte	2
000021ef 00000000*      6889 	.word	.LDW_4c40bf0
000021f3 0223           6890 	.byte	2,35
000021f5 01             6891 	.byte	1
000021f6 01             6892 	.byte	1
                        6893 
                        6894 .LDW_4c44a80:
000021f7 23             6895 	.byte	35
000021f8 75385f5a6f6d   6896 	.strz	"u8_ZomAutolocStatus6"
000021fe 4175746f6c6f 
00002204 635374617475 
0000220a 733600 
0000220d d204           6897 	.byte	210,4
0000220f 0a             6898 	.byte	10
00002210 02             6899 	.byte	2
00002211 00000000*      6900 	.word	.LDW_28a9ed8
00002215 0223           6901 	.byte	2,35
00002217 05             6902 	.byte	5
00002218 01             6903 	.byte	1
                        6904 
                        6905 .LDW_4c44c78:
00002219 23             6906 	.byte	35
0000221a 75385f5a6f6d   6907 	.strz	"u8_ZomTelCnt6"
00002220 54656c436e74 
00002226 3600 
00002228 d304           6908 	.byte	211,4
0000222a 0a             6909 	.byte	10
0000222b 02             6910 	.byte	2
0000222c 00000000*      6911 	.word	.LDW_28a9ed8
00002230 0223           6912 	.byte	2,35
00002232 06             6913 	.byte	6
00002233 01             6914 	.byte	1
                        6915 
                        6916 .LDW_4c44b10:
00002234 23             6917 	.byte	35
00002235 75385f526573   6918 	.strz	"u8_ReservedM46B7"
0000223b 65727665644d 
00002241 3436423700 
00002246 d404           6919 	.byte	212,4

                                                                      Page 134
                                                              C:\Users\nhuliyap\AppData\Local\Temp\gh_00006601.s
00002248 0a             6920 	.byte	10
00002249 02             6921 	.byte	2
0000224a 00000000*      6922 	.word	.LDW_28a9ed8
0000224e 0223           6923 	.byte	2,35
00002250 07             6924 	.byte	7
00002251 01             6925 	.byte	1
                        6926 
00002252 00             6927 	.byte	0
                        6928 
                        6929 .LDW_4c437c0:
00002253 43             6930 	.byte	67
00002254 cc04           6931 	.byte	204,4
00002256 01             6932 	.byte	1
00002257 02             6933 	.byte	2
00002258 08             6934 	.byte	8
00002259 01             6935 	.byte	1
                        6936 
                        6937 .LDW_4c44768:
0000225a 23             6938 	.byte	35
0000225b 4d6573736167   6939 	.strz	"MessageMultiplex_46"
00002261 654d756c7469 
00002267 706c65785f34 
0000226d 3600 
0000226f cd04           6940 	.byte	205,4
00002271 11             6941 	.byte	17
00002272 02             6942 	.byte	2
00002273 00000000*      6943 	.word	.LDW_28ac600
00002277 0223           6944 	.byte	2,35
00002279 00             6945 	.byte	0
0000227a 01             6946 	.byte	1
                        6947 
                        6948 .LDW_4c44d08:
0000227b 23             6949 	.byte	35
0000227c 537472756374   6950 	.strz	"Struct_MessageMultiplex_46"
00002282 5f4d65737361 
00002288 67654d756c74 
0000228e 69706c65785f 
00002294 343600 
00002297 d504           6951 	.byte	213,4
00002299 04             6952 	.byte	4
0000229a 02             6953 	.byte	2
0000229b 00000000*      6954 	.word	.LDW_4c436b8
0000229f 0223           6955 	.byte	2,35
000022a1 00             6956 	.byte	0
000022a2 01             6957 	.byte	1
                        6958 
000022a3 00             6959 	.byte	0
                        6960 
                        6961 .LDW_4c43f50:
000022a4 28             6962 	.byte	40
000022a5 44434d5f555f   6963 	.strz	"DCM_U_MultiplexMessage_46"
000022ab 4d756c746970 
000022b1 6c65784d6573 
000022b7 736167655f34 
000022bd 3600 
000022bf d604           6964 	.byte	214,4
000022c1 02             6965 	.byte	2
000022c2 02             6966 	.byte	2
000022c3 00000000*      6967 	.word	.LDW_4c437c0
                        6968 
                        6969 .LDW_4c43ad8:

                                                                      Page 135
                                                              C:\Users\nhuliyap\AppData\Local\Temp\gh_00006601.s
000022c7 40             6970 	.byte	64
000022c8 44434d5f535f   6971 	.strz	"DCM_S_MultiplexMessage_47"
000022ce 4d756c746970 
000022d4 6c65784d6573 
000022da 736167655f34 
000022e0 3700 
000022e2 db04           6972 	.byte	219,4
000022e4 0a             6973 	.byte	10
000022e5 02             6974 	.byte	2
000022e6 08             6975 	.byte	8
000022e7 01             6976 	.byte	1
                        6977 
                        6978 .LDW_4c44de0:
000022e8 23             6979 	.byte	35
000022e9 75385f4d756c   6980 	.strz	"u8_MultiplexID"
000022ef 7469706c6578 
000022f5 494400 
000022f8 dd04           6981 	.byte	221,4
000022fa 0a             6982 	.byte	10
000022fb 02             6983 	.byte	2
000022fc 00000000*      6984 	.word	.LDW_28a9ed8
00002300 0223           6985 	.byte	2,35
00002302 00             6986 	.byte	0
00002303 01             6987 	.byte	1
                        6988 
                        6989 .LDW_4c44e28:
00002304 23             6990 	.byte	35
00002305 75385f5a6f6d   6991 	.strz	"u8_ZomWuID7"
0000230b 577549443700 
00002311 de04           6992 	.byte	222,4
00002313 0a             6993 	.byte	10
00002314 02             6994 	.byte	2
00002315 00000000*      6995 	.word	.LDW_4c40f20
00002319 0223           6996 	.byte	2,35
0000231b 01             6997 	.byte	1
0000231c 01             6998 	.byte	1
                        6999 
                        7000 .LDW_4c44e70:
0000231d 23             7001 	.byte	35
0000231e 75385f5a6f6d   7002 	.strz	"u8_ZomAutolocStatus7"
00002324 4175746f6c6f 
0000232a 635374617475 
00002330 733700 
00002333 df04           7003 	.byte	223,4
00002335 0a             7004 	.byte	10
00002336 02             7005 	.byte	2
00002337 00000000*      7006 	.word	.LDW_28a9ed8
0000233b 0223           7007 	.byte	2,35
0000233d 05             7008 	.byte	5
0000233e 01             7009 	.byte	1
                        7010 
                        7011 .LDW_4c44720:
0000233f 23             7012 	.byte	35
00002340 75385f5a6f6d   7013 	.strz	"u8_ZomTelCnt7"
00002346 54656c436e74 
0000234c 3700 
0000234e e004           7014 	.byte	224,4
00002350 0a             7015 	.byte	10
00002351 02             7016 	.byte	2
00002352 00000000*      7017 	.word	.LDW_28a9ed8
00002356 0223           7018 	.byte	2,35

                                                                      Page 136
                                                              C:\Users\nhuliyap\AppData\Local\Temp\gh_00006601.s
00002358 06             7019 	.byte	6
00002359 01             7020 	.byte	1
                        7021 
                        7022 .LDW_4c44ac8:
0000235a 23             7023 	.byte	35
0000235b 75385f526573   7024 	.strz	"u8_ReservedM47B7"
00002361 65727665644d 
00002367 3437423700 
0000236c e104           7025 	.byte	225,4
0000236e 0a             7026 	.byte	10
0000236f 02             7027 	.byte	2
00002370 00000000*      7028 	.word	.LDW_28a9ed8
00002374 0223           7029 	.byte	2,35
00002376 07             7030 	.byte	7
00002377 01             7031 	.byte	1
                        7032 
00002378 00             7033 	.byte	0
                        7034 
                        7035 .LDW_4c439d0:
00002379 43             7036 	.byte	67
0000237a d904           7037 	.byte	217,4
0000237c 01             7038 	.byte	1
0000237d 02             7039 	.byte	2
0000237e 08             7040 	.byte	8
0000237f 01             7041 	.byte	1
                        7042 
                        7043 .LDW_4c448d0:
00002380 23             7044 	.byte	35
00002381 4d6573736167   7045 	.strz	"MessageMultiplex_47"
00002387 654d756c7469 
0000238d 706c65785f34 
00002393 3700 
00002395 da04           7046 	.byte	218,4
00002397 11             7047 	.byte	17
00002398 02             7048 	.byte	2
00002399 00000000*      7049 	.word	.LDW_28ac600
0000239d 0223           7050 	.byte	2,35
0000239f 00             7051 	.byte	0
000023a0 01             7052 	.byte	1
                        7053 
                        7054 .LDW_4c44d50:
000023a1 23             7055 	.byte	35
000023a2 537472756374   7056 	.strz	"Struct_MessageMultiplex_47"
000023a8 5f4d65737361 
000023ae 67654d756c74 
000023b4 69706c65785f 
000023ba 343700 
000023bd e204           7057 	.byte	226,4
000023bf 04             7058 	.byte	4
000023c0 02             7059 	.byte	2
000023c1 00000000*      7060 	.word	.LDW_4c43ad8
000023c5 0223           7061 	.byte	2,35
000023c7 00             7062 	.byte	0
000023c8 01             7063 	.byte	1
                        7064 
000023c9 00             7065 	.byte	0
                        7066 
                        7067 .LDW_4c43fa8:
000023ca 28             7068 	.byte	40
000023cb 44434d5f555f   7069 	.strz	"DCM_U_MultiplexMessage_47"
000023d1 4d756c746970 

                                                                      Page 137
                                                              C:\Users\nhuliyap\AppData\Local\Temp\gh_00006601.s
000023d7 6c65784d6573 
000023dd 736167655f34 
000023e3 3700 
000023e5 e304           7070 	.byte	227,4
000023e7 02             7071 	.byte	2
000023e8 02             7072 	.byte	2
000023e9 00000000*      7073 	.word	.LDW_4c439d0
                        7074 
                        7075 .LDW_4c43920:
000023ed 41             7076 	.byte	65
000023ee e604           7077 	.byte	230,4
000023f0 0f             7078 	.byte	15
000023f1 02             7079 	.byte	2
000023f2 bc01           7080 	.byte	188,1
000023f4 01             7081 	.byte	1
                        7082 
                        7083 .LDW_4c44b58:
000023f5 23             7084 	.byte	35
000023f6 44434d5f535f   7085 	.strz	"DCM_S_MultiPlexMess_00"
000023fc 4d756c746950 
00002402 6c65784d6573 
00002408 735f303000 
0000240d e704           7086 	.byte	231,4
0000240f 1d             7087 	.byte	29
00002410 02             7088 	.byte	2
00002411 00000000*      7089 	.word	.LDW_4c3edb0
00002415 0223           7090 	.byte	2,35
00002417 00             7091 	.byte	0
00002418 01             7092 	.byte	1
                        7093 
                        7094 .LDW_4c44600:
00002419 23             7095 	.byte	35
0000241a 44434d5f535f   7096 	.strz	"DCM_S_MultiPlexMess_01"
00002420 4d756c746950 
00002426 6c65784d6573 
0000242c 735f303100 
00002431 e804           7097 	.byte	232,4
00002433 1d             7098 	.byte	29
00002434 02             7099 	.byte	2
00002435 00000000*      7100 	.word	.LDW_4c3efc0
00002439 0223           7101 	.byte	2,35
0000243b 08             7102 	.byte	8
0000243c 01             7103 	.byte	1
                        7104 
                        7105 .LDW_4c44be8:
0000243d 23             7106 	.byte	35
0000243e 44434d5f535f   7107 	.strz	"DCM_S_MultiPlexMess_02"
00002444 4d756c746950 
0000244a 6c65784d6573 
00002450 735f303200 
00002455 e904           7108 	.byte	233,4
00002457 1d             7109 	.byte	29
00002458 02             7110 	.byte	2
00002459 00000000*      7111 	.word	.LDW_4c3ee08
0000245d 0223           7112 	.byte	2,35
0000245f 10             7113 	.byte	16
00002460 01             7114 	.byte	1
                        7115 
                        7116 .LDW_4c447f8:
00002461 23             7117 	.byte	35
00002462 44434d5f535f   7118 	.strz	"DCM_S_MultiPlexMess_03"

                                                                      Page 138
                                                              C:\Users\nhuliyap\AppData\Local\Temp\gh_00006601.s
00002468 4d756c746950 
0000246e 6c65784d6573 
00002474 735f303300 
00002479 ea04           7119 	.byte	234,4
0000247b 1d             7120 	.byte	29
0000247c 02             7121 	.byte	2
0000247d 00000000*      7122 	.word	.LDW_4c3eb48
00002481 0223           7123 	.byte	2,35
00002483 18             7124 	.byte	24
00002484 01             7125 	.byte	1
                        7126 
                        7127 .LDW_4c44918:
00002485 23             7128 	.byte	35
00002486 44434d5f535f   7129 	.strz	"DCM_S_MultiPlexMess_04"
0000248c 4d756c746950 
00002492 6c65784d6573 
00002498 735f303400 
0000249d eb04           7130 	.byte	235,4
0000249f 1d             7131 	.byte	29
000024a0 02             7132 	.byte	2
000024a1 00000000*      7133 	.word	.LDW_4c3e308
000024a5 0223           7134 	.byte	2,35
000024a7 20             7135 	.byte	32
000024a8 01             7136 	.byte	1
                        7137 
                        7138 .LDW_4c44960:
000024a9 23             7139 	.byte	35
000024aa 44434d5f535f   7140 	.strz	"DCM_S_MultiPlexMess_05"
000024b0 4d756c746950 
000024b6 6c65784d6573 
000024bc 735f303500 
000024c1 ec04           7141 	.byte	236,4
000024c3 1d             7142 	.byte	29
000024c4 02             7143 	.byte	2
000024c5 00000000*      7144 	.word	.LDW_4c3e7d8
000024c9 0223           7145 	.byte	2,35
000024cb 28             7146 	.byte	40
000024cc 01             7147 	.byte	1
                        7148 
                        7149 .LDW_4c449f0:
000024cd 23             7150 	.byte	35
000024ce 44434d5f535f   7151 	.strz	"DCM_S_MultiPlexMess_20"
000024d4 4d756c746950 
000024da 6c65784d6573 
000024e0 735f323000 
000024e5 fb04           7152 	.byte	251,4
000024e7 1d             7153 	.byte	29
000024e8 02             7154 	.byte	2
000024e9 00000000*      7155 	.word	.LDW_4c3e888
000024ed 0223           7156 	.byte	2,35
000024ef 30             7157 	.byte	48
000024f0 01             7158 	.byte	1
                        7159 
                        7160 .LDW_4c44cc0:
000024f1 23             7161 	.byte	35
000024f2 44434d5f535f   7162 	.strz	"DCM_S_MultiPlexMess_21"
000024f8 4d756c746950 
000024fe 6c65784d6573 
00002504 735f323100 
00002509 fc04           7163 	.byte	252,4
0000250b 1d             7164 	.byte	29

                                                                      Page 139
                                                              C:\Users\nhuliyap\AppData\Local\Temp\gh_00006601.s
0000250c 02             7165 	.byte	2
0000250d 00000000*      7166 	.word	.LDW_4c3e990
00002511 0223           7167 	.byte	2,35
00002513 38             7168 	.byte	56
00002514 01             7169 	.byte	1
                        7170 
                        7171 .LDW_4c45188:
00002515 23             7172 	.byte	35
00002516 44434d5f535f   7173 	.strz	"DCM_S_MultiPlexMess_22"
0000251c 4d756c746950 
00002522 6c65784d6573 
00002528 735f323200 
0000252d fd04           7174 	.byte	253,4
0000252f 1d             7175 	.byte	29
00002530 02             7176 	.byte	2
00002531 00000000*      7177 	.word	.LDW_4c3e360
00002535 0223           7178 	.byte	2,35
00002537 40             7179 	.byte	64
00002538 01             7180 	.byte	1
                        7181 
                        7182 .LDW_4c44eb8:
00002539 23             7183 	.byte	35
0000253a 44434d5f535f   7184 	.strz	"DCM_S_MultiPlexMess_23"
00002540 4d756c746950 
00002546 6c65784d6573 
0000254c 735f323300 
00002551 fe04           7185 	.byte	254,4
00002553 1d             7186 	.byte	29
00002554 02             7187 	.byte	2
00002555 00000000*      7188 	.word	.LDW_4c3ec50
00002559 0223           7189 	.byte	2,35
0000255b 48             7190 	.byte	72
0000255c 01             7191 	.byte	1
                        7192 
                        7193 .LDW_4c44fd8:
0000255d 23             7194 	.byte	35
0000255e 44434d5f535f   7195 	.strz	"DCM_S_MultiPlexMess_24"
00002564 4d756c746950 
0000256a 6c65784d6573 
00002570 735f323400 
00002575 ff04           7196 	.byte	255,4
00002577 1d             7197 	.byte	29
00002578 02             7198 	.byte	2
00002579 00000000*      7199 	.word	.LDW_4c3eca8
0000257d 0223           7200 	.byte	2,35
0000257f 50             7201 	.byte	80
00002580 01             7202 	.byte	1
                        7203 
                        7204 .LDW_4c45380:
00002581 23             7205 	.byte	35
00002582 44434d5f535f   7206 	.strz	"DCM_S_MultiPlexMess_30"
00002588 4d756c746950 
0000258e 6c65784d6573 
00002594 735f333000 
00002599 8305           7207 	.byte	131,5
0000259b 1d             7208 	.byte	29
0000259c 02             7209 	.byte	2
0000259d 00000000*      7210 	.word	.LDW_4c3e620
000025a1 0223           7211 	.byte	2,35
000025a3 58             7212 	.byte	88
000025a4 01             7213 	.byte	1

                                                                      Page 140
                                                              C:\Users\nhuliyap\AppData\Local\Temp\gh_00006601.s
                        7214 
                        7215 .LDW_4c452a8:
000025a5 23             7216 	.byte	35
000025a6 44434d5f535f   7217 	.strz	"DCM_S_MultiPlexMess_31"
000025ac 4d756c746950 
000025b2 6c65784d6573 
000025b8 735f333100 
000025bd 8405           7218 	.byte	132,5
000025bf 1d             7219 	.byte	29
000025c0 02             7220 	.byte	2
000025c1 00000000*      7221 	.word	.LDW_4c3e410
000025c5 0223           7222 	.byte	2,35
000025c7 60             7223 	.byte	96
000025c8 01             7224 	.byte	1
                        7225 
                        7226 .LDW_4c44f90:
000025c9 23             7227 	.byte	35
000025ca 44434d5f535f   7228 	.strz	"DCM_S_MultiPlexMess_32"
000025d0 4d756c746950 
000025d6 6c65784d6573 
000025dc 735f333200 
000025e1 8505           7229 	.byte	133,5
000025e3 1d             7230 	.byte	29
000025e4 02             7231 	.byte	2
000025e5 00000000*      7232 	.word	.LDW_4c440b0
000025e9 0223           7233 	.byte	2,35
000025eb 68             7234 	.byte	104
000025ec 01             7235 	.byte	1
                        7236 
                        7237 .LDW_4c451d0:
000025ed 23             7238 	.byte	35
000025ee 44434d5f535f   7239 	.strz	"DCM_S_MultiPlexMess_33"
000025f4 4d756c746950 
000025fa 6c65784d6573 
00002600 735f333300 
00002605 8605           7240 	.byte	134,5
00002607 1d             7241 	.byte	29
00002608 02             7242 	.byte	2
00002609 00000000*      7243 	.word	.LDW_4c442c0
0000260d 0223           7244 	.byte	2,35
0000260f 70             7245 	.byte	112
00002610 01             7246 	.byte	1
                        7247 
                        7248 .LDW_4c453c8:
00002611 23             7249 	.byte	35
00002612 44434d5f535f   7250 	.strz	"DCM_S_MultiPlexMess_40"
00002618 4d756c746950 
0000261e 6c65784d6573 
00002624 735f343000 
00002629 8705           7251 	.byte	135,5
0000262b 1d             7252 	.byte	29
0000262c 02             7253 	.byte	2
0000262d 00000000*      7254 	.word	.LDW_4c44528
00002631 0223           7255 	.byte	2,35
00002633 78             7256 	.byte	120
00002634 01             7257 	.byte	1
                        7258 
                        7259 .LDW_4c45260:
00002635 23             7260 	.byte	35
00002636 44434d5f535f   7261 	.strz	"DCM_S_MultiPlexMess_41"
0000263c 4d756c746950 

                                                                      Page 141
                                                              C:\Users\nhuliyap\AppData\Local\Temp\gh_00006601.s
00002642 6c65784d6573 
00002648 735f343100 
0000264d 8805           7262 	.byte	136,5
0000264f 1d             7263 	.byte	29
00002650 02             7264 	.byte	2
00002651 00000000*      7265 	.word	.LDW_4c44318
00002655 0323           7266 	.byte	3,35
00002657 8001           7267 	.byte	128,1
00002659 01             7268 	.byte	1
                        7269 
                        7270 .LDW_4c44f48:
0000265a 23             7271 	.byte	35
0000265b 44434d5f535f   7272 	.strz	"DCM_S_MultiPlexMess_42"
00002661 4d756c746950 
00002667 6c65784d6573 
0000266d 735f343200 
00002672 8905           7273 	.byte	137,5
00002674 1d             7274 	.byte	29
00002675 02             7275 	.byte	2
00002676 00000000*      7276 	.word	.LDW_4c44210
0000267a 0323           7277 	.byte	3,35
0000267c 8801           7278 	.byte	136,1
0000267e 01             7279 	.byte	1
                        7280 
                        7281 .LDW_4c45218:
0000267f 23             7282 	.byte	35
00002680 44434d5f535f   7283 	.strz	"DCM_S_MultiPlexMess_43"
00002686 4d756c746950 
0000268c 6c65784d6573 
00002692 735f343300 
00002697 8a05           7284 	.byte	138,5
00002699 1d             7285 	.byte	29
0000269a 02             7286 	.byte	2
0000269b 00000000*      7287 	.word	.LDW_4c43c90
0000269f 0323           7288 	.byte	3,35
000026a1 9001           7289 	.byte	144,1
000026a3 01             7290 	.byte	1
                        7291 
                        7292 .LDW_4c452f0:
000026a4 23             7293 	.byte	35
000026a5 44434d5f535f   7294 	.strz	"DCM_S_MultiPlexMess_44"
000026ab 4d756c746950 
000026b1 6c65784d6573 
000026b7 735f343400 
000026bc 8b05           7295 	.byte	139,5
000026be 1d             7296 	.byte	29
000026bf 02             7297 	.byte	2
000026c0 00000000*      7298 	.word	.LDW_4c43608
000026c4 0323           7299 	.byte	3,35
000026c6 9801           7300 	.byte	152,1
000026c8 01             7301 	.byte	1
                        7302 
                        7303 .LDW_4c45338:
000026c9 23             7304 	.byte	35
000026ca 44434d5f535f   7305 	.strz	"DCM_S_MultiPlexMess_45"
000026d0 4d756c746950 
000026d6 6c65784d6573 
000026dc 735f343500 
000026e1 8c05           7306 	.byte	140,5
000026e3 1d             7307 	.byte	29
000026e4 02             7308 	.byte	2

                                                                      Page 142
                                                              C:\Users\nhuliyap\AppData\Local\Temp\gh_00006601.s
000026e5 00000000*      7309 	.word	.LDW_4c438c8
000026e9 0323           7310 	.byte	3,35
000026eb a001           7311 	.byte	160,1
000026ed 01             7312 	.byte	1
                        7313 
                        7314 .LDW_4c45410:
000026ee 23             7315 	.byte	35
000026ef 44434d5f535f   7316 	.strz	"DCM_S_MultiPlexMess_46"
000026f5 4d756c746950 
000026fb 6c65784d6573 
00002701 735f343600 
00002706 8d05           7317 	.byte	141,5
00002708 1d             7318 	.byte	29
00002709 02             7319 	.byte	2
0000270a 00000000*      7320 	.word	.LDW_4c43f50
0000270e 0323           7321 	.byte	3,35
00002710 ac01           7322 	.byte	172,1
00002712 01             7323 	.byte	1
                        7324 
                        7325 .LDW_4c45458:
00002713 23             7326 	.byte	35
00002714 44434d5f535f   7327 	.strz	"DCM_S_MultiPlexMess_47"
0000271a 4d756c746950 
00002720 6c65784d6573 
00002726 735f343700 
0000272b 8e05           7328 	.byte	142,5
0000272d 1d             7329 	.byte	29
0000272e 02             7330 	.byte	2
0000272f 00000000*      7331 	.word	.LDW_4c43fa8
00002733 0323           7332 	.byte	3,35
00002735 b401           7333 	.byte	180,1
00002737 01             7334 	.byte	1
                        7335 
00002738 00             7336 	.byte	0
                        7337 
                        7338 .LDW_4c44000:
00002739 28             7339 	.byte	40
0000273a 44434d5f5374   7340 	.strz	"DCM_StructMultiplexMessageIDs"
00002740 727563744d75 
00002746 6c7469706c65 
0000274c 784d65737361 
00002752 676549447300 
00002758 8f05           7341 	.byte	143,5
0000275a 02             7342 	.byte	2
0000275b 02             7343 	.byte	2
0000275c 00000000*      7344 	.word	.LDW_4c43920
                        7345 
                        7346 .LDW_4c43c38:
00002760 28             7347 	.byte	40
00002761 744275696c64   7348 	.strz	"tBuildMsg"
00002767 4d736700 
0000276b a601           7349 	.byte	166,1
0000276d 10             7350 	.byte	16
0000276e 01             7351 	.byte	1
0000276f 00000000*      7352 	.word	.LDW_4c3dd70
                        7353 
                        7354 .LDW_4c435b0:
00002773 41             7355 	.byte	65
00002774 a801           7356 	.byte	168,1
00002776 0f             7357 	.byte	15
00002777 01             7358 	.byte	1

                                                                      Page 143
                                                              C:\Users\nhuliyap\AppData\Local\Temp\gh_00006601.s
00002778 08             7359 	.byte	8
00002779 01             7360 	.byte	1
                        7361 
                        7362 .LDW_4c45b18:
0000277a 23             7363 	.byte	35
0000277b 44434d5f5538   7364 	.strz	"DCM_U8_MultiplexId"
00002781 5f4d756c7469 
00002787 706c65784964 
0000278d 00 
0000278e a901           7365 	.byte	169,1
00002790 09             7366 	.byte	9
00002791 01             7367 	.byte	1
00002792 00000000*      7368 	.word	.LDW_28a9ed8
00002796 0223           7369 	.byte	2,35
00002798 00             7370 	.byte	0
00002799 01             7371 	.byte	1
                        7372 
                        7373 .LDW_4c455c0:
0000279a 23             7374 	.byte	35
0000279b 44434d5f7066   7375 	.strz	"DCM_pfnBuildMsg"
000027a1 6e4275696c64 
000027a7 4d736700 
000027ab aa01           7376 	.byte	170,1
000027ad 13             7377 	.byte	19
000027ae 01             7378 	.byte	1
000027af 00000000*      7379 	.word	.LDW_4c43768
000027b3 0223           7380 	.byte	2,35
000027b5 04             7381 	.byte	4
000027b6 01             7382 	.byte	1
                        7383 
000027b7 00             7384 	.byte	0
                        7385 
                        7386 .LDW_4c43d98:
000027b8 28             7387 	.byte	40
000027b9 44434d5f5374   7388 	.strz	"DCM_Struct_MultiplexDataType"
000027bf 727563745f4d 
000027c5 756c7469706c 
000027cb 657844617461 
000027d1 5479706500 
000027d6 ab01           7389 	.byte	171,1
000027d8 02             7390 	.byte	2
000027d9 01             7391 	.byte	1
000027da 00000000*      7392 	.word	.LDW_4c435b0
                        7393 
                        7394 .LDW_4c43df0:
000027de 04             7395 	.byte	4
000027df 626f5f537472   7396 	.strz	"bo_StructSystemMultiLast"
000027e5 756374537973 
000027eb 74656d4d756c 
000027f1 74694c617374 
000027f7 00 
000027f8 0d             7397 	.byte	13
000027f9 10             7398 	.byte	16
000027fa 01             7399 	.byte	1
000027fb 00000000*      7400 	.word	.LDW_28ac5a8
000027ff 00             7401 	.byte	0
00002800 00             7402 	.byte	0
00002801 0503           7403 	.byte	5,3
00002803 00000000*      7404 	.word	_bo_StructSystemMultiLast..C.3A.5C_ECU2.5CECU_Rivian_A1.5CTarget.5Crepo_projects.5CpRealEcu.5CcL_LATEST.5Cmake.5Coutput.5Cobjects.5CSwcApplTpms_DevCanMessages.
                        7405 
                        7406 	.section	.debug_abbrev

                                                                      Page 144
                                                              C:\Users\nhuliyap\AppData\Local\Temp\gh_00006601.s
000000cb 04             7407 	.byte	4
000000cc 34             7408 	.byte	52
000000cd 00             7409 	.byte	0
000000ce 0308           7410 	.byte	3,8
000000d0 3b0f           7411 	.byte	59,15
000000d2 390f           7412 	.byte	57,15
000000d4 3a0f           7413 	.byte	58,15
000000d6 4910           7414 	.byte	73,16
000000d8 3f0c           7415 	.byte	63,12
000000da 3c0c           7416 	.byte	60,12
000000dc 020a           7417 	.byte	2,10
000000de 0000           7418 	.byte	0,0
                        7419 
                        7420 	.section	.debug_info
                        7421 .LDW_4c467d8:
00002807 04             7422 	.byte	4
00002808 75385f456e76   7423 	.strz	"u8_EnvReadCnt"
0000280e 52656164436e 
00002814 7400 
00002816 0e             7424 	.byte	14
00002817 0e             7425 	.byte	14
00002818 01             7426 	.byte	1
00002819 00000000*      7427 	.word	.LDW_28a9ed8
0000281d 00             7428 	.byte	0
0000281e 00             7429 	.byte	0
0000281f 0503           7430 	.byte	5,3
00002821 00000000*      7431 	.word	_u8_EnvReadCnt..C.3A.5C_ECU2.5CECU_Rivian_A1.5CTarget.5Crepo_projects.5CpRealEcu.5CcL_LATEST.5Cmake.5Coutput.5Cobjects.5CSwcApplTpms_DevCanMessages.
                        7432 
                        7433 .LDW_4c46938:
00002825 04             7434 	.byte	4
00002826 75385f537973   7435 	.strz	"u8_SysReadCnt"
0000282c 52656164436e 
00002832 7400 
00002834 0f             7436 	.byte	15
00002835 0e             7437 	.byte	14
00002836 01             7438 	.byte	1
00002837 00000000*      7439 	.word	.LDW_28a9ed8
0000283b 00             7440 	.byte	0
0000283c 00             7441 	.byte	0
0000283d 0503           7442 	.byte	5,3
0000283f 00000000*      7443 	.word	_u8_SysReadCnt..C.3A.5C_ECU2.5CECU_Rivian_A1.5CTarget.5Crepo_projects.5CpRealEcu.5CcL_LATEST.5Cmake.5Coutput.5Cobjects.5CSwcApplTpms_DevCanMessages.
                        7444 
                        7445 .LDW_4c46bf8:
00002843 04             7446 	.byte	4
00002844 75385f456e76   7447 	.strz	"u8_EnvWriteCnt"
0000284a 577269746543 
00002850 6e7400 
00002853 10             7448 	.byte	16
00002854 0e             7449 	.byte	14
00002855 01             7450 	.byte	1
00002856 00000000*      7451 	.word	.LDW_28a9ed8
0000285a 00             7452 	.byte	0
0000285b 00             7453 	.byte	0
0000285c 0503           7454 	.byte	5,3
0000285e 00000000*      7455 	.word	_u8_EnvWriteCnt..C.3A.5C_ECU2.5CECU_Rivian_A1.5CTarget.5Crepo_projects.5CpRealEcu.5CcL_LATEST.5Cmake.5Coutput.5Cobjects.5CSwcApplTpms_DevCanMessages.
                        7456 
                        7457 .LDW_4c46888:
00002862 04             7458 	.byte	4
00002863 75385f537973   7459 	.strz	"u8_SysWriteCnt"
00002869 577269746543 
0000286f 6e7400 

                                                                      Page 145
                                                              C:\Users\nhuliyap\AppData\Local\Temp\gh_00006601.s
00002872 11             7460 	.byte	17
00002873 0e             7461 	.byte	14
00002874 01             7462 	.byte	1
00002875 00000000*      7463 	.word	.LDW_28a9ed8
00002879 00             7464 	.byte	0
0000287a 00             7465 	.byte	0
0000287b 0503           7466 	.byte	5,3
0000287d 00000000*      7467 	.word	_u8_SysWriteCnt..C.3A.5C_ECU2.5CECU_Rivian_A1.5CTarget.5Crepo_projects.5CpRealEcu.5CcL_LATEST.5Cmake.5Coutput.5Cobjects.5CSwcApplTpms_DevCanMessages.
                        7468 
                        7469 .LDW_4c46678:
00002881 04             7470 	.byte	4
00002882 44434d5f5538   7471 	.strz	"DCM_U8_EventDataMaxMultiplexNr"
00002888 5f4576656e74 
0000288e 446174614d61 
00002894 784d756c7469 
0000289a 706c65784e72 
000028a0 00 
000028a1 13             7472 	.byte	19
000028a2 0e             7473 	.byte	14
000028a3 01             7474 	.byte	1
000028a4 00000000*      7475 	.word	.LDW_28a9ed8
000028a8 00             7476 	.byte	0
000028a9 00             7477 	.byte	0
000028aa 0503           7478 	.byte	5,3
000028ac 00000000*      7479 	.word	_DCM_U8_EventDataMaxMultiplexNr..C.3A.5C_ECU2.5CECU_Rivian_A1.5CTarget.5Crepo_projects.5CpRealEcu.5CcL_LATEST.5Cmake.5Coutput.5Cobjects.5CSwcApplTpms_DevCanMessages.
                        7480 
                        7481 .LDW_4c46ba0:
000028b0 04             7482 	.byte	4
000028b1 44434d5f5538   7483 	.strz	"DCM_U8_SystemDataMaxMultiplexNr"
000028b7 5f5379737465 
000028bd 6d446174614d 
000028c3 61784d756c74 
000028c9 69706c65784e 
000028cf 7200 
000028d1 14             7484 	.byte	20
000028d2 0e             7485 	.byte	14
000028d3 01             7486 	.byte	1
000028d4 00000000*      7487 	.word	.LDW_28a9ed8
000028d8 00             7488 	.byte	0
000028d9 00             7489 	.byte	0
000028da 0503           7490 	.byte	5,3
000028dc 00000000*      7491 	.word	_DCM_U8_SystemDataMaxMultiplexNr..C.3A.5C_ECU2.5CECU_Rivian_A1.5CTarget.5Crepo_projects.5CpRealEcu.5CcL_LATEST.5Cmake.5Coutput.5Cobjects.5CSwcApplTpms_DevCanMessages.
                        7492 
                        7493 .LDW_4c46830:
000028e0 04             7494 	.byte	4
000028e1 535f48756645   7495 	.strz	"S_HufEnvMsgBuf"
000028e7 6e764d736742 
000028ed 756600 
000028f0 16             7496 	.byte	22
000028f1 16             7497 	.byte	22
000028f2 01             7498 	.byte	1
000028f3 00000000*      7499 	.word	.LDW_4c40d00
000028f7 00             7500 	.byte	0
000028f8 00             7501 	.byte	0
000028f9 0503           7502 	.byte	5,3
000028fb 00000000*      7503 	.word	_S_HufEnvMsgBuf..C.3A.5C_ECU2.5CECU_Rivian_A1.5CTarget.5Crepo_projects.5CpRealEcu.5CcL_LATEST.5Cmake.5Coutput.5Cobjects.5CSwcApplTpms_DevCanMessages.
                        7504 
                        7505 .LDW_4c46728:
000028ff 04             7506 	.byte	4
00002900 535f48756653   7507 	.strz	"S_HufSysMsgBuf"
00002906 79734d736742 

                                                                      Page 146
                                                              C:\Users\nhuliyap\AppData\Local\Temp\gh_00006601.s
0000290c 756600 
0000290f 17             7508 	.byte	23
00002910 16             7509 	.byte	22
00002911 01             7510 	.byte	1
00002912 00000000*      7511 	.word	.LDW_4c41250
00002916 00             7512 	.byte	0
00002917 00             7513 	.byte	0
00002918 0503           7514 	.byte	5,3
0000291a 00000000*      7515 	.word	_S_HufSysMsgBuf..C.3A.5C_ECU2.5CECU_Rivian_A1.5CTarget.5Crepo_projects.5CpRealEcu.5CcL_LATEST.5Cmake.5Coutput.5Cobjects.5CSwcApplTpms_DevCanMessages.
                        7516 
                        7517 .LDW_4c46780:
0000291e 04             7518 	.byte	4
0000291f 44434d5f535f   7519 	.strz	"DCM_S_MultiplexMessageIDs"
00002925 4d756c746970 
0000292b 6c65784d6573 
00002931 736167654944 
00002937 7300 
00002939 18             7520 	.byte	24
0000293a 26             7521 	.byte	38
0000293b 01             7522 	.byte	1
0000293c 00000000*      7523 	.word	.LDW_4c44000
00002940 00             7524 	.byte	0
00002941 00             7525 	.byte	0
00002942 0503           7526 	.byte	5,3
00002944 00000000*      7527 	.word	_DCM_S_MultiplexMessageIDs..C.3A.5C_ECU2.5CECU_Rivian_A1.5CTarget.5Crepo_projects.5CpRealEcu.5CcL_LATEST.5Cmake.5Coutput.5Cobjects.5CSwcApplTpms_DevCanMessages.
                        7528 
                        7529 .LDW_4c465c8:
00002948 04             7530 	.byte	4
00002949 44434d5f4153   7531 	.strz	"DCM_AS_ConfigureEventMultiplexMsg"
0000294f 5f436f6e6669 
00002955 677572654576 
0000295b 656e744d756c 
00002961 7469706c6578 
00002967 4d736700 
0000296b ad01           7532 	.byte	173,1
0000296d 2b             7533 	.byte	43
0000296e 01             7534 	.byte	1
0000296f 00000000*      7535 	.word	.LDW_4c40d88
00002973 00             7536 	.byte	0
00002974 00             7537 	.byte	0
00002975 0503           7538 	.byte	5,3
00002977 00000000*      7539 	.word	_DCM_AS_ConfigureEventMultiplexMsg..C.3A.5C_ECU2.5CECU_Rivian_A1.5CTarget.5Crepo_projects.5CpRealEcu.5CcL_LATEST.5Cmake.5Coutput.5Cobjects.5CSwcApplTpms_DevCanMessages.
                        7540 
                        7541 .LDW_4c46af0:
0000297b 04             7542 	.byte	4
0000297c 44434d5f4153   7543 	.strz	"DCM_AS_ConfigureSystemMultiplexMsg"
00002982 5f436f6e6669 
00002988 677572655379 
0000298e 7374656d4d75 
00002994 6c7469706c65 
0000299a 784d736700 
0000299f c601           7544 	.byte	198,1
000029a1 2b             7545 	.byte	43
000029a2 01             7546 	.byte	1
000029a3 00000000*      7547 	.word	.LDW_4c40e98
000029a7 00             7548 	.byte	0
000029a8 00             7549 	.byte	0
000029a9 0503           7550 	.byte	5,3
000029ab 00000000*      7551 	.word	_DCM_AS_ConfigureSystemMultiplexMsg..C.3A.5C_ECU2.5CECU_Rivian_A1.5CTarget.5Crepo_projects.5CpRealEcu.5CcL_LATEST.5Cmake.5Coutput.5Cobjects.5CSwcApplTpms_DevCanMessages.
                        7552 
                        7553 .LDW_4c46e08:

                                                                      Page 147
                                                              C:\Users\nhuliyap\AppData\Local\Temp\gh_00006601.s
000029af 04             7554 	.byte	4
000029b0 44434d5f535f   7555 	.strz	"DCM_S_LastEventDataReceivedOnMultiplex"
000029b6 4c6173744576 
000029bc 656e74446174 
000029c2 615265636569 
000029c8 7665644f6e4d 
000029ce 756c7469706c 
000029d4 657800 
000029d7 e201           7556 	.byte	226,1
000029d9 16             7557 	.byte	22
000029da 01             7558 	.byte	1
000029db 00000000*      7559 	.word	.LDW_4c41030
000029df 00             7560 	.byte	0
000029e0 00             7561 	.byte	0
000029e1 0503           7562 	.byte	5,3
000029e3 00000000*      7563 	.word	_DCM_S_LastEventDataReceivedOnMultiplex..C.3A.5C_ECU2.5CECU_Rivian_A1.5CTarget.5Crepo_projects.5CpRealEcu.5CcL_LATEST.5Cmake.5Coutput.5Cobjects.5CSwcApplTpms_DevCanMessages.
                        7564 
                        7565 .LDW_4c46f10:
000029e7 04             7566 	.byte	4
000029e8 44434d5f535f   7567 	.strz	"DCM_S_LastSystemDataReceivedOnMultiplex"
000029ee 4c6173745379 
000029f4 7374656d4461 
000029fa 746152656365 
00002a00 697665644f6e 
00002a06 4d756c746970 
00002a0c 6c657800 
00002a10 e401           7568 	.byte	228,1
00002a12 16             7569 	.byte	22
00002a13 01             7570 	.byte	1
00002a14 00000000*      7571 	.word	.LDW_4c49390
00002a18 00             7572 	.byte	0
00002a19 00             7573 	.byte	0
00002a1a 0503           7574 	.byte	5,3
00002a1c 00000000*      7575 	.word	_DCM_S_LastSystemDataReceivedOnMultiplex..C.3A.5C_ECU2.5CECU_Rivian_A1.5CTarget.5Crepo_projects.5CpRealEcu.5CcL_LATEST.5Cmake.5Coutput.5Cobjects.5CSwcApplTpms_DevCanMessages.
                        7576 
                        7577 .LDW_4c4a710:
00002a20 16             7578 	.byte	22
00002a21 44434d5f496e   7579 	.strz	"DCM_InvIf_AbsGetResetCntValue"
00002a27 7649665f4162 
00002a2d 734765745265 
00002a33 736574436e74 
00002a39 56616c756500 
00002a3f 09             7580 	.byte	9
00002a40 0e             7581 	.byte	14
00002a41 0b             7582 	.byte	11
00002a42 00000000*      7583 	.word	.LDW_28a9ed8
00002a46 01             7584 	.byte	1
00002a47 00             7585 	.byte	0
00002a48 01             7586 	.byte	1
00002a49 01             7587 	.byte	1
00002a4a 00             7588 	.byte	0
00002a4b 01             7589 	.byte	1
                        7590 
                        7591 	.section	.debug_abbrev
000000e0 16             7592 	.byte	22
000000e1 2e             7593 	.byte	46
000000e2 01             7594 	.byte	1
000000e3 0308           7595 	.byte	3,8
000000e5 3b0f           7596 	.byte	59,15
000000e7 390f           7597 	.byte	57,15
000000e9 3a0f           7598 	.byte	58,15

                                                                      Page 148
                                                              C:\Users\nhuliyap\AppData\Local\Temp\gh_00006601.s
000000eb 4910           7599 	.byte	73,16
000000ed 3c0c           7600 	.byte	60,12
000000ef 200b           7601 	.byte	32,11
000000f1 3f0c           7602 	.byte	63,12
000000f3 320b           7603 	.byte	50,11
000000f5 4c0b           7604 	.byte	76,11
000000f7 270c           7605 	.byte	39,12
000000f9 0000           7606 	.byte	0,0
                        7607 
                        7608 	.section	.debug_info
00002a4c 00             7609 	.byte	0
                        7610 
                        7611 .LDW_4c49d90:
00002a4d 16             7612 	.byte	22
00002a4e 44434d5f496e   7613 	.strz	"DCM_InvIf_GearReverseGetCntValue"
00002a54 7649665f4765 
00002a5a 617252657665 
00002a60 727365476574 
00002a66 436e7456616c 
00002a6c 756500 
00002a6f 0a             7614 	.byte	10
00002a70 0e             7615 	.byte	14
00002a71 0b             7616 	.byte	11
00002a72 00000000*      7617 	.word	.LDW_28a9ed8
00002a76 01             7618 	.byte	1
00002a77 00             7619 	.byte	0
00002a78 01             7620 	.byte	1
00002a79 01             7621 	.byte	1
00002a7a 00             7622 	.byte	0
00002a7b 01             7623 	.byte	1
                        7624 
00002a7c 00             7625 	.byte	0
                        7626 
                        7627 .LDW_4c495d8:
00002a7d 16             7628 	.byte	22
00002a7e 44434d5f496e   7629 	.strz	"DCM_InvIf_AutoLocGetTimeoutCntValue"
00002a84 7649665f4175 
00002a8a 746f4c6f6347 
00002a90 657454696d65 
00002a96 6f7574436e74 
00002a9c 56616c756500 
00002aa2 0b             7630 	.byte	11
00002aa3 0e             7631 	.byte	14
00002aa4 0b             7632 	.byte	11
00002aa5 00000000*      7633 	.word	.LDW_28a9ed8
00002aa9 01             7634 	.byte	1
00002aaa 00             7635 	.byte	0
00002aab 01             7636 	.byte	1
00002aac 01             7637 	.byte	1
00002aad 00             7638 	.byte	0
00002aae 01             7639 	.byte	1
                        7640 
00002aaf 00             7641 	.byte	0
                        7642 
                        7643 .LDW_4c4a120:
00002ab0 15             7644 	.byte	21
00002ab1 44434d5f496e   7645 	.strz	"DCM_InvIf_HistoryIDReadValue"
00002ab7 7649665f4869 
00002abd 73746f727949 
00002ac3 445265616456 
00002ac9 616c756500 

                                                                      Page 149
                                                              C:\Users\nhuliyap\AppData\Local\Temp\gh_00006601.s
00002ace 0c             7646 	.byte	12
00002acf 0d             7647 	.byte	13
00002ad0 0b             7648 	.byte	11
00002ad1 01             7649 	.byte	1
00002ad2 00             7650 	.byte	0
00002ad3 01             7651 	.byte	1
00002ad4 01             7652 	.byte	1
00002ad5 00             7653 	.byte	0
00002ad6 01             7654 	.byte	1
                        7655 
                        7656 	.section	.debug_abbrev
000000fb 15             7657 	.byte	21
000000fc 2e             7658 	.byte	46
000000fd 01             7659 	.byte	1
000000fe 0308           7660 	.byte	3,8
00000100 3b0f           7661 	.byte	59,15
00000102 390f           7662 	.byte	57,15
00000104 3a0f           7663 	.byte	58,15
00000106 3c0c           7664 	.byte	60,12
00000108 200b           7665 	.byte	32,11
0000010a 3f0c           7666 	.byte	63,12
0000010c 320b           7667 	.byte	50,11
0000010e 4c0b           7668 	.byte	76,11
00000110 270c           7669 	.byte	39,12
00000112 0000           7670 	.byte	0,0
                        7671 
                        7672 	.section	.debug_info
00002ad7 00             7673 	.byte	0
                        7674 
                        7675 .LDW_4c4a250:
00002ad8 15             7676 	.byte	21
00002ad9 44434d5f496e   7677 	.strz	"DCM_InvIf_HistoryWPReadValue"
00002adf 7649665f4869 
00002ae5 73746f727957 
00002aeb 505265616456 
00002af1 616c756500 
00002af6 0d             7678 	.byte	13
00002af7 0d             7679 	.byte	13
00002af8 0b             7680 	.byte	11
00002af9 01             7681 	.byte	1
00002afa 00             7682 	.byte	0
00002afb 01             7683 	.byte	1
00002afc 01             7684 	.byte	1
00002afd 00             7685 	.byte	0
00002afe 01             7686 	.byte	1
                        7687 
00002aff 00             7688 	.byte	0
                        7689 
                        7690 .LDW_4c49a00:
00002b00 16             7691 	.byte	22
00002b01 44434d5f496e   7692 	.strz	"DCM_InvIf_RecepMissedGetCntValue"
00002b07 7649665f5265 
00002b0d 6365704d6973 
00002b13 736564476574 
00002b19 436e7456616c 
00002b1f 756500 
00002b22 0e             7693 	.byte	14
00002b23 0e             7694 	.byte	14
00002b24 0b             7695 	.byte	11
00002b25 00000000*      7696 	.word	.LDW_28a9ed8
00002b29 01             7697 	.byte	1

                                                                      Page 150
                                                              C:\Users\nhuliyap\AppData\Local\Temp\gh_00006601.s
00002b2a 00             7698 	.byte	0
00002b2b 01             7699 	.byte	1
00002b2c 01             7700 	.byte	1
00002b2d 00             7701 	.byte	0
00002b2e 01             7702 	.byte	1
                        7703 
00002b2f 00             7704 	.byte	0
                        7705 
                        7706 .LDW_4c4a2e8:
00002b30 16             7707 	.byte	22
00002b31 44434d5f496e   7708 	.strz	"DCM_InvIf_NoiseLevelGetValue"
00002b37 7649665f4e6f 
00002b3d 6973654c6576 
00002b43 656c47657456 
00002b49 616c756500 
00002b4e 0f             7709 	.byte	15
00002b4f 0e             7710 	.byte	14
00002b50 0b             7711 	.byte	11
00002b51 00000000*      7712 	.word	.LDW_28a9ed8
00002b55 01             7713 	.byte	1
00002b56 00             7714 	.byte	0
00002b57 01             7715 	.byte	1
00002b58 01             7716 	.byte	1
00002b59 00             7717 	.byte	0
00002b5a 01             7718 	.byte	1
                        7719 
00002b5b 00             7720 	.byte	0
                        7721 
                        7722 .LDW_4c4a4b0:
00002b5c 16             7723 	.byte	22
00002b5d 44434d5f496e   7724 	.strz	"DCM_InvIf_StopEventsGetCntValue"
00002b63 7649665f5374 
00002b69 6f704576656e 
00002b6f 747347657443 
00002b75 6e7456616c75 
00002b7b 6500 
00002b7d 12             7725 	.byte	18
00002b7e 0e             7726 	.byte	14
00002b7f 0b             7727 	.byte	11
00002b80 00000000*      7728 	.word	.LDW_28a9ed8
00002b84 01             7729 	.byte	1
00002b85 00             7730 	.byte	0
00002b86 01             7731 	.byte	1
00002b87 01             7732 	.byte	1
00002b88 00             7733 	.byte	0
00002b89 01             7734 	.byte	1
                        7735 
00002b8a 00             7736 	.byte	0
                        7737 
                        7738 .LDW_4c4a840:
00002b8b 16             7739 	.byte	22
00002b8c 44434d5f496e   7740 	.strz	"DCM_InvIf_TPMSStateGetStatus"
00002b92 7649665f5450 
00002b98 4d5353746174 
00002b9e 654765745374 
00002ba4 6174757300 
00002ba9 13             7741 	.byte	19
00002baa 0f             7742 	.byte	15
00002bab 0b             7743 	.byte	11
00002bac 00000000*      7744 	.word	.LDW_28acbd8
00002bb0 01             7745 	.byte	1

                                                                      Page 151
                                                              C:\Users\nhuliyap\AppData\Local\Temp\gh_00006601.s
00002bb1 00             7746 	.byte	0
00002bb2 01             7747 	.byte	1
00002bb3 01             7748 	.byte	1
00002bb4 00             7749 	.byte	0
00002bb5 01             7750 	.byte	1
                        7751 
00002bb6 00             7752 	.byte	0
                        7753 
                        7754 .LDW_4c49ff0:
00002bb7 16             7755 	.byte	22
00002bb8 44434d5f496e   7756 	.strz	"DCM_InvIf_VehicleStatusGetValue"
00002bbe 7649665f5665 
00002bc4 6869636c6553 
00002bca 746174757347 
00002bd0 657456616c75 
00002bd6 6500 
00002bd8 15             7757 	.byte	21
00002bd9 0e             7758 	.byte	14
00002bda 0b             7759 	.byte	11
00002bdb 00000000*      7760 	.word	.LDW_28a9ed8
00002bdf 01             7761 	.byte	1
00002be0 00             7762 	.byte	0
00002be1 01             7763 	.byte	1
00002be2 01             7764 	.byte	1
00002be3 00             7765 	.byte	0
00002be4 01             7766 	.byte	1
                        7767 
00002be5 00             7768 	.byte	0
                        7769 
                        7770 .LDW_4c4a380:
00002be6 15             7771 	.byte	21
00002be7 44434d5f496e   7772 	.strz	"DCM_InvIf_WarnVectReadHistoryStatus"
00002bed 7649665f5761 
00002bf3 726e56656374 
00002bf9 526561644869 
00002bff 73746f727953 
00002c05 746174757300 
00002c0b 16             7773 	.byte	22
00002c0c 0d             7774 	.byte	13
00002c0d 0b             7775 	.byte	11
00002c0e 01             7776 	.byte	1
00002c0f 00             7777 	.byte	0
00002c10 01             7778 	.byte	1
00002c11 01             7779 	.byte	1
00002c12 00             7780 	.byte	0
00002c13 01             7781 	.byte	1
                        7782 
00002c14 00             7783 	.byte	0
                        7784 
                        7785 .LDW_4c4a548:
00002c15 15             7786 	.byte	21
00002c16 44434d5f496e   7787 	.strz	"DCM_InvIf_ZomWuIDGetFromMemory"
00002c1c 7649665f5a6f 
00002c22 6d5775494447 
00002c28 657446726f6d 
00002c2e 4d656d6f7279 
00002c34 00 
00002c35 17             7788 	.byte	23
00002c36 0d             7789 	.byte	13
00002c37 0b             7790 	.byte	11
00002c38 01             7791 	.byte	1

                                                                      Page 152
                                                              C:\Users\nhuliyap\AppData\Local\Temp\gh_00006601.s
00002c39 00             7792 	.byte	0
00002c3a 01             7793 	.byte	1
00002c3b 01             7794 	.byte	1
00002c3c 00             7795 	.byte	0
00002c3d 01             7796 	.byte	1
                        7797 
00002c3e 00             7798 	.byte	0
                        7799 
                        7800 .LDW_4c49708:
00002c3f 16             7801 	.byte	22
00002c40 44434d5f496e   7802 	.strz	"DCM_InvIf_ZomStatusGetFromMemory"
00002c46 7649665f5a6f 
00002c4c 6d5374617475 
00002c52 734765744672 
00002c58 6f6d4d656d6f 
00002c5e 727900 
00002c61 18             7803 	.byte	24
00002c62 0e             7804 	.byte	14
00002c63 0b             7805 	.byte	11
00002c64 00000000*      7806 	.word	.LDW_28a9ed8
00002c68 01             7807 	.byte	1
00002c69 00             7808 	.byte	0
00002c6a 01             7809 	.byte	1
00002c6b 01             7810 	.byte	1
00002c6c 00             7811 	.byte	0
00002c6d 01             7812 	.byte	1
                        7813 
00002c6e 00             7814 	.byte	0
                        7815 
                        7816 .LDW_4c4a5e0:
00002c6f 16             7817 	.byte	22
00002c70 44434d5f496e   7818 	.strz	"DCM_InvIf_ZomTelCntGetFromMemory"
00002c76 7649665f5a6f 
00002c7c 6d54656c436e 
00002c82 744765744672 
00002c88 6f6d4d656d6f 
00002c8e 727900 
00002c91 19             7819 	.byte	25
00002c92 0e             7820 	.byte	14
00002c93 0b             7821 	.byte	11
00002c94 00000000*      7822 	.word	.LDW_28a9ed8
00002c98 01             7823 	.byte	1
00002c99 00             7824 	.byte	0
00002c9a 01             7825 	.byte	1
00002c9b 01             7826 	.byte	1
00002c9c 00             7827 	.byte	0
00002c9d 01             7828 	.byte	1
                        7829 
00002c9e 00             7830 	.byte	0
                        7831 
                        7832 .LDW_4c498d0:
00002c9f 16             7833 	.byte	22
00002ca0 44434d5f496e   7834 	.strz	"DCM_InvIf_VehDirectionGetValue"
00002ca6 7649665f5665 
00002cac 684469726563 
00002cb2 74696f6e4765 
00002cb8 7456616c7565 
00002cbe 00 
00002cbf 1a             7835 	.byte	26
00002cc0 0e             7836 	.byte	14
00002cc1 0b             7837 	.byte	11

                                                                      Page 153
                                                              C:\Users\nhuliyap\AppData\Local\Temp\gh_00006601.s
00002cc2 00000000*      7838 	.word	.LDW_28a9ed8
00002cc6 01             7839 	.byte	1
00002cc7 00             7840 	.byte	0
00002cc8 01             7841 	.byte	1
00002cc9 01             7842 	.byte	1
00002cca 00             7843 	.byte	0
00002ccb 01             7844 	.byte	1
                        7845 
00002ccc 00             7846 	.byte	0
                        7847 
                        7848 .LDW_4c4a418:
00002ccd 16             7849 	.byte	22
00002cce 44434d5f496e   7850 	.strz	"DCM_InvIf_WheelPosReceptionCounter"
00002cd4 7649665f5768 
00002cda 65656c506f73 
00002ce0 526563657074 
00002ce6 696f6e436f75 
00002cec 6e74657200 
00002cf1 21             7851 	.byte	33
00002cf2 0e             7852 	.byte	14
00002cf3 0b             7853 	.byte	11
00002cf4 00000000*      7854 	.word	.LDW_28a9ed8
00002cf8 01             7855 	.byte	1
00002cf9 00             7856 	.byte	0
00002cfa 01             7857 	.byte	1
00002cfb 01             7858 	.byte	1
00002cfc 00             7859 	.byte	0
00002cfd 01             7860 	.byte	1
                        7861 
00002cfe 00             7862 	.byte	0
                        7863 
                        7864 .LDW_4c4a678:
00002cff 16             7865 	.byte	22
00002d00 44434d5f496e   7866 	.strz	"DCM_InvIf_AbsCorrGetCntValueFL"
00002d06 7649665f4162 
00002d0c 73436f727247 
00002d12 6574436e7456 
00002d18 616c7565464c 
00002d1e 00 
00002d1f 23             7867 	.byte	35
00002d20 0e             7868 	.byte	14
00002d21 0b             7869 	.byte	11
00002d22 00000000*      7870 	.word	.LDW_28a9ed8
00002d26 01             7871 	.byte	1
00002d27 00             7872 	.byte	0
00002d28 01             7873 	.byte	1
00002d29 01             7874 	.byte	1
00002d2a 00             7875 	.byte	0
00002d2b 01             7876 	.byte	1
                        7877 
00002d2c 00             7878 	.byte	0
                        7879 
                        7880 .LDW_4c497a0:
00002d2d 16             7881 	.byte	22
00002d2e 44434d5f496e   7882 	.strz	"DCM_InvIf_AbsCorrGetCntValueFR"
00002d34 7649665f4162 
00002d3a 73436f727247 
00002d40 6574436e7456 
00002d46 616c75654652 
00002d4c 00 
00002d4d 24             7883 	.byte	36

                                                                      Page 154
                                                              C:\Users\nhuliyap\AppData\Local\Temp\gh_00006601.s
00002d4e 0e             7884 	.byte	14
00002d4f 0b             7885 	.byte	11
00002d50 00000000*      7886 	.word	.LDW_28a9ed8
00002d54 01             7887 	.byte	1
00002d55 00             7888 	.byte	0
00002d56 01             7889 	.byte	1
00002d57 01             7890 	.byte	1
00002d58 00             7891 	.byte	0
00002d59 01             7892 	.byte	1
                        7893 
00002d5a 00             7894 	.byte	0
                        7895 
                        7896 .LDW_4c49968:
00002d5b 16             7897 	.byte	22
00002d5c 44434d5f496e   7898 	.strz	"DCM_InvIf_AbsCorrGetCntValueRL"
00002d62 7649665f4162 
00002d68 73436f727247 
00002d6e 6574436e7456 
00002d74 616c7565524c 
00002d7a 00 
00002d7b 25             7899 	.byte	37
00002d7c 0e             7900 	.byte	14
00002d7d 0b             7901 	.byte	11
00002d7e 00000000*      7902 	.word	.LDW_28a9ed8
00002d82 01             7903 	.byte	1
00002d83 00             7904 	.byte	0
00002d84 01             7905 	.byte	1
00002d85 01             7906 	.byte	1
00002d86 00             7907 	.byte	0
00002d87 01             7908 	.byte	1
                        7909 
00002d88 00             7910 	.byte	0
                        7911 
                        7912 .LDW_4c4a7a8:
00002d89 16             7913 	.byte	22
00002d8a 44434d5f496e   7914 	.strz	"DCM_InvIf_AbsCorrGetCntValueRR"
00002d90 7649665f4162 
00002d96 73436f727247 
00002d9c 6574436e7456 
00002da2 616c75655252 
00002da8 00 
00002da9 26             7915 	.byte	38
00002daa 0e             7916 	.byte	14
00002dab 0b             7917 	.byte	11
00002dac 00000000*      7918 	.word	.LDW_28a9ed8
00002db0 01             7919 	.byte	1
00002db1 00             7920 	.byte	0
00002db2 01             7921 	.byte	1
00002db3 01             7922 	.byte	1
00002db4 00             7923 	.byte	0
00002db5 01             7924 	.byte	1
                        7925 
00002db6 00             7926 	.byte	0
                        7927 
                        7928 .LDW_4c49670:
00002db7 16             7929 	.byte	22
00002db8 44434d5f496e   7930 	.strz	"DCM_InvIf_DebugAllocType"
00002dbe 7649665f4465 
00002dc4 627567416c6c 
00002dca 6f6354797065 
00002dd0 00 

                                                                      Page 155
                                                              C:\Users\nhuliyap\AppData\Local\Temp\gh_00006601.s
00002dd1 27             7931 	.byte	39
00002dd2 0e             7932 	.byte	14
00002dd3 0b             7933 	.byte	11
00002dd4 00000000*      7934 	.word	.LDW_28a9ed8
00002dd8 01             7935 	.byte	1
00002dd9 00             7936 	.byte	0
00002dda 01             7937 	.byte	1
00002ddb 01             7938 	.byte	1
00002ddc 00             7939 	.byte	0
00002ddd 01             7940 	.byte	1
                        7941 
00002dde 00             7942 	.byte	0
                        7943 
                        7944 .LDW_4c49a98:
00002ddf 16             7945 	.byte	22
00002de0 44434d5f496e   7946 	.strz	"DCM_InvIf_AbsLinAngle_FL_GetHistoryValue"
00002de6 7649665f4162 
00002dec 734c696e416e 
00002df2 676c655f464c 
00002df8 5f4765744869 
00002dfe 73746f727956 
00002e04 616c756500 
00002e09 29             7947 	.byte	41
00002e0a 0e             7948 	.byte	14
00002e0b 0b             7949 	.byte	11
00002e0c 00000000*      7950 	.word	.LDW_28a9ed8
00002e10 01             7951 	.byte	1
00002e11 00             7952 	.byte	0
00002e12 01             7953 	.byte	1
00002e13 01             7954 	.byte	1
00002e14 00             7955 	.byte	0
00002e15 01             7956 	.byte	1
                        7957 
00002e16 00             7958 	.byte	0
                        7959 
                        7960 .LDW_4c49838:
00002e17 16             7961 	.byte	22
00002e18 44434d5f496e   7962 	.strz	"DCM_InvIf_AbsLinAngle_FR_GetHistoryValue"
00002e1e 7649665f4162 
00002e24 734c696e416e 
00002e2a 676c655f4652 
00002e30 5f4765744869 
00002e36 73746f727956 
00002e3c 616c756500 
00002e41 2a             7963 	.byte	42
00002e42 0e             7964 	.byte	14
00002e43 0b             7965 	.byte	11
00002e44 00000000*      7966 	.word	.LDW_28a9ed8
00002e48 01             7967 	.byte	1
00002e49 00             7968 	.byte	0
00002e4a 01             7969 	.byte	1
00002e4b 01             7970 	.byte	1
00002e4c 00             7971 	.byte	0
00002e4d 01             7972 	.byte	1
                        7973 
00002e4e 00             7974 	.byte	0
                        7975 
                        7976 .LDW_4c49b30:
00002e4f 16             7977 	.byte	22
00002e50 44434d5f496e   7978 	.strz	"DCM_InvIf_AbsLinAngle_RL_GetHistoryValue"
00002e56 7649665f4162 

                                                                      Page 156
                                                              C:\Users\nhuliyap\AppData\Local\Temp\gh_00006601.s
00002e5c 734c696e416e 
00002e62 676c655f524c 
00002e68 5f4765744869 
00002e6e 73746f727956 
00002e74 616c756500 
00002e79 2b             7979 	.byte	43
00002e7a 0e             7980 	.byte	14
00002e7b 0b             7981 	.byte	11
00002e7c 00000000*      7982 	.word	.LDW_28a9ed8
00002e80 01             7983 	.byte	1
00002e81 00             7984 	.byte	0
00002e82 01             7985 	.byte	1
00002e83 01             7986 	.byte	1
00002e84 00             7987 	.byte	0
00002e85 01             7988 	.byte	1
                        7989 
00002e86 00             7990 	.byte	0
                        7991 
                        7992 .LDW_4c4a088:
00002e87 16             7993 	.byte	22
00002e88 44434d5f496e   7994 	.strz	"DCM_InvIf_AbsLinAngle_RR_GetHistoryValue"
00002e8e 7649665f4162 
00002e94 734c696e416e 
00002e9a 676c655f5252 
00002ea0 5f4765744869 
00002ea6 73746f727956 
00002eac 616c756500 
00002eb1 2c             7995 	.byte	44
00002eb2 0e             7996 	.byte	14
00002eb3 0b             7997 	.byte	11
00002eb4 00000000*      7998 	.word	.LDW_28a9ed8
00002eb8 01             7999 	.byte	1
00002eb9 00             8000 	.byte	0
00002eba 01             8001 	.byte	1
00002ebb 01             8002 	.byte	1
00002ebc 00             8003 	.byte	0
00002ebd 01             8004 	.byte	1
                        8005 
00002ebe 00             8006 	.byte	0
                        8007 
                        8008 .LDW_4c49bc8:
00002ebf 16             8009 	.byte	22
00002ec0 44434d5f496e   8010 	.strz	"DCM_InvIf_AbsLinGetCntValueFL"
00002ec6 7649665f4162 
00002ecc 734c696e4765 
00002ed2 74436e745661 
00002ed8 6c7565464c00 
00002ede 2e             8011 	.byte	46
00002edf 0e             8012 	.byte	14
00002ee0 0b             8013 	.byte	11
00002ee1 00000000*      8014 	.word	.LDW_28a9ed8
00002ee5 01             8015 	.byte	1
00002ee6 00             8016 	.byte	0
00002ee7 01             8017 	.byte	1
00002ee8 01             8018 	.byte	1
00002ee9 00             8019 	.byte	0
00002eea 01             8020 	.byte	1
                        8021 
00002eeb 00             8022 	.byte	0
                        8023 
                        8024 .LDW_4c49c60:

                                                                      Page 157
                                                              C:\Users\nhuliyap\AppData\Local\Temp\gh_00006601.s
00002eec 16             8025 	.byte	22
00002eed 44434d5f496e   8026 	.strz	"DCM_InvIf_AbsLinGetCntValueFR"
00002ef3 7649665f4162 
00002ef9 734c696e4765 
00002eff 74436e745661 
00002f05 6c7565465200 
00002f0b 2f             8027 	.byte	47
00002f0c 0e             8028 	.byte	14
00002f0d 0b             8029 	.byte	11
00002f0e 00000000*      8030 	.word	.LDW_28a9ed8
00002f12 01             8031 	.byte	1
00002f13 00             8032 	.byte	0
00002f14 01             8033 	.byte	1
00002f15 01             8034 	.byte	1
00002f16 00             8035 	.byte	0
00002f17 01             8036 	.byte	1
                        8037 
00002f18 00             8038 	.byte	0
                        8039 
                        8040 .LDW_4c49cf8:
00002f19 16             8041 	.byte	22
00002f1a 44434d5f496e   8042 	.strz	"DCM_InvIf_AbsLinGetCntValueRL"
00002f20 7649665f4162 
00002f26 734c696e4765 
00002f2c 74436e745661 
00002f32 6c7565524c00 
00002f38 30             8043 	.byte	48
00002f39 0e             8044 	.byte	14
00002f3a 0b             8045 	.byte	11
00002f3b 00000000*      8046 	.word	.LDW_28a9ed8
00002f3f 01             8047 	.byte	1
00002f40 00             8048 	.byte	0
00002f41 01             8049 	.byte	1
00002f42 01             8050 	.byte	1
00002f43 00             8051 	.byte	0
00002f44 01             8052 	.byte	1
                        8053 
00002f45 00             8054 	.byte	0
                        8055 
                        8056 .LDW_4c49e28:
00002f46 16             8057 	.byte	22
00002f47 44434d5f496e   8058 	.strz	"DCM_InvIf_AbsLinGetCntValueRR"
00002f4d 7649665f4162 
00002f53 734c696e4765 
00002f59 74436e745661 
00002f5f 6c7565525200 
00002f65 31             8059 	.byte	49
00002f66 0e             8060 	.byte	14
00002f67 0b             8061 	.byte	11
00002f68 00000000*      8062 	.word	.LDW_28a9ed8
00002f6c 01             8063 	.byte	1
00002f6d 00             8064 	.byte	0
00002f6e 01             8065 	.byte	1
00002f6f 01             8066 	.byte	1
00002f70 00             8067 	.byte	0
00002f71 01             8068 	.byte	1
                        8069 
00002f72 00             8070 	.byte	0
                        8071 
                        8072 .LDW_4c49ec0:
00002f73 16             8073 	.byte	22

                                                                      Page 158
                                                              C:\Users\nhuliyap\AppData\Local\Temp\gh_00006601.s
00002f74 44434d5f496e   8074 	.strz	"DCM_InvIf_RawRSSIGetValue"
00002f7a 7649665f5261 
00002f80 775253534947 
00002f86 657456616c75 
00002f8c 6500 
00002f8e 33             8075 	.byte	51
00002f8f 0e             8076 	.byte	14
00002f90 0b             8077 	.byte	11
00002f91 00000000*      8078 	.word	.LDW_28a9ed8
00002f95 01             8079 	.byte	1
00002f96 00             8080 	.byte	0
00002f97 01             8081 	.byte	1
00002f98 01             8082 	.byte	1
00002f99 00             8083 	.byte	0
00002f9a 01             8084 	.byte	1
                        8085 
00002f9b 00             8086 	.byte	0
                        8087 
                        8088 .LDW_4c49f58:
00002f9c 16             8089 	.byte	22
00002f9d 44434d5f496e   8090 	.strz	"DCM_InvIf_RecEventGetCntValue"
00002fa3 7649665f5265 
00002fa9 634576656e74 
00002faf 476574436e74 
00002fb5 56616c756500 
00002fbb 34             8091 	.byte	52
00002fbc 0e             8092 	.byte	14
00002fbd 0b             8093 	.byte	11
00002fbe 00000000*      8094 	.word	.LDW_28a9ed8
00002fc2 01             8095 	.byte	1
00002fc3 00             8096 	.byte	0
00002fc4 01             8097 	.byte	1
00002fc5 01             8098 	.byte	1
00002fc6 00             8099 	.byte	0
00002fc7 01             8100 	.byte	1
                        8101 
00002fc8 00             8102 	.byte	0
                        8103 
                        8104 .LDW_4c4f4b0:
00002fc9 16             8105 	.byte	22
00002fca 44434d5f496e   8106 	.strz	"DCM_InvIf_TelTypeCurrIDGetValue"
00002fd0 7649665f5465 
00002fd6 6c5479706543 
00002fdc 757272494447 
00002fe2 657456616c75 
00002fe8 6500 
00002fea 35             8107 	.byte	53
00002feb 0e             8108 	.byte	14
00002fec 0b             8109 	.byte	11
00002fed 00000000*      8110 	.word	.LDW_28a9ed8
00002ff1 01             8111 	.byte	1
00002ff2 00             8112 	.byte	0
00002ff3 01             8113 	.byte	1
00002ff4 01             8114 	.byte	1
00002ff5 00             8115 	.byte	0
00002ff6 01             8116 	.byte	1
                        8117 
00002ff7 00             8118 	.byte	0
                        8119 
                        8120 .LDW_4c4f8d8:
00002ff8 16             8121 	.byte	22

                                                                      Page 159
                                                              C:\Users\nhuliyap\AppData\Local\Temp\gh_00006601.s
00002ff9 44434d5f496e   8122 	.strz	"DCM_InvIf_AllReceivedTelegGetValue"
00002fff 7649665f416c 
00003005 6c5265636569 
0000300b 76656454656c 
00003011 656747657456 
00003017 616c756500 
0000301c 36             8123 	.byte	54
0000301d 0e             8124 	.byte	14
0000301e 0b             8125 	.byte	11
0000301f 00000000*      8126 	.word	.LDW_28a9ed8
00003023 01             8127 	.byte	1
00003024 00             8128 	.byte	0
00003025 01             8129 	.byte	1
00003026 01             8130 	.byte	1
00003027 00             8131 	.byte	0
00003028 01             8132 	.byte	1
                        8133 
00003029 00             8134 	.byte	0
                        8135 
                        8136 .LDW_4c4f678:
0000302a 15             8137 	.byte	21
0000302b 44434d5f496e   8138 	.strz	"DCM_InvIf_RFTimeStampGetValue"
00003031 7649665f5246 
00003037 54696d655374 
0000303d 616d70476574 
00003043 56616c756500 
00003049 38             8139 	.byte	56
0000304a 0d             8140 	.byte	13
0000304b 0b             8141 	.byte	11
0000304c 01             8142 	.byte	1
0000304d 00             8143 	.byte	0
0000304e 01             8144 	.byte	1
0000304f 01             8145 	.byte	1
00003050 00             8146 	.byte	0
00003051 01             8147 	.byte	1
                        8148 
00003052 00             8149 	.byte	0
                        8150 
                        8151 .LDW_4c4ecf8:
00003053 16             8152 	.byte	22
00003054 44434d5f496e   8153 	.strz	"DCM_InvIf_WheelPosCurrIDGetValue"
0000305a 7649665f5768 
00003060 65656c506f73 
00003066 437572724944 
0000306c 47657456616c 
00003072 756500 
00003075 39             8154 	.byte	57
00003076 0e             8155 	.byte	14
00003077 0b             8156 	.byte	11
00003078 00000000*      8157 	.word	.LDW_28a9ed8
0000307c 01             8158 	.byte	1
0000307d 00             8159 	.byte	0
0000307e 01             8160 	.byte	1
0000307f 01             8161 	.byte	1
00003080 00             8162 	.byte	0
00003081 01             8163 	.byte	1
                        8164 
00003082 00             8165 	.byte	0
                        8166 
                        8167 .LDW_4c4f5e0:
00003083 16             8168 	.byte	22

                                                                      Page 160
                                                              C:\Users\nhuliyap\AppData\Local\Temp\gh_00006601.s
00003084 44434d5f496e   8169 	.strz	"DCM_InvIf_ZomPosCurrIDGetValue"
0000308a 7649665f5a6f 
00003090 6d506f734375 
00003096 727249444765 
0000309c 7456616c7565 
000030a2 00 
000030a3 3a             8170 	.byte	58
000030a4 0e             8171 	.byte	14
000030a5 0b             8172 	.byte	11
000030a6 00000000*      8173 	.word	.LDW_28a9ed8
000030aa 01             8174 	.byte	1
000030ab 00             8175 	.byte	0
000030ac 01             8176 	.byte	1
000030ad 01             8177 	.byte	1
000030ae 00             8178 	.byte	0
000030af 01             8179 	.byte	1
                        8180 
000030b0 00             8181 	.byte	0
                        8182 
                        8183 .LDW_4c4f250:
000030b1 16             8184 	.byte	22
000030b2 44434d5f496e   8185 	.strz	"DCM_InvIf_PressAmbientGetValue"
000030b8 7649665f5072 
000030be 657373416d62 
000030c4 69656e744765 
000030ca 7456616c7565 
000030d0 00 
000030d1 3b             8186 	.byte	59
000030d2 0e             8187 	.byte	14
000030d3 0b             8188 	.byte	11
000030d4 00000000*      8189 	.word	.LDW_28a9ed8
000030d8 01             8190 	.byte	1
000030d9 00             8191 	.byte	0
000030da 01             8192 	.byte	1
000030db 01             8193 	.byte	1
000030dc 00             8194 	.byte	0
000030dd 01             8195 	.byte	1
                        8196 
000030de 00             8197 	.byte	0
                        8198 
                        8199 .LDW_4c4eff0:
000030df 16             8200 	.byte	22
000030e0 44434d5f496e   8201 	.strz	"DCM_InvIf_SpeedVehicGetValue"
000030e6 7649665f5370 
000030ec 656564566568 
000030f2 696347657456 
000030f8 616c756500 
000030fd 3c             8202 	.byte	60
000030fe 0f             8203 	.byte	15
000030ff 0b             8204 	.byte	11
00003100 00000000*      8205 	.word	.LDW_28acbd8
00003104 01             8206 	.byte	1
00003105 00             8207 	.byte	0
00003106 01             8208 	.byte	1
00003107 01             8209 	.byte	1
00003108 00             8210 	.byte	0
00003109 01             8211 	.byte	1
                        8212 
0000310a 00             8213 	.byte	0
                        8214 
                        8215 .LDW_4c4f418:

                                                                      Page 161
                                                              C:\Users\nhuliyap\AppData\Local\Temp\gh_00006601.s
0000310b 16             8216 	.byte	22
0000310c 44434d5f496e   8217 	.strz	"DCM_InvIf_TempAmbientGetValue"
00003112 7649665f5465 
00003118 6d70416d6269 
0000311e 656e74476574 
00003124 56616c756500 
0000312a 3d             8218 	.byte	61
0000312b 0e             8219 	.byte	14
0000312c 0b             8220 	.byte	11
0000312d 00000000*      8221 	.word	.LDW_28a9ed8
00003131 01             8222 	.byte	1
00003132 00             8223 	.byte	0
00003133 01             8224 	.byte	1
00003134 01             8225 	.byte	1
00003135 00             8226 	.byte	0
00003136 01             8227 	.byte	1
                        8228 
00003137 00             8229 	.byte	0
                        8230 
                        8231 .LDW_4c4f548:
00003138 15             8232 	.byte	21
00003139 44434d5f496e   8233 	.strz	"DCM_InvIf_LastRxIDGetValue"
0000313f 7649665f4c61 
00003145 737452784944 
0000314b 47657456616c 
00003151 756500 
00003154 3f             8234 	.byte	63
00003155 0d             8235 	.byte	13
00003156 0b             8236 	.byte	11
00003157 01             8237 	.byte	1
00003158 00             8238 	.byte	0
00003159 01             8239 	.byte	1
0000315a 01             8240 	.byte	1
0000315b 00             8241 	.byte	0
0000315c 01             8242 	.byte	1
                        8243 
0000315d 00             8244 	.byte	0
                        8245 
                        8246 .LDW_4c4f710:
0000315e 15             8247 	.byte	21
0000315f 44434d5f496e   8248 	.strz	"DCM_InvIf_RxStatusFieldGetValue"
00003165 7649665f5278 
0000316b 537461747573 
00003171 4669656c6447 
00003177 657456616c75 
0000317d 6500 
0000317f 41             8249 	.byte	65
00003180 0d             8250 	.byte	13
00003181 0b             8251 	.byte	11
00003182 01             8252 	.byte	1
00003183 00             8253 	.byte	0
00003184 01             8254 	.byte	1
00003185 01             8255 	.byte	1
00003186 00             8256 	.byte	0
00003187 01             8257 	.byte	1
                        8258 
00003188 00             8259 	.byte	0
                        8260 
                        8261 .LDW_4c4ed90:
00003189 15             8262 	.byte	21
0000318a 44434d5f496e   8263 	.strz	"DCM_InvIf_RawRfTelGetValue"

                                                                      Page 162
                                                              C:\Users\nhuliyap\AppData\Local\Temp\gh_00006601.s
00003190 7649665f5261 
00003196 77526654656c 
0000319c 47657456616c 
000031a2 756500 
000031a5 42             8264 	.byte	66
000031a6 0d             8265 	.byte	13
000031a7 0b             8266 	.byte	11
000031a8 01             8267 	.byte	1
000031a9 00             8268 	.byte	0
000031aa 01             8269 	.byte	1
000031ab 01             8270 	.byte	1
000031ac 00             8271 	.byte	0
000031ad 01             8272 	.byte	1
                        8273 
000031ae 00             8274 	.byte	0
                        8275 
                        8276 .LDW_4c4f088:
000031af 16             8277 	.byte	22
000031b0 44434d5f496e   8278 	.strz	"DCM_InvIf_PressLastRxIDGetValue"
000031b6 7649665f5072 
000031bc 6573734c6173 
000031c2 745278494447 
000031c8 657456616c75 
000031ce 6500 
000031d0 44             8279 	.byte	68
000031d1 0e             8280 	.byte	14
000031d2 0b             8281 	.byte	11
000031d3 00000000*      8282 	.word	.LDW_28a9ed8
000031d7 01             8283 	.byte	1
000031d8 00             8284 	.byte	0
000031d9 01             8285 	.byte	1
000031da 01             8286 	.byte	1
000031db 00             8287 	.byte	0
000031dc 01             8288 	.byte	1
                        8289 
000031dd 00             8290 	.byte	0
                        8291 
                        8292 .LDW_4c4f2e8:
000031de 16             8293 	.byte	22
000031df 44434d5f496e   8294 	.strz	"DCM_InvIf_TempLastRxIDGetValue"
000031e5 7649665f5465 
000031eb 6d704c617374 
000031f1 527849444765 
000031f7 7456616c7565 
000031fd 00 
000031fe 45             8295 	.byte	69
000031ff 0e             8296 	.byte	14
00003200 0b             8297 	.byte	11
00003201 00000000*      8298 	.word	.LDW_4c3b908
00003205 01             8299 	.byte	1
00003206 00             8300 	.byte	0
00003207 01             8301 	.byte	1
00003208 01             8302 	.byte	1
00003209 00             8303 	.byte	0
0000320a 01             8304 	.byte	1
                        8305 
0000320b 00             8306 	.byte	0
                        8307 
                        8308 .LDW_4c4ef58:
0000320c 16             8309 	.byte	22
0000320d 44434d5f496e   8310 	.strz	"DCM_InvIf_AxImbWarnSetThresholdGetValue"

                                                                      Page 163
                                                              C:\Users\nhuliyap\AppData\Local\Temp\gh_00006601.s
00003213 7649665f4178 
00003219 496d62576172 
0000321f 6e5365745468 
00003225 726573686f6c 
0000322b 644765745661 
00003231 6c756500 
00003235 47             8311 	.byte	71
00003236 0e             8312 	.byte	14
00003237 0b             8313 	.byte	11
00003238 00000000*      8314 	.word	.LDW_28a9ed8
0000323c 01             8315 	.byte	1
0000323d 00             8316 	.byte	0
0000323e 01             8317 	.byte	1
0000323f 01             8318 	.byte	1
00003240 00             8319 	.byte	0
00003241 01             8320 	.byte	1
                        8321 
00003242 00             8322 	.byte	0
                        8323 
                        8324 .LDW_4c4f7a8:
00003243 16             8325 	.byte	22
00003244 44434d5f496e   8326 	.strz	"DCM_InvIf_DHWWarnSetThresholdGetValue"
0000324a 7649665f4448 
00003250 575761726e53 
00003256 657454687265 
0000325c 73686f6c6447 
00003262 657456616c75 
00003268 6500 
0000326a 48             8327 	.byte	72
0000326b 0e             8328 	.byte	14
0000326c 0b             8329 	.byte	11
0000326d 00000000*      8330 	.word	.LDW_28a9ed8
00003271 01             8331 	.byte	1
00003272 00             8332 	.byte	0
00003273 01             8333 	.byte	1
00003274 01             8334 	.byte	1
00003275 00             8335 	.byte	0
00003276 01             8336 	.byte	1
                        8337 
00003277 00             8338 	.byte	0
                        8339 
                        8340 .LDW_4c4f380:
00003278 16             8341 	.byte	22
00003279 44434d5f496e   8342 	.strz	"DCM_InvIf_EuFWarnSetThresholdGetValue"
0000327f 7649665f4575 
00003285 465761726e53 
0000328b 657454687265 
00003291 73686f6c6447 
00003297 657456616c75 
0000329d 6500 
0000329f 49             8343 	.byte	73
000032a0 0e             8344 	.byte	14
000032a1 0b             8345 	.byte	11
000032a2 00000000*      8346 	.word	.LDW_28a9ed8
000032a6 01             8347 	.byte	1
000032a7 00             8348 	.byte	0
000032a8 01             8349 	.byte	1
000032a9 01             8350 	.byte	1
000032aa 00             8351 	.byte	0
000032ab 01             8352 	.byte	1
                        8353 

                                                                      Page 164
                                                              C:\Users\nhuliyap\AppData\Local\Temp\gh_00006601.s
000032ac 00             8354 	.byte	0
                        8355 
                        8356 .LDW_4c4f840:
000032ad 16             8357 	.byte	22
000032ae 44434d5f496e   8358 	.strz	"DCM_InvIf_FTWarnSetThresholdGetValue"
000032b4 7649665f4654 
000032ba 5761726e5365 
000032c0 745468726573 
000032c6 686f6c644765 
000032cc 7456616c7565 
000032d2 00 
000032d3 4a             8359 	.byte	74
000032d4 0e             8360 	.byte	14
000032d5 0b             8361 	.byte	11
000032d6 00000000*      8362 	.word	.LDW_28a9ed8
000032da 01             8363 	.byte	1
000032db 00             8364 	.byte	0
000032dc 01             8365 	.byte	1
000032dd 01             8366 	.byte	1
000032de 00             8367 	.byte	0
000032df 01             8368 	.byte	1
                        8369 
000032e0 00             8370 	.byte	0
                        8371 
                        8372 .LDW_4c4ee28:
000032e1 16             8373 	.byte	22
000032e2 44434d5f496e   8374 	.strz	"DCM_InvIf_HardTDRWarnSetThresholdGetValue"
000032e8 7649665f4861 
000032ee 726454445257 
000032f4 61726e536574 
000032fa 546872657368 
00003300 6f6c64476574 
00003306 56616c756500 
0000330c 4b             8375 	.byte	75
0000330d 0e             8376 	.byte	14
0000330e 0b             8377 	.byte	11
0000330f 00000000*      8378 	.word	.LDW_28a9ed8
00003313 01             8379 	.byte	1
00003314 00             8380 	.byte	0
00003315 01             8381 	.byte	1
00003316 01             8382 	.byte	1
00003317 00             8383 	.byte	0
00003318 01             8384 	.byte	1
                        8385 
00003319 00             8386 	.byte	0
                        8387 
                        8388 .LDW_4c4eec0:
0000331a 16             8389 	.byte	22
0000331b 44434d5f496e   8390 	.strz	"DCM_InvIf_HiPWarnSetThresholdGetValue"
00003321 7649665f4869 
00003327 505761726e53 
0000332d 657454687265 
00003333 73686f6c6447 
00003339 657456616c75 
0000333f 6500 
00003341 4c             8391 	.byte	76
00003342 0e             8392 	.byte	14
00003343 0b             8393 	.byte	11
00003344 00000000*      8394 	.word	.LDW_28a9ed8
00003348 01             8395 	.byte	1
00003349 00             8396 	.byte	0

                                                                      Page 165
                                                              C:\Users\nhuliyap\AppData\Local\Temp\gh_00006601.s
0000334a 01             8397 	.byte	1
0000334b 01             8398 	.byte	1
0000334c 00             8399 	.byte	0
0000334d 01             8400 	.byte	1
                        8401 
0000334e 00             8402 	.byte	0
                        8403 
                        8404 .LDW_4c4f120:
0000334f 16             8405 	.byte	22
00003350 44434d5f496e   8406 	.strz	"DCM_InvIf_LowPWarnSetThresholdGetValue"
00003356 7649665f4c6f 
0000335c 77505761726e 
00003362 536574546872 
00003368 6573686f6c64 
0000336e 47657456616c 
00003374 756500 
00003377 4d             8407 	.byte	77
00003378 0e             8408 	.byte	14
00003379 0b             8409 	.byte	11
0000337a 00000000*      8410 	.word	.LDW_28a9ed8
0000337e 01             8411 	.byte	1
0000337f 00             8412 	.byte	0
00003380 01             8413 	.byte	1
00003381 01             8414 	.byte	1
00003382 00             8415 	.byte	0
00003383 01             8416 	.byte	1
                        8417 
00003384 00             8418 	.byte	0
                        8419 
                        8420 .LDW_4c4f1b8:
00003385 16             8421 	.byte	22
00003386 44434d5f496e   8422 	.strz	"DCM_InvIf_PminDRWarnSetThresholdGetValue"
0000338c 7649665f506d 
00003392 696e44525761 
00003398 726e53657454 
0000339e 68726573686f 
000033a4 6c6447657456 
000033aa 616c756500 
000033af 4e             8423 	.byte	78
000033b0 0e             8424 	.byte	14
000033b1 0b             8425 	.byte	11
000033b2 00000000*      8426 	.word	.LDW_28a9ed8
000033b6 01             8427 	.byte	1
000033b7 00             8428 	.byte	0
000033b8 01             8429 	.byte	1
000033b9 01             8430 	.byte	1
000033ba 00             8431 	.byte	0
000033bb 01             8432 	.byte	1
                        8433 
000033bc 00             8434 	.byte	0
                        8435 
                        8436 .LDW_4c4dcf0:
000033bd 16             8437 	.byte	22
000033be 4443485f4d75   8438 	.strz	"DCH_MultiplexMsgGetActiveStatus"
000033c4 6c7469706c65 
000033ca 784d73674765 
000033d0 744163746976 
000033d6 655374617475 
000033dc 7300 
000033de 13             8439 	.byte	19
000033df 0e             8440 	.byte	14

                                                                      Page 166
                                                              C:\Users\nhuliyap\AppData\Local\Temp\gh_00006601.s
000033e0 0c             8441 	.byte	12
000033e1 00000000*      8442 	.word	.LDW_28a9ed8
000033e5 01             8443 	.byte	1
000033e6 00             8444 	.byte	0
000033e7 01             8445 	.byte	1
000033e8 01             8446 	.byte	1
000033e9 00             8447 	.byte	0
000033ea 01             8448 	.byte	1
                        8449 
000033eb 00             8450 	.byte	0
                        8451 
                        8452 .LDW_4c4dbc0:
000033ec 16             8453 	.byte	22
000033ed 4443485f4973   8454 	.strz	"DCH_IsCanDebugEnabled"
000033f3 43616e446562 
000033f9 7567456e6162 
000033ff 6c656400 
00003403 1c             8455 	.byte	28
00003404 10             8456 	.byte	16
00003405 0c             8457 	.byte	12
00003406 00000000*      8458 	.word	.LDW_28ac5a8
0000340a 01             8459 	.byte	1
0000340b 00             8460 	.byte	0
0000340c 01             8461 	.byte	1
0000340d 01             8462 	.byte	1
0000340e 00             8463 	.byte	0
0000340f 01             8464 	.byte	1
                        8465 
00003410 00             8466 	.byte	0
                        8467 
                        8468 .LDW_4c4ebc8:
00003411 16             8469 	.byte	22
00003412 4443485f5375   8470 	.strz	"DCH_SubmultiplexConfigGetStatus"
00003418 626d756c7469 
0000341e 706c6578436f 
00003424 6e6669674765 
0000342a 745374617475 
00003430 7300 
00003432 21             8471 	.byte	33
00003433 0e             8472 	.byte	14
00003434 0c             8473 	.byte	12
00003435 00000000*      8474 	.word	.LDW_28a9ed8
00003439 01             8475 	.byte	1
0000343a 00             8476 	.byte	0
0000343b 01             8477 	.byte	1
0000343c 01             8478 	.byte	1
0000343d 00             8479 	.byte	0
0000343e 01             8480 	.byte	1
                        8481 
0000343f 00             8482 	.byte	0
                        8483 
                        8484 .LDW_4c50b88:
00003440 16             8485 	.byte	22
00003441 474554756352   8486 	.strz	"GETucReHeatUpStatusEE"
00003447 654865617455 
0000344d 705374617475 
00003453 73454500 
00003457 73             8487 	.byte	115
00003458 10             8488 	.byte	16
00003459 0f             8489 	.byte	15
0000345a 00000000*      8490 	.word	.LDW_28a9ed8

                                                                      Page 167
                                                              C:\Users\nhuliyap\AppData\Local\Temp\gh_00006601.s
0000345e 01             8491 	.byte	1
0000345f 00             8492 	.byte	0
00003460 01             8493 	.byte	1
00003461 01             8494 	.byte	1
00003462 00             8495 	.byte	0
00003463 01             8496 	.byte	1
                        8497 
00003464 00             8498 	.byte	0
                        8499 
                        8500 .LDW_4c51470:
00003465 16             8501 	.byte	22
00003466 474554624866   8502 	.strz	"GETbHfIntLatchEE"
0000346c 496e744c6174 
00003472 6368454500 
00003477 7e             8503 	.byte	126
00003478 10             8504 	.byte	16
00003479 0f             8505 	.byte	15
0000347a 00000000*      8506 	.word	.LDW_28ac5a8
0000347e 01             8507 	.byte	1
0000347f 00             8508 	.byte	0
00003480 01             8509 	.byte	1
00003481 01             8510 	.byte	1
00003482 00             8511 	.byte	0
00003483 01             8512 	.byte	1
                        8513 
00003484 00             8514 	.byte	0
                        8515 
                        8516 .LDW_4c557d0:
00003485 16             8517 	.byte	22
00003486 756347657450   8518 	.strz	"ucGetPSollCS"
0000348c 536f6c6c4353 
00003492 00 
00003493 07             8519 	.byte	7
00003494 16             8520 	.byte	22
00003495 10             8521 	.byte	16
00003496 00000000*      8522 	.word	.LDW_28670b0
0000349a 01             8523 	.byte	1
0000349b 00             8524 	.byte	0
0000349c 01             8525 	.byte	1
0000349d 01             8526 	.byte	1
0000349e 00             8527 	.byte	0
0000349f 01             8528 	.byte	1
                        8529 
000034a0 00             8530 	.byte	0
                        8531 
                        8532 .LDW_28a9f30:
000034a1 13             8533 	.byte	19
000034a2 44434d5f4d65   8534 	.strz	"DCM_MessageUpdateMultiplex_00"
000034a8 737361676555 
000034ae 70646174654d 
000034b4 756c7469706c 
000034ba 65785f303000 
000034c0 e601           8535 	.byte	230,1
000034c2 0d             8536 	.byte	13
000034c3 01             8537 	.byte	1
000034c4 00000000*      8538 	.word	_DCM_MessageUpdateMultiplex_00..C.3A.5C_ECU2.5CECU_Rivian_A1.5CTarget.5Crepo_projects.5CpRealEcu.5CcL_LATEST.5Cmake.5Coutput.5Cobjects.5CSwcApplTpms_DevCanMessages.
000034c8 00000000*      8539 	.word	___ghs_eofn_DCM_MessageUpdateMultiplex_00
000034cc 0153           8540 	.byte	1,83
000034ce 828080c00a     8541 	.byte	130,128,128,192,10
000034d3 0c             8542 	.byte	12
000034d4 03             8543 	.byte	3

                                                                      Page 168
                                                              C:\Users\nhuliyap\AppData\Local\Temp\gh_00006601.s
000034d5 0c             8544 	.byte	12
000034d6 00             8545 	.byte	0
000034d7 00             8546 	.byte	0
000034d8 00             8547 	.byte	0
000034d9 00             8548 	.byte	0
000034da 01             8549 	.byte	1
000034db 00             8550 	.byte	0
000034dc 01             8551 	.byte	1
                        8552 
                        8553 	.section	.debug_abbrev
00000114 13             8554 	.byte	19
00000115 2e             8555 	.byte	46
00000116 01             8556 	.byte	1
00000117 0308           8557 	.byte	3,8
00000119 3b0f           8558 	.byte	59,15
0000011b 390f           8559 	.byte	57,15
0000011d 3a0f           8560 	.byte	58,15
0000011f 1101           8561 	.byte	17,1
00000121 1201           8562 	.byte	18,1
00000123 400a           8563 	.byte	64,10
00000125 8341           8564 	.byte	131,65
00000127 0f             8565 	.byte	15
00000128 8741           8566 	.byte	135,65
0000012a 0d             8567 	.byte	13
0000012b 8541           8568 	.byte	133,65
0000012d 0f             8569 	.byte	15
0000012e 8641           8570 	.byte	134,65
00000130 0d             8571 	.byte	13
00000131 9241           8572 	.byte	146,65
00000133 0f             8573 	.byte	15
00000134 3c0c           8574 	.byte	60,12
00000136 200b           8575 	.byte	32,11
00000138 3f0c           8576 	.byte	63,12
0000013a 320b           8577 	.byte	50,11
0000013c 4c0b           8578 	.byte	76,11
0000013e 270c           8579 	.byte	39,12
00000140 0000           8580 	.byte	0,0
                        8581 
                        8582 	.section	.debug_frame
                        8583 .LDW_4c3d1a8:
00000090 00000000*      8584 	.word	.LDW_unq_4-.LDW_unq_3
                        8585 .LDW_unq_3:
00000094 00000000*      8586 	.word	.LDW_4c03450
00000098 00000000*      8587 	.word	_DCM_MessageUpdateMultiplex_00..C.3A.5C_ECU2.5CECU_Rivian_A1.5CTarget.5Crepo_projects.5CpRealEcu.5CcL_LATEST.5Cmake.5Coutput.5Cobjects.5CSwcApplTpms_DevCanMessages.
0000009c 00000000*      8588 	.word	___ghs_eofn_DCM_MessageUpdateMultiplex_00-_DCM_MessageUpdateMultiplex_00..C.3A.5C_ECU2.5CECU_Rivian_A1.5CTarget.5Crepo_projects.5CpRealEcu.5CcL_LATEST.5Cmake.5Coutput.5Cobjects.5CSwcApplTpms_DevCanMessages.
000000a0 44             8589 	.byte	68
000000a1 9f             8590 	.byte	159
000000a2 00             8591 	.byte	0
000000a3 40             8592 	.byte	64
000000a4 9d             8593 	.byte	157
000000a5 04             8594 	.byte	4
000000a6 40             8595 	.byte	64
000000a7 9b             8596 	.byte	155
000000a8 08             8597 	.byte	8
000000a9 01             8598 	.byte	1
000000aa 00000000*      8599 	.word	.LDW11
000000ae 44             8600 	.byte	68
000000af df             8601 	.byte	223
000000b0 40             8602 	.byte	64
000000b1 dd             8603 	.byte	221
000000b2 40             8604 	.byte	64

                                                                      Page 169
                                                              C:\Users\nhuliyap\AppData\Local\Temp\gh_00006601.s
000000b3 db             8605 	.byte	219
                        8606 .LDW_unq_4:
                        8607 	.section	.debug_line
000002dc 000502         8608 	.byte	0,5,2
000002df 00000000*      8609 	.word	_DCM_MessageUpdateMultiplex_00..C.3A.5C_ECU2.5CECU_Rivian_A1.5CTarget.5Crepo_projects.5CpRealEcu.5CcL_LATEST.5Cmake.5Coutput.5Cobjects.5CSwcApplTpms_DevCanMessages.
000002e3 03             8610 	.byte	3
000002e4 e601           8611 	.byte	230,1
000002e6 02             8612 	.byte	2
000002e7 00             8613 	.byte	0
000002e8 01             8614 	.byte	1
000002e9 06             8615 	.byte	6
000002ea 000502         8616 	.byte	0,5,2
000002ed 00000000*      8617 	.word	.LDWlin1
000002f1 0b             8618 	.byte	11
000002f2 1b             8619 	.byte	27
000002f3 000502         8620 	.byte	0,5,2
000002f6 00000000*      8621 	.word	.LDWlin2
000002fa 0b             8622 	.byte	11
000002fb 000502         8623 	.byte	0,5,2
000002fe 00000000*      8624 	.word	.LDWlin3
00000302 0c             8625 	.byte	12
00000303 53             8626 	.byte	83
00000304 02             8627 	.byte	2
00000305 04             8628 	.byte	4
00000306 000101         8629 	.byte	0,1,1
                        8630 	.section	.debug_info
                        8631 .LDW_28a9fc8:
000034dd 0f             8632 	.byte	15
000034de 55385f436667   8633 	.strz	"U8_CfgArrPosition"
000034e4 417272506f73 
000034ea 6974696f6e00 
000034f0 e601           8634 	.byte	230,1
000034f2 31             8635 	.byte	49
000034f3 01             8636 	.byte	1
000034f4 00000000*      8637 	.word	.LDW_28a9ed8
000034f8 00             8638 	.byte	0
000034f9 016b           8639 	.byte	1,107
                        8640 
                        8641 	.section	.debug_abbrev
00000142 0f             8642 	.byte	15
00000143 05             8643 	.byte	5
00000144 00             8644 	.byte	0
00000145 0308           8645 	.byte	3,8
00000147 3b0f           8646 	.byte	59,15
00000149 390f           8647 	.byte	57,15
0000014b 3a0f           8648 	.byte	58,15
0000014d 4910           8649 	.byte	73,16
0000014f 4b0c           8650 	.byte	75,12
00000151 020a           8651 	.byte	2,10
00000153 0000           8652 	.byte	0,0
                        8653 
                        8654 	.section	.debug_info
                        8655 .LDW_28ae4a8:
000034fb 1d             8656 	.byte	29
000034fc 00000000*      8657 	.word	.LDW01
00003500 00000000*      8658 	.word	.LDW11
                        8659 
                        8660 	.section	.debug_abbrev
00000155 1d             8661 	.byte	29
00000156 0b             8662 	.byte	11
00000157 01             8663 	.byte	1

                                                                      Page 170
                                                              C:\Users\nhuliyap\AppData\Local\Temp\gh_00006601.s
00000158 1101           8664 	.byte	17,1
0000015a 1201           8665 	.byte	18,1
0000015c 0000           8666 	.byte	0,0
                        8667 
                        8668 	.section	.debug_info
00003504 00             8669 	.byte	0
                        8670 
00003505 00             8671 	.byte	0
                        8672 
                        8673 .LDW_28aa020:
00003506 13             8674 	.byte	19
00003507 44434d5f4d65   8675 	.strz	"DCM_MessageUpdateMultiplex_01"
0000350d 737361676555 
00003513 70646174654d 
00003519 756c7469706c 
0000351f 65785f303100 
00003525 ef01           8676 	.byte	239,1
00003527 0d             8677 	.byte	13
00003528 01             8678 	.byte	1
00003529 00000000*      8679 	.word	_DCM_MessageUpdateMultiplex_01..C.3A.5C_ECU2.5CECU_Rivian_A1.5CTarget.5Crepo_projects.5CpRealEcu.5CcL_LATEST.5Cmake.5Coutput.5Cobjects.5CSwcApplTpms_DevCanMessages.
0000352d 00000000*      8680 	.word	___ghs_eofn_DCM_MessageUpdateMultiplex_01
00003531 0153           8681 	.byte	1,83
00003533 828080c00b     8682 	.byte	130,128,128,192,11
00003538 10             8683 	.byte	16
00003539 03             8684 	.byte	3
0000353a 10             8685 	.byte	16
0000353b 00             8686 	.byte	0
0000353c 00             8687 	.byte	0
0000353d 00             8688 	.byte	0
0000353e 00             8689 	.byte	0
0000353f 01             8690 	.byte	1
00003540 00             8691 	.byte	0
00003541 01             8692 	.byte	1
                        8693 
                        8694 	.section	.debug_frame
                        8695 .LDW_4c3d268:
000000b4 00000000*      8696 	.word	.LDW_unq_6-.LDW_unq_5
                        8697 .LDW_unq_5:
000000b8 00000000*      8698 	.word	.LDW_4c03450
000000bc 00000000*      8699 	.word	_DCM_MessageUpdateMultiplex_01..C.3A.5C_ECU2.5CECU_Rivian_A1.5CTarget.5Crepo_projects.5CpRealEcu.5CcL_LATEST.5Cmake.5Coutput.5Cobjects.5CSwcApplTpms_DevCanMessages.
000000c0 00000000*      8700 	.word	___ghs_eofn_DCM_MessageUpdateMultiplex_01-_DCM_MessageUpdateMultiplex_01..C.3A.5C_ECU2.5CECU_Rivian_A1.5CTarget.5Crepo_projects.5CpRealEcu.5CcL_LATEST.5Cmake.5Coutput.5Cobjects.5CSwcApplTpms_DevCanMessages.
000000c4 44             8701 	.byte	68
000000c5 9f             8702 	.byte	159
000000c6 00             8703 	.byte	0
000000c7 40             8704 	.byte	64
000000c8 9d             8705 	.byte	157
000000c9 04             8706 	.byte	4
000000ca 40             8707 	.byte	64
000000cb 9c             8708 	.byte	156
000000cc 08             8709 	.byte	8
000000cd 40             8710 	.byte	64
000000ce 9b             8711 	.byte	155
000000cf 0c             8712 	.byte	12
000000d0 01             8713 	.byte	1
000000d1 00000000*      8714 	.word	.LDW31
000000d5 44             8715 	.byte	68
000000d6 df             8716 	.byte	223
000000d7 40             8717 	.byte	64
000000d8 dd             8718 	.byte	221
000000d9 40             8719 	.byte	64
000000da dc             8720 	.byte	220

                                                                      Page 171
                                                              C:\Users\nhuliyap\AppData\Local\Temp\gh_00006601.s
000000db 40             8721 	.byte	64
000000dc db             8722 	.byte	219
000000dd 00             8723 	.byte	0
000000de 00             8724 	.byte	0
000000df 00             8725 	.byte	0
                        8726 .LDW_unq_6:
                        8727 	.section	.debug_line
00000309 000502         8728 	.byte	0,5,2
0000030c 00000000*      8729 	.word	_DCM_MessageUpdateMultiplex_01..C.3A.5C_ECU2.5CECU_Rivian_A1.5CTarget.5Crepo_projects.5CpRealEcu.5CcL_LATEST.5Cmake.5Coutput.5Cobjects.5CSwcApplTpms_DevCanMessages.
00000310 03             8730 	.byte	3
00000311 ef01           8731 	.byte	239,1
00000313 02             8732 	.byte	2
00000314 00             8733 	.byte	0
00000315 01             8734 	.byte	1
00000316 06             8735 	.byte	6
00000317 000502         8736 	.byte	0,5,2
0000031a 00000000*      8737 	.word	.LDWlin4
0000031e 0b             8738 	.byte	11
0000031f 03             8739 	.byte	3
00000320 06             8740 	.byte	6
00000321 02             8741 	.byte	2
00000322 0a             8742 	.byte	10
00000323 01             8743 	.byte	1
00000324 000502         8744 	.byte	0,5,2
00000327 00000000*      8745 	.word	.LDWlin5
0000032b 0b             8746 	.byte	11
0000032c 000502         8747 	.byte	0,5,2
0000032f 00000000*      8748 	.word	.LDWlin6
00000333 0b             8749 	.byte	11
00000334 000502         8750 	.byte	0,5,2
00000337 00000000*      8751 	.word	.LDWlin7
0000033b 0b             8752 	.byte	11
0000033c 000502         8753 	.byte	0,5,2
0000033f 00000000*      8754 	.word	.LDWlin8
00000343 03             8755 	.byte	3
00000344 05             8756 	.byte	5
00000345 02             8757 	.byte	2
00000346 00             8758 	.byte	0
00000347 01             8759 	.byte	1
00000348 53             8760 	.byte	83
00000349 02             8761 	.byte	2
0000034a 04             8762 	.byte	4
0000034b 000101         8763 	.byte	0,1,1
                        8764 	.section	.debug_info
                        8765 .LDW_28aa0b8:
00003542 0f             8766 	.byte	15
00003543 55385f436667   8767 	.strz	"U8_CfgArrPosition"
00003549 417272506f73 
0000354f 6974696f6e00 
00003555 ef01           8768 	.byte	239,1
00003557 31             8769 	.byte	49
00003558 01             8770 	.byte	1
00003559 00000000*      8771 	.word	.LDW_28a9ed8
0000355d 00             8772 	.byte	0
0000355e 016b           8773 	.byte	1,107
                        8774 
                        8775 .LDW_28ae7d8:
00003560 1d             8776 	.byte	29
00003561 00000000*      8777 	.word	.LDW21
00003565 00000000*      8778 	.word	.LDW31
                        8779 

                                                                      Page 172
                                                              C:\Users\nhuliyap\AppData\Local\Temp\gh_00006601.s
00003569 00             8780 	.byte	0
                        8781 
0000356a 00             8782 	.byte	0
                        8783 
                        8784 .LDW_28aa110:
0000356b 13             8785 	.byte	19
0000356c 44434d5f4d65   8786 	.strz	"DCM_MessageUpdateMultiplex_02"
00003572 737361676555 
00003578 70646174654d 
0000357e 756c7469706c 
00003584 65785f303200 
0000358a 8202           8787 	.byte	130,2
0000358c 0d             8788 	.byte	13
0000358d 01             8789 	.byte	1
0000358e 00000000*      8790 	.word	_DCM_MessageUpdateMultiplex_02..C.3A.5C_ECU2.5CECU_Rivian_A1.5CTarget.5Crepo_projects.5CpRealEcu.5CcL_LATEST.5Cmake.5Coutput.5Cobjects.5CSwcApplTpms_DevCanMessages.
00003592 00000000*      8791 	.word	___ghs_eofn_DCM_MessageUpdateMultiplex_02
00003596 0153           8792 	.byte	1,83
00003598 828080c00b     8793 	.byte	130,128,128,192,11
0000359d 10             8794 	.byte	16
0000359e 03             8795 	.byte	3
0000359f 10             8796 	.byte	16
000035a0 00             8797 	.byte	0
000035a1 00             8798 	.byte	0
000035a2 00             8799 	.byte	0
000035a3 00             8800 	.byte	0
000035a4 01             8801 	.byte	1
000035a5 00             8802 	.byte	0
000035a6 01             8803 	.byte	1
                        8804 
                        8805 	.section	.debug_frame
                        8806 .LDW_4c3cb68:
000000e0 00000000*      8807 	.word	.LDW_unq_8-.LDW_unq_7
                        8808 .LDW_unq_7:
000000e4 00000000*      8809 	.word	.LDW_4c03450
000000e8 00000000*      8810 	.word	_DCM_MessageUpdateMultiplex_02..C.3A.5C_ECU2.5CECU_Rivian_A1.5CTarget.5Crepo_projects.5CpRealEcu.5CcL_LATEST.5Cmake.5Coutput.5Cobjects.5CSwcApplTpms_DevCanMessages.
000000ec 00000000*      8811 	.word	___ghs_eofn_DCM_MessageUpdateMultiplex_02-_DCM_MessageUpdateMultiplex_02..C.3A.5C_ECU2.5CECU_Rivian_A1.5CTarget.5Crepo_projects.5CpRealEcu.5CcL_LATEST.5Cmake.5Coutput.5Cobjects.5CSwcApplTpms_DevCanMessages.
000000f0 44             8812 	.byte	68
000000f1 9f             8813 	.byte	159
000000f2 00             8814 	.byte	0
000000f3 40             8815 	.byte	64
000000f4 9d             8816 	.byte	157
000000f5 04             8817 	.byte	4
000000f6 40             8818 	.byte	64
000000f7 9c             8819 	.byte	156
000000f8 08             8820 	.byte	8
000000f9 40             8821 	.byte	64
000000fa 9b             8822 	.byte	155
000000fb 0c             8823 	.byte	12
000000fc 01             8824 	.byte	1
000000fd 00000000*      8825 	.word	.LDW51
00000101 44             8826 	.byte	68
00000102 df             8827 	.byte	223
00000103 40             8828 	.byte	64
00000104 dd             8829 	.byte	221
00000105 40             8830 	.byte	64
00000106 dc             8831 	.byte	220
00000107 40             8832 	.byte	64
00000108 db             8833 	.byte	219
00000109 00             8834 	.byte	0
0000010a 00             8835 	.byte	0
0000010b 00             8836 	.byte	0

                                                                      Page 173
                                                              C:\Users\nhuliyap\AppData\Local\Temp\gh_00006601.s
                        8837 .LDW_unq_8:
                        8838 	.section	.debug_line
0000034e 000502         8839 	.byte	0,5,2
00000351 00000000*      8840 	.word	_DCM_MessageUpdateMultiplex_02..C.3A.5C_ECU2.5CECU_Rivian_A1.5CTarget.5Crepo_projects.5CpRealEcu.5CcL_LATEST.5Cmake.5Coutput.5Cobjects.5CSwcApplTpms_DevCanMessages.
00000355 03             8841 	.byte	3
00000356 8202           8842 	.byte	130,2
00000358 02             8843 	.byte	2
00000359 00             8844 	.byte	0
0000035a 01             8845 	.byte	1
0000035b 06             8846 	.byte	6
0000035c 000502         8847 	.byte	0,5,2
0000035f 00000000*      8848 	.word	.LDWlin9
00000363 0b             8849 	.byte	11
00000364 33             8850 	.byte	51
00000365 000502         8851 	.byte	0,5,2
00000368 00000000*      8852 	.word	.LDWlin10
0000036c 0b             8853 	.byte	11
0000036d 000502         8854 	.byte	0,5,2
00000370 00000000*      8855 	.word	.LDWlin11
00000374 0b             8856 	.byte	11
00000375 000502         8857 	.byte	0,5,2
00000378 00000000*      8858 	.word	.LDWlin12
0000037c 0b             8859 	.byte	11
0000037d 000502         8860 	.byte	0,5,2
00000380 00000000*      8861 	.word	.LDWlin13
00000384 03             8862 	.byte	3
00000385 05             8863 	.byte	5
00000386 02             8864 	.byte	2
00000387 00             8865 	.byte	0
00000388 01             8866 	.byte	1
00000389 53             8867 	.byte	83
0000038a 02             8868 	.byte	2
0000038b 04             8869 	.byte	4
0000038c 000101         8870 	.byte	0,1,1
                        8871 	.section	.debug_info
                        8872 .LDW_28aa1a8:
000035a7 0f             8873 	.byte	15
000035a8 55385f436667   8874 	.strz	"U8_CfgArrPosition"
000035ae 417272506f73 
000035b4 6974696f6e00 
000035ba 8202           8875 	.byte	130,2
000035bc 31             8876 	.byte	49
000035bd 01             8877 	.byte	1
000035be 00000000*      8878 	.word	.LDW_28a9ed8
000035c2 00             8879 	.byte	0
000035c3 016b           8880 	.byte	1,107
                        8881 
                        8882 .LDW_28ae9b8:
000035c5 1d             8883 	.byte	29
000035c6 00000000*      8884 	.word	.LDW41
000035ca 00000000*      8885 	.word	.LDW51
                        8886 
000035ce 00             8887 	.byte	0
                        8888 
000035cf 00             8889 	.byte	0
                        8890 
                        8891 .LDW_28aa200:
000035d0 13             8892 	.byte	19
000035d1 44434d5f4d65   8893 	.strz	"DCM_MessageUpdateMultiplex_03"
000035d7 737361676555 
000035dd 70646174654d 

                                                                      Page 174
                                                              C:\Users\nhuliyap\AppData\Local\Temp\gh_00006601.s
000035e3 756c7469706c 
000035e9 65785f303300 
000035ef 9002           8894 	.byte	144,2
000035f1 0d             8895 	.byte	13
000035f2 01             8896 	.byte	1
000035f3 00000000*      8897 	.word	_DCM_MessageUpdateMultiplex_03..C.3A.5C_ECU2.5CECU_Rivian_A1.5CTarget.5Crepo_projects.5CpRealEcu.5CcL_LATEST.5Cmake.5Coutput.5Cobjects.5CSwcApplTpms_DevCanMessages.
000035f7 00000000*      8898 	.word	___ghs_eofn_DCM_MessageUpdateMultiplex_03
000035fb 0153           8899 	.byte	1,83
000035fd 828080e00b     8900 	.byte	130,128,128,224,11
00003602 14             8901 	.byte	20
00003603 03             8902 	.byte	3
00003604 14             8903 	.byte	20
00003605 00             8904 	.byte	0
00003606 00             8905 	.byte	0
00003607 00             8906 	.byte	0
00003608 00             8907 	.byte	0
00003609 01             8908 	.byte	1
0000360a 00             8909 	.byte	0
0000360b 01             8910 	.byte	1
                        8911 
                        8912 	.section	.debug_frame
                        8913 .LDW_4c3cbe8:
0000010c 00000000*      8914 	.word	.LDW_unq_a-.LDW_unq_9
                        8915 .LDW_unq_9:
00000110 00000000*      8916 	.word	.LDW_4c03450
00000114 00000000*      8917 	.word	_DCM_MessageUpdateMultiplex_03..C.3A.5C_ECU2.5CECU_Rivian_A1.5CTarget.5Crepo_projects.5CpRealEcu.5CcL_LATEST.5Cmake.5Coutput.5Cobjects.5CSwcApplTpms_DevCanMessages.
00000118 00000000*      8918 	.word	___ghs_eofn_DCM_MessageUpdateMultiplex_03-_DCM_MessageUpdateMultiplex_03..C.3A.5C_ECU2.5CECU_Rivian_A1.5CTarget.5Crepo_projects.5CpRealEcu.5CcL_LATEST.5Cmake.5Coutput.5Cobjects.5CSwcApplTpms_DevCanMessages.
0000011c 44             8919 	.byte	68
0000011d 9f             8920 	.byte	159
0000011e 00             8921 	.byte	0
0000011f 40             8922 	.byte	64
00000120 9d             8923 	.byte	157
00000121 04             8924 	.byte	4
00000122 40             8925 	.byte	64
00000123 9c             8926 	.byte	156
00000124 08             8927 	.byte	8
00000125 40             8928 	.byte	64
00000126 9b             8929 	.byte	155
00000127 0c             8930 	.byte	12
00000128 40             8931 	.byte	64
00000129 9a             8932 	.byte	154
0000012a 10             8933 	.byte	16
0000012b 01             8934 	.byte	1
0000012c 00000000*      8935 	.word	.LDW71
00000130 44             8936 	.byte	68
00000131 df             8937 	.byte	223
00000132 40             8938 	.byte	64
00000133 dd             8939 	.byte	221
00000134 40             8940 	.byte	64
00000135 dc             8941 	.byte	220
00000136 40             8942 	.byte	64
00000137 db             8943 	.byte	219
00000138 40             8944 	.byte	64
00000139 da             8945 	.byte	218
0000013a 00             8946 	.byte	0
0000013b 00             8947 	.byte	0
                        8948 .LDW_unq_a:
                        8949 	.section	.debug_line
0000038f 000502         8950 	.byte	0,5,2
00000392 00000000*      8951 	.word	_DCM_MessageUpdateMultiplex_03..C.3A.5C_ECU2.5CECU_Rivian_A1.5CTarget.5Crepo_projects.5CpRealEcu.5CcL_LATEST.5Cmake.5Coutput.5Cobjects.5CSwcApplTpms_DevCanMessages.
00000396 03             8952 	.byte	3

                                                                      Page 175
                                                              C:\Users\nhuliyap\AppData\Local\Temp\gh_00006601.s
00000397 9002           8953 	.byte	144,2
00000399 02             8954 	.byte	2
0000039a 00             8955 	.byte	0
0000039b 01             8956 	.byte	1
0000039c 06             8957 	.byte	6
0000039d 000502         8958 	.byte	0,5,2
000003a0 00000000*      8959 	.word	.LDWlin14
000003a4 0c             8960 	.byte	12
000003a5 000502         8961 	.byte	0,5,2
000003a8 00000000*      8962 	.word	.LDWlin15
000003ac 0b             8963 	.byte	11
000003ad 3b             8964 	.byte	59
000003ae 000502         8965 	.byte	0,5,2
000003b1 00000000*      8966 	.word	.LDWlin16
000003b5 0b             8967 	.byte	11
000003b6 000502         8968 	.byte	0,5,2
000003b9 00000000*      8969 	.word	.LDWlin17
000003bd 0b             8970 	.byte	11
000003be 000502         8971 	.byte	0,5,2
000003c1 00000000*      8972 	.word	.LDWlin18
000003c5 0b             8973 	.byte	11
000003c6 000502         8974 	.byte	0,5,2
000003c9 00000000*      8975 	.word	.LDWlin19
000003cd 0b             8976 	.byte	11
000003ce 000502         8977 	.byte	0,5,2
000003d1 00000000*      8978 	.word	.LDWlin20
000003d5 0b             8979 	.byte	11
000003d6 000502         8980 	.byte	0,5,2
000003d9 00000000*      8981 	.word	.LDWlin21
000003dd 0c             8982 	.byte	12
000003de 53             8983 	.byte	83
000003df 02             8984 	.byte	2
000003e0 04             8985 	.byte	4
000003e1 000101         8986 	.byte	0,1,1
                        8987 	.section	.debug_info
                        8988 .LDW_28aa298:
0000360c 0f             8989 	.byte	15
0000360d 55385f436667   8990 	.strz	"U8_CfgArrPosition"
00003613 417272506f73 
00003619 6974696f6e00 
0000361f 9002           8991 	.byte	144,2
00003621 31             8992 	.byte	49
00003622 01             8993 	.byte	1
00003623 00000000*      8994 	.word	.LDW_28a9ed8
00003627 00             8995 	.byte	0
00003628 016a           8996 	.byte	1,106
                        8997 
                        8998 .LDW_28ae7a8:
0000362a 1d             8999 	.byte	29
0000362b 00000000*      9000 	.word	.LDW61
0000362f 00000000*      9001 	.word	.LDW71
                        9002 
                        9003 .LDW_28aa2f0:
00003633 04             9004 	.byte	4
00003634 55385f5a6f6d   9005 	.strz	"U8_ZomPositionCurrentID"
0000363a 506f73697469 
00003640 6f6e43757272 
00003646 656e74494400 
0000364c 9202           9006 	.byte	146,2
0000364e 09             9007 	.byte	9
0000364f 01             9008 	.byte	1

                                                                      Page 176
                                                              C:\Users\nhuliyap\AppData\Local\Temp\gh_00006601.s
00003650 00000000*      9009 	.word	.LDW_28a9ed8
00003654 00             9010 	.byte	0
00003655 00             9011 	.byte	0
00003656 016b           9012 	.byte	1,107
                        9013 
00003658 00             9014 	.byte	0
                        9015 
00003659 00             9016 	.byte	0
                        9017 
                        9018 .LDW_4b355a0:
0000365a 13             9019 	.byte	19
0000365b 44434d5f4d65   9020 	.strz	"DCM_MessageUpdateMultiplex_04"
00003661 737361676555 
00003667 70646174654d 
0000366d 756c7469706c 
00003673 65785f303400 
00003679 9f02           9021 	.byte	159,2
0000367b 0d             9022 	.byte	13
0000367c 01             9023 	.byte	1
0000367d 00000000*      9024 	.word	_DCM_MessageUpdateMultiplex_04..C.3A.5C_ECU2.5CECU_Rivian_A1.5CTarget.5Crepo_projects.5CpRealEcu.5CcL_LATEST.5Cmake.5Coutput.5Cobjects.5CSwcApplTpms_DevCanMessages.
00003681 00000000*      9025 	.word	___ghs_eofn_DCM_MessageUpdateMultiplex_04
00003685 0153           9026 	.byte	1,83
00003687 828080c00b     9027 	.byte	130,128,128,192,11
0000368c 10             9028 	.byte	16
0000368d 03             9029 	.byte	3
0000368e 10             9030 	.byte	16
0000368f 00             9031 	.byte	0
00003690 00             9032 	.byte	0
00003691 00             9033 	.byte	0
00003692 00             9034 	.byte	0
00003693 01             9035 	.byte	1
00003694 00             9036 	.byte	0
00003695 01             9037 	.byte	1
                        9038 
                        9039 	.section	.debug_frame
                        9040 .LDW_4c3cc28:
0000013c 00000000*      9041 	.word	.LDW_unq_c-.LDW_unq_b
                        9042 .LDW_unq_b:
00000140 00000000*      9043 	.word	.LDW_4c03450
00000144 00000000*      9044 	.word	_DCM_MessageUpdateMultiplex_04..C.3A.5C_ECU2.5CECU_Rivian_A1.5CTarget.5Crepo_projects.5CpRealEcu.5CcL_LATEST.5Cmake.5Coutput.5Cobjects.5CSwcApplTpms_DevCanMessages.
00000148 00000000*      9045 	.word	___ghs_eofn_DCM_MessageUpdateMultiplex_04-_DCM_MessageUpdateMultiplex_04..C.3A.5C_ECU2.5CECU_Rivian_A1.5CTarget.5Crepo_projects.5CpRealEcu.5CcL_LATEST.5Cmake.5Coutput.5Cobjects.5CSwcApplTpms_DevCanMessages.
0000014c 44             9046 	.byte	68
0000014d 9f             9047 	.byte	159
0000014e 00             9048 	.byte	0
0000014f 40             9049 	.byte	64
00000150 9d             9050 	.byte	157
00000151 04             9051 	.byte	4
00000152 40             9052 	.byte	64
00000153 9c             9053 	.byte	156
00000154 08             9054 	.byte	8
00000155 40             9055 	.byte	64
00000156 9b             9056 	.byte	155
00000157 0c             9057 	.byte	12
00000158 01             9058 	.byte	1
00000159 00000000*      9059 	.word	.LDW91
0000015d 44             9060 	.byte	68
0000015e df             9061 	.byte	223
0000015f 40             9062 	.byte	64
00000160 dd             9063 	.byte	221
00000161 40             9064 	.byte	64
00000162 dc             9065 	.byte	220

                                                                      Page 177
                                                              C:\Users\nhuliyap\AppData\Local\Temp\gh_00006601.s
00000163 40             9066 	.byte	64
00000164 db             9067 	.byte	219
00000165 00             9068 	.byte	0
00000166 00             9069 	.byte	0
00000167 00             9070 	.byte	0
                        9071 .LDW_unq_c:
                        9072 	.section	.debug_line
000003e4 000502         9073 	.byte	0,5,2
000003e7 00000000*      9074 	.word	_DCM_MessageUpdateMultiplex_04..C.3A.5C_ECU2.5CECU_Rivian_A1.5CTarget.5Crepo_projects.5CpRealEcu.5CcL_LATEST.5Cmake.5Coutput.5Cobjects.5CSwcApplTpms_DevCanMessages.
000003eb 03             9075 	.byte	3
000003ec 9f02           9076 	.byte	159,2
000003ee 02             9077 	.byte	2
000003ef 00             9078 	.byte	0
000003f0 01             9079 	.byte	1
000003f1 06             9080 	.byte	6
000003f2 000502         9081 	.byte	0,5,2
000003f5 00000000*      9082 	.word	.LDWlin22
000003f9 0b             9083 	.byte	11
000003fa 33             9084 	.byte	51
000003fb 000502         9085 	.byte	0,5,2
000003fe 00000000*      9086 	.word	.LDWlin23
00000402 0c             9087 	.byte	12
00000403 53             9088 	.byte	83
00000404 02             9089 	.byte	2
00000405 04             9090 	.byte	4
00000406 000101         9091 	.byte	0,1,1
                        9092 	.section	.debug_info
                        9093 .LDW_4b35638:
00003696 0f             9094 	.byte	15
00003697 55385f436667   9095 	.strz	"U8_CfgArrPosition"
0000369d 417272506f73 
000036a3 6974696f6e00 
000036a9 9f02           9096 	.byte	159,2
000036ab 31             9097 	.byte	49
000036ac 01             9098 	.byte	1
000036ad 00000000*      9099 	.word	.LDW_28a9ed8
000036b1 00             9100 	.byte	0
000036b2 016b           9101 	.byte	1,107
                        9102 
                        9103 .LDW_28ae8f8:
000036b4 1d             9104 	.byte	29
000036b5 00000000*      9105 	.word	.LDW81
000036b9 00000000*      9106 	.word	.LDW91
                        9107 
000036bd 00             9108 	.byte	0
                        9109 
000036be 00             9110 	.byte	0
                        9111 
                        9112 .LDW_4b35690:
000036bf 13             9113 	.byte	19
000036c0 44434d5f4d65   9114 	.strz	"DCM_MessageUpdateMultiplex_05"
000036c6 737361676555 
000036cc 70646174654d 
000036d2 756c7469706c 
000036d8 65785f303500 
000036de a702           9115 	.byte	167,2
000036e0 0d             9116 	.byte	13
000036e1 01             9117 	.byte	1
000036e2 00000000*      9118 	.word	_DCM_MessageUpdateMultiplex_05..C.3A.5C_ECU2.5CECU_Rivian_A1.5CTarget.5Crepo_projects.5CpRealEcu.5CcL_LATEST.5Cmake.5Coutput.5Cobjects.5CSwcApplTpms_DevCanMessages.
000036e6 00000000*      9119 	.word	___ghs_eofn_DCM_MessageUpdateMultiplex_05
000036ea 0153           9120 	.byte	1,83

                                                                      Page 178
                                                              C:\Users\nhuliyap\AppData\Local\Temp\gh_00006601.s
000036ec 828080c00b     9121 	.byte	130,128,128,192,11
000036f1 10             9122 	.byte	16
000036f2 03             9123 	.byte	3
000036f3 10             9124 	.byte	16
000036f4 00             9125 	.byte	0
000036f5 00             9126 	.byte	0
000036f6 00             9127 	.byte	0
000036f7 00             9128 	.byte	0
000036f8 01             9129 	.byte	1
000036f9 00             9130 	.byte	0
000036fa 01             9131 	.byte	1
                        9132 
                        9133 	.section	.debug_frame
                        9134 .LDW_4c3ca28:
00000168 00000000*      9135 	.word	.LDW_unq_e-.LDW_unq_d
                        9136 .LDW_unq_d:
0000016c 00000000*      9137 	.word	.LDW_4c03450
00000170 00000000*      9138 	.word	_DCM_MessageUpdateMultiplex_05..C.3A.5C_ECU2.5CECU_Rivian_A1.5CTarget.5Crepo_projects.5CpRealEcu.5CcL_LATEST.5Cmake.5Coutput.5Cobjects.5CSwcApplTpms_DevCanMessages.
00000174 00000000*      9139 	.word	___ghs_eofn_DCM_MessageUpdateMultiplex_05-_DCM_MessageUpdateMultiplex_05..C.3A.5C_ECU2.5CECU_Rivian_A1.5CTarget.5Crepo_projects.5CpRealEcu.5CcL_LATEST.5Cmake.5Coutput.5Cobjects.5CSwcApplTpms_DevCanMessages.
00000178 44             9140 	.byte	68
00000179 9f             9141 	.byte	159
0000017a 00             9142 	.byte	0
0000017b 40             9143 	.byte	64
0000017c 9d             9144 	.byte	157
0000017d 04             9145 	.byte	4
0000017e 40             9146 	.byte	64
0000017f 9c             9147 	.byte	156
00000180 08             9148 	.byte	8
00000181 40             9149 	.byte	64
00000182 9b             9150 	.byte	155
00000183 0c             9151 	.byte	12
00000184 01             9152 	.byte	1
00000185 00000000*      9153 	.word	.LDW12
00000189 44             9154 	.byte	68
0000018a df             9155 	.byte	223
0000018b 40             9156 	.byte	64
0000018c dd             9157 	.byte	221
0000018d 40             9158 	.byte	64
0000018e dc             9159 	.byte	220
0000018f 40             9160 	.byte	64
00000190 db             9161 	.byte	219
00000191 00             9162 	.byte	0
00000192 00             9163 	.byte	0
00000193 00             9164 	.byte	0
                        9165 .LDW_unq_e:
                        9166 	.section	.debug_line
00000409 000502         9167 	.byte	0,5,2
0000040c 00000000*      9168 	.word	_DCM_MessageUpdateMultiplex_05..C.3A.5C_ECU2.5CECU_Rivian_A1.5CTarget.5Crepo_projects.5CpRealEcu.5CcL_LATEST.5Cmake.5Coutput.5Cobjects.5CSwcApplTpms_DevCanMessages.
00000410 03             9169 	.byte	3
00000411 a702           9170 	.byte	167,2
00000413 02             9171 	.byte	2
00000414 00             9172 	.byte	0
00000415 01             9173 	.byte	1
00000416 06             9174 	.byte	6
00000417 000502         9175 	.byte	0,5,2
0000041a 00000000*      9176 	.word	.LDWlin24
0000041e 0b             9177 	.byte	11
0000041f 33             9178 	.byte	51
00000420 000502         9179 	.byte	0,5,2
00000423 00000000*      9180 	.word	.LDWlin25
00000427 03             9181 	.byte	3

                                                                      Page 179
                                                              C:\Users\nhuliyap\AppData\Local\Temp\gh_00006601.s
00000428 0b             9182 	.byte	11
00000429 02             9183 	.byte	2
0000042a 00             9184 	.byte	0
0000042b 01             9185 	.byte	1
0000042c 53             9186 	.byte	83
0000042d 02             9187 	.byte	2
0000042e 04             9188 	.byte	4
0000042f 000101         9189 	.byte	0,1,1
                        9190 	.section	.debug_info
                        9191 .LDW_4b35728:
000036fb 0f             9192 	.byte	15
000036fc 55385f436667   9193 	.strz	"U8_CfgArrPosition"
00003702 417272506f73 
00003708 6974696f6e00 
0000370e a702           9194 	.byte	167,2
00003710 31             9195 	.byte	49
00003711 01             9196 	.byte	1
00003712 00000000*      9197 	.word	.LDW_28a9ed8
00003716 00             9198 	.byte	0
00003717 016b           9199 	.byte	1,107
                        9200 
                        9201 .LDW_28ae838:
00003719 1d             9202 	.byte	29
0000371a 00000000*      9203 	.word	.LDW02
0000371e 00000000*      9204 	.word	.LDW12
                        9205 
00003722 00             9206 	.byte	0
                        9207 
00003723 00             9208 	.byte	0
                        9209 
                        9210 .LDW_4b35780:
00003724 13             9211 	.byte	19
00003725 44434d5f4d65   9212 	.strz	"DCM_MessageUpdateMultiplex_20"
0000372b 737361676555 
00003731 70646174654d 
00003737 756c7469706c 
0000373d 65785f323000 
00003743 d003           9213 	.byte	208,3
00003745 0d             9214 	.byte	13
00003746 01             9215 	.byte	1
00003747 00000000*      9216 	.word	_DCM_MessageUpdateMultiplex_20..C.3A.5C_ECU2.5CECU_Rivian_A1.5CTarget.5Crepo_projects.5CpRealEcu.5CcL_LATEST.5Cmake.5Coutput.5Cobjects.5CSwcApplTpms_DevCanMessages.
0000374b 00000000*      9217 	.word	___ghs_eofn_DCM_MessageUpdateMultiplex_20
0000374f 0153           9218 	.byte	1,83
00003751 828080c00a     9219 	.byte	130,128,128,192,10
00003756 0c             9220 	.byte	12
00003757 03             9221 	.byte	3
00003758 0c             9222 	.byte	12
00003759 00             9223 	.byte	0
0000375a 00             9224 	.byte	0
0000375b 00             9225 	.byte	0
0000375c 00             9226 	.byte	0
0000375d 01             9227 	.byte	1
0000375e 00             9228 	.byte	0
0000375f 01             9229 	.byte	1
                        9230 
                        9231 	.section	.debug_frame
                        9232 .LDW_4c3c928:
00000194 00000000*      9233 	.word	.LDW_unq_10-.LDW_unq_f
                        9234 .LDW_unq_f:
00000198 00000000*      9235 	.word	.LDW_4c03450
0000019c 00000000*      9236 	.word	_DCM_MessageUpdateMultiplex_20..C.3A.5C_ECU2.5CECU_Rivian_A1.5CTarget.5Crepo_projects.5CpRealEcu.5CcL_LATEST.5Cmake.5Coutput.5Cobjects.5CSwcApplTpms_DevCanMessages.

                                                                      Page 180
                                                              C:\Users\nhuliyap\AppData\Local\Temp\gh_00006601.s
000001a0 00000000*      9237 	.word	___ghs_eofn_DCM_MessageUpdateMultiplex_20-_DCM_MessageUpdateMultiplex_20..C.3A.5C_ECU2.5CECU_Rivian_A1.5CTarget.5Crepo_projects.5CpRealEcu.5CcL_LATEST.5Cmake.5Coutput.5Cobjects.5CSwcApplTpms_DevCanMessages.
000001a4 44             9238 	.byte	68
000001a5 9f             9239 	.byte	159
000001a6 00             9240 	.byte	0
000001a7 40             9241 	.byte	64
000001a8 9d             9242 	.byte	157
000001a9 04             9243 	.byte	4
000001aa 40             9244 	.byte	64
000001ab 9b             9245 	.byte	155
000001ac 08             9246 	.byte	8
000001ad 01             9247 	.byte	1
000001ae 00000000*      9248 	.word	.LDW32
000001b2 44             9249 	.byte	68
000001b3 df             9250 	.byte	223
000001b4 40             9251 	.byte	64
000001b5 dd             9252 	.byte	221
000001b6 40             9253 	.byte	64
000001b7 db             9254 	.byte	219
                        9255 .LDW_unq_10:
                        9256 	.section	.debug_line
00000432 000502         9257 	.byte	0,5,2
00000435 00000000*      9258 	.word	_DCM_MessageUpdateMultiplex_20..C.3A.5C_ECU2.5CECU_Rivian_A1.5CTarget.5Crepo_projects.5CpRealEcu.5CcL_LATEST.5Cmake.5Coutput.5Cobjects.5CSwcApplTpms_DevCanMessages.
00000439 03             9259 	.byte	3
0000043a d003           9260 	.byte	208,3
0000043c 02             9261 	.byte	2
0000043d 00             9262 	.byte	0
0000043e 01             9263 	.byte	1
0000043f 06             9264 	.byte	6
00000440 000502         9265 	.byte	0,5,2
00000443 00000000*      9266 	.word	.LDWlin26
00000447 0b             9267 	.byte	11
00000448 2b             9268 	.byte	43
00000449 000502         9269 	.byte	0,5,2
0000044c 00000000*      9270 	.word	.LDWlin27
00000450 0b             9271 	.byte	11
00000451 000502         9272 	.byte	0,5,2
00000454 00000000*      9273 	.word	.LDWlin28
00000458 0b             9274 	.byte	11
00000459 000502         9275 	.byte	0,5,2
0000045c 00000000*      9276 	.word	.LDWlin29
00000460 0b             9277 	.byte	11
00000461 000502         9278 	.byte	0,5,2
00000464 00000000*      9279 	.word	.LDWlin30
00000468 0b             9280 	.byte	11
00000469 000502         9281 	.byte	0,5,2
0000046c 00000000*      9282 	.word	.LDWlin31
00000470 0b             9283 	.byte	11
00000471 000502         9284 	.byte	0,5,2
00000474 00000000*      9285 	.word	.LDWlin32
00000478 0b             9286 	.byte	11
00000479 000502         9287 	.byte	0,5,2
0000047c 00000000*      9288 	.word	.LDWlin33
00000480 0b             9289 	.byte	11
00000481 000502         9290 	.byte	0,5,2
00000484 00000000*      9291 	.word	.LDWlin34
00000488 0c             9292 	.byte	12
00000489 53             9293 	.byte	83
0000048a 02             9294 	.byte	2
0000048b 04             9295 	.byte	4
0000048c 000101         9296 	.byte	0,1,1
                        9297 	.section	.debug_info

                                                                      Page 181
                                                              C:\Users\nhuliyap\AppData\Local\Temp\gh_00006601.s
                        9298 .LDW_4b35818:
00003760 0f             9299 	.byte	15
00003761 55385f436667   9300 	.strz	"U8_CfgArrPosition"
00003767 417272506f73 
0000376d 6974696f6e00 
00003773 d003           9301 	.byte	208,3
00003775 31             9302 	.byte	49
00003776 01             9303 	.byte	1
00003777 00000000*      9304 	.word	.LDW_28a9ed8
0000377b 00             9305 	.byte	0
0000377c 016b           9306 	.byte	1,107
                        9307 
                        9308 .LDW_28ae538:
0000377e 1d             9309 	.byte	29
0000377f 00000000*      9310 	.word	.LDW22
00003783 00000000*      9311 	.word	.LDW32
                        9312 
00003787 00             9313 	.byte	0
                        9314 
00003788 00             9315 	.byte	0
                        9316 
                        9317 .LDW_4b35870:
00003789 13             9318 	.byte	19
0000378a 44434d5f4d65   9319 	.strz	"DCM_MessageUpdateMultiplex_21"
00003790 737361676555 
00003796 70646174654d 
0000379c 756c7469706c 
000037a2 65785f323100 
000037a8 df03           9320 	.byte	223,3
000037aa 0d             9321 	.byte	13
000037ab 01             9322 	.byte	1
000037ac 00000000*      9323 	.word	_DCM_MessageUpdateMultiplex_21..C.3A.5C_ECU2.5CECU_Rivian_A1.5CTarget.5Crepo_projects.5CpRealEcu.5CcL_LATEST.5Cmake.5Coutput.5Cobjects.5CSwcApplTpms_DevCanMessages.
000037b0 00000000*      9324 	.word	___ghs_eofn_DCM_MessageUpdateMultiplex_21
000037b4 0153           9325 	.byte	1,83
000037b6 828080c00b     9326 	.byte	130,128,128,192,11
000037bb 10             9327 	.byte	16
000037bc 03             9328 	.byte	3
000037bd 10             9329 	.byte	16
000037be 00             9330 	.byte	0
000037bf 00             9331 	.byte	0
000037c0 00             9332 	.byte	0
000037c1 00             9333 	.byte	0
000037c2 01             9334 	.byte	1
000037c3 00             9335 	.byte	0
000037c4 01             9336 	.byte	1
                        9337 
                        9338 	.section	.debug_frame
                        9339 .LDW_4c3cb28:
000001b8 00000000*      9340 	.word	.LDW_unq_12-.LDW_unq_11
                        9341 .LDW_unq_11:
000001bc 00000000*      9342 	.word	.LDW_4c03450
000001c0 00000000*      9343 	.word	_DCM_MessageUpdateMultiplex_21..C.3A.5C_ECU2.5CECU_Rivian_A1.5CTarget.5Crepo_projects.5CpRealEcu.5CcL_LATEST.5Cmake.5Coutput.5Cobjects.5CSwcApplTpms_DevCanMessages.
000001c4 00000000*      9344 	.word	___ghs_eofn_DCM_MessageUpdateMultiplex_21-_DCM_MessageUpdateMultiplex_21..C.3A.5C_ECU2.5CECU_Rivian_A1.5CTarget.5Crepo_projects.5CpRealEcu.5CcL_LATEST.5Cmake.5Coutput.5Cobjects.5CSwcApplTpms_DevCanMessages.
000001c8 44             9345 	.byte	68
000001c9 9f             9346 	.byte	159
000001ca 00             9347 	.byte	0
000001cb 40             9348 	.byte	64
000001cc 9d             9349 	.byte	157
000001cd 04             9350 	.byte	4
000001ce 40             9351 	.byte	64
000001cf 9c             9352 	.byte	156

                                                                      Page 182
                                                              C:\Users\nhuliyap\AppData\Local\Temp\gh_00006601.s
000001d0 08             9353 	.byte	8
000001d1 40             9354 	.byte	64
000001d2 9b             9355 	.byte	155
000001d3 0c             9356 	.byte	12
000001d4 01             9357 	.byte	1
000001d5 00000000*      9358 	.word	.LDW52
000001d9 44             9359 	.byte	68
000001da df             9360 	.byte	223
000001db 40             9361 	.byte	64
000001dc dd             9362 	.byte	221
000001dd 40             9363 	.byte	64
000001de dc             9364 	.byte	220
000001df 40             9365 	.byte	64
000001e0 db             9366 	.byte	219
000001e1 00             9367 	.byte	0
000001e2 00             9368 	.byte	0
000001e3 00             9369 	.byte	0
                        9370 .LDW_unq_12:
                        9371 	.section	.debug_line
0000048f 000502         9372 	.byte	0,5,2
00000492 00000000*      9373 	.word	_DCM_MessageUpdateMultiplex_21..C.3A.5C_ECU2.5CECU_Rivian_A1.5CTarget.5Crepo_projects.5CpRealEcu.5CcL_LATEST.5Cmake.5Coutput.5Cobjects.5CSwcApplTpms_DevCanMessages.
00000496 03             9374 	.byte	3
00000497 df03           9375 	.byte	223,3
00000499 02             9376 	.byte	2
0000049a 00             9377 	.byte	0
0000049b 01             9378 	.byte	1
0000049c 06             9379 	.byte	6
0000049d 000502         9380 	.byte	0,5,2
000004a0 00000000*      9381 	.word	.LDWlin35
000004a4 0b             9382 	.byte	11
000004a5 3b             9383 	.byte	59
000004a6 000502         9384 	.byte	0,5,2
000004a9 00000000*      9385 	.word	.LDWlin36
000004ad 0b             9386 	.byte	11
000004ae 000502         9387 	.byte	0,5,2
000004b1 00000000*      9388 	.word	.LDWlin37
000004b5 0b             9389 	.byte	11
000004b6 000502         9390 	.byte	0,5,2
000004b9 00000000*      9391 	.word	.LDWlin38
000004bd 0b             9392 	.byte	11
000004be 000502         9393 	.byte	0,5,2
000004c1 00000000*      9394 	.word	.LDWlin39
000004c5 0b             9395 	.byte	11
000004c6 000502         9396 	.byte	0,5,2
000004c9 00000000*      9397 	.word	.LDWlin40
000004cd 0b             9398 	.byte	11
000004ce 000502         9399 	.byte	0,5,2
000004d1 00000000*      9400 	.word	.LDWlin41
000004d5 0c             9401 	.byte	12
000004d6 53             9402 	.byte	83
000004d7 02             9403 	.byte	2
000004d8 04             9404 	.byte	4
000004d9 000101         9405 	.byte	0,1,1
                        9406 	.section	.debug_info
                        9407 .LDW_4b35908:
000037c5 0f             9408 	.byte	15
000037c6 55385f436667   9409 	.strz	"U8_CfgArrPosition"
000037cc 417272506f73 
000037d2 6974696f6e00 
000037d8 df03           9410 	.byte	223,3
000037da 31             9411 	.byte	49

                                                                      Page 183
                                                              C:\Users\nhuliyap\AppData\Local\Temp\gh_00006601.s
000037db 01             9412 	.byte	1
000037dc 00000000*      9413 	.word	.LDW_28a9ed8
000037e0 00             9414 	.byte	0
000037e1 016b           9415 	.byte	1,107
                        9416 
                        9417 .LDW_28ae958:
000037e3 1d             9418 	.byte	29
000037e4 00000000*      9419 	.word	.LDW42
000037e8 00000000*      9420 	.word	.LDW52
                        9421 
000037ec 00             9422 	.byte	0
                        9423 
000037ed 00             9424 	.byte	0
                        9425 
                        9426 .LDW_4b35960:
000037ee 13             9427 	.byte	19
000037ef 44434d5f4d65   9428 	.strz	"DCM_MessageUpdateMultiplex_22"
000037f5 737361676555 
000037fb 70646174654d 
00003801 756c7469706c 
00003807 65785f323200 
0000380d ec03           9429 	.byte	236,3
0000380f 0d             9430 	.byte	13
00003810 01             9431 	.byte	1
00003811 00000000*      9432 	.word	_DCM_MessageUpdateMultiplex_22..C.3A.5C_ECU2.5CECU_Rivian_A1.5CTarget.5Crepo_projects.5CpRealEcu.5CcL_LATEST.5Cmake.5Coutput.5Cobjects.5CSwcApplTpms_DevCanMessages.
00003815 00000000*      9433 	.word	___ghs_eofn_DCM_MessageUpdateMultiplex_22
00003819 0153           9434 	.byte	1,83
0000381b 828080c00b     9435 	.byte	130,128,128,192,11
00003820 10             9436 	.byte	16
00003821 03             9437 	.byte	3
00003822 10             9438 	.byte	16
00003823 00             9439 	.byte	0
00003824 00             9440 	.byte	0
00003825 00             9441 	.byte	0
00003826 00             9442 	.byte	0
00003827 01             9443 	.byte	1
00003828 00             9444 	.byte	0
00003829 01             9445 	.byte	1
                        9446 
                        9447 	.section	.debug_frame
                        9448 .LDW_4c3cda8:
000001e4 00000000*      9449 	.word	.LDW_unq_14-.LDW_unq_13
                        9450 .LDW_unq_13:
000001e8 00000000*      9451 	.word	.LDW_4c03450
000001ec 00000000*      9452 	.word	_DCM_MessageUpdateMultiplex_22..C.3A.5C_ECU2.5CECU_Rivian_A1.5CTarget.5Crepo_projects.5CpRealEcu.5CcL_LATEST.5Cmake.5Coutput.5Cobjects.5CSwcApplTpms_DevCanMessages.
000001f0 00000000*      9453 	.word	___ghs_eofn_DCM_MessageUpdateMultiplex_22-_DCM_MessageUpdateMultiplex_22..C.3A.5C_ECU2.5CECU_Rivian_A1.5CTarget.5Crepo_projects.5CpRealEcu.5CcL_LATEST.5Cmake.5Coutput.5Cobjects.5CSwcApplTpms_DevCanMessages.
000001f4 44             9454 	.byte	68
000001f5 9f             9455 	.byte	159
000001f6 00             9456 	.byte	0
000001f7 40             9457 	.byte	64
000001f8 9d             9458 	.byte	157
000001f9 04             9459 	.byte	4
000001fa 40             9460 	.byte	64
000001fb 9c             9461 	.byte	156
000001fc 08             9462 	.byte	8
000001fd 40             9463 	.byte	64
000001fe 9b             9464 	.byte	155
000001ff 0c             9465 	.byte	12
00000200 01             9466 	.byte	1
00000201 00000000*      9467 	.word	.LDW92
00000205 44             9468 	.byte	68

                                                                      Page 184
                                                              C:\Users\nhuliyap\AppData\Local\Temp\gh_00006601.s
00000206 df             9469 	.byte	223
00000207 40             9470 	.byte	64
00000208 dd             9471 	.byte	221
00000209 40             9472 	.byte	64
0000020a dc             9473 	.byte	220
0000020b 40             9474 	.byte	64
0000020c db             9475 	.byte	219
0000020d 00             9476 	.byte	0
0000020e 00             9477 	.byte	0
0000020f 00             9478 	.byte	0
                        9479 .LDW_unq_14:
                        9480 	.section	.debug_line
000004dc 000502         9481 	.byte	0,5,2
000004df 00000000*      9482 	.word	_DCM_MessageUpdateMultiplex_22..C.3A.5C_ECU2.5CECU_Rivian_A1.5CTarget.5Crepo_projects.5CpRealEcu.5CcL_LATEST.5Cmake.5Coutput.5Cobjects.5CSwcApplTpms_DevCanMessages.
000004e3 03             9483 	.byte	3
000004e4 ec03           9484 	.byte	236,3
000004e6 02             9485 	.byte	2
000004e7 00             9486 	.byte	0
000004e8 01             9487 	.byte	1
000004e9 06             9488 	.byte	6
000004ea 000502         9489 	.byte	0,5,2
000004ed 00000000*      9490 	.word	.LDWlin43
000004f1 0b             9491 	.byte	11
000004f2 3b             9492 	.byte	59
000004f3 000502         9493 	.byte	0,5,2
000004f6 00000000*      9494 	.word	.LDWlin44
000004fa 0b             9495 	.byte	11
000004fb 000502         9496 	.byte	0,5,2
000004fe 00000000*      9497 	.word	.LDWlin45
00000502 0b             9498 	.byte	11
00000503 000502         9499 	.byte	0,5,2
00000506 00000000*      9500 	.word	.LDWlin46
0000050a 0b             9501 	.byte	11
0000050b 000502         9502 	.byte	0,5,2
0000050e 00000000*      9503 	.word	.LDWlin47
00000512 0b             9504 	.byte	11
00000513 000502         9505 	.byte	0,5,2
00000516 00000000*      9506 	.word	.LDWlin48
0000051a 0b             9507 	.byte	11
0000051b 000502         9508 	.byte	0,5,2
0000051e 00000000*      9509 	.word	.LDWlin49
00000522 0b             9510 	.byte	11
00000523 000502         9511 	.byte	0,5,2
00000526 00000000*      9512 	.word	.LDWlin50
0000052a 0b             9513 	.byte	11
0000052b 000502         9514 	.byte	0,5,2
0000052e 00000000*      9515 	.word	.LDWlin51
00000532 0b             9516 	.byte	11
00000533 000502         9517 	.byte	0,5,2
00000536 00000000*      9518 	.word	.LDWlin52
0000053a 0c             9519 	.byte	12
0000053b 53             9520 	.byte	83
0000053c 02             9521 	.byte	2
0000053d 04             9522 	.byte	4
0000053e 000101         9523 	.byte	0,1,1
                        9524 	.section	.debug_info
                        9525 .LDW_4b359f8:
0000382a 0f             9526 	.byte	15
0000382b 55385f436667   9527 	.strz	"U8_CfgArrPosition"
00003831 417272506f73 
00003837 6974696f6e00 

                                                                      Page 185
                                                              C:\Users\nhuliyap\AppData\Local\Temp\gh_00006601.s
0000383d ec03           9528 	.byte	236,3
0000383f 31             9529 	.byte	49
00003840 01             9530 	.byte	1
00003841 00000000*      9531 	.word	.LDW_28a9ed8
00003845 00             9532 	.byte	0
00003846 016b           9533 	.byte	1,107
                        9534 
                        9535 .LDW_28ae868:
00003848 1d             9536 	.byte	29
00003849 00000000*      9537 	.word	.LDW82
0000384d 00000000*      9538 	.word	.LDW92
                        9539 
00003851 00             9540 	.byte	0
                        9541 
00003852 00             9542 	.byte	0
                        9543 
                        9544 .LDW_4b35a50:
00003853 13             9545 	.byte	19
00003854 44434d5f4d65   9546 	.strz	"DCM_MessageUpdateMultiplex_23"
0000385a 737361676555 
00003860 70646174654d 
00003866 756c7469706c 
0000386c 65785f323300 
00003872 fc03           9547 	.byte	252,3
00003874 0d             9548 	.byte	13
00003875 01             9549 	.byte	1
00003876 00000000*      9550 	.word	_DCM_MessageUpdateMultiplex_23..C.3A.5C_ECU2.5CECU_Rivian_A1.5CTarget.5Crepo_projects.5CpRealEcu.5CcL_LATEST.5Cmake.5Coutput.5Cobjects.5CSwcApplTpms_DevCanMessages.
0000387a 00000000*      9551 	.word	___ghs_eofn_DCM_MessageUpdateMultiplex_23
0000387e 0153           9552 	.byte	1,83
00003880 828080c00b     9553 	.byte	130,128,128,192,11
00003885 10             9554 	.byte	16
00003886 03             9555 	.byte	3
00003887 10             9556 	.byte	16
00003888 00             9557 	.byte	0
00003889 00             9558 	.byte	0
0000388a 00             9559 	.byte	0
0000388b 00             9560 	.byte	0
0000388c 01             9561 	.byte	1
0000388d 00             9562 	.byte	0
0000388e 01             9563 	.byte	1
                        9564 
                        9565 	.section	.debug_frame
                        9566 .LDW_4c3c868:
00000210 00000000*      9567 	.word	.LDW_unq_16-.LDW_unq_15
                        9568 .LDW_unq_15:
00000214 00000000*      9569 	.word	.LDW_4c03450
00000218 00000000*      9570 	.word	_DCM_MessageUpdateMultiplex_23..C.3A.5C_ECU2.5CECU_Rivian_A1.5CTarget.5Crepo_projects.5CpRealEcu.5CcL_LATEST.5Cmake.5Coutput.5Cobjects.5CSwcApplTpms_DevCanMessages.
0000021c 00000000*      9571 	.word	___ghs_eofn_DCM_MessageUpdateMultiplex_23-_DCM_MessageUpdateMultiplex_23..C.3A.5C_ECU2.5CECU_Rivian_A1.5CTarget.5Crepo_projects.5CpRealEcu.5CcL_LATEST.5Cmake.5Coutput.5Cobjects.5CSwcApplTpms_DevCanMessages.
00000220 44             9572 	.byte	68
00000221 9f             9573 	.byte	159
00000222 00             9574 	.byte	0
00000223 40             9575 	.byte	64
00000224 9d             9576 	.byte	157
00000225 04             9577 	.byte	4
00000226 40             9578 	.byte	64
00000227 9c             9579 	.byte	156
00000228 08             9580 	.byte	8
00000229 40             9581 	.byte	64
0000022a 9b             9582 	.byte	155
0000022b 0c             9583 	.byte	12
0000022c 01             9584 	.byte	1

                                                                      Page 186
                                                              C:\Users\nhuliyap\AppData\Local\Temp\gh_00006601.s
0000022d 00000000*      9585 	.word	.LDW53
00000231 00             9586 	.byte	0
00000232 00             9587 	.byte	0
00000233 00             9588 	.byte	0
                        9589 .LDW_unq_16:
                        9590 	.section	.debug_line
00000541 000502         9591 	.byte	0,5,2
00000544 00000000*      9592 	.word	_DCM_MessageUpdateMultiplex_23..C.3A.5C_ECU2.5CECU_Rivian_A1.5CTarget.5Crepo_projects.5CpRealEcu.5CcL_LATEST.5Cmake.5Coutput.5Cobjects.5CSwcApplTpms_DevCanMessages.
00000548 03             9593 	.byte	3
00000549 fc03           9594 	.byte	252,3
0000054b 02             9595 	.byte	2
0000054c 00             9596 	.byte	0
0000054d 01             9597 	.byte	1
0000054e 06             9598 	.byte	6
0000054f 000502         9599 	.byte	0,5,2
00000552 00000000*      9600 	.word	.LDWlin54
00000556 0b             9601 	.byte	11
00000557 3b             9602 	.byte	59
00000558 000502         9603 	.byte	0,5,2
0000055b 00000000*      9604 	.word	.LDWlin55
0000055f 0b             9605 	.byte	11
00000560 000502         9606 	.byte	0,5,2
00000563 00000000*      9607 	.word	.LDWlin56
00000567 0b             9608 	.byte	11
00000568 000502         9609 	.byte	0,5,2
0000056b 00000000*      9610 	.word	.LDWlin57
0000056f 0b             9611 	.byte	11
00000570 000502         9612 	.byte	0,5,2
00000573 00000000*      9613 	.word	.LDWlin58
00000577 0b             9614 	.byte	11
00000578 000502         9615 	.byte	0,5,2
0000057b 00000000*      9616 	.word	.LDWlin59
0000057f 0b             9617 	.byte	11
00000580 000502         9618 	.byte	0,5,2
00000583 00000000*      9619 	.word	.LDWlin60
00000587 0b             9620 	.byte	11
00000588 000502         9621 	.byte	0,5,2
0000058b 00000000*      9622 	.word	.LDWlin61
0000058f 0b             9623 	.byte	11
00000590 000502         9624 	.byte	0,5,2
00000593 00000000*      9625 	.word	.LDWlin62
00000597 0c             9626 	.byte	12
00000598 53             9627 	.byte	83
00000599 02             9628 	.byte	2
0000059a 04             9629 	.byte	4
0000059b 000101         9630 	.byte	0,1,1
                        9631 	.section	.debug_info
                        9632 .LDW_4b35ae8:
0000388f 0f             9633 	.byte	15
00003890 55385f436667   9634 	.strz	"U8_CfgArrPosition"
00003896 417272506f73 
0000389c 6974696f6e00 
000038a2 fc03           9635 	.byte	252,3
000038a4 31             9636 	.byte	49
000038a5 01             9637 	.byte	1
000038a6 00000000*      9638 	.word	.LDW_28a9ed8
000038aa 00             9639 	.byte	0
000038ab 016b           9640 	.byte	1,107
                        9641 
                        9642 .LDW_28ae988:
000038ad 1d             9643 	.byte	29

                                                                      Page 187
                                                              C:\Users\nhuliyap\AppData\Local\Temp\gh_00006601.s
000038ae 00000000*      9644 	.word	.LDW43
000038b2 00000000*      9645 	.word	.LDW53
                        9646 
000038b6 00             9647 	.byte	0
                        9648 
000038b7 00             9649 	.byte	0
                        9650 
                        9651 .LDW_4b35b40:
000038b8 13             9652 	.byte	19
000038b9 44434d5f4d65   9653 	.strz	"DCM_MessageUpdateMultiplex_24"
000038bf 737361676555 
000038c5 70646174654d 
000038cb 756c7469706c 
000038d1 65785f323400 
000038d7 8b04           9654 	.byte	139,4
000038d9 0d             9655 	.byte	13
000038da 01             9656 	.byte	1
000038db 00000000*      9657 	.word	_DCM_MessageUpdateMultiplex_24..C.3A.5C_ECU2.5CECU_Rivian_A1.5CTarget.5Crepo_projects.5CpRealEcu.5CcL_LATEST.5Cmake.5Coutput.5Cobjects.5CSwcApplTpms_DevCanMessages.
000038df 00000000*      9658 	.word	___ghs_eofn_DCM_MessageUpdateMultiplex_24
000038e3 0153           9659 	.byte	1,83
000038e5 828080c00b     9660 	.byte	130,128,128,192,11
000038ea 10             9661 	.byte	16
000038eb 03             9662 	.byte	3
000038ec 10             9663 	.byte	16
000038ed 00             9664 	.byte	0
000038ee 00             9665 	.byte	0
000038ef 00             9666 	.byte	0
000038f0 00             9667 	.byte	0
000038f1 01             9668 	.byte	1
000038f2 00             9669 	.byte	0
000038f3 01             9670 	.byte	1
                        9671 
                        9672 	.section	.debug_frame
                        9673 .LDW_4c3c968:
00000234 00000000*      9674 	.word	.LDW_unq_18-.LDW_unq_17
                        9675 .LDW_unq_17:
00000238 00000000*      9676 	.word	.LDW_4c03450
0000023c 00000000*      9677 	.word	_DCM_MessageUpdateMultiplex_24..C.3A.5C_ECU2.5CECU_Rivian_A1.5CTarget.5Crepo_projects.5CpRealEcu.5CcL_LATEST.5Cmake.5Coutput.5Cobjects.5CSwcApplTpms_DevCanMessages.
00000240 00000000*      9678 	.word	___ghs_eofn_DCM_MessageUpdateMultiplex_24-_DCM_MessageUpdateMultiplex_24..C.3A.5C_ECU2.5CECU_Rivian_A1.5CTarget.5Crepo_projects.5CpRealEcu.5CcL_LATEST.5Cmake.5Coutput.5Cobjects.5CSwcApplTpms_DevCanMessages.
00000244 44             9679 	.byte	68
00000245 9f             9680 	.byte	159
00000246 00             9681 	.byte	0
00000247 40             9682 	.byte	64
00000248 9d             9683 	.byte	157
00000249 04             9684 	.byte	4
0000024a 40             9685 	.byte	64
0000024b 9c             9686 	.byte	156
0000024c 08             9687 	.byte	8
0000024d 40             9688 	.byte	64
0000024e 9b             9689 	.byte	155
0000024f 0c             9690 	.byte	12
00000250 01             9691 	.byte	1
00000251 00000000*      9692 	.word	.LDW73
00000255 44             9693 	.byte	68
00000256 df             9694 	.byte	223
00000257 40             9695 	.byte	64
00000258 dd             9696 	.byte	221
00000259 40             9697 	.byte	64
0000025a dc             9698 	.byte	220
0000025b 40             9699 	.byte	64
0000025c db             9700 	.byte	219

                                                                      Page 188
                                                              C:\Users\nhuliyap\AppData\Local\Temp\gh_00006601.s
0000025d 00             9701 	.byte	0
0000025e 00             9702 	.byte	0
0000025f 00             9703 	.byte	0
                        9704 .LDW_unq_18:
                        9705 	.section	.debug_line
0000059e 000502         9706 	.byte	0,5,2
000005a1 00000000*      9707 	.word	_DCM_MessageUpdateMultiplex_24..C.3A.5C_ECU2.5CECU_Rivian_A1.5CTarget.5Crepo_projects.5CpRealEcu.5CcL_LATEST.5Cmake.5Coutput.5Cobjects.5CSwcApplTpms_DevCanMessages.
000005a5 03             9708 	.byte	3
000005a6 8b04           9709 	.byte	139,4
000005a8 02             9710 	.byte	2
000005a9 00             9711 	.byte	0
000005aa 01             9712 	.byte	1
000005ab 06             9713 	.byte	6
000005ac 000502         9714 	.byte	0,5,2
000005af 00000000*      9715 	.word	.LDWlin63
000005b3 0b             9716 	.byte	11
000005b4 3b             9717 	.byte	59
000005b5 000502         9718 	.byte	0,5,2
000005b8 00000000*      9719 	.word	.LDWlin64
000005bc 0b             9720 	.byte	11
000005bd 000502         9721 	.byte	0,5,2
000005c0 00000000*      9722 	.word	.LDWlin65
000005c4 0b             9723 	.byte	11
000005c5 000502         9724 	.byte	0,5,2
000005c8 00000000*      9725 	.word	.LDWlin66
000005cc 0b             9726 	.byte	11
000005cd 000502         9727 	.byte	0,5,2
000005d0 00000000*      9728 	.word	.LDWlin67
000005d4 0b             9729 	.byte	11
000005d5 000502         9730 	.byte	0,5,2
000005d8 00000000*      9731 	.word	.LDWlin68
000005dc 0b             9732 	.byte	11
000005dd 53             9733 	.byte	83
000005de 02             9734 	.byte	2
000005df 04             9735 	.byte	4
000005e0 000101         9736 	.byte	0,1,1
                        9737 	.section	.debug_info
                        9738 .LDW_4b35bd8:
000038f4 0f             9739 	.byte	15
000038f5 55385f436667   9740 	.strz	"U8_CfgArrPosition"
000038fb 417272506f73 
00003901 6974696f6e00 
00003907 8b04           9741 	.byte	139,4
00003909 31             9742 	.byte	49
0000390a 01             9743 	.byte	1
0000390b 00000000*      9744 	.word	.LDW_28a9ed8
0000390f 00             9745 	.byte	0
00003910 016b           9746 	.byte	1,107
                        9747 
                        9748 .LDW_28ae598:
00003912 1d             9749 	.byte	29
00003913 00000000*      9750 	.word	.LDW63
00003917 00000000*      9751 	.word	.LDW73
                        9752 
0000391b 00             9753 	.byte	0
                        9754 
0000391c 00             9755 	.byte	0
                        9756 
                        9757 .LDW_4b35c30:
0000391d 13             9758 	.byte	19
0000391e 44434d5f4d65   9759 	.strz	"DCM_MessageUpdateMultiplex_30"

                                                                      Page 189
                                                              C:\Users\nhuliyap\AppData\Local\Temp\gh_00006601.s
00003924 737361676555 
0000392a 70646174654d 
00003930 756c7469706c 
00003936 65785f333000 
0000393c a404           9760 	.byte	164,4
0000393e 0d             9761 	.byte	13
0000393f 01             9762 	.byte	1
00003940 00000000*      9763 	.word	_DCM_MessageUpdateMultiplex_30..C.3A.5C_ECU2.5CECU_Rivian_A1.5CTarget.5Crepo_projects.5CpRealEcu.5CcL_LATEST.5Cmake.5Coutput.5Cobjects.5CSwcApplTpms_DevCanMessages.
00003944 00000000*      9764 	.word	___ghs_eofn_DCM_MessageUpdateMultiplex_30
00003948 0153           9765 	.byte	1,83
0000394a 828080c00b     9766 	.byte	130,128,128,192,11
0000394f 10             9767 	.byte	16
00003950 03             9768 	.byte	3
00003951 10             9769 	.byte	16
00003952 00             9770 	.byte	0
00003953 00             9771 	.byte	0
00003954 00             9772 	.byte	0
00003955 00             9773 	.byte	0
00003956 01             9774 	.byte	1
00003957 00             9775 	.byte	0
00003958 01             9776 	.byte	1
                        9777 
                        9778 	.section	.debug_frame
                        9779 .LDW_4c3c9e8:
00000260 00000000*      9780 	.word	.LDW_unq_1a-.LDW_unq_19
                        9781 .LDW_unq_19:
00000264 00000000*      9782 	.word	.LDW_4c03450
00000268 00000000*      9783 	.word	_DCM_MessageUpdateMultiplex_30..C.3A.5C_ECU2.5CECU_Rivian_A1.5CTarget.5Crepo_projects.5CpRealEcu.5CcL_LATEST.5Cmake.5Coutput.5Cobjects.5CSwcApplTpms_DevCanMessages.
0000026c 00000000*      9784 	.word	___ghs_eofn_DCM_MessageUpdateMultiplex_30-_DCM_MessageUpdateMultiplex_30..C.3A.5C_ECU2.5CECU_Rivian_A1.5CTarget.5Crepo_projects.5CpRealEcu.5CcL_LATEST.5Cmake.5Coutput.5Cobjects.5CSwcApplTpms_DevCanMessages.
00000270 44             9785 	.byte	68
00000271 9f             9786 	.byte	159
00000272 00             9787 	.byte	0
00000273 40             9788 	.byte	64
00000274 9d             9789 	.byte	157
00000275 04             9790 	.byte	4
00000276 40             9791 	.byte	64
00000277 9c             9792 	.byte	156
00000278 08             9793 	.byte	8
00000279 40             9794 	.byte	64
0000027a 9b             9795 	.byte	155
0000027b 0c             9796 	.byte	12
0000027c 01             9797 	.byte	1
0000027d 00000000*      9798 	.word	.LDW93
00000281 44             9799 	.byte	68
00000282 df             9800 	.byte	223
00000283 40             9801 	.byte	64
00000284 dd             9802 	.byte	221
00000285 40             9803 	.byte	64
00000286 dc             9804 	.byte	220
00000287 40             9805 	.byte	64
00000288 db             9806 	.byte	219
00000289 00             9807 	.byte	0
0000028a 00             9808 	.byte	0
0000028b 00             9809 	.byte	0
                        9810 .LDW_unq_1a:
                        9811 	.section	.debug_line
000005e3 000502         9812 	.byte	0,5,2
000005e6 00000000*      9813 	.word	_DCM_MessageUpdateMultiplex_30..C.3A.5C_ECU2.5CECU_Rivian_A1.5CTarget.5Crepo_projects.5CpRealEcu.5CcL_LATEST.5Cmake.5Coutput.5Cobjects.5CSwcApplTpms_DevCanMessages.
000005ea 03             9814 	.byte	3
000005eb a404           9815 	.byte	164,4
000005ed 02             9816 	.byte	2

                                                                      Page 190
                                                              C:\Users\nhuliyap\AppData\Local\Temp\gh_00006601.s
000005ee 00             9817 	.byte	0
000005ef 01             9818 	.byte	1
000005f0 06             9819 	.byte	6
000005f1 000502         9820 	.byte	0,5,2
000005f4 00000000*      9821 	.word	.LDWlin69
000005f8 0b             9822 	.byte	11
000005f9 3b             9823 	.byte	59
000005fa 000502         9824 	.byte	0,5,2
000005fd 00000000*      9825 	.word	.LDWlin70
00000601 0b             9826 	.byte	11
00000602 000502         9827 	.byte	0,5,2
00000605 00000000*      9828 	.word	.LDWlin71
00000609 0b             9829 	.byte	11
0000060a 000502         9830 	.byte	0,5,2
0000060d 00000000*      9831 	.word	.LDWlin72
00000611 0b             9832 	.byte	11
00000612 000502         9833 	.byte	0,5,2
00000615 00000000*      9834 	.word	.LDWlin73
00000619 0c             9835 	.byte	12
0000061a 53             9836 	.byte	83
0000061b 02             9837 	.byte	2
0000061c 04             9838 	.byte	4
0000061d 000101         9839 	.byte	0,1,1
                        9840 	.section	.debug_info
                        9841 .LDW_4b35cc8:
00003959 0f             9842 	.byte	15
0000395a 55385f436667   9843 	.strz	"U8_CfgArrPosition"
00003960 417272506f73 
00003966 6974696f6e00 
0000396c a404           9844 	.byte	164,4
0000396e 31             9845 	.byte	49
0000396f 01             9846 	.byte	1
00003970 00000000*      9847 	.word	.LDW_28a9ed8
00003974 00             9848 	.byte	0
00003975 016b           9849 	.byte	1,107
                        9850 
                        9851 .LDW_28aea48:
00003977 1d             9852 	.byte	29
00003978 00000000*      9853 	.word	.LDW83
0000397c 00000000*      9854 	.word	.LDW93
                        9855 
00003980 00             9856 	.byte	0
                        9857 
00003981 00             9858 	.byte	0
                        9859 
                        9860 .LDW_4b35d20:
00003982 13             9861 	.byte	19
00003983 44434d5f4d65   9862 	.strz	"DCM_MessageUpdateMultiplex_31"
00003989 737361676555 
0000398f 70646174654d 
00003995 756c7469706c 
0000399b 65785f333100 
000039a1 af04           9863 	.byte	175,4
000039a3 0d             9864 	.byte	13
000039a4 01             9865 	.byte	1
000039a5 00000000*      9866 	.word	_DCM_MessageUpdateMultiplex_31..C.3A.5C_ECU2.5CECU_Rivian_A1.5CTarget.5Crepo_projects.5CpRealEcu.5CcL_LATEST.5Cmake.5Coutput.5Cobjects.5CSwcApplTpms_DevCanMessages.
000039a9 00000000*      9867 	.word	___ghs_eofn_DCM_MessageUpdateMultiplex_31
000039ad 0153           9868 	.byte	1,83
000039af 828080c00b     9869 	.byte	130,128,128,192,11
000039b4 10             9870 	.byte	16
000039b5 03             9871 	.byte	3

                                                                      Page 191
                                                              C:\Users\nhuliyap\AppData\Local\Temp\gh_00006601.s
000039b6 10             9872 	.byte	16
000039b7 00             9873 	.byte	0
000039b8 00             9874 	.byte	0
000039b9 00             9875 	.byte	0
000039ba 00             9876 	.byte	0
000039bb 01             9877 	.byte	1
000039bc 00             9878 	.byte	0
000039bd 01             9879 	.byte	1
                        9880 
                        9881 	.section	.debug_frame
                        9882 .LDW_4d2ca20:
0000028c 00000000*      9883 	.word	.LDW_unq_1c-.LDW_unq_1b
                        9884 .LDW_unq_1b:
00000290 00000000*      9885 	.word	.LDW_4c03450
00000294 00000000*      9886 	.word	_DCM_MessageUpdateMultiplex_31..C.3A.5C_ECU2.5CECU_Rivian_A1.5CTarget.5Crepo_projects.5CpRealEcu.5CcL_LATEST.5Cmake.5Coutput.5Cobjects.5CSwcApplTpms_DevCanMessages.
00000298 00000000*      9887 	.word	___ghs_eofn_DCM_MessageUpdateMultiplex_31-_DCM_MessageUpdateMultiplex_31..C.3A.5C_ECU2.5CECU_Rivian_A1.5CTarget.5Crepo_projects.5CpRealEcu.5CcL_LATEST.5Cmake.5Coutput.5Cobjects.5CSwcApplTpms_DevCanMessages.
0000029c 44             9888 	.byte	68
0000029d 9f             9889 	.byte	159
0000029e 00             9890 	.byte	0
0000029f 40             9891 	.byte	64
000002a0 9d             9892 	.byte	157
000002a1 04             9893 	.byte	4
000002a2 40             9894 	.byte	64
000002a3 9c             9895 	.byte	156
000002a4 08             9896 	.byte	8
000002a5 40             9897 	.byte	64
000002a6 9b             9898 	.byte	155
000002a7 0c             9899 	.byte	12
000002a8 01             9900 	.byte	1
000002a9 00000000*      9901 	.word	.LDW14
000002ad 44             9902 	.byte	68
000002ae df             9903 	.byte	223
000002af 40             9904 	.byte	64
000002b0 dd             9905 	.byte	221
000002b1 40             9906 	.byte	64
000002b2 dc             9907 	.byte	220
000002b3 40             9908 	.byte	64
000002b4 db             9909 	.byte	219
000002b5 00             9910 	.byte	0
000002b6 00             9911 	.byte	0
000002b7 00             9912 	.byte	0
                        9913 .LDW_unq_1c:
                        9914 	.section	.debug_line
00000620 000502         9915 	.byte	0,5,2
00000623 00000000*      9916 	.word	_DCM_MessageUpdateMultiplex_31..C.3A.5C_ECU2.5CECU_Rivian_A1.5CTarget.5Crepo_projects.5CpRealEcu.5CcL_LATEST.5Cmake.5Coutput.5Cobjects.5CSwcApplTpms_DevCanMessages.
00000627 03             9917 	.byte	3
00000628 af04           9918 	.byte	175,4
0000062a 02             9919 	.byte	2
0000062b 00             9920 	.byte	0
0000062c 01             9921 	.byte	1
0000062d 06             9922 	.byte	6
0000062e 000502         9923 	.byte	0,5,2
00000631 00000000*      9924 	.word	.LDWlin74
00000635 0b             9925 	.byte	11
00000636 3b             9926 	.byte	59
00000637 000502         9927 	.byte	0,5,2
0000063a 00000000*      9928 	.word	.LDWlin75
0000063e 0b             9929 	.byte	11
0000063f 000502         9930 	.byte	0,5,2
00000642 00000000*      9931 	.word	.LDWlin76
00000646 0b             9932 	.byte	11

                                                                      Page 192
                                                              C:\Users\nhuliyap\AppData\Local\Temp\gh_00006601.s
00000647 000502         9933 	.byte	0,5,2
0000064a 00000000*      9934 	.word	.LDWlin77
0000064e 0b             9935 	.byte	11
0000064f 000502         9936 	.byte	0,5,2
00000652 00000000*      9937 	.word	.LDWlin78
00000656 0c             9938 	.byte	12
00000657 53             9939 	.byte	83
00000658 02             9940 	.byte	2
00000659 04             9941 	.byte	4
0000065a 000101         9942 	.byte	0,1,1
                        9943 	.section	.debug_info
                        9944 .LDW_4b35db8:
000039be 0f             9945 	.byte	15
000039bf 55385f436667   9946 	.strz	"U8_CfgArrPosition"
000039c5 417272506f73 
000039cb 6974696f6e00 
000039d1 af04           9947 	.byte	175,4
000039d3 31             9948 	.byte	49
000039d4 01             9949 	.byte	1
000039d5 00000000*      9950 	.word	.LDW_28a9ed8
000039d9 00             9951 	.byte	0
000039da 016b           9952 	.byte	1,107
                        9953 
                        9954 .LDW_28aea18:
000039dc 1d             9955 	.byte	29
000039dd 00000000*      9956 	.word	.LDW04
000039e1 00000000*      9957 	.word	.LDW14
                        9958 
000039e5 00             9959 	.byte	0
                        9960 
000039e6 00             9961 	.byte	0
                        9962 
                        9963 .LDW_28ac3a0:
000039e7 13             9964 	.byte	19
000039e8 44434d5f4d65   9965 	.strz	"DCM_MessageUpdateMultiplex_32"
000039ee 737361676555 
000039f4 70646174654d 
000039fa 756c7469706c 
00003a00 65785f333200 
00003a06 ba04           9966 	.byte	186,4
00003a08 0d             9967 	.byte	13
00003a09 01             9968 	.byte	1
00003a0a 00000000*      9969 	.word	_DCM_MessageUpdateMultiplex_32..C.3A.5C_ECU2.5CECU_Rivian_A1.5CTarget.5Crepo_projects.5CpRealEcu.5CcL_LATEST.5Cmake.5Coutput.5Cobjects.5CSwcApplTpms_DevCanMessages.
00003a0e 00000000*      9970 	.word	___ghs_eofn_DCM_MessageUpdateMultiplex_32
00003a12 0153           9971 	.byte	1,83
00003a14 828080c00b     9972 	.byte	130,128,128,192,11
00003a19 10             9973 	.byte	16
00003a1a 03             9974 	.byte	3
00003a1b 10             9975 	.byte	16
00003a1c 00             9976 	.byte	0
00003a1d 00             9977 	.byte	0
00003a1e 00             9978 	.byte	0
00003a1f 00             9979 	.byte	0
00003a20 01             9980 	.byte	1
00003a21 00             9981 	.byte	0
00003a22 01             9982 	.byte	1
                        9983 
                        9984 	.section	.debug_frame
                        9985 .LDW_4d2caa0:
000002b8 00000000*      9986 	.word	.LDW_unq_1e-.LDW_unq_1d
                        9987 .LDW_unq_1d:

                                                                      Page 193
                                                              C:\Users\nhuliyap\AppData\Local\Temp\gh_00006601.s
000002bc 00000000*      9988 	.word	.LDW_4c03450
000002c0 00000000*      9989 	.word	_DCM_MessageUpdateMultiplex_32..C.3A.5C_ECU2.5CECU_Rivian_A1.5CTarget.5Crepo_projects.5CpRealEcu.5CcL_LATEST.5Cmake.5Coutput.5Cobjects.5CSwcApplTpms_DevCanMessages.
000002c4 00000000*      9990 	.word	___ghs_eofn_DCM_MessageUpdateMultiplex_32-_DCM_MessageUpdateMultiplex_32..C.3A.5C_ECU2.5CECU_Rivian_A1.5CTarget.5Crepo_projects.5CpRealEcu.5CcL_LATEST.5Cmake.5Coutput.5Cobjects.5CSwcApplTpms_DevCanMessages.
000002c8 44             9991 	.byte	68
000002c9 9f             9992 	.byte	159
000002ca 00             9993 	.byte	0
000002cb 40             9994 	.byte	64
000002cc 9d             9995 	.byte	157
000002cd 04             9996 	.byte	4
000002ce 40             9997 	.byte	64
000002cf 9c             9998 	.byte	156
000002d0 08             9999 	.byte	8
000002d1 40            10000 	.byte	64
000002d2 9b            10001 	.byte	155
000002d3 0c            10002 	.byte	12
000002d4 01            10003 	.byte	1
000002d5 00000000*     10004 	.word	.LDW34
000002d9 44            10005 	.byte	68
000002da df            10006 	.byte	223
000002db 40            10007 	.byte	64
000002dc dd            10008 	.byte	221
000002dd 40            10009 	.byte	64
000002de dc            10010 	.byte	220
000002df 40            10011 	.byte	64
000002e0 db            10012 	.byte	219
000002e1 00            10013 	.byte	0
000002e2 00            10014 	.byte	0
000002e3 00            10015 	.byte	0
                       10016 .LDW_unq_1e:
                       10017 	.section	.debug_line
0000065d 000502        10018 	.byte	0,5,2
00000660 00000000*     10019 	.word	_DCM_MessageUpdateMultiplex_32..C.3A.5C_ECU2.5CECU_Rivian_A1.5CTarget.5Crepo_projects.5CpRealEcu.5CcL_LATEST.5Cmake.5Coutput.5Cobjects.5CSwcApplTpms_DevCanMessages.
00000664 03            10020 	.byte	3
00000665 ba04          10021 	.byte	186,4
00000667 02            10022 	.byte	2
00000668 00            10023 	.byte	0
00000669 01            10024 	.byte	1
0000066a 06            10025 	.byte	6
0000066b 000502        10026 	.byte	0,5,2
0000066e 00000000*     10027 	.word	.LDWlin79
00000672 0b            10028 	.byte	11
00000673 3b            10029 	.byte	59
00000674 000502        10030 	.byte	0,5,2
00000677 00000000*     10031 	.word	.LDWlin80
0000067b 0b            10032 	.byte	11
0000067c 000502        10033 	.byte	0,5,2
0000067f 00000000*     10034 	.word	.LDWlin81
00000683 0b            10035 	.byte	11
00000684 000502        10036 	.byte	0,5,2
00000687 00000000*     10037 	.word	.LDWlin82
0000068b 0b            10038 	.byte	11
0000068c 000502        10039 	.byte	0,5,2
0000068f 00000000*     10040 	.word	.LDWlin83
00000693 0c            10041 	.byte	12
00000694 53            10042 	.byte	83
00000695 02            10043 	.byte	2
00000696 04            10044 	.byte	4
00000697 000101        10045 	.byte	0,1,1
                       10046 	.section	.debug_info
                       10047 .LDW_4b35e10:
00003a23 0f            10048 	.byte	15

                                                                      Page 194
                                                              C:\Users\nhuliyap\AppData\Local\Temp\gh_00006601.s
00003a24 55385f436667  10049 	.strz	"U8_CfgArrPosition"
00003a2a 417272506f73 
00003a30 6974696f6e00 
00003a36 ba04          10050 	.byte	186,4
00003a38 31            10051 	.byte	49
00003a39 01            10052 	.byte	1
00003a3a 00000000*     10053 	.word	.LDW_28a9ed8
00003a3e 00            10054 	.byte	0
00003a3f 016b          10055 	.byte	1,107
                       10056 
                       10057 .LDW_28aead8:
00003a41 1d            10058 	.byte	29
00003a42 00000000*     10059 	.word	.LDW24
00003a46 00000000*     10060 	.word	.LDW34
                       10061 
00003a4a 00            10062 	.byte	0
                       10063 
00003a4b 00            10064 	.byte	0
                       10065 
                       10066 .LDW_28ac438:
00003a4c 13            10067 	.byte	19
00003a4d 44434d5f4d65  10068 	.strz	"DCM_MessageUpdateMultiplex_33"
00003a53 737361676555 
00003a59 70646174654d 
00003a5f 756c7469706c 
00003a65 65785f333300 
00003a6b c504          10069 	.byte	197,4
00003a6d 0d            10070 	.byte	13
00003a6e 01            10071 	.byte	1
00003a6f 00000000*     10072 	.word	_DCM_MessageUpdateMultiplex_33..C.3A.5C_ECU2.5CECU_Rivian_A1.5CTarget.5Crepo_projects.5CpRealEcu.5CcL_LATEST.5Cmake.5Coutput.5Cobjects.5CSwcApplTpms_DevCanMessages.
00003a73 00000000*     10073 	.word	___ghs_eofn_DCM_MessageUpdateMultiplex_33
00003a77 0153          10074 	.byte	1,83
00003a79 828080c00b    10075 	.byte	130,128,128,192,11
00003a7e 10            10076 	.byte	16
00003a7f 03            10077 	.byte	3
00003a80 10            10078 	.byte	16
00003a81 00            10079 	.byte	0
00003a82 00            10080 	.byte	0
00003a83 00            10081 	.byte	0
00003a84 00            10082 	.byte	0
00003a85 01            10083 	.byte	1
00003a86 00            10084 	.byte	0
00003a87 01            10085 	.byte	1
                       10086 
                       10087 	.section	.debug_frame
                       10088 .LDW_4d2cbe0:
000002e4 00000000*     10089 	.word	.LDW_unq_20-.LDW_unq_1f
                       10090 .LDW_unq_1f:
000002e8 00000000*     10091 	.word	.LDW_4c03450
000002ec 00000000*     10092 	.word	_DCM_MessageUpdateMultiplex_33..C.3A.5C_ECU2.5CECU_Rivian_A1.5CTarget.5Crepo_projects.5CpRealEcu.5CcL_LATEST.5Cmake.5Coutput.5Cobjects.5CSwcApplTpms_DevCanMessages.
000002f0 00000000*     10093 	.word	___ghs_eofn_DCM_MessageUpdateMultiplex_33-_DCM_MessageUpdateMultiplex_33..C.3A.5C_ECU2.5CECU_Rivian_A1.5CTarget.5Crepo_projects.5CpRealEcu.5CcL_LATEST.5Cmake.5Coutput.5Cobjects.5CSwcApplTpms_DevCanMessages.
000002f4 44            10094 	.byte	68
000002f5 9f            10095 	.byte	159
000002f6 00            10096 	.byte	0
000002f7 40            10097 	.byte	64
000002f8 9d            10098 	.byte	157
000002f9 04            10099 	.byte	4
000002fa 40            10100 	.byte	64
000002fb 9c            10101 	.byte	156
000002fc 08            10102 	.byte	8
000002fd 40            10103 	.byte	64

                                                                      Page 195
                                                              C:\Users\nhuliyap\AppData\Local\Temp\gh_00006601.s
000002fe 9b            10104 	.byte	155
000002ff 0c            10105 	.byte	12
00000300 01            10106 	.byte	1
00000301 00000000*     10107 	.word	.LDW54
00000305 44            10108 	.byte	68
00000306 df            10109 	.byte	223
00000307 40            10110 	.byte	64
00000308 dd            10111 	.byte	221
00000309 40            10112 	.byte	64
0000030a dc            10113 	.byte	220
0000030b 40            10114 	.byte	64
0000030c db            10115 	.byte	219
0000030d 00            10116 	.byte	0
0000030e 00            10117 	.byte	0
0000030f 00            10118 	.byte	0
                       10119 .LDW_unq_20:
                       10120 	.section	.debug_line
0000069a 000502        10121 	.byte	0,5,2
0000069d 00000000*     10122 	.word	_DCM_MessageUpdateMultiplex_33..C.3A.5C_ECU2.5CECU_Rivian_A1.5CTarget.5Crepo_projects.5CpRealEcu.5CcL_LATEST.5Cmake.5Coutput.5Cobjects.5CSwcApplTpms_DevCanMessages.
000006a1 03            10123 	.byte	3
000006a2 c504          10124 	.byte	197,4
000006a4 02            10125 	.byte	2
000006a5 00            10126 	.byte	0
000006a6 01            10127 	.byte	1
000006a7 06            10128 	.byte	6
000006a8 000502        10129 	.byte	0,5,2
000006ab 00000000*     10130 	.word	.LDWlin84
000006af 0b            10131 	.byte	11
000006b0 3b            10132 	.byte	59
000006b1 000502        10133 	.byte	0,5,2
000006b4 00000000*     10134 	.word	.LDWlin85
000006b8 0b            10135 	.byte	11
000006b9 000502        10136 	.byte	0,5,2
000006bc 00000000*     10137 	.word	.LDWlin86
000006c0 0b            10138 	.byte	11
000006c1 000502        10139 	.byte	0,5,2
000006c4 00000000*     10140 	.word	.LDWlin87
000006c8 0b            10141 	.byte	11
000006c9 000502        10142 	.byte	0,5,2
000006cc 00000000*     10143 	.word	.LDWlin88
000006d0 0c            10144 	.byte	12
000006d1 53            10145 	.byte	83
000006d2 02            10146 	.byte	2
000006d3 04            10147 	.byte	4
000006d4 000101        10148 	.byte	0,1,1
                       10149 	.section	.debug_info
                       10150 .LDW_28acb28:
00003a88 0f            10151 	.byte	15
00003a89 55385f436667  10152 	.strz	"U8_CfgArrPosition"
00003a8f 417272506f73 
00003a95 6974696f6e00 
00003a9b c504          10153 	.byte	197,4
00003a9d 31            10154 	.byte	49
00003a9e 01            10155 	.byte	1
00003a9f 00000000*     10156 	.word	.LDW_28a9ed8
00003aa3 00            10157 	.byte	0
00003aa4 016b          10158 	.byte	1,107
                       10159 
                       10160 .LDW_28aeb08:
00003aa6 1d            10161 	.byte	29
00003aa7 00000000*     10162 	.word	.LDW44

                                                                      Page 196
                                                              C:\Users\nhuliyap\AppData\Local\Temp\gh_00006601.s
00003aab 00000000*     10163 	.word	.LDW54
                       10164 
00003aaf 00            10165 	.byte	0
                       10166 
00003ab0 00            10167 	.byte	0
                       10168 
                       10169 .LDW_28accd8:
00003ab1 13            10170 	.byte	19
00003ab2 44434d5f4d65  10171 	.strz	"DCM_MessageUpdateMultiplex_40"
00003ab8 737361676555 
00003abe 70646174654d 
00003ac4 756c7469706c 
00003aca 65785f343000 
00003ad0 d004          10172 	.byte	208,4
00003ad2 0d            10173 	.byte	13
00003ad3 01            10174 	.byte	1
00003ad4 00000000*     10175 	.word	_DCM_MessageUpdateMultiplex_40..C.3A.5C_ECU2.5CECU_Rivian_A1.5CTarget.5Crepo_projects.5CpRealEcu.5CcL_LATEST.5Cmake.5Coutput.5Cobjects.5CSwcApplTpms_DevCanMessages.
00003ad8 00000000*     10176 	.word	___ghs_eofn_DCM_MessageUpdateMultiplex_40
00003adc 0153          10177 	.byte	1,83
00003ade 828080c00b    10178 	.byte	130,128,128,192,11
00003ae3 10            10179 	.byte	16
00003ae4 03            10180 	.byte	3
00003ae5 10            10181 	.byte	16
00003ae6 00            10182 	.byte	0
00003ae7 00            10183 	.byte	0
00003ae8 00            10184 	.byte	0
00003ae9 00            10185 	.byte	0
00003aea 01            10186 	.byte	1
00003aeb 00            10187 	.byte	0
00003aec 01            10188 	.byte	1
                       10189 
                       10190 	.section	.debug_frame
                       10191 .LDW_4d2c860:
00000310 00000000*     10192 	.word	.LDW_unq_22-.LDW_unq_21
                       10193 .LDW_unq_21:
00000314 00000000*     10194 	.word	.LDW_4c03450
00000318 00000000*     10195 	.word	_DCM_MessageUpdateMultiplex_40..C.3A.5C_ECU2.5CECU_Rivian_A1.5CTarget.5Crepo_projects.5CpRealEcu.5CcL_LATEST.5Cmake.5Coutput.5Cobjects.5CSwcApplTpms_DevCanMessages.
0000031c 00000000*     10196 	.word	___ghs_eofn_DCM_MessageUpdateMultiplex_40-_DCM_MessageUpdateMultiplex_40..C.3A.5C_ECU2.5CECU_Rivian_A1.5CTarget.5Crepo_projects.5CpRealEcu.5CcL_LATEST.5Cmake.5Coutput.5Cobjects.5CSwcApplTpms_DevCanMessages.
00000320 44            10197 	.byte	68
00000321 9f            10198 	.byte	159
00000322 00            10199 	.byte	0
00000323 40            10200 	.byte	64
00000324 9d            10201 	.byte	157
00000325 04            10202 	.byte	4
00000326 40            10203 	.byte	64
00000327 9c            10204 	.byte	156
00000328 08            10205 	.byte	8
00000329 40            10206 	.byte	64
0000032a 9b            10207 	.byte	155
0000032b 0c            10208 	.byte	12
0000032c 01            10209 	.byte	1
0000032d 00000000*     10210 	.word	.LDW74
00000331 44            10211 	.byte	68
00000332 df            10212 	.byte	223
00000333 40            10213 	.byte	64
00000334 dd            10214 	.byte	221
00000335 40            10215 	.byte	64
00000336 dc            10216 	.byte	220
00000337 40            10217 	.byte	64
00000338 db            10218 	.byte	219
00000339 00            10219 	.byte	0

                                                                      Page 197
                                                              C:\Users\nhuliyap\AppData\Local\Temp\gh_00006601.s
0000033a 00            10220 	.byte	0
0000033b 00            10221 	.byte	0
                       10222 .LDW_unq_22:
                       10223 	.section	.debug_line
000006d7 000502        10224 	.byte	0,5,2
000006da 00000000*     10225 	.word	_DCM_MessageUpdateMultiplex_40..C.3A.5C_ECU2.5CECU_Rivian_A1.5CTarget.5Crepo_projects.5CpRealEcu.5CcL_LATEST.5Cmake.5Coutput.5Cobjects.5CSwcApplTpms_DevCanMessages.
000006de 03            10226 	.byte	3
000006df d004          10227 	.byte	208,4
000006e1 02            10228 	.byte	2
000006e2 00            10229 	.byte	0
000006e3 01            10230 	.byte	1
000006e4 06            10231 	.byte	6
000006e5 000502        10232 	.byte	0,5,2
000006e8 00000000*     10233 	.word	.LDWlin89
000006ec 0b            10234 	.byte	11
000006ed 3b            10235 	.byte	59
000006ee 000502        10236 	.byte	0,5,2
000006f1 00000000*     10237 	.word	.LDWlin90
000006f5 0b            10238 	.byte	11
000006f6 000502        10239 	.byte	0,5,2
000006f9 00000000*     10240 	.word	.LDWlin91
000006fd 0b            10241 	.byte	11
000006fe 000502        10242 	.byte	0,5,2
00000701 00000000*     10243 	.word	.LDWlin92
00000705 0c            10244 	.byte	12
00000706 53            10245 	.byte	83
00000707 02            10246 	.byte	2
00000708 04            10247 	.byte	4
00000709 000101        10248 	.byte	0,1,1
                       10249 	.section	.debug_info
                       10250 .LDW_28acc30:
00003aed 0f            10251 	.byte	15
00003aee 55385f436667  10252 	.strz	"U8_CfgArrPosition"
00003af4 417272506f73 
00003afa 6974696f6e00 
00003b00 d004          10253 	.byte	208,4
00003b02 31            10254 	.byte	49
00003b03 01            10255 	.byte	1
00003b04 00000000*     10256 	.word	.LDW_28a9ed8
00003b08 00            10257 	.byte	0
00003b09 016b          10258 	.byte	1,107
                       10259 
                       10260 .LDW_28aeb38:
00003b0b 1d            10261 	.byte	29
00003b0c 00000000*     10262 	.word	.LDW64
00003b10 00000000*     10263 	.word	.LDW74
                       10264 
00003b14 00            10265 	.byte	0
                       10266 
00003b15 00            10267 	.byte	0
                       10268 
                       10269 .LDW_28acd70:
00003b16 13            10270 	.byte	19
00003b17 44434d5f4d65  10271 	.strz	"DCM_MessageUpdateMultiplex_41"
00003b1d 737361676555 
00003b23 70646174654d 
00003b29 756c7469706c 
00003b2f 65785f343100 
00003b35 da04          10272 	.byte	218,4
00003b37 0d            10273 	.byte	13
00003b38 01            10274 	.byte	1

                                                                      Page 198
                                                              C:\Users\nhuliyap\AppData\Local\Temp\gh_00006601.s
00003b39 00000000*     10275 	.word	_DCM_MessageUpdateMultiplex_41..C.3A.5C_ECU2.5CECU_Rivian_A1.5CTarget.5Crepo_projects.5CpRealEcu.5CcL_LATEST.5Cmake.5Coutput.5Cobjects.5CSwcApplTpms_DevCanMessages.
00003b3d 00000000*     10276 	.word	___ghs_eofn_DCM_MessageUpdateMultiplex_41
00003b41 0153          10277 	.byte	1,83
00003b43 828080c00b    10278 	.byte	130,128,128,192,11
00003b48 10            10279 	.byte	16
00003b49 03            10280 	.byte	3
00003b4a 10            10281 	.byte	16
00003b4b 00            10282 	.byte	0
00003b4c 00            10283 	.byte	0
00003b4d 00            10284 	.byte	0
00003b4e 00            10285 	.byte	0
00003b4f 01            10286 	.byte	1
00003b50 00            10287 	.byte	0
00003b51 01            10288 	.byte	1
                       10289 
                       10290 	.section	.debug_frame
                       10291 .LDW_4d2c9a0:
0000033c 00000000*     10292 	.word	.LDW_unq_24-.LDW_unq_23
                       10293 .LDW_unq_23:
00000340 00000000*     10294 	.word	.LDW_4c03450
00000344 00000000*     10295 	.word	_DCM_MessageUpdateMultiplex_41..C.3A.5C_ECU2.5CECU_Rivian_A1.5CTarget.5Crepo_projects.5CpRealEcu.5CcL_LATEST.5Cmake.5Coutput.5Cobjects.5CSwcApplTpms_DevCanMessages.
00000348 00000000*     10296 	.word	___ghs_eofn_DCM_MessageUpdateMultiplex_41-_DCM_MessageUpdateMultiplex_41..C.3A.5C_ECU2.5CECU_Rivian_A1.5CTarget.5Crepo_projects.5CpRealEcu.5CcL_LATEST.5Cmake.5Coutput.5Cobjects.5CSwcApplTpms_DevCanMessages.
0000034c 44            10297 	.byte	68
0000034d 9f            10298 	.byte	159
0000034e 00            10299 	.byte	0
0000034f 40            10300 	.byte	64
00000350 9d            10301 	.byte	157
00000351 04            10302 	.byte	4
00000352 40            10303 	.byte	64
00000353 9c            10304 	.byte	156
00000354 08            10305 	.byte	8
00000355 40            10306 	.byte	64
00000356 9b            10307 	.byte	155
00000357 0c            10308 	.byte	12
00000358 01            10309 	.byte	1
00000359 00000000*     10310 	.word	.LDW94
0000035d 44            10311 	.byte	68
0000035e df            10312 	.byte	223
0000035f 40            10313 	.byte	64
00000360 dd            10314 	.byte	221
00000361 40            10315 	.byte	64
00000362 dc            10316 	.byte	220
00000363 40            10317 	.byte	64
00000364 db            10318 	.byte	219
00000365 00            10319 	.byte	0
00000366 00            10320 	.byte	0
00000367 00            10321 	.byte	0
                       10322 .LDW_unq_24:
                       10323 	.section	.debug_line
0000070c 000502        10324 	.byte	0,5,2
0000070f 00000000*     10325 	.word	_DCM_MessageUpdateMultiplex_41..C.3A.5C_ECU2.5CECU_Rivian_A1.5CTarget.5Crepo_projects.5CpRealEcu.5CcL_LATEST.5Cmake.5Coutput.5Cobjects.5CSwcApplTpms_DevCanMessages.
00000713 03            10326 	.byte	3
00000714 da04          10327 	.byte	218,4
00000716 02            10328 	.byte	2
00000717 00            10329 	.byte	0
00000718 01            10330 	.byte	1
00000719 06            10331 	.byte	6
0000071a 000502        10332 	.byte	0,5,2
0000071d 00000000*     10333 	.word	.LDWlin93
00000721 0b            10334 	.byte	11
00000722 3b            10335 	.byte	59

                                                                      Page 199
                                                              C:\Users\nhuliyap\AppData\Local\Temp\gh_00006601.s
00000723 000502        10336 	.byte	0,5,2
00000726 00000000*     10337 	.word	.LDWlin94
0000072a 0b            10338 	.byte	11
0000072b 000502        10339 	.byte	0,5,2
0000072e 00000000*     10340 	.word	.LDWlin95
00000732 0b            10341 	.byte	11
00000733 000502        10342 	.byte	0,5,2
00000736 00000000*     10343 	.word	.LDWlin96
0000073a 0c            10344 	.byte	12
0000073b 53            10345 	.byte	83
0000073c 02            10346 	.byte	2
0000073d 04            10347 	.byte	4
0000073e 000101        10348 	.byte	0,1,1
                       10349 	.section	.debug_info
                       10350 .LDW_28ac868:
00003b52 0f            10351 	.byte	15
00003b53 55385f436667  10352 	.strz	"U8_CfgArrPosition"
00003b59 417272506f73 
00003b5f 6974696f6e00 
00003b65 da04          10353 	.byte	218,4
00003b67 31            10354 	.byte	49
00003b68 01            10355 	.byte	1
00003b69 00000000*     10356 	.word	.LDW_28a9ed8
00003b6d 00            10357 	.byte	0
00003b6e 016b          10358 	.byte	1,107
                       10359 
                       10360 .LDW_4c39248:
00003b70 1d            10361 	.byte	29
00003b71 00000000*     10362 	.word	.LDW84
00003b75 00000000*     10363 	.word	.LDW94
                       10364 
00003b79 00            10365 	.byte	0
                       10366 
00003b7a 00            10367 	.byte	0
                       10368 
                       10369 .LDW_4c3a8f0:
00003b7b 13            10370 	.byte	19
00003b7c 44434d5f4d65  10371 	.strz	"DCM_MessageUpdateMultiplex_42"
00003b82 737361676555 
00003b88 70646174654d 
00003b8e 756c7469706c 
00003b94 65785f343200 
00003b9a e404          10372 	.byte	228,4
00003b9c 0d            10373 	.byte	13
00003b9d 01            10374 	.byte	1
00003b9e 00000000*     10375 	.word	_DCM_MessageUpdateMultiplex_42..C.3A.5C_ECU2.5CECU_Rivian_A1.5CTarget.5Crepo_projects.5CpRealEcu.5CcL_LATEST.5Cmake.5Coutput.5Cobjects.5CSwcApplTpms_DevCanMessages.
00003ba2 00000000*     10376 	.word	___ghs_eofn_DCM_MessageUpdateMultiplex_42
00003ba6 0153          10377 	.byte	1,83
00003ba8 828080c00b    10378 	.byte	130,128,128,192,11
00003bad 10            10379 	.byte	16
00003bae 03            10380 	.byte	3
00003baf 10            10381 	.byte	16
00003bb0 00            10382 	.byte	0
00003bb1 00            10383 	.byte	0
00003bb2 00            10384 	.byte	0
00003bb3 00            10385 	.byte	0
00003bb4 01            10386 	.byte	1
00003bb5 00            10387 	.byte	0
00003bb6 01            10388 	.byte	1
                       10389 
                       10390 	.section	.debug_frame

                                                                      Page 200
                                                              C:\Users\nhuliyap\AppData\Local\Temp\gh_00006601.s
                       10391 .LDW_4d2cae0:
00000368 00000000*     10392 	.word	.LDW_unq_26-.LDW_unq_25
                       10393 .LDW_unq_25:
0000036c 00000000*     10394 	.word	.LDW_4c03450
00000370 00000000*     10395 	.word	_DCM_MessageUpdateMultiplex_42..C.3A.5C_ECU2.5CECU_Rivian_A1.5CTarget.5Crepo_projects.5CpRealEcu.5CcL_LATEST.5Cmake.5Coutput.5Cobjects.5CSwcApplTpms_DevCanMessages.
00000374 00000000*     10396 	.word	___ghs_eofn_DCM_MessageUpdateMultiplex_42-_DCM_MessageUpdateMultiplex_42..C.3A.5C_ECU2.5CECU_Rivian_A1.5CTarget.5Crepo_projects.5CpRealEcu.5CcL_LATEST.5Cmake.5Coutput.5Cobjects.5CSwcApplTpms_DevCanMessages.
00000378 44            10397 	.byte	68
00000379 9f            10398 	.byte	159
0000037a 00            10399 	.byte	0
0000037b 40            10400 	.byte	64
0000037c 9d            10401 	.byte	157
0000037d 04            10402 	.byte	4
0000037e 40            10403 	.byte	64
0000037f 9c            10404 	.byte	156
00000380 08            10405 	.byte	8
00000381 40            10406 	.byte	64
00000382 9b            10407 	.byte	155
00000383 0c            10408 	.byte	12
00000384 01            10409 	.byte	1
00000385 00000000*     10410 	.word	.LDW15
00000389 44            10411 	.byte	68
0000038a df            10412 	.byte	223
0000038b 40            10413 	.byte	64
0000038c dd            10414 	.byte	221
0000038d 40            10415 	.byte	64
0000038e dc            10416 	.byte	220
0000038f 40            10417 	.byte	64
00000390 db            10418 	.byte	219
00000391 00            10419 	.byte	0
00000392 00            10420 	.byte	0
00000393 00            10421 	.byte	0
                       10422 .LDW_unq_26:
                       10423 	.section	.debug_line
00000741 000502        10424 	.byte	0,5,2
00000744 00000000*     10425 	.word	_DCM_MessageUpdateMultiplex_42..C.3A.5C_ECU2.5CECU_Rivian_A1.5CTarget.5Crepo_projects.5CpRealEcu.5CcL_LATEST.5Cmake.5Coutput.5Cobjects.5CSwcApplTpms_DevCanMessages.
00000748 03            10426 	.byte	3
00000749 e404          10427 	.byte	228,4
0000074b 02            10428 	.byte	2
0000074c 00            10429 	.byte	0
0000074d 01            10430 	.byte	1
0000074e 06            10431 	.byte	6
0000074f 000502        10432 	.byte	0,5,2
00000752 00000000*     10433 	.word	.LDWlin97
00000756 0b            10434 	.byte	11
00000757 3b            10435 	.byte	59
00000758 000502        10436 	.byte	0,5,2
0000075b 00000000*     10437 	.word	.LDWlin98
0000075f 0b            10438 	.byte	11
00000760 000502        10439 	.byte	0,5,2
00000763 00000000*     10440 	.word	.LDWlin99
00000767 0b            10441 	.byte	11
00000768 000502        10442 	.byte	0,5,2
0000076b 00000000*     10443 	.word	.LDWlin100
0000076f 0c            10444 	.byte	12
00000770 53            10445 	.byte	83
00000771 02            10446 	.byte	2
00000772 04            10447 	.byte	4
00000773 000101        10448 	.byte	0,1,1
                       10449 	.section	.debug_info
                       10450 .LDW_28acb80:
00003bb7 0f            10451 	.byte	15

                                                                      Page 201
                                                              C:\Users\nhuliyap\AppData\Local\Temp\gh_00006601.s
00003bb8 55385f436667  10452 	.strz	"U8_CfgArrPosition"
00003bbe 417272506f73 
00003bc4 6974696f6e00 
00003bca e404          10453 	.byte	228,4
00003bcc 31            10454 	.byte	49
00003bcd 01            10455 	.byte	1
00003bce 00000000*     10456 	.word	.LDW_28a9ed8
00003bd2 00            10457 	.byte	0
00003bd3 016b          10458 	.byte	1,107
                       10459 
                       10460 .LDW_4c395d8:
00003bd5 1d            10461 	.byte	29
00003bd6 00000000*     10462 	.word	.LDW05
00003bda 00000000*     10463 	.word	.LDW15
                       10464 
00003bde 00            10465 	.byte	0
                       10466 
00003bdf 00            10467 	.byte	0
                       10468 
                       10469 .LDW_4c3a008:
00003be0 13            10470 	.byte	19
00003be1 44434d5f4d65  10471 	.strz	"DCM_MessageUpdateMultiplex_43"
00003be7 737361676555 
00003bed 70646174654d 
00003bf3 756c7469706c 
00003bf9 65785f343300 
00003bff ee04          10472 	.byte	238,4
00003c01 0d            10473 	.byte	13
00003c02 01            10474 	.byte	1
00003c03 00000000*     10475 	.word	_DCM_MessageUpdateMultiplex_43..C.3A.5C_ECU2.5CECU_Rivian_A1.5CTarget.5Crepo_projects.5CpRealEcu.5CcL_LATEST.5Cmake.5Coutput.5Cobjects.5CSwcApplTpms_DevCanMessages.
00003c07 00000000*     10476 	.word	___ghs_eofn_DCM_MessageUpdateMultiplex_43
00003c0b 0153          10477 	.byte	1,83
00003c0d 828080c00b    10478 	.byte	130,128,128,192,11
00003c12 10            10479 	.byte	16
00003c13 03            10480 	.byte	3
00003c14 10            10481 	.byte	16
00003c15 00            10482 	.byte	0
00003c16 00            10483 	.byte	0
00003c17 00            10484 	.byte	0
00003c18 00            10485 	.byte	0
00003c19 01            10486 	.byte	1
00003c1a 00            10487 	.byte	0
00003c1b 01            10488 	.byte	1
                       10489 
                       10490 	.section	.debug_frame
                       10491 .LDW_4d2c9e0:
00000394 00000000*     10492 	.word	.LDW_unq_28-.LDW_unq_27
                       10493 .LDW_unq_27:
00000398 00000000*     10494 	.word	.LDW_4c03450
0000039c 00000000*     10495 	.word	_DCM_MessageUpdateMultiplex_43..C.3A.5C_ECU2.5CECU_Rivian_A1.5CTarget.5Crepo_projects.5CpRealEcu.5CcL_LATEST.5Cmake.5Coutput.5Cobjects.5CSwcApplTpms_DevCanMessages.
000003a0 00000000*     10496 	.word	___ghs_eofn_DCM_MessageUpdateMultiplex_43-_DCM_MessageUpdateMultiplex_43..C.3A.5C_ECU2.5CECU_Rivian_A1.5CTarget.5Crepo_projects.5CpRealEcu.5CcL_LATEST.5Cmake.5Coutput.5Cobjects.5CSwcApplTpms_DevCanMessages.
000003a4 44            10497 	.byte	68
000003a5 9f            10498 	.byte	159
000003a6 00            10499 	.byte	0
000003a7 40            10500 	.byte	64
000003a8 9d            10501 	.byte	157
000003a9 04            10502 	.byte	4
000003aa 40            10503 	.byte	64
000003ab 9c            10504 	.byte	156
000003ac 08            10505 	.byte	8
000003ad 40            10506 	.byte	64

                                                                      Page 202
                                                              C:\Users\nhuliyap\AppData\Local\Temp\gh_00006601.s
000003ae 9b            10507 	.byte	155
000003af 0c            10508 	.byte	12
000003b0 01            10509 	.byte	1
000003b1 00000000*     10510 	.word	.LDW35
000003b5 44            10511 	.byte	68
000003b6 df            10512 	.byte	223
000003b7 40            10513 	.byte	64
000003b8 dd            10514 	.byte	221
000003b9 40            10515 	.byte	64
000003ba dc            10516 	.byte	220
000003bb 40            10517 	.byte	64
000003bc db            10518 	.byte	219
000003bd 00            10519 	.byte	0
000003be 00            10520 	.byte	0
000003bf 00            10521 	.byte	0
                       10522 .LDW_unq_28:
                       10523 	.section	.debug_line
00000776 000502        10524 	.byte	0,5,2
00000779 00000000*     10525 	.word	_DCM_MessageUpdateMultiplex_43..C.3A.5C_ECU2.5CECU_Rivian_A1.5CTarget.5Crepo_projects.5CpRealEcu.5CcL_LATEST.5Cmake.5Coutput.5Cobjects.5CSwcApplTpms_DevCanMessages.
0000077d 03            10526 	.byte	3
0000077e ee04          10527 	.byte	238,4
00000780 02            10528 	.byte	2
00000781 00            10529 	.byte	0
00000782 01            10530 	.byte	1
00000783 06            10531 	.byte	6
00000784 000502        10532 	.byte	0,5,2
00000787 00000000*     10533 	.word	.LDWlin101
0000078b 0b            10534 	.byte	11
0000078c 3b            10535 	.byte	59
0000078d 000502        10536 	.byte	0,5,2
00000790 00000000*     10537 	.word	.LDWlin102
00000794 0b            10538 	.byte	11
00000795 000502        10539 	.byte	0,5,2
00000798 00000000*     10540 	.word	.LDWlin103
0000079c 0b            10541 	.byte	11
0000079d 000502        10542 	.byte	0,5,2
000007a0 00000000*     10543 	.word	.LDWlin104
000007a4 0c            10544 	.byte	12
000007a5 53            10545 	.byte	83
000007a6 02            10546 	.byte	2
000007a7 04            10547 	.byte	4
000007a8 000101        10548 	.byte	0,1,1
                       10549 	.section	.debug_info
                       10550 .LDW_28aca78:
00003c1c 0f            10551 	.byte	15
00003c1d 55385f436667  10552 	.strz	"U8_CfgArrPosition"
00003c23 417272506f73 
00003c29 6974696f6e00 
00003c2f ee04          10553 	.byte	238,4
00003c31 31            10554 	.byte	49
00003c32 01            10555 	.byte	1
00003c33 00000000*     10556 	.word	.LDW_28a9ed8
00003c37 00            10557 	.byte	0
00003c38 016b          10558 	.byte	1,107
                       10559 
                       10560 .LDW_4c39218:
00003c3a 1d            10561 	.byte	29
00003c3b 00000000*     10562 	.word	.LDW25
00003c3f 00000000*     10563 	.word	.LDW35
                       10564 
00003c43 00            10565 	.byte	0

                                                                      Page 203
                                                              C:\Users\nhuliyap\AppData\Local\Temp\gh_00006601.s
                       10566 
00003c44 00            10567 	.byte	0
                       10568 
                       10569 .LDW_4c3aa20:
00003c45 13            10570 	.byte	19
00003c46 44434d5f4d65  10571 	.strz	"DCM_MessageUpdateMultiplex_44"
00003c4c 737361676555 
00003c52 70646174654d 
00003c58 756c7469706c 
00003c5e 65785f343400 
00003c64 f804          10572 	.byte	248,4
00003c66 0d            10573 	.byte	13
00003c67 01            10574 	.byte	1
00003c68 00000000*     10575 	.word	_DCM_MessageUpdateMultiplex_44..C.3A.5C_ECU2.5CECU_Rivian_A1.5CTarget.5Crepo_projects.5CpRealEcu.5CcL_LATEST.5Cmake.5Coutput.5Cobjects.5CSwcApplTpms_DevCanMessages.
00003c6c 00000000*     10576 	.word	___ghs_eofn_DCM_MessageUpdateMultiplex_44
00003c70 0153          10577 	.byte	1,83
00003c72 828080c00b    10578 	.byte	130,128,128,192,11
00003c77 10            10579 	.byte	16
00003c78 03            10580 	.byte	3
00003c79 10            10581 	.byte	16
00003c7a 00            10582 	.byte	0
00003c7b 00            10583 	.byte	0
00003c7c 00            10584 	.byte	0
00003c7d 00            10585 	.byte	0
00003c7e 01            10586 	.byte	1
00003c7f 00            10587 	.byte	0
00003c80 01            10588 	.byte	1
                       10589 
                       10590 	.section	.debug_frame
                       10591 .LDW_4d2c920:
000003c0 00000000*     10592 	.word	.LDW_unq_2a-.LDW_unq_29
                       10593 .LDW_unq_29:
000003c4 00000000*     10594 	.word	.LDW_4c03450
000003c8 00000000*     10595 	.word	_DCM_MessageUpdateMultiplex_44..C.3A.5C_ECU2.5CECU_Rivian_A1.5CTarget.5Crepo_projects.5CpRealEcu.5CcL_LATEST.5Cmake.5Coutput.5Cobjects.5CSwcApplTpms_DevCanMessages.
000003cc 00000000*     10596 	.word	___ghs_eofn_DCM_MessageUpdateMultiplex_44-_DCM_MessageUpdateMultiplex_44..C.3A.5C_ECU2.5CECU_Rivian_A1.5CTarget.5Crepo_projects.5CpRealEcu.5CcL_LATEST.5Cmake.5Coutput.5Cobjects.5CSwcApplTpms_DevCanMessages.
000003d0 44            10597 	.byte	68
000003d1 9f            10598 	.byte	159
000003d2 00            10599 	.byte	0
000003d3 40            10600 	.byte	64
000003d4 9d            10601 	.byte	157
000003d5 04            10602 	.byte	4
000003d6 40            10603 	.byte	64
000003d7 9c            10604 	.byte	156
000003d8 08            10605 	.byte	8
000003d9 40            10606 	.byte	64
000003da 9b            10607 	.byte	155
000003db 0c            10608 	.byte	12
000003dc 01            10609 	.byte	1
000003dd 00000000*     10610 	.word	.LDW55
000003e1 44            10611 	.byte	68
000003e2 df            10612 	.byte	223
000003e3 40            10613 	.byte	64
000003e4 dd            10614 	.byte	221
000003e5 40            10615 	.byte	64
000003e6 dc            10616 	.byte	220
000003e7 40            10617 	.byte	64
000003e8 db            10618 	.byte	219
000003e9 00            10619 	.byte	0
000003ea 00            10620 	.byte	0
000003eb 00            10621 	.byte	0
                       10622 .LDW_unq_2a:

                                                                      Page 204
                                                              C:\Users\nhuliyap\AppData\Local\Temp\gh_00006601.s
                       10623 	.section	.debug_line
000007ab 000502        10624 	.byte	0,5,2
000007ae 00000000*     10625 	.word	_DCM_MessageUpdateMultiplex_44..C.3A.5C_ECU2.5CECU_Rivian_A1.5CTarget.5Crepo_projects.5CpRealEcu.5CcL_LATEST.5Cmake.5Coutput.5Cobjects.5CSwcApplTpms_DevCanMessages.
000007b2 03            10626 	.byte	3
000007b3 f804          10627 	.byte	248,4
000007b5 02            10628 	.byte	2
000007b6 00            10629 	.byte	0
000007b7 01            10630 	.byte	1
000007b8 06            10631 	.byte	6
000007b9 000502        10632 	.byte	0,5,2
000007bc 00000000*     10633 	.word	.LDWlin105
000007c0 0b            10634 	.byte	11
000007c1 3b            10635 	.byte	59
000007c2 000502        10636 	.byte	0,5,2
000007c5 00000000*     10637 	.word	.LDWlin106
000007c9 0b            10638 	.byte	11
000007ca 000502        10639 	.byte	0,5,2
000007cd 00000000*     10640 	.word	.LDWlin107
000007d1 0b            10641 	.byte	11
000007d2 000502        10642 	.byte	0,5,2
000007d5 00000000*     10643 	.word	.LDWlin108
000007d9 0c            10644 	.byte	12
000007da 53            10645 	.byte	83
000007db 02            10646 	.byte	2
000007dc 04            10647 	.byte	4
000007dd 000101        10648 	.byte	0,1,1
                       10649 	.section	.debug_info
                       10650 .LDW_28ac9c8:
00003c81 0f            10651 	.byte	15
00003c82 55385f436667  10652 	.strz	"U8_CfgArrPosition"
00003c88 417272506f73 
00003c8e 6974696f6e00 
00003c94 f804          10653 	.byte	248,4
00003c96 31            10654 	.byte	49
00003c97 01            10655 	.byte	1
00003c98 00000000*     10656 	.word	.LDW_28a9ed8
00003c9c 00            10657 	.byte	0
00003c9d 016b          10658 	.byte	1,107
                       10659 
                       10660 .LDW_4c39398:
00003c9f 1d            10661 	.byte	29
00003ca0 00000000*     10662 	.word	.LDW45
00003ca4 00000000*     10663 	.word	.LDW55
                       10664 
00003ca8 00            10665 	.byte	0
                       10666 
00003ca9 00            10667 	.byte	0
                       10668 
                       10669 .LDW_4c3a5f8:
00003caa 13            10670 	.byte	19
00003cab 44434d5f4d65  10671 	.strz	"DCM_MessageUpdateMultiplex_45"
00003cb1 737361676555 
00003cb7 70646174654d 
00003cbd 756c7469706c 
00003cc3 65785f343500 
00003cc9 8205          10672 	.byte	130,5
00003ccb 0d            10673 	.byte	13
00003ccc 01            10674 	.byte	1
00003ccd 00000000*     10675 	.word	_DCM_MessageUpdateMultiplex_45..C.3A.5C_ECU2.5CECU_Rivian_A1.5CTarget.5Crepo_projects.5CpRealEcu.5CcL_LATEST.5Cmake.5Coutput.5Cobjects.5CSwcApplTpms_DevCanMessages.
00003cd1 00000000*     10676 	.word	___ghs_eofn_DCM_MessageUpdateMultiplex_45
00003cd5 0153          10677 	.byte	1,83

                                                                      Page 205
                                                              C:\Users\nhuliyap\AppData\Local\Temp\gh_00006601.s
00003cd7 828080c00b    10678 	.byte	130,128,128,192,11
00003cdc 10            10679 	.byte	16
00003cdd 03            10680 	.byte	3
00003cde 10            10681 	.byte	16
00003cdf 00            10682 	.byte	0
00003ce0 00            10683 	.byte	0
00003ce1 00            10684 	.byte	0
00003ce2 00            10685 	.byte	0
00003ce3 01            10686 	.byte	1
00003ce4 00            10687 	.byte	0
00003ce5 01            10688 	.byte	1
                       10689 
                       10690 	.section	.debug_frame
                       10691 .LDW_4d2c960:
000003ec 00000000*     10692 	.word	.LDW_unq_2c-.LDW_unq_2b
                       10693 .LDW_unq_2b:
000003f0 00000000*     10694 	.word	.LDW_4c03450
000003f4 00000000*     10695 	.word	_DCM_MessageUpdateMultiplex_45..C.3A.5C_ECU2.5CECU_Rivian_A1.5CTarget.5Crepo_projects.5CpRealEcu.5CcL_LATEST.5Cmake.5Coutput.5Cobjects.5CSwcApplTpms_DevCanMessages.
000003f8 00000000*     10696 	.word	___ghs_eofn_DCM_MessageUpdateMultiplex_45-_DCM_MessageUpdateMultiplex_45..C.3A.5C_ECU2.5CECU_Rivian_A1.5CTarget.5Crepo_projects.5CpRealEcu.5CcL_LATEST.5Cmake.5Coutput.5Cobjects.5CSwcApplTpms_DevCanMessages.
000003fc 44            10697 	.byte	68
000003fd 9f            10698 	.byte	159
000003fe 00            10699 	.byte	0
000003ff 40            10700 	.byte	64
00000400 9d            10701 	.byte	157
00000401 04            10702 	.byte	4
00000402 40            10703 	.byte	64
00000403 9c            10704 	.byte	156
00000404 08            10705 	.byte	8
00000405 40            10706 	.byte	64
00000406 9b            10707 	.byte	155
00000407 0c            10708 	.byte	12
00000408 01            10709 	.byte	1
00000409 00000000*     10710 	.word	.LDW75
0000040d 44            10711 	.byte	68
0000040e df            10712 	.byte	223
0000040f 40            10713 	.byte	64
00000410 dd            10714 	.byte	221
00000411 40            10715 	.byte	64
00000412 dc            10716 	.byte	220
00000413 40            10717 	.byte	64
00000414 db            10718 	.byte	219
00000415 00            10719 	.byte	0
00000416 00            10720 	.byte	0
00000417 00            10721 	.byte	0
                       10722 .LDW_unq_2c:
                       10723 	.section	.debug_line
000007e0 000502        10724 	.byte	0,5,2
000007e3 00000000*     10725 	.word	_DCM_MessageUpdateMultiplex_45..C.3A.5C_ECU2.5CECU_Rivian_A1.5CTarget.5Crepo_projects.5CpRealEcu.5CcL_LATEST.5Cmake.5Coutput.5Cobjects.5CSwcApplTpms_DevCanMessages.
000007e7 03            10726 	.byte	3
000007e8 8205          10727 	.byte	130,5
000007ea 02            10728 	.byte	2
000007eb 00            10729 	.byte	0
000007ec 01            10730 	.byte	1
000007ed 06            10731 	.byte	6
000007ee 000502        10732 	.byte	0,5,2
000007f1 00000000*     10733 	.word	.LDWlin109
000007f5 0b            10734 	.byte	11
000007f6 3b            10735 	.byte	59
000007f7 000502        10736 	.byte	0,5,2
000007fa 00000000*     10737 	.word	.LDWlin110
000007fe 0b            10738 	.byte	11

                                                                      Page 206
                                                              C:\Users\nhuliyap\AppData\Local\Temp\gh_00006601.s
000007ff 000502        10739 	.byte	0,5,2
00000802 00000000*     10740 	.word	.LDWlin111
00000806 0b            10741 	.byte	11
00000807 000502        10742 	.byte	0,5,2
0000080a 00000000*     10743 	.word	.LDWlin112
0000080e 0c            10744 	.byte	12
0000080f 53            10745 	.byte	83
00000810 02            10746 	.byte	2
00000811 04            10747 	.byte	4
00000812 000101        10748 	.byte	0,1,1
                       10749 	.section	.debug_info
                       10750 .LDW_28aca20:
00003ce6 0f            10751 	.byte	15
00003ce7 55385f436667  10752 	.strz	"U8_CfgArrPosition"
00003ced 417272506f73 
00003cf3 6974696f6e00 
00003cf9 8205          10753 	.byte	130,5
00003cfb 31            10754 	.byte	49
00003cfc 01            10755 	.byte	1
00003cfd 00000000*     10756 	.word	.LDW_28a9ed8
00003d01 00            10757 	.byte	0
00003d02 016b          10758 	.byte	1,107
                       10759 
                       10760 .LDW_4c394e8:
00003d04 1d            10761 	.byte	29
00003d05 00000000*     10762 	.word	.LDW65
00003d09 00000000*     10763 	.word	.LDW75
                       10764 
00003d0d 00            10765 	.byte	0
                       10766 
00003d0e 00            10767 	.byte	0
                       10768 
                       10769 .LDW_4c3a300:
00003d0f 13            10770 	.byte	19
00003d10 44434d5f4d65  10771 	.strz	"DCM_MessageUpdateMultiplex_46"
00003d16 737361676555 
00003d1c 70646174654d 
00003d22 756c7469706c 
00003d28 65785f343600 
00003d2e 8c05          10772 	.byte	140,5
00003d30 0d            10773 	.byte	13
00003d31 01            10774 	.byte	1
00003d32 00000000*     10775 	.word	_DCM_MessageUpdateMultiplex_46..C.3A.5C_ECU2.5CECU_Rivian_A1.5CTarget.5Crepo_projects.5CpRealEcu.5CcL_LATEST.5Cmake.5Coutput.5Cobjects.5CSwcApplTpms_DevCanMessages.
00003d36 00000000*     10776 	.word	___ghs_eofn_DCM_MessageUpdateMultiplex_46
00003d3a 0153          10777 	.byte	1,83
00003d3c 828080c00b    10778 	.byte	130,128,128,192,11
00003d41 10            10779 	.byte	16
00003d42 03            10780 	.byte	3
00003d43 10            10781 	.byte	16
00003d44 00            10782 	.byte	0
00003d45 00            10783 	.byte	0
00003d46 00            10784 	.byte	0
00003d47 00            10785 	.byte	0
00003d48 01            10786 	.byte	1
00003d49 00            10787 	.byte	0
00003d4a 01            10788 	.byte	1
                       10789 
                       10790 	.section	.debug_frame
                       10791 .LDW_4d2cba0:
00000418 00000000*     10792 	.word	.LDW_unq_2e-.LDW_unq_2d
                       10793 .LDW_unq_2d:

                                                                      Page 207
                                                              C:\Users\nhuliyap\AppData\Local\Temp\gh_00006601.s
0000041c 00000000*     10794 	.word	.LDW_4c03450
00000420 00000000*     10795 	.word	_DCM_MessageUpdateMultiplex_46..C.3A.5C_ECU2.5CECU_Rivian_A1.5CTarget.5Crepo_projects.5CpRealEcu.5CcL_LATEST.5Cmake.5Coutput.5Cobjects.5CSwcApplTpms_DevCanMessages.
00000424 00000000*     10796 	.word	___ghs_eofn_DCM_MessageUpdateMultiplex_46-_DCM_MessageUpdateMultiplex_46..C.3A.5C_ECU2.5CECU_Rivian_A1.5CTarget.5Crepo_projects.5CpRealEcu.5CcL_LATEST.5Cmake.5Coutput.5Cobjects.5CSwcApplTpms_DevCanMessages.
00000428 44            10797 	.byte	68
00000429 9f            10798 	.byte	159
0000042a 00            10799 	.byte	0
0000042b 40            10800 	.byte	64
0000042c 9d            10801 	.byte	157
0000042d 04            10802 	.byte	4
0000042e 40            10803 	.byte	64
0000042f 9c            10804 	.byte	156
00000430 08            10805 	.byte	8
00000431 40            10806 	.byte	64
00000432 9b            10807 	.byte	155
00000433 0c            10808 	.byte	12
00000434 01            10809 	.byte	1
00000435 00000000*     10810 	.word	.LDW95
00000439 44            10811 	.byte	68
0000043a df            10812 	.byte	223
0000043b 40            10813 	.byte	64
0000043c dd            10814 	.byte	221
0000043d 40            10815 	.byte	64
0000043e dc            10816 	.byte	220
0000043f 40            10817 	.byte	64
00000440 db            10818 	.byte	219
00000441 00            10819 	.byte	0
00000442 00            10820 	.byte	0
00000443 00            10821 	.byte	0
                       10822 .LDW_unq_2e:
                       10823 	.section	.debug_line
00000815 000502        10824 	.byte	0,5,2
00000818 00000000*     10825 	.word	_DCM_MessageUpdateMultiplex_46..C.3A.5C_ECU2.5CECU_Rivian_A1.5CTarget.5Crepo_projects.5CpRealEcu.5CcL_LATEST.5Cmake.5Coutput.5Cobjects.5CSwcApplTpms_DevCanMessages.
0000081c 03            10826 	.byte	3
0000081d 8c05          10827 	.byte	140,5
0000081f 02            10828 	.byte	2
00000820 00            10829 	.byte	0
00000821 01            10830 	.byte	1
00000822 06            10831 	.byte	6
00000823 000502        10832 	.byte	0,5,2
00000826 00000000*     10833 	.word	.LDWlin113
0000082a 0b            10834 	.byte	11
0000082b 3b            10835 	.byte	59
0000082c 000502        10836 	.byte	0,5,2
0000082f 00000000*     10837 	.word	.LDWlin114
00000833 0b            10838 	.byte	11
00000834 000502        10839 	.byte	0,5,2
00000837 00000000*     10840 	.word	.LDWlin115
0000083b 0b            10841 	.byte	11
0000083c 000502        10842 	.byte	0,5,2
0000083f 00000000*     10843 	.word	.LDWlin116
00000843 0c            10844 	.byte	12
00000844 53            10845 	.byte	83
00000845 02            10846 	.byte	2
00000846 04            10847 	.byte	4
00000847 000101        10848 	.byte	0,1,1
                       10849 	.section	.debug_info
                       10850 .LDW_28acad0:
00003d4b 0f            10851 	.byte	15
00003d4c 55385f436667  10852 	.strz	"U8_CfgArrPosition"
00003d52 417272506f73 
00003d58 6974696f6e00 

                                                                      Page 208
                                                              C:\Users\nhuliyap\AppData\Local\Temp\gh_00006601.s
00003d5e 8c05          10853 	.byte	140,5
00003d60 31            10854 	.byte	49
00003d61 01            10855 	.byte	1
00003d62 00000000*     10856 	.word	.LDW_28a9ed8
00003d66 00            10857 	.byte	0
00003d67 016b          10858 	.byte	1,107
                       10859 
                       10860 .LDW_4c39578:
00003d69 1d            10861 	.byte	29
00003d6a 00000000*     10862 	.word	.LDW85
00003d6e 00000000*     10863 	.word	.LDW95
                       10864 
00003d72 00            10865 	.byte	0
                       10866 
00003d73 00            10867 	.byte	0
                       10868 
                       10869 .LDW_4c3ae48:
00003d74 13            10870 	.byte	19
00003d75 44434d5f4d65  10871 	.strz	"DCM_MessageUpdateMultiplex_47"
00003d7b 737361676555 
00003d81 70646174654d 
00003d87 756c7469706c 
00003d8d 65785f343700 
00003d93 9605          10872 	.byte	150,5
00003d95 0d            10873 	.byte	13
00003d96 01            10874 	.byte	1
00003d97 00000000*     10875 	.word	_DCM_MessageUpdateMultiplex_47..C.3A.5C_ECU2.5CECU_Rivian_A1.5CTarget.5Crepo_projects.5CpRealEcu.5CcL_LATEST.5Cmake.5Coutput.5Cobjects.5CSwcApplTpms_DevCanMessages.
00003d9b 00000000*     10876 	.word	___ghs_eofn_DCM_MessageUpdateMultiplex_47
00003d9f 0153          10877 	.byte	1,83
00003da1 828080c00b    10878 	.byte	130,128,128,192,11
00003da6 10            10879 	.byte	16
00003da7 03            10880 	.byte	3
00003da8 10            10881 	.byte	16
00003da9 00            10882 	.byte	0
00003daa 00            10883 	.byte	0
00003dab 00            10884 	.byte	0
00003dac 00            10885 	.byte	0
00003dad 01            10886 	.byte	1
00003dae 00            10887 	.byte	0
00003daf 01            10888 	.byte	1
                       10889 
                       10890 	.section	.debug_frame
                       10891 .LDW_4d2c760:
00000444 00000000*     10892 	.word	.LDW_unq_30-.LDW_unq_2f
                       10893 .LDW_unq_2f:
00000448 00000000*     10894 	.word	.LDW_4c03450
0000044c 00000000*     10895 	.word	_DCM_MessageUpdateMultiplex_47..C.3A.5C_ECU2.5CECU_Rivian_A1.5CTarget.5Crepo_projects.5CpRealEcu.5CcL_LATEST.5Cmake.5Coutput.5Cobjects.5CSwcApplTpms_DevCanMessages.
00000450 00000000*     10896 	.word	___ghs_eofn_DCM_MessageUpdateMultiplex_47-_DCM_MessageUpdateMultiplex_47..C.3A.5C_ECU2.5CECU_Rivian_A1.5CTarget.5Crepo_projects.5CpRealEcu.5CcL_LATEST.5Cmake.5Coutput.5Cobjects.5CSwcApplTpms_DevCanMessages.
00000454 44            10897 	.byte	68
00000455 9f            10898 	.byte	159
00000456 00            10899 	.byte	0
00000457 40            10900 	.byte	64
00000458 9d            10901 	.byte	157
00000459 04            10902 	.byte	4
0000045a 40            10903 	.byte	64
0000045b 9c            10904 	.byte	156
0000045c 08            10905 	.byte	8
0000045d 40            10906 	.byte	64
0000045e 9b            10907 	.byte	155
0000045f 0c            10908 	.byte	12
00000460 01            10909 	.byte	1

                                                                      Page 209
                                                              C:\Users\nhuliyap\AppData\Local\Temp\gh_00006601.s
00000461 00000000*     10910 	.word	.LDW16
00000465 44            10911 	.byte	68
00000466 df            10912 	.byte	223
00000467 40            10913 	.byte	64
00000468 dd            10914 	.byte	221
00000469 40            10915 	.byte	64
0000046a dc            10916 	.byte	220
0000046b 40            10917 	.byte	64
0000046c db            10918 	.byte	219
0000046d 00            10919 	.byte	0
0000046e 00            10920 	.byte	0
0000046f 00            10921 	.byte	0
                       10922 .LDW_unq_30:
                       10923 	.section	.debug_line
0000084a 000502        10924 	.byte	0,5,2
0000084d 00000000*     10925 	.word	_DCM_MessageUpdateMultiplex_47..C.3A.5C_ECU2.5CECU_Rivian_A1.5CTarget.5Crepo_projects.5CpRealEcu.5CcL_LATEST.5Cmake.5Coutput.5Cobjects.5CSwcApplTpms_DevCanMessages.
00000851 03            10926 	.byte	3
00000852 9605          10927 	.byte	150,5
00000854 02            10928 	.byte	2
00000855 00            10929 	.byte	0
00000856 01            10930 	.byte	1
00000857 06            10931 	.byte	6
00000858 000502        10932 	.byte	0,5,2
0000085b 00000000*     10933 	.word	.LDWlin117
0000085f 0b            10934 	.byte	11
00000860 3b            10935 	.byte	59
00000861 000502        10936 	.byte	0,5,2
00000864 00000000*     10937 	.word	.LDWlin118
00000868 0b            10938 	.byte	11
00000869 000502        10939 	.byte	0,5,2
0000086c 00000000*     10940 	.word	.LDWlin119
00000870 0b            10941 	.byte	11
00000871 000502        10942 	.byte	0,5,2
00000874 00000000*     10943 	.word	.LDWlin120
00000878 0c            10944 	.byte	12
00000879 53            10945 	.byte	83
0000087a 02            10946 	.byte	2
0000087b 04            10947 	.byte	4
0000087c 000101        10948 	.byte	0,1,1
                       10949 	.section	.debug_info
                       10950 .LDW_28ac810:
00003db0 0f            10951 	.byte	15
00003db1 55385f436667  10952 	.strz	"U8_CfgArrPosition"
00003db7 417272506f73 
00003dbd 6974696f6e00 
00003dc3 9605          10953 	.byte	150,5
00003dc5 31            10954 	.byte	49
00003dc6 01            10955 	.byte	1
00003dc7 00000000*     10956 	.word	.LDW_28a9ed8
00003dcb 00            10957 	.byte	0
00003dcc 016b          10958 	.byte	1,107
                       10959 
                       10960 .LDW_4c39128:
00003dce 1d            10961 	.byte	29
00003dcf 00000000*     10962 	.word	.LDW06
00003dd3 00000000*     10963 	.word	.LDW16
                       10964 
00003dd7 00            10965 	.byte	0
                       10966 
00003dd8 00            10967 	.byte	0
                       10968 

                                                                      Page 210
                                                              C:\Users\nhuliyap\AppData\Local\Temp\gh_00006601.s
                       10969 .LDW_4c3a398:
00003dd9 13            10970 	.byte	19
00003dda 44434d5f4576  10971 	.strz	"DCM_EventDataUpdateOnRx"
00003de0 656e74446174 
00003de6 615570646174 
00003dec 654f6e527800 
00003df2 a005          10972 	.byte	160,5
00003df4 06            10973 	.byte	6
00003df5 01            10974 	.byte	1
00003df6 00000000*     10975 	.word	_DCM_EventDataUpdateOnRx
00003dfa 00000000*     10976 	.word	___ghs_eofn_DCM_EventDataUpdateOnRx
00003dfe 0153          10977 	.byte	1,83
00003e00 02            10978 	.byte	2
00003e01 00            10979 	.byte	0
00003e02 02            10980 	.byte	2
00003e03 00            10981 	.byte	0
00003e04 00            10982 	.byte	0
00003e05 00            10983 	.byte	0
00003e06 00            10984 	.byte	0
00003e07 01            10985 	.byte	1
00003e08 01            10986 	.byte	1
00003e09 00            10987 	.byte	0
00003e0a 01            10988 	.byte	1
                       10989 
                       10990 	.section	.debug_frame
                       10991 .LDW_4d2bfe0:
00000470 00000000*     10992 	.word	.LDW_unq_32-.LDW_unq_31
                       10993 .LDW_unq_31:
00000474 00000000*     10994 	.word	.LDW_4c03450
00000478 00000000*     10995 	.word	_DCM_EventDataUpdateOnRx
0000047c 00000000*     10996 	.word	___ghs_eofn_DCM_EventDataUpdateOnRx-_DCM_EventDataUpdateOnRx
00000480 01            10997 	.byte	1
00000481 00000000*     10998 	.word	.LDW96
00000485 00            10999 	.byte	0
00000486 00            11000 	.byte	0
00000487 00            11001 	.byte	0
                       11002 .LDW_unq_32:
                       11003 	.section	.debug_line
0000087f 000502        11004 	.byte	0,5,2
00000882 00000000*     11005 	.word	_DCM_EventDataUpdateOnRx
00000886 06            11006 	.byte	6
00000887 03            11007 	.byte	3
00000888 a005          11008 	.byte	160,5
0000088a 02            11009 	.byte	2
0000088b 00            11010 	.byte	0
0000088c 01            11011 	.byte	1
0000088d 02            11012 	.byte	2
0000088e 04            11013 	.byte	4
0000088f 000101        11014 	.byte	0,1,1
                       11015 	.section	.debug_info
                       11016 .LDW_4c39488:
00003e0b 1d            11017 	.byte	29
00003e0c 00000000*     11018 	.word	.LDW86
00003e10 00000000*     11019 	.word	.LDW96
                       11020 
00003e14 00            11021 	.byte	0
                       11022 
00003e15 00            11023 	.byte	0
                       11024 
                       11025 .LDW_4c3a430:
00003e16 13            11026 	.byte	19

                                                                      Page 211
                                                              C:\Users\nhuliyap\AppData\Local\Temp\gh_00006601.s
00003e17 44434d5f4576  11027 	.strz	"DCM_EventDataPutToQueue"
00003e1d 656e74446174 
00003e23 61507574546f 
00003e29 517565756500 
00003e2f a405          11028 	.byte	164,5
00003e31 0d            11029 	.byte	13
00003e32 01            11030 	.byte	1
00003e33 00000000*     11031 	.word	_DCM_EventDataPutToQueue..C.3A.5C_ECU2.5CECU_Rivian_A1.5CTarget.5Crepo_projects.5CpRealEcu.5CcL_LATEST.5Cmake.5Coutput.5Cobjects.5CSwcApplTpms_DevCanMessages.
00003e37 00000000*     11032 	.word	___ghs_eofn_DCM_EventDataPutToQueue
00003e3b 0153          11033 	.byte	1,83
00003e3d 828080c00b    11034 	.byte	130,128,128,192,11
00003e42 10            11035 	.byte	16
00003e43 03            11036 	.byte	3
00003e44 18            11037 	.byte	24
00003e45 00            11038 	.byte	0
00003e46 00            11039 	.byte	0
00003e47 00            11040 	.byte	0
00003e48 00            11041 	.byte	0
00003e49 01            11042 	.byte	1
00003e4a 00            11043 	.byte	0
00003e4b 01            11044 	.byte	1
                       11045 
                       11046 	.section	.debug_frame
                       11047 .LDW_4d2c7a0:
00000488 00000000*     11048 	.word	.LDW_unq_34-.LDW_unq_33
                       11049 .LDW_unq_33:
0000048c 00000000*     11050 	.word	.LDW_4c03450
00000490 00000000*     11051 	.word	_DCM_EventDataPutToQueue..C.3A.5C_ECU2.5CECU_Rivian_A1.5CTarget.5Crepo_projects.5CpRealEcu.5CcL_LATEST.5Cmake.5Coutput.5Cobjects.5CSwcApplTpms_DevCanMessages.
00000494 00000000*     11052 	.word	___ghs_eofn_DCM_EventDataPutToQueue-_DCM_EventDataPutToQueue..C.3A.5C_ECU2.5CECU_Rivian_A1.5CTarget.5Crepo_projects.5CpRealEcu.5CcL_LATEST.5Cmake.5Coutput.5Cobjects.5CSwcApplTpms_DevCanMessages.
00000498 44            11053 	.byte	68
00000499 9f            11054 	.byte	159
0000049a 06            11055 	.byte	6
0000049b 40            11056 	.byte	64
0000049c 9d            11057 	.byte	157
0000049d 0a            11058 	.byte	10
0000049e 40            11059 	.byte	64
0000049f 9c            11060 	.byte	156
000004a0 0e            11061 	.byte	14
000004a1 40            11062 	.byte	64
000004a2 9b            11063 	.byte	155
000004a3 12            11064 	.byte	18
000004a4 01            11065 	.byte	1
000004a5 00000000*     11066 	.word	.LDW76
000004a9 00            11067 	.byte	0
000004aa 00            11068 	.byte	0
000004ab 00            11069 	.byte	0
                       11070 .LDW_unq_34:
                       11071 	.section	.debug_line
00000892 000502        11072 	.byte	0,5,2
00000895 00000000*     11073 	.word	_DCM_EventDataPutToQueue..C.3A.5C_ECU2.5CECU_Rivian_A1.5CTarget.5Crepo_projects.5CpRealEcu.5CcL_LATEST.5Cmake.5Coutput.5Cobjects.5CSwcApplTpms_DevCanMessages.
00000899 03            11074 	.byte	3
0000089a a305          11075 	.byte	163,5
0000089c 02            11076 	.byte	2
0000089d 00            11077 	.byte	0
0000089e 01            11078 	.byte	1
0000089f 06            11079 	.byte	6
000008a0 1c            11080 	.byte	28
000008a1 000502        11081 	.byte	0,5,2
000008a4 00000000*     11082 	.word	.LDWlin126
000008a8 0b            11083 	.byte	11
000008a9 0b            11084 	.byte	11

                                                                      Page 212
                                                              C:\Users\nhuliyap\AppData\Local\Temp\gh_00006601.s
000008aa 02            11085 	.byte	2
000008ab 02            11086 	.byte	2
000008ac 000502        11087 	.byte	0,5,2
000008af 00000000*     11088 	.word	.LDWlin127
000008b3 0c            11089 	.byte	12
000008b4 000502        11090 	.byte	0,5,2
000008b7 00000000*     11091 	.word	.LDWlin128
000008bb 0c            11092 	.byte	12
000008bc 000502        11093 	.byte	0,5,2
000008bf 00000000*     11094 	.word	.LDWlin129
000008c3 03            11095 	.byte	3
000008c4 7c            11096 	.byte	124
000008c5 02            11097 	.byte	2
000008c6 00            11098 	.byte	0
000008c7 01            11099 	.byte	1
000008c8 000502        11100 	.byte	0,5,2
000008cb 00000000*     11101 	.word	.LDWlin130
000008cf 03            11102 	.byte	3
000008d0 05            11103 	.byte	5
000008d1 02            11104 	.byte	2
000008d2 00            11105 	.byte	0
000008d3 01            11106 	.byte	1
000008d4 0b            11107 	.byte	11
000008d5 0b            11108 	.byte	11
000008d6 0c            11109 	.byte	12
000008d7 02            11110 	.byte	2
000008d8 00            11111 	.byte	0
000008d9 0b            11112 	.byte	11
000008da 02            11113 	.byte	2
000008db 04            11114 	.byte	4
000008dc 000101        11115 	.byte	0,1,1
                       11116 	.section	.debug_info
                       11117 .LDW_4c39188:
00003e4c 1d            11118 	.byte	29
00003e4d 00000000*     11119 	.word	.LDW66
00003e51 00000000*     11120 	.word	.LDW76
                       11121 
                       11122 .LDW_28ac8c0:
00003e55 04            11123 	.byte	4
00003e56 55385f4c6f63  11124 	.strz	"U8_LocalCnt"
00003e5c 616c436e7400 
00003e62 a505          11125 	.byte	165,5
00003e64 09            11126 	.byte	9
00003e65 01            11127 	.byte	1
00003e66 00000000*     11128 	.word	.LDW_28a9ed8
00003e6a 00            11129 	.byte	0
00003e6b 00            11130 	.byte	0
00003e6c 016c          11131 	.byte	1,108
                       11132 
00003e6e 00            11133 	.byte	0
                       11134 
00003e6f 00            11135 	.byte	0
                       11136 
                       11137 .LDW_4c3a138:
00003e70 13            11138 	.byte	19
00003e71 44434d5f4379  11139 	.strz	"DCM_CyclicDebugSystemDataUpdate"
00003e77 636c69634465 
00003e7d 627567537973 
00003e83 74656d446174 
00003e89 615570646174 
00003e8f 6500 

                                                                      Page 213
                                                              C:\Users\nhuliyap\AppData\Local\Temp\gh_00006601.s
00003e91 b405          11140 	.byte	180,5
00003e93 06            11141 	.byte	6
00003e94 01            11142 	.byte	1
00003e95 00000000*     11143 	.word	_DCM_CyclicDebugSystemDataUpdate
00003e99 00000000*     11144 	.word	___ghs_eofn_DCM_CyclicDebugSystemDataUpdate
00003e9d 0153          11145 	.byte	1,83
00003e9f 02            11146 	.byte	2
00003ea0 00            11147 	.byte	0
00003ea1 02            11148 	.byte	2
00003ea2 00            11149 	.byte	0
00003ea3 00            11150 	.byte	0
00003ea4 00            11151 	.byte	0
00003ea5 00            11152 	.byte	0
00003ea6 01            11153 	.byte	1
00003ea7 01            11154 	.byte	1
00003ea8 00            11155 	.byte	0
00003ea9 01            11156 	.byte	1
                       11157 
                       11158 	.section	.debug_frame
                       11159 .LDW_4d2c460:
000004ac 00000000*     11160 	.word	.LDW_unq_36-.LDW_unq_35
                       11161 .LDW_unq_35:
000004b0 00000000*     11162 	.word	.LDW_4c03450
000004b4 00000000*     11163 	.word	_DCM_CyclicDebugSystemDataUpdate
000004b8 00000000*     11164 	.word	___ghs_eofn_DCM_CyclicDebugSystemDataUpdate-_DCM_CyclicDebugSystemDataUpdate
000004bc 01            11165 	.byte	1
000004bd 00000000*     11166 	.word	.LDW77
000004c1 00            11167 	.byte	0
000004c2 00            11168 	.byte	0
000004c3 00            11169 	.byte	0
                       11170 .LDW_unq_36:
                       11171 	.section	.debug_line
000008df 000502        11172 	.byte	0,5,2
000008e2 00000000*     11173 	.word	_DCM_CyclicDebugSystemDataUpdate
000008e6 06            11174 	.byte	6
000008e7 03            11175 	.byte	3
000008e8 b405          11176 	.byte	180,5
000008ea 02            11177 	.byte	2
000008eb 00            11178 	.byte	0
000008ec 01            11179 	.byte	1
000008ed 02            11180 	.byte	2
000008ee 04            11181 	.byte	4
000008ef 000101        11182 	.byte	0,1,1
                       11183 	.section	.debug_info
                       11184 .LDW_4c392d8:
00003eaa 1d            11185 	.byte	29
00003eab 00000000*     11186 	.word	.LDW67
00003eaf 00000000*     11187 	.word	.LDW77
                       11188 
00003eb3 00            11189 	.byte	0
                       11190 
00003eb4 00            11191 	.byte	0
                       11192 
                       11193 .LDW_4c3aab8:
00003eb5 13            11194 	.byte	19
00003eb6 44434d5f5379  11195 	.strz	"DCM_SystemDataPutToQueue"
00003ebc 7374656d4461 
00003ec2 746150757454 
00003ec8 6f5175657565 
00003ece 00 
00003ecf b805          11196 	.byte	184,5

                                                                      Page 214
                                                              C:\Users\nhuliyap\AppData\Local\Temp\gh_00006601.s
00003ed1 0d            11197 	.byte	13
00003ed2 01            11198 	.byte	1
00003ed3 00000000*     11199 	.word	_DCM_SystemDataPutToQueue..C.3A.5C_ECU2.5CECU_Rivian_A1.5CTarget.5Crepo_projects.5CpRealEcu.5CcL_LATEST.5Cmake.5Coutput.5Cobjects.5CSwcApplTpms_DevCanMessages.
00003ed7 00000000*     11200 	.word	___ghs_eofn_DCM_SystemDataPutToQueue
00003edb 0153          11201 	.byte	1,83
00003edd 828080c00b    11202 	.byte	130,128,128,192,11
00003ee2 10            11203 	.byte	16
00003ee3 03            11204 	.byte	3
00003ee4 18            11205 	.byte	24
00003ee5 00            11206 	.byte	0
00003ee6 00            11207 	.byte	0
00003ee7 00            11208 	.byte	0
00003ee8 00            11209 	.byte	0
00003ee9 01            11210 	.byte	1
00003eea 00            11211 	.byte	0
00003eeb 01            11212 	.byte	1
                       11213 
                       11214 	.section	.debug_frame
                       11215 .LDW_4d2c360:
000004c4 00000000*     11216 	.word	.LDW_unq_38-.LDW_unq_37
                       11217 .LDW_unq_37:
000004c8 00000000*     11218 	.word	.LDW_4c03450
000004cc 00000000*     11219 	.word	_DCM_SystemDataPutToQueue..C.3A.5C_ECU2.5CECU_Rivian_A1.5CTarget.5Crepo_projects.5CpRealEcu.5CcL_LATEST.5Cmake.5Coutput.5Cobjects.5CSwcApplTpms_DevCanMessages.
000004d0 00000000*     11220 	.word	___ghs_eofn_DCM_SystemDataPutToQueue-_DCM_SystemDataPutToQueue..C.3A.5C_ECU2.5CECU_Rivian_A1.5CTarget.5Crepo_projects.5CpRealEcu.5CcL_LATEST.5Cmake.5Coutput.5Cobjects.5CSwcApplTpms_DevCanMessages.
000004d4 44            11221 	.byte	68
000004d5 9f            11222 	.byte	159
000004d6 06            11223 	.byte	6
000004d7 40            11224 	.byte	64
000004d8 9d            11225 	.byte	157
000004d9 0a            11226 	.byte	10
000004da 40            11227 	.byte	64
000004db 9c            11228 	.byte	156
000004dc 0e            11229 	.byte	14
000004dd 40            11230 	.byte	64
000004de 9b            11231 	.byte	155
000004df 12            11232 	.byte	18
000004e0 01            11233 	.byte	1
000004e1 00000000*     11234 	.word	.LDW57
000004e5 00            11235 	.byte	0
000004e6 00            11236 	.byte	0
000004e7 00            11237 	.byte	0
                       11238 .LDW_unq_38:
                       11239 	.section	.debug_line
000008f2 000502        11240 	.byte	0,5,2
000008f5 00000000*     11241 	.word	_DCM_SystemDataPutToQueue..C.3A.5C_ECU2.5CECU_Rivian_A1.5CTarget.5Crepo_projects.5CpRealEcu.5CcL_LATEST.5Cmake.5Coutput.5Cobjects.5CSwcApplTpms_DevCanMessages.
000008f9 03            11242 	.byte	3
000008fa b705          11243 	.byte	183,5
000008fc 02            11244 	.byte	2
000008fd 00            11245 	.byte	0
000008fe 01            11246 	.byte	1
000008ff 06            11247 	.byte	6
00000900 1c            11248 	.byte	28
00000901 000502        11249 	.byte	0,5,2
00000904 00000000*     11250 	.word	.LDWlin136
00000908 0b            11251 	.byte	11
00000909 0b            11252 	.byte	11
0000090a 02            11253 	.byte	2
0000090b 02            11254 	.byte	2
0000090c 000502        11255 	.byte	0,5,2
0000090f 00000000*     11256 	.word	.LDWlin137
00000913 0c            11257 	.byte	12

                                                                      Page 215
                                                              C:\Users\nhuliyap\AppData\Local\Temp\gh_00006601.s
00000914 000502        11258 	.byte	0,5,2
00000917 00000000*     11259 	.word	.LDWlin138
0000091b 0b            11260 	.byte	11
0000091c 000502        11261 	.byte	0,5,2
0000091f 00000000*     11262 	.word	.LDWlin139
00000923 03            11263 	.byte	3
00000924 7d            11264 	.byte	125
00000925 02            11265 	.byte	2
00000926 00            11266 	.byte	0
00000927 01            11267 	.byte	1
00000928 000502        11268 	.byte	0,5,2
0000092b 00000000*     11269 	.word	.LDWlin140
0000092f 03            11270 	.byte	3
00000930 04            11271 	.byte	4
00000931 02            11272 	.byte	2
00000932 00            11273 	.byte	0
00000933 01            11274 	.byte	1
00000934 0b            11275 	.byte	11
00000935 0b            11276 	.byte	11
00000936 0c            11277 	.byte	12
00000937 02            11278 	.byte	2
00000938 00            11279 	.byte	0
00000939 0b            11280 	.byte	11
0000093a 02            11281 	.byte	2
0000093b 04            11282 	.byte	4
0000093c 000101        11283 	.byte	0,1,1
                       11284 	.section	.debug_info
                       11285 .LDW_4c393c8:
00003eec 1d            11286 	.byte	29
00003eed 00000000*     11287 	.word	.LDW47
00003ef1 00000000*     11288 	.word	.LDW57
                       11289 
                       11290 .LDW_28ac658:
00003ef5 04            11291 	.byte	4
00003ef6 55385f4c6f63  11292 	.strz	"U8_LocalCnt"
00003efc 616c436e7400 
00003f02 b905          11293 	.byte	185,5
00003f04 09            11294 	.byte	9
00003f05 01            11295 	.byte	1
00003f06 00000000*     11296 	.word	.LDW_28a9ed8
00003f0a 00            11297 	.byte	0
00003f0b 00            11298 	.byte	0
00003f0c 016c          11299 	.byte	1,108
                       11300 
00003f0e 00            11301 	.byte	0
                       11302 
00003f0f 00            11303 	.byte	0
                       11304 
                       11305 .LDW_4c3a988:
00003f10 14            11306 	.byte	20
00003f11 44434d5f496e  11307 	.strz	"DCM_InvIf_PressRefCurrIDGetValue"
00003f17 7649665f5072 
00003f1d 657373526566 
00003f23 437572724944 
00003f29 47657456616c 
00003f2f 756500 
00003f32 c705          11308 	.byte	199,5
00003f34 07            11309 	.byte	7
00003f35 01            11310 	.byte	1
00003f36 00000000*     11311 	.word	.LDW_28a9ed8
00003f3a 00000000*     11312 	.word	_DCM_InvIf_PressRefCurrIDGetValue

                                                                      Page 216
                                                              C:\Users\nhuliyap\AppData\Local\Temp\gh_00006601.s
00003f3e 00000000*     11313 	.word	___ghs_eofn_DCM_InvIf_PressRefCurrIDGetValue
00003f42 0153          11314 	.byte	1,83
00003f44 8280808008    11315 	.byte	130,128,128,128,8
00003f49 04            11316 	.byte	4
00003f4a 03            11317 	.byte	3
00003f4b 04            11318 	.byte	4
00003f4c 00            11319 	.byte	0
00003f4d 00            11320 	.byte	0
00003f4e 00            11321 	.byte	0
00003f4f 01            11322 	.byte	1
00003f50 01            11323 	.byte	1
00003f51 00            11324 	.byte	0
00003f52 01            11325 	.byte	1
                       11326 
                       11327 	.section	.debug_abbrev
0000015e 14            11328 	.byte	20
0000015f 2e            11329 	.byte	46
00000160 01            11330 	.byte	1
00000161 0308          11331 	.byte	3,8
00000163 3b0f          11332 	.byte	59,15
00000165 390f          11333 	.byte	57,15
00000167 3a0f          11334 	.byte	58,15
00000169 4910          11335 	.byte	73,16
0000016b 1101          11336 	.byte	17,1
0000016d 1201          11337 	.byte	18,1
0000016f 400a          11338 	.byte	64,10
00000171 8341          11339 	.byte	131,65
00000173 0f            11340 	.byte	15
00000174 8741          11341 	.byte	135,65
00000176 0d            11342 	.byte	13
00000177 8541          11343 	.byte	133,65
00000179 0f            11344 	.byte	15
0000017a 8641          11345 	.byte	134,65
0000017c 0d            11346 	.byte	13
0000017d 9241          11347 	.byte	146,65
0000017f 0f            11348 	.byte	15
00000180 3c0c          11349 	.byte	60,12
00000182 200b          11350 	.byte	32,11
00000184 3f0c          11351 	.byte	63,12
00000186 320b          11352 	.byte	50,11
00000188 4c0b          11353 	.byte	76,11
0000018a 270c          11354 	.byte	39,12
0000018c 0000          11355 	.byte	0,0
                       11356 
                       11357 	.section	.debug_frame
                       11358 .LDW_4c3cd68:
000004e8 00000000*     11359 	.word	.LDW_unq_3a-.LDW_unq_39
                       11360 .LDW_unq_39:
000004ec 00000000*     11361 	.word	.LDW_4c03450
000004f0 00000000*     11362 	.word	_DCM_InvIf_PressRefCurrIDGetValue
000004f4 00000000*     11363 	.word	___ghs_eofn_DCM_InvIf_PressRefCurrIDGetValue-_DCM_InvIf_PressRefCurrIDGetValue
000004f8 44            11364 	.byte	68
000004f9 9f            11365 	.byte	159
000004fa 00            11366 	.byte	0
000004fb 01            11367 	.byte	1
000004fc 00000000*     11368 	.word	.LDW72
00000500 44            11369 	.byte	68
00000501 df            11370 	.byte	223
00000502 00            11371 	.byte	0
00000503 00            11372 	.byte	0
                       11373 .LDW_unq_3a:

                                                                      Page 217
                                                              C:\Users\nhuliyap\AppData\Local\Temp\gh_00006601.s
                       11374 	.section	.debug_line
0000093f 000502        11375 	.byte	0,5,2
00000942 00000000*     11376 	.word	_DCM_InvIf_PressRefCurrIDGetValue
00000946 03            11377 	.byte	3
00000947 c605          11378 	.byte	198,5
00000949 02            11379 	.byte	2
0000094a 00            11380 	.byte	0
0000094b 01            11381 	.byte	1
0000094c 06            11382 	.byte	6
0000094d 1b            11383 	.byte	27
0000094e 06            11384 	.byte	6
0000094f 000502        11385 	.byte	0,5,2
00000952 00000000*     11386 	.word	.LDWlin42
00000956 02            11387 	.byte	2
00000957 00            11388 	.byte	0
00000958 02            11389 	.byte	2
00000959 04            11390 	.byte	4
0000095a 000101        11391 	.byte	0,1,1
                       11392 	.section	.debug_info
                       11393 .LDW_4c393f8:
00003f53 1d            11394 	.byte	29
00003f54 00000000*     11395 	.word	.LDW62
00003f58 00000000*     11396 	.word	.LDW72
                       11397 
00003f5c 00            11398 	.byte	0
                       11399 
00003f5d 00            11400 	.byte	0
                       11401 
                       11402 .LDW_4c3ab50:
00003f5e 14            11403 	.byte	20
00003f5f 44434d5f496e  11404 	.strz	"DCM_InvIf_RfJammerGetStatus"
00003f65 7649665f5266 
00003f6b 4a616d6d6572 
00003f71 476574537461 
00003f77 74757300 
00003f7b cb05          11405 	.byte	203,5
00003f7d 09            11406 	.byte	9
00003f7e 01            11407 	.byte	1
00003f7f 00000000*     11408 	.word	.LDW_28ac5a8
00003f83 00000000*     11409 	.word	_DCM_InvIf_RfJammerGetStatus
00003f87 00000000*     11410 	.word	___ghs_eofn_DCM_InvIf_RfJammerGetStatus
00003f8b 0153          11411 	.byte	1,83
00003f8d 02            11412 	.byte	2
00003f8e 00            11413 	.byte	0
00003f8f 02            11414 	.byte	2
00003f90 00            11415 	.byte	0
00003f91 00            11416 	.byte	0
00003f92 00            11417 	.byte	0
00003f93 00            11418 	.byte	0
00003f94 01            11419 	.byte	1
00003f95 01            11420 	.byte	1
00003f96 00            11421 	.byte	0
00003f97 01            11422 	.byte	1
                       11423 
                       11424 	.section	.debug_frame
                       11425 .LDW_4c3cfa8:
00000504 00000000*     11426 	.word	.LDW_unq_3c-.LDW_unq_3b
                       11427 .LDW_unq_3b:
00000508 00000000*     11428 	.word	.LDW_4c03450
0000050c 00000000*     11429 	.word	_DCM_InvIf_RfJammerGetStatus
00000510 00000000*     11430 	.word	___ghs_eofn_DCM_InvIf_RfJammerGetStatus-_DCM_InvIf_RfJammerGetStatus

                                                                      Page 218
                                                              C:\Users\nhuliyap\AppData\Local\Temp\gh_00006601.s
00000514 01            11431 	.byte	1
00000515 00000000*     11432 	.word	.LDW33
00000519 00            11433 	.byte	0
0000051a 00            11434 	.byte	0
0000051b 00            11435 	.byte	0
                       11436 .LDW_unq_3c:
                       11437 	.section	.debug_line
0000095d 000502        11438 	.byte	0,5,2
00000960 00000000*     11439 	.word	_DCM_InvIf_RfJammerGetStatus
00000964 06            11440 	.byte	6
00000965 03            11441 	.byte	3
00000966 cb05          11442 	.byte	203,5
00000968 02            11443 	.byte	2
00000969 00            11444 	.byte	0
0000096a 01            11445 	.byte	1
0000096b 02            11446 	.byte	2
0000096c 04            11447 	.byte	4
0000096d 000101        11448 	.byte	0,1,1
                       11449 	.section	.debug_info
                       11450 .LDW_4c39548:
00003f98 1d            11451 	.byte	29
00003f99 00000000*     11452 	.word	.LDW23
00003f9d 00000000*     11453 	.word	.LDW33
                       11454 
00003fa1 00            11455 	.byte	0
                       11456 
00003fa2 00            11457 	.byte	0
                       11458 
                       11459 .LDW_4c3a0a0:
00003fa3 14            11460 	.byte	20
00003fa4 44434d5f496e  11461 	.strz	"DCM_InvIf_TempWarnGetStatus"
00003faa 7649665f5465 
00003fb0 6d705761726e 
00003fb6 476574537461 
00003fbc 74757300 
00003fc0 cf05          11462 	.byte	207,5
00003fc2 07            11463 	.byte	7
00003fc3 01            11464 	.byte	1
00003fc4 00000000*     11465 	.word	.LDW_28a9ed8
00003fc8 00000000*     11466 	.word	_DCM_InvIf_TempWarnGetStatus
00003fcc 00000000*     11467 	.word	___ghs_eofn_DCM_InvIf_TempWarnGetStatus
00003fd0 0153          11468 	.byte	1,83
00003fd2 8280808008    11469 	.byte	130,128,128,128,8
00003fd7 04            11470 	.byte	4
00003fd8 03            11471 	.byte	3
00003fd9 04            11472 	.byte	4
00003fda 00            11473 	.byte	0
00003fdb 00            11474 	.byte	0
00003fdc 00            11475 	.byte	0
00003fdd 01            11476 	.byte	1
00003fde 01            11477 	.byte	1
00003fdf 00            11478 	.byte	0
00003fe0 01            11479 	.byte	1
                       11480 
                       11481 	.section	.debug_frame
                       11482 .LDW_4c3ce68:
0000051c 00000000*     11483 	.word	.LDW_unq_3e-.LDW_unq_3d
                       11484 .LDW_unq_3d:
00000520 00000000*     11485 	.word	.LDW_4c03450
00000524 00000000*     11486 	.word	_DCM_InvIf_TempWarnGetStatus
00000528 00000000*     11487 	.word	___ghs_eofn_DCM_InvIf_TempWarnGetStatus-_DCM_InvIf_TempWarnGetStatus

                                                                      Page 219
                                                              C:\Users\nhuliyap\AppData\Local\Temp\gh_00006601.s
0000052c 44            11488 	.byte	68
0000052d 9f            11489 	.byte	159
0000052e 00            11490 	.byte	0
0000052f 01            11491 	.byte	1
00000530 00000000*     11492 	.word	.LDW13
00000534 44            11493 	.byte	68
00000535 df            11494 	.byte	223
00000536 00            11495 	.byte	0
00000537 00            11496 	.byte	0
                       11497 .LDW_unq_3e:
                       11498 	.section	.debug_line
00000970 000502        11499 	.byte	0,5,2
00000973 00000000*     11500 	.word	_DCM_InvIf_TempWarnGetStatus
00000977 03            11501 	.byte	3
00000978 ce05          11502 	.byte	206,5
0000097a 02            11503 	.byte	2
0000097b 00            11504 	.byte	0
0000097c 01            11505 	.byte	1
0000097d 06            11506 	.byte	6
0000097e 1b            11507 	.byte	27
0000097f 06            11508 	.byte	6
00000980 000502        11509 	.byte	0,5,2
00000983 00000000*     11510 	.word	.LDWlin53
00000987 02            11511 	.byte	2
00000988 00            11512 	.byte	0
00000989 02            11513 	.byte	2
0000098a 04            11514 	.byte	4
0000098b 000101        11515 	.byte	0,1,1
                       11516 	.section	.debug_info
                       11517 .LDW_4c39008:
00003fe1 1d            11518 	.byte	29
00003fe2 00000000*     11519 	.word	.LDW03
00003fe6 00000000*     11520 	.word	.LDW13
                       11521 
00003fea 00            11522 	.byte	0
                       11523 
00003feb 00            11524 	.byte	0
                       11525 
                       11526 .LDW_4c3a4c8:
00003fec 13            11527 	.byte	19
00003fed 44434d5f5374  11528 	.strz	"DCM_StoreMaxMultiplexEventNr"
00003ff3 6f72654d6178 
00003ff9 4d756c746970 
00003fff 6c6578457665 
00004005 6e744e7200 
0000400a d305          11529 	.byte	211,5
0000400c 0d            11530 	.byte	13
0000400d 01            11531 	.byte	1
0000400e 00000000*     11532 	.word	_DCM_StoreMaxMultiplexEventNr..C.3A.5C_ECU2.5CECU_Rivian_A1.5CTarget.5Crepo_projects.5CpRealEcu.5CcL_LATEST.5Cmake.5Coutput.5Cobjects.5CSwcApplTpms_DevCanMessages.
00004012 00000000*     11533 	.word	___ghs_eofn_DCM_StoreMaxMultiplexEventNr
00004016 0153          11534 	.byte	1,83
00004018 02            11535 	.byte	2
00004019 00            11536 	.byte	0
0000401a 02            11537 	.byte	2
0000401b 00            11538 	.byte	0
0000401c 00            11539 	.byte	0
0000401d 00            11540 	.byte	0
0000401e 00            11541 	.byte	0
0000401f 00            11542 	.byte	0
00004020 01            11543 	.byte	1
00004021 00            11544 	.byte	0

                                                                      Page 220
                                                              C:\Users\nhuliyap\AppData\Local\Temp\gh_00006601.s
00004022 01            11545 	.byte	1
                       11546 
                       11547 	.section	.debug_frame
                       11548 .LDW_4d2cda0:
00000538 00000000*     11549 	.word	.LDW_unq_40-.LDW_unq_3f
                       11550 .LDW_unq_3f:
0000053c 00000000*     11551 	.word	.LDW_4c03450
00000540 00000000*     11552 	.word	_DCM_StoreMaxMultiplexEventNr..C.3A.5C_ECU2.5CECU_Rivian_A1.5CTarget.5Crepo_projects.5CpRealEcu.5CcL_LATEST.5Cmake.5Coutput.5Cobjects.5CSwcApplTpms_DevCanMessages.
00000544 00000000*     11553 	.word	___ghs_eofn_DCM_StoreMaxMultiplexEventNr-_DCM_StoreMaxMultiplexEventNr..C.3A.5C_ECU2.5CECU_Rivian_A1.5CTarget.5Crepo_projects.5CpRealEcu.5CcL_LATEST.5Cmake.5Coutput.5Cobjects.5CSwcApplTpms_DevCanMessages.
00000548 01            11554 	.byte	1
00000549 00000000*     11555 	.word	.LDW36
0000054d 00            11556 	.byte	0
0000054e 00            11557 	.byte	0
0000054f 00            11558 	.byte	0
                       11559 .LDW_unq_40:
                       11560 	.section	.debug_line
0000098e 000502        11561 	.byte	0,5,2
00000991 00000000*     11562 	.word	_DCM_StoreMaxMultiplexEventNr..C.3A.5C_ECU2.5CECU_Rivian_A1.5CTarget.5Crepo_projects.5CpRealEcu.5CcL_LATEST.5Cmake.5Coutput.5Cobjects.5CSwcApplTpms_DevCanMessages.
00000995 03            11563 	.byte	3
00000996 d305          11564 	.byte	211,5
00000998 02            11565 	.byte	2
00000999 00            11566 	.byte	0
0000099a 01            11567 	.byte	1
0000099b 06            11568 	.byte	6
0000099c 000502        11569 	.byte	0,5,2
0000099f 00000000*     11570 	.word	.LDWlin121
000009a3 0b            11571 	.byte	11
000009a4 000502        11572 	.byte	0,5,2
000009a7 00000000*     11573 	.word	.LDWlin122
000009ab 0b            11574 	.byte	11
000009ac 0b            11575 	.byte	11
000009ad 1b            11576 	.byte	27
000009ae 0b            11577 	.byte	11
000009af 02            11578 	.byte	2
000009b0 00            11579 	.byte	0
000009b1 02            11580 	.byte	2
000009b2 00            11581 	.byte	0
000009b3 0b            11582 	.byte	11
000009b4 02            11583 	.byte	2
000009b5 02            11584 	.byte	2
000009b6 000101        11585 	.byte	0,1,1
                       11586 	.section	.debug_info
                       11587 .LDW_28ac918:
00004023 0f            11588 	.byte	15
00004024 55385f437572  11589 	.strz	"U8_CurrentMultiplexNr"
0000402a 72656e744d75 
00004030 6c7469706c65 
00004036 784e7200 
0000403a d305          11590 	.byte	211,5
0000403c 30            11591 	.byte	48
0000403d 01            11592 	.byte	1
0000403e 00000000*     11593 	.word	.LDW_28a9ed8
00004042 00            11594 	.byte	0
00004043 0156          11595 	.byte	1,86
                       11596 
                       11597 .LDW_4c392a8:
00004045 1d            11598 	.byte	29
00004046 00000000*     11599 	.word	.LDW26
0000404a 00000000*     11600 	.word	.LDW36
                       11601 
0000404e 00            11602 	.byte	0

                                                                      Page 221
                                                              C:\Users\nhuliyap\AppData\Local\Temp\gh_00006601.s
                       11603 
0000404f 00            11604 	.byte	0
                       11605 
                       11606 .LDW_4c3ad18:
00004050 13            11607 	.byte	19
00004051 44434d5f5374  11608 	.strz	"DCM_StoreMaxMultiplexSystemNr"
00004057 6f72654d6178 
0000405d 4d756c746970 
00004063 6c6578537973 
00004069 74656d4e7200 
0000406f dc05          11609 	.byte	220,5
00004071 0d            11610 	.byte	13
00004072 01            11611 	.byte	1
00004073 00000000*     11612 	.word	_DCM_StoreMaxMultiplexSystemNr..C.3A.5C_ECU2.5CECU_Rivian_A1.5CTarget.5Crepo_projects.5CpRealEcu.5CcL_LATEST.5Cmake.5Coutput.5Cobjects.5CSwcApplTpms_DevCanMessages.
00004077 00000000*     11613 	.word	___ghs_eofn_DCM_StoreMaxMultiplexSystemNr
0000407b 0153          11614 	.byte	1,83
0000407d 02            11615 	.byte	2
0000407e 00            11616 	.byte	0
0000407f 02            11617 	.byte	2
00004080 00            11618 	.byte	0
00004081 00            11619 	.byte	0
00004082 00            11620 	.byte	0
00004083 00            11621 	.byte	0
00004084 00            11622 	.byte	0
00004085 01            11623 	.byte	1
00004086 00            11624 	.byte	0
00004087 01            11625 	.byte	1
                       11626 
                       11627 	.section	.debug_frame
                       11628 .LDW_4d2c2a0:
00000550 00000000*     11629 	.word	.LDW_unq_42-.LDW_unq_41
                       11630 .LDW_unq_41:
00000554 00000000*     11631 	.word	.LDW_4c03450
00000558 00000000*     11632 	.word	_DCM_StoreMaxMultiplexSystemNr..C.3A.5C_ECU2.5CECU_Rivian_A1.5CTarget.5Crepo_projects.5CpRealEcu.5CcL_LATEST.5Cmake.5Coutput.5Cobjects.5CSwcApplTpms_DevCanMessages.
0000055c 00000000*     11633 	.word	___ghs_eofn_DCM_StoreMaxMultiplexSystemNr-_DCM_StoreMaxMultiplexSystemNr..C.3A.5C_ECU2.5CECU_Rivian_A1.5CTarget.5Crepo_projects.5CpRealEcu.5CcL_LATEST.5Cmake.5Coutput.5Cobjects.5CSwcApplTpms_DevCanMessages.
00000560 01            11634 	.byte	1
00000561 00000000*     11635 	.word	.LDW17
00000565 00            11636 	.byte	0
00000566 00            11637 	.byte	0
00000567 00            11638 	.byte	0
                       11639 .LDW_unq_42:
                       11640 	.section	.debug_line
000009b9 000502        11641 	.byte	0,5,2
000009bc 00000000*     11642 	.word	_DCM_StoreMaxMultiplexSystemNr..C.3A.5C_ECU2.5CECU_Rivian_A1.5CTarget.5Crepo_projects.5CpRealEcu.5CcL_LATEST.5Cmake.5Coutput.5Cobjects.5CSwcApplTpms_DevCanMessages.
000009c0 03            11643 	.byte	3
000009c1 dc05          11644 	.byte	220,5
000009c3 02            11645 	.byte	2
000009c4 00            11646 	.byte	0
000009c5 01            11647 	.byte	1
000009c6 06            11648 	.byte	6
000009c7 000502        11649 	.byte	0,5,2
000009ca 00000000*     11650 	.word	.LDWlin131
000009ce 0b            11651 	.byte	11
000009cf 000502        11652 	.byte	0,5,2
000009d2 00000000*     11653 	.word	.LDWlin132
000009d6 0b            11654 	.byte	11
000009d7 0b            11655 	.byte	11
000009d8 1b            11656 	.byte	27
000009d9 0b            11657 	.byte	11
000009da 02            11658 	.byte	2
000009db 00            11659 	.byte	0

                                                                      Page 222
                                                              C:\Users\nhuliyap\AppData\Local\Temp\gh_00006601.s
000009dc 02            11660 	.byte	2
000009dd 00            11661 	.byte	0
000009de 0b            11662 	.byte	11
000009df 02            11663 	.byte	2
000009e0 02            11664 	.byte	2
000009e1 000101        11665 	.byte	0,1,1
                       11666 	.section	.debug_info
                       11667 .LDW_28ac970:
00004088 0f            11668 	.byte	15
00004089 55385f437572  11669 	.strz	"U8_CurrentMultiplexNr"
0000408f 72656e744d75 
00004095 6c7469706c65 
0000409b 784e7200 
0000409f dc05          11670 	.byte	220,5
000040a1 31            11671 	.byte	49
000040a2 01            11672 	.byte	1
000040a3 00000000*     11673 	.word	.LDW_28a9ed8
000040a7 00            11674 	.byte	0
000040a8 0156          11675 	.byte	1,86
                       11676 
                       11677 .LDW_4c39038:
000040aa 1d            11678 	.byte	29
000040ab 00000000*     11679 	.word	.LDW07
000040af 00000000*     11680 	.word	.LDW17
                       11681 
000040b3 00            11682 	.byte	0
                       11683 
000040b4 00            11684 	.byte	0
                       11685 
                       11686 .LDW_4c3a7c0:
000040b5 13            11687 	.byte	19
000040b6 44434d5f496e  11688 	.strz	"DCM_InitCanDebug"
000040bc 697443616e44 
000040c2 6562756700 
000040c7 e505          11689 	.byte	229,5
000040c9 06            11690 	.byte	6
000040ca 01            11691 	.byte	1
000040cb 00000000*     11692 	.word	_DCM_InitCanDebug
000040cf 00000000*     11693 	.word	___ghs_eofn_DCM_InitCanDebug
000040d3 0153          11694 	.byte	1,83
000040d5 02            11695 	.byte	2
000040d6 00            11696 	.byte	0
000040d7 02            11697 	.byte	2
000040d8 00            11698 	.byte	0
000040d9 00            11699 	.byte	0
000040da 00            11700 	.byte	0
000040db 00            11701 	.byte	0
000040dc 01            11702 	.byte	1
000040dd 01            11703 	.byte	1
000040de 00            11704 	.byte	0
000040df 01            11705 	.byte	1
                       11706 
                       11707 	.section	.debug_frame
                       11708 .LDW_4d2c060:
00000568 00000000*     11709 	.word	.LDW_unq_44-.LDW_unq_43
                       11710 .LDW_unq_43:
0000056c 00000000*     11711 	.word	.LDW_4c03450
00000570 00000000*     11712 	.word	_DCM_InitCanDebug
00000574 00000000*     11713 	.word	___ghs_eofn_DCM_InitCanDebug-_DCM_InitCanDebug
00000578 01            11714 	.byte	1
00000579 00000000*     11715 	.word	.LDW97

                                                                      Page 223
                                                              C:\Users\nhuliyap\AppData\Local\Temp\gh_00006601.s
0000057d 00            11716 	.byte	0
0000057e 00            11717 	.byte	0
0000057f 00            11718 	.byte	0
                       11719 .LDW_unq_44:
                       11720 	.section	.debug_line
000009e4 000502        11721 	.byte	0,5,2
000009e7 00000000*     11722 	.word	_DCM_InitCanDebug
000009eb 03            11723 	.byte	3
000009ec e405          11724 	.byte	228,5
000009ee 02            11725 	.byte	2
000009ef 00            11726 	.byte	0
000009f0 01            11727 	.byte	1
000009f1 06            11728 	.byte	6
000009f2 000502        11729 	.byte	0,5,2
000009f5 00000000*     11730 	.word	.LDWlin141
000009f9 0c            11731 	.byte	12
000009fa 1b            11732 	.byte	27
000009fb 13            11733 	.byte	19
000009fc 13            11734 	.byte	19
000009fd 13            11735 	.byte	19
000009fe 13            11736 	.byte	19
000009ff 13            11737 	.byte	19
00000a00 15            11738 	.byte	21
00000a01 02            11739 	.byte	2
00000a02 02            11740 	.byte	2
00000a03 0c            11741 	.byte	12
00000a04 03            11742 	.byte	3
00000a05 7e            11743 	.byte	126
00000a06 02            11744 	.byte	2
00000a07 06            11745 	.byte	6
00000a08 01            11746 	.byte	1
00000a09 2d            11747 	.byte	45
00000a0a 0c            11748 	.byte	12
00000a0b 000502        11749 	.byte	0,5,2
00000a0e 00000000*     11750 	.word	.LDWlin142
00000a12 0c            11751 	.byte	12
00000a13 02            11752 	.byte	2
00000a14 02            11753 	.byte	2
00000a15 0c            11754 	.byte	12
00000a16 03            11755 	.byte	3
00000a17 7e            11756 	.byte	126
00000a18 02            11757 	.byte	2
00000a19 0e            11758 	.byte	14
00000a1a 01            11759 	.byte	1
00000a1b 000502        11760 	.byte	0,5,2
00000a1e 00000000*     11761 	.word	.LDWlin143
00000a22 0d            11762 	.byte	13
00000a23 03            11763 	.byte	3
00000a24 7b            11764 	.byte	123
00000a25 02            11765 	.byte	2
00000a26 00            11766 	.byte	0
00000a27 01            11767 	.byte	1
00000a28 03            11768 	.byte	3
00000a29 06            11769 	.byte	6
00000a2a 02            11770 	.byte	2
00000a2b 04            11771 	.byte	4
00000a2c 01            11772 	.byte	1
00000a2d 0b            11773 	.byte	11
00000a2e 000502        11774 	.byte	0,5,2
00000a31 00000000*     11775 	.word	.LDWlin144
00000a35 0c            11776 	.byte	12

                                                                      Page 224
                                                              C:\Users\nhuliyap\AppData\Local\Temp\gh_00006601.s
00000a36 02            11777 	.byte	2
00000a37 02            11778 	.byte	2
00000a38 0c            11779 	.byte	12
00000a39 03            11780 	.byte	3
00000a3a 7e            11781 	.byte	126
00000a3b 02            11782 	.byte	2
00000a3c 0e            11783 	.byte	14
00000a3d 01            11784 	.byte	1
00000a3e 000502        11785 	.byte	0,5,2
00000a41 00000000*     11786 	.word	.LDWlin145
00000a45 0d            11787 	.byte	13
00000a46 03            11788 	.byte	3
00000a47 7b            11789 	.byte	123
00000a48 02            11790 	.byte	2
00000a49 00            11791 	.byte	0
00000a4a 01            11792 	.byte	1
00000a4b 000502        11793 	.byte	0,5,2
00000a4e 00000000*     11794 	.word	.LDWlin146
00000a52 03            11795 	.byte	3
00000a53 06            11796 	.byte	6
00000a54 02            11797 	.byte	2
00000a55 00            11798 	.byte	0
00000a56 01            11799 	.byte	1
00000a57 0b            11800 	.byte	11
00000a58 02            11801 	.byte	2
00000a59 02            11802 	.byte	2
00000a5a 000101        11803 	.byte	0,1,1
                       11804 	.section	.debug_info
                       11805 .LDW_4c390f8:
000040e0 1d            11806 	.byte	29
000040e1 00000000*     11807 	.word	.LDW87
000040e5 00000000*     11808 	.word	.LDW97
                       11809 
                       11810 .LDW_28ac6b0:
000040e9 04            11811 	.byte	4
000040ea 417272617943  11812 	.strz	"ArrayCnt"
000040f0 6e7400 
000040f3 e605          11813 	.byte	230,5
000040f5 0a            11814 	.byte	10
000040f6 01            11815 	.byte	1
000040f7 00000000*     11816 	.word	.LDW_28acbd8
000040fb 00            11817 	.byte	0
000040fc 00            11818 	.byte	0
000040fd 0161          11819 	.byte	1,97
                       11820 
                       11821 .LDW_28ac4f8:
000040ff 04            11822 	.byte	4
00004100 537472756374  11823 	.strz	"StructureCnt"
00004106 757265436e74 
0000410c 00 
0000410d e605          11824 	.byte	230,5
0000410f 13            11825 	.byte	19
00004110 01            11826 	.byte	1
00004111 00000000*     11827 	.word	.LDW_28acbd8
00004115 00            11828 	.byte	0
00004116 00            11829 	.byte	0
00004117 0160          11830 	.byte	1,96
                       11831 
00004119 00            11832 	.byte	0
                       11833 
0000411a 00            11834 	.byte	0

                                                                      Page 225
                                                              C:\Users\nhuliyap\AppData\Local\Temp\gh_00006601.s
                       11835 
                       11836 .LDW_4c3a1d0:
0000411b 13            11837 	.byte	19
0000411c 44434d5f5075  11838 	.strz	"DCM_PutEventData2Buffer"
00004122 744576656e74 
00004128 446174613242 
0000412e 756666657200 
00004134 8506          11839 	.byte	133,6
00004136 0d            11840 	.byte	13
00004137 01            11841 	.byte	1
00004138 00000000*     11842 	.word	_DCM_PutEventData2Buffer..C.3A.5C_ECU2.5CECU_Rivian_A1.5CTarget.5Crepo_projects.5CpRealEcu.5CcL_LATEST.5Cmake.5Coutput.5Cobjects.5CSwcApplTpms_DevCanMessages.
0000413c 00000000*     11843 	.word	___ghs_eofn_DCM_PutEventData2Buffer
00004140 0153          11844 	.byte	1,83
00004142 838080c00b    11845 	.byte	131,128,128,192,11
00004147 20            11846 	.byte	32
00004148 02            11847 	.byte	2
00004149 20            11848 	.byte	32
0000414a 00            11849 	.byte	0
0000414b 00            11850 	.byte	0
0000414c 00            11851 	.byte	0
0000414d 00            11852 	.byte	0
0000414e 01            11853 	.byte	1
0000414f 00            11854 	.byte	0
00004150 01            11855 	.byte	1
                       11856 
                       11857 	.section	.debug_frame
                       11858 .LDW_4d2ce60:
00000580 00000000*     11859 	.word	.LDW_unq_46-.LDW_unq_45
                       11860 .LDW_unq_45:
00000584 00000000*     11861 	.word	.LDW_4c03450
00000588 00000000*     11862 	.word	_DCM_PutEventData2Buffer..C.3A.5C_ECU2.5CECU_Rivian_A1.5CTarget.5Crepo_projects.5CpRealEcu.5CcL_LATEST.5Cmake.5Coutput.5Cobjects.5CSwcApplTpms_DevCanMessages.
0000058c 00000000*     11863 	.word	___ghs_eofn_DCM_PutEventData2Buffer-_DCM_PutEventData2Buffer..C.3A.5C_ECU2.5CECU_Rivian_A1.5CTarget.5Crepo_projects.5CpRealEcu.5CcL_LATEST.5Cmake.5Coutput.5Cobjects.5CSwcApplTpms_DevCanMessages.
00000590 4c            11864 	.byte	76
00000591 9f            11865 	.byte	159
00000592 0c            11866 	.byte	12
00000593 42            11867 	.byte	66
00000594 9b            11868 	.byte	155
00000595 08            11869 	.byte	8
00000596 42            11870 	.byte	66
00000597 9c            11871 	.byte	156
00000598 04            11872 	.byte	4
00000599 42            11873 	.byte	66
0000059a 9d            11874 	.byte	157
0000059b 00            11875 	.byte	0
0000059c 01            11876 	.byte	1
0000059d 00000000*     11877 	.word	.LDW56
000005a1 44            11878 	.byte	68
000005a2 df            11879 	.byte	223
000005a3 42            11880 	.byte	66
000005a4 dd            11881 	.byte	221
000005a5 42            11882 	.byte	66
000005a6 dc            11883 	.byte	220
000005a7 42            11884 	.byte	66
000005a8 db            11885 	.byte	219
000005a9 00            11886 	.byte	0
000005aa 00            11887 	.byte	0
000005ab 00            11888 	.byte	0
                       11889 .LDW_unq_46:
                       11890 	.section	.debug_line
00000a5d 000502        11891 	.byte	0,5,2
00000a60 00000000*     11892 	.word	_DCM_PutEventData2Buffer..C.3A.5C_ECU2.5CECU_Rivian_A1.5CTarget.5Crepo_projects.5CpRealEcu.5CcL_LATEST.5Cmake.5Coutput.5Cobjects.5CSwcApplTpms_DevCanMessages.

                                                                      Page 226
                                                              C:\Users\nhuliyap\AppData\Local\Temp\gh_00006601.s
00000a64 03            11893 	.byte	3
00000a65 8506          11894 	.byte	133,6
00000a67 02            11895 	.byte	2
00000a68 00            11896 	.byte	0
00000a69 01            11897 	.byte	1
00000a6a 06            11898 	.byte	6
00000a6b 53            11899 	.byte	83
00000a6c 000502        11900 	.byte	0,5,2
00000a6f 00000000*     11901 	.word	.LDWlin123
00000a73 0b            11902 	.byte	11
00000a74 0c            11903 	.byte	12
00000a75 000502        11904 	.byte	0,5,2
00000a78 00000000*     11905 	.word	.LDWlin124
00000a7c 0b            11906 	.byte	11
00000a7d 0b            11907 	.byte	11
00000a7e 1b            11908 	.byte	27
00000a7f 02            11909 	.byte	2
00000a80 00            11910 	.byte	0
00000a81 0c            11911 	.byte	12
00000a82 000502        11912 	.byte	0,5,2
00000a85 00000000*     11913 	.word	.LDWlin125
00000a89 0c            11914 	.byte	12
00000a8a 6b            11915 	.byte	107
00000a8b 2c            11916 	.byte	44
00000a8c 0b            11917 	.byte	11
00000a8d 0b            11918 	.byte	11
00000a8e 02            11919 	.byte	2
00000a8f 00            11920 	.byte	0
00000a90 0b            11921 	.byte	11
00000a91 02            11922 	.byte	2
00000a92 10            11923 	.byte	16
00000a93 000101        11924 	.byte	0,1,1
                       11925 	.section	.debug_info
                       11926 .LDW_28ac708:
00004151 0f            11927 	.byte	15
00004152 535f456e7644  11928 	.strz	"S_EnvDataMultiplex"
00004158 6174614d756c 
0000415e 7469706c6578 
00004164 00 
00004165 8506          11929 	.byte	133,6
00004167 33            11930 	.byte	51
00004168 01            11931 	.byte	1
00004169 00000000*     11932 	.word	.LDW_28ac600
0000416d 00            11933 	.byte	0
0000416e 0273          11934 	.byte	2,115
00004170 10            11935 	.byte	16
                       11936 
                       11937 .LDW_4c394b8:
00004171 1d            11938 	.byte	29
00004172 00000000*     11939 	.word	.LDW46
00004176 00000000*     11940 	.word	.LDW56
                       11941 
0000417a 00            11942 	.byte	0
                       11943 
0000417b 00            11944 	.byte	0
                       11945 
                       11946 .LDW_4c3abe8:
0000417c 13            11947 	.byte	19
0000417d 44434d5f5075  11948 	.strz	"DCM_PutSystemData2Buffer"
00004183 745379737465 
00004189 6d4461746132 

                                                                      Page 227
                                                              C:\Users\nhuliyap\AppData\Local\Temp\gh_00006601.s
0000418f 427566666572 
00004195 00 
00004196 9906          11949 	.byte	153,6
00004198 0d            11950 	.byte	13
00004199 01            11951 	.byte	1
0000419a 00000000*     11952 	.word	_DCM_PutSystemData2Buffer..C.3A.5C_ECU2.5CECU_Rivian_A1.5CTarget.5Crepo_projects.5CpRealEcu.5CcL_LATEST.5Cmake.5Coutput.5Cobjects.5CSwcApplTpms_DevCanMessages.
0000419e 00000000*     11953 	.word	___ghs_eofn_DCM_PutSystemData2Buffer
000041a2 0153          11954 	.byte	1,83
000041a4 838080800b    11955 	.byte	131,128,128,128,11
000041a9 1c            11956 	.byte	28
000041aa 02            11957 	.byte	2
000041ab 1c            11958 	.byte	28
000041ac 00            11959 	.byte	0
000041ad 00            11960 	.byte	0
000041ae 00            11961 	.byte	0
000041af 00            11962 	.byte	0
000041b0 01            11963 	.byte	1
000041b1 00            11964 	.byte	0
000041b2 01            11965 	.byte	1
                       11966 
                       11967 	.section	.debug_frame
                       11968 .LDW_4d2c620:
000005ac 00000000*     11969 	.word	.LDW_unq_48-.LDW_unq_47
                       11970 .LDW_unq_47:
000005b0 00000000*     11971 	.word	.LDW_4c03450
000005b4 00000000*     11972 	.word	_DCM_PutSystemData2Buffer..C.3A.5C_ECU2.5CECU_Rivian_A1.5CTarget.5Crepo_projects.5CpRealEcu.5CcL_LATEST.5Cmake.5Coutput.5Cobjects.5CSwcApplTpms_DevCanMessages.
000005b8 00000000*     11973 	.word	___ghs_eofn_DCM_PutSystemData2Buffer-_DCM_PutSystemData2Buffer..C.3A.5C_ECU2.5CECU_Rivian_A1.5CTarget.5Crepo_projects.5CpRealEcu.5CcL_LATEST.5Cmake.5Coutput.5Cobjects.5CSwcApplTpms_DevCanMessages.
000005bc 4c            11974 	.byte	76
000005bd 9f            11975 	.byte	159
000005be 08            11976 	.byte	8
000005bf 42            11977 	.byte	66
000005c0 9c            11978 	.byte	156
000005c1 04            11979 	.byte	4
000005c2 42            11980 	.byte	66
000005c3 9d            11981 	.byte	157
000005c4 00            11982 	.byte	0
000005c5 01            11983 	.byte	1
000005c6 00000000*     11984 	.word	.LDW37
000005ca 44            11985 	.byte	68
000005cb df            11986 	.byte	223
000005cc 42            11987 	.byte	66
000005cd dd            11988 	.byte	221
000005ce 42            11989 	.byte	66
000005cf dc            11990 	.byte	220
                       11991 .LDW_unq_48:
                       11992 	.section	.debug_line
00000a96 000502        11993 	.byte	0,5,2
00000a99 00000000*     11994 	.word	_DCM_PutSystemData2Buffer..C.3A.5C_ECU2.5CECU_Rivian_A1.5CTarget.5Crepo_projects.5CpRealEcu.5CcL_LATEST.5Cmake.5Coutput.5Cobjects.5CSwcApplTpms_DevCanMessages.
00000a9d 03            11995 	.byte	3
00000a9e 9906          11996 	.byte	153,6
00000aa0 02            11997 	.byte	2
00000aa1 00            11998 	.byte	0
00000aa2 01            11999 	.byte	1
00000aa3 06            12000 	.byte	6
00000aa4 4b            12001 	.byte	75
00000aa5 000502        12002 	.byte	0,5,2
00000aa8 00000000*     12003 	.word	.LDWlin133
00000aac 0b            12004 	.byte	11
00000aad 0c            12005 	.byte	12
00000aae 000502        12006 	.byte	0,5,2
00000ab1 00000000*     12007 	.word	.LDWlin134

                                                                      Page 228
                                                              C:\Users\nhuliyap\AppData\Local\Temp\gh_00006601.s
00000ab5 0b            12008 	.byte	11
00000ab6 0b            12009 	.byte	11
00000ab7 1b            12010 	.byte	27
00000ab8 02            12011 	.byte	2
00000ab9 00            12012 	.byte	0
00000aba 0c            12013 	.byte	12
00000abb 000502        12014 	.byte	0,5,2
00000abe 00000000*     12015 	.word	.LDWlin135
00000ac2 0b            12016 	.byte	11
00000ac3 73            12017 	.byte	115
00000ac4 2c            12018 	.byte	44
00000ac5 0b            12019 	.byte	11
00000ac6 0b            12020 	.byte	11
00000ac7 02            12021 	.byte	2
00000ac8 00            12022 	.byte	0
00000ac9 0b            12023 	.byte	11
00000aca 02            12024 	.byte	2
00000acb 0e            12025 	.byte	14
00000acc 000101        12026 	.byte	0,1,1
                       12027 	.section	.debug_info
                       12028 .LDW_28ac760:
000041b3 0f            12029 	.byte	15
000041b4 535f53797344  12030 	.strz	"S_SysDataMultiplex"
000041ba 6174614d756c 
000041c0 7469706c6578 
000041c6 00 
000041c7 9906          12031 	.byte	153,6
000041c9 34            12032 	.byte	52
000041ca 01            12033 	.byte	1
000041cb 00000000*     12034 	.word	.LDW_28ac600
000041cf 00            12035 	.byte	0
000041d0 0273          12036 	.byte	2,115
000041d2 0c            12037 	.byte	12
                       12038 
                       12039 .LDW_4c39338:
000041d3 1d            12040 	.byte	29
000041d4 00000000*     12041 	.word	.LDW27
000041d8 00000000*     12042 	.word	.LDW37
                       12043 
000041dc 00            12044 	.byte	0
                       12045 
000041dd 00            12046 	.byte	0
                       12047 
                       12048 .LDW_4c3ac80:
000041de 13            12049 	.byte	19
000041df 44434d5f4461  12050 	.strz	"DCM_DataToTransmitOnCAN"
000041e5 7461546f5472 
000041eb 616e736d6974 
000041f1 4f6e43414e00 
000041f7 ac06          12051 	.byte	172,6
000041f9 06            12052 	.byte	6
000041fa 01            12053 	.byte	1
000041fb 00000000*     12054 	.word	_DCM_DataToTransmitOnCAN
000041ff 00000000*     12055 	.word	___ghs_eofn_DCM_DataToTransmitOnCAN
00004203 0153          12056 	.byte	1,83
00004205 8280808008    12057 	.byte	130,128,128,128,8
0000420a 04            12058 	.byte	4
0000420b 03            12059 	.byte	3
0000420c 04            12060 	.byte	4
0000420d 00            12061 	.byte	0
0000420e 00            12062 	.byte	0

                                                                      Page 229
                                                              C:\Users\nhuliyap\AppData\Local\Temp\gh_00006601.s
0000420f 00            12063 	.byte	0
00004210 01            12064 	.byte	1
00004211 01            12065 	.byte	1
00004212 00            12066 	.byte	0
00004213 01            12067 	.byte	1
                       12068 
                       12069 	.section	.debug_frame
                       12070 .LDW_4d2c5e0:
000005d0 00000000*     12071 	.word	.LDW_unq_4a-.LDW_unq_49
                       12072 .LDW_unq_49:
000005d4 00000000*     12073 	.word	.LDW_4c03450
000005d8 00000000*     12074 	.word	_DCM_DataToTransmitOnCAN
000005dc 00000000*     12075 	.word	___ghs_eofn_DCM_DataToTransmitOnCAN-_DCM_DataToTransmitOnCAN
000005e0 44            12076 	.byte	68
000005e1 9f            12077 	.byte	159
000005e2 00            12078 	.byte	0
000005e3 01            12079 	.byte	1
000005e4 00000000*     12080 	.word	.LDW78
                       12081 .LDW_unq_4a:
                       12082 	.section	.debug_line
00000acf 000502        12083 	.byte	0,5,2
00000ad2 00000000*     12084 	.word	_DCM_DataToTransmitOnCAN
00000ad6 03            12085 	.byte	3
00000ad7 ac06          12086 	.byte	172,6
00000ad9 02            12087 	.byte	2
00000ada 00            12088 	.byte	0
00000adb 01            12089 	.byte	1
00000adc 06            12090 	.byte	6
00000add 1b            12091 	.byte	27
00000ade 000502        12092 	.byte	0,5,2
00000ae1 00000000*     12093 	.word	.LDWlin151
00000ae5 0b            12094 	.byte	11
00000ae6 0d            12095 	.byte	13
00000ae7 000502        12096 	.byte	0,5,2
00000aea 00000000*     12097 	.word	.LDWlin152
00000aee 0c            12098 	.byte	12
00000aef 000502        12099 	.byte	0,5,2
00000af2 00000000*     12100 	.word	.LDWlin153
00000af6 03            12101 	.byte	3
00000af7 04            12102 	.byte	4
00000af8 02            12103 	.byte	2
00000af9 00            12104 	.byte	0
00000afa 01            12105 	.byte	1
00000afb 02            12106 	.byte	2
00000afc 00            12107 	.byte	0
00000afd 06            12108 	.byte	6
00000afe 03            12109 	.byte	3
00000aff 7f            12110 	.byte	127
00000b00 02            12111 	.byte	2
00000b01 00            12112 	.byte	0
00000b02 01            12113 	.byte	1
00000b03 06            12114 	.byte	6
00000b04 0c            12115 	.byte	12
00000b05 0b            12116 	.byte	11
00000b06 0c            12117 	.byte	12
00000b07 000502        12118 	.byte	0,5,2
00000b0a 00000000*     12119 	.word	.LDWlin154
00000b0e 0b            12120 	.byte	11
00000b0f 02            12121 	.byte	2
00000b10 00            12122 	.byte	0
00000b11 0b            12123 	.byte	11

                                                                      Page 230
                                                              C:\Users\nhuliyap\AppData\Local\Temp\gh_00006601.s
00000b12 02            12124 	.byte	2
00000b13 04            12125 	.byte	4
00000b14 000101        12126 	.byte	0,1,1
                       12127 	.section	.debug_info
                       12128 .LDW_28ac7b8:
00004214 0f            12129 	.byte	15
00004215 737043414e5f  12130 	.strz	"spCAN_Message"
0000421b 4d6573736167 
00004221 6500 
00004223 ac06          12131 	.byte	172,6
00004225 2d            12132 	.byte	45
00004226 01            12133 	.byte	1
00004227 00000000*     12134 	.word	.LDW_4c38bf0
0000422b 00            12135 	.byte	0
0000422c 016d          12136 	.byte	1,109
                       12137 
                       12138 .LDW_4c395a8:
0000422e 1d            12139 	.byte	29
0000422f 00000000*     12140 	.word	.LDW48
00004233 00000000*     12141 	.word	.LDW78
                       12142 
                       12143 .LDW_4c39908:
00004237 1d            12144 	.byte	29
00004238 00000000*     12145 	.word	.LDW58
0000423c 00000000*     12146 	.word	.LDW68
                       12147 
                       12148 .LDW_4c3b2d8:
00004240 05            12149 	.byte	5
00004241 4576656e7444  12150 	.strz	"EventDataReturnValue"
00004247 617461526574 
0000424d 75726e56616c 
00004253 756500 
00004256 b006          12151 	.byte	176,6
00004258 0c            12152 	.byte	12
00004259 01            12153 	.byte	1
0000425a 00000000*     12154 	.word	.LDW_28ac5a8
0000425e 00            12155 	.byte	0
0000425f 00            12156 	.byte	0
                       12157 
                       12158 	.section	.debug_abbrev
0000018e 05            12159 	.byte	5
0000018f 34            12160 	.byte	52
00000190 00            12161 	.byte	0
00000191 0308          12162 	.byte	3,8
00000193 3b0f          12163 	.byte	59,15
00000195 390f          12164 	.byte	57,15
00000197 3a0f          12165 	.byte	58,15
00000199 4910          12166 	.byte	73,16
0000019b 3f0c          12167 	.byte	63,12
0000019d 3c0c          12168 	.byte	60,12
0000019f 0000          12169 	.byte	0,0
                       12170 
                       12171 	.section	.debug_info
00004260 00            12172 	.byte	0
                       12173 
00004261 00            12174 	.byte	0
                       12175 
00004262 00            12176 	.byte	0
                       12177 
                       12178 .LDW_4c3a560:
00004263 14            12179 	.byte	20

                                                                      Page 231
                                                              C:\Users\nhuliyap\AppData\Local\Temp\gh_00006601.s
00004264 44434d5f4576  12180 	.strz	"DCM_EventDataGetFromBuffer"
0000426a 656e74446174 
00004270 614765744672 
00004276 6f6d42756666 
0000427c 657200 
0000427f c006          12181 	.byte	192,6
00004281 10            12182 	.byte	16
00004282 01            12183 	.byte	1
00004283 00000000*     12184 	.word	.LDW_28ac5a8
00004287 00000000*     12185 	.word	_DCM_EventDataGetFromBuffer..C.3A.5C_ECU2.5CECU_Rivian_A1.5CTarget.5Crepo_projects.5CpRealEcu.5CcL_LATEST.5Cmake.5Coutput.5Cobjects.5CSwcApplTpms_DevCanMessages.
0000428b 00000000*     12186 	.word	___ghs_eofn_DCM_EventDataGetFromBuffer
0000428f 0153          12187 	.byte	1,83
00004291 02            12188 	.byte	2
00004292 00            12189 	.byte	0
00004293 02            12190 	.byte	2
00004294 00            12191 	.byte	0
00004295 00            12192 	.byte	0
00004296 00            12193 	.byte	0
00004297 00            12194 	.byte	0
00004298 00            12195 	.byte	0
00004299 01            12196 	.byte	1
0000429a 00            12197 	.byte	0
0000429b 01            12198 	.byte	1
                       12199 
                       12200 	.section	.debug_frame
                       12201 .LDW_4d2c4e0:
000005e8 00000000*     12202 	.word	.LDW_unq_4c-.LDW_unq_4b
                       12203 .LDW_unq_4b:
000005ec 00000000*     12204 	.word	.LDW_4c03450
000005f0 00000000*     12205 	.word	_DCM_EventDataGetFromBuffer..C.3A.5C_ECU2.5CECU_Rivian_A1.5CTarget.5Crepo_projects.5CpRealEcu.5CcL_LATEST.5Cmake.5Coutput.5Cobjects.5CSwcApplTpms_DevCanMessages.
000005f4 00000000*     12206 	.word	___ghs_eofn_DCM_EventDataGetFromBuffer-_DCM_EventDataGetFromBuffer..C.3A.5C_ECU2.5CECU_Rivian_A1.5CTarget.5Crepo_projects.5CpRealEcu.5CcL_LATEST.5Cmake.5Coutput.5Cobjects.5CSwcApplTpms_DevCanMessages.
000005f8 01            12207 	.byte	1
000005f9 00000000*     12208 	.word	.LDW18
000005fd 00            12209 	.byte	0
000005fe 00            12210 	.byte	0
000005ff 00            12211 	.byte	0
                       12212 .LDW_unq_4c:
                       12213 	.section	.debug_line
00000b17 000502        12214 	.byte	0,5,2
00000b1a 00000000*     12215 	.word	_DCM_EventDataGetFromBuffer..C.3A.5C_ECU2.5CECU_Rivian_A1.5CTarget.5Crepo_projects.5CpRealEcu.5CcL_LATEST.5Cmake.5Coutput.5Cobjects.5CSwcApplTpms_DevCanMessages.
00000b1e 03            12216 	.byte	3
00000b1f c006          12217 	.byte	192,6
00000b21 02            12218 	.byte	2
00000b22 00            12219 	.byte	0
00000b23 01            12220 	.byte	1
00000b24 06            12221 	.byte	6
00000b25 000502        12222 	.byte	0,5,2
00000b28 00000000*     12223 	.word	.LDWlin147
00000b2c 0d            12224 	.byte	13
00000b2d 000502        12225 	.byte	0,5,2
00000b30 00000000*     12226 	.word	.LDWlin148
00000b34 0b            12227 	.byte	11
00000b35 0c            12228 	.byte	12
00000b36 1b            12229 	.byte	27
00000b37 0b            12230 	.byte	11
00000b38 1b            12231 	.byte	27
00000b39 0b            12232 	.byte	11
00000b3a 0b            12233 	.byte	11
00000b3b 02            12234 	.byte	2
00000b3c 00            12235 	.byte	0
00000b3d 0c            12236 	.byte	12

                                                                      Page 232
                                                              C:\Users\nhuliyap\AppData\Local\Temp\gh_00006601.s
00000b3e 44            12237 	.byte	68
00000b3f 44            12238 	.byte	68
00000b40 000502        12239 	.byte	0,5,2
00000b43 00000000*     12240 	.word	.LDWlin149
00000b47 0b            12241 	.byte	11
00000b48 0c            12242 	.byte	12
00000b49 0b            12243 	.byte	11
00000b4a 13            12244 	.byte	19
00000b4b 02            12245 	.byte	2
00000b4c 00            12246 	.byte	0
00000b4d 0c            12247 	.byte	12
00000b4e 02            12248 	.byte	2
00000b4f 02            12249 	.byte	2
00000b50 000101        12250 	.byte	0,1,1
                       12251 	.section	.debug_info
                       12252 .LDW_4c3b280:
0000429c 0f            12253 	.byte	15
0000429d 744875664469  12254 	.strz	"tHufDisplay"
000042a3 73706c617900 
000042a9 c006          12255 	.byte	192,6
000042ab 3a            12256 	.byte	58
000042ac 01            12257 	.byte	1
000042ad 00000000*     12258 	.word	.LDW_4c38bf0
000042b1 00            12259 	.byte	0
000042b2 0156          12260 	.byte	1,86
                       12261 
                       12262 .LDW_4c39728:
000042b4 1d            12263 	.byte	29
000042b5 00000000*     12264 	.word	.LDW08
000042b9 00000000*     12265 	.word	.LDW18
                       12266 
                       12267 .LDW_4c3b438:
000042bd 04            12268 	.byte	4
000042be 756352657400  12269 	.strz	"ucRet"
000042c4 c206          12270 	.byte	194,6
000042c6 0b            12271 	.byte	11
000042c7 01            12272 	.byte	1
000042c8 00000000*     12273 	.word	.LDW_28ac5a8
000042cc 00            12274 	.byte	0
000042cd 00            12275 	.byte	0
000042ce 015a          12276 	.byte	1,90
                       12277 
000042d0 00            12278 	.byte	0
                       12279 
000042d1 00            12280 	.byte	0
                       12281 
                       12282 .LDW_4c3aee0:
000042d2 13            12283 	.byte	19
000042d3 44434d5f5379  12284 	.strz	"DCM_SystemDataGetFromBuffer"
000042d9 7374656d4461 
000042df 746147657446 
000042e5 726f6d427566 
000042eb 66657200 
000042ef dc06          12285 	.byte	220,6
000042f1 0d            12286 	.byte	13
000042f2 01            12287 	.byte	1
000042f3 00000000*     12288 	.word	_DCM_SystemDataGetFromBuffer..C.3A.5C_ECU2.5CECU_Rivian_A1.5CTarget.5Crepo_projects.5CpRealEcu.5CcL_LATEST.5Cmake.5Coutput.5Cobjects.5CSwcApplTpms_DevCanMessages.
000042f7 00000000*     12289 	.word	___ghs_eofn_DCM_SystemDataGetFromBuffer
000042fb 0153          12290 	.byte	1,83
000042fd 02            12291 	.byte	2
000042fe 00            12292 	.byte	0

                                                                      Page 233
                                                              C:\Users\nhuliyap\AppData\Local\Temp\gh_00006601.s
000042ff 02            12293 	.byte	2
00004300 00            12294 	.byte	0
00004301 00            12295 	.byte	0
00004302 00            12296 	.byte	0
00004303 00            12297 	.byte	0
00004304 00            12298 	.byte	0
00004305 01            12299 	.byte	1
00004306 00            12300 	.byte	0
00004307 01            12301 	.byte	1
                       12302 
                       12303 	.section	.debug_frame
                       12304 .LDW_4d2bf20:
00000600 00000000*     12305 	.word	.LDW_unq_4e-.LDW_unq_4d
                       12306 .LDW_unq_4d:
00000604 00000000*     12307 	.word	.LDW_4c03450
00000608 00000000*     12308 	.word	_DCM_SystemDataGetFromBuffer..C.3A.5C_ECU2.5CECU_Rivian_A1.5CTarget.5Crepo_projects.5CpRealEcu.5CcL_LATEST.5Cmake.5Coutput.5Cobjects.5CSwcApplTpms_DevCanMessages.
0000060c 00000000*     12309 	.word	___ghs_eofn_DCM_SystemDataGetFromBuffer-_DCM_SystemDataGetFromBuffer..C.3A.5C_ECU2.5CECU_Rivian_A1.5CTarget.5Crepo_projects.5CpRealEcu.5CcL_LATEST.5Cmake.5Coutput.5Cobjects.5CSwcApplTpms_DevCanMessages.
00000610 01            12310 	.byte	1
00000611 00000000*     12311 	.word	.LDW38
00000615 00            12312 	.byte	0
00000616 00            12313 	.byte	0
00000617 00            12314 	.byte	0
                       12315 .LDW_unq_4e:
                       12316 	.section	.debug_line
00000b53 000502        12317 	.byte	0,5,2
00000b56 00000000*     12318 	.word	_DCM_SystemDataGetFromBuffer..C.3A.5C_ECU2.5CECU_Rivian_A1.5CTarget.5Crepo_projects.5CpRealEcu.5CcL_LATEST.5Cmake.5Coutput.5Cobjects.5CSwcApplTpms_DevCanMessages.
00000b5a 03            12319 	.byte	3
00000b5b dc06          12320 	.byte	220,6
00000b5d 02            12321 	.byte	2
00000b5e 00            12322 	.byte	0
00000b5f 01            12323 	.byte	1
00000b60 06            12324 	.byte	6
00000b61 000502        12325 	.byte	0,5,2
00000b64 00000000*     12326 	.word	.LDWlin150
00000b68 0d            12327 	.byte	13
00000b69 1d            12328 	.byte	29
00000b6a 02            12329 	.byte	2
00000b6b 00            12330 	.byte	0
00000b6c 0c            12331 	.byte	12
00000b6d 03            12332 	.byte	3
00000b6e 7c            12333 	.byte	124
00000b6f 02            12334 	.byte	2
00000b70 06            12335 	.byte	6
00000b71 01            12336 	.byte	1
00000b72 0b            12337 	.byte	11
00000b73 03            12338 	.byte	3
00000b74 05            12339 	.byte	5
00000b75 02            12340 	.byte	2
00000b76 16            12341 	.byte	22
00000b77 01            12342 	.byte	1
00000b78 03            12343 	.byte	3
00000b79 06            12344 	.byte	6
00000b7a 02            12345 	.byte	2
00000b7b 0c            12346 	.byte	12
00000b7c 01            12347 	.byte	1
00000b7d 02            12348 	.byte	2
00000b7e 00            12349 	.byte	0
00000b7f 0c            12350 	.byte	12
00000b80 2b            12351 	.byte	43
00000b81 02            12352 	.byte	2
00000b82 02            12353 	.byte	2

                                                                      Page 234
                                                              C:\Users\nhuliyap\AppData\Local\Temp\gh_00006601.s
00000b83 000101        12354 	.byte	0,1,1
                       12355 	.section	.debug_info
                       12356 .LDW_4c3b9b8:
00004308 0f            12357 	.byte	15
00004309 744875664469  12358 	.strz	"tHufDisplay"
0000430f 73706c617900 
00004315 dc06          12359 	.byte	220,6
00004317 38            12360 	.byte	56
00004318 01            12361 	.byte	1
00004319 00000000*     12362 	.word	.LDW_4c38bf0
0000431d 00            12363 	.byte	0
0000431e 0156          12364 	.byte	1,86
                       12365 
                       12366 .LDW_4c398d8:
00004320 1d            12367 	.byte	29
00004321 00000000*     12368 	.word	.LDW28
00004325 00000000*     12369 	.word	.LDW38
                       12370 
00004329 00            12371 	.byte	0
                       12372 
0000432a 00            12373 	.byte	0
                       12374 
0000432b 00            12375 	.byte	0
                       12376 
                       12377 	.section	.debug_line
                       12378 .Ldw_line_end:
                       12379 	.section	.debug_macinfo
00000000 01            12380 	.byte	1
00000001 00            12381 	.byte	0
00000002 5f5f6768735f  12382 	.strz	"__ghs__ 1"
00000008 5f203100 
0000000c 01            12383 	.byte	1
0000000d 00            12384 	.byte	0
0000000e 5f5f4c4c4f4e  12385 	.strz	"__LLONG_BIT 64"
00000014 475f42495420 
0000001a 363400 
0000001d 01            12386 	.byte	1
0000001e 00            12387 	.byte	0
0000001f 494254434d5f  12388 	.strz	"IBTCM_SW_ANPASSUNGEN 1"
00000025 53575f414e50 
0000002b 415353554e47 
00000031 454e203100 
00000036 01            12389 	.byte	1
00000037 00            12390 	.byte	0
00000038 4255494c445f  12391 	.strz	"BUILD_LORDSTOWN 1"
0000003e 4c4f52445354 
00000044 4f574e203100 
0000004a 03            12392 	.byte	3
0000004b 00            12393 	.byte	0
0000004c 01            12394 	.byte	1
0000004d 03            12395 	.byte	3
0000004e 03            12396 	.byte	3
0000004f 02            12397 	.byte	2
00000050 03            12398 	.byte	3
00000051 06            12399 	.byte	6
00000052 03            12400 	.byte	3
00000053 03            12401 	.byte	3
00000054 04            12402 	.byte	4
00000055 04            12403 	.byte	4
00000056 03            12404 	.byte	3
00000057 07            12405 	.byte	7

                                                                      Page 235
                                                              C:\Users\nhuliyap\AppData\Local\Temp\gh_00006601.s
00000058 05            12406 	.byte	5
00000059 03            12407 	.byte	3
0000005a 1c            12408 	.byte	28
0000005b 06            12409 	.byte	6
0000005c 01            12410 	.byte	1
0000005d 3c            12411 	.byte	60
0000005e 545255452031  12412 	.strz	"TRUE 1u"
00000064 7500 
00000066 01            12413 	.byte	1
00000067 40            12414 	.byte	64
00000068 46414c534520  12415 	.strz	"FALSE 0u"
0000006e 307500 
00000071 04            12416 	.byte	4
00000072 03            12417 	.byte	3
00000073 1d            12418 	.byte	29
00000074 07            12419 	.byte	7
00000075 03            12420 	.byte	3
00000076 1b            12421 	.byte	27
00000077 08            12422 	.byte	8
00000078 03            12423 	.byte	3
00000079 54            12424 	.byte	84
0000007a 09            12425 	.byte	9
0000007b 04            12426 	.byte	4
0000007c 04            12427 	.byte	4
0000007d 04            12428 	.byte	4
0000007e 04            12429 	.byte	4
0000007f 04            12430 	.byte	4
00000080 01            12431 	.byte	1
00000081 0e            12432 	.byte	14
00000082 50524f445543  12433 	.strz	"PRODUCTION_SW 0x0"
00000088 54494f4e5f53 
0000008e 572030783000 
00000094 01            12434 	.byte	1
00000095 0f            12435 	.byte	15
00000096 444556454c4f  12436 	.strz	"DEVELOPMENT_SW 0x1"
0000009c 504d454e545f 
000000a2 535720307831 
000000a8 00 
000000a9 01            12437 	.byte	1
000000aa 10            12438 	.byte	16
000000ab 53575f434154  12439 	.strz	"SW_CATEGORY PRODUCTION_SW"
000000b1 45474f525920 
000000b7 50524f445543 
000000bd 54494f4e5f53 
000000c3 5700 
000000c5 04            12440 	.byte	4
000000c6 03            12441 	.byte	3
000000c7 07            12442 	.byte	7
000000c8 0a            12443 	.byte	10
000000c9 01            12444 	.byte	1
000000ca 08            12445 	.byte	8
000000cb 4d41585f5349  12446 	.strz	"MAX_SIZE_WS_TELEGRAM 16U"
000000d1 5a455f57535f 
000000d7 54454c454752 
000000dd 414d20313655 
000000e3 00 
000000e4 01            12447 	.byte	1
000000e5 11            12448 	.byte	17
000000e6 4e564d5f424c  12449 	.strz	"NVM_BLOCK_TYPE uint32"
000000ec 4f434b5f5459 
000000f2 50452075696e 

                                                                      Page 236
                                                              C:\Users\nhuliyap\AppData\Local\Temp\gh_00006601.s
000000f8 74333200 
000000fc 04            12450 	.byte	4
000000fd 01            12451 	.byte	1
000000fe 09            12452 	.byte	9
000000ff 53495a455f41  12453 	.strz	"SIZE_ARRAY(ARRAY_SIZE,STRUCT_SIZE) (uint8) ( sizeof(ARRAY_SIZE) / sizeof(STRUCT_SIZE) )"
00000105 525241592841 
0000010b 525241595f53 
00000111 495a452c5354 
00000117 525543545f53 
0000011d 495a45292028 
00000123 75696e743829 
00000129 20282073697a 
0000012f 656f66284152 
00000135 5241595f5349 
0000013b 5a4529202f20 
00000141 73697a656f66 
00000147 285354525543 
0000014d 545f53495a45 
00000153 29202900 
00000157 01            12454 	.byte	1
00000158 0b            12455 	.byte	11
00000159 44434d5f4d41  12456 	.strz	"DCM_MAX_SIZE_ENV_BUF 248U"
0000015f 585f53495a45 
00000165 5f454e565f42 
0000016b 554620323438 
00000171 5500 
00000173 01            12457 	.byte	1
00000174 10            12458 	.byte	16
00000175 44434d5f4d41  12459 	.strz	"DCM_MAX_SIZE_SYS_BUF 15U"
0000017b 585f53495a45 
00000181 5f5359535f42 
00000187 554620313555 
0000018d 00 
0000018e 01            12460 	.byte	1
0000018f 13            12461 	.byte	19
00000190 44434d5f4d55  12462 	.strz	"DCM_MULTIPLEX_0 0U"
00000196 4c5449504c45 
0000019c 585f30203055 
000001a2 00 
000001a3 01            12463 	.byte	1
000001a4 14            12464 	.byte	20
000001a5 44434d5f4d55  12465 	.strz	"DCM_MULTIPLEX_1 1U"
000001ab 4c5449504c45 
000001b1 585f31203155 
000001b7 00 
000001b8 01            12466 	.byte	1
000001b9 15            12467 	.byte	21
000001ba 44434d5f4d55  12468 	.strz	"DCM_MULTIPLEX_2 2U"
000001c0 4c5449504c45 
000001c6 585f32203255 
000001cc 00 
000001cd 01            12469 	.byte	1
000001ce 16            12470 	.byte	22
000001cf 44434d5f4d55  12471 	.strz	"DCM_MULTIPLEX_3 3U"
000001d5 4c5449504c45 
000001db 585f33203355 
000001e1 00 
000001e2 01            12472 	.byte	1
000001e3 17            12473 	.byte	23
000001e4 44434d5f4d55  12474 	.strz	"DCM_MULTIPLEX_4 4U"
000001ea 4c5449504c45 

                                                                      Page 237
                                                              C:\Users\nhuliyap\AppData\Local\Temp\gh_00006601.s
000001f0 585f34203455 
000001f6 00 
000001f7 01            12475 	.byte	1
000001f8 18            12476 	.byte	24
000001f9 44434d5f4d55  12477 	.strz	"DCM_MULTIPLEX_5 5U"
000001ff 4c5449504c45 
00000205 585f35203555 
0000020b 00 
0000020c 01            12478 	.byte	1
0000020d 27            12479 	.byte	39
0000020e 44434d5f4d55  12480 	.strz	"DCM_MULTIPLEX_20 20U"
00000214 4c5449504c45 
0000021a 585f32302032 
00000220 305500 
00000223 01            12481 	.byte	1
00000224 28            12482 	.byte	40
00000225 44434d5f4d55  12483 	.strz	"DCM_MULTIPLEX_21 21U"
0000022b 4c5449504c45 
00000231 585f32312032 
00000237 315500 
0000023a 01            12484 	.byte	1
0000023b 29            12485 	.byte	41
0000023c 44434d5f4d55  12486 	.strz	"DCM_MULTIPLEX_22 22U"
00000242 4c5449504c45 
00000248 585f32322032 
0000024e 325500 
00000251 01            12487 	.byte	1
00000252 2a            12488 	.byte	42
00000253 44434d5f4d55  12489 	.strz	"DCM_MULTIPLEX_23 23U"
00000259 4c5449504c45 
0000025f 585f32332032 
00000265 335500 
00000268 01            12490 	.byte	1
00000269 2b            12491 	.byte	43
0000026a 44434d5f4d55  12492 	.strz	"DCM_MULTIPLEX_24 24U"
00000270 4c5449504c45 
00000276 585f32342032 
0000027c 345500 
0000027f 01            12493 	.byte	1
00000280 2f            12494 	.byte	47
00000281 44434d5f4d55  12495 	.strz	"DCM_MULTIPLEX_30 30U"
00000287 4c5449504c45 
0000028d 585f33302033 
00000293 305500 
00000296 01            12496 	.byte	1
00000297 30            12497 	.byte	48
00000298 44434d5f4d55  12498 	.strz	"DCM_MULTIPLEX_31 31U"
0000029e 4c5449504c45 
000002a4 585f33312033 
000002aa 315500 
000002ad 01            12499 	.byte	1
000002ae 31            12500 	.byte	49
000002af 44434d5f4d55  12501 	.strz	"DCM_MULTIPLEX_32 32U"
000002b5 4c5449504c45 
000002bb 585f33322033 
000002c1 325500 
000002c4 01            12502 	.byte	1
000002c5 32            12503 	.byte	50
000002c6 44434d5f4d55  12504 	.strz	"DCM_MULTIPLEX_33 33U"
000002cc 4c5449504c45 
000002d2 585f33332033 

                                                                      Page 238
                                                              C:\Users\nhuliyap\AppData\Local\Temp\gh_00006601.s
000002d8 335500 
000002db 01            12505 	.byte	1
000002dc 33            12506 	.byte	51
000002dd 44434d5f4d55  12507 	.strz	"DCM_MULTIPLEX_40 40U"
000002e3 4c5449504c45 
000002e9 585f34302034 
000002ef 305500 
000002f2 01            12508 	.byte	1
000002f3 34            12509 	.byte	52
000002f4 44434d5f4d55  12510 	.strz	"DCM_MULTIPLEX_41 41U"
000002fa 4c5449504c45 
00000300 585f34312034 
00000306 315500 
00000309 01            12511 	.byte	1
0000030a 35            12512 	.byte	53
0000030b 44434d5f4d55  12513 	.strz	"DCM_MULTIPLEX_42 42U"
00000311 4c5449504c45 
00000317 585f34322034 
0000031d 325500 
00000320 01            12514 	.byte	1
00000321 36            12515 	.byte	54
00000322 44434d5f4d55  12516 	.strz	"DCM_MULTIPLEX_43 43U"
00000328 4c5449504c45 
0000032e 585f34332034 
00000334 335500 
00000337 01            12517 	.byte	1
00000338 37            12518 	.byte	55
00000339 44434d5f4d55  12519 	.strz	"DCM_MULTIPLEX_44 44U"
0000033f 4c5449504c45 
00000345 585f34342034 
0000034b 345500 
0000034e 01            12520 	.byte	1
0000034f 38            12521 	.byte	56
00000350 44434d5f4d55  12522 	.strz	"DCM_MULTIPLEX_45 45U"
00000356 4c5449504c45 
0000035c 585f34352034 
00000362 355500 
00000365 01            12523 	.byte	1
00000366 39            12524 	.byte	57
00000367 44434d5f4d55  12525 	.strz	"DCM_MULTIPLEX_46 46U"
0000036d 4c5449504c45 
00000373 585f34362034 
00000379 365500 
0000037c 01            12526 	.byte	1
0000037d 3a            12527 	.byte	58
0000037e 44434d5f4d55  12528 	.strz	"DCM_MULTIPLEX_47 47U"
00000384 4c5449504c45 
0000038a 585f34372034 
00000390 375500 
00000393 04            12529 	.byte	4
00000394 03            12530 	.byte	3
00000395 04            12531 	.byte	4
00000396 0b            12532 	.byte	11
00000397 04            12533 	.byte	4
00000398 03            12534 	.byte	3
00000399 06            12535 	.byte	6
0000039a 0c            12536 	.byte	12
0000039b 03            12537 	.byte	3
0000039c 0a            12538 	.byte	10
0000039d 0d            12539 	.byte	13
0000039e 01            12540 	.byte	1

                                                                      Page 239
                                                              C:\Users\nhuliyap\AppData\Local\Temp\gh_00006601.s
0000039f 0e            12541 	.byte	14
000003a0 70625f514143  12542 	.strz	"pb_QACStatic_160503 "
000003a6 537461746963 
000003ac 5f3136303530 
000003b2 332000 
000003b5 01            12543 	.byte	1
000003b6 17            12544 	.byte	23
000003b7 756353756d57  12545 	.strz	"ucSumWEc (unsigned char) 4"
000003bd 45632028756e 
000003c3 7369676e6564 
000003c9 206368617229 
000003cf 203400 
000003d2 04            12546 	.byte	4
000003d3 04            12547 	.byte	4
000003d4 03            12548 	.byte	3
000003d5 09            12549 	.byte	9
000003d6 0e            12550 	.byte	14
000003d7 01            12551 	.byte	1
000003d8 9d01          12552 	.byte	157,1
000003da 4650412000    12553 	.strz	"FPA "
000003df 01            12554 	.byte	1
000003e0 9f01          12555 	.byte	159,1
000003e2 4142535f5465  12556 	.strz	"ABS_Test_LOG_ENABLE "
000003e8 73745f4c4f47 
000003ee 5f454e41424c 
000003f4 452000 
000003f7 04            12557 	.byte	4
000003f8 03            12558 	.byte	3
000003f9 0a            12559 	.byte	10
000003fa 0f            12560 	.byte	15
000003fb 04            12561 	.byte	4
000003fc 03            12562 	.byte	3
000003fd 0b            12563 	.byte	11
000003fe 10            12564 	.byte	16
000003ff 04            12565 	.byte	4
00000400 01            12566 	.byte	1
00000401 1b            12567 	.byte	27
00000402 444d435f5f48  12568 	.strz	"DMC__HISTORY_POSITION_0 0x00U"
00000408 4953544f5259 
0000040e 5f504f534954 
00000414 494f4e5f3020 
0000041a 307830305500 
00000420 01            12569 	.byte	1
00000421 1c            12570 	.byte	28
00000422 444d435f5f48  12571 	.strz	"DMC__HISTORY_POSITION_1 0x01U"
00000428 4953544f5259 
0000042e 5f504f534954 
00000434 494f4e5f3120 
0000043a 307830315500 
00000440 01            12572 	.byte	1
00000441 1d            12573 	.byte	29
00000442 444d435f5f48  12574 	.strz	"DMC__HISTORY_POSITION_2 0x02U"
00000448 4953544f5259 
0000044e 5f504f534954 
00000454 494f4e5f3220 
0000045a 307830325500 
00000460 01            12575 	.byte	1
00000461 1e            12576 	.byte	30
00000462 444d435f5f48  12577 	.strz	"DMC__HISTORY_POSITION_3 0x03U"
00000468 4953544f5259 
0000046e 5f504f534954 

                                                                      Page 240
                                                              C:\Users\nhuliyap\AppData\Local\Temp\gh_00006601.s
00000474 494f4e5f3320 
0000047a 307830335500 
00000480 01            12578 	.byte	1
00000481 20            12579 	.byte	32
00000482 444d435f5f5a  12580 	.strz	"DMC__ZOM_POSITION_0 0x00U"
00000488 4f4d5f504f53 
0000048e 4954494f4e5f 
00000494 302030783030 
0000049a 5500 
0000049c 01            12581 	.byte	1
0000049d 21            12582 	.byte	33
0000049e 444d435f5f5a  12583 	.strz	"DMC__ZOM_POSITION_1 0x01U"
000004a4 4f4d5f504f53 
000004aa 4954494f4e5f 
000004b0 312030783031 
000004b6 5500 
000004b8 01            12584 	.byte	1
000004b9 22            12585 	.byte	34
000004ba 444d435f5f5a  12586 	.strz	"DMC__ZOM_POSITION_2 0x02U"
000004c0 4f4d5f504f53 
000004c6 4954494f4e5f 
000004cc 322030783032 
000004d2 5500 
000004d4 01            12587 	.byte	1
000004d5 23            12588 	.byte	35
000004d6 444d435f5f5a  12589 	.strz	"DMC__ZOM_POSITION_3 0x03U"
000004dc 4f4d5f504f53 
000004e2 4954494f4e5f 
000004e8 332030783033 
000004ee 5500 
000004f0 01            12590 	.byte	1
000004f1 24            12591 	.byte	36
000004f2 444d435f5f5a  12592 	.strz	"DMC__ZOM_POSITION_4 0x04U"
000004f8 4f4d5f504f53 
000004fe 4954494f4e5f 
00000504 342030783034 
0000050a 5500 
0000050c 01            12593 	.byte	1
0000050d 25            12594 	.byte	37
0000050e 444d435f5f5a  12595 	.strz	"DMC__ZOM_POSITION_5 0x05U"
00000514 4f4d5f504f53 
0000051a 4954494f4e5f 
00000520 352030783035 
00000526 5500 
00000528 01            12596 	.byte	1
00000529 26            12597 	.byte	38
0000052a 444d435f5f5a  12598 	.strz	"DMC__ZOM_POSITION_6 0x06U"
00000530 4f4d5f504f53 
00000536 4954494f4e5f 
0000053c 362030783036 
00000542 5500 
00000544 01            12599 	.byte	1
00000545 27            12600 	.byte	39
00000546 444d435f5f5a  12601 	.strz	"DMC__ZOM_POSITION_7 0x07U"
0000054c 4f4d5f504f53 
00000552 4954494f4e5f 
00000558 372030783037 
0000055e 5500 
00000560 01            12602 	.byte	1
00000561 2a            12603 	.byte	42
00000562 537472756374  12604 	.strz	"StructAccesMultiplex_00 DCM_S_MultiplexMessageIDs.DCM_S_MultiPlexMess_00.Struct_MessageMultiplex_00"

                                                                      Page 241
                                                              C:\Users\nhuliyap\AppData\Local\Temp\gh_00006601.s
00000568 41636365734d 
0000056e 756c7469706c 
00000574 65785f303020 
0000057a 44434d5f535f 
00000580 4d756c746970 
00000586 6c65784d6573 
0000058c 736167654944 
00000592 732e44434d5f 
00000598 535f4d756c74 
0000059e 69506c65784d 
000005a4 6573735f3030 
000005aa 2e5374727563 
000005b0 745f4d657373 
000005b6 6167654d756c 
000005bc 7469706c6578 
000005c2 5f303000 
000005c6 01            12605 	.byte	1
000005c7 2b            12606 	.byte	43
000005c8 537472756374  12607 	.strz	"StructAccesMultiplex_01 DCM_S_MultiplexMessageIDs.DCM_S_MultiPlexMess_01.Struct_MessageMultiplex_01"
000005ce 41636365734d 
000005d4 756c7469706c 
000005da 65785f303120 
000005e0 44434d5f535f 
000005e6 4d756c746970 
000005ec 6c65784d6573 
000005f2 736167654944 
000005f8 732e44434d5f 
000005fe 535f4d756c74 
00000604 69506c65784d 
0000060a 6573735f3031 
00000610 2e5374727563 
00000616 745f4d657373 
0000061c 6167654d756c 
00000622 7469706c6578 
00000628 5f303100 
0000062c 01            12608 	.byte	1
0000062d 2c            12609 	.byte	44
0000062e 537472756374  12610 	.strz	"StructAccesMultiplex_02 DCM_S_MultiplexMessageIDs.DCM_S_MultiPlexMess_02.Struct_MessageMultiplex_02"
00000634 41636365734d 
0000063a 756c7469706c 
00000640 65785f303220 
00000646 44434d5f535f 
0000064c 4d756c746970 
00000652 6c65784d6573 
00000658 736167654944 
0000065e 732e44434d5f 
00000664 535f4d756c74 
0000066a 69506c65784d 
00000670 6573735f3032 
00000676 2e5374727563 
0000067c 745f4d657373 
00000682 6167654d756c 
00000688 7469706c6578 
0000068e 5f303200 
00000692 01            12611 	.byte	1
00000693 2d            12612 	.byte	45
00000694 537472756374  12613 	.strz	"StructAccesMultiplex_03 DCM_S_MultiplexMessageIDs.DCM_S_MultiPlexMess_03.Struct_MessageMultiplex_03"
0000069a 41636365734d 
000006a0 756c7469706c 
000006a6 65785f303320 
000006ac 44434d5f535f 

                                                                      Page 242
                                                              C:\Users\nhuliyap\AppData\Local\Temp\gh_00006601.s
000006b2 4d756c746970 
000006b8 6c65784d6573 
000006be 736167654944 
000006c4 732e44434d5f 
000006ca 535f4d756c74 
000006d0 69506c65784d 
000006d6 6573735f3033 
000006dc 2e5374727563 
000006e2 745f4d657373 
000006e8 6167654d756c 
000006ee 7469706c6578 
000006f4 5f303300 
000006f8 01            12614 	.byte	1
000006f9 2e            12615 	.byte	46
000006fa 537472756374  12616 	.strz	"StructAccesMultiplex_04 DCM_S_MultiplexMessageIDs.DCM_S_MultiPlexMess_04.Struct_MessageMultiplex_04"
00000700 41636365734d 
00000706 756c7469706c 
0000070c 65785f303420 
00000712 44434d5f535f 
00000718 4d756c746970 
0000071e 6c65784d6573 
00000724 736167654944 
0000072a 732e44434d5f 
00000730 535f4d756c74 
00000736 69506c65784d 
0000073c 6573735f3034 
00000742 2e5374727563 
00000748 745f4d657373 
0000074e 6167654d756c 
00000754 7469706c6578 
0000075a 5f303400 
0000075e 01            12617 	.byte	1
0000075f 2f            12618 	.byte	47
00000760 537472756374  12619 	.strz	"StructAccesMultiplex_05 DCM_S_MultiplexMessageIDs.DCM_S_MultiPlexMess_05.Struct_MessageMultiplex_05"
00000766 41636365734d 
0000076c 756c7469706c 
00000772 65785f303520 
00000778 44434d5f535f 
0000077e 4d756c746970 
00000784 6c65784d6573 
0000078a 736167654944 
00000790 732e44434d5f 
00000796 535f4d756c74 
0000079c 69506c65784d 
000007a2 6573735f3035 
000007a8 2e5374727563 
000007ae 745f4d657373 
000007b4 6167654d756c 
000007ba 7469706c6578 
000007c0 5f303500 
000007c4 01            12620 	.byte	1
000007c5 40            12621 	.byte	64
000007c6 537472756374  12622 	.strz	"StructAccesMultiplex_20 DCM_S_MultiplexMessageIDs.DCM_S_MultiPlexMess_20.Struct_MessageMultiplex_20"
000007cc 41636365734d 
000007d2 756c7469706c 
000007d8 65785f323020 
000007de 44434d5f535f 
000007e4 4d756c746970 
000007ea 6c65784d6573 
000007f0 736167654944 
000007f6 732e44434d5f 

                                                                      Page 243
                                                              C:\Users\nhuliyap\AppData\Local\Temp\gh_00006601.s
000007fc 535f4d756c74 
00000802 69506c65784d 
00000808 6573735f3230 
0000080e 2e5374727563 
00000814 745f4d657373 
0000081a 6167654d756c 
00000820 7469706c6578 
00000826 5f323000 
0000082a 01            12623 	.byte	1
0000082b 41            12624 	.byte	65
0000082c 537472756374  12625 	.strz	"StructAccesMultiplex_21 DCM_S_MultiplexMessageIDs.DCM_S_MultiPlexMess_21.Struct_MessageMultiplex_21"
00000832 41636365734d 
00000838 756c7469706c 
0000083e 65785f323120 
00000844 44434d5f535f 
0000084a 4d756c746970 
00000850 6c65784d6573 
00000856 736167654944 
0000085c 732e44434d5f 
00000862 535f4d756c74 
00000868 69506c65784d 
0000086e 6573735f3231 
00000874 2e5374727563 
0000087a 745f4d657373 
00000880 6167654d756c 
00000886 7469706c6578 
0000088c 5f323100 
00000890 01            12626 	.byte	1
00000891 42            12627 	.byte	66
00000892 537472756374  12628 	.strz	"StructAccesMultiplex_22 DCM_S_MultiplexMessageIDs.DCM_S_MultiPlexMess_22.Struct_MessageMultiplex_22"
00000898 41636365734d 
0000089e 756c7469706c 
000008a4 65785f323220 
000008aa 44434d5f535f 
000008b0 4d756c746970 
000008b6 6c65784d6573 
000008bc 736167654944 
000008c2 732e44434d5f 
000008c8 535f4d756c74 
000008ce 69506c65784d 
000008d4 6573735f3232 
000008da 2e5374727563 
000008e0 745f4d657373 
000008e6 6167654d756c 
000008ec 7469706c6578 
000008f2 5f323200 
000008f6 01            12629 	.byte	1
000008f7 43            12630 	.byte	67
000008f8 537472756374  12631 	.strz	"StructAccesMultiplex_23 DCM_S_MultiplexMessageIDs.DCM_S_MultiPlexMess_23.Struct_MessageMultiplex_23"
000008fe 41636365734d 
00000904 756c7469706c 
0000090a 65785f323320 
00000910 44434d5f535f 
00000916 4d756c746970 
0000091c 6c65784d6573 
00000922 736167654944 
00000928 732e44434d5f 
0000092e 535f4d756c74 
00000934 69506c65784d 
0000093a 6573735f3233 
00000940 2e5374727563 

                                                                      Page 244
                                                              C:\Users\nhuliyap\AppData\Local\Temp\gh_00006601.s
00000946 745f4d657373 
0000094c 6167654d756c 
00000952 7469706c6578 
00000958 5f323300 
0000095c 01            12632 	.byte	1
0000095d 44            12633 	.byte	68
0000095e 537472756374  12634 	.strz	"StructAccesMultiplex_24 DCM_S_MultiplexMessageIDs.DCM_S_MultiPlexMess_24.Struct_MessageMultiplex_24"
00000964 41636365734d 
0000096a 756c7469706c 
00000970 65785f323420 
00000976 44434d5f535f 
0000097c 4d756c746970 
00000982 6c65784d6573 
00000988 736167654944 
0000098e 732e44434d5f 
00000994 535f4d756c74 
0000099a 69506c65784d 
000009a0 6573735f3234 
000009a6 2e5374727563 
000009ac 745f4d657373 
000009b2 6167654d756c 
000009b8 7469706c6578 
000009be 5f323400 
000009c2 01            12635 	.byte	1
000009c3 4a            12636 	.byte	74
000009c4 537472756374  12637 	.strz	"StructAccesMultiplex_30 DCM_S_MultiplexMessageIDs.DCM_S_MultiPlexMess_30.Struct_MessageMultiplex_30"
000009ca 41636365734d 
000009d0 756c7469706c 
000009d6 65785f333020 
000009dc 44434d5f535f 
000009e2 4d756c746970 
000009e8 6c65784d6573 
000009ee 736167654944 
000009f4 732e44434d5f 
000009fa 535f4d756c74 
00000a00 69506c65784d 
00000a06 6573735f3330 
00000a0c 2e5374727563 
00000a12 745f4d657373 
00000a18 6167654d756c 
00000a1e 7469706c6578 
00000a24 5f333000 
00000a28 01            12638 	.byte	1
00000a29 4b            12639 	.byte	75
00000a2a 537472756374  12640 	.strz	"StructAccesMultiplex_31 DCM_S_MultiplexMessageIDs.DCM_S_MultiPlexMess_31.Struct_MessageMultiplex_31"
00000a30 41636365734d 
00000a36 756c7469706c 
00000a3c 65785f333120 
00000a42 44434d5f535f 
00000a48 4d756c746970 
00000a4e 6c65784d6573 
00000a54 736167654944 
00000a5a 732e44434d5f 
00000a60 535f4d756c74 
00000a66 69506c65784d 
00000a6c 6573735f3331 
00000a72 2e5374727563 
00000a78 745f4d657373 
00000a7e 6167654d756c 
00000a84 7469706c6578 
00000a8a 5f333100 

                                                                      Page 245
                                                              C:\Users\nhuliyap\AppData\Local\Temp\gh_00006601.s
00000a8e 01            12641 	.byte	1
00000a8f 4c            12642 	.byte	76
00000a90 537472756374  12643 	.strz	"StructAccesMultiplex_32 DCM_S_MultiplexMessageIDs.DCM_S_MultiPlexMess_32.Struct_MessageMultiplex_32"
00000a96 41636365734d 
00000a9c 756c7469706c 
00000aa2 65785f333220 
00000aa8 44434d5f535f 
00000aae 4d756c746970 
00000ab4 6c65784d6573 
00000aba 736167654944 
00000ac0 732e44434d5f 
00000ac6 535f4d756c74 
00000acc 69506c65784d 
00000ad2 6573735f3332 
00000ad8 2e5374727563 
00000ade 745f4d657373 
00000ae4 6167654d756c 
00000aea 7469706c6578 
00000af0 5f333200 
00000af4 01            12644 	.byte	1
00000af5 4d            12645 	.byte	77
00000af6 537472756374  12646 	.strz	"StructAccesMultiplex_33 DCM_S_MultiplexMessageIDs.DCM_S_MultiPlexMess_33.Struct_MessageMultiplex_33"
00000afc 41636365734d 
00000b02 756c7469706c 
00000b08 65785f333320 
00000b0e 44434d5f535f 
00000b14 4d756c746970 
00000b1a 6c65784d6573 
00000b20 736167654944 
00000b26 732e44434d5f 
00000b2c 535f4d756c74 
00000b32 69506c65784d 
00000b38 6573735f3333 
00000b3e 2e5374727563 
00000b44 745f4d657373 
00000b4a 6167654d756c 
00000b50 7469706c6578 
00000b56 5f333300 
00000b5a 01            12647 	.byte	1
00000b5b 4e            12648 	.byte	78
00000b5c 537472756374  12649 	.strz	"StructAccesMultiplex_40 DCM_S_MultiplexMessageIDs.DCM_S_MultiPlexMess_40.Struct_MessageMultiplex_40"
00000b62 41636365734d 
00000b68 756c7469706c 
00000b6e 65785f343020 
00000b74 44434d5f535f 
00000b7a 4d756c746970 
00000b80 6c65784d6573 
00000b86 736167654944 
00000b8c 732e44434d5f 
00000b92 535f4d756c74 
00000b98 69506c65784d 
00000b9e 6573735f3430 
00000ba4 2e5374727563 
00000baa 745f4d657373 
00000bb0 6167654d756c 
00000bb6 7469706c6578 
00000bbc 5f343000 
00000bc0 01            12650 	.byte	1
00000bc1 4f            12651 	.byte	79
00000bc2 537472756374  12652 	.strz	"StructAccesMultiplex_41 DCM_S_MultiplexMessageIDs.DCM_S_MultiPlexMess_41.Struct_MessageMultiplex_41"
00000bc8 41636365734d 

                                                                      Page 246
                                                              C:\Users\nhuliyap\AppData\Local\Temp\gh_00006601.s
00000bce 756c7469706c 
00000bd4 65785f343120 
00000bda 44434d5f535f 
00000be0 4d756c746970 
00000be6 6c65784d6573 
00000bec 736167654944 
00000bf2 732e44434d5f 
00000bf8 535f4d756c74 
00000bfe 69506c65784d 
00000c04 6573735f3431 
00000c0a 2e5374727563 
00000c10 745f4d657373 
00000c16 6167654d756c 
00000c1c 7469706c6578 
00000c22 5f343100 
00000c26 01            12653 	.byte	1
00000c27 50            12654 	.byte	80
00000c28 537472756374  12655 	.strz	"StructAccesMultiplex_42 DCM_S_MultiplexMessageIDs.DCM_S_MultiPlexMess_42.Struct_MessageMultiplex_42"
00000c2e 41636365734d 
00000c34 756c7469706c 
00000c3a 65785f343220 
00000c40 44434d5f535f 
00000c46 4d756c746970 
00000c4c 6c65784d6573 
00000c52 736167654944 
00000c58 732e44434d5f 
00000c5e 535f4d756c74 
00000c64 69506c65784d 
00000c6a 6573735f3432 
00000c70 2e5374727563 
00000c76 745f4d657373 
00000c7c 6167654d756c 
00000c82 7469706c6578 
00000c88 5f343200 
00000c8c 01            12656 	.byte	1
00000c8d 51            12657 	.byte	81
00000c8e 537472756374  12658 	.strz	"StructAccesMultiplex_43 DCM_S_MultiplexMessageIDs.DCM_S_MultiPlexMess_43.Struct_MessageMultiplex_43"
00000c94 41636365734d 
00000c9a 756c7469706c 
00000ca0 65785f343320 
00000ca6 44434d5f535f 
00000cac 4d756c746970 
00000cb2 6c65784d6573 
00000cb8 736167654944 
00000cbe 732e44434d5f 
00000cc4 535f4d756c74 
00000cca 69506c65784d 
00000cd0 6573735f3433 
00000cd6 2e5374727563 
00000cdc 745f4d657373 
00000ce2 6167654d756c 
00000ce8 7469706c6578 
00000cee 5f343300 
00000cf2 01            12659 	.byte	1
00000cf3 52            12660 	.byte	82
00000cf4 537472756374  12661 	.strz	"StructAccesMultiplex_44 DCM_S_MultiplexMessageIDs.DCM_S_MultiPlexMess_44.Struct_MessageMultiplex_44"
00000cfa 41636365734d 
00000d00 756c7469706c 
00000d06 65785f343420 
00000d0c 44434d5f535f 
00000d12 4d756c746970 

                                                                      Page 247
                                                              C:\Users\nhuliyap\AppData\Local\Temp\gh_00006601.s
00000d18 6c65784d6573 
00000d1e 736167654944 
00000d24 732e44434d5f 
00000d2a 535f4d756c74 
00000d30 69506c65784d 
00000d36 6573735f3434 
00000d3c 2e5374727563 
00000d42 745f4d657373 
00000d48 6167654d756c 
00000d4e 7469706c6578 
00000d54 5f343400 
00000d58 01            12662 	.byte	1
00000d59 53            12663 	.byte	83
00000d5a 537472756374  12664 	.strz	"StructAccesMultiplex_45 DCM_S_MultiplexMessageIDs.DCM_S_MultiPlexMess_45.Struct_MessageMultiplex_45"
00000d60 41636365734d 
00000d66 756c7469706c 
00000d6c 65785f343520 
00000d72 44434d5f535f 
00000d78 4d756c746970 
00000d7e 6c65784d6573 
00000d84 736167654944 
00000d8a 732e44434d5f 
00000d90 535f4d756c74 
00000d96 69506c65784d 
00000d9c 6573735f3435 
00000da2 2e5374727563 
00000da8 745f4d657373 
00000dae 6167654d756c 
00000db4 7469706c6578 
00000dba 5f343500 
00000dbe 01            12665 	.byte	1
00000dbf 54            12666 	.byte	84
00000dc0 537472756374  12667 	.strz	"StructAccesMultiplex_46 DCM_S_MultiplexMessageIDs.DCM_S_MultiPlexMess_46.Struct_MessageMultiplex_46"
00000dc6 41636365734d 
00000dcc 756c7469706c 
00000dd2 65785f343620 
00000dd8 44434d5f535f 
00000dde 4d756c746970 
00000de4 6c65784d6573 
00000dea 736167654944 
00000df0 732e44434d5f 
00000df6 535f4d756c74 
00000dfc 69506c65784d 
00000e02 6573735f3436 
00000e08 2e5374727563 
00000e0e 745f4d657373 
00000e14 6167654d756c 
00000e1a 7469706c6578 
00000e20 5f343600 
00000e24 01            12668 	.byte	1
00000e25 55            12669 	.byte	85
00000e26 537472756374  12670 	.strz	"StructAccesMultiplex_47 DCM_S_MultiplexMessageIDs.DCM_S_MultiPlexMess_47.Struct_MessageMultiplex_47"
00000e2c 41636365734d 
00000e32 756c7469706c 
00000e38 65785f343720 
00000e3e 44434d5f535f 
00000e44 4d756c746970 
00000e4a 6c65784d6573 
00000e50 736167654944 
00000e56 732e44434d5f 
00000e5c 535f4d756c74 

                                                                      Page 248
                                                              C:\Users\nhuliyap\AppData\Local\Temp\gh_00006601.s
00000e62 69506c65784d 
00000e68 6573735f3437 
00000e6e 2e5374727563 
00000e74 745f4d657373 
00000e7a 6167654d756c 
00000e80 7469706c6578 
00000e86 5f343700 
00000e8a 01            12671 	.byte	1
00000e8b 57            12672 	.byte	87
00000e8c 44434d5f5f42  12673 	.strz	"DCM__BUFFER_READ_START_MSG4 5U"
00000e92 55464645525f 
00000e98 524541445f53 
00000e9e 544152545f4d 
00000ea4 534734203555 
00000eaa 00 
00000eab 01            12674 	.byte	1
00000eac 58            12675 	.byte	88
00000ead 44434d5f5f42  12676 	.strz	"DCM__BUFFER_READ_LENGTH_MSG4 7U"
00000eb3 55464645525f 
00000eb9 524541445f4c 
00000ebf 454e4754485f 
00000ec5 4d5347342037 
00000ecb 5500 
00000ecd 01            12677 	.byte	1
00000ece 59            12678 	.byte	89
00000ecf 44434d5f5f42  12679 	.strz	"DCM__BUFFER_READ_START_MSG5 12U"
00000ed5 55464645525f 
00000edb 524541445f53 
00000ee1 544152545f4d 
00000ee7 534735203132 
00000eed 5500 
00000eef 01            12680 	.byte	1
00000ef0 5a            12681 	.byte	90
00000ef1 44434d5f5f42  12682 	.strz	"DCM__BUFFER_READ_LENGTH_MSG5 4U"
00000ef7 55464645525f 
00000efd 524541445f4c 
00000f03 454e4754485f 
00000f09 4d5347352034 
00000f0f 5500 
00000f11 01            12683 	.byte	1
00000f12 5f            12684 	.byte	95
00000f13 44434d5f5359  12685 	.strz	"DCM_SYSTEM_MULTIPLEX_SIZE 15U"
00000f19 5354454d5f4d 
00000f1f 554c5449504c 
00000f25 45585f53495a 
00000f2b 452031355500 
00000f31 01            12686 	.byte	1
00000f32 64            12687 	.byte	100
00000f33 44434d5f4556  12688 	.strz	"DCM_EVENT_MULTIPLEX_SIZE 8U"
00000f39 454e545f4d55 
00000f3f 4c5449504c45 
00000f45 585f53495a45 
00000f4b 20385500 
00000f4f 01            12689 	.byte	1
00000f50 db01          12690 	.byte	219,1
00000f52 44434d5f5349  12691 	.strz	"DCM_SIZEOF_EVENT_MULTIPLEXES SIZE_ARRAY(DCM_AS_ConfigureEventMultiplexMsg, DCM_Struct_MultiplexDataType)"
00000f58 5a454f465f45 
00000f5e 56454e545f4d 
00000f64 554c5449504c 
00000f6a 455845532053 
00000f70 495a455f4152 

                                                                      Page 249
                                                              C:\Users\nhuliyap\AppData\Local\Temp\gh_00006601.s
00000f76 524159284443 
00000f7c 4d5f41535f43 
00000f82 6f6e66696775 
00000f88 72654576656e 
00000f8e 744d756c7469 
00000f94 706c65784d73 
00000f9a 672c2044434d 
00000fa0 5f5374727563 
00000fa6 745f4d756c74 
00000fac 69706c657844 
00000fb2 617461547970 
00000fb8 652900 
00000fbb 01            12692 	.byte	1
00000fbc dc01          12693 	.byte	220,1
00000fbe 44434d5f5349  12694 	.strz	"DCM_SIZEOF_SYSTEM_MULTIPLEXES SIZE_ARRAY(DCM_AS_ConfigureSystemMultiplexMsg, DCM_Struct_MultiplexDataType)"
00000fc4 5a454f465f53 
00000fca 595354454d5f 
00000fd0 4d554c544950 
00000fd6 4c4558455320 
00000fdc 53495a455f41 
00000fe2 525241592844 
00000fe8 434d5f41535f 
00000fee 436f6e666967 
00000ff4 757265537973 
00000ffa 74656d4d756c 
00001000 7469706c6578 
00001006 4d73672c2044 
0000100c 434d5f537472 
00001012 7563745f4d75 
00001018 6c7469706c65 
0000101e 784461746154 
00001024 7970652900 
00001029 04            12695 	.byte	4
0000102a 00            12696 	.byte	0
                       12697 	.section	.debug_abbrev
000001a1 00            12698 	.byte	0
                       12699 	.section	.debug_info
                       12700 .Ldw_end:
                       12701 .rh850_flags REGMODE32,DATA_ALIGN8,GP_FIX,EP_NONFIX,TP_FIX,REG2_RESERVE,G3K,GHS_MISALIGN,SDA_EXTRA_REGS_0
