                                                                      Page 1
                                                              C:\Users\nhuliyap\AppData\Local\Temp\gh_00002581.s
Command Line: C:\ghs\comp_201517\ease850.exe -w -elf -b0 -I../source/common -I../source/ProjectCompiler -I../source/ProjectCfg -I../source/SwcApplTpms -I../source/SwcApplEcuM -I../source/SwcServiceBswM -I../source/SwcServiceEcuM -I../source/SwcServiceNvM -I../source/SwcServiceOs -I../source/SwcServiceStartUp -I../source/McalAdc -I../source/McalDio -I../source/McalGpt -I../source/McalMcu -I../source/McalWdg -I../source/wrappers -I../source/wrappers/McalAta -I../source/McalLin -I../source/McalCan -I../source/wrappers/OS -I../source/McalFls -I../source/EcuabFee -I../source/EcuabMemIf -I../source/wrappers/VStdLib -I../source/wrappers/Crc -I../source/wrappers/FBL_APPL -I../source/wrappers/NVM_MANAGER -I../source/wrappers/DEM_MANAGER -I../source/wrappers/RDC_MANAGER -I../source/wrappers/ENV_MANAGER -I../source/wrappers/SYS_MANAGER -I../source/wrappers/EcuabCanIf -I../source/EcuabCanTrcv -I../source/wrappers/SwcServiceCanSM -I../source/wrappers/SwcServiceCanTp -I../source/wrappers/SwcServiceCanTp_PreCompile -I../source/wrappers/SwcServiceCom -I../source/wrappers/SwcServiceComM -I../source/wrappers/SwcServiceDcm -I../source/wrappers/SwcServicePduR -I../source/wrappers/SwcServiceEcuM -I../source/wrappers/Bfx -I../source/wrappers/SwcServiceDem -I../source/SwcServiceCom -I../source/SwcServiceDet -I../source/SwcServiceFiM -I../source/SwcServicePduR -I../source/SwcServiceSchM -I../source/wrappers/LibAutosarDiag -I../source/wrappers/rba_BswSrv -IC:\ghs\comp_201517\lib\rh850 -cg_underscore -cpu=rh850g3k -no_v850_simd -rh850_fpsimd=none -nomacro -patch_dbo=C:\_ECU2\ECU_Rivian_A1\Target\repo_projects\pRealEcu\cR_R2023.09.15\make\output\objects\Dem_EvMemApi.dbo -source=Dem_EvMemApi.c -o output\objects\gh_00002581.o -list=output\list\Dem_EvMemApi.lst C:\Users\nhuliyap\AppData\Local\Temp\gh_00002581.s 
Original File: C:\Users\nhuliyap\AppData\Local\Temp\gh_00002581.s
Source File: Dem_EvMemApi.c
Directory: C:\_ECU2\ECU_Rivian_A1\Target\repo_projects\pRealEcu\cR_R2023.09.15\make
Host OS: Windows
EASE: Copyright (C) 1983-2015 Green Hills Software.  All Rights Reserved.
Release: Compiler v2015.1.7
Build Directory: [Directory] BTOWORKER6:c:/build_2015_1_bto/2015-10-21.2100-2015_1_bto/win32-comp-ecom
Revision: [VCInfo] http://toolsvc/branches/release-branch-70-bto/src@544153 (built by build)
Revision Date: Thu Oct 22 07:50:13 2015

Release Date: Thu Oct 22 09:32:32 2015

                           1 --Driver Command: ccv850 ../source/wrappers/SwcServiceDem/Dem_EvMemApi.c
                           2 --		-cpu=rh850 -fhard -ignore_callt_state_in_interrupts -large_sda
                           3 --		-misalign_pack -nofarcalls -nofloatio -no_callt -Ogeneral
                           4 --		-Onounroll -prepare_dispose -registermode=32 -reserve_r2 -sda=0
                           5 --		-shorten_loads -Wshadow --brief_diagnostics --no_commons
                           6 --		--no_wrap_diagnostics --prototype_errors --short_enum -list -G
                           7 --		-dual_debug -dwarf -X5523 -lnk=-no_xda_modifications -D
                           8 --		NOT_READY_FOR_TESTING_OR_DEPLOYMENT -D IBTCM_SW_ANPASSUNGEN -D
                           9 --		BUILD_RIVIAN -c -inline_prologue -I../source/common
                          10 --		-I../source/ProjectCompiler -I../source/ProjectCfg
                          11 --		-I../source/SwcApplTpms -I../source/SwcApplEcuM
                          12 --		-I../source/SwcServiceBswM -I../source/SwcServiceEcuM
                          13 --		-I../source/SwcServiceNvM -I../source/SwcServiceOs
                          14 --		-I../source/SwcServiceStartUp -I../source/McalAdc
                          15 --		-I../source/McalDio -I../source/McalGpt -I../source/McalMcu
                          16 --		-I../source/McalWdg -I../source/wrappers
                          17 --		-I../source/wrappers/McalAta -I../source/McalLin
                          18 --		-I../source/McalCan -I../source/wrappers/OS -I../source/McalFls
                          19 --		-I../source/EcuabFee -I../source/EcuabMemIf
                          20 --		-I../source/wrappers/VStdLib -I../source/wrappers
                          21 --		-I../source/wrappers/Crc -I../source/wrappers/FBL_APPL
                          22 --		-I../source/wrappers/NVM_MANAGER -I../source/wrappers/DEM_MANAGER
                          23 --		-I../source/wrappers/RDC_MANAGER -I../source/wrappers/ENV_MANAGER
                          24 --		-I../source/wrappers/SYS_MANAGER -I../source/wrappers/EcuabCanIf
                          25 --		-I../source/EcuabCanTrcv -I../source/wrappers/SwcServiceCanSM
                          26 --		-I../source/wrappers/SwcServiceCanTp
                          27 --		-I../source/wrappers/SwcServiceCanTp_PreCompile
                          28 --		-I../source/wrappers/SwcServiceCom
                          29 --		-I../source/wrappers/SwcServiceComM
                          30 --		-I../source/wrappers/SwcServiceDcm
                          31 --		-I../source/wrappers/SwcServicePduR
                          32 --		-I../source/wrappers/SwcServiceEcuM -I../source/wrappers/Bfx
                          33 --		-I../source/wrappers/SwcServiceDem -I../source/SwcServiceCom
                          34 --		-I../source/SwcServiceDet -I../source/SwcServiceFiM
                          35 --		-I../source/SwcServicePduR -I../source/SwcServiceSchM
                          36 --		-I../source/wrappers/LibAutosarDiag
                          37 --		-I../source/wrappers/rba_BswSrv -object_dir=output/objects
                          38 --		-list_dir=output/list
                          39 --Source File:   ../source/wrappers/SwcServiceDem/Dem_EvMemApi.c
                          40 --Directory:     
                          41 --		C:\_ECU2\ECU_Rivian_A1\Target\repo_projects\pRealEcu\cR_R2023.09.15\make
                          42 --Compile Date:  Fri Sep 15 15:28:33 2023
                          43 --Host OS:       Win32
                          44 --Version:       C-RH850 2015.1.7 RELEASE VERSION
                          45 --Release:       Compiler v2015.1.7
                          46 --Revision Date: Thu Oct 22 08:06:12 2015
                          47 --Release Date:  Thu Oct 22 09:34:32 2015
                          48 -- ecom  -g -w -OM
                          49 	.text
                          50 ..bof.C.3A.5C_ECU2.5CECU_Rivian_A1.5CTarget.5Crepo_projects.5CpRealEcu.5CcR_R2023.2E09.2E15.5Cmake.5Coutput.5Cobjects.5CDem_EvMemApi...43.3A.5C_ECU2.5CECU_Rivian_A1.5CTarget.5Crepo_projects.5CpRealEcu.5CcR_R2023.2E09.2E15.5Cmake..65045C02..0::

                                                                      Page 2
                                                              C:\Users\nhuliyap\AppData\Local\Temp\gh_00002581.s
                          51 	.align	2
                          52 ..gh.f.f.1.e.0:
                          53 	.type	..gh.f.f.1.e.0,@object
                          54 	.size	..gh.f.f.1.e.0,0
                          55 	.global	_Dem_EvMemGetMemoryLocIdOfDtcAndOriginWithVisibility
                          56 _Dem_EvMemGetMemoryLocIdOfDtcAndOriginWithVisibility:
00000000 8700             57 	zxb	r7
                          58 --	    .bf
                          59 .LDW01:
00000002 613a             60 	cmp	1,r7
00000004 ea05*            61 	bne	.L829
00000006 c600             62 	zxh	r6
00000008 8800             63 	zxb	r8
                          64 --line28
                          65 ..lin.C.3A.5C_ECU2.5CECU_Rivian_A1.5CTarget.5Crepo_projects.5CpRealEcu.5CcR_R2023.2E09.2E15.5Cmake.5Coutput.5Cobjects.5CDem_EvMemApi.1::
                          66 .LDWlin1:
0000000a 003a             67 	mov	0,r7
0000000c 80070000*        68 	jr	_Dem_EvMemGetEventMemoryLocIdOfDtcWithVisibility
                          69 .L829:
00000010 8056ffff         70 	ori	65535,zero,r10
                          71 --	    .ef
                          72 .LDW11:
                          73 --line28
                          74 ..lin.C.3A.5C_ECU2.5CECU_Rivian_A1.5CTarget.5Crepo_projects.5CpRealEcu.5CcR_R2023.2E09.2E15.5Cmake.5Coutput.5Cobjects.5CDem_EvMemApi.2::
                          75 .LDWlin2:
00000014 7f00             76 	jmp	[lp]
                          77 	.global	___ghs_eofn_Dem_EvMemGetMemoryLocIdOfDtcAndOriginWithVisibility
                          78 ___ghs_eofn_Dem_EvMemGetMemoryLocIdOfDtcAndOriginWithVisibility:
                          79 	.type	_Dem_EvMemGetMemoryLocIdOfDtcAndOriginWithVisibility,@function
                          80 	.size	_Dem_EvMemGetMemoryLocIdOfDtcAndOriginWithVisibility,.-_Dem_EvMemGetMemoryLocIdOfDtcAndOriginWithVisibility
                          81 	.align	2
                          82 
                          83 --_DtcId	r6	param
                          84 --_DTCOrigin	r7	param
                          85 --_ShadowEntriesVisible	r8	param
                          86 
                          87 	.section ".bss","awb"
                          88 .L879:
                          89 	.type	.L879,@object
                          90 	.size	.L879,0
                          91 	.data
                          92 	.text
                          93 	.align	2
                          94 	.align	2
                          95 	.align	2
                          96 ..gh.f.f.1.e.1:
                          97 	.type	..gh.f.f.1.e.1,@object
                          98 	.size	..gh.f.f.1.e.1,0
                          99 	.global	_Dem_EvMemReqSyncDataRecord..C.3A.5C_ECU2.5CECU_Rivian_A1.5CTarget.5Crepo_projects.5CpRealEcu.5CcR_R2023.2E09.2E15.5Cmake.5Coutput.5Cobjects.5CDem_EvMemApi.
                         100 _Dem_EvMemReqSyncDataRecord..C.3A.5C_ECU2.5CECU_Rivian_A1.5CTarget.5Crepo_projects.5CpRealEcu.5CcR_R2023.2E09.2E15.5Cmake.5Coutput.5Cobjects.5CDem_EvMemApi.:
                         101 _Dem_EvMemReqSyncDataRecord:
00000016 c600            102 	zxh	r6
00000018 8700            103 	zxb	r7
                         104 --	    .bf
                         105 .LDW21:
0000001a e0076001        106 	di
0000001e 3e0600000000*   107 	mov	_Dem_EvMemDTCRecord,ep
00000024 7098            108 	sld.hu	0[ep],r19
00000026 e699            109 	cmp	r6,r19
00000028 ca05*           110 	bne	.L922
0000002a 6290            111 	sld.bu	2[ep],r18

                                                                      Page 3
                                                              C:\Users\nhuliyap\AppData\Local\Temp\gh_00002581.s
0000002c e791            112 	cmp	r7,r18
0000002e e205*           113 	be	.L921
                         114 .L922:
                         115 --line83
                         116 ..lin.C.3A.5C_ECU2.5CECU_Rivian_A1.5CTarget.5Crepo_projects.5CpRealEcu.5CcR_R2023.2E09.2E15.5Cmake.5Coutput.5Cobjects.5CDem_EvMemApi.3::
                         117 .LDWlin3:
00000030 6390            118 	sld.bu	3[ep],r18
00000032 8034            119 	sst.h	r6,0[ep]
00000034 823b            120 	sst.b	r7,2[ep]
00000036 4192            121 	add	1,r18
00000038 8393            122 	sst.b	r18,3[ep]
                         123 .L921:
0000003a 6488            124 	sld.bu	4[ep],r17
0000003c 6380            125 	sld.bu	3[ep],r16
0000003e f181            126 	cmp	r17,r16
00000040 e2570000        127 	setfe	r10
00000044 e0876001        128 	ei
                         129 --	    .ef
                         130 .LDW31:
00000048 7f00            131 	jmp	[lp]
                         132 ___ghs_eofn_Dem_EvMemReqSyncDataRecord:
                         133 	.type	_Dem_EvMemReqSyncDataRecord,@function
                         134 	.size	_Dem_EvMemReqSyncDataRecord,.-_Dem_EvMemReqSyncDataRecord
                         135 	.type	_Dem_EvMemReqSyncDataRecord..C.3A.5C_ECU2.5CECU_Rivian_A1.5CTarget.5Crepo_projects.5CpRealEcu.5CcR_R2023.2E09.2E15.5Cmake.5Coutput.5Cobjects.5CDem_EvMemApi.,@function
                         136 	.size	_Dem_EvMemReqSyncDataRecord..C.3A.5C_ECU2.5CECU_Rivian_A1.5CTarget.5Crepo_projects.5CpRealEcu.5CcR_R2023.2E09.2E15.5Cmake.5Coutput.5Cobjects.5CDem_EvMemApi.,.-_Dem_EvMemReqSyncDataRecord..C.3A.5C_ECU2.5CECU_Rivian_A1.5CTarget.5Crepo_projects.5CpRealEcu.5CcR_R2023.2E09.2E15.5Cmake.5Coutput.5Cobjects.5CDem_EvMemApi.
                         137 	.align	2
                         138 
                         139 --_DtcId	r6	param
                         140 --_DTCOrigin	r7	param
                         141 
                         142 	.section ".bss","awb"
                         143 	.align	4
                         144 .L966:
                         145 	.type	.L966,@object
                         146 	.size	.L966,0
                         147 	.global	_DemDtcCodeCopy..C.3A.5C_ECU2.5CECU_Rivian_A1.5CTarget.5Crepo_projects.5CpRealEcu.5CcR_R2023.2E09.2E15.5Cmake.5Coutput.5Cobjects.5CDem_EvMemApi.
                         148 _DemDtcCodeCopy..C.3A.5C_ECU2.5CECU_Rivian_A1.5CTarget.5Crepo_projects.5CpRealEcu.5CcR_R2023.2E09.2E15.5Cmake.5Coutput.5Cobjects.5CDem_EvMemApi.:
00000000 00000000        149 _DemDtcCodeCopy:	.space	4
                         150 	.type	_DemDtcCodeCopy..C.3A.5C_ECU2.5CECU_Rivian_A1.5CTarget.5Crepo_projects.5CpRealEcu.5CcR_R2023.2E09.2E15.5Cmake.5Coutput.5Cobjects.5CDem_EvMemApi.,@object
                         151 	.size	_DemDtcCodeCopy..C.3A.5C_ECU2.5CECU_Rivian_A1.5CTarget.5Crepo_projects.5CpRealEcu.5CcR_R2023.2E09.2E15.5Cmake.5Coutput.5Cobjects.5CDem_EvMemApi.,4
                         152 	.type	_DemDtcCodeCopy,@object
                         153 	.size	_DemDtcCodeCopy,4
                         154 	.global	_Dem_EvMemFilteredRecordLocId..C.3A.5C_ECU2.5CECU_Rivian_A1.5CTarget.5Crepo_projects.5CpRealEcu.5CcR_R2023.2E09.2E15.5Cmake.5Coutput.5Cobjects.5CDem_EvMemApi.
                         155 _Dem_EvMemFilteredRecordLocId..C.3A.5C_ECU2.5CECU_Rivian_A1.5CTarget.5Crepo_projects.5CpRealEcu.5CcR_R2023.2E09.2E15.5Cmake.5Coutput.5Cobjects.5CDem_EvMemApi.:
00000004 00000000        156 _Dem_EvMemFilteredRecordLocId:	.space	4
                         157 	.type	_Dem_EvMemFilteredRecordLocId..C.3A.5C_ECU2.5CECU_Rivian_A1.5CTarget.5Crepo_projects.5CpRealEcu.5CcR_R2023.2E09.2E15.5Cmake.5Coutput.5Cobjects.5CDem_EvMemApi.,@object
                         158 	.size	_Dem_EvMemFilteredRecordLocId..C.3A.5C_ECU2.5CECU_Rivian_A1.5CTarget.5Crepo_projects.5CpRealEcu.5CcR_R2023.2E09.2E15.5Cmake.5Coutput.5Cobjects.5CDem_EvMemApi.,4
                         159 	.type	_Dem_EvMemFilteredRecordLocId,@object
                         160 	.size	_Dem_EvMemFilteredRecordLocId,4
                         161 	.global	_Dem_EvMemFilteredRecordFreezeFrameId..C.3A.5C_ECU2.5CECU_Rivian_A1.5CTarget.5Crepo_projects.5CpRealEcu.5CcR_R2023.2E09.2E15.5Cmake.5Coutput.5Cobjects.5CDem_EvMemApi.
                         162 _Dem_EvMemFilteredRecordFreezeFrameId..C.3A.5C_ECU2.5CECU_Rivian_A1.5CTarget.5Crepo_projects.5CpRealEcu.5CcR_R2023.2E09.2E15.5Cmake.5Coutput.5Cobjects.5CDem_EvMemApi.:
00000008 00000000        163 _Dem_EvMemFilteredRecordFreezeFrameId:	.space	4
                         164 	.type	_Dem_EvMemFilteredRecordFreezeFrameId..C.3A.5C_ECU2.5CECU_Rivian_A1.5CTarget.5Crepo_projects.5CpRealEcu.5CcR_R2023.2E09.2E15.5Cmake.5Coutput.5Cobjects.5CDem_EvMemApi.,@object
                         165 	.size	_Dem_EvMemFilteredRecordFreezeFrameId..C.3A.5C_ECU2.5CECU_Rivian_A1.5CTarget.5Crepo_projects.5CpRealEcu.5CcR_R2023.2E09.2E15.5Cmake.5Coutput.5Cobjects.5CDem_EvMemApi.,4
                         166 	.type	_Dem_EvMemFilteredRecordFreezeFrameId,@object
                         167 	.size	_Dem_EvMemFilteredRecordFreezeFrameId,4
                         168 	.global	_DemDtcIdCopy..C.3A.5C_ECU2.5CECU_Rivian_A1.5CTarget.5Crepo_projects.5CpRealEcu.5CcR_R2023.2E09.2E15.5Cmake.5Coutput.5Cobjects.5CDem_EvMemApi.
                         169 _DemDtcIdCopy..C.3A.5C_ECU2.5CECU_Rivian_A1.5CTarget.5Crepo_projects.5CpRealEcu.5CcR_R2023.2E09.2E15.5Cmake.5Coutput.5Cobjects.5CDem_EvMemApi.:
0000000c 0000            170 _DemDtcIdCopy:	.space	2
                         171 	.type	_DemDtcIdCopy..C.3A.5C_ECU2.5CECU_Rivian_A1.5CTarget.5Crepo_projects.5CpRealEcu.5CcR_R2023.2E09.2E15.5Cmake.5Coutput.5Cobjects.5CDem_EvMemApi.,@object
                         172 	.size	_DemDtcIdCopy..C.3A.5C_ECU2.5CECU_Rivian_A1.5CTarget.5Crepo_projects.5CpRealEcu.5CcR_R2023.2E09.2E15.5Cmake.5Coutput.5Cobjects.5CDem_EvMemApi.,2

                                                                      Page 4
                                                              C:\Users\nhuliyap\AppData\Local\Temp\gh_00002581.s
                         173 	.type	_DemDtcIdCopy,@object
                         174 	.size	_DemDtcIdCopy,2
                         175 	.data
                         176 	.text
                         177 	.align	2
                         178 	.align	2
                         179 ..gh.f.f.1.e.2:
                         180 	.type	..gh.f.f.1.e.2,@object
                         181 	.size	..gh.f.f.1.e.2,0
                         182 	.global	_Dem_EvMemApiMainFunction
                         183 _Dem_EvMemApiMainFunction:
0000004a 8007e100        184 	prepare	{r28,r29,r31},0
                         185 --	    .bf
                         186 .LDW41:
0000004e e0076001        187 	di
00000052 3d0600000000*   188 	mov	_Dem_EvMemDTCRecord,r29
00000058 1df0            189 	mov	r29,ep
                         190 --line108
                         191 ..lin.C.3A.5C_ECU2.5CECU_Rivian_A1.5CTarget.5Crepo_projects.5CpRealEcu.5CcR_R2023.2E09.2E15.5Cmake.5Coutput.5Cobjects.5CDem_EvMemApi.4::
                         192 .LDWlin4:
0000005a 63e0            193 	sld.bu	3[ep],r28
0000005c 6498            194 	sld.bu	4[ep],r19
0000005e 7030            195 	sld.hu	0[ep],r6
00000060 6238            196 	sld.bu	2[ep],r7
00000062 f3e1            197 	cmp	r19,r28
00000064 e23d*           198 	be	.L1037
                         199 --line113
                         200 ..lin.C.3A.5C_ECU2.5CECU_Rivian_A1.5CTarget.5Crepo_projects.5CpRealEcu.5CcR_R2023.2E09.2E15.5Cmake.5Coutput.5Cobjects.5CDem_EvMemApi.5::
                         201 .LDWlin5:
00000066 0646ffff        202 	addi	-1,r6,r8
0000006a 8503            203 	sst.b	zero,5[ep]
0000006c 0806d7ff        204 	addi	-41,r8,zero
00000070 e135*           205 	bl	.L1019
                         206 --line115
                         207 ..lin.C.3A.5C_ECU2.5CECU_Rivian_A1.5CTarget.5Crepo_projects.5CpRealEcu.5CcR_R2023.2E09.2E15.5Cmake.5Coutput.5Cobjects.5CDem_EvMemApi.6::
                         208 .LDWlin6:
00000072 0042            209 	mov	0,r8
                         210 	jarl	_Dem_EvMemGetMemoryLocIdOfDtcAndOriginWithVisibility,lp
                         210 <EXPANSION BEGIN>
                         210 jarl22 _Dem_EvMemGetMemoryLocIdOfDtcAndOriginWithVisibility , lp 
00000074 bfff8cff*       210 <EXPANSION END>
                         211 --line116
                         212 ..lin.C.3A.5C_ECU2.5CECU_Rivian_A1.5CTarget.5Crepo_projects.5CpRealEcu.5CcR_R2023.2E09.2E15.5Cmake.5Coutput.5Cobjects.5CDem_EvMemApi.7::
                         213 .LDWlin7:
00000078 6a52            214 	cmp	10,r10
0000007a e14f0000        215 	setfl	r9
0000007e 5d4f0500        216 	st.b	r9,5[r29]
00000082 d92d*           217 	bnl	.L1019
                         218 --line119
                         219 ..lin.C.3A.5C_ECU2.5CECU_Rivian_A1.5CTarget.5Crepo_projects.5CpRealEcu.5CcR_R2023.2E09.2E15.5Cmake.5Coutput.5Cobjects.5CDem_EvMemApi.8::
                         220 .LDWlin8:
00000084 ea963000        221 	mulhi	48,r10,r18
00000088 290600000000*   222 	mov	_Dem_EvMemEventMemory,r9
0000008e 1d8e0800        223 	addi	8,r29,r17
00000092 c991            224 	add	r9,r18
00000094 b20709400000    225 	ld.dw	0[r18],r8
0000009a b20789300000    226 	ld.dw	8[r18],r6
000000a0 b20709710000    227 	ld.dw	16[r18],r14
000000a6 b20789610000    228 	ld.dw	24[r18],r12
000000ac b1070f400000    229 	st.dw	r8,0[r17]
000000b2 b20709520000    230 	ld.dw	32[r18],r10

                                                                      Page 5
                                                              C:\Users\nhuliyap\AppData\Local\Temp\gh_00002581.s
000000b8 b20789420000    231 	ld.dw	40[r18],r8
000000be b1078f300000    232 	st.dw	r6,8[r17]
000000c4 b1070f710000    233 	st.dw	r14,16[r17]
000000ca b1078f610000    234 	st.dw	r12,24[r17]
000000d0 b1070f520000    235 	st.dw	r10,32[r17]
000000d6 b1078f420000    236 	st.dw	r8,40[r17]
                         237 .L1019:
                         238 --line122
                         239 ..lin.C.3A.5C_ECU2.5CECU_Rivian_A1.5CTarget.5Crepo_projects.5CpRealEcu.5CcR_R2023.2E09.2E15.5Cmake.5Coutput.5Cobjects.5CDem_EvMemApi.9::
                         240 .LDWlin9:
000000dc 5de70400        241 	st.b	r28,4[r29]
                         242 .L1037:
000000e0 e0876001        243 	ei
                         244 --	    .ef
                         245 .LDW51:
000000e4 4006ff00        246 	dispose	0,{r28,r29,r31},[lp]
                         247 	.global	___ghs_eofn_Dem_EvMemApiMainFunction
                         248 ___ghs_eofn_Dem_EvMemApiMainFunction:
                         249 	.type	_Dem_EvMemApiMainFunction,@function
                         250 	.size	_Dem_EvMemApiMainFunction,.-_Dem_EvMemApiMainFunction
                         251 	.align	2
                         252 --_LocId	r10	local
                         253 --_DtcIdStored	r6	local
                         254 --_DTCOriginStored	r7	local
                         255 --_ReqCounterStored	r28	local
                         256 
                         257 	.section ".bss","awb"
                         258 .L1115:
                         259 	.type	.L1115,@object
                         260 	.size	.L1115,0
                         261 	.data
                         262 	.text
                         263 	.align	2
                         264 	.align	2
                         265 ..gh.f.f.1.e.3:
                         266 	.type	..gh.f.f.1.e.3,@object
                         267 	.size	..gh.f.f.1.e.3,0
                         268 	.global	_Dem_DisableDTCRecordUpdate
                         269 _Dem_DisableDTCRecordUpdate:
                         270 --	    .bf
                         271 .LDW61:
000000e8 e0076001        272 	di
000000ec 405e0000*       273 	movhi	hi(_Dem_EvMemDTCRecord),zero,r11
000000f0 6b070000*       274 	st.h	zero,lo(_Dem_EvMemDTCRecord)[r11]
000000f4 e0876001        275 	ei
                         276 --line138
                         277 ..lin.C.3A.5C_ECU2.5CECU_Rivian_A1.5CTarget.5Crepo_projects.5CpRealEcu.5CcR_R2023.2E09.2E15.5Cmake.5Coutput.5Cobjects.5CDem_EvMemApi.10::
                         278 .LDWlin10:
000000f8 0052            279 	mov	0,r10
                         280 --	    .ef
                         281 .LDW71:
000000fa 7f00            282 	jmp	[lp]
                         283 	.global	___ghs_eofn_Dem_DisableDTCRecordUpdate
                         284 ___ghs_eofn_Dem_DisableDTCRecordUpdate:
                         285 	.type	_Dem_DisableDTCRecordUpdate,@function
                         286 	.size	_Dem_DisableDTCRecordUpdate,.-_Dem_DisableDTCRecordUpdate
                         287 	.align	2
                         288 
                         289 --_DTC	none	param
                         290 --_DTCOrigin	none	param
                         291 

                                                                      Page 6
                                                              C:\Users\nhuliyap\AppData\Local\Temp\gh_00002581.s
                         292 	.section ".bss","awb"
                         293 .L1217:
                         294 	.type	.L1217,@object
                         295 	.size	.L1217,0
                         296 	.data
                         297 	.text
                         298 	.align	2
                         299 	.align	2
                         300 ..gh.f.f.1.e.4:
                         301 	.type	..gh.f.f.1.e.4,@object
                         302 	.size	..gh.f.f.1.e.4,0
                         303 	.global	_Dem_EnableDTCRecordUpdate
                         304 _Dem_EnableDTCRecordUpdate:
                         305 --	    .bf
                         306 .LDW81:
000000fc 0052            307 	mov	0,r10
                         308 --	    .ef
                         309 .LDW91:
000000fe 7f00            310 	jmp	[lp]
                         311 	.global	___ghs_eofn_Dem_EnableDTCRecordUpdate
                         312 ___ghs_eofn_Dem_EnableDTCRecordUpdate:
                         313 	.type	_Dem_EnableDTCRecordUpdate,@function
                         314 	.size	_Dem_EnableDTCRecordUpdate,.-_Dem_EnableDTCRecordUpdate
                         315 	.align	2
                         316 
                         317 	.section ".bss","awb"
                         318 .L1265:
                         319 	.type	.L1265,@object
                         320 	.size	.L1265,0
                         321 	.data
                         322 	.text
                         323 	.align	2
                         324 	.align	2
                         325 ..gh.f.f.1.e.5:
                         326 	.type	..gh.f.f.1.e.5,@object
                         327 	.size	..gh.f.f.1.e.5,0
                         328 	.global	_Dem_GetExtendedDataRecordByDTC
                         329 _Dem_GetExtendedDataRecordByDTC:
00000100 8607e3f0        330 	prepare	{r24,r25,r26,r27,r28,r29,r31},3,sp
00000104 8700            331 	zxb	r7
00000106 14c5            332 	sld.w	40[ep],r24
00000108 16cd            333 	sld.w	44[ep],r25
                         334 --	    .bf
                         335 .LDW02:
0000010a 613a            336 	cmp	1,r7
0000010c d20d*           337 	be	.L1293
                         338 --line162
                         339 ..lin.C.3A.5C_ECU2.5CECU_Rivian_A1.5CTarget.5Crepo_projects.5CpRealEcu.5CcR_R2023.2E09.2E15.5Cmake.5Coutput.5Cobjects.5CDem_EvMemApi.11::
                         340 .LDWlin11:
0000010e 20363600        341 	movea	54,zero,r6
00000112 003a            342 	mov	0,r7
00000114 20462000        343 	movea	32,zero,r8
00000118 204e1000        344 	movea	16,zero,r9
                         345 	jarl	_Det_ReportError,lp
                         345 <EXPANSION BEGIN>
                         345 jarl22 _Det_ReportError , lp 
0000011c 80ff0000*       345 <EXPANSION END>
                         346 --line163
                         347 ..lin.C.3A.5C_ECU2.5CECU_Rivian_A1.5CTarget.5Crepo_projects.5CpRealEcu.5CcR_R2023.2E09.2E15.5Cmake.5Coutput.5Cobjects.5CDem_EvMemApi.12::
                         348 .LDWlin12:
00000120 0352            349 	mov	3,r10

                                                                      Page 7
                                                              C:\Users\nhuliyap\AppData\Local\Temp\gh_00002581.s
00000122 4606fff0        350 	dispose	3,{r24,r25,r26,r27,r28,r29,r31},[lp]
                         351 .L1293:
00000126 08d0            352 	mov	r8,r26
00000128 9a00            353 	zxb	r26
0000012a 09e0            354 	mov	r9,r28
0000012c 06d8            355 	mov	r6,r27
0000012e 9c00            356 	zxb	r28
                         357 --line166
                         358 ..lin.C.3A.5C_ECU2.5CECU_Rivian_A1.5CTarget.5Crepo_projects.5CpRealEcu.5CcR_R2023.2E09.2E15.5Cmake.5Coutput.5Cobjects.5CDem_EvMemApi.13::
                         359 .LDWlin13:
00000130 e0d1            360 	cmp	zero,r26
00000132 b205*           361 	be	.L1290
00000134 61d2            362 	cmp	1,r26
00000136 d20d*           363 	be	.L1289
                         364 .L1290:
                         365 --line168
                         366 ..lin.C.3A.5C_ECU2.5CECU_Rivian_A1.5CTarget.5Crepo_projects.5CpRealEcu.5CcR_R2023.2E09.2E15.5Cmake.5Coutput.5Cobjects.5CDem_EvMemApi.14::
                         367 .LDWlin14:
00000138 20363600        368 	movea	54,zero,r6
0000013c 003a            369 	mov	0,r7
0000013e 20462000        370 	movea	32,zero,r8
00000142 204e1000        371 	movea	16,zero,r9
                         372 	jarl	_Det_ReportError,lp
                         372 <EXPANSION BEGIN>
                         372 jarl22 _Det_ReportError , lp 
00000146 80ff0000*       372 <EXPANSION END>
                         373 --line169
                         374 ..lin.C.3A.5C_ECU2.5CECU_Rivian_A1.5CTarget.5Crepo_projects.5CpRealEcu.5CcR_R2023.2E09.2E15.5Cmake.5Coutput.5Cobjects.5CDem_EvMemApi.15::
                         375 .LDWlin15:
0000014a 0252            376 	mov	2,r10
0000014c 4606fff0        377 	dispose	3,{r24,r25,r26,r27,r28,r29,r31},[lp]
                         378 .L1289:
                         379 --line172
                         380 ..lin.C.3A.5C_ECU2.5CECU_Rivian_A1.5CTarget.5Crepo_projects.5CpRealEcu.5CcR_R2023.2E09.2E15.5Cmake.5Coutput.5Cobjects.5CDem_EvMemApi.16::
                         381 .LDWlin16:
00000150 0552            382 	mov	5,r10
00000152 e0c1            383 	cmp	zero,r24
00000154 a275*           384 	be	.L1283
00000156 e0c9            385 	cmp	zero,r25
00000158 ba05*           386 	bne	.L1298
0000015a 4606fff0        387 	dispose	3,{r24,r25,r26,r27,r28,r29,r31},[lp]
                         388 .L1298:
                         389 --line174
                         390 ..lin.C.3A.5C_ECU2.5CECU_Rivian_A1.5CTarget.5Crepo_projects.5CpRealEcu.5CcR_R2023.2E09.2E15.5Cmake.5Coutput.5Cobjects.5CDem_EvMemApi.17::
                         391 .LDWlin17:
0000015e 3d0600000000*   392 	mov	_DemDtcCodeCopy,r29
                         393 --line177
                         394 ..lin.C.3A.5C_ECU2.5CECU_Rivian_A1.5CTarget.5Crepo_projects.5CpRealEcu.5CcR_R2023.2E09.2E15.5Cmake.5Coutput.5Cobjects.5CDem_EvMemApi.18::
                         395 .LDWlin18:
00000164 3d370100        396 	ld.w	0[r29],r6
00000168 e6d9            397 	cmp	r6,r27
0000016a f205*           398 	be	.L1302
                         399 --line179
                         400 ..lin.C.3A.5C_ECU2.5CECU_Rivian_A1.5CTarget.5Crepo_projects.5CpRealEcu.5CcR_R2023.2E09.2E15.5Cmake.5Coutput.5Cobjects.5CDem_EvMemApi.19::
                         401 .LDWlin19:
0000016c 1b30            402 	mov	r27,r6
                         403 	jarl	_Dem_DtcIdFromDtcCode,lp
                         403 <EXPANSION BEGIN>
                         403 jarl22 _Dem_DtcIdFromDtcCode , lp 
0000016e 80ff0000*       403 <EXPANSION END>
00000172 1df0            404 	mov	r29,ep

                                                                      Page 8
                                                              C:\Users\nhuliyap\AppData\Local\Temp\gh_00002581.s
00000174 8654            405 	sst.h	r10,12[ep]
                         406 --line180
                         407 ..lin.C.3A.5C_ECU2.5CECU_Rivian_A1.5CTarget.5Crepo_projects.5CpRealEcu.5CcR_R2023.2E09.2E15.5Cmake.5Coutput.5Cobjects.5CDem_EvMemApi.20::
                         408 .LDWlin20:
00000176 01dd            409 	sst.w	r27,0[ep]
                         410 .L1302:
00000178 fdef0d00        411 	ld.hu	12[r29],r29
0000017c 1d8effff        412 	addi	-1,r29,r17
00000180 1106d7ff        413 	addi	-41,r17,zero
00000184 f105*           414 	bl	.L1305
00000186 40f60000*       415 	movhi	hi(_Dem_AllDTCsState),zero,ep
0000018a ddf1            416 	add	r29,ep
0000018c dec70000*       417 	tst1	0,lo(_Dem_AllDTCsState)[ep]
00000190 d20d*           418 	be	.L1304
                         419 .L1305:
                         420 --line186
                         421 ..lin.C.3A.5C_ECU2.5CECU_Rivian_A1.5CTarget.5Crepo_projects.5CpRealEcu.5CcR_R2023.2E09.2E15.5Cmake.5Coutput.5Cobjects.5CDem_EvMemApi.21::
                         422 .LDWlin21:
00000192 20363600        423 	movea	54,zero,r6
00000196 003a            424 	mov	0,r7
00000198 20462000        425 	movea	32,zero,r8
0000019c 204e1000        426 	movea	16,zero,r9
                         427 	jarl	_Det_ReportError,lp
                         427 <EXPANSION BEGIN>
                         427 jarl22 _Det_ReportError , lp 
000001a0 80ff0000*       427 <EXPANSION END>
                         428 --line187
                         429 ..lin.C.3A.5C_ECU2.5CECU_Rivian_A1.5CTarget.5Crepo_projects.5CpRealEcu.5CcR_R2023.2E09.2E15.5Cmake.5Coutput.5Cobjects.5CDem_EvMemApi.22::
                         430 .LDWlin22:
000001a4 1a50            431 	mov	r26,r10
000001a6 4606fff0        432 	dispose	3,{r24,r25,r26,r27,r28,r29,r31},[lp]
                         433 .L1304:
                         434 --line190
                         435 ..lin.C.3A.5C_ECU2.5CECU_Rivian_A1.5CTarget.5Crepo_projects.5CpRealEcu.5CcR_R2023.2E09.2E15.5Cmake.5Coutput.5Cobjects.5CDem_EvMemApi.23::
                         436 .LDWlin23:
000001aa 1df0            437 	mov	r29,ep
000001ac c1f2            438 	shl	1,ep
000001ae 300600000000*   439 	mov	_Dem_MapDtcIdToEventId,r16
000001b4 d0f1            440 	add	r16,ep
000001b6 7030            441 	sld.hu	0[ep],r6
                         442 --line192
                         443 ..lin.C.3A.5C_ECU2.5CECU_Rivian_A1.5CTarget.5Crepo_projects.5CpRealEcu.5CcR_R2023.2E09.2E15.5Cmake.5Coutput.5Cobjects.5CDem_EvMemApi.24::
                         444 .LDWlin24:
000001b8 1c38            445 	mov	r28,r7
000001ba 23460b00        446 	movea	11,sp,r8
                         447 	jarl	_Dem_EnvIsEDRNumberValid,lp
                         447 <EXPANSION BEGIN>
                         447 jarl22 _Dem_EnvIsEDRNumberValid , lp 
000001be 80ff0000*       447 <EXPANSION END>
000001c2 e051            448 	cmp	zero,r10
000001c4 aa15*           449 	bne	.L1320
                         450 --line195
                         451 ..lin.C.3A.5C_ECU2.5CECU_Rivian_A1.5CTarget.5Crepo_projects.5CpRealEcu.5CcR_R2023.2E09.2E15.5Cmake.5Coutput.5Cobjects.5CDem_EvMemApi.25::
                         452 .LDWlin25:
000001c6 1c86ffff        453 	addi	-1,r28,r16
000001ca 100611ff        454 	addi	-239,r16,zero
000001ce a90d*           455 	bnl	.L1322
                         456 --line197
                         457 ..lin.C.3A.5C_ECU2.5CECU_Rivian_A1.5CTarget.5Crepo_projects.5CpRealEcu.5CcR_R2023.2E09.2E15.5Cmake.5Coutput.5Cobjects.5CDem_EvMemApi.26::
                         458 .LDWlin26:
000001d0 20363600        459 	movea	54,zero,r6

                                                                      Page 9
                                                              C:\Users\nhuliyap\AppData\Local\Temp\gh_00002581.s
000001d4 0a38            460 	mov	r10,r7
000001d6 20462000        461 	movea	32,zero,r8
000001da 204e1000        462 	movea	16,zero,r9
                         463 	jarl	_Det_ReportError,lp
                         463 <EXPANSION BEGIN>
                         463 jarl22 _Det_ReportError , lp 
000001de 80ff0000*       463 <EXPANSION END>
                         464 .L1322:
                         465 --line199
                         466 ..lin.C.3A.5C_ECU2.5CECU_Rivian_A1.5CTarget.5Crepo_projects.5CpRealEcu.5CcR_R2023.2E09.2E15.5Cmake.5Coutput.5Cobjects.5CDem_EvMemApi.27::
                         467 .LDWlin27:
000001e2 0452            468 	mov	4,r10
000001e4 4606fff0        469 	dispose	3,{r24,r25,r26,r27,r28,r29,r31},[lp]
                         470 .L1320:
                         471 --line202
                         472 ..lin.C.3A.5C_ECU2.5CECU_Rivian_A1.5CTarget.5Crepo_projects.5CpRealEcu.5CcR_R2023.2E09.2E15.5Cmake.5Coutput.5Cobjects.5CDem_EvMemApi.28::
                         473 .LDWlin28:
000001e8 1d30            474 	mov	r29,r6
000001ea 1a38            475 	mov	r26,r7
                         476 	jarl	_Dem_EvMemReqSyncDataRecord,lp
                         476 <EXPANSION BEGIN>
                         476 jarl22 _Dem_EvMemReqSyncDataRecord , lp 
000001ec bfff2afe*       476 <EXPANSION END>
000001f0 e051            477 	cmp	zero,r10
                         478 --line204
                         479 ..lin.C.3A.5C_ECU2.5CECU_Rivian_A1.5CTarget.5Crepo_projects.5CpRealEcu.5CcR_R2023.2E09.2E15.5Cmake.5Coutput.5Cobjects.5CDem_EvMemApi.29::
                         480 .LDWlin29:
000001f2 ca05*           481 	bne	.L1326
000001f4 0652            482 	mov	6,r10
000001f6 4606fff0        483 	dispose	3,{r24,r25,r26,r27,r28,r29,r31},[lp]
                         484 .L1326:
                         485 --line207
                         486 ..lin.C.3A.5C_ECU2.5CECU_Rivian_A1.5CTarget.5Crepo_projects.5CpRealEcu.5CcR_R2023.2E09.2E15.5Cmake.5Coutput.5Cobjects.5CDem_EvMemApi.30::
                         487 .LDWlin30:
000001fa 3e0600000000*   488 	mov	_Dem_EvMemDTCRecord,ep
00000200 6548            489 	sld.bu	5[ep],r9
00000202 e049            490 	cmp	zero,r9
00000204 f205*           491 	be	.L1333
                         492 --line213
                         493 ..lin.C.3A.5C_ECU2.5CECU_Rivian_A1.5CTarget.5Crepo_projects.5CpRealEcu.5CcR_R2023.2E09.2E15.5Cmake.5Coutput.5Cobjects.5CDem_EvMemApi.31::
                         494 .LDWlin31:
00000206 a3970b00        495 	ld.bu	11[sp],r18
0000020a 9e473100        496 	ld.bu	48[ep],r8
0000020e 4891            497 	and	r8,r18
00000210 ea05*           498 	bne	.L1332
                         499 .L1333:
                         500 --line215
                         501 ..lin.C.3A.5C_ECU2.5CECU_Rivian_A1.5CTarget.5Crepo_projects.5CpRealEcu.5CcR_R2023.2E09.2E15.5Cmake.5Coutput.5Cobjects.5CDem_EvMemApi.32::
                         502 .LDWlin32:
00000212 79070000        503 	st.h	zero,0[r25]
00000216 0052            504 	mov	0,r10
00000218 4606fff0        505 	dispose	3,{r24,r25,r26,r27,r28,r29,r31},[lp]
                         506 .L1332:
                         507 --line219
                         508 ..lin.C.3A.5C_ECU2.5CECU_Rivian_A1.5CTarget.5Crepo_projects.5CpRealEcu.5CcR_R2023.2E09.2E15.5Cmake.5Coutput.5Cobjects.5CDem_EvMemApi.33::
                         509 .LDWlin33:
0000021c 7530            510 	sld.hu	10[ep],r6
0000021e 1e8e0c00        511 	addi	12,ep,r17
00000222 1e860800        512 	addi	8,ep,r16
00000226 1c38            513 	mov	r28,r7
00000228 1840            514 	mov	r24,r8

                                                                      Page 10
                                                              C:\Users\nhuliyap\AppData\Local\Temp\gh_00002581.s
0000022a 1948            515 	mov	r25,r9
0000022c 638f0100        516 	st.w	r17,0[sp]
00000230 63870500        517 	st.w	r16,4[sp]
                         518 	jarl	_Dem_EnvRetrieveEDR,lp
                         518 <EXPANSION BEGIN>
                         518 jarl22 _Dem_EnvRetrieveEDR , lp 
00000234 80ff0000*       518 <EXPANSION END>
                         519 .L1283:
                         520 --	    .ef
                         521 .LDW12:
                         522 --line219
                         523 ..lin.C.3A.5C_ECU2.5CECU_Rivian_A1.5CTarget.5Crepo_projects.5CpRealEcu.5CcR_R2023.2E09.2E15.5Cmake.5Coutput.5Cobjects.5CDem_EvMemApi.34::
                         524 .LDWlin34:
00000238 4606fff0        525 	dispose	3,{r24,r25,r26,r27,r28,r29,r31},[lp]
                         526 	.global	___ghs_eofn_Dem_GetExtendedDataRecordByDTC
                         527 ___ghs_eofn_Dem_GetExtendedDataRecordByDTC:
                         528 	.type	_Dem_GetExtendedDataRecordByDTC,@function
                         529 	.size	_Dem_GetExtendedDataRecordByDTC,.-_Dem_GetExtendedDataRecordByDTC
                         530 	.align	2
                         531 --_DtcId	r29	local
                         532 --_EventId	r6	local
                         533 --_Trigger	11[sp]	local
                         534 
                         535 --_DTC	r27	param
                         536 --_DTCKind	r7	param
                         537 --_DTCOrigin	r26	param
                         538 --_ExtendedDataNumber	r28	param
                         539 --_DestBuffer	r24	param
                         540 --_BufSize	r25	param
                         541 
                         542 	.data
                         543 	.text
                         544 	.align	2
                         545 	.align	2
                         546 ..gh.f.f.1.e.6:
                         547 	.type	..gh.f.f.1.e.6,@object
                         548 	.size	..gh.f.f.1.e.6,0
                         549 	.global	_Dem_GetSizeOfExtendedDataRecordByDTC
                         550 _Dem_GetSizeOfExtendedDataRecordByDTC:
0000023c 8207e130        551 	prepare	{r26,r27,r28,r29,r31},1
00000240 8700            552 	zxb	r7
00000242 23d71900        553 	ld.w	24[sp],r26
                         554 --	    .bf
                         555 .LDW22:
00000246 613a            556 	cmp	1,r7
00000248 d20d*           557 	be	.L1852
                         558 --line234
                         559 ..lin.C.3A.5C_ECU2.5CECU_Rivian_A1.5CTarget.5Crepo_projects.5CpRealEcu.5CcR_R2023.2E09.2E15.5Cmake.5Coutput.5Cobjects.5CDem_EvMemApi.35::
                         560 .LDWlin35:
0000024a 20363600        561 	movea	54,zero,r6
0000024e 003a            562 	mov	0,r7
00000250 20462100        563 	movea	33,zero,r8
00000254 204e1000        564 	movea	16,zero,r9
                         565 	jarl	_Det_ReportError,lp
                         565 <EXPANSION BEGIN>
                         565 jarl22 _Det_ReportError , lp 
00000258 80ff0000*       565 <EXPANSION END>
                         566 --line235
                         567 ..lin.C.3A.5C_ECU2.5CECU_Rivian_A1.5CTarget.5Crepo_projects.5CpRealEcu.5CcR_R2023.2E09.2E15.5Cmake.5Coutput.5Cobjects.5CDem_EvMemApi.36::
                         568 .LDWlin36:
0000025c 0352            569 	mov	3,r10

                                                                      Page 11
                                                              C:\Users\nhuliyap\AppData\Local\Temp\gh_00002581.s
0000025e 4206ff30        570 	dispose	1,{r26,r27,r28,r29,r31},[lp]
                         571 .L1852:
00000262 8800            572 	zxb	r8
00000264 09e0            573 	mov	r9,r28
00000266 06d8            574 	mov	r6,r27
00000268 9c00            575 	zxb	r28
0000026a 3d0600000000*   576 	mov	_DemDtcCodeCopy,r29
                         577 --line238
                         578 ..lin.C.3A.5C_ECU2.5CECU_Rivian_A1.5CTarget.5Crepo_projects.5CpRealEcu.5CcR_R2023.2E09.2E15.5Cmake.5Coutput.5Cobjects.5CDem_EvMemApi.37::
                         579 .LDWlin37:
00000270 e041            580 	cmp	zero,r8
00000272 b205*           581 	be	.L1849
00000274 6142            582 	cmp	1,r8
00000276 d20d*           583 	be	.L1848
                         584 .L1849:
                         585 --line240
                         586 ..lin.C.3A.5C_ECU2.5CECU_Rivian_A1.5CTarget.5Crepo_projects.5CpRealEcu.5CcR_R2023.2E09.2E15.5Cmake.5Coutput.5Cobjects.5CDem_EvMemApi.38::
                         587 .LDWlin38:
00000278 20363600        588 	movea	54,zero,r6
0000027c 003a            589 	mov	0,r7
0000027e 20462100        590 	movea	33,zero,r8
00000282 204e1000        591 	movea	16,zero,r9
                         592 	jarl	_Det_ReportError,lp
                         592 <EXPANSION BEGIN>
                         592 jarl22 _Det_ReportError , lp 
00000286 80ff0000*       592 <EXPANSION END>
                         593 --line241
                         594 ..lin.C.3A.5C_ECU2.5CECU_Rivian_A1.5CTarget.5Crepo_projects.5CpRealEcu.5CcR_R2023.2E09.2E15.5Cmake.5Coutput.5Cobjects.5CDem_EvMemApi.39::
                         595 .LDWlin39:
0000028a 0252            596 	mov	2,r10
0000028c 4206ff30        597 	dispose	1,{r26,r27,r28,r29,r31},[lp]
                         598 .L1848:
                         599 --line244
                         600 ..lin.C.3A.5C_ECU2.5CECU_Rivian_A1.5CTarget.5Crepo_projects.5CpRealEcu.5CcR_R2023.2E09.2E15.5Cmake.5Coutput.5Cobjects.5CDem_EvMemApi.40::
                         601 .LDWlin40:
00000290 3d370100        602 	ld.w	0[r29],r6
00000294 e6d9            603 	cmp	r6,r27
00000296 f205*           604 	be	.L1857
                         605 --line246
                         606 ..lin.C.3A.5C_ECU2.5CECU_Rivian_A1.5CTarget.5Crepo_projects.5CpRealEcu.5CcR_R2023.2E09.2E15.5Cmake.5Coutput.5Cobjects.5CDem_EvMemApi.41::
                         607 .LDWlin41:
00000298 1b30            608 	mov	r27,r6
                         609 	jarl	_Dem_DtcIdFromDtcCode,lp
                         609 <EXPANSION BEGIN>
                         609 jarl22 _Dem_DtcIdFromDtcCode , lp 
0000029a 80ff0000*       609 <EXPANSION END>
0000029e 1df0            610 	mov	r29,ep
000002a0 8654            611 	sst.h	r10,12[ep]
                         612 --line247
                         613 ..lin.C.3A.5C_ECU2.5CECU_Rivian_A1.5CTarget.5Crepo_projects.5CpRealEcu.5CcR_R2023.2E09.2E15.5Cmake.5Coutput.5Cobjects.5CDem_EvMemApi.42::
                         614 .LDWlin42:
000002a2 01dd            615 	sst.w	r27,0[ep]
                         616 .L1857:
000002a4 fd970d00        617 	ld.hu	12[r29],r18
000002a8 123effff        618 	addi	-1,r18,r7
000002ac 0706d7ff        619 	addi	-41,r7,zero
000002b0 f105*           620 	bl	.L1860
000002b2 40f60000*       621 	movhi	hi(_Dem_AllDTCsState),zero,ep
000002b6 d2f1            622 	add	r18,ep
000002b8 dec70000*       623 	tst1	0,lo(_Dem_AllDTCsState)[ep]
000002bc d20d*           624 	be	.L1859

                                                                      Page 12
                                                              C:\Users\nhuliyap\AppData\Local\Temp\gh_00002581.s
                         625 .L1860:
                         626 --line253
                         627 ..lin.C.3A.5C_ECU2.5CECU_Rivian_A1.5CTarget.5Crepo_projects.5CpRealEcu.5CcR_R2023.2E09.2E15.5Cmake.5Coutput.5Cobjects.5CDem_EvMemApi.43::
                         628 .LDWlin43:
000002be 20363600        629 	movea	54,zero,r6
000002c2 003a            630 	mov	0,r7
000002c4 20462100        631 	movea	33,zero,r8
000002c8 204e1000        632 	movea	16,zero,r9
                         633 	jarl	_Det_ReportError,lp
                         633 <EXPANSION BEGIN>
                         633 jarl22 _Det_ReportError , lp 
000002cc 80ff0000*       633 <EXPANSION END>
                         634 --line254
                         635 ..lin.C.3A.5C_ECU2.5CECU_Rivian_A1.5CTarget.5Crepo_projects.5CpRealEcu.5CcR_R2023.2E09.2E15.5Cmake.5Coutput.5Cobjects.5CDem_EvMemApi.44::
                         636 .LDWlin44:
000002d0 0152            637 	mov	1,r10
000002d2 4206ff30        638 	dispose	1,{r26,r27,r28,r29,r31},[lp]
                         639 .L1859:
                         640 --line257
                         641 ..lin.C.3A.5C_ECU2.5CECU_Rivian_A1.5CTarget.5Crepo_projects.5CpRealEcu.5CcR_R2023.2E09.2E15.5Cmake.5Coutput.5Cobjects.5CDem_EvMemApi.45::
                         642 .LDWlin45:
000002d6 12f0            643 	mov	r18,ep
000002d8 c1f2            644 	shl	1,ep
000002da 2f0600000000*   645 	mov	_Dem_MapDtcIdToEventId,r15
000002e0 cff1            646 	add	r15,ep
000002e2 70e8            647 	sld.hu	0[ep],r29
                         648 --line259
                         649 ..lin.C.3A.5C_ECU2.5CECU_Rivian_A1.5CTarget.5Crepo_projects.5CpRealEcu.5CcR_R2023.2E09.2E15.5Cmake.5Coutput.5Cobjects.5CDem_EvMemApi.46::
                         650 .LDWlin46:
000002e4 1c38            651 	mov	r28,r7
000002e6 23460300        652 	movea	3,sp,r8
000002ea 1d30            653 	mov	r29,r6
                         654 	jarl	_Dem_EnvIsEDRNumberValid,lp
                         654 <EXPANSION BEGIN>
                         654 jarl22 _Dem_EnvIsEDRNumberValid , lp 
000002ec 80ff0000*       654 <EXPANSION END>
000002f0 e051            655 	cmp	zero,r10
000002f2 8a15*           656 	bne	.L1875
000002f4 1c0601ff        657 	addi	-255,r28,zero
000002f8 8215*           658 	be	.L1880
                         659 --line261
                         660 ..lin.C.3A.5C_ECU2.5CECU_Rivian_A1.5CTarget.5Crepo_projects.5CpRealEcu.5CcR_R2023.2E09.2E15.5Cmake.5Coutput.5Cobjects.5CDem_EvMemApi.47::
                         661 .LDWlin47:
000002fa 20363600        662 	movea	54,zero,r6
000002fe 0a38            663 	mov	r10,r7
00000300 20462100        664 	movea	33,zero,r8
00000304 204e1000        665 	movea	16,zero,r9
                         666 	jarl	_Det_ReportError,lp
                         666 <EXPANSION BEGIN>
                         666 jarl22 _Det_ReportError , lp 
00000308 80ff0000*       666 <EXPANSION END>
                         667 --line262
                         668 ..lin.C.3A.5C_ECU2.5CECU_Rivian_A1.5CTarget.5Crepo_projects.5CpRealEcu.5CcR_R2023.2E09.2E15.5Cmake.5Coutput.5Cobjects.5CDem_EvMemApi.48::
                         669 .LDWlin48:
0000030c 0452            670 	mov	4,r10
0000030e 4206ff30        671 	dispose	1,{r26,r27,r28,r29,r31},[lp]
                         672 .L1875:
                         673 --line265
                         674 ..lin.C.3A.5C_ECU2.5CECU_Rivian_A1.5CTarget.5Crepo_projects.5CpRealEcu.5CcR_R2023.2E09.2E15.5Cmake.5Coutput.5Cobjects.5CDem_EvMemApi.49::
                         675 .LDWlin49:
00000312 1c0601ff        676 	addi	-255,r28,zero

                                                                      Page 13
                                                              C:\Users\nhuliyap\AppData\Local\Temp\gh_00002581.s
00000316 fa05*           677 	bne	.L1879
                         678 .L1880:
                         679 --line267
                         680 ..lin.C.3A.5C_ECU2.5CECU_Rivian_A1.5CTarget.5Crepo_projects.5CpRealEcu.5CcR_R2023.2E09.2E15.5Cmake.5Coutput.5Cobjects.5CDem_EvMemApi.50::
                         681 .LDWlin50:
00000318 1d30            682 	mov	r29,r6
0000031a 1a38            683 	mov	r26,r7
                         684 	jarl	_Dem_EnvGetSizeOfED,lp
                         684 <EXPANSION BEGIN>
                         684 jarl22 _Dem_EnvGetSizeOfED , lp 
0000031c 80ff0000*       684 <EXPANSION END>
00000320 4206ff30        685 	dispose	1,{r26,r27,r28,r29,r31},[lp]
                         686 .L1879:
                         687 --line271
                         688 ..lin.C.3A.5C_ECU2.5CECU_Rivian_A1.5CTarget.5Crepo_projects.5CpRealEcu.5CcR_R2023.2E09.2E15.5Cmake.5Coutput.5Cobjects.5CDem_EvMemApi.51::
                         689 .LDWlin51:
00000324 1d30            690 	mov	r29,r6
00000326 1c38            691 	mov	r28,r7
00000328 1a40            692 	mov	r26,r8
                         693 	jarl	_Dem_EnvGetSizeOfEDR,lp
                         693 <EXPANSION BEGIN>
                         693 jarl22 _Dem_EnvGetSizeOfEDR , lp 
0000032a 80ff0000*       693 <EXPANSION END>
                         694 --	    .ef
                         695 .LDW32:
                         696 --line272
                         697 ..lin.C.3A.5C_ECU2.5CECU_Rivian_A1.5CTarget.5Crepo_projects.5CpRealEcu.5CcR_R2023.2E09.2E15.5Cmake.5Coutput.5Cobjects.5CDem_EvMemApi.52::
                         698 .LDWlin52:
0000032e 4206ff30        699 	dispose	1,{r26,r27,r28,r29,r31},[lp]
                         700 	.global	___ghs_eofn_Dem_GetSizeOfExtendedDataRecordByDTC
                         701 ___ghs_eofn_Dem_GetSizeOfExtendedDataRecordByDTC:
                         702 	.type	_Dem_GetSizeOfExtendedDataRecordByDTC,@function
                         703 	.size	_Dem_GetSizeOfExtendedDataRecordByDTC,.-_Dem_GetSizeOfExtendedDataRecordByDTC
                         704 	.align	2
                         705 --_DtcId	r18	local
                         706 --_EventId	r29	local
                         707 --_Trigger	3[sp]	local
                         708 
                         709 --_DTC	r27	param
                         710 --_DTCKind	r7	param
                         711 --_DTCOrigin	r8	param
                         712 --_ExtendedDataNumber	r28	param
                         713 --_SizeOfExtendedDataRecord	r26	param
                         714 
                         715 	.data
                         716 	.text
                         717 	.align	2
                         718 	.align	2
                         719 ..gh.f.f.1.e.7:
                         720 	.type	..gh.f.f.1.e.7,@object
                         721 	.size	..gh.f.f.1.e.7,0
                         722 	.global	_Dem_GetFreezeFrameDataByDTC
                         723 _Dem_GetFreezeFrameDataByDTC:
00000332 8407e3f0        724 	prepare	{r24,r25,r26,r27,r28,r29,r31},2,sp
00000336 8700            725 	zxb	r7
00000338 12c5            726 	sld.w	36[ep],r24
0000033a 14cd            727 	sld.w	40[ep],r25
                         728 --	    .bf
                         729 .LDW42:
0000033c 613a            730 	cmp	1,r7
0000033e d20d*           731 	be	.L2262

                                                                      Page 14
                                                              C:\Users\nhuliyap\AppData\Local\Temp\gh_00002581.s
                         732 --line291
                         733 ..lin.C.3A.5C_ECU2.5CECU_Rivian_A1.5CTarget.5Crepo_projects.5CpRealEcu.5CcR_R2023.2E09.2E15.5Cmake.5Coutput.5Cobjects.5CDem_EvMemApi.53::
                         734 .LDWlin53:
00000340 20363600        735 	movea	54,zero,r6
00000344 003a            736 	mov	0,r7
00000346 20461d00        737 	movea	29,zero,r8
0000034a 204e1000        738 	movea	16,zero,r9
                         739 	jarl	_Det_ReportError,lp
                         739 <EXPANSION BEGIN>
                         739 jarl22 _Det_ReportError , lp 
0000034e 80ff0000*       739 <EXPANSION END>
                         740 --line292
                         741 ..lin.C.3A.5C_ECU2.5CECU_Rivian_A1.5CTarget.5Crepo_projects.5CpRealEcu.5CcR_R2023.2E09.2E15.5Cmake.5Coutput.5Cobjects.5CDem_EvMemApi.54::
                         742 .LDWlin54:
00000352 0352            743 	mov	3,r10
00000354 4406fff0        744 	dispose	2,{r24,r25,r26,r27,r28,r29,r31},[lp]
                         745 .L2262:
00000358 08d0            746 	mov	r8,r26
0000035a 9a00            747 	zxb	r26
0000035c 09e0            748 	mov	r9,r28
0000035e 06d8            749 	mov	r6,r27
00000360 9c00            750 	zxb	r28
00000362 3d0600000000*   751 	mov	_DemDtcCodeCopy,r29
                         752 --line295
                         753 ..lin.C.3A.5C_ECU2.5CECU_Rivian_A1.5CTarget.5Crepo_projects.5CpRealEcu.5CcR_R2023.2E09.2E15.5Cmake.5Coutput.5Cobjects.5CDem_EvMemApi.55::
                         754 .LDWlin55:
00000368 e0d1            755 	cmp	zero,r26
0000036a b205*           756 	be	.L2259
0000036c 61d2            757 	cmp	1,r26
0000036e d20d*           758 	be	.L2258
                         759 .L2259:
                         760 --line297
                         761 ..lin.C.3A.5C_ECU2.5CECU_Rivian_A1.5CTarget.5Crepo_projects.5CpRealEcu.5CcR_R2023.2E09.2E15.5Cmake.5Coutput.5Cobjects.5CDem_EvMemApi.56::
                         762 .LDWlin56:
00000370 20363600        763 	movea	54,zero,r6
00000374 003a            764 	mov	0,r7
00000376 20461d00        765 	movea	29,zero,r8
0000037a 204e1000        766 	movea	16,zero,r9
                         767 	jarl	_Det_ReportError,lp
                         767 <EXPANSION BEGIN>
                         767 jarl22 _Det_ReportError , lp 
0000037e 80ff0000*       767 <EXPANSION END>
                         768 --line298
                         769 ..lin.C.3A.5C_ECU2.5CECU_Rivian_A1.5CTarget.5Crepo_projects.5CpRealEcu.5CcR_R2023.2E09.2E15.5Cmake.5Coutput.5Cobjects.5CDem_EvMemApi.57::
                         770 .LDWlin57:
00000382 0252            771 	mov	2,r10
00000384 4406fff0        772 	dispose	2,{r24,r25,r26,r27,r28,r29,r31},[lp]
                         773 .L2258:
                         774 --line301
                         775 ..lin.C.3A.5C_ECU2.5CECU_Rivian_A1.5CTarget.5Crepo_projects.5CpRealEcu.5CcR_R2023.2E09.2E15.5Cmake.5Coutput.5Cobjects.5CDem_EvMemApi.58::
                         776 .LDWlin58:
00000388 0552            777 	mov	5,r10
0000038a e0c1            778 	cmp	zero,r24
0000038c f275*           779 	be	.L2252
0000038e e0c9            780 	cmp	zero,r25
00000390 ba05*           781 	bne	.L2267
00000392 4406fff0        782 	dispose	2,{r24,r25,r26,r27,r28,r29,r31},[lp]
                         783 .L2267:
                         784 --line306
                         785 ..lin.C.3A.5C_ECU2.5CECU_Rivian_A1.5CTarget.5Crepo_projects.5CpRealEcu.5CcR_R2023.2E09.2E15.5Cmake.5Coutput.5Cobjects.5CDem_EvMemApi.59::
                         786 .LDWlin59:

                                                                      Page 15
                                                              C:\Users\nhuliyap\AppData\Local\Temp\gh_00002581.s
00000396 3d370100        787 	ld.w	0[r29],r6
0000039a e6d9            788 	cmp	r6,r27
0000039c f205*           789 	be	.L2271
                         790 --line308
                         791 ..lin.C.3A.5C_ECU2.5CECU_Rivian_A1.5CTarget.5Crepo_projects.5CpRealEcu.5CcR_R2023.2E09.2E15.5Cmake.5Coutput.5Cobjects.5CDem_EvMemApi.60::
                         792 .LDWlin60:
0000039e 1b30            793 	mov	r27,r6
                         794 	jarl	_Dem_DtcIdFromDtcCode,lp
                         794 <EXPANSION BEGIN>
                         794 jarl22 _Dem_DtcIdFromDtcCode , lp 
000003a0 80ff0000*       794 <EXPANSION END>
000003a4 1df0            795 	mov	r29,ep
000003a6 8654            796 	sst.h	r10,12[ep]
                         797 --line309
                         798 ..lin.C.3A.5C_ECU2.5CECU_Rivian_A1.5CTarget.5Crepo_projects.5CpRealEcu.5CcR_R2023.2E09.2E15.5Cmake.5Coutput.5Cobjects.5CDem_EvMemApi.61::
                         799 .LDWlin61:
000003a8 01dd            800 	sst.w	r27,0[ep]
                         801 .L2271:
000003aa fd370d00        802 	ld.hu	12[r29],r6
000003ae 0646ffff        803 	addi	-1,r6,r8
000003b2 0806d7ff        804 	addi	-41,r8,zero
000003b6 910d*           805 	bl	.L2274
000003b8 3e0600000000*   806 	mov	_Dem_AllDTCsState,ep
000003be c6f1            807 	add	r6,ep
000003c0 6088            808 	sld.bu	0[ep],r17
000003c2 d1960100        809 	andi	1,r17,r18
000003c6 d20d*           810 	be	.L2273
                         811 .L2274:
                         812 --line315
                         813 ..lin.C.3A.5C_ECU2.5CECU_Rivian_A1.5CTarget.5Crepo_projects.5CpRealEcu.5CcR_R2023.2E09.2E15.5Cmake.5Coutput.5Cobjects.5CDem_EvMemApi.62::
                         814 .LDWlin62:
000003c8 20363600        815 	movea	54,zero,r6
000003cc 003a            816 	mov	0,r7
000003ce 20461d00        817 	movea	29,zero,r8
000003d2 204e1000        818 	movea	16,zero,r9
                         819 	jarl	_Det_ReportError,lp
                         819 <EXPANSION BEGIN>
                         819 jarl22 _Det_ReportError , lp 
000003d6 80ff0000*       819 <EXPANSION END>
                         820 --line316
                         821 ..lin.C.3A.5C_ECU2.5CECU_Rivian_A1.5CTarget.5Crepo_projects.5CpRealEcu.5CcR_R2023.2E09.2E15.5Cmake.5Coutput.5Cobjects.5CDem_EvMemApi.63::
                         822 .LDWlin63:
000003da 1a50            823 	mov	r26,r10
000003dc 4406fff0        824 	dispose	2,{r24,r25,r26,r27,r28,r29,r31},[lp]
                         825 .L2273:
                         826 --line321
                         827 ..lin.C.3A.5C_ECU2.5CECU_Rivian_A1.5CTarget.5Crepo_projects.5CpRealEcu.5CcR_R2023.2E09.2E15.5Cmake.5Coutput.5Cobjects.5CDem_EvMemApi.64::
                         828 .LDWlin64:
000003e0 1c0601ff        829 	addi	-255,r28,zero
000003e4 da0d*           830 	bne	.L2296
                         831 --line323
                         832 ..lin.C.3A.5C_ECU2.5CECU_Rivian_A1.5CTarget.5Crepo_projects.5CpRealEcu.5CcR_R2023.2E09.2E15.5Cmake.5Coutput.5Cobjects.5CDem_EvMemApi.65::
                         833 .LDWlin65:
000003e6 20363600        834 	movea	54,zero,r6
000003ea 1238            835 	mov	r18,r7
000003ec 20461d00        836 	movea	29,zero,r8
000003f0 204e1000        837 	movea	16,zero,r9
                         838 	jarl	_Det_ReportError,lp
                         838 <EXPANSION BEGIN>
                         838 jarl22 _Det_ReportError , lp 
000003f4 80ff0000*       838 <EXPANSION END>

                                                                      Page 16
                                                              C:\Users\nhuliyap\AppData\Local\Temp\gh_00002581.s
                         839 --line324
                         840 ..lin.C.3A.5C_ECU2.5CECU_Rivian_A1.5CTarget.5Crepo_projects.5CpRealEcu.5CcR_R2023.2E09.2E15.5Cmake.5Coutput.5Cobjects.5CDem_EvMemApi.66::
                         841 .LDWlin66:
000003f8 0452            842 	mov	4,r10
000003fa 4406fff0        843 	dispose	2,{r24,r25,r26,r27,r28,r29,r31},[lp]
                         844 .L2296:
000003fe 06f0            845 	mov	r6,ep
00000400 c1f2            846 	shl	1,ep
00000402 300600000000*   847 	mov	_Dem_MapDtcIdToEventId,r16
00000408 d0f1            848 	add	r16,ep
0000040a 70f0            849 	sld.hu	0[ep],ep
                         850 --line327
                         851 ..lin.C.3A.5C_ECU2.5CECU_Rivian_A1.5CTarget.5Crepo_projects.5CpRealEcu.5CcR_R2023.2E09.2E15.5Cmake.5Coutput.5Cobjects.5CDem_EvMemApi.67::
                         852 .LDWlin67:
0000040c 0452            853 	mov	4,r10
0000040e e0e1            854 	cmp	zero,r28
00000410 d235*           855 	be	.L2252
00000412 c2f2            856 	shl	2,ep
00000414 2f0600000000*   857 	mov	_Dem_EvtParam_32,r15
0000041a cff1            858 	add	r15,ep
0000041c 009d            859 	sld.w	0[ep],r19
0000041e 939a            860 	shr	19,r19
00000420 d3760100        861 	andi	1,r19,r14
00000424 eee1            862 	cmp	r14,r28
00000426 b305*           863 	bnh	.L2292
00000428 4406fff0        864 	dispose	2,{r24,r25,r26,r27,r28,r29,r31},[lp]
                         865 .L2292:
                         866 --line332
                         867 ..lin.C.3A.5C_ECU2.5CECU_Rivian_A1.5CTarget.5Crepo_projects.5CpRealEcu.5CcR_R2023.2E09.2E15.5Cmake.5Coutput.5Cobjects.5CDem_EvMemApi.68::
                         868 .LDWlin68:
0000042c 1a38            869 	mov	r26,r7
                         870 	jarl	_Dem_EvMemReqSyncDataRecord,lp
                         870 <EXPANSION BEGIN>
                         870 jarl22 _Dem_EvMemReqSyncDataRecord , lp 
0000042e bfffe8fb*       870 <EXPANSION END>
00000432 e051            871 	cmp	zero,r10
                         872 --line334
                         873 ..lin.C.3A.5C_ECU2.5CECU_Rivian_A1.5CTarget.5Crepo_projects.5CpRealEcu.5CcR_R2023.2E09.2E15.5Cmake.5Coutput.5Cobjects.5CDem_EvMemApi.69::
                         874 .LDWlin69:
00000434 ca05*           875 	bne	.L2302
00000436 0652            876 	mov	6,r10
00000438 4406fff0        877 	dispose	2,{r24,r25,r26,r27,r28,r29,r31},[lp]
                         878 .L2302:
                         879 --line337
                         880 ..lin.C.3A.5C_ECU2.5CECU_Rivian_A1.5CTarget.5Crepo_projects.5CpRealEcu.5CcR_R2023.2E09.2E15.5Cmake.5Coutput.5Cobjects.5CDem_EvMemApi.70::
                         881 .LDWlin70:
0000043c 3e0600000000*   882 	mov	_Dem_EvMemDTCRecord,ep
00000442 6548            883 	sld.bu	5[ep],r9
00000444 e049            884 	cmp	zero,r9
00000446 820d*           885 	be	.L2310
                         886 --line345
                         887 ..lin.C.3A.5C_ECU2.5CECU_Rivian_A1.5CTarget.5Crepo_projects.5CpRealEcu.5CcR_R2023.2E09.2E15.5Cmake.5Coutput.5Cobjects.5CDem_EvMemApi.71::
                         888 .LDWlin71:
00000448 be472d00        889 	ld.bu	45[ep],r8
0000044c 1c4effff        890 	addi	-1,r28,r9
00000450 8900            891 	zxb	r9
00000452 e849            892 	cmp	r8,r9
00000454 e105*           893 	bl	.L2309
                         894 .L2310:
                         895 --line347
                         896 ..lin.C.3A.5C_ECU2.5CECU_Rivian_A1.5CTarget.5Crepo_projects.5CpRealEcu.5CcR_R2023.2E09.2E15.5Cmake.5Coutput.5Cobjects.5CDem_EvMemApi.72::

                                                                      Page 17
                                                              C:\Users\nhuliyap\AppData\Local\Temp\gh_00002581.s
                         897 .LDWlin72:
00000456 79070000        898 	st.h	zero,0[r25]
0000045a 0052            899 	mov	0,r10
0000045c 4406fff0        900 	dispose	2,{r24,r25,r26,r27,r28,r29,r31},[lp]
                         901 .L2309:
                         902 --line351
                         903 ..lin.C.3A.5C_ECU2.5CECU_Rivian_A1.5CTarget.5Crepo_projects.5CpRealEcu.5CcR_R2023.2E09.2E15.5Cmake.5Coutput.5Cobjects.5CDem_EvMemApi.73::
                         904 .LDWlin73:
00000460 7530            905 	sld.hu	10[ep],r6
00000462 1e9e0c00        906 	addi	12,ep,r19
00000466 1e960800        907 	addi	8,ep,r18
0000046a 1838            908 	mov	r24,r7
0000046c 1940            909 	mov	r25,r8
0000046e 639f0100        910 	st.w	r19,0[sp]
00000472 63970500        911 	st.w	r18,4[sp]
                         912 	jarl	_Dem_EnvRetrieveFF,lp
                         912 <EXPANSION BEGIN>
                         912 jarl22 _Dem_EnvRetrieveFF , lp 
00000476 80ff0000*       912 <EXPANSION END>
                         913 .L2252:
                         914 --	    .ef
                         915 .LDW52:
                         916 --line351
                         917 ..lin.C.3A.5C_ECU2.5CECU_Rivian_A1.5CTarget.5Crepo_projects.5CpRealEcu.5CcR_R2023.2E09.2E15.5Cmake.5Coutput.5Cobjects.5CDem_EvMemApi.74::
                         918 .LDWlin74:
0000047a 4406fff0        919 	dispose	2,{r24,r25,r26,r27,r28,r29,r31},[lp]
                         920 	.global	___ghs_eofn_Dem_GetFreezeFrameDataByDTC
                         921 ___ghs_eofn_Dem_GetFreezeFrameDataByDTC:
                         922 	.type	_Dem_GetFreezeFrameDataByDTC,@function
                         923 	.size	_Dem_GetFreezeFrameDataByDTC,.-_Dem_GetFreezeFrameDataByDTC
                         924 	.align	2
                         925 --_DtcId	r6	local
                         926 --_RecordIndex	r9	local
                         927 --_EventId	ep	local
                         928 
                         929 --_DTC	r27	param
                         930 --_DTCKind	r7	param
                         931 --_DTCOrigin	r26	param
                         932 --_RecordNumber	r28	param
                         933 --_DestBuffer	r24	param
                         934 --_BufSize	r25	param
                         935 
                         936 	.data
                         937 	.text
                         938 	.align	2
                         939 	.align	2
                         940 ..gh.f.f.1.e.8:
                         941 	.type	..gh.f.f.1.e.8,@object
                         942 	.size	..gh.f.f.1.e.8,0
                         943 	.global	_Dem_GetSizeOfFreezeFrameByDTC
                         944 _Dem_GetSizeOfFreezeFrameByDTC:
0000047e 8007e130        945 	prepare	{r26,r27,r28,r29,r31},0
00000482 8700            946 	zxb	r7
00000484 23d71500        947 	ld.w	20[sp],r26
                         948 --	    .bf
                         949 .LDW62:
00000488 613a            950 	cmp	1,r7
0000048a d20d*           951 	be	.L2851
                         952 --line367
                         953 ..lin.C.3A.5C_ECU2.5CECU_Rivian_A1.5CTarget.5Crepo_projects.5CpRealEcu.5CcR_R2023.2E09.2E15.5Cmake.5Coutput.5Cobjects.5CDem_EvMemApi.75::
                         954 .LDWlin75:

                                                                      Page 18
                                                              C:\Users\nhuliyap\AppData\Local\Temp\gh_00002581.s
0000048c 20363600        955 	movea	54,zero,r6
00000490 003a            956 	mov	0,r7
00000492 20461f00        957 	movea	31,zero,r8
00000496 204e1000        958 	movea	16,zero,r9
                         959 	jarl	_Det_ReportError,lp
                         959 <EXPANSION BEGIN>
                         959 jarl22 _Det_ReportError , lp 
0000049a 80ff0000*       959 <EXPANSION END>
                         960 --line368
                         961 ..lin.C.3A.5C_ECU2.5CECU_Rivian_A1.5CTarget.5Crepo_projects.5CpRealEcu.5CcR_R2023.2E09.2E15.5Cmake.5Coutput.5Cobjects.5CDem_EvMemApi.76::
                         962 .LDWlin76:
0000049e 0352            963 	mov	3,r10
000004a0 4006ff30        964 	dispose	0,{r26,r27,r28,r29,r31},[lp]
                         965 .L2851:
000004a4 8800            966 	zxb	r8
000004a6 09e0            967 	mov	r9,r28
000004a8 06d8            968 	mov	r6,r27
000004aa 9c00            969 	zxb	r28
000004ac 3d0600000000*   970 	mov	_DemDtcCodeCopy,r29
                         971 --line371
                         972 ..lin.C.3A.5C_ECU2.5CECU_Rivian_A1.5CTarget.5Crepo_projects.5CpRealEcu.5CcR_R2023.2E09.2E15.5Cmake.5Coutput.5Cobjects.5CDem_EvMemApi.77::
                         973 .LDWlin77:
000004b2 e041            974 	cmp	zero,r8
000004b4 b205*           975 	be	.L2848
000004b6 6142            976 	cmp	1,r8
000004b8 d20d*           977 	be	.L2847
                         978 .L2848:
                         979 --line373
                         980 ..lin.C.3A.5C_ECU2.5CECU_Rivian_A1.5CTarget.5Crepo_projects.5CpRealEcu.5CcR_R2023.2E09.2E15.5Cmake.5Coutput.5Cobjects.5CDem_EvMemApi.78::
                         981 .LDWlin78:
000004ba 20363600        982 	movea	54,zero,r6
000004be 003a            983 	mov	0,r7
000004c0 20461f00        984 	movea	31,zero,r8
000004c4 204e1000        985 	movea	16,zero,r9
                         986 	jarl	_Det_ReportError,lp
                         986 <EXPANSION BEGIN>
                         986 jarl22 _Det_ReportError , lp 
000004c8 80ff0000*       986 <EXPANSION END>
                         987 --line374
                         988 ..lin.C.3A.5C_ECU2.5CECU_Rivian_A1.5CTarget.5Crepo_projects.5CpRealEcu.5CcR_R2023.2E09.2E15.5Cmake.5Coutput.5Cobjects.5CDem_EvMemApi.79::
                         989 .LDWlin79:
000004cc 0252            990 	mov	2,r10
000004ce 4006ff30        991 	dispose	0,{r26,r27,r28,r29,r31},[lp]
                         992 .L2847:
                         993 --line377
                         994 ..lin.C.3A.5C_ECU2.5CECU_Rivian_A1.5CTarget.5Crepo_projects.5CpRealEcu.5CcR_R2023.2E09.2E15.5Cmake.5Coutput.5Cobjects.5CDem_EvMemApi.80::
                         995 .LDWlin80:
000004d2 3d370100        996 	ld.w	0[r29],r6
000004d6 e6d9            997 	cmp	r6,r27
000004d8 f205*           998 	be	.L2856
                         999 --line379
                        1000 ..lin.C.3A.5C_ECU2.5CECU_Rivian_A1.5CTarget.5Crepo_projects.5CpRealEcu.5CcR_R2023.2E09.2E15.5Cmake.5Coutput.5Cobjects.5CDem_EvMemApi.81::
                        1001 .LDWlin81:
000004da 1b30           1002 	mov	r27,r6
                        1003 	jarl	_Dem_DtcIdFromDtcCode,lp
                        1003 <EXPANSION BEGIN>
                        1003 jarl22 _Dem_DtcIdFromDtcCode , lp 
000004dc 80ff0000*      1003 <EXPANSION END>
000004e0 1df0           1004 	mov	r29,ep
000004e2 8654           1005 	sst.h	r10,12[ep]
                        1006 --line380

                                                                      Page 19
                                                              C:\Users\nhuliyap\AppData\Local\Temp\gh_00002581.s
                        1007 ..lin.C.3A.5C_ECU2.5CECU_Rivian_A1.5CTarget.5Crepo_projects.5CpRealEcu.5CcR_R2023.2E09.2E15.5Cmake.5Coutput.5Cobjects.5CDem_EvMemApi.82::
                        1008 .LDWlin82:
000004e4 01dd           1009 	sst.w	r27,0[ep]
                        1010 .L2856:
000004e6 fd970d00       1011 	ld.hu	12[r29],r18
000004ea 123effff       1012 	addi	-1,r18,r7
000004ee 0706d7ff       1013 	addi	-41,r7,zero
000004f2 f105*          1014 	bl	.L2859
000004f4 40f60000*      1015 	movhi	hi(_Dem_AllDTCsState),zero,ep
000004f8 d2f1           1016 	add	r18,ep
000004fa dec70000*      1017 	tst1	0,lo(_Dem_AllDTCsState)[ep]
000004fe d20d*          1018 	be	.L2858
                        1019 .L2859:
                        1020 --line386
                        1021 ..lin.C.3A.5C_ECU2.5CECU_Rivian_A1.5CTarget.5Crepo_projects.5CpRealEcu.5CcR_R2023.2E09.2E15.5Cmake.5Coutput.5Cobjects.5CDem_EvMemApi.83::
                        1022 .LDWlin83:
00000500 20363600       1023 	movea	54,zero,r6
00000504 003a           1024 	mov	0,r7
00000506 20461f00       1025 	movea	31,zero,r8
0000050a 204e1000       1026 	movea	16,zero,r9
                        1027 	jarl	_Det_ReportError,lp
                        1027 <EXPANSION BEGIN>
                        1027 jarl22 _Det_ReportError , lp 
0000050e 80ff0000*      1027 <EXPANSION END>
                        1028 --line387
                        1029 ..lin.C.3A.5C_ECU2.5CECU_Rivian_A1.5CTarget.5Crepo_projects.5CpRealEcu.5CcR_R2023.2E09.2E15.5Cmake.5Coutput.5Cobjects.5CDem_EvMemApi.84::
                        1030 .LDWlin84:
00000512 0152           1031 	mov	1,r10
00000514 4006ff30       1032 	dispose	0,{r26,r27,r28,r29,r31},[lp]
                        1033 .L2858:
                        1034 --line390
                        1035 ..lin.C.3A.5C_ECU2.5CECU_Rivian_A1.5CTarget.5Crepo_projects.5CpRealEcu.5CcR_R2023.2E09.2E15.5Cmake.5Coutput.5Cobjects.5CDem_EvMemApi.85::
                        1036 .LDWlin85:
00000518 12f0           1037 	mov	r18,ep
0000051a c1f2           1038 	shl	1,ep
0000051c 2f0600000000*  1039 	mov	_Dem_MapDtcIdToEventId,r15
00000522 cff1           1040 	add	r15,ep
00000524 7030           1041 	sld.hu	0[ep],r6
                        1042 --line392
                        1043 ..lin.C.3A.5C_ECU2.5CECU_Rivian_A1.5CTarget.5Crepo_projects.5CpRealEcu.5CcR_R2023.2E09.2E15.5Cmake.5Coutput.5Cobjects.5CDem_EvMemApi.86::
                        1044 .LDWlin86:
00000526 e0e1           1045 	cmp	zero,r28
00000528 8215*          1046 	be	.L2875
0000052a 06f0           1047 	mov	r6,ep
0000052c c2f2           1048 	shl	2,ep
0000052e 2e0600000000*  1049 	mov	_Dem_EvtParam_32,r14
00000534 cef1           1050 	add	r14,ep
00000536 008d           1051 	sld.w	0[ep],r17
00000538 938a           1052 	shr	19,r17
0000053a d1ee0100       1053 	andi	1,r17,r29
0000053e fde1           1054 	cmp	r29,r28
00000540 8315*          1055 	bnh	.L2874
00000542 1c0601ff       1056 	addi	-255,r28,zero
00000546 d20d*          1057 	be	.L2874
                        1058 .L2875:
                        1059 --line394
                        1060 ..lin.C.3A.5C_ECU2.5CECU_Rivian_A1.5CTarget.5Crepo_projects.5CpRealEcu.5CcR_R2023.2E09.2E15.5Cmake.5Coutput.5Cobjects.5CDem_EvMemApi.87::
                        1061 .LDWlin87:
00000548 20363600       1062 	movea	54,zero,r6
0000054c 003a           1063 	mov	0,r7
0000054e 20461f00       1064 	movea	31,zero,r8

                                                                      Page 20
                                                              C:\Users\nhuliyap\AppData\Local\Temp\gh_00002581.s
00000552 204e1000       1065 	movea	16,zero,r9
                        1066 	jarl	_Det_ReportError,lp
                        1066 <EXPANSION BEGIN>
                        1066 jarl22 _Det_ReportError , lp 
00000556 80ff0000*      1066 <EXPANSION END>
                        1067 --line395
                        1068 ..lin.C.3A.5C_ECU2.5CECU_Rivian_A1.5CTarget.5Crepo_projects.5CpRealEcu.5CcR_R2023.2E09.2E15.5Cmake.5Coutput.5Cobjects.5CDem_EvMemApi.88::
                        1069 .LDWlin88:
0000055a 0452           1070 	mov	4,r10
0000055c 4006ff30       1071 	dispose	0,{r26,r27,r28,r29,r31},[lp]
                        1072 .L2874:
                        1073 --line398
                        1074 ..lin.C.3A.5C_ECU2.5CECU_Rivian_A1.5CTarget.5Crepo_projects.5CpRealEcu.5CcR_R2023.2E09.2E15.5Cmake.5Coutput.5Cobjects.5CDem_EvMemApi.89::
                        1075 .LDWlin89:
00000560 1a38           1076 	mov	r26,r7
                        1077 	jarl	_Dem_EnvGetSizeOfFF,lp
                        1077 <EXPANSION BEGIN>
                        1077 jarl22 _Dem_EnvGetSizeOfFF , lp 
00000562 80ff0000*      1077 <EXPANSION END>
                        1078 --line399
                        1079 ..lin.C.3A.5C_ECU2.5CECU_Rivian_A1.5CTarget.5Crepo_projects.5CpRealEcu.5CcR_R2023.2E09.2E15.5Cmake.5Coutput.5Cobjects.5CDem_EvMemApi.90::
                        1080 .LDWlin90:
00000566 1c0601ff       1081 	addi	-255,r28,zero
0000056a 8a0d*          1082 	bne	.L2841
                        1083 --line402
                        1084 ..lin.C.3A.5C_ECU2.5CECU_Rivian_A1.5CTarget.5Crepo_projects.5CpRealEcu.5CcR_R2023.2E09.2E15.5Cmake.5Coutput.5Cobjects.5CDem_EvMemApi.91::
                        1085 .LDWlin91:
0000056c 1af0           1086 	mov	r26,ep
0000056e 7068           1087 	sld.hu	0[ep],r13
00000570 edef2202       1088 	mulu	r13,r29,zero
00000574 80ec           1089 	sst.h	r29,0[ep]
00000576 4006ff30       1090 	dispose	0,{r26,r27,r28,r29,r31},[lp]
                        1091 .L2841:
                        1092 --	    .ef
                        1093 .LDW72:
                        1094 --line405
                        1095 ..lin.C.3A.5C_ECU2.5CECU_Rivian_A1.5CTarget.5Crepo_projects.5CpRealEcu.5CcR_R2023.2E09.2E15.5Cmake.5Coutput.5Cobjects.5CDem_EvMemApi.92::
                        1096 .LDWlin92:
0000057a 4006ff30       1097 	dispose	0,{r26,r27,r28,r29,r31},[lp]
                        1098 	.global	___ghs_eofn_Dem_GetSizeOfFreezeFrameByDTC
                        1099 ___ghs_eofn_Dem_GetSizeOfFreezeFrameByDTC:
                        1100 	.type	_Dem_GetSizeOfFreezeFrameByDTC,@function
                        1101 	.size	_Dem_GetSizeOfFreezeFrameByDTC,.-_Dem_GetSizeOfFreezeFrameByDTC
                        1102 	.align	2
                        1103 --_DtcId	r18	local
                        1104 --_EventId	r6	local
                        1105 --_ReturnSts	r10	local
                        1106 
                        1107 --_DTC	r27	param
                        1108 --_DTCKind	r7	param
                        1109 --_DTCOrigin	r8	param
                        1110 --_RecordNumber	r28	param
                        1111 --_SizeOfFreezeFrame	r26	param
                        1112 
                        1113 	.data
                        1114 	.text
                        1115 	.align	2
                        1116 	.align	2
                        1117 ..gh.f.f.1.e.9:
                        1118 	.type	..gh.f.f.1.e.9,@object
                        1119 	.size	..gh.f.f.1.e.9,0

                                                                      Page 21
                                                              C:\Users\nhuliyap\AppData\Local\Temp\gh_00002581.s
                        1120 	.global	_Dem_SetFreezeFrameRecordFilter
                        1121 _Dem_SetFreezeFrameRecordFilter:
0000057e a600           1122 	sxb	r6
00000580 07f0           1123 	mov	r7,ep
00000582 320600000000*  1124 	mov	_Dem_EvMemFilteredRecordLocId,r18
                        1125 --	    .bf
                        1126 .LDW82:
                        1127 --line434
                        1128 ..lin.C.3A.5C_ECU2.5CECU_Rivian_A1.5CTarget.5Crepo_projects.5CpRealEcu.5CcR_R2023.2E09.2E15.5Cmake.5Coutput.5Cobjects.5CDem_EvMemApi.93::
                        1129 .LDWlin93:
00000588 e031           1130 	cmp	zero,r6
0000058a 0152           1131 	mov	1,r10
0000058c d21d*          1132 	be	.L3285
                        1133 --line441
                        1134 ..lin.C.3A.5C_ECU2.5CECU_Rivian_A1.5CTarget.5Crepo_projects.5CpRealEcu.5CcR_R2023.2E09.2E15.5Cmake.5Coutput.5Cobjects.5CDem_EvMemApi.94::
                        1135 .LDWlin94:
0000058e 0082           1136 	mov	0,r16
00000590 8004           1137 	sst.h	zero,0[ep]
00000592 1088           1138 	mov	r16,r17
                        1139 .L3292:
00000594 f17e3000       1140 	mulhi	48,r17,r15
00000598 40760000*      1141 	movhi	hi(_Dem_EvMemEventMemory),zero,r14
0000059c ce79           1142 	add	r14,r15
0000059e ef6f0100*      1143 	ld.hu	lo(_Dem_EvMemEventMemory)[r15],r13
000005a2 2f7e0000*      1144 	movea	lo(_Dem_EvMemEventMemory),r15,r15
000005a6 cd768010       1145 	andi	4224,r13,r14
000005aa 0e0600f0       1146 	addi	-4096,r14,zero
000005ae da05*          1147 	bne	.L3326
                        1148 --line461
                        1149 ..lin.C.3A.5C_ECU2.5CECU_Rivian_A1.5CTarget.5Crepo_projects.5CpRealEcu.5CcR_R2023.2E09.2E15.5Cmake.5Coutput.5Cobjects.5CDem_EvMemApi.95::
                        1150 .LDWlin95:
000005b0 af7f2500       1151 	ld.bu	37[r15],r15
000005b4 cf81           1152 	add	r15,r16
000005b6 8084           1153 	sst.h	r16,0[ep]
                        1154 .L3326:
000005b8 418a           1155 	add	1,r17
000005ba 6a8a           1156 	cmp	10,r17
000005bc c1ed*          1157 	bl	.L3292
                        1158 --line466
                        1159 ..lin.C.3A.5C_ECU2.5CECU_Rivian_A1.5CTarget.5Crepo_projects.5CpRealEcu.5CcR_R2023.2E09.2E15.5Cmake.5Coutput.5Cobjects.5CDem_EvMemApi.96::
                        1160 .LDWlin96:
000005be 12f0           1161 	mov	r18,ep
000005c0 0105           1162 	sst.w	zero,0[ep]
000005c2 0305           1163 	sst.w	zero,4[ep]
000005c4 0052           1164 	mov	0,r10
                        1165 .L3285:
                        1166 --	    .ef
                        1167 .LDW92:
000005c6 7f00           1168 	jmp	[lp]
                        1169 	.global	___ghs_eofn_Dem_SetFreezeFrameRecordFilter
                        1170 ___ghs_eofn_Dem_SetFreezeFrameRecordFilter:
                        1171 	.type	_Dem_SetFreezeFrameRecordFilter,@function
                        1172 	.size	_Dem_SetFreezeFrameRecordFilter,.-_Dem_SetFreezeFrameRecordFilter
                        1173 	.align	2
                        1174 --_LocId	r17	local
                        1175 
                        1176 --_DTCFormat	r6	param
                        1177 --_NumberOfFilteredRecords	ep	param
                        1178 
                        1179 	.data
                        1180 	.text

                                                                      Page 22
                                                              C:\Users\nhuliyap\AppData\Local\Temp\gh_00002581.s
                        1181 	.align	2
                        1182 	.align	2
                        1183 ..gh.f.f.1.e.10:
                        1184 	.type	..gh.f.f.1.e.10,@object
                        1185 	.size	..gh.f.f.1.e.10,0
                        1186 	.global	_Dem_GetNextFilteredRecord
                        1187 _Dem_GetNextFilteredRecord:
000005c8 320600000000*  1188 	mov	_Dem_EvMemFilteredRecordLocId,r18
                        1189 --	    .bf
                        1190 .LDW03:
                        1191 --line473
                        1192 ..lin.C.3A.5C_ECU2.5CECU_Rivian_A1.5CTarget.5Crepo_projects.5CpRealEcu.5CcR_R2023.2E09.2E15.5Cmake.5Coutput.5Cobjects.5CDem_EvMemApi.97::
                        1193 .LDWlin97:
000005ce c535*          1194 	br	.L3595
                        1195 .L3597:
                        1196 --line482
                        1197 ..lin.C.3A.5C_ECU2.5CECU_Rivian_A1.5CTarget.5Crepo_projects.5CpRealEcu.5CcR_R2023.2E09.2E15.5Cmake.5Coutput.5Cobjects.5CDem_EvMemApi.98::
                        1198 .LDWlin98:
000005d0 f1f63000       1199 	mulhi	48,r17,ep
000005d4 300600000000*  1200 	mov	_Dem_EvMemEventMemory,r16
000005da d0f1           1201 	add	r16,ep
                        1202 --line486
                        1203 ..lin.C.3A.5C_ECU2.5CECU_Rivian_A1.5CTarget.5Crepo_projects.5CpRealEcu.5CcR_R2023.2E09.2E15.5Cmake.5Coutput.5Cobjects.5CDem_EvMemApi.99::
                        1204 .LDWlin99:
000005dc 7078           1205 	sld.hu	0[ep],r15
000005de 7168           1206 	sld.hu	2[ep],r13
000005e0 be672500       1207 	ld.bu	37[ep],r12
000005e4 cf768010       1208 	andi	4224,r15,r14
000005e8 0e0600f0       1209 	addi	-4096,r14,zero
000005ec 9a25*          1210 	bne	.L3670
                        1211 --line504
                        1212 ..lin.C.3A.5C_ECU2.5CECU_Rivian_A1.5CTarget.5Crepo_projects.5CpRealEcu.5CcR_R2023.2E09.2E15.5Cmake.5Coutput.5Cobjects.5CDem_EvMemApi.100::
                        1213 .LDWlin100:
000005ee 327f0500       1214 	ld.w	4[r18],r15
000005f2 ec79           1215 	cmp	r12,r15
000005f4 b91d*          1216 	bnl	.L3644
                        1217 --line519
                        1218 ..lin.C.3A.5C_ECU2.5CECU_Rivian_A1.5CTarget.5Crepo_projects.5CpRealEcu.5CcR_R2023.2E09.2E15.5Cmake.5Coutput.5Cobjects.5CDem_EvMemApi.101::
                        1219 .LDWlin101:
000005f6 0df0           1220 	mov	r13,ep
000005f8 0f760100       1221 	addi	1,r15,r14
000005fc c1f2           1222 	shl	1,ep
000005fe 2d0600000000*  1223 	mov	_Dem_MapEventIdToDtcId,r13
00000604 47770000       1224 	st.b	r14,0[r7]
00000608 cdf1           1225 	add	r13,ep
0000060a 7058           1226 	sld.hu	0[ep],r11
0000060c 2a0600000000*  1227 	mov	_Dem_Cfg_Dtc,r10
00000612 ebf60c00       1228 	mulhi	12,r11,ep
00000616 caf1           1229 	add	r10,ep
00000618 0055           1230 	sld.w	0[ep],r10
                        1231 --line523
                        1232 ..lin.C.3A.5C_ECU2.5CECU_Rivian_A1.5CTarget.5Crepo_projects.5CpRealEcu.5CcR_R2023.2E09.2E15.5Cmake.5Coutput.5Cobjects.5CDem_EvMemApi.102::
                        1233 .LDWlin102:
0000061a 12f0           1234 	mov	r18,ep
0000061c 0285           1235 	sld.w	4[ep],r16
0000061e 66570100       1236 	st.w	r10,0[r6]
00000622 0052           1237 	mov	0,r10
00000624 4182           1238 	add	1,r16
00000626 0385           1239 	sst.w	r16,4[ep]
00000628 7f00           1240 	jmp	[lp]
                        1241 .L3644:

                                                                      Page 23
                                                              C:\Users\nhuliyap\AppData\Local\Temp\gh_00002581.s
                        1242 --line564
                        1243 ..lin.C.3A.5C_ECU2.5CECU_Rivian_A1.5CTarget.5Crepo_projects.5CpRealEcu.5CcR_R2023.2E09.2E15.5Cmake.5Coutput.5Cobjects.5CDem_EvMemApi.103::
                        1244 .LDWlin103:
0000062a 72070500       1245 	st.w	zero,4[r18]
                        1246 .L3670:
0000062e 114e0100       1247 	addi	1,r17,r9
00000632 724f0100       1248 	st.w	r9,0[r18]
                        1249 .L3595:
00000636 328f0100       1250 	ld.w	0[r18],r17
0000063a 0152           1251 	mov	1,r10
0000063c 6a8a           1252 	cmp	10,r17
0000063e 91cd*          1253 	bl	.L3597
                        1254 --	    .ef
                        1255 .LDW13:
                        1256 --line564
                        1257 ..lin.C.3A.5C_ECU2.5CECU_Rivian_A1.5CTarget.5Crepo_projects.5CpRealEcu.5CcR_R2023.2E09.2E15.5Cmake.5Coutput.5Cobjects.5CDem_EvMemApi.104::
                        1258 .LDWlin104:
00000640 7f00           1259 	jmp	[lp]
                        1260 	.global	___ghs_eofn_Dem_GetNextFilteredRecord
                        1261 ___ghs_eofn_Dem_GetNextFilteredRecord:
                        1262 	.type	_Dem_GetNextFilteredRecord,@function
                        1263 	.size	_Dem_GetNextFilteredRecord,.-_Dem_GetNextFilteredRecord
                        1264 	.align	2
                        1265 --_EventId	r13	local
                        1266 --_FreezeFrameCounter	r12	local
                        1267 
                        1268 --_DTC	r6	param
                        1269 --_RecordNumber	r7	param
                        1270 
                        1271 	.data
                        1272 	.text
                        1273 	.align	2
                        1274 	.align	2
                        1275 ..gh.f.f.1.e.11:
                        1276 	.type	..gh.f.f.1.e.11,@object
                        1277 	.size	..gh.f.f.1.e.11,0
                        1278 	.global	_Dem_ReadEventsFromMemory
                        1279 _Dem_ReadEventsFromMemory:
00000642 07f0           1280 	mov	r7,ep
00000644 9e00           1281 	zxb	ep
                        1282 --	    .bf
                        1283 .LDW23:
00000646 c1f2           1284 	shl	1,ep
00000648 330600000000*  1285 	mov	_Dem_EvMemMapOrigin2Id,r19
0000064e d3f1           1286 	add	r19,ep
                        1287 --line580
                        1288 ..lin.C.3A.5C_ECU2.5CECU_Rivian_A1.5CTarget.5Crepo_projects.5CpRealEcu.5CcR_R2023.2E09.2E15.5Cmake.5Coutput.5Cobjects.5CDem_EvMemApi.105::
                        1289 .LDWlin105:
00000650 6198           1290 	sld.bu	1[ep],r19
00000652 6090           1291 	sld.bu	0[ep],r18
00000654 e099           1292 	cmp	zero,r19
00000656 ea07048b       1293 	cmove	10,zero,r17
0000065a 66970100       1294 	st.w	r18,0[r6]
0000065e e2070453       1295 	cmove	2,zero,r10
00000662 668f0500       1296 	st.w	r17,4[r6]
                        1297 --	    .ef
                        1298 .LDW33:
00000666 7f00           1299 	jmp	[lp]
                        1300 	.global	___ghs_eofn_Dem_ReadEventsFromMemory
                        1301 ___ghs_eofn_Dem_ReadEventsFromMemory:
                        1302 	.type	_Dem_ReadEventsFromMemory,@function

                                                                      Page 24
                                                              C:\Users\nhuliyap\AppData\Local\Temp\gh_00002581.s
                        1303 	.size	_Dem_ReadEventsFromMemory,.-_Dem_ReadEventsFromMemory
                        1304 	.align	2
                        1305 
                        1306 --_ReadEventsFromMemoryState	r6	param
                        1307 --_origin	r7	param
                        1308 
                        1309 	.section ".bss","awb"
                        1310 .L3999:
                        1311 	.type	.L3999,@object
                        1312 	.size	.L3999,0
                        1313 	.data
                        1314 	.text
                        1315 	.align	2
                        1316 	.align	2
                        1317 ..gh.f.f.1.e.12:
                        1318 	.type	..gh.f.f.1.e.12,@object
                        1319 	.size	..gh.f.f.1.e.12,0
                        1320 	.global	_Dem_GetNextEventFromMemory
                        1321 _Dem_GetNextEventFromMemory:
00000668 06f0           1322 	mov	r6,ep
                        1323 --	    .bf
                        1324 .LDW43:
                        1325 .L4019:
0000066a 0295           1326 	sld.w	4[ep],r18
0000066c 0152           1327 	mov	1,r10
0000066e 6a92           1328 	cmp	10,r18
00000670 891d*          1329 	bnl	.L4017
                        1330 --line596
                        1331 ..lin.C.3A.5C_ECU2.5CECU_Rivian_A1.5CTarget.5Crepo_projects.5CpRealEcu.5CcR_R2023.2E09.2E15.5Cmake.5Coutput.5Cobjects.5CDem_EvMemApi.106::
                        1332 .LDWlin106:
00000672 f28e3000       1333 	mulhi	48,r18,r17
00000676 2e0600000000*  1334 	mov	_Dem_EvMemEventMemory,r14
                        1335 --line599
                        1336 ..lin.C.3A.5C_ECU2.5CECU_Rivian_A1.5CTarget.5Crepo_projects.5CpRealEcu.5CcR_R2023.2E09.2E15.5Cmake.5Coutput.5Cobjects.5CDem_EvMemApi.107::
                        1337 .LDWlin107:
0000067c 129e0100       1338 	addi	1,r18,r19
00000680 039d           1339 	sst.w	r19,4[ep]
00000682 ce89           1340 	add	r14,r17
00000684 f1670300       1341 	ld.hu	2[r17],r12
00000688 0052           1342 	mov	0,r10
0000068a 67670000       1343 	st.h	r12,0[r7]
0000068e 68970000       1344 	st.h	r18,0[r8]
00000692 f1770100       1345 	ld.hu	0[r17],r14
00000696 ce6e8010       1346 	andi	4224,r14,r13
0000069a 0d0600f0       1347 	addi	-4096,r13,zero
0000069e eae5*          1348 	bne	.L4019
                        1349 .L4017:
                        1350 --	    .ef
                        1351 .LDW53:
                        1352 --line599
                        1353 ..lin.C.3A.5C_ECU2.5CECU_Rivian_A1.5CTarget.5Crepo_projects.5CpRealEcu.5CcR_R2023.2E09.2E15.5Cmake.5Coutput.5Cobjects.5CDem_EvMemApi.108::
                        1354 .LDWlin108:
000006a0 7f00           1355 	jmp	[lp]
                        1356 	.global	___ghs_eofn_Dem_GetNextEventFromMemory
                        1357 ___ghs_eofn_Dem_GetNextEventFromMemory:
                        1358 	.type	_Dem_GetNextEventFromMemory,@function
                        1359 	.size	_Dem_GetNextEventFromMemory,.-_Dem_GetNextEventFromMemory
                        1360 	.align	2
                        1361 
                        1362 --_ReadEventsFromMemoryState	ep	param
                        1363 --_EventId	r7	param

                                                                      Page 25
                                                              C:\Users\nhuliyap\AppData\Local\Temp\gh_00002581.s
                        1364 --_LocId	r8	param
                        1365 
                        1366 	.section ".bss","awb"
                        1367 .L4094:
                        1368 	.type	.L4094,@object
                        1369 	.size	.L4094,0
                        1370 	.data
                        1371 	.text
                        1372 	.align	2
                        1373 	.align	2
                        1374 ..gh.f.f.1.e.13:
                        1375 	.type	..gh.f.f.1.e.13,@object
                        1376 	.size	..gh.f.f.1.e.13,0
                        1377 	.global	_Dem_GetNumberOfEventMemoryEntries
                        1378 _Dem_GetNumberOfEventMemoryEntries:
000006a2 80072100       1379 	prepare	{r31},0
                        1380 --	    .bf
                        1381 .LDW63:
000006a6 409e0000*      1382 	movhi	hi(_Dem_OpMoState),zero,r19
000006aa 939f0100*      1383 	ld.bu	lo(_Dem_OpMoState)[r19],r19
000006ae 629a           1384 	cmp	2,r19
000006b0 d20d*          1385 	be	.L4157
                        1386 --line632
                        1387 ..lin.C.3A.5C_ECU2.5CECU_Rivian_A1.5CTarget.5Crepo_projects.5CpRealEcu.5CcR_R2023.2E09.2E15.5Cmake.5Coutput.5Cobjects.5CDem_EvMemApi.109::
                        1388 .LDWlin109:
000006b2 20363600       1389 	movea	54,zero,r6
000006b6 003a           1390 	mov	0,r7
000006b8 20463500       1391 	movea	53,zero,r8
000006bc 204e2000       1392 	movea	32,zero,r9
                        1393 	jarl	_Det_ReportError,lp
                        1393 <EXPANSION BEGIN>
                        1393 jarl22 _Det_ReportError , lp 
000006c0 80ff0000*      1393 <EXPANSION END>
000006c4 0152           1394 	mov	1,r10
000006c6 40063f00       1395 	dispose	0,{r31},[lp]
                        1396 .L4157:
000006ca 8600           1397 	zxb	r6
                        1398 --line633
                        1399 ..lin.C.3A.5C_ECU2.5CECU_Rivian_A1.5CTarget.5Crepo_projects.5CpRealEcu.5CcR_R2023.2E09.2E15.5Cmake.5Coutput.5Cobjects.5CDem_EvMemApi.110::
                        1400 .LDWlin110:
000006cc e039           1401 	cmp	zero,r7
000006ce ca0d*          1402 	bne	.L4167
                        1403 --line633
                        1404 ..lin.C.3A.5C_ECU2.5CECU_Rivian_A1.5CTarget.5Crepo_projects.5CpRealEcu.5CcR_R2023.2E09.2E15.5Cmake.5Coutput.5Cobjects.5CDem_EvMemApi.111::
                        1405 .LDWlin111:
000006d0 20363600       1406 	movea	54,zero,r6
000006d4 20463500       1407 	movea	53,zero,r8
000006d8 204e1100       1408 	movea	17,zero,r9
                        1409 	jarl	_Det_ReportError,lp
                        1409 <EXPANSION BEGIN>
                        1409 jarl22 _Det_ReportError , lp 
000006dc 80ff0000*      1409 <EXPANSION END>
000006e0 0152           1410 	mov	1,r10
000006e2 40063f00       1411 	dispose	0,{r31},[lp]
                        1412 .L4167:
                        1413 --line634
                        1414 ..lin.C.3A.5C_ECU2.5CECU_Rivian_A1.5CTarget.5Crepo_projects.5CpRealEcu.5CcR_R2023.2E09.2E15.5Cmake.5Coutput.5Cobjects.5CDem_EvMemApi.112::
                        1415 .LDWlin112:
000006e6 e031           1416 	cmp	zero,r6
000006e8 b205*          1417 	be	.L4164
000006ea 6132           1418 	cmp	1,r6

                                                                      Page 26
                                                              C:\Users\nhuliyap\AppData\Local\Temp\gh_00002581.s
000006ec d20d*          1419 	be	.L4175
                        1420 .L4164:
                        1421 --line636
                        1422 ..lin.C.3A.5C_ECU2.5CECU_Rivian_A1.5CTarget.5Crepo_projects.5CpRealEcu.5CcR_R2023.2E09.2E15.5Cmake.5Coutput.5Cobjects.5CDem_EvMemApi.113::
                        1423 .LDWlin113:
000006ee 20363600       1424 	movea	54,zero,r6
000006f2 003a           1425 	mov	0,r7
000006f4 20463500       1426 	movea	53,zero,r8
000006f8 204e1000       1427 	movea	16,zero,r9
                        1428 	jarl	_Det_ReportError,lp
                        1428 <EXPANSION BEGIN>
                        1428 jarl22 _Det_ReportError , lp 
000006fc 80ff0000*      1428 <EXPANSION END>
                        1429 --line637
                        1430 ..lin.C.3A.5C_ECU2.5CECU_Rivian_A1.5CTarget.5Crepo_projects.5CpRealEcu.5CcR_R2023.2E09.2E15.5Cmake.5Coutput.5Cobjects.5CDem_EvMemApi.114::
                        1431 .LDWlin114:
00000700 0152           1432 	mov	1,r10
00000702 40063f00       1433 	dispose	0,{r31},[lp]
                        1434 .L4175:
                        1435 --line642
                        1436 ..lin.C.3A.5C_ECU2.5CECU_Rivian_A1.5CTarget.5Crepo_projects.5CpRealEcu.5CcR_R2023.2E09.2E15.5Cmake.5Coutput.5Cobjects.5CDem_EvMemApi.115::
                        1437 .LDWlin115:
00000706 0092           1438 	mov	0,r18
00000708 1288           1439 	mov	r18,r17
                        1440 .L4178:
0000070a f1f63000       1441 	mulhi	48,r17,ep
0000070e 2f0600000000*  1442 	mov	_Dem_EvMemEventMemory,r15
00000714 cff1           1443 	add	r15,ep
00000716 7070           1444 	sld.hu	0[ep],r14
00000718 ce368010       1445 	andi	4224,r14,r6
0000071c 060600f0       1446 	addi	-4096,r6,zero
00000720 aa05*          1447 	bne	.L4182
00000722 4192           1448 	add	1,r18
                        1449 .L4182:
00000724 418a           1450 	add	1,r17
00000726 6a8a           1451 	cmp	10,r17
00000728 91f5*          1452 	bl	.L4178
0000072a 47970000       1453 	st.b	r18,0[r7]
                        1454 --line643
                        1455 ..lin.C.3A.5C_ECU2.5CECU_Rivian_A1.5CTarget.5Crepo_projects.5CpRealEcu.5CcR_R2023.2E09.2E15.5Cmake.5Coutput.5Cobjects.5CDem_EvMemApi.116::
                        1456 .LDWlin116:
0000072e 0052           1457 	mov	0,r10
                        1458 --	    .ef
                        1459 .LDW73:
00000730 40063f00       1460 	dispose	0,{r31},[lp]
                        1461 	.global	___ghs_eofn_Dem_GetNumberOfEventMemoryEntries
                        1462 ___ghs_eofn_Dem_GetNumberOfEventMemoryEntries:
                        1463 	.type	_Dem_GetNumberOfEventMemoryEntries,@function
                        1464 	.size	_Dem_GetNumberOfEventMemoryEntries,.-_Dem_GetNumberOfEventMemoryEntries
                        1465 	.align	2
                        1466 --_retVal	r10	local
                        1467 --_LocId	r17	local
                        1468 --_counter	r18	local
                        1469 
                        1470 --_DTCOrigin	r6	param
                        1471 --_NumberOfEventMemoryEntries	r7	param
                        1472 
                        1473 	.section ".bss","awb"
                        1474 .L4458:
                        1475 	.type	.L4458,@object
                        1476 	.size	.L4458,0

                                                                      Page 27
                                                              C:\Users\nhuliyap\AppData\Local\Temp\gh_00002581.s
                        1477 	.data
                        1478 	.text
                        1479 	.align	2
                        1480 --_Dem_Cfg_Dtc	_Dem_Cfg_Dtc	import
                        1481 --_Dem_OpMoState	_Dem_OpMoState	import
                        1482 --_Dem_MapDtcIdToEventId	_Dem_MapDtcIdToEventId	import
                        1483 --_Dem_MapEventIdToDtcId	_Dem_MapEventIdToDtcId	import
                        1484 --_Dem_EvtParam_32	_Dem_EvtParam_32	import
                        1485 --_Dem_EvMemEventMemory	_Dem_EvMemEventMemory	import
                        1486 --_Dem_EvMemMapOrigin2Id	_Dem_EvMemMapOrigin2Id	import
                        1487 --_Dem_AllDTCsState	_Dem_AllDTCsState	import
                        1488 --_DemDtcIdCopy	_DemDtcIdCopy	static
                        1489 --_DemDtcCodeCopy	_DemDtcCodeCopy	static
                        1490 --_Dem_EvMemFilteredRecordLocId	_Dem_EvMemFilteredRecordLocId	static
                        1491 --_Dem_EvMemFilteredRecordFreezeFrameId	_Dem_EvMemFilteredRecordFreezeFrameId	static
                        1492 
                        1493 	.data
                        1494 	.section ".bss","awb"
0000000e 0000           1495 	.space	2
                        1496 	.align	4
                        1497 	.global	_Dem_EvMemDTCRecord
00000010 000000000000   1498 _Dem_EvMemDTCRecord:	.space	56
00000016 000000000000 
0000001c 000000000000 
00000022 000000000000 
00000028 000000000000 
0000002e 000000000000 
00000034 000000000000 
0000003a 000000000000 
00000040 000000000000 
00000046 0000 
                        1499 	.type	_Dem_EvMemDTCRecord,@object
                        1500 	.size	_Dem_EvMemDTCRecord,56
                        1501 	.data
                        1502 	.ghsnote version,17
                        1503 	.ghsnote tools,3
                        1504 	.ghsnote options,144
                        1505 	.text
                        1506 	.align	2
                        1507 ..eof.C.3A.5C_ECU2.5CECU_Rivian_A1.5CTarget.5Crepo_projects.5CpRealEcu.5CcR_R2023.2E09.2E15.5Cmake.5Coutput.5Cobjects.5CDem_EvMemApi...43.3A.5C_ECU2.5CECU_Rivian_A1.5CTarget.5Crepo_projects.5CpRealEcu.5CcR_R2023.2E09.2E15.5Cmake..65045C02..0::
                        1508 	.section	.debug_info
                        1509 .Ldw_begin:
00000000 bc290000       1510 	.word	.Ldw_end-.Ldw_begin-4
00000004 0200           1511 	.byte	2,0
00000006 00000000*      1512 	.word	.Ldw_abbr_begin
0000000a 04             1513 	.byte	4
                        1514 	.section	.debug_abbrev
                        1515 .Ldw_abbr_begin:
                        1516 	.section	.debug_info
0000000b 01             1517 	.byte	1
0000000c 00000000*      1518 	.word	..bof.C.3A.5C_ECU2.5CECU_Rivian_A1.5CTarget.5Crepo_projects.5CpRealEcu.5CcR_R2023.2E09.2E15.5Cmake.5Coutput.5Cobjects.5CDem_EvMemApi...43.3A.5C_ECU2.5CECU_Rivian_A1.5CTarget.5Crepo_projects.5CpRealEcu.5CcR_R2023.2E09.2E15.5Cmake..65045C02..0
00000010 00000000*      1519 	.word	..eof.C.3A.5C_ECU2.5CECU_Rivian_A1.5CTarget.5Crepo_projects.5CpRealEcu.5CcR_R2023.2E09.2E15.5Cmake.5Coutput.5Cobjects.5CDem_EvMemApi...43.3A.5C_ECU2.5CECU_Rivian_A1.5CTarget.5Crepo_projects.5CpRealEcu.5CcR_R2023.2E09.2E15.5Cmake..65045C02..0
00000014 2e2e2f736f75   1520 	.strz	"../source/wrappers/SwcServiceDem/Dem_EvMemApi.c"
0000001a 7263652f7772 
00000020 617070657273 
00000026 2f5377635365 
0000002c 727669636544 
00000032 656d2f44656d 
00000038 5f45764d656d 
0000003e 4170692e6300 
00000044 433a5c5f4543   1521 	.strz	"C:\\_ECU2\\ECU_Rivian_A1\\Target\\repo_projects\\pRealEcu\\cR_R2023.09.15\\make"

                                                                      Page 28
                                                              C:\Users\nhuliyap\AppData\Local\Temp\gh_00002581.s
0000004a 55325c454355 
00000050 5f5269766961 
00000056 6e5f41315c54 
0000005c 61726765745c 
00000062 7265706f5f70 
00000068 726f6a656374 
0000006e 735c70526561 
00000074 6c4563755c63 
0000007a 525f52323032 
00000080 332e30392e31 
00000086 355c6d616b65 
0000008c 00 
0000008d 474853204320   1522 	.strz	"GHS C 2015.1.7 [dual]"
00000093 323031352e31 
00000099 2e37205b6475 
0000009f 616c5d00 
000000a3 0100           1523 	.byte	1,0
000000a5 00000000*      1524 	.word	.Ldw_line_begin
000000a9 00000000*      1525 	.word	.Ldw_macinfo_begin
000000ad 00             1526 	.byte	0
                        1527 
                        1528 	.section	.debug_abbrev
00000000 01             1529 	.byte	1
00000001 11             1530 	.byte	17
00000002 01             1531 	.byte	1
00000003 1101           1532 	.byte	17,1
00000005 1201           1533 	.byte	18,1
00000007 0308           1534 	.byte	3,8
00000009 1b08           1535 	.byte	27,8
0000000b 2508           1536 	.byte	37,8
0000000d 1305           1537 	.byte	19,5
0000000f 1006           1538 	.byte	16,6
00000011 4306           1539 	.byte	67,6
00000013 420b           1540 	.byte	66,11
00000015 0000           1541 	.byte	0,0
                        1542 
                        1543 	.section	.debug_line
                        1544 .Ldw_line_begin:
00000000 dd1f0000       1545 	.word	.Ldw_line_end-.Ldw_line_begin-4
00000004 0200           1546 	.byte	2,0
00000006 00000000*      1547 	.word	.Ldw_lpro_end-.Ldw_lpro_begin
                        1548 .Ldw_lpro_begin:
0000000a 01             1549 	.byte	1
0000000b 00             1550 	.byte	0
0000000c 00             1551 	.byte	0
0000000d 04             1552 	.byte	4
0000000e 0a             1553 	.byte	10
0000000f 000101         1554 	.byte	0,1,1
00000012 010100         1555 	.byte	1,1,0
00000015 000001         1556 	.byte	0,0,1
00000018 00             1557 	.byte	0
00000019 2e2e2f736f75   1558 	.strz	"../source/wrappers/SwcServiceDem/Dem_EvMemApi.c"
0000001f 7263652f7772 
00000025 617070657273 
0000002b 2f5377635365 
00000031 727669636544 
00000037 656d2f44656d 
0000003d 5f45764d656d 
00000043 4170692e6300 
00000049 000000         1559 	.byte	0,0,0
0000004c 2e2e2f736f75   1560 	.strz	"../source/common/Std_Types.hpp"

                                                                      Page 29
                                                              C:\Users\nhuliyap\AppData\Local\Temp\gh_00002581.s
00000052 7263652f636f 
00000058 6d6d6f6e2f53 
0000005e 74645f547970 
00000064 65732e687070 
0000006a 00 
0000006b 000000         1561 	.byte	0,0,0
0000006e 2e2e2f736f75   1562 	.strz	"../source/common/Platform_Types.hpp"
00000074 7263652f636f 
0000007a 6d6d6f6e2f50 
00000080 6c6174666f72 
00000086 6d5f54797065 
0000008c 732e68707000 
00000092 000000         1563 	.byte	0,0,0
00000095 2e2e2f736f75   1564 	.strz	"../source/common/Compiler.hpp"
0000009b 7263652f636f 
000000a1 6d6d6f6e2f43 
000000a7 6f6d70696c65 
000000ad 722e68707000 
000000b3 000000         1565 	.byte	0,0,0
000000b6 2e2e2f736f75   1566 	.strz	"../source/ProjectCompiler/Compiler_Cfg.hpp"
000000bc 7263652f5072 
000000c2 6f6a65637443 
000000c8 6f6d70696c65 
000000ce 722f436f6d70 
000000d4 696c65725f43 
000000da 66672e687070 
000000e0 00 
000000e1 000000         1567 	.byte	0,0,0
000000e4 2e2e2f736f75   1568 	.strz	"../source/ProjectCompiler/CompilerCfg_SwcServiceOs.hpp"
000000ea 7263652f5072 
000000f0 6f6a65637443 
000000f6 6f6d70696c65 
000000fc 722f436f6d70 
00000102 696c65724366 
00000108 675f53776353 
0000010e 657276696365 
00000114 4f732e687070 
0000011a 00 
0000011b 000000         1569 	.byte	0,0,0
0000011e 2e2e2f736f75   1570 	.strz	"../source/wrappers/SwcServiceDem/Dem.hpp"
00000124 7263652f7772 
0000012a 617070657273 
00000130 2f5377635365 
00000136 727669636544 
0000013c 656d2f44656d 
00000142 2e68707000 
00000147 000000         1571 	.byte	0,0,0
0000014a 2e2e2f736f75   1572 	.strz	"../source/wrappers/SwcServiceDem/Dem_Types.hpp"
00000150 7263652f7772 
00000156 617070657273 
0000015c 2f5377635365 
00000162 727669636544 
00000168 656d2f44656d 
0000016e 5f5479706573 
00000174 2e68707000 
00000179 000000         1573 	.byte	0,0,0
0000017c 2e2e2f736f75   1574 	.strz	"../source/ProjectCfg/Dem_Cfg.hpp"
00000182 7263652f5072 
00000188 6f6a65637443 
0000018e 66672f44656d 
00000194 5f4366672e68 

                                                                      Page 30
                                                              C:\Users\nhuliyap\AppData\Local\Temp\gh_00002581.s
0000019a 707000 
0000019d 000000         1575 	.byte	0,0,0
000001a0 2e2e2f736f75   1576 	.strz	"../source/ProjectCfg/Dem_Cfg_Client.hpp"
000001a6 7263652f5072 
000001ac 6f6a65637443 
000001b2 66672f44656d 
000001b8 5f4366675f43 
000001be 6c69656e742e 
000001c4 68707000 
000001c8 000000         1577 	.byte	0,0,0
000001cb 2e2e2f736f75   1578 	.strz	"../source/wrappers/SwcServiceDem/Dem_ClientHandlingTypes.hpp"
000001d1 7263652f7772 
000001d7 617070657273 
000001dd 2f5377635365 
000001e3 727669636544 
000001e9 656d2f44656d 
000001ef 5f436c69656e 
000001f5 7448616e646c 
000001fb 696e67547970 
00000201 65732e687070 
00000207 00 
00000208 000000         1579 	.byte	0,0,0
0000020b 2e2e2f736f75   1580 	.strz	"../source/ProjectCfg/Dem_Cfg_NodeId.hpp"
00000211 7263652f5072 
00000217 6f6a65637443 
0000021d 66672f44656d 
00000223 5f4366675f4e 
00000229 6f646549642e 
0000022f 68707000 
00000233 000000         1581 	.byte	0,0,0
00000236 2e2e2f736f75   1582 	.strz	"../source/ProjectCfg/Dem_Cfg_Version.hpp"
0000023c 7263652f5072 
00000242 6f6a65637443 
00000248 66672f44656d 
0000024e 5f4366675f56 
00000254 657273696f6e 
0000025a 2e68707000 
0000025f 000000         1583 	.byte	0,0,0
00000262 2e2e2f736f75   1584 	.strz	"../source/wrappers/Rte_Dem_Type.hpp"
00000268 7263652f7772 
0000026e 617070657273 
00000274 2f5274655f44 
0000027a 656d5f547970 
00000280 652e68707000 
00000286 000000         1585 	.byte	0,0,0
00000289 2e2e2f736f75   1586 	.strz	"../source/McalMcu/types.hpp"
0000028f 7263652f4d63 
00000295 616c4d63752f 
0000029b 74797065732e 
000002a1 68707000 
000002a5 000000         1587 	.byte	0,0,0
000002a8 2e2e2f736f75   1588 	.strz	"../source/ProjectCfg/Dem_Cfg_EventId.hpp"
000002ae 7263652f5072 
000002b4 6f6a65637443 
000002ba 66672f44656d 
000002c0 5f4366675f45 
000002c6 76656e744964 
000002cc 2e68707000 
000002d1 000000         1589 	.byte	0,0,0
000002d4 2e2e2f736f75   1590 	.strz	"../source/ProjectCfg/Dem_Cfg_DtcId.hpp"
000002da 7263652f5072 

                                                                      Page 31
                                                              C:\Users\nhuliyap\AppData\Local\Temp\gh_00002581.s
000002e0 6f6a65637443 
000002e6 66672f44656d 
000002ec 5f4366675f44 
000002f2 746349642e68 
000002f8 707000 
000002fb 000000         1591 	.byte	0,0,0
000002fe 2e2e2f736f75   1592 	.strz	"../source/ProjectCfg/Dem_Cfg_Main.hpp"
00000304 7263652f5072 
0000030a 6f6a65637443 
00000310 66672f44656d 
00000316 5f4366675f4d 
0000031c 61696e2e6870 
00000322 7000 
00000324 000000         1593 	.byte	0,0,0
00000327 2e2e2f736f75   1594 	.strz	"../source/ProjectCfg/Dem_Cfg_Deb.hpp"
0000032d 7263652f5072 
00000333 6f6a65637443 
00000339 66672f44656d 
0000033f 5f4366675f44 
00000345 65622e687070 
0000034b 00 
0000034c 000000         1595 	.byte	0,0,0
0000034f 2e2e2f736f75   1596 	.strz	"../source/ProjectCfg/Dem_Cfg_EnableCondition.hpp"
00000355 7263652f5072 
0000035b 6f6a65637443 
00000361 66672f44656d 
00000367 5f4366675f45 
0000036d 6e61626c6543 
00000373 6f6e64697469 
00000379 6f6e2e687070 
0000037f 00 
00000380 000000         1597 	.byte	0,0,0
00000383 2e2e2f736f75   1598 	.strz	"../source/ProjectCfg/Dem_Cfg_EventCategory.hpp"
00000389 7263652f5072 
0000038f 6f6a65637443 
00000395 66672f44656d 
0000039b 5f4366675f45 
000003a1 76656e744361 
000003a7 7465676f7279 
000003ad 2e68707000 
000003b2 000000         1599 	.byte	0,0,0
000003b5 2e2e2f736f75   1600 	.strz	"../source/ProjectCfg/Dem_Cfg_EventIndicators.hpp"
000003bb 7263652f5072 
000003c1 6f6a65637443 
000003c7 66672f44656d 
000003cd 5f4366675f45 
000003d3 76656e74496e 
000003d9 64696361746f 
000003df 72732e687070 
000003e5 00 
000003e6 000000         1601 	.byte	0,0,0
000003e9 2e2e2f736f75   1602 	.strz	"../source/ProjectCfg/Dem_Cfg_OperationCycle.hpp"
000003ef 7263652f5072 
000003f5 6f6a65637443 
000003fb 66672f44656d 
00000401 5f4366675f4f 
00000407 706572617469 
0000040d 6f6e4379636c 
00000413 652e68707000 
00000419 000000         1603 	.byte	0,0,0
0000041c 2e2e2f736f75   1604 	.strz	"../source/wrappers/LibAutosarDiag/rba_DiagLib_Bits8.hpp"

                                                                      Page 32
                                                              C:\Users\nhuliyap\AppData\Local\Temp\gh_00002581.s
00000422 7263652f7772 
00000428 617070657273 
0000042e 2f4c69624175 
00000434 746f73617244 
0000043a 6961672f7262 
00000440 615f44696167 
00000446 4c69625f4269 
0000044c 7473382e6870 
00000452 7000 
00000454 000000         1605 	.byte	0,0,0
00000457 2e2e2f736f75   1606 	.strz	"../source/wrappers/LibAutosarDiag/rba_DiagLib_Bits16.hpp"
0000045d 7263652f7772 
00000463 617070657273 
00000469 2f4c69624175 
0000046f 746f73617244 
00000475 6961672f7262 
0000047b 615f44696167 
00000481 4c69625f4269 
00000487 747331362e68 
0000048d 707000 
00000490 000000         1607 	.byte	0,0,0
00000493 2e2e2f736f75   1608 	.strz	"../source/wrappers/LibAutosarDiag/rba_DiagLib_Bits32.hpp"
00000499 7263652f7772 
0000049f 617070657273 
000004a5 2f4c69624175 
000004ab 746f73617244 
000004b1 6961672f7262 
000004b7 615f44696167 
000004bd 4c69625f4269 
000004c3 747333322e68 
000004c9 707000 
000004cc 000000         1609 	.byte	0,0,0
000004cf 2e2e2f736f75   1610 	.strz	"../source/ProjectCfg/Dem_Cfg_StorageCondition.hpp"
000004d5 7263652f5072 
000004db 6f6a65637443 
000004e1 66672f44656d 
000004e7 5f4366675f53 
000004ed 746f72616765 
000004f3 436f6e646974 
000004f9 696f6e2e6870 
000004ff 7000 
00000501 000000         1611 	.byte	0,0,0
00000504 2e2e2f736f75   1612 	.strz	"../source/wrappers/SwcServiceDem/Dem_Dlt.hpp"
0000050a 7263652f7772 
00000510 617070657273 
00000516 2f5377635365 
0000051c 727669636544 
00000522 656d2f44656d 
00000528 5f446c742e68 
0000052e 707000 
00000531 000000         1613 	.byte	0,0,0
00000534 2e2e2f736f75   1614 	.strz	"../source/ProjectCompiler/Dem_Cfg_MemMap.hpp"
0000053a 7263652f5072 
00000540 6f6a65637443 
00000546 6f6d70696c65 
0000054c 722f44656d5f 
00000552 4366675f4d65 
00000558 6d4d61702e68 
0000055e 707000 
00000561 000000         1615 	.byte	0,0,0
00000564 2e2e2f736f75   1616 	.strz	"../source/ProjectCompiler/Bsw_MemMap.hpp"

                                                                      Page 33
                                                              C:\Users\nhuliyap\AppData\Local\Temp\gh_00002581.s
0000056a 7263652f5072 
00000570 6f6a65637443 
00000576 6f6d70696c65 
0000057c 722f4273775f 
00000582 4d656d4d6170 
00000588 2e68707000 
0000058d 000000         1617 	.byte	0,0,0
00000590 2e2e2f736f75   1618 	.strz	"../source/ProjectCompiler/MemMap_Common.hpp"
00000596 7263652f5072 
0000059c 6f6a65637443 
000005a2 6f6d70696c65 
000005a8 722f4d656d4d 
000005ae 61705f436f6d 
000005b4 6d6f6e2e6870 
000005ba 7000 
000005bc 000000         1619 	.byte	0,0,0
000005bf 2e2e2f736f75   1620 	.strz	"../source/wrappers/SwcServiceDem/Dem_Dcm.hpp"
000005c5 7263652f7772 
000005cb 617070657273 
000005d1 2f5377635365 
000005d7 727669636544 
000005dd 656d2f44656d 
000005e3 5f44636d2e68 
000005e9 707000 
000005ec 000000         1621 	.byte	0,0,0
000005ef 2e2e2f736f75   1622 	.strz	"../source/wrappers/SwcServiceDcm/Dcm_Types.hpp"
000005f5 7263652f7772 
000005fb 617070657273 
00000601 2f5377635365 
00000607 727669636544 
0000060d 636d2f44636d 
00000613 5f5479706573 
00000619 2e68707000 
0000061e 000000         1623 	.byte	0,0,0
00000621 2e2e2f736f75   1624 	.strz	"../source/wrappers/Rte_Dcm_Type.hpp"
00000627 7263652f7772 
0000062d 617070657273 
00000633 2f5274655f44 
00000639 636d5f547970 
0000063f 652e68707000 
00000645 000000         1625 	.byte	0,0,0
00000648 2e2e2f736f75   1626 	.strz	"../source/wrappers/SwcServiceDem/Dem_J1939Dcm.hpp"
0000064e 7263652f7772 
00000654 617070657273 
0000065a 2f5377635365 
00000660 727669636544 
00000666 656d2f44656d 
0000066c 5f4a31393339 
00000672 44636d2e6870 
00000678 7000 
0000067a 000000         1627 	.byte	0,0,0
0000067d 2e2e2f736f75   1628 	.strz	"../source/wrappers/Rte_Dem.hpp"
00000683 7263652f7772 
00000689 617070657273 
0000068f 2f5274655f44 
00000695 656d2e687070 
0000069b 00 
0000069c 000000         1629 	.byte	0,0,0
0000069f 2e2e2f736f75   1630 	.strz	"../source/wrappers/DEM_MANAGER/DemAppInterfaceX.hpp"
000006a5 7263652f7772 
000006ab 617070657273 

                                                                      Page 34
                                                              C:\Users\nhuliyap\AppData\Local\Temp\gh_00002581.s
000006b1 2f44454d5f4d 
000006b7 414e41474552 
000006bd 2f44656d4170 
000006c3 70496e746572 
000006c9 66616365582e 
000006cf 68707000 
000006d3 000000         1631 	.byte	0,0,0
000006d6 2e2e2f736f75   1632 	.strz	"../source/wrappers/SwcServiceDem/Dem_EnvDataElement.hpp"
000006dc 7263652f7772 
000006e2 617070657273 
000006e8 2f5377635365 
000006ee 727669636544 
000006f4 656d2f44656d 
000006fa 5f456e764461 
00000700 7461456c656d 
00000706 656e742e6870 
0000070c 7000 
0000070e 000000         1633 	.byte	0,0,0
00000711 2e2e2f736f75   1634 	.strz	"../source/wrappers/SwcServiceDem/Dem_Lib.hpp"
00000717 7263652f7772 
0000071d 617070657273 
00000723 2f5377635365 
00000729 727669636544 
0000072f 656d2f44656d 
00000735 5f4c69622e68 
0000073b 707000 
0000073e 000000         1635 	.byte	0,0,0
00000741 2e2e2f736f75   1636 	.strz	"../source/wrappers/SwcServiceDem/Dem_Lok_Det.hpp"
00000747 7263652f7772 
0000074d 617070657273 
00000753 2f5377635365 
00000759 727669636544 
0000075f 656d2f44656d 
00000765 5f4c6f6b5f44 
0000076b 65742e687070 
00000771 00 
00000772 000000         1637 	.byte	0,0,0
00000775 2e2e2f736f75   1638 	.strz	"../source/SwcServiceDet/Det.hpp"
0000077b 7263652f5377 
00000781 635365727669 
00000787 63654465742f 
0000078d 4465742e6870 
00000793 7000 
00000795 000000         1639 	.byte	0,0,0
00000798 2e2e2f736f75   1640 	.strz	"../source/SwcServiceDet/Types_SwcServiceDet.hpp"
0000079e 7263652f5377 
000007a4 635365727669 
000007aa 63654465742f 
000007b0 54797065735f 
000007b6 537763536572 
000007bc 766963654465 
000007c2 742e68707000 
000007c8 000000         1641 	.byte	0,0,0
000007cb 2e2e2f736f75   1642 	.strz	"../source/wrappers/Rte_Det_Type.hpp"
000007d1 7263652f7772 
000007d7 617070657273 
000007dd 2f5274655f44 
000007e3 65745f547970 
000007e9 652e68707000 
000007ef 000000         1643 	.byte	0,0,0
000007f2 2e2e2f736f75   1644 	.strz	"../source/ProjectCompiler/Det_MemMap.hpp"

                                                                      Page 35
                                                              C:\Users\nhuliyap\AppData\Local\Temp\gh_00002581.s
000007f8 7263652f5072 
000007fe 6f6a65637443 
00000804 6f6d70696c65 
0000080a 722f4465745f 
00000810 4d656d4d6170 
00000816 2e68707000 
0000081b 000000         1645 	.byte	0,0,0
0000081e 2e2e2f736f75   1646 	.strz	"../source/wrappers/LibAutosarDiag/rba_DiagLib_MemUtils.hpp"
00000824 7263652f7772 
0000082a 617070657273 
00000830 2f4c69624175 
00000836 746f73617244 
0000083c 6961672f7262 
00000842 615f44696167 
00000848 4c69625f4d65 
0000084e 6d5574696c73 
00000854 2e68707000 
00000859 000000         1647 	.byte	0,0,0
0000085c 2e2e2f736f75   1648 	.strz	"../source/wrappers/rba_BswSrv/rba_BswSrv.hpp"
00000862 7263652f7772 
00000868 617070657273 
0000086e 2f7262615f42 
00000874 73775372762f 
0000087a 7262615f4273 
00000880 775372762e68 
00000886 707000 
00000889 000000         1649 	.byte	0,0,0
0000088c 2e2e2f736f75   1650 	.strz	"../source/ProjectCompiler/rba_BswSrv_MemMap.hpp"
00000892 7263652f5072 
00000898 6f6a65637443 
0000089e 6f6d70696c65 
000008a4 722f7262615f 
000008aa 427377537276 
000008b0 5f4d656d4d61 
000008b6 702e68707000 
000008bc 000000         1651 	.byte	0,0,0
000008bf 2e2e2f736f75   1652 	.strz	"../source/ProjectCfg/Dem_Cfg_EnvDataElement.hpp"
000008c5 7263652f5072 
000008cb 6f6a65637443 
000008d1 66672f44656d 
000008d7 5f4366675f45 
000008dd 6e7644617461 
000008e3 456c656d656e 
000008e9 742e68707000 
000008ef 000000         1653 	.byte	0,0,0
000008f2 2e2e2f736f75   1654 	.strz	"../source/wrappers/SwcServiceDem/Dem_InternalEnvData.hpp"
000008f8 7263652f7772 
000008fe 617070657273 
00000904 2f5377635365 
0000090a 727669636544 
00000910 656d2f44656d 
00000916 5f496e746572 
0000091c 6e616c456e76 
00000922 446174612e68 
00000928 707000 
0000092b 000000         1655 	.byte	0,0,0
0000092e 2e2e2f736f75   1656 	.strz	"../source/wrappers/SwcServiceDem/Dem_EvMemTypes.hpp"
00000934 7263652f7772 
0000093a 617070657273 
00000940 2f5377635365 
00000946 727669636544 

                                                                      Page 36
                                                              C:\Users\nhuliyap\AppData\Local\Temp\gh_00002581.s
0000094c 656d2f44656d 
00000952 5f45764d656d 
00000958 54797065732e 
0000095e 68707000 
00000962 000000         1657 	.byte	0,0,0
00000965 2e2e2f736f75   1658 	.strz	"../source/ProjectCfg/Dem_Cfg_EvMem.hpp"
0000096b 7263652f5072 
00000971 6f6a65637443 
00000977 66672f44656d 
0000097d 5f4366675f45 
00000983 764d656d2e68 
00000989 707000 
0000098c 000000         1659 	.byte	0,0,0
0000098f 2e2e2f736f75   1660 	.strz	"../source/ProjectCfg/Dem_Cfg_Events.hpp"
00000995 7263652f5072 
0000099b 6f6a65637443 
000009a1 66672f44656d 
000009a7 5f4366675f45 
000009ad 76656e74732e 
000009b3 68707000 
000009b7 000000         1661 	.byte	0,0,0
000009ba 2e2e2f736f75   1662 	.strz	"../source/ProjectCfg/Dem_Cfg_EnvMain.hpp"
000009c0 7263652f5072 
000009c6 6f6a65637443 
000009cc 66672f44656d 
000009d2 5f4366675f45 
000009d8 6e764d61696e 
000009de 2e68707000 
000009e3 000000         1663 	.byte	0,0,0
000009e6 2e2e2f736f75   1664 	.strz	"../source/ProjectCfg/Dem_Cfg_DTCs.hpp"
000009ec 7263652f5072 
000009f2 6f6a65637443 
000009f8 66672f44656d 
000009fe 5f4366675f44 
00000a04 5443732e6870 
00000a0a 7000 
00000a0c 000000         1665 	.byte	0,0,0
00000a0f 2e2e2f736f75   1666 	.strz	"../source/ProjectCfg/Dem_Cfg_DTC_DataStructures.hpp"
00000a15 7263652f5072 
00000a1b 6f6a65637443 
00000a21 66672f44656d 
00000a27 5f4366675f44 
00000a2d 54435f446174 
00000a33 615374727563 
00000a39 74757265732e 
00000a3f 68707000 
00000a43 000000         1667 	.byte	0,0,0
00000a46 2e2e2f736f75   1668 	.strz	"../source/wrappers/SwcServiceDem/Dem_EvMemApi.hpp"
00000a4c 7263652f7772 
00000a52 617070657273 
00000a58 2f5377635365 
00000a5e 727669636544 
00000a64 656d2f44656d 
00000a6a 5f45764d656d 
00000a70 4170692e6870 
00000a76 7000 
00000a78 000000         1669 	.byte	0,0,0
00000a7b 2e2e2f736f75   1670 	.strz	"../source/wrappers/SwcServiceDem/Dem_EvMem.hpp"
00000a81 7263652f7772 
00000a87 617070657273 
00000a8d 2f5377635365 

                                                                      Page 37
                                                              C:\Users\nhuliyap\AppData\Local\Temp\gh_00002581.s
00000a93 727669636544 
00000a99 656d2f44656d 
00000a9f 5f45764d656d 
00000aa5 2e68707000 
00000aaa 000000         1671 	.byte	0,0,0
00000aad 2e2e2f736f75   1672 	.strz	"../source/wrappers/SwcServiceDem/Dem_OperationCycle.hpp"
00000ab3 7263652f7772 
00000ab9 617070657273 
00000abf 2f5377635365 
00000ac5 727669636544 
00000acb 656d2f44656d 
00000ad1 5f4f70657261 
00000ad7 74696f6e4379 
00000add 636c652e6870 
00000ae3 7000 
00000ae5 000000         1673 	.byte	0,0,0
00000ae8 2e2e2f736f75   1674 	.strz	"../source/ProjectCfg/Dem_Cfg_OperationCycle_DataStructures.hpp"
00000aee 7263652f5072 
00000af4 6f6a65637443 
00000afa 66672f44656d 
00000b00 5f4366675f4f 
00000b06 706572617469 
00000b0c 6f6e4379636c 
00000b12 655f44617461 
00000b18 537472756374 
00000b1e 757265732e68 
00000b24 707000 
00000b27 000000         1675 	.byte	0,0,0
00000b2a 2e2e2f736f75   1676 	.strz	"../source/wrappers/SwcServiceDem/Dem_EvMemBase.hpp"
00000b30 7263652f7772 
00000b36 617070657273 
00000b3c 2f5377635365 
00000b42 727669636544 
00000b48 656d2f44656d 
00000b4e 5f45764d656d 
00000b54 426173652e68 
00000b5a 707000 
00000b5d 000000         1677 	.byte	0,0,0
00000b60 2e2e2f736f75   1678 	.strz	"../source/wrappers/SwcServiceDem/Dem_Helpers.hpp"
00000b66 7263652f7772 
00000b6c 617070657273 
00000b72 2f5377635365 
00000b78 727669636544 
00000b7e 656d2f44656d 
00000b84 5f48656c7065 
00000b8a 72732e687070 
00000b90 00 
00000b91 000000         1679 	.byte	0,0,0
00000b94 2e2e2f736f75   1680 	.strz	"../source/wrappers/SwcServiceDem/Dem_Events.hpp"
00000b9a 7263652f7772 
00000ba0 617070657273 
00000ba6 2f5377635365 
00000bac 727669636544 
00000bb2 656d2f44656d 
00000bb8 5f4576656e74 
00000bbe 732e68707000 
00000bc4 000000         1681 	.byte	0,0,0
00000bc7 2e2e2f736f75   1682 	.strz	"../source/wrappers/SwcServiceDem/Dem_Array.hpp"
00000bcd 7263652f7772 
00000bd3 617070657273 
00000bd9 2f5377635365 

                                                                      Page 38
                                                              C:\Users\nhuliyap\AppData\Local\Temp\gh_00002581.s
00000bdf 727669636544 
00000be5 656d2f44656d 
00000beb 5f4172726179 
00000bf1 2e68707000 
00000bf6 000000         1683 	.byte	0,0,0
00000bf9 2e2e2f736f75   1684 	.strz	"../source/wrappers/SwcServiceDem/Dem_BitArray.hpp"
00000bff 7263652f7772 
00000c05 617070657273 
00000c0b 2f5377635365 
00000c11 727669636544 
00000c17 656d2f44656d 
00000c1d 5f4269744172 
00000c23 7261792e6870 
00000c29 7000 
00000c2b 000000         1685 	.byte	0,0,0
00000c2e 2e2e2f736f75   1686 	.strz	"../source/wrappers/SwcServiceDem/Dem_Lock.hpp"
00000c34 7263652f7772 
00000c3a 617070657273 
00000c40 2f5377635365 
00000c46 727669636544 
00000c4c 656d2f44656d 
00000c52 5f4c6f636b2e 
00000c58 68707000 
00000c5c 000000         1687 	.byte	0,0,0
00000c5f 2e2e2f736f75   1688 	.strz	"../source/wrappers/SwcServiceDem/Dem_Main.hpp"
00000c65 7263652f7772 
00000c6b 617070657273 
00000c71 2f5377635365 
00000c77 727669636544 
00000c7d 656d2f44656d 
00000c83 5f4d61696e2e 
00000c89 68707000 
00000c8d 000000         1689 	.byte	0,0,0
00000c90 2e2e2f736f75   1690 	.strz	"../source/ProjectCfg/Dem_Cfg_SchM.hpp"
00000c96 7263652f5072 
00000c9c 6f6a65637443 
00000ca2 66672f44656d 
00000ca8 5f4366675f53 
00000cae 63684d2e6870 
00000cb4 7000 
00000cb6 000000         1691 	.byte	0,0,0
00000cb9 2e2e2f736f75   1692 	.strz	"../source/SwcServiceSchM/SchM_Default.hpp"
00000cbf 7263652f5377 
00000cc5 635365727669 
00000ccb 63655363684d 
00000cd1 2f5363684d5f 
00000cd7 44656661756c 
00000cdd 742e68707000 
00000ce3 000000         1693 	.byte	0,0,0
00000ce6 2e2e2f736f75   1694 	.strz	"../source/McalMcu/Device.hpp"
00000cec 7263652f4d63 
00000cf2 616c4d63752f 
00000cf8 446576696365 
00000cfe 2e68707000 
00000d03 000000         1695 	.byte	0,0,0
00000d06 2e2e2f736f75   1696 	.strz	"../source/McalMcu/dr7f701013.dvf.hpp"
00000d0c 7263652f4d63 
00000d12 616c4d63752f 
00000d18 647237663730 
00000d1e 313031332e64 
00000d24 76662e687070 

                                                                      Page 39
                                                              C:\Users\nhuliyap\AppData\Local\Temp\gh_00002581.s
00000d2a 00 
00000d2b 000000         1697 	.byte	0,0,0
00000d2e 2e2e2f736f75   1698 	.strz	"../source/McalMcu/cpu.hpp"
00000d34 7263652f4d63 
00000d3a 616c4d63752f 
00000d40 6370752e6870 
00000d46 7000 
00000d48 000000         1699 	.byte	0,0,0
00000d4b 2e2e2f736f75   1700 	.strz	"../source/McalMcu/v800_ghs.hpp"
00000d51 7263652f4d63 
00000d57 616c4d63752f 
00000d5d 763830305f67 
00000d63 68732e687070 
00000d69 00 
00000d6a 000000         1701 	.byte	0,0,0
00000d6d 2e2e2f736f75   1702 	.strz	"../source/wrappers/SwcServiceDem/Dem_ISO14229Byte.hpp"
00000d73 7263652f7772 
00000d79 617070657273 
00000d7f 2f5377635365 
00000d85 727669636544 
00000d8b 656d2f44656d 
00000d91 5f49534f3134 
00000d97 323239427974 
00000d9d 652e68707000 
00000da3 000000         1703 	.byte	0,0,0
00000da6 2e2e2f736f75   1704 	.strz	"../source/wrappers/SwcServiceDem/Dem_Clear.hpp"
00000dac 7263652f7772 
00000db2 617070657273 
00000db8 2f5377635365 
00000dbe 727669636544 
00000dc4 656d2f44656d 
00000dca 5f436c656172 
00000dd0 2e68707000 
00000dd5 000000         1705 	.byte	0,0,0
00000dd8 2e2e2f736f75   1706 	.strz	"../source/ProjectCfg/Dem_Cfg_Clear.hpp"
00000dde 7263652f5072 
00000de4 6f6a65637443 
00000dea 66672f44656d 
00000df0 5f4366675f43 
00000df6 6c6561722e68 
00000dfc 707000 
00000dff 000000         1707 	.byte	0,0,0
00000e02 2e2e2f736f75   1708 	.strz	"../source/wrappers/SwcServiceDem/Dem_Mapping.hpp"
00000e08 7263652f7772 
00000e0e 617070657273 
00000e14 2f5377635365 
00000e1a 727669636544 
00000e20 656d2f44656d 
00000e26 5f4d61707069 
00000e2c 6e672e687070 
00000e32 00 
00000e33 000000         1709 	.byte	0,0,0
00000e36 2e2e2f736f75   1710 	.strz	"../source/ProjectCfg/Dem_Cfg_Nodes.hpp"
00000e3c 7263652f5072 
00000e42 6f6a65637443 
00000e48 66672f44656d 
00000e4e 5f4366675f4e 
00000e54 6f6465732e68 
00000e5a 707000 
00000e5d 000000         1711 	.byte	0,0,0
00000e60 2e2e2f736f75   1712 	.strz	"../source/ProjectCfg/Dem_Cfg_EvBuff.hpp"

                                                                      Page 40
                                                              C:\Users\nhuliyap\AppData\Local\Temp\gh_00002581.s
00000e66 7263652f5072 
00000e6c 6f6a65637443 
00000e72 66672f44656d 
00000e78 5f4366675f45 
00000e7e 76427566662e 
00000e84 68707000 
00000e88 000000         1713 	.byte	0,0,0
00000e8b 2e2e2f736f75   1714 	.strz	"../source/wrappers/SwcServiceDem/Dem_EventCategory.hpp"
00000e91 7263652f7772 
00000e97 617070657273 
00000e9d 2f5377635365 
00000ea3 727669636544 
00000ea9 656d2f44656d 
00000eaf 5f4576656e74 
00000eb5 43617465676f 
00000ebb 72792e687070 
00000ec1 00 
00000ec2 000000         1715 	.byte	0,0,0
00000ec5 2e2e2f736f75   1716 	.strz	"../source/wrappers/SwcServiceDem/Dem_StorageCondition.hpp"
00000ecb 7263652f7772 
00000ed1 617070657273 
00000ed7 2f5377635365 
00000edd 727669636544 
00000ee3 656d2f44656d 
00000ee9 5f53746f7261 
00000eef 6765436f6e64 
00000ef5 6974696f6e2e 
00000efb 68707000 
00000eff 000000         1717 	.byte	0,0,0
00000f02 2e2e2f736f75   1718 	.strz	"../source/wrappers/SwcServiceDem/Dem_EnableCondition.hpp"
00000f08 7263652f7772 
00000f0e 617070657273 
00000f14 2f5377635365 
00000f1a 727669636544 
00000f20 656d2f44656d 
00000f26 5f456e61626c 
00000f2c 65436f6e6469 
00000f32 74696f6e2e68 
00000f38 707000 
00000f3b 000000         1719 	.byte	0,0,0
00000f3e 2e2e2f736f75   1720 	.strz	"../source/ProjectCfg/Dem_Cfg_DistMem.hpp"
00000f44 7263652f5072 
00000f4a 6f6a65637443 
00000f50 66672f44656d 
00000f56 5f4366675f44 
00000f5c 6973744d656d 
00000f62 2e68707000 
00000f67 000000         1721 	.byte	0,0,0
00000f6a 2e2e2f736f75   1722 	.strz	"../source/wrappers/SwcServiceDem/Dem_Nvm.hpp"
00000f70 7263652f7772 
00000f76 617070657273 
00000f7c 2f5377635365 
00000f82 727669636544 
00000f88 656d2f44656d 
00000f8e 5f4e766d2e68 
00000f94 707000 
00000f97 000000         1723 	.byte	0,0,0
00000f9a 2e2e2f736f75   1724 	.strz	"../source/SwcServiceNvM/NvM.hpp"
00000fa0 7263652f5377 
00000fa6 635365727669 
00000fac 63654e764d2f 

                                                                      Page 41
                                                              C:\Users\nhuliyap\AppData\Local\Temp\gh_00002581.s
00000fb2 4e764d2e6870 
00000fb8 7000 
00000fba 000000         1725 	.byte	0,0,0
00000fbd 2e2e2f736f75   1726 	.strz	"../source/ProjectCfg/NvM_Cfg.hpp"
00000fc3 7263652f5072 
00000fc9 6f6a65637443 
00000fcf 66672f4e764d 
00000fd5 5f4366672e68 
00000fdb 707000 
00000fde 000000         1727 	.byte	0,0,0
00000fe1 2e2e2f736f75   1728 	.strz	"../source/wrappers/Rte_NvM_Type.hpp"
00000fe7 7263652f7772 
00000fed 617070657273 
00000ff3 2f5274655f4e 
00000ff9 764d5f547970 
00000fff 652e68707000 
00001005 000000         1729 	.byte	0,0,0
00001008 2e2e2f736f75   1730 	.strz	"../source/wrappers/SwcServiceDem/Dem_NvmCallbacks.hpp"
0000100e 7263652f7772 
00001014 617070657273 
0000101a 2f5377635365 
00001020 727669636544 
00001026 656d2f44656d 
0000102c 5f4e766d4361 
00001032 6c6c6261636b 
00001038 732e68707000 
0000103e 000000         1731 	.byte	0,0,0
00001041 2e2e2f736f75   1732 	.strz	"../source/ProjectCfg/Dem_Cfg_NvmCallbacks.hpp"
00001047 7263652f5072 
0000104d 6f6a65637443 
00001053 66672f44656d 
00001059 5f4366675f4e 
0000105f 766d43616c6c 
00001065 6261636b732e 
0000106b 68707000 
0000106f 000000         1733 	.byte	0,0,0
00001072 2e2e2f736f75   1734 	.strz	"../source/SwcApplTpms/SwcApplTpms_NvM.hpp"
00001078 7263652f5377 
0000107e 634170706c54 
00001084 706d732f5377 
0000108a 634170706c54 
00001090 706d735f4e76 
00001096 4d2e68707000 
0000109c 000000         1735 	.byte	0,0,0
0000109f 2e2e2f736f75   1736 	.strz	"../source/SwcApplTpms/iTpms_Interface.hpp"
000010a5 7263652f5377 
000010ab 634170706c54 
000010b1 706d732f6954 
000010b7 706d735f496e 
000010bd 746572666163 
000010c3 652e68707000 
000010c9 000000         1737 	.byte	0,0,0
000010cc 2e2e2f736f75   1738 	.strz	"../source/SwcApplTpms/Tpms_Rte_Data_Type.hpp"
000010d2 7263652f5377 
000010d8 634170706c54 
000010de 706d732f5470 
000010e4 6d735f527465 
000010ea 5f446174615f 
000010f0 547970652e68 
000010f6 707000 
000010f9 000000         1739 	.byte	0,0,0

                                                                      Page 42
                                                              C:\Users\nhuliyap\AppData\Local\Temp\gh_00002581.s
000010fc 2e2e2f736f75   1740 	.strz	"../source/SwcServiceNvM/NvM_Types.hpp"
00001102 7263652f5377 
00001108 635365727669 
0000110e 63654e764d2f 
00001114 4e764d5f5479 
0000111a 7065732e6870 
00001120 7000 
00001122 000000         1741 	.byte	0,0,0
00001125 2e2e2f736f75   1742 	.strz	"../source/ProjectCompiler/MemMap.hpp"
0000112b 7263652f5072 
00001131 6f6a65637443 
00001137 6f6d70696c65 
0000113d 722f4d656d4d 
00001143 61702e687070 
00001149 00 
0000114a 000000         1743 	.byte	0,0,0
0000114d 2e2e2f736f75   1744 	.strz	"../source/wrappers/SwcServiceDem/Dem_Nvm_Types.hpp"
00001153 7263652f7772 
00001159 617070657273 
0000115f 2f5377635365 
00001165 727669636544 
0000116b 656d2f44656d 
00001171 5f4e766d5f54 
00001177 797065732e68 
0000117d 707000 
00001180 000000         1745 	.byte	0,0,0
00001183 2e2e2f736f75   1746 	.strz	"../source/ProjectCfg/Dem_Cfg_Nvm.hpp"
00001189 7263652f5072 
0000118f 6f6a65637443 
00001195 66672f44656d 
0000119b 5f4366675f4e 
000011a1 766d2e687070 
000011a7 00 
000011a8 000000         1747 	.byte	0,0,0
000011ab 2e2e2f736f75   1748 	.strz	"../source/wrappers/SwcServiceDem/Dem_GenericNvData.hpp"
000011b1 7263652f7772 
000011b7 617070657273 
000011bd 2f5377635365 
000011c3 727669636544 
000011c9 656d2f44656d 
000011cf 5f47656e6572 
000011d5 69634e764461 
000011db 74612e687070 
000011e1 00 
000011e2 000000         1749 	.byte	0,0,0
000011e5 2e2e2f736f75   1750 	.strz	"../source/wrappers/SwcServiceDem/Dem_EvMemGenTypes.hpp"
000011eb 7263652f7772 
000011f1 617070657273 
000011f7 2f5377635365 
000011fd 727669636544 
00001203 656d2f44656d 
00001209 5f45764d656d 
0000120f 47656e547970 
00001215 65732e687070 
0000121b 00 
0000121c 000000         1751 	.byte	0,0,0
0000121f 2e2e2f736f75   1752 	.strz	"../source/wrappers/SwcServiceDem/Dem_IndicatorAttributes.hpp"
00001225 7263652f7772 
0000122b 617070657273 
00001231 2f5377635365 
00001237 727669636544 

                                                                      Page 43
                                                              C:\Users\nhuliyap\AppData\Local\Temp\gh_00002581.s
0000123d 656d2f44656d 
00001243 5f496e646963 
00001249 61746f724174 
0000124f 747269627574 
00001255 65732e687070 
0000125b 00 
0000125c 000000         1753 	.byte	0,0,0
0000125f 2e2e2f736f75   1754 	.strz	"../source/wrappers/SwcServiceDem/Dem_Indicator.hpp"
00001265 7263652f7772 
0000126b 617070657273 
00001271 2f5377635365 
00001277 727669636544 
0000127d 656d2f44656d 
00001283 5f496e646963 
00001289 61746f722e68 
0000128f 707000 
00001292 000000         1755 	.byte	0,0,0
00001295 2e2e2f736f75   1756 	.strz	"../source/ProjectCfg/Dem_Cfg_Events_DataStructures.hpp"
0000129b 7263652f5072 
000012a1 6f6a65637443 
000012a7 66672f44656d 
000012ad 5f4366675f45 
000012b3 76656e74735f 
000012b9 446174615374 
000012bf 727563747572 
000012c5 65732e687070 
000012cb 00 
000012cc 000000         1757 	.byte	0,0,0
000012cf 2e2e2f736f75   1758 	.strz	"../source/wrappers/LibAutosarDiag/rba_DiagLib.hpp"
000012d5 7263652f7772 
000012db 617070657273 
000012e1 2f4c69624175 
000012e7 746f73617244 
000012ed 6961672f7262 
000012f3 615f44696167 
000012f9 4c69622e6870 
000012ff 7000 
00001301 000000         1759 	.byte	0,0,0
00001304 2e2e2f736f75   1760 	.strz	"../source/wrappers/LibAutosarDiag/rba_DiagLib_ByteOrderUtils.hpp"
0000130a 7263652f7772 
00001310 617070657273 
00001316 2f4c69624175 
0000131c 746f73617244 
00001322 6961672f7262 
00001328 615f44696167 
0000132e 4c69625f4279 
00001334 74654f726465 
0000133a 725574696c73 
00001340 2e68707000 
00001345 000000         1761 	.byte	0,0,0
00001348 2e2e2f736f75   1762 	.strz	"../source/ProjectCompiler/rba_DiagLib_MemMap.hpp"
0000134e 7263652f5072 
00001354 6f6a65637443 
0000135a 6f6d70696c65 
00001360 722f7262615f 
00001366 446961674c69 
0000136c 625f4d656d4d 
00001372 61702e687070 
00001378 00 
00001379 000000         1763 	.byte	0,0,0
0000137c 2e2e2f736f75   1764 	.strz	"../source/wrappers/SwcServiceDem/Dem_EnvTrigger.hpp"

                                                                      Page 44
                                                              C:\Users\nhuliyap\AppData\Local\Temp\gh_00002581.s
00001382 7263652f7772 
00001388 617070657273 
0000138e 2f5377635365 
00001394 727669636544 
0000139a 656d2f44656d 
000013a0 5f456e765472 
000013a6 69676765722e 
000013ac 68707000 
000013b0 000000         1765 	.byte	0,0,0
000013b3 2e2e2f736f75   1766 	.strz	"../source/wrappers/SwcServiceDem/Dem_Deb.hpp"
000013b9 7263652f7772 
000013bf 617070657273 
000013c5 2f5377635365 
000013cb 727669636544 
000013d1 656d2f44656d 
000013d7 5f4465622e68 
000013dd 707000 
000013e0 000000         1767 	.byte	0,0,0
000013e3 2e2e2f736f75   1768 	.strz	"../source/wrappers/SwcServiceDem/Dem_DebBase.hpp"
000013e9 7263652f7772 
000013ef 617070657273 
000013f5 2f5377635365 
000013fb 727669636544 
00001401 656d2f44656d 
00001407 5f4465624261 
0000140d 73652e687070 
00001413 00 
00001414 000000         1769 	.byte	0,0,0
00001417 2e2e2f736f75   1770 	.strz	"../source/wrappers/SwcServiceDem/Dem_DebSharing.hpp"
0000141d 7263652f7772 
00001423 617070657273 
00001429 2f5377635365 
0000142f 727669636544 
00001435 656d2f44656d 
0000143b 5f4465625368 
00001441 6172696e672e 
00001447 68707000 
0000144b 000000         1771 	.byte	0,0,0
0000144e 2e2e2f736f75   1772 	.strz	"../source/wrappers/SwcServiceDem/Dem_Dependencies.hpp"
00001454 7263652f7772 
0000145a 617070657273 
00001460 2f5377635365 
00001466 727669636544 
0000146c 656d2f44656d 
00001472 5f446570656e 
00001478 64656e636965 
0000147e 732e68707000 
00001484 000000         1773 	.byte	0,0,0
00001487 2e2e2f736f75   1774 	.strz	"../source/wrappers/SwcServiceDem/Dem_DisturbanceMemory.hpp"
0000148d 7263652f7772 
00001493 617070657273 
00001499 2f5377635365 
0000149f 727669636544 
000014a5 656d2f44656d 
000014ab 5f4469737475 
000014b1 7262616e6365 
000014b7 4d656d6f7279 
000014bd 2e68707000 
000014c2 000000         1775 	.byte	0,0,0
000014c5 2e2e2f736f75   1776 	.strz	"../source/wrappers/SwcServiceDem/Dem_EvBuff.hpp"
000014cb 7263652f7772 

                                                                      Page 45
                                                              C:\Users\nhuliyap\AppData\Local\Temp\gh_00002581.s
000014d1 617070657273 
000014d7 2f5377635365 
000014dd 727669636544 
000014e3 656d2f44656d 
000014e9 5f4576427566 
000014ef 662e68707000 
000014f5 000000         1777 	.byte	0,0,0
000014f8 2e2e2f736f75   1778 	.strz	"../source/wrappers/SwcServiceDem/Dem_EvBuffEvent.hpp"
000014fe 7263652f7772 
00001504 617070657273 
0000150a 2f5377635365 
00001510 727669636544 
00001516 656d2f44656d 
0000151c 5f4576427566 
00001522 664576656e74 
00001528 2e68707000 
0000152d 000000         1779 	.byte	0,0,0
00001530 2e2e2f736f75   1780 	.strz	"../source/wrappers/SwcServiceDem/Dem_EventFHandling.hpp"
00001536 7263652f7772 
0000153c 617070657273 
00001542 2f5377635365 
00001548 727669636544 
0000154e 656d2f44656d 
00001554 5f4576656e74 
0000155a 4648616e646c 
00001560 696e672e6870 
00001566 7000 
00001568 000000         1781 	.byte	0,0,0
0000156b 2e2e2f736f75   1782 	.strz	"../source/wrappers/SwcServiceDem/Dem_DTCStatusByte.hpp"
00001571 7263652f7772 
00001577 617070657273 
0000157d 2f5377635365 
00001583 727669636544 
00001589 656d2f44656d 
0000158f 5f4454435374 
00001595 617475734279 
0000159b 74652e687070 
000015a1 00 
000015a2 000000         1783 	.byte	0,0,0
000015a5 2e2e2f736f75   1784 	.strz	"../source/wrappers/SwcServiceDem/Dem_ClientBaseHandling.hpp"
000015ab 7263652f7772 
000015b1 617070657273 
000015b7 2f5377635365 
000015bd 727669636544 
000015c3 656d2f44656d 
000015c9 5f436c69656e 
000015cf 744261736548 
000015d5 616e646c696e 
000015db 672e68707000 
000015e1 000000         1785 	.byte	0,0,0
000015e4 2e2e2f736f75   1786 	.strz	"../source/wrappers/SwcServiceDem/Dem_Client.hpp"
000015ea 7263652f7772 
000015f0 617070657273 
000015f6 2f5377635365 
000015fc 727669636544 
00001602 656d2f44656d 
00001608 5f436c69656e 
0000160e 742e68707000 
00001614 000000         1787 	.byte	0,0,0
00001617 2e2e2f736f75   1788 	.strz	"../source/wrappers/SwcServiceDem/Dem_ClientClearMachine.hpp"
0000161d 7263652f7772 

                                                                      Page 46
                                                              C:\Users\nhuliyap\AppData\Local\Temp\gh_00002581.s
00001623 617070657273 
00001629 2f5377635365 
0000162f 727669636544 
00001635 656d2f44656d 
0000163b 5f436c69656e 
00001641 74436c656172 
00001647 4d616368696e 
0000164d 652e68707000 
00001653 000000         1789 	.byte	0,0,0
00001656 2e2e2f736f75   1790 	.strz	"../source/wrappers/SwcServiceDem/Dem_EvMemAging.hpp"
0000165c 7263652f7772 
00001662 617070657273 
00001668 2f5377635365 
0000166e 727669636544 
00001674 656d2f44656d 
0000167a 5f45764d656d 
00001680 4167696e672e 
00001686 68707000 
0000168a 000000         1791 	.byte	0,0,0
0000168d 2e2e2f736f75   1792 	.strz	"../source/wrappers/SwcServiceDem/Dem_EnvMain.hpp"
00001693 7263652f7772 
00001699 617070657273 
0000169f 2f5377635365 
000016a5 727669636544 
000016ab 656d2f44656d 
000016b1 5f456e764d61 
000016b7 696e2e687070 
000016bd 00 
000016be 000000         1793 	.byte	0,0,0
000016c1 2e2e2f736f75   1794 	.strz	"../source/wrappers/SwcServiceDem/Dem_EnvExtendedData.hpp"
000016c7 7263652f7772 
000016cd 617070657273 
000016d3 2f5377635365 
000016d9 727669636544 
000016df 656d2f44656d 
000016e5 5f456e764578 
000016eb 74656e646564 
000016f1 446174612e68 
000016f7 707000 
000016fa 000000         1795 	.byte	0,0,0
000016fd 2e2e2f736f75   1796 	.strz	"../source/wrappers/SwcServiceDem/Dem_EnvExtendedDataRec.hpp"
00001703 7263652f7772 
00001709 617070657273 
0000170f 2f5377635365 
00001715 727669636544 
0000171b 656d2f44656d 
00001721 5f456e764578 
00001727 74656e646564 
0000172d 446174615265 
00001733 632e68707000 
00001739 000000         1797 	.byte	0,0,0
0000173c 2e2e2f736f75   1798 	.strz	"../source/ProjectCfg/Dem_Cfg_EnvExtendedDataRec.hpp"
00001742 7263652f5072 
00001748 6f6a65637443 
0000174e 66672f44656d 
00001754 5f4366675f45 
0000175a 6e7645787465 
00001760 6e6465644461 
00001766 74615265632e 
0000176c 68707000 
00001770 000000         1799 	.byte	0,0,0

                                                                      Page 47
                                                              C:\Users\nhuliyap\AppData\Local\Temp\gh_00002581.s
00001773 2e2e2f736f75   1800 	.strz	"../source/ProjectCfg/Dem_Cfg_EnvExtendedData.hpp"
00001779 7263652f5072 
0000177f 6f6a65637443 
00001785 66672f44656d 
0000178b 5f4366675f45 
00001791 6e7645787465 
00001797 6e6465644461 
0000179d 74612e687070 
000017a3 00 
000017a4 000000         1801 	.byte	0,0,0
000017a7 2e2e2f736f75   1802 	.strz	"../source/wrappers/SwcServiceDem/Dem_EnvFreezeFrame.hpp"
000017ad 7263652f7772 
000017b3 617070657273 
000017b9 2f5377635365 
000017bf 727669636544 
000017c5 656d2f44656d 
000017cb 5f456e764672 
000017d1 65657a654672 
000017d7 616d652e6870 
000017dd 7000 
000017df 000000         1803 	.byte	0,0,0
000017e2 2e2e2f736f75   1804 	.strz	"../source/wrappers/SwcServiceDem/Dem_EnvDid.hpp"
000017e8 7263652f7772 
000017ee 617070657273 
000017f4 2f5377635365 
000017fa 727669636544 
00001800 656d2f44656d 
00001806 5f456e764469 
0000180c 642e68707000 
00001812 000000         1805 	.byte	0,0,0
00001815 2e2e2f736f75   1806 	.strz	"../source/ProjectCfg/Dem_Cfg_EnvDid.hpp"
0000181b 7263652f5072 
00001821 6f6a65637443 
00001827 66672f44656d 
0000182d 5f4366675f45 
00001833 6e764469642e 
00001839 68707000 
0000183d 000000         1807 	.byte	0,0,0
00001840 2e2e2f736f75   1808 	.strz	"../source/ProjectCfg/Dem_Cfg_EnvFreezeFrame.hpp"
00001846 7263652f5072 
0000184c 6f6a65637443 
00001852 66672f44656d 
00001858 5f4366675f45 
0000185e 6e7646726565 
00001864 7a654672616d 
0000186a 652e68707000 
00001870 000000         1809 	.byte	0,0,0
00001873 2e2e2f736f75   1810 	.strz	"../source/wrappers/SwcServiceDem/Dem_EnvFFRecNumeration.hpp"
00001879 7263652f7772 
0000187f 617070657273 
00001885 2f5377635365 
0000188b 727669636544 
00001891 656d2f44656d 
00001897 5f456e764646 
0000189d 5265634e756d 
000018a3 65726174696f 
000018a9 6e2e68707000 
000018af 000000         1811 	.byte	0,0,0
000018b2 2e2e2f736f75   1812 	.strz	"../source/ProjectCfg/Dem_Cfg_EnvFFRecNumeration.hpp"
000018b8 7263652f5072 
000018be 6f6a65637443 

                                                                      Page 48
                                                              C:\Users\nhuliyap\AppData\Local\Temp\gh_00002581.s
000018c4 66672f44656d 
000018ca 5f4366675f45 
000018d0 6e7646465265 
000018d6 634e756d6572 
000018dc 6174696f6e2e 
000018e2 68707000 
000018e6 000000         1813 	.byte	0,0,0
000018e9 2e2e2f736f75   1814 	.strz	"../source/wrappers/SwcServiceDem/Dem_DTCs.hpp"
000018ef 7263652f7772 
000018f5 617070657273 
000018fb 2f5377635365 
00001901 727669636544 
00001907 656d2f44656d 
0000190d 5f445443732e 
00001913 68707000 
00001917 000000         1815 	.byte	0,0,0
0000191a 00             1816 	.byte	0
                        1817 .Ldw_lpro_end:
                        1818 	.section	.debug_macinfo
                        1819 .Ldw_macinfo_begin:
                        1820 	.section	.debug_frame
                        1821 .LDW_566a730:
00000000 00000000*      1822 	.word	.LDW_unq_2-.LDW_unq_1
                        1823 .LDW_unq_1:
00000004 ffffffff       1824 	.byte	255,255,255,255
00000008 01             1825 	.byte	1
00000009 00             1826 	.byte	0
0000000a 01             1827 	.byte	1
0000000b 01             1828 	.byte	1
0000000c 1f             1829 	.byte	31
0000000d 0c             1830 	.byte	12
0000000e 03             1831 	.byte	3
0000000f 00             1832 	.byte	0
00000010 07             1833 	.byte	7
00000011 00             1834 	.byte	0
00000012 07             1835 	.byte	7
00000013 01             1836 	.byte	1
00000014 07             1837 	.byte	7
00000015 02             1838 	.byte	2
00000016 07             1839 	.byte	7
00000017 03             1840 	.byte	3
00000018 07             1841 	.byte	7
00000019 04             1842 	.byte	4
0000001a 07             1843 	.byte	7
0000001b 05             1844 	.byte	5
0000001c 07             1845 	.byte	7
0000001d 06             1846 	.byte	6
0000001e 07             1847 	.byte	7
0000001f 07             1848 	.byte	7
00000020 07             1849 	.byte	7
00000021 08             1850 	.byte	8
00000022 07             1851 	.byte	7
00000023 09             1852 	.byte	9
00000024 07             1853 	.byte	7
00000025 0a             1854 	.byte	10
00000026 07             1855 	.byte	7
00000027 0b             1856 	.byte	11
00000028 07             1857 	.byte	7
00000029 0c             1858 	.byte	12
0000002a 07             1859 	.byte	7
0000002b 0d             1860 	.byte	13

                                                                      Page 49
                                                              C:\Users\nhuliyap\AppData\Local\Temp\gh_00002581.s
0000002c 07             1861 	.byte	7
0000002d 0e             1862 	.byte	14
0000002e 07             1863 	.byte	7
0000002f 0f             1864 	.byte	15
00000030 07             1865 	.byte	7
00000031 10             1866 	.byte	16
00000032 07             1867 	.byte	7
00000033 11             1868 	.byte	17
00000034 07             1869 	.byte	7
00000035 12             1870 	.byte	18
00000036 07             1871 	.byte	7
00000037 13             1872 	.byte	19
00000038 08             1873 	.byte	8
00000039 14             1874 	.byte	20
0000003a 08             1875 	.byte	8
0000003b 15             1876 	.byte	21
0000003c 08             1877 	.byte	8
0000003d 16             1878 	.byte	22
0000003e 08             1879 	.byte	8
0000003f 17             1880 	.byte	23
00000040 08             1881 	.byte	8
00000041 18             1882 	.byte	24
00000042 08             1883 	.byte	8
00000043 19             1884 	.byte	25
00000044 08             1885 	.byte	8
00000045 1a             1886 	.byte	26
00000046 08             1887 	.byte	8
00000047 1b             1888 	.byte	27
00000048 08             1889 	.byte	8
00000049 1c             1890 	.byte	28
0000004a 08             1891 	.byte	8
0000004b 1d             1892 	.byte	29
0000004c 07             1893 	.byte	7
0000004d 1e             1894 	.byte	30
0000004e 08             1895 	.byte	8
0000004f 1f             1896 	.byte	31
00000050 07             1897 	.byte	7
00000051 20             1898 	.byte	32
00000052 07             1899 	.byte	7
00000053 21             1900 	.byte	33
00000054 07             1901 	.byte	7
00000055 22             1902 	.byte	34
00000056 07             1903 	.byte	7
00000057 23             1904 	.byte	35
00000058 07             1905 	.byte	7
00000059 24             1906 	.byte	36
0000005a 07             1907 	.byte	7
0000005b 25             1908 	.byte	37
0000005c 07             1909 	.byte	7
0000005d 26             1910 	.byte	38
0000005e 07             1911 	.byte	7
0000005f 27             1912 	.byte	39
00000060 07             1913 	.byte	7
00000061 28             1914 	.byte	40
00000062 07             1915 	.byte	7
00000063 29             1916 	.byte	41
00000064 07             1917 	.byte	7
00000065 2a             1918 	.byte	42
00000066 07             1919 	.byte	7
00000067 2b             1920 	.byte	43
00000068 07             1921 	.byte	7

                                                                      Page 50
                                                              C:\Users\nhuliyap\AppData\Local\Temp\gh_00002581.s
00000069 2c             1922 	.byte	44
0000006a 07             1923 	.byte	7
0000006b 2d             1924 	.byte	45
0000006c 07             1925 	.byte	7
0000006d 2e             1926 	.byte	46
0000006e 07             1927 	.byte	7
0000006f 2f             1928 	.byte	47
00000070 07             1929 	.byte	7
00000071 30             1930 	.byte	48
00000072 07             1931 	.byte	7
00000073 31             1932 	.byte	49
00000074 07             1933 	.byte	7
00000075 32             1934 	.byte	50
00000076 07             1935 	.byte	7
00000077 33             1936 	.byte	51
00000078 07             1937 	.byte	7
00000079 34             1938 	.byte	52
0000007a 07             1939 	.byte	7
0000007b 35             1940 	.byte	53
0000007c 07             1941 	.byte	7
0000007d 36             1942 	.byte	54
0000007e 07             1943 	.byte	7
0000007f 37             1944 	.byte	55
00000080 07             1945 	.byte	7
00000081 38             1946 	.byte	56
00000082 07             1947 	.byte	7
00000083 39             1948 	.byte	57
00000084 07             1949 	.byte	7
00000085 3a             1950 	.byte	58
00000086 07             1951 	.byte	7
00000087 3b             1952 	.byte	59
00000088 07             1953 	.byte	7
00000089 3c             1954 	.byte	60
0000008a 07             1955 	.byte	7
0000008b 3d             1956 	.byte	61
0000008c 07             1957 	.byte	7
0000008d 3e             1958 	.byte	62
0000008e 07             1959 	.byte	7
0000008f 3f             1960 	.byte	63
                        1961 .LDW_unq_2:
                        1962 	.section	.debug_info
                        1963 .LDW_4906da0:
000000ae 25             1964 	.byte	37
000000af 756e7369676e   1965 	.strz	"unsigned char"
000000b5 656420636861 
000000bb 7200 
000000bd 08             1966 	.byte	8
000000be 01             1967 	.byte	1
                        1968 
                        1969 	.section	.debug_abbrev
00000017 25             1970 	.byte	37
00000018 24             1971 	.byte	36
00000019 00             1972 	.byte	0
0000001a 0308           1973 	.byte	3,8
0000001c 3e0b           1974 	.byte	62,11
0000001e 0b0b           1975 	.byte	11,11
00000020 0000           1976 	.byte	0,0
                        1977 
                        1978 	.section	.debug_info
                        1979 .LDW_4906be0:
000000bf 2f             1980 	.byte	47

                                                                      Page 51
                                                              C:\Users\nhuliyap\AppData\Local\Temp\gh_00002581.s
000000c0 00000000*      1981 	.word	.LDW_491ba88
                        1982 
                        1983 	.section	.debug_abbrev
00000022 2f             1984 	.byte	47
00000023 0f             1985 	.byte	15
00000024 00             1986 	.byte	0
00000025 4910           1987 	.byte	73,16
00000027 0000           1988 	.byte	0,0
                        1989 
                        1990 	.section	.debug_info
                        1991 .LDW_4906eb8:
000000c4 44             1992 	.byte	68
000000c5 00000000*      1993 	.word	.LDW_491ba88
000000c9 01             1994 	.byte	1
                        1995 
                        1996 	.section	.debug_abbrev
00000029 44             1997 	.byte	68
0000002a 15             1998 	.byte	21
0000002b 01             1999 	.byte	1
0000002c 4910           2000 	.byte	73,16
0000002e 270c           2001 	.byte	39,12
00000030 0000           2002 	.byte	0,0
                        2003 
                        2004 	.section	.debug_info
                        2005 .LDW_4bdcbb0:
000000ca 12             2006 	.byte	18
000000cb 00000000*      2007 	.word	.LDW_491ba88
000000cf 00             2008 	.byte	0
                        2009 
                        2010 	.section	.debug_abbrev
00000032 12             2011 	.byte	18
00000033 05             2012 	.byte	5
00000034 00             2013 	.byte	0
00000035 4910           2014 	.byte	73,16
00000037 4b0c           2015 	.byte	75,12
00000039 0000           2016 	.byte	0,0
                        2017 
                        2018 	.section	.debug_info
                        2019 .LDW_4bdcd60:
000000d0 12             2020 	.byte	18
000000d1 00000000*      2021 	.word	.LDW_491ba88
000000d5 00             2022 	.byte	0
                        2023 
000000d6 00             2024 	.byte	0
                        2025 
                        2026 .LDW_4906ef0:
000000d7 44             2027 	.byte	68
000000d8 00000000*      2028 	.word	.LDW_4bdd788
000000dc 01             2029 	.byte	1
                        2030 
                        2031 .LDW_4bdc880:
000000dd 12             2032 	.byte	18
000000de 00000000*      2033 	.word	.LDW_491ba88
000000e2 00             2034 	.byte	0
                        2035 
                        2036 .LDW_4bdcc40:
000000e3 12             2037 	.byte	18
000000e4 00000000*      2038 	.word	.LDW_491ba88
000000e8 00             2039 	.byte	0
                        2040 
000000e9 00             2041 	.byte	0

                                                                      Page 52
                                                              C:\Users\nhuliyap\AppData\Local\Temp\gh_00002581.s
                        2042 
                        2043 .LDW_49070b0:
000000ea 25             2044 	.byte	37
000000eb 756e7369676e   2045 	.strz	"unsigned short"
000000f1 65642073686f 
000000f7 727400 
000000fa 07             2046 	.byte	7
000000fb 02             2047 	.byte	2
                        2048 
                        2049 .LDW_4906a58:
000000fc 2f             2050 	.byte	47
000000fd 00000000*      2051 	.word	.LDW_4bdde38
                        2052 
                        2053 .LDW_4c20790:
00000101 25             2054 	.byte	37
00000102 756e7369676e   2055 	.strz	"unsigned long"
00000108 6564206c6f6e 
0000010e 6700 
00000110 07             2056 	.byte	7
00000111 04             2057 	.byte	4
                        2058 
                        2059 .LDW_4c203a0:
00000112 2f             2060 	.byte	47
00000113 00000000*      2061 	.word	.LDW_4bde518
                        2062 
                        2063 .LDW_4c204b8:
00000117 44             2064 	.byte	68
00000118 00000000*      2065 	.word	.LDW_4bde518
0000011c 01             2066 	.byte	1
                        2067 
                        2068 .LDW_4c1f980:
0000011d 12             2069 	.byte	18
0000011e 00000000*      2070 	.word	.LDW_4bde518
00000122 00             2071 	.byte	0
                        2072 
                        2073 .LDW_4c1f560:
00000123 12             2074 	.byte	18
00000124 00000000*      2075 	.word	.LDW_491ba88
00000128 00             2076 	.byte	0
                        2077 
00000129 00             2078 	.byte	0
                        2079 
                        2080 .LDW_4c25848:
0000012a 29             2081 	.byte	41
0000012b 00000000*      2082 	.word	.LDW_4bde518
                        2083 
                        2084 	.section	.debug_abbrev
0000003b 29             2085 	.byte	41
0000003c 26             2086 	.byte	38
0000003d 00             2087 	.byte	0
0000003e 4910           2088 	.byte	73,16
00000040 0000           2089 	.byte	0,0
                        2090 
                        2091 	.section	.debug_info
                        2092 .LDW_4c259a8:
0000012f 29             2093 	.byte	41
00000130 00000000*      2094 	.word	.LDW_4bdde38
                        2095 
                        2096 .LDW_4cc6bf8:
00000134 29             2097 	.byte	41
00000135 00000000*      2098 	.word	.LDW_491ba88

                                                                      Page 53
                                                              C:\Users\nhuliyap\AppData\Local\Temp\gh_00002581.s
                        2099 
                        2100 .LDW_4c04e90:
00000139 2f             2101 	.byte	47
0000013a 00000000*      2102 	.word	.LDW_4cc6bf8
                        2103 
                        2104 .LDW_4c04d78:
0000013e 44             2105 	.byte	68
0000013f 00000000*      2106 	.word	.LDW_491ba88
00000143 01             2107 	.byte	1
                        2108 
                        2109 .LDW_4c81ef0:
00000144 12             2110 	.byte	18
00000145 00000000*      2111 	.word	.LDW_491ba88
00000149 00             2112 	.byte	0
                        2113 
0000014a 00             2114 	.byte	0
                        2115 
                        2116 .LDW_4cd3058:
0000014b 44             2117 	.byte	68
0000014c 00000000*      2118 	.word	.LDW_4c9fb20
00000150 01             2119 	.byte	1
                        2120 
                        2121 .LDW_4c93200:
00000151 12             2122 	.byte	18
00000152 00000000*      2123 	.word	.LDW_4ca01a8
00000156 00             2124 	.byte	0
                        2125 
00000157 00             2126 	.byte	0
                        2127 
                        2128 .LDW_4cd31a8:
00000158 44             2129 	.byte	68
00000159 00000000*      2130 	.word	.LDW_4cd1088
0000015d 01             2131 	.byte	1
                        2132 
                        2133 .LDW_4c937a0:
0000015e 12             2134 	.byte	18
0000015f 00000000*      2135 	.word	.LDW_4c9fd88
00000163 00             2136 	.byte	0
                        2137 
00000164 00             2138 	.byte	0
                        2139 
                        2140 .LDW_4cd2f78:
00000165 2f             2141 	.byte	47
00000166 00000000*      2142 	.word	.LDW_4cd1348
                        2143 
                        2144 .LDW_4cd3100:
0000016a 44             2145 	.byte	68
0000016b 00000000*      2146 	.word	.LDW_4cd1088
0000016f 01             2147 	.byte	1
                        2148 
                        2149 .LDW_4c937d0:
00000170 12             2150 	.byte	18
00000171 00000000*      2151 	.word	.LDW_4cd2f78
00000175 00             2152 	.byte	0
                        2153 
00000176 00             2154 	.byte	0
                        2155 
                        2156 .LDW_5158460:
00000177 45             2157 	.byte	69
00000178 01             2158 	.byte	1
                        2159 

                                                                      Page 54
                                                              C:\Users\nhuliyap\AppData\Local\Temp\gh_00002581.s
                        2160 	.section	.debug_abbrev
00000042 45             2161 	.byte	69
00000043 15             2162 	.byte	21
00000044 01             2163 	.byte	1
00000045 270c           2164 	.byte	39,12
00000047 0000           2165 	.byte	0,0
                        2166 
                        2167 	.section	.debug_info
00000179 00             2168 	.byte	0
                        2169 
                        2170 .LDW_5158af0:
0000017a 45             2171 	.byte	69
0000017b 01             2172 	.byte	1
                        2173 
0000017c 00             2174 	.byte	0
                        2175 
                        2176 .LDW_5158a10:
0000017d 25             2177 	.byte	37
0000017e 756e7369676e   2178 	.strz	"unsigned int"
00000184 656420696e74 
0000018a 00 
0000018b 07             2179 	.byte	7
0000018c 04             2180 	.byte	4
                        2181 
                        2182 .LDW_5158e70:
0000018d 44             2183 	.byte	68
0000018e 00000000*      2184 	.word	.LDW_4cd1088
00000192 01             2185 	.byte	1
                        2186 
                        2187 .LDW_5413450:
00000193 12             2188 	.byte	18
00000194 00000000*      2189 	.word	.LDW_4ca01a8
00000198 00             2190 	.byte	0
                        2191 
00000199 00             2192 	.byte	0
                        2193 
                        2194 .LDW_5158fc0:
0000019a 44             2195 	.byte	68
0000019b 00000000*      2196 	.word	.LDW_4ca01a8
0000019f 01             2197 	.byte	1
                        2198 
                        2199 .LDW_54130c0:
000001a0 12             2200 	.byte	18
000001a1 00000000*      2201 	.word	.LDW_4d53ca8
000001a5 00             2202 	.byte	0
                        2203 
000001a6 00             2204 	.byte	0
                        2205 
                        2206 .LDW_4d798a8:
000001a7 44             2207 	.byte	68
000001a8 00000000*      2208 	.word	.LDW_4d53ca8
000001ac 01             2209 	.byte	1
                        2210 
                        2211 .LDW_5413060:
000001ad 12             2212 	.byte	18
000001ae 00000000*      2213 	.word	.LDW_4ca01a8
000001b2 00             2214 	.byte	0
                        2215 
000001b3 00             2216 	.byte	0
                        2217 
                        2218 .LDW_4d79c60:

                                                                      Page 55
                                                              C:\Users\nhuliyap\AppData\Local\Temp\gh_00002581.s
000001b4 44             2219 	.byte	68
000001b5 00000000*      2220 	.word	.LDW_4d53ca8
000001b9 01             2221 	.byte	1
                        2222 
                        2223 .LDW_54131e0:
000001ba 12             2224 	.byte	18
000001bb 00000000*      2225 	.word	.LDW_4ca01a8
000001bf 00             2226 	.byte	0
                        2227 
000001c0 00             2228 	.byte	0
                        2229 
                        2230 .LDW_54cd880:
000001c1 44             2231 	.byte	68
000001c2 00000000*      2232 	.word	.LDW_491ba88
000001c6 01             2233 	.byte	1
                        2234 
                        2235 .LDW_5414920:
000001c7 12             2236 	.byte	18
000001c8 00000000*      2237 	.word	.LDW_4d53ca8
000001cc 00             2238 	.byte	0
                        2239 
000001cd 00             2240 	.byte	0
                        2241 
                        2242 .LDW_54cd378:
000001ce 2f             2243 	.byte	47
000001cf 00000000*      2244 	.word	.LDW_515a9b0
                        2245 
                        2246 .LDW_54cd7a0:
000001d3 44             2247 	.byte	68
000001d4 00000000*      2248 	.word	.LDW_4cd1088
000001d8 01             2249 	.byte	1
                        2250 
                        2251 .LDW_515b5f8:
000001d9 12             2252 	.byte	18
000001da 00000000*      2253 	.word	.LDW_515a9b0
000001de 00             2254 	.byte	0
                        2255 
000001df 00             2256 	.byte	0
                        2257 
                        2258 .LDW_54cd298:
000001e0 44             2259 	.byte	68
000001e1 00000000*      2260 	.word	.LDW_4cd1088
000001e5 01             2261 	.byte	1
                        2262 
                        2263 .LDW_515bb38:
000001e6 12             2264 	.byte	18
000001e7 00000000*      2265 	.word	.LDW_515a9b0
000001eb 00             2266 	.byte	0
                        2267 
                        2268 .LDW_515b8c8:
000001ec 12             2269 	.byte	18
000001ed 00000000*      2270 	.word	.LDW_515a9b0
000001f1 00             2271 	.byte	0
                        2272 
000001f2 00             2273 	.byte	0
                        2274 
                        2275 .LDW_551b0a8:
000001f3 25             2276 	.byte	37
000001f4 696e7400       2277 	.strz	"int"
000001f8 05             2278 	.byte	5
000001f9 04             2279 	.byte	4

                                                                      Page 56
                                                              C:\Users\nhuliyap\AppData\Local\Temp\gh_00002581.s
                        2280 
                        2281 .LDW_551a318:
000001fa 44             2282 	.byte	68
000001fb 00000000*      2283 	.word	.LDW_4cd1088
000001ff 01             2284 	.byte	1
                        2285 
                        2286 .LDW_5580e20:
00000200 12             2287 	.byte	18
00000201 00000000*      2288 	.word	.LDW_4d535c8
00000205 00             2289 	.byte	0
                        2290 
00000206 00             2291 	.byte	0
                        2292 
                        2293 .LDW_551a628:
00000207 44             2294 	.byte	68
00000208 00000000*      2295 	.word	.LDW_4cd1088
0000020c 01             2296 	.byte	1
                        2297 
                        2298 .LDW_5580850:
0000020d 12             2299 	.byte	18
0000020e 00000000*      2300 	.word	.LDW_4d535c8
00000212 00             2301 	.byte	0
                        2302 
00000213 00             2303 	.byte	0
                        2304 
                        2305 .LDW_5511028:
00000214 29             2306 	.byte	41
00000215 00000000*      2307 	.word	.LDW_5511340
                        2308 
                        2309 .LDW_551a350:
00000219 2f             2310 	.byte	47
0000021a 00000000*      2311 	.word	.LDW_5511028
                        2312 
                        2313 .LDW_551a6d0:
0000021e 44             2314 	.byte	68
0000021f 00000000*      2315 	.word	.LDW_4d535c8
00000223 01             2316 	.byte	1
                        2317 
                        2318 .LDW_5580e80:
00000224 12             2319 	.byte	18
00000225 00000000*      2320 	.word	.LDW_551a350
00000229 00             2321 	.byte	0
                        2322 
0000022a 00             2323 	.byte	0
                        2324 
                        2325 .LDW_551a388:
0000022b 44             2326 	.byte	68
0000022c 00000000*      2327 	.word	.LDW_4d535c8
00000230 01             2328 	.byte	1
                        2329 
                        2330 .LDW_5580fa0:
00000231 12             2331 	.byte	18
00000232 00000000*      2332 	.word	.LDW_4d535c8
00000236 00             2333 	.byte	0
                        2334 
00000237 00             2335 	.byte	0
                        2336 
                        2337 .LDW_551a7e8:
00000238 44             2338 	.byte	68
00000239 00000000*      2339 	.word	.LDW_4d53ca8
0000023d 01             2340 	.byte	1

                                                                      Page 57
                                                              C:\Users\nhuliyap\AppData\Local\Temp\gh_00002581.s
                        2341 
                        2342 .LDW_557f410:
0000023e 12             2343 	.byte	18
0000023f 00000000*      2344 	.word	.LDW_551a350
00000243 00             2345 	.byte	0
                        2346 
00000244 00             2347 	.byte	0
                        2348 
                        2349 .LDW_551a708:
00000245 44             2350 	.byte	68
00000246 00000000*      2351 	.word	.LDW_4d53ca8
0000024a 01             2352 	.byte	1
                        2353 
                        2354 .LDW_557f0b0:
0000024b 12             2355 	.byte	18
0000024c 00000000*      2356 	.word	.LDW_4d535c8
00000250 00             2357 	.byte	0
                        2358 
00000251 00             2359 	.byte	0
                        2360 
                        2361 .LDW_55c4188:
00000252 2f             2362 	.byte	47
00000253 00000000*      2363 	.word	.LDW_5511340
                        2364 
                        2365 .LDW_55c46c8:
00000257 44             2366 	.byte	68
00000258 00000000*      2367 	.word	.LDW_4d535c8
0000025c 01             2368 	.byte	1
                        2369 
                        2370 .LDW_557fe00:
0000025d 12             2371 	.byte	18
0000025e 00000000*      2372 	.word	.LDW_551a350
00000262 00             2373 	.byte	0
                        2374 
00000263 00             2375 	.byte	0
                        2376 
                        2377 .LDW_55c4700:
00000264 44             2378 	.byte	68
00000265 00000000*      2379 	.word	.LDW_4d535c8
00000269 01             2380 	.byte	1
                        2381 
                        2382 .LDW_557fce0:
0000026a 12             2383 	.byte	18
0000026b 00000000*      2384 	.word	.LDW_4d535c8
0000026f 00             2385 	.byte	0
                        2386 
00000270 00             2387 	.byte	0
                        2388 
                        2389 .LDW_55c4a10:
00000271 44             2390 	.byte	68
00000272 00000000*      2391 	.word	.LDW_515a9b0
00000276 01             2392 	.byte	1
                        2393 
                        2394 .LDW_55c5548:
00000277 12             2395 	.byte	18
00000278 00000000*      2396 	.word	.LDW_551a350
0000027c 00             2397 	.byte	0
                        2398 
0000027d 00             2399 	.byte	0
                        2400 
                        2401 .LDW_55c4a80:

                                                                      Page 58
                                                              C:\Users\nhuliyap\AppData\Local\Temp\gh_00002581.s
0000027e 44             2402 	.byte	68
0000027f 00000000*      2403 	.word	.LDW_515a9b0
00000283 01             2404 	.byte	1
                        2405 
                        2406 .LDW_55c53f8:
00000284 12             2407 	.byte	18
00000285 00000000*      2408 	.word	.LDW_4d535c8
00000289 00             2409 	.byte	0
                        2410 
0000028a 00             2411 	.byte	0
                        2412 
                        2413 .LDW_55c4c08:
0000028b 44             2414 	.byte	68
0000028c 00000000*      2415 	.word	.LDW_4906be0
00000290 01             2416 	.byte	1
                        2417 
                        2418 .LDW_55c5338:
00000291 12             2419 	.byte	18
00000292 00000000*      2420 	.word	.LDW_55c4188
00000296 00             2421 	.byte	0
                        2422 
00000297 00             2423 	.byte	0
                        2424 
                        2425 .LDW_55c4770:
00000298 44             2426 	.byte	68
00000299 00000000*      2427 	.word	.LDW_4cd1088
0000029d 01             2428 	.byte	1
                        2429 
                        2430 .LDW_55c52d8:
0000029e 12             2431 	.byte	18
0000029f 00000000*      2432 	.word	.LDW_4d535c8
000002a3 00             2433 	.byte	0
                        2434 
000002a4 00             2435 	.byte	0
                        2436 
                        2437 .LDW_55c47a8:
000002a5 44             2438 	.byte	68
000002a6 00000000*      2439 	.word	.LDW_4cd1088
000002aa 01             2440 	.byte	1
                        2441 
                        2442 .LDW_55c5368:
000002ab 12             2443 	.byte	18
000002ac 00000000*      2444 	.word	.LDW_4d535c8
000002b0 00             2445 	.byte	0
                        2446 
000002b1 00             2447 	.byte	0
                        2448 
                        2449 .LDW_55c4690:
000002b2 44             2450 	.byte	68
000002b3 00000000*      2451 	.word	.LDW_4cd1088
000002b7 01             2452 	.byte	1
                        2453 
000002b8 00             2454 	.byte	0
                        2455 
                        2456 .LDW_55c4b98:
000002b9 44             2457 	.byte	68
000002ba 00000000*      2458 	.word	.LDW_4cd1088
000002be 01             2459 	.byte	1
                        2460 
                        2461 .LDW_55c5518:
000002bf 12             2462 	.byte	18

                                                                      Page 59
                                                              C:\Users\nhuliyap\AppData\Local\Temp\gh_00002581.s
000002c0 00000000*      2463 	.word	.LDW_4d535c8
000002c4 00             2464 	.byte	0
                        2465 
                        2466 .LDW_55c59c8:
000002c5 12             2467 	.byte	18
000002c6 00000000*      2468 	.word	.LDW_4cd1088
000002ca 00             2469 	.byte	0
                        2470 
000002cb 00             2471 	.byte	0
                        2472 
                        2473 .LDW_55c4b60:
000002cc 44             2474 	.byte	68
000002cd 00000000*      2475 	.word	.LDW_4d535c8
000002d1 01             2476 	.byte	1
                        2477 
                        2478 .LDW_55c56c8:
000002d2 12             2479 	.byte	18
000002d3 00000000*      2480 	.word	.LDW_4d535c8
000002d7 00             2481 	.byte	0
                        2482 
000002d8 00             2483 	.byte	0
                        2484 
                        2485 .LDW_55c4968:
000002d9 44             2486 	.byte	68
000002da 00000000*      2487 	.word	.LDW_4d535c8
000002de 01             2488 	.byte	1
                        2489 
                        2490 .LDW_55c56f8:
000002df 12             2491 	.byte	18
000002e0 00000000*      2492 	.word	.LDW_4d535c8
000002e4 00             2493 	.byte	0
                        2494 
000002e5 00             2495 	.byte	0
                        2496 
                        2497 .LDW_55c4c40:
000002e6 2f             2498 	.byte	47
000002e7 00000000*      2499 	.word	.LDW_4d535c8
                        2500 
                        2501 .LDW_55c4888:
000002eb 45             2502 	.byte	69
000002ec 01             2503 	.byte	1
                        2504 
                        2505 .LDW_55c5848:
000002ed 12             2506 	.byte	18
000002ee 00000000*      2507 	.word	.LDW_55c4c40
000002f2 00             2508 	.byte	0
                        2509 
                        2510 .LDW_55c58d8:
000002f3 12             2511 	.byte	18
000002f4 00000000*      2512 	.word	.LDW_4d535c8
000002f8 00             2513 	.byte	0
                        2514 
000002f9 00             2515 	.byte	0
                        2516 
                        2517 .LDW_55109a0:
000002fa 29             2518 	.byte	41
000002fb 00000000*      2519 	.word	.LDW_4d535c8
                        2520 
                        2521 .LDW_55c4578:
000002ff 2f             2522 	.byte	47
00000300 00000000*      2523 	.word	.LDW_55109a0

                                                                      Page 60
                                                              C:\Users\nhuliyap\AppData\Local\Temp\gh_00002581.s
                        2524 
                        2525 .LDW_55c49d8:
00000304 44             2526 	.byte	68
00000305 00000000*      2527 	.word	.LDW_4cd1088
00000309 01             2528 	.byte	1
                        2529 
                        2530 .LDW_55c5758:
0000030a 12             2531 	.byte	18
0000030b 00000000*      2532 	.word	.LDW_55c4578
0000030f 00             2533 	.byte	0
                        2534 
                        2535 .LDW_55c5b18:
00000310 12             2536 	.byte	18
00000311 00000000*      2537 	.word	.LDW_4d535c8
00000315 00             2538 	.byte	0
                        2539 
00000316 00             2540 	.byte	0
                        2541 
                        2542 .LDW_55c4ab8:
00000317 45             2543 	.byte	69
00000318 01             2544 	.byte	1
                        2545 
                        2546 .LDW_55c5878:
00000319 12             2547 	.byte	18
0000031a 00000000*      2548 	.word	.LDW_55c4c40
0000031e 00             2549 	.byte	0
                        2550 
                        2551 .LDW_55c5938:
0000031f 12             2552 	.byte	18
00000320 00000000*      2553 	.word	.LDW_4d535c8
00000324 00             2554 	.byte	0
                        2555 
00000325 00             2556 	.byte	0
                        2557 
                        2558 .LDW_55c45b0:
00000326 45             2559 	.byte	69
00000327 01             2560 	.byte	1
                        2561 
                        2562 .LDW_55c5c08:
00000328 12             2563 	.byte	18
00000329 00000000*      2564 	.word	.LDW_55c4c40
0000032d 00             2565 	.byte	0
                        2566 
                        2567 .LDW_55c58a8:
0000032e 12             2568 	.byte	18
0000032f 00000000*      2569 	.word	.LDW_4d535c8
00000333 00             2570 	.byte	0
                        2571 
00000334 00             2572 	.byte	0
                        2573 
                        2574 .LDW_55c3270:
00000335 44             2575 	.byte	68
00000336 00000000*      2576 	.word	.LDW_4bdd788
0000033a 01             2577 	.byte	1
                        2578 
                        2579 .LDW_55c6e38:
0000033b 12             2580 	.byte	18
0000033c 00000000*      2581 	.word	.LDW_4cd1348
00000340 00             2582 	.byte	0
                        2583 
00000341 00             2584 	.byte	0

                                                                      Page 61
                                                              C:\Users\nhuliyap\AppData\Local\Temp\gh_00002581.s
                        2585 
                        2586 .LDW_55c3548:
00000342 44             2587 	.byte	68
00000343 00000000*      2588 	.word	.LDW_491ba88
00000347 01             2589 	.byte	1
                        2590 
                        2591 .LDW_55c6c58:
00000348 12             2592 	.byte	18
00000349 00000000*      2593 	.word	.LDW_4cd1348
0000034d 00             2594 	.byte	0
                        2595 
0000034e 00             2596 	.byte	0
                        2597 
                        2598 .LDW_565f410:
0000034f 44             2599 	.byte	68
00000350 00000000*      2600 	.word	.LDW_4cd1088
00000354 01             2601 	.byte	1
                        2602 
                        2603 .LDW_55c8ba8:
00000355 12             2604 	.byte	18
00000356 00000000*      2605 	.word	.LDW_4d53ca8
0000035a 00             2606 	.byte	0
                        2607 
                        2608 .LDW_55c8bd8:
0000035b 12             2609 	.byte	18
0000035c 00000000*      2610 	.word	.LDW_491ba88
00000360 00             2611 	.byte	0
                        2612 
00000361 00             2613 	.byte	0
                        2614 
                        2615 .LDW_565f288:
00000362 44             2616 	.byte	68
00000363 00000000*      2617 	.word	.LDW_491ba88
00000367 01             2618 	.byte	1
                        2619 
                        2620 .LDW_55c8908:
00000368 12             2621 	.byte	18
00000369 00000000*      2622 	.word	.LDW_4d53ca8
0000036d 00             2623 	.byte	0
                        2624 
                        2625 .LDW_55c8c08:
0000036e 12             2626 	.byte	18
0000036f 00000000*      2627 	.word	.LDW_491ba88
00000373 00             2628 	.byte	0
                        2629 
00000374 00             2630 	.byte	0
                        2631 
                        2632 .LDW_565f6b0:
00000375 44             2633 	.byte	68
00000376 00000000*      2634 	.word	.LDW_491ba88
0000037a 01             2635 	.byte	1
                        2636 
                        2637 .LDW_55c88a8:
0000037b 12             2638 	.byte	18
0000037c 00000000*      2639 	.word	.LDW_4d53ca8
00000380 00             2640 	.byte	0
                        2641 
                        2642 .LDW_55c8c68:
00000381 12             2643 	.byte	18
00000382 00000000*      2644 	.word	.LDW_491ba88
00000386 00             2645 	.byte	0

                                                                      Page 62
                                                              C:\Users\nhuliyap\AppData\Local\Temp\gh_00002581.s
                        2646 
00000387 00             2647 	.byte	0
                        2648 
                        2649 .LDW_565f2c0:
00000388 44             2650 	.byte	68
00000389 00000000*      2651 	.word	.LDW_515a9b0
0000038d 01             2652 	.byte	1
                        2653 
                        2654 .LDW_55c8968:
0000038e 12             2655 	.byte	18
0000038f 00000000*      2656 	.word	.LDW_491ba88
00000393 00             2657 	.byte	0
                        2658 
00000394 00             2659 	.byte	0
                        2660 
                        2661 .LDW_565f448:
00000395 44             2662 	.byte	68
00000396 00000000*      2663 	.word	.LDW_4cd1088
0000039a 01             2664 	.byte	1
                        2665 
                        2666 .LDW_55c8f08:
0000039b 12             2667 	.byte	18
0000039c 00000000*      2668 	.word	.LDW_551a350
000003a0 00             2669 	.byte	0
                        2670 
                        2671 .LDW_55c8d28:
000003a1 12             2672 	.byte	18
000003a2 00000000*      2673 	.word	.LDW_491ba88
000003a6 00             2674 	.byte	0
                        2675 
000003a7 00             2676 	.byte	0
                        2677 
                        2678 .LDW_565f720:
000003a8 44             2679 	.byte	68
000003a9 00000000*      2680 	.word	.LDW_4cd1088
000003ad 01             2681 	.byte	1
                        2682 
                        2683 .LDW_55c8ff8:
000003ae 12             2684 	.byte	18
000003af 00000000*      2685 	.word	.LDW_4ca01a8
000003b3 00             2686 	.byte	0
                        2687 
000003b4 00             2688 	.byte	0
                        2689 
                        2690 .LDW_565f5d0:
000003b5 44             2691 	.byte	68
000003b6 00000000*      2692 	.word	.LDW_4cd1088
000003ba 01             2693 	.byte	1
                        2694 
                        2695 .LDW_55c8d88:
000003bb 12             2696 	.byte	18
000003bc 00000000*      2697 	.word	.LDW_4ca01a8
000003c0 00             2698 	.byte	0
                        2699 
000003c1 00             2700 	.byte	0
                        2701 
                        2702 .LDW_565f6e8:
000003c2 44             2703 	.byte	68
000003c3 00000000*      2704 	.word	.LDW_4c9fb20
000003c7 01             2705 	.byte	1
                        2706 

                                                                      Page 63
                                                              C:\Users\nhuliyap\AppData\Local\Temp\gh_00002581.s
                        2707 .LDW_5695280:
000003c8 12             2708 	.byte	18
000003c9 00000000*      2709 	.word	.LDW_4ca01a8
000003cd 00             2710 	.byte	0
                        2711 
000003ce 00             2712 	.byte	0
                        2713 
                        2714 .LDW_565f090:
000003cf 44             2715 	.byte	68
000003d0 00000000*      2716 	.word	.LDW_4d535c8
000003d4 01             2717 	.byte	1
                        2718 
                        2719 .LDW_56950d0:
000003d5 12             2720 	.byte	18
000003d6 00000000*      2721 	.word	.LDW_4ca01a8
000003da 00             2722 	.byte	0
                        2723 
                        2724 .LDW_5695100:
000003db 12             2725 	.byte	18
000003dc 00000000*      2726 	.word	.LDW_4cd1348
000003e0 00             2727 	.byte	0
                        2728 
                        2729 .LDW_5695130:
000003e1 12             2730 	.byte	18
000003e2 00000000*      2731 	.word	.LDW_4cd1088
000003e6 00             2732 	.byte	0
                        2733 
000003e7 00             2734 	.byte	0
                        2735 
                        2736 .LDW_565f0c8:
000003e8 45             2737 	.byte	69
000003e9 01             2738 	.byte	1
                        2739 
000003ea 00             2740 	.byte	0
                        2741 
                        2742 .LDW_565f3d8:
000003eb 44             2743 	.byte	68
000003ec 00000000*      2744 	.word	.LDW_4cd1088
000003f0 01             2745 	.byte	1
                        2746 
                        2747 .LDW_5695580:
000003f1 12             2748 	.byte	18
000003f2 00000000*      2749 	.word	.LDW_4ca01a8
000003f6 00             2750 	.byte	0
                        2751 
                        2752 .LDW_5695610:
000003f7 12             2753 	.byte	18
000003f8 00000000*      2754 	.word	.LDW_4cd1348
000003fc 00             2755 	.byte	0
                        2756 
000003fd 00             2757 	.byte	0
                        2758 
                        2759 .LDW_565f100:
000003fe 45             2760 	.byte	69
000003ff 01             2761 	.byte	1
                        2762 
00000400 00             2763 	.byte	0
                        2764 
                        2765 .LDW_565f138:
00000401 44             2766 	.byte	68
00000402 00000000*      2767 	.word	.LDW_564d340

                                                                      Page 64
                                                              C:\Users\nhuliyap\AppData\Local\Temp\gh_00002581.s
00000406 01             2768 	.byte	1
                        2769 
                        2770 .LDW_56954c0:
00000407 12             2771 	.byte	18
00000408 00000000*      2772 	.word	.LDW_4bde518
0000040c 00             2773 	.byte	0
                        2774 
                        2775 .LDW_5695490:
0000040d 12             2776 	.byte	18
0000040e 00000000*      2777 	.word	.LDW_4cd1348
00000412 00             2778 	.byte	0
                        2779 
00000413 00             2780 	.byte	0
                        2781 
                        2782 .LDW_565f480:
00000414 44             2783 	.byte	68
00000415 00000000*      2784 	.word	.LDW_4ca0888
00000419 01             2785 	.byte	1
                        2786 
0000041a 00             2787 	.byte	0
                        2788 
                        2789 .LDW_565f1e0:
0000041b 44             2790 	.byte	68
0000041c 00000000*      2791 	.word	.LDW_55ead00
00000420 01             2792 	.byte	1
                        2793 
                        2794 .LDW_56955e0:
00000421 12             2795 	.byte	18
00000422 00000000*      2796 	.word	.LDW_4bde518
00000426 00             2797 	.byte	0
                        2798 
                        2799 .LDW_5695670:
00000427 12             2800 	.byte	18
00000428 00000000*      2801 	.word	.LDW_4c9fd88
0000042c 00             2802 	.byte	0
                        2803 
                        2804 .LDW_5695160:
0000042d 12             2805 	.byte	18
0000042e 00000000*      2806 	.word	.LDW_4cd1348
00000432 00             2807 	.byte	0
                        2808 
                        2809 .LDW_5695190:
00000433 12             2810 	.byte	18
00000434 00000000*      2811 	.word	.LDW_491ba88
00000438 00             2812 	.byte	0
                        2813 
                        2814 .LDW_56951f0:
00000439 12             2815 	.byte	18
0000043a 00000000*      2816 	.word	.LDW_4906be0
0000043e 00             2817 	.byte	0
                        2818 
                        2819 .LDW_56958e0:
0000043f 12             2820 	.byte	18
00000440 00000000*      2821 	.word	.LDW_4906a58
00000444 00             2822 	.byte	0
                        2823 
00000445 00             2824 	.byte	0
                        2825 
                        2826 .LDW_565f528:
00000446 44             2827 	.byte	68
00000447 00000000*      2828 	.word	.LDW_55ebb18

                                                                      Page 65
                                                              C:\Users\nhuliyap\AppData\Local\Temp\gh_00002581.s
0000044b 01             2829 	.byte	1
                        2830 
                        2831 .LDW_5695910:
0000044c 12             2832 	.byte	18
0000044d 00000000*      2833 	.word	.LDW_4bde518
00000451 00             2834 	.byte	0
                        2835 
                        2836 .LDW_56956d0:
00000452 12             2837 	.byte	18
00000453 00000000*      2838 	.word	.LDW_4c9fd88
00000457 00             2839 	.byte	0
                        2840 
                        2841 .LDW_5695700:
00000458 12             2842 	.byte	18
00000459 00000000*      2843 	.word	.LDW_4cd1348
0000045d 00             2844 	.byte	0
                        2845 
                        2846 .LDW_5695ca0:
0000045e 12             2847 	.byte	18
0000045f 00000000*      2848 	.word	.LDW_491ba88
00000463 00             2849 	.byte	0
                        2850 
                        2851 .LDW_5695b20:
00000464 12             2852 	.byte	18
00000465 00000000*      2853 	.word	.LDW_4906a58
00000469 00             2854 	.byte	0
                        2855 
0000046a 00             2856 	.byte	0
                        2857 
                        2858 .LDW_565f218:
0000046b 44             2859 	.byte	68
0000046c 00000000*      2860 	.word	.LDW_564c1b8
00000470 01             2861 	.byte	1
                        2862 
                        2863 .LDW_5695760:
00000471 12             2864 	.byte	18
00000472 00000000*      2865 	.word	.LDW_4bde518
00000476 00             2866 	.byte	0
                        2867 
                        2868 .LDW_5695790:
00000477 12             2869 	.byte	18
00000478 00000000*      2870 	.word	.LDW_4c9fd88
0000047c 00             2871 	.byte	0
                        2872 
                        2873 .LDW_5695940:
0000047d 12             2874 	.byte	18
0000047e 00000000*      2875 	.word	.LDW_4cd1348
00000482 00             2876 	.byte	0
                        2877 
                        2878 .LDW_56957c0:
00000483 12             2879 	.byte	18
00000484 00000000*      2880 	.word	.LDW_491ba88
00000488 00             2881 	.byte	0
                        2882 
                        2883 .LDW_56958b0:
00000489 12             2884 	.byte	18
0000048a 00000000*      2885 	.word	.LDW_4906be0
0000048e 00             2886 	.byte	0
                        2887 
                        2888 .LDW_5695880:
0000048f 12             2889 	.byte	18

                                                                      Page 66
                                                              C:\Users\nhuliyap\AppData\Local\Temp\gh_00002581.s
00000490 00000000*      2890 	.word	.LDW_4906a58
00000494 00             2891 	.byte	0
                        2892 
00000495 00             2893 	.byte	0
                        2894 
                        2895 .LDW_565f560:
00000496 44             2896 	.byte	68
00000497 00000000*      2897 	.word	.LDW_564bf50
0000049b 01             2898 	.byte	1
                        2899 
                        2900 .LDW_5695970:
0000049c 12             2901 	.byte	18
0000049d 00000000*      2902 	.word	.LDW_4bde518
000004a1 00             2903 	.byte	0
                        2904 
                        2905 .LDW_56959d0:
000004a2 12             2906 	.byte	18
000004a3 00000000*      2907 	.word	.LDW_4c9fd88
000004a7 00             2908 	.byte	0
                        2909 
                        2910 .LDW_5695820:
000004a8 12             2911 	.byte	18
000004a9 00000000*      2912 	.word	.LDW_4cd1348
000004ad 00             2913 	.byte	0
                        2914 
                        2915 .LDW_5695c10:
000004ae 12             2916 	.byte	18
000004af 00000000*      2917 	.word	.LDW_491ba88
000004b3 00             2918 	.byte	0
                        2919 
                        2920 .LDW_56959a0:
000004b4 12             2921 	.byte	18
000004b5 00000000*      2922 	.word	.LDW_4906a58
000004b9 00             2923 	.byte	0
                        2924 
000004ba 00             2925 	.byte	0
                        2926 
                        2927 .LDW_565f250:
000004bb 44             2928 	.byte	68
000004bc 00000000*      2929 	.word	.LDW_564e368
000004c0 01             2930 	.byte	1
                        2931 
                        2932 .LDW_5695850:
000004c1 12             2933 	.byte	18
000004c2 00000000*      2934 	.word	.LDW_4d534c0
000004c6 00             2935 	.byte	0
                        2936 
                        2937 .LDW_5695bb0:
000004c7 12             2938 	.byte	18
000004c8 00000000*      2939 	.word	.LDW_4906a58
000004cc 00             2940 	.byte	0
                        2941 
000004cd 00             2942 	.byte	0
                        2943 
                        2944 .LDW_565f598:
000004ce 44             2945 	.byte	68
000004cf 00000000*      2946 	.word	.LDW_564e6d8
000004d3 01             2947 	.byte	1
                        2948 
                        2949 .LDW_5695be0:
000004d4 12             2950 	.byte	18

                                                                      Page 67
                                                              C:\Users\nhuliyap\AppData\Local\Temp\gh_00002581.s
000004d5 00000000*      2951 	.word	.LDW_4c203a0
000004d9 00             2952 	.byte	0
                        2953 
                        2954 .LDW_5695a00:
000004da 12             2955 	.byte	18
000004db 00000000*      2956 	.word	.LDW_4906be0
000004df 00             2957 	.byte	0
                        2958 
000004e0 00             2959 	.byte	0
                        2960 
                        2961 .LDW_565fe20:
000004e1 2f             2962 	.byte	47
000004e2 00000000*      2963 	.word	.LDW_564e7e0
                        2964 
                        2965 .LDW_565f608:
000004e6 44             2966 	.byte	68
000004e7 00000000*      2967 	.word	.LDW_564ec58
000004eb 01             2968 	.byte	1
                        2969 
                        2970 .LDW_5695a30:
000004ec 12             2971 	.byte	18
000004ed 00000000*      2972 	.word	.LDW_565fe20
000004f1 00             2973 	.byte	0
                        2974 
                        2975 .LDW_5695ac0:
000004f2 12             2976 	.byte	18
000004f3 00000000*      2977 	.word	.LDW_4cd1348
000004f7 00             2978 	.byte	0
                        2979 
000004f8 00             2980 	.byte	0
                        2981 
                        2982 .LDW_565f9c0:
000004f9 2f             2983 	.byte	47
000004fa 00000000*      2984 	.word	.LDW_4d53ca8
                        2985 
                        2986 .LDW_565fc60:
000004fe 44             2987 	.byte	68
000004ff 00000000*      2988 	.word	.LDW_564ec58
00000503 01             2989 	.byte	1
                        2990 
                        2991 .LDW_5695c40:
00000504 12             2992 	.byte	18
00000505 00000000*      2993 	.word	.LDW_565fe20
00000509 00             2994 	.byte	0
                        2995 
                        2996 .LDW_5695c70:
0000050a 12             2997 	.byte	18
0000050b 00000000*      2998 	.word	.LDW_565f9c0
0000050f 00             2999 	.byte	0
                        3000 
                        3001 .LDW_5696270:
00000510 12             3002 	.byte	18
00000511 00000000*      3003 	.word	.LDW_4906a58
00000515 00             3004 	.byte	0
                        3005 
00000516 00             3006 	.byte	0
                        3007 
                        3008 .LDW_565faa0:
00000517 44             3009 	.byte	68
00000518 00000000*      3010 	.word	.LDW_491ba88
0000051c 01             3011 	.byte	1

                                                                      Page 68
                                                              C:\Users\nhuliyap\AppData\Local\Temp\gh_00002581.s
                        3012 
                        3013 .LDW_5695ee0:
0000051d 12             3014 	.byte	18
0000051e 00000000*      3015 	.word	.LDW_4d535c8
00000522 00             3016 	.byte	0
                        3017 
00000523 00             3018 	.byte	0
                        3019 
                        3020 .LDW_565fc28:
00000524 44             3021 	.byte	68
00000525 00000000*      3022 	.word	.LDW_4ca0888
00000529 01             3023 	.byte	1
                        3024 
                        3025 .LDW_5695f70:
0000052a 12             3026 	.byte	18
0000052b 00000000*      3027 	.word	.LDW_4cd1348
0000052f 00             3028 	.byte	0
                        3029 
                        3030 .LDW_5695d00:
00000530 12             3031 	.byte	18
00000531 00000000*      3032 	.word	.LDW_4906be0
00000535 00             3033 	.byte	0
                        3034 
00000536 00             3035 	.byte	0
                        3036 
                        3037 .LDW_494d7a0:
00000537 3a             3038 	.byte	58
00000538 00             3039 	.byte	0
00000539 20             3040 	.byte	32
0000053a 00000000*      3041 	.word	.LDW_491ba88
                        3042 
                        3043 	.section	.debug_abbrev
00000049 3a             3044 	.byte	58
0000004a 01             3045 	.byte	1
0000004b 01             3046 	.byte	1
0000004c 090b           3047 	.byte	9,11
0000004e 0b0f           3048 	.byte	11,15
00000050 4910           3049 	.byte	73,16
00000052 0000           3050 	.byte	0,0
                        3051 
                        3052 	.section	.debug_info
0000053e 32             3053 	.byte	50
0000053f 00000000*      3054 	.word	.LDW_551b0a8
00000543 04             3055 	.byte	4
00000544 00             3056 	.byte	0
00000545 1f             3057 	.byte	31
                        3058 
                        3059 	.section	.debug_abbrev
00000054 32             3060 	.byte	50
00000055 21             3061 	.byte	33
00000056 00             3062 	.byte	0
00000057 4910           3063 	.byte	73,16
00000059 0b0f           3064 	.byte	11,15
0000005b 220d           3065 	.byte	34,13
0000005d 2f0d           3066 	.byte	47,13
0000005f 0000           3067 	.byte	0,0
                        3068 
                        3069 	.section	.debug_info
00000546 00             3070 	.byte	0
                        3071 
                        3072 .LDW_5705038:

                                                                      Page 69
                                                              C:\Users\nhuliyap\AppData\Local\Temp\gh_00002581.s
00000547 29             3073 	.byte	41
00000548 00000000*      3074 	.word	.LDW_56d2c68
                        3075 
                        3076 .LDW_570e938:
0000054c 3a             3077 	.byte	58
0000054d 00             3078 	.byte	0
0000054e f803           3079 	.byte	248,3
00000550 00000000*      3080 	.word	.LDW_5705038
                        3081 
00000554 32             3082 	.byte	50
00000555 00000000*      3083 	.word	.LDW_551b0a8
00000559 04             3084 	.byte	4
0000055a 00             3085 	.byte	0
0000055b 29             3086 	.byte	41
                        3087 
0000055c 00             3088 	.byte	0
                        3089 
                        3090 .LDW_5724308:
0000055d 29             3091 	.byte	41
0000055e 00000000*      3092 	.word	.LDW_5703098
                        3093 
                        3094 .LDW_570ecf0:
00000562 3a             3095 	.byte	58
00000563 00             3096 	.byte	0
00000564 54             3097 	.byte	84
00000565 00000000*      3098 	.word	.LDW_5724308
                        3099 
00000569 32             3100 	.byte	50
0000056a 00000000*      3101 	.word	.LDW_551b0a8
0000056e 04             3102 	.byte	4
0000056f 00             3103 	.byte	0
00000570 29             3104 	.byte	41
                        3105 
00000571 00             3106 	.byte	0
                        3107 
                        3108 .LDW_57243b8:
00000572 29             3109 	.byte	41
00000573 00000000*      3110 	.word	.LDW_4ca01a8
                        3111 
                        3112 .LDW_570ee88:
00000577 3a             3113 	.byte	58
00000578 00             3114 	.byte	0
00000579 54             3115 	.byte	84
0000057a 00000000*      3116 	.word	.LDW_57243b8
                        3117 
0000057e 32             3118 	.byte	50
0000057f 00000000*      3119 	.word	.LDW_551b0a8
00000583 04             3120 	.byte	4
00000584 00             3121 	.byte	0
00000585 29             3122 	.byte	41
                        3123 
00000586 00             3124 	.byte	0
                        3125 
                        3126 .LDW_5725dd8:
00000587 29             3127 	.byte	41
00000588 00000000*      3128 	.word	.LDW_5703778
                        3129 
                        3130 .LDW_5727fc8:
0000058c 3a             3131 	.byte	58
0000058d 00             3132 	.byte	0
0000058e a801           3133 	.byte	168,1

                                                                      Page 70
                                                              C:\Users\nhuliyap\AppData\Local\Temp\gh_00002581.s
00000590 00000000*      3134 	.word	.LDW_5725dd8
                        3135 
00000594 32             3136 	.byte	50
00000595 00000000*      3137 	.word	.LDW_551b0a8
00000599 04             3138 	.byte	4
0000059a 00             3139 	.byte	0
0000059b 29             3140 	.byte	41
                        3141 
0000059c 00             3142 	.byte	0
                        3143 
                        3144 .LDW_57277d0:
0000059d 3a             3145 	.byte	58
0000059e 00             3146 	.byte	0
0000059f e003           3147 	.byte	224,3
000005a1 00000000*      3148 	.word	.LDW_5511340
                        3149 
000005a5 32             3150 	.byte	50
000005a6 00000000*      3151 	.word	.LDW_551b0a8
000005aa 04             3152 	.byte	4
000005ab 00             3153 	.byte	0
000005ac 09             3154 	.byte	9
                        3155 
000005ad 00             3156 	.byte	0
                        3157 
                        3158 .LDW_5726670:
000005ae 29             3159 	.byte	41
000005af 00000000*      3160 	.word	.LDW_5704010
                        3161 
                        3162 .LDW_5727c98:
000005b3 3a             3163 	.byte	58
000005b4 00             3164 	.byte	0
000005b5 0a             3165 	.byte	10
000005b6 00000000*      3166 	.word	.LDW_5726670
                        3167 
000005ba 32             3168 	.byte	50
000005bb 00000000*      3169 	.word	.LDW_551b0a8
000005bf 04             3170 	.byte	4
000005c0 00             3171 	.byte	0
000005c1 04             3172 	.byte	4
                        3173 
000005c2 00             3174 	.byte	0
                        3175 
                        3176 .LDW_5728160:
000005c3 3a             3177 	.byte	58
000005c4 00             3178 	.byte	0
000005c5 2a             3179 	.byte	42
000005c6 00000000*      3180 	.word	.LDW_5704fe0
                        3181 
000005ca 32             3182 	.byte	50
000005cb 00000000*      3183 	.word	.LDW_551b0a8
000005cf 04             3184 	.byte	4
000005d0 00             3185 	.byte	0
000005d1 29             3186 	.byte	41
                        3187 
000005d2 00             3188 	.byte	0
                        3189 
                        3190 .LDW_565fbb8:
000005d3 45             3191 	.byte	69
000005d4 01             3192 	.byte	1
                        3193 
000005d5 00             3194 	.byte	0

                                                                      Page 71
                                                              C:\Users\nhuliyap\AppData\Local\Temp\gh_00002581.s
                        3195 
                        3196 .LDW_565fb48:
000005d6 45             3197 	.byte	69
000005d7 01             3198 	.byte	1
                        3199 
000005d8 00             3200 	.byte	0
                        3201 
                        3202 .LDW_572d8f8:
000005d9 44             3203 	.byte	68
000005da 00000000*      3204 	.word	.LDW_4ca0888
000005de 01             3205 	.byte	1
                        3206 
                        3207 .LDW_56985b0:
000005df 12             3208 	.byte	18
000005e0 00000000*      3209 	.word	.LDW_4bdde38
000005e4 00             3210 	.byte	0
                        3211 
                        3212 .LDW_5698670:
000005e5 12             3213 	.byte	18
000005e6 00000000*      3214 	.word	.LDW_491ba88
000005ea 00             3215 	.byte	0
                        3216 
                        3217 .LDW_56980d0:
000005eb 12             3218 	.byte	18
000005ec 00000000*      3219 	.word	.LDW_491ba88
000005f0 00             3220 	.byte	0
                        3221 
                        3222 .LDW_56986a0:
000005f1 12             3223 	.byte	18
000005f2 00000000*      3224 	.word	.LDW_491ba88
000005f6 00             3225 	.byte	0
                        3226 
000005f7 00             3227 	.byte	0
                        3228 
                        3229 .LDW_57424f0:
000005f8 44             3230 	.byte	68
000005f9 00000000*      3231 	.word	.LDW_4d535c8
000005fd 01             3232 	.byte	1
                        3233 
                        3234 .LDW_572fbc8:
000005fe 12             3235 	.byte	18
000005ff 00000000*      3236 	.word	.LDW_4ca01a8
00000603 00             3237 	.byte	0
                        3238 
                        3239 .LDW_572f868:
00000604 12             3240 	.byte	18
00000605 00000000*      3241 	.word	.LDW_4d535c8
00000609 00             3242 	.byte	0
                        3243 
                        3244 .LDW_572f9e8:
0000060a 12             3245 	.byte	18
0000060b 00000000*      3246 	.word	.LDW_4cd1088
0000060f 00             3247 	.byte	0
                        3248 
00000610 00             3249 	.byte	0
                        3250 
                        3251 .LDW_57425d0:
00000611 44             3252 	.byte	68
00000612 00000000*      3253 	.word	.LDW_4cd1088
00000616 01             3254 	.byte	1
                        3255 

                                                                      Page 72
                                                              C:\Users\nhuliyap\AppData\Local\Temp\gh_00002581.s
                        3256 .LDW_5730018:
00000617 12             3257 	.byte	18
00000618 00000000*      3258 	.word	.LDW_4d53ca8
0000061c 00             3259 	.byte	0
                        3260 
                        3261 .LDW_572fec8:
0000061d 12             3262 	.byte	18
0000061e 00000000*      3263 	.word	.LDW_491ba88
00000622 00             3264 	.byte	0
                        3265 
                        3266 .LDW_5730048:
00000623 12             3267 	.byte	18
00000624 00000000*      3268 	.word	.LDW_54cd378
00000628 00             3269 	.byte	0
                        3270 
00000629 00             3271 	.byte	0
                        3272 
                        3273 .LDW_5742100:
0000062a 44             3274 	.byte	68
0000062b 00000000*      3275 	.word	.LDW_55ead00
0000062f 01             3276 	.byte	1
                        3277 
                        3278 .LDW_57301c8:
00000630 12             3279 	.byte	18
00000631 00000000*      3280 	.word	.LDW_4d53ca8
00000635 00             3281 	.byte	0
                        3282 
                        3283 .LDW_57300d8:
00000636 12             3284 	.byte	18
00000637 00000000*      3285 	.word	.LDW_491ba88
0000063b 00             3286 	.byte	0
                        3287 
                        3288 .LDW_5730138:
0000063c 12             3289 	.byte	18
0000063d 00000000*      3290 	.word	.LDW_4906be0
00000641 00             3291 	.byte	0
                        3292 
                        3293 .LDW_57302b8:
00000642 12             3294 	.byte	18
00000643 00000000*      3295 	.word	.LDW_4906a58
00000647 00             3296 	.byte	0
                        3297 
                        3298 .LDW_5730168:
00000648 12             3299 	.byte	18
00000649 00000000*      3300 	.word	.LDW_4c04e90
0000064d 00             3301 	.byte	0
                        3302 
                        3303 .LDW_5730078:
0000064e 12             3304 	.byte	18
0000064f 00000000*      3305 	.word	.LDW_55c4188
00000653 00             3306 	.byte	0
                        3307 
00000654 00             3308 	.byte	0
                        3309 
                        3310 .LDW_5742020:
00000655 44             3311 	.byte	68
00000656 00000000*      3312 	.word	.LDW_564c1b8
0000065a 01             3313 	.byte	1
                        3314 
                        3315 .LDW_572fe68:
0000065b 12             3316 	.byte	18

                                                                      Page 73
                                                              C:\Users\nhuliyap\AppData\Local\Temp\gh_00002581.s
0000065c 00000000*      3317 	.word	.LDW_4d53ca8
00000660 00             3318 	.byte	0
                        3319 
                        3320 .LDW_5730318:
00000661 12             3321 	.byte	18
00000662 00000000*      3322 	.word	.LDW_4906be0
00000666 00             3323 	.byte	0
                        3324 
                        3325 .LDW_57300a8:
00000667 12             3326 	.byte	18
00000668 00000000*      3327 	.word	.LDW_4906a58
0000066c 00             3328 	.byte	0
                        3329 
                        3330 .LDW_5730228:
0000066d 12             3331 	.byte	18
0000066e 00000000*      3332 	.word	.LDW_491ba88
00000672 00             3333 	.byte	0
                        3334 
                        3335 .LDW_572fe98:
00000673 12             3336 	.byte	18
00000674 00000000*      3337 	.word	.LDW_4c04e90
00000678 00             3338 	.byte	0
                        3339 
                        3340 .LDW_572fef8:
00000679 12             3341 	.byte	18
0000067a 00000000*      3342 	.word	.LDW_55c4188
0000067e 00             3343 	.byte	0
                        3344 
0000067f 00             3345 	.byte	0
                        3346 
                        3347 .LDW_5742250:
00000680 44             3348 	.byte	68
00000681 00000000*      3349 	.word	.LDW_55ebb18
00000685 01             3350 	.byte	1
                        3351 
                        3352 .LDW_5730288:
00000686 12             3353 	.byte	18
00000687 00000000*      3354 	.word	.LDW_4d53ca8
0000068b 00             3355 	.byte	0
                        3356 
                        3357 .LDW_57302e8:
0000068c 12             3358 	.byte	18
0000068d 00000000*      3359 	.word	.LDW_491ba88
00000691 00             3360 	.byte	0
                        3361 
                        3362 .LDW_5730348:
00000692 12             3363 	.byte	18
00000693 00000000*      3364 	.word	.LDW_4906a58
00000697 00             3365 	.byte	0
                        3366 
00000698 00             3367 	.byte	0
                        3368 
                        3369 .LDW_5742608:
00000699 44             3370 	.byte	68
0000069a 00000000*      3371 	.word	.LDW_55ebb18
0000069e 01             3372 	.byte	1
                        3373 
                        3374 .LDW_572ff28:
0000069f 12             3375 	.byte	18
000006a0 00000000*      3376 	.word	.LDW_4d53ca8
000006a4 00             3377 	.byte	0

                                                                      Page 74
                                                              C:\Users\nhuliyap\AppData\Local\Temp\gh_00002581.s
                        3378 
                        3379 .LDW_572ff58:
000006a5 12             3380 	.byte	18
000006a6 00000000*      3381 	.word	.LDW_4906a58
000006aa 00             3382 	.byte	0
                        3383 
000006ab 00             3384 	.byte	0
                        3385 
                        3386 .LDW_5742598:
000006ac 44             3387 	.byte	68
000006ad 00000000*      3388 	.word	.LDW_564bf50
000006b1 01             3389 	.byte	1
                        3390 
                        3391 .LDW_57435c0:
000006b2 12             3392 	.byte	18
000006b3 00000000*      3393 	.word	.LDW_4d53ca8
000006b7 00             3394 	.byte	0
                        3395 
                        3396 .LDW_57435f0:
000006b8 12             3397 	.byte	18
000006b9 00000000*      3398 	.word	.LDW_4906a58
000006bd 00             3399 	.byte	0
                        3400 
000006be 00             3401 	.byte	0
                        3402 
                        3403 .LDW_5742640:
000006bf 44             3404 	.byte	68
000006c0 00000000*      3405 	.word	.LDW_4ca01a8
000006c4 01             3406 	.byte	1
                        3407 
                        3408 .LDW_57432c0:
000006c5 12             3409 	.byte	18
000006c6 00000000*      3410 	.word	.LDW_4c9fb20
000006ca 00             3411 	.byte	0
                        3412 
000006cb 00             3413 	.byte	0
                        3414 
                        3415 .LDW_4bdd788:
000006cc 28             3416 	.byte	40
000006cd 626f6f6c6561   3417 	.strz	"boolean"
000006d3 6e00 
000006d5 4e             3418 	.byte	78
000006d6 49             3419 	.byte	73
000006d7 03             3420 	.byte	3
000006d8 00000000*      3421 	.word	.LDW_4906da0
                        3422 
                        3423 	.section	.debug_abbrev
00000061 28             3424 	.byte	40
00000062 16             3425 	.byte	22
00000063 00             3426 	.byte	0
00000064 0308           3427 	.byte	3,8
00000066 3b0f           3428 	.byte	59,15
00000068 390f           3429 	.byte	57,15
0000006a 3a0f           3430 	.byte	58,15
0000006c 4910           3431 	.byte	73,16
0000006e 0000           3432 	.byte	0,0
                        3433 
                        3434 	.section	.debug_info
                        3435 .LDW_491ba88:
000006dc 28             3436 	.byte	40
000006dd 75696e743800   3437 	.strz	"uint8"

                                                                      Page 75
                                                              C:\Users\nhuliyap\AppData\Local\Temp\gh_00002581.s
000006e3 50             3438 	.byte	80
000006e4 4b             3439 	.byte	75
000006e5 03             3440 	.byte	3
000006e6 00000000*      3441 	.word	.LDW_4906da0
                        3442 
                        3443 .LDW_4bdde38:
000006ea 28             3444 	.byte	40
000006eb 75696e743136   3445 	.strz	"uint16"
000006f1 00 
000006f2 52             3446 	.byte	82
000006f3 4a             3447 	.byte	74
000006f4 03             3448 	.byte	3
000006f5 00000000*      3449 	.word	.LDW_49070b0
                        3450 
                        3451 .LDW_4bde518:
000006f9 28             3452 	.byte	40
000006fa 75696e743332   3453 	.strz	"uint32"
00000700 00 
00000701 54             3454 	.byte	84
00000702 4a             3455 	.byte	74
00000703 03             3456 	.byte	3
00000704 00000000*      3457 	.word	.LDW_4c20790
                        3458 
                        3459 .LDW_4d535c8:
00000708 28             3460 	.byte	40
00000709 75696e743136   3461 	.strz	"uint16_least"
0000070f 5f6c65617374 
00000715 00 
00000716 58             3462 	.byte	88
00000717 44             3463 	.byte	68
00000718 03             3464 	.byte	3
00000719 00000000*      3465 	.word	.LDW_5158a10
                        3466 
                        3467 .LDW_4ca0888:
0000071d 28             3468 	.byte	40
0000071e 5374645f5265   3469 	.strz	"Std_ReturnType"
00000724 7475726e5479 
0000072a 706500 
0000072d 4e             3470 	.byte	78
0000072e 0f             3471 	.byte	15
0000072f 02             3472 	.byte	2
00000730 00000000*      3473 	.word	.LDW_491ba88
                        3474 
                        3475 .LDW_4b94b90:
00000734 2e             3476 	.byte	46
00000735 00             3477 	.byte	0
00000736 33             3478 	.byte	51
00000737 0d             3479 	.byte	13
00000738 0e             3480 	.byte	14
00000739 01             3481 	.byte	1
0000073a 01             3482 	.byte	1
                        3483 
                        3484 	.section	.debug_abbrev
00000070 2e             3485 	.byte	46
00000071 04             3486 	.byte	4
00000072 01             3487 	.byte	1
00000073 0308           3488 	.byte	3,8
00000075 3b0f           3489 	.byte	59,15
00000077 390f           3490 	.byte	57,15
00000079 3a0f           3491 	.byte	58,15
0000007b 0b0f           3492 	.byte	11,15

                                                                      Page 76
                                                              C:\Users\nhuliyap\AppData\Local\Temp\gh_00002581.s
0000007d 320b           3493 	.byte	50,11
0000007f 0000           3494 	.byte	0,0
                        3495 
                        3496 	.section	.debug_info
                        3497 .LDW_4bd9dd8:
0000073b 2d             3498 	.byte	45
0000073c 44454d5f494e   3499 	.strz	"DEM_INIT_MONITOR_CLEAR"
00000742 49545f4d4f4e 
00000748 49544f525f43 
0000074e 4c45415200 
00000753 34             3500 	.byte	52
00000754 03             3501 	.byte	3
00000755 0e             3502 	.byte	14
00000756 01             3503 	.byte	1
                        3504 
                        3505 	.section	.debug_abbrev
00000081 2d             3506 	.byte	45
00000082 28             3507 	.byte	40
00000083 00             3508 	.byte	0
00000084 0308           3509 	.byte	3,8
00000086 3b0f           3510 	.byte	59,15
00000088 390f           3511 	.byte	57,15
0000008a 3a0f           3512 	.byte	58,15
0000008c 1c0d           3513 	.byte	28,13
0000008e 0000           3514 	.byte	0,0
                        3515 
                        3516 	.section	.debug_info
                        3517 .LDW_4bd9e18:
00000757 2d             3518 	.byte	45
00000758 44454d5f494e   3519 	.strz	"DEM_INIT_MONITOR_RESTART"
0000075e 49545f4d4f4e 
00000764 49544f525f52 
0000076a 455354415254 
00000770 00 
00000771 35             3520 	.byte	53
00000772 03             3521 	.byte	3
00000773 0e             3522 	.byte	14
00000774 02             3523 	.byte	2
                        3524 
                        3525 .LDW_515d3d0:
00000775 2d             3526 	.byte	45
00000776 44454d5f494e   3527 	.strz	"DEM_INIT_MONITOR_REENABLED"
0000077c 49545f4d4f4e 
00000782 49544f525f52 
00000788 45454e41424c 
0000078e 454400 
00000791 36             3528 	.byte	54
00000792 03             3529 	.byte	3
00000793 0e             3530 	.byte	14
00000794 03             3531 	.byte	3
                        3532 
                        3533 .LDW_515d390:
00000795 2d             3534 	.byte	45
00000796 44454d5f494e   3535 	.strz	"DEM_INIT_MONITOR_STORAGE_REENABLED"
0000079c 49545f4d4f4e 
000007a2 49544f525f53 
000007a8 544f52414745 
000007ae 5f5245454e41 
000007b4 424c454400 
000007b9 37             3536 	.byte	55
000007ba 03             3537 	.byte	3

                                                                      Page 77
                                                              C:\Users\nhuliyap\AppData\Local\Temp\gh_00002581.s
000007bb 0e             3538 	.byte	14
000007bc 04             3539 	.byte	4
                        3540 
000007bd 00             3541 	.byte	0
                        3542 
                        3543 .LDW_515a2d0:
000007be 28             3544 	.byte	40
000007bf 44656d5f496e   3545 	.strz	"Dem_InitMonitorReasonType"
000007c5 69744d6f6e69 
000007cb 746f72526561 
000007d1 736f6e547970 
000007d7 6500 
000007d9 38             3546 	.byte	56
000007da 02             3547 	.byte	2
000007db 0e             3548 	.byte	14
000007dc 00000000*      3549 	.word	.LDW_4b94b90
                        3550 
                        3551 .LDW_4b94b40:
000007e0 2e             3552 	.byte	46
000007e1 00             3553 	.byte	0
000007e2 3a             3554 	.byte	58
000007e3 0d             3555 	.byte	13
000007e4 0e             3556 	.byte	14
000007e5 01             3557 	.byte	1
000007e6 01             3558 	.byte	1
                        3559 
                        3560 .LDW_4bd9ad8:
000007e7 2d             3561 	.byte	45
000007e8 44454d5f4556   3562 	.strz	"DEM_EVENT_STATUS_PASSED"
000007ee 454e545f5354 
000007f4 415455535f50 
000007fa 415353454400 
00000800 3b             3563 	.byte	59
00000801 03             3564 	.byte	3
00000802 0e             3565 	.byte	14
00000803 00             3566 	.byte	0
                        3567 
                        3568 .LDW_4bd9bd8:
00000804 2d             3569 	.byte	45
00000805 44454d5f4556   3570 	.strz	"DEM_EVENT_STATUS_FAILED"
0000080b 454e545f5354 
00000811 415455535f46 
00000817 41494c454400 
0000081d 3c             3571 	.byte	60
0000081e 03             3572 	.byte	3
0000081f 0e             3573 	.byte	14
00000820 01             3574 	.byte	1
                        3575 
                        3576 .LDW_4bd9c18:
00000821 2d             3577 	.byte	45
00000822 44454d5f4556   3578 	.strz	"DEM_EVENT_STATUS_PREPASSED"
00000828 454e545f5354 
0000082e 415455535f50 
00000834 524550415353 
0000083a 454400 
0000083d 3d             3579 	.byte	61
0000083e 03             3580 	.byte	3
0000083f 0e             3581 	.byte	14
00000840 02             3582 	.byte	2
                        3583 
                        3584 .LDW_4bd9cd8:

                                                                      Page 78
                                                              C:\Users\nhuliyap\AppData\Local\Temp\gh_00002581.s
00000841 2d             3585 	.byte	45
00000842 44454d5f4556   3586 	.strz	"DEM_EVENT_STATUS_PREFAILED"
00000848 454e545f5354 
0000084e 415455535f50 
00000854 52454641494c 
0000085a 454400 
0000085d 3e             3587 	.byte	62
0000085e 03             3588 	.byte	3
0000085f 0e             3589 	.byte	14
00000860 03             3590 	.byte	3
                        3591 
                        3592 .LDW_4bd9d58:
00000861 2d             3593 	.byte	45
00000862 44454d5f4556   3594 	.strz	"DEM_EVENT_STATUS_FDC_THRESHOLD_REACHED"
00000868 454e545f5354 
0000086e 415455535f46 
00000874 44435f544852 
0000087a 4553484f4c44 
00000880 5f5245414348 
00000886 454400 
00000889 3f             3595 	.byte	63
0000088a 03             3596 	.byte	3
0000088b 0e             3597 	.byte	14
0000088c 04             3598 	.byte	4
                        3599 
0000088d 00             3600 	.byte	0
                        3601 
                        3602 .LDW_5159a90:
0000088e 28             3603 	.byte	40
0000088f 44656d5f4576   3604 	.strz	"Dem_EventStatusType"
00000895 656e74537461 
0000089b 747573547970 
000008a1 6500 
000008a3 40             3605 	.byte	64
000008a4 02             3606 	.byte	2
000008a5 0e             3607 	.byte	14
000008a6 00000000*      3608 	.word	.LDW_4b94b40
                        3609 
                        3610 .LDW_4bda7b8:
000008aa 2e             3611 	.byte	46
000008ab 00             3612 	.byte	0
000008ac 42             3613 	.byte	66
000008ad 0d             3614 	.byte	13
000008ae 0e             3615 	.byte	14
000008af 01             3616 	.byte	1
000008b0 01             3617 	.byte	1
                        3618 
                        3619 .LDW_4bd9a58:
000008b1 2d             3620 	.byte	45
000008b2 44454d5f4454   3621 	.strz	"DEM_DTC_FORMAT_OBD"
000008b8 435f464f524d 
000008be 41545f4f4244 
000008c4 00 
000008c5 43             3622 	.byte	67
000008c6 03             3623 	.byte	3
000008c7 0e             3624 	.byte	14
000008c8 00             3625 	.byte	0
                        3626 
                        3627 .LDW_4bd9b58:
000008c9 2d             3628 	.byte	45
000008ca 44454d5f4454   3629 	.strz	"DEM_DTC_FORMAT_UDS"

                                                                      Page 79
                                                              C:\Users\nhuliyap\AppData\Local\Temp\gh_00002581.s
000008d0 435f464f524d 
000008d6 41545f554453 
000008dc 00 
000008dd 44             3630 	.byte	68
000008de 07             3631 	.byte	7
000008df 0e             3632 	.byte	14
000008e0 01             3633 	.byte	1
                        3634 
                        3635 .LDW_4bd9898:
000008e1 2d             3636 	.byte	45
000008e2 44454d5f4454   3637 	.strz	"DEM_DTC_FORMAT_J1939"
000008e8 435f464f524d 
000008ee 41545f4a3139 
000008f4 333900 
000008f7 45             3638 	.byte	69
000008f8 07             3639 	.byte	7
000008f9 0e             3640 	.byte	14
000008fa 02             3641 	.byte	2
                        3642 
000008fb 00             3643 	.byte	0
                        3644 
                        3645 .LDW_4d534c0:
000008fc 28             3646 	.byte	40
000008fd 44656d5f4454   3647 	.strz	"Dem_DTCFormatType"
00000903 43466f726d61 
00000909 745479706500 
0000090f 46             3648 	.byte	70
00000910 02             3649 	.byte	2
00000911 0e             3650 	.byte	14
00000912 00000000*      3651 	.word	.LDW_4bda7b8
                        3652 
                        3653 .LDW_4d5eeb8:
00000916 2e             3654 	.byte	46
00000917 00             3655 	.byte	0
00000918 49             3656 	.byte	73
00000919 0d             3657 	.byte	13
0000091a 0e             3658 	.byte	14
0000091b 01             3659 	.byte	1
0000091c 01             3660 	.byte	1
                        3661 
                        3662 .LDW_515d5d0:
0000091d 2d             3663 	.byte	45
0000091e 44454d5f434c   3664 	.strz	"DEM_CLEAR_OK"
00000924 4541525f4f4b 
0000092a 00 
0000092b 4a             3665 	.byte	74
0000092c 03             3666 	.byte	3
0000092d 0e             3667 	.byte	14
0000092e 00             3668 	.byte	0
                        3669 
                        3670 .LDW_515d690:
0000092f 2d             3671 	.byte	45
00000930 44454d5f434c   3672 	.strz	"DEM_CLEAR_WRONG_DTC"
00000936 4541525f5752 
0000093c 4f4e475f4454 
00000942 4300 
00000944 4b             3673 	.byte	75
00000945 03             3674 	.byte	3
00000946 0e             3675 	.byte	14
00000947 01             3676 	.byte	1
                        3677 

                                                                      Page 80
                                                              C:\Users\nhuliyap\AppData\Local\Temp\gh_00002581.s
                        3678 .LDW_515d150:
00000948 2d             3679 	.byte	45
00000949 44454d5f434c   3680 	.strz	"DEM_CLEAR_WRONG_DTCORIGIN"
0000094f 4541525f5752 
00000955 4f4e475f4454 
0000095b 434f52494749 
00000961 4e00 
00000963 4c             3681 	.byte	76
00000964 03             3682 	.byte	3
00000965 0e             3683 	.byte	14
00000966 02             3684 	.byte	2
                        3685 
                        3686 .LDW_515d090:
00000967 2d             3687 	.byte	45
00000968 44454d5f434c   3688 	.strz	"DEM_CLEAR_FAILED"
0000096e 4541525f4641 
00000974 494c454400 
00000979 4d             3689 	.byte	77
0000097a 03             3690 	.byte	3
0000097b 0e             3691 	.byte	14
0000097c 03             3692 	.byte	3
                        3693 
                        3694 .LDW_515d750:
0000097d 2d             3695 	.byte	45
0000097e 44454d5f434c   3696 	.strz	"DEM_CLEAR_PENDING"
00000984 4541525f5045 
0000098a 4e44494e4700 
00000990 4e             3697 	.byte	78
00000991 03             3698 	.byte	3
00000992 0e             3699 	.byte	14
00000993 04             3700 	.byte	4
                        3701 
                        3702 .LDW_515d0d0:
00000994 2d             3703 	.byte	45
00000995 44454d5f434c   3704 	.strz	"DEM_CLEAR_BUSY"
0000099b 4541525f4255 
000009a1 535900 
000009a4 4f             3705 	.byte	79
000009a5 03             3706 	.byte	3
000009a6 0e             3707 	.byte	14
000009a7 05             3708 	.byte	5
                        3709 
                        3710 .LDW_515da50:
000009a8 2d             3711 	.byte	45
000009a9 44454d5f434c   3712 	.strz	"DEM_CLEAR_MEMORY_ERROR"
000009af 4541525f4d45 
000009b5 4d4f52595f45 
000009bb 52524f5200 
000009c0 50             3713 	.byte	80
000009c1 03             3714 	.byte	3
000009c2 0e             3715 	.byte	14
000009c3 06             3716 	.byte	6
                        3717 
000009c4 00             3718 	.byte	0
                        3719 
                        3720 .LDW_564b500:
000009c5 28             3721 	.byte	40
000009c6 44656d5f5265   3722 	.strz	"Dem_ReturnClearDTCType"
000009cc 7475726e436c 
000009d2 656172445443 
000009d8 5479706500 

                                                                      Page 81
                                                              C:\Users\nhuliyap\AppData\Local\Temp\gh_00002581.s
000009dd 52             3723 	.byte	82
000009de 02             3724 	.byte	2
000009df 0e             3725 	.byte	14
000009e0 00000000*      3726 	.word	.LDW_4d5eeb8
                        3727 
                        3728 .LDW_4d53ca8:
000009e4 28             3729 	.byte	40
000009e5 44656d5f4576   3730 	.strz	"Dem_EventIdType"
000009eb 656e74496454 
000009f1 79706500 
000009f5 59             3731 	.byte	89
000009f6 10             3732 	.byte	16
000009f7 0e             3733 	.byte	14
000009f8 00000000*      3734 	.word	.LDW_4bdde38
                        3735 
                        3736 .LDW_4cd1348:
000009fc 28             3737 	.byte	40
000009fd 44656d5f4454   3738 	.strz	"Dem_DTCOriginType"
00000a03 434f72696769 
00000a09 6e5479706500 
00000a0f 5d             3739 	.byte	93
00000a10 0f             3740 	.byte	15
00000a11 0e             3741 	.byte	14
00000a12 00000000*      3742 	.word	.LDW_491ba88
                        3743 
                        3744 .LDW_4ca01a8:
00000a16 28             3745 	.byte	40
00000a17 44656d5f4474   3746 	.strz	"Dem_DtcIdType"
00000a1d 634964547970 
00000a23 6500 
00000a25 23             3747 	.byte	35
00000a26 10             3748 	.byte	16
00000a27 08             3749 	.byte	8
00000a28 00000000*      3750 	.word	.LDW_4bdde38
                        3751 
                        3752 .LDW_4c9fb20:
00000a2c 28             3753 	.byte	40
00000a2d 44656d5f4474   3754 	.strz	"Dem_DtcCodeType"
00000a33 63436f646554 
00000a39 79706500 
00000a3d 26             3755 	.byte	38
00000a3e 10             3756 	.byte	16
00000a3f 08             3757 	.byte	8
00000a40 00000000*      3758 	.word	.LDW_4bde518
                        3759 
                        3760 .LDW_4cd1088:
00000a44 28             3761 	.byte	40
00000a45 44656d5f626f   3762 	.strz	"Dem_boolean_least"
00000a4b 6f6c65616e5f 
00000a51 6c6561737400 
00000a57 28             3763 	.byte	40
00000a58 11             3764 	.byte	17
00000a59 08             3765 	.byte	8
00000a5a 00000000*      3766 	.word	.LDW_4bdd788
                        3767 
                        3768 .LDW_564e940:
00000a5e 41             3769 	.byte	65
00000a5f 2b             3770 	.byte	43
00000a60 0f             3771 	.byte	15
00000a61 08             3772 	.byte	8
00000a62 08             3773 	.byte	8

                                                                      Page 82
                                                              C:\Users\nhuliyap\AppData\Local\Temp\gh_00002581.s
00000a63 01             3774 	.byte	1
                        3775 
                        3776 	.section	.debug_abbrev
00000090 41             3777 	.byte	65
00000091 13             3778 	.byte	19
00000092 01             3779 	.byte	1
00000093 3b0f           3780 	.byte	59,15
00000095 390f           3781 	.byte	57,15
00000097 3a0f           3782 	.byte	58,15
00000099 0b0f           3783 	.byte	11,15
0000009b 320b           3784 	.byte	50,11
0000009d 0000           3785 	.byte	0,0
                        3786 
                        3787 	.section	.debug_info
                        3788 .LDW_55a2b18:
00000a64 23             3789 	.byte	35
00000a65 65764d656d49   3790 	.strz	"evMemId"
00000a6b 6400 
00000a6d 2c             3791 	.byte	44
00000a6e 11             3792 	.byte	17
00000a6f 08             3793 	.byte	8
00000a70 00000000*      3794 	.word	.LDW_4d535c8
00000a74 0223           3795 	.byte	2,35
00000a76 00             3796 	.byte	0
00000a77 01             3797 	.byte	1
                        3798 
                        3799 	.section	.debug_abbrev
0000009f 23             3800 	.byte	35
000000a0 0d             3801 	.byte	13
000000a1 00             3802 	.byte	0
000000a2 0308           3803 	.byte	3,8
000000a4 3b0f           3804 	.byte	59,15
000000a6 390f           3805 	.byte	57,15
000000a8 3a0f           3806 	.byte	58,15
000000aa 4910           3807 	.byte	73,16
000000ac 380a           3808 	.byte	56,10
000000ae 320b           3809 	.byte	50,11
000000b0 0000           3810 	.byte	0,0
                        3811 
                        3812 	.section	.debug_info
                        3813 .LDW_55a2770:
00000a78 23             3814 	.byte	35
00000a79 6c6f63497465   3815 	.strz	"locIterator"
00000a7f 7261746f7200 
00000a85 2d             3816 	.byte	45
00000a86 11             3817 	.byte	17
00000a87 08             3818 	.byte	8
00000a88 00000000*      3819 	.word	.LDW_4d535c8
00000a8c 0223           3820 	.byte	2,35
00000a8e 04             3821 	.byte	4
00000a8f 01             3822 	.byte	1
                        3823 
00000a90 00             3824 	.byte	0
                        3825 
                        3826 .LDW_564e7e0:
00000a91 28             3827 	.byte	40
00000a92 44656d5f5265   3828 	.strz	"Dem_ReadEventsFromMemoryType"
00000a98 61644576656e 
00000a9e 747346726f6d 
00000aa4 4d656d6f7279 
00000aaa 5479706500 

                                                                      Page 83
                                                              C:\Users\nhuliyap\AppData\Local\Temp\gh_00002581.s
00000aaf 2e             3829 	.byte	46
00000ab0 02             3830 	.byte	2
00000ab1 08             3831 	.byte	8
00000ab2 00000000*      3832 	.word	.LDW_564e940
                        3833 
                        3834 .LDW_564ec58:
00000ab6 28             3835 	.byte	40
00000ab7 44656d5f5265   3836 	.strz	"Dem_ReadEventType"
00000abd 61644576656e 
00000ac3 745479706500 
00000ac9 30             3837 	.byte	48
00000aca 0f             3838 	.byte	15
00000acb 08             3839 	.byte	8
00000acc 00000000*      3840 	.word	.LDW_491ba88
                        3841 
                        3842 .LDW_55ead00:
00000ad0 28             3843 	.byte	40
00000ad1 44656d5f5265   3844 	.strz	"Dem_ReturnGetExtendedDataRecordByDTCType"
00000ad7 7475726e4765 
00000add 74457874656e 
00000ae3 646564446174 
00000ae9 615265636f72 
00000aef 644279445443 
00000af5 5479706500 
00000afa 42             3845 	.byte	66
00000afb 0f             3846 	.byte	15
00000afc 08             3847 	.byte	8
00000afd 00000000*      3848 	.word	.LDW_491ba88
                        3849 
                        3850 .LDW_55ebb18:
00000b01 28             3851 	.byte	40
00000b02 44656d5f5265   3852 	.strz	"Dem_ReturnGetSizeOfExtendedDataRecordByDTCType"
00000b08 7475726e4765 
00000b0e 7453697a654f 
00000b14 66457874656e 
00000b1a 646564446174 
00000b20 615265636f72 
00000b26 644279445443 
00000b2c 5479706500 
00000b31 4b             3853 	.byte	75
00000b32 0f             3854 	.byte	15
00000b33 08             3855 	.byte	8
00000b34 00000000*      3856 	.word	.LDW_491ba88
                        3857 
                        3858 .LDW_564c1b8:
00000b38 28             3859 	.byte	40
00000b39 44656d5f5265   3860 	.strz	"Dem_ReturnGetFreezeFrameDataByDTCType"
00000b3f 7475726e4765 
00000b45 74467265657a 
00000b4b 654672616d65 
00000b51 446174614279 
00000b57 445443547970 
00000b5d 6500 
00000b5f 54             3861 	.byte	84
00000b60 0f             3862 	.byte	15
00000b61 08             3863 	.byte	8
00000b62 00000000*      3864 	.word	.LDW_491ba88
                        3865 
                        3866 .LDW_564bf50:
00000b66 28             3867 	.byte	40
00000b67 44656d5f5265   3868 	.strz	"Dem_ReturnGetSizeOfFreezeFrameByDTCType"

                                                                      Page 84
                                                              C:\Users\nhuliyap\AppData\Local\Temp\gh_00002581.s
00000b6d 7475726e4765 
00000b73 7453697a654f 
00000b79 66467265657a 
00000b7f 654672616d65 
00000b85 427944544354 
00000b8b 79706500 
00000b8f 5d             3869 	.byte	93
00000b90 0f             3870 	.byte	15
00000b91 08             3871 	.byte	8
00000b92 00000000*      3872 	.word	.LDW_491ba88
                        3873 
                        3874 .LDW_564e368:
00000b96 28             3875 	.byte	40
00000b97 44656d5f5265   3876 	.strz	"Dem_ReturnSetFilterType"
00000b9d 7475726e5365 
00000ba3 7446696c7465 
00000ba9 725479706500 
00000baf 65             3877 	.byte	101
00000bb0 0f             3878 	.byte	15
00000bb1 08             3879 	.byte	8
00000bb2 00000000*      3880 	.word	.LDW_491ba88
                        3881 
                        3882 .LDW_4c9fb78:
00000bb6 28             3883 	.byte	40
00000bb7 44656d5f4454   3884 	.strz	"Dem_DTCSeverityType"
00000bbd 435365766572 
00000bc3 697479547970 
00000bc9 6500 
00000bcb 6d             3885 	.byte	109
00000bcc 0f             3886 	.byte	15
00000bcd 08             3887 	.byte	8
00000bce 00000000*      3888 	.word	.LDW_491ba88
                        3889 
                        3890 .LDW_4c9fd88:
00000bd2 28             3891 	.byte	40
00000bd3 44656d5f4454   3892 	.strz	"Dem_DTCKindType"
00000bd9 434b696e6454 
00000bdf 79706500 
00000be3 c001           3893 	.byte	192,1
00000be5 10             3894 	.byte	16
00000be6 08             3895 	.byte	8
00000be7 00000000*      3896 	.word	.LDW_491ba88
                        3897 
                        3898 .LDW_564d340:
00000beb 28             3899 	.byte	40
00000bec 44656d5f5265   3900 	.strz	"Dem_ReturnDisableDTCRecordUpdateType"
00000bf2 7475726e4469 
00000bf8 7361626c6544 
00000bfe 54435265636f 
00000c04 726455706461 
00000c0a 746554797065 
00000c10 00 
00000c11 c401           3901 	.byte	196,1
00000c13 0f             3902 	.byte	15
00000c14 08             3903 	.byte	8
00000c15 00000000*      3904 	.word	.LDW_491ba88
                        3905 
                        3906 .LDW_515a9b0:
00000c19 28             3907 	.byte	40
00000c1a 44656d5f5472   3908 	.strz	"Dem_TriggerType"
00000c20 696767657254 

                                                                      Page 85
                                                              C:\Users\nhuliyap\AppData\Local\Temp\gh_00002581.s
00000c26 79706500 
00000c2a ca01           3909 	.byte	202,1
00000c2c 0f             3910 	.byte	15
00000c2d 08             3911 	.byte	8
00000c2e 00000000*      3912 	.word	.LDW_491ba88
                        3913 
                        3914 .LDW_564e6d8:
00000c32 28             3915 	.byte	40
00000c33 44656d5f5265   3916 	.strz	"Dem_ReturnGetNextFilteredDTCType"
00000c39 7475726e4765 
00000c3f 744e65787446 
00000c45 696c74657265 
00000c4b 644454435479 
00000c51 706500 
00000c54 d301           3917 	.byte	211,1
00000c56 0f             3918 	.byte	15
00000c57 08             3919 	.byte	8
00000c58 00000000*      3920 	.word	.LDW_491ba88
                        3921 
                        3922 .LDW_56d2bb8:
00000c5c 28             3923 	.byte	40
00000c5d 44656d5f4474   3924 	.strz	"Dem_DtcStateType"
00000c63 635374617465 
00000c69 5479706500 
00000c6e 0f             3925 	.byte	15
00000c6f 0f             3926 	.byte	15
00000c70 36             3927 	.byte	54
00000c71 00000000*      3928 	.word	.LDW_491ba88
                        3929 
                        3930 .LDW_56d26e8:
00000c75 41             3931 	.byte	65
00000c76 0e             3932 	.byte	14
00000c77 01             3933 	.byte	1
00000c78 37             3934 	.byte	55
00000c79 0c             3935 	.byte	12
00000c7a 01             3936 	.byte	1
                        3937 
                        3938 .LDW_55a2458:
00000c7b 23             3939 	.byte	35
00000c7c 447463436f64   3940 	.strz	"DtcCode"
00000c82 6500 
00000c84 0f             3941 	.byte	15
00000c85 12             3942 	.byte	18
00000c86 37             3943 	.byte	55
00000c87 00000000*      3944 	.word	.LDW_4c9fb20
00000c8b 0223           3945 	.byte	2,35
00000c8d 00             3946 	.byte	0
00000c8e 01             3947 	.byte	1
                        3948 
                        3949 .LDW_55a2530:
00000c8f 23             3950 	.byte	35
00000c90 536576657269   3951 	.strz	"Severity"
00000c96 747900 
00000c99 10             3952 	.byte	16
00000c9a 16             3953 	.byte	22
00000c9b 37             3954 	.byte	55
00000c9c 00000000*      3955 	.word	.LDW_4c9fb78
00000ca0 0223           3956 	.byte	2,35
00000ca2 04             3957 	.byte	4
00000ca3 01             3958 	.byte	1
                        3959 

                                                                      Page 86
                                                              C:\Users\nhuliyap\AppData\Local\Temp\gh_00002581.s
                        3960 .LDW_55a29b0:
00000ca4 23             3961 	.byte	35
00000ca5 46756e635f55   3962 	.strz	"Func_Unit"
00000cab 6e697400 
00000caf 11             3963 	.byte	17
00000cb0 08             3964 	.byte	8
00000cb1 37             3965 	.byte	55
00000cb2 00000000*      3966 	.word	.LDW_491ba88
00000cb6 0223           3967 	.byte	2,35
00000cb8 05             3968 	.byte	5
00000cb9 01             3969 	.byte	1
                        3970 
                        3971 .LDW_55a2410:
00000cba 23             3972 	.byte	35
00000cbb 4b696e6400     3973 	.strz	"Kind"
00000cc0 12             3974 	.byte	18
00000cc1 12             3975 	.byte	18
00000cc2 37             3976 	.byte	55
00000cc3 00000000*      3977 	.word	.LDW_4c9fd88
00000cc7 0223           3978 	.byte	2,35
00000cc9 06             3979 	.byte	6
00000cca 01             3980 	.byte	1
                        3981 
                        3982 .LDW_55a27b8:
00000ccb 23             3983 	.byte	35
00000ccc 447463436f64   3984 	.strz	"DtcCode_Is_Index"
00000cd2 655f49735f49 
00000cd8 6e64657800 
00000cdd 13             3985 	.byte	19
00000cde 0a             3986 	.byte	10
00000cdf 37             3987 	.byte	55
00000ce0 00000000*      3988 	.word	.LDW_4bdd788
00000ce4 0223           3989 	.byte	2,35
00000ce6 07             3990 	.byte	7
00000ce7 01             3991 	.byte	1
                        3992 
                        3993 .LDW_55a28d8:
00000ce8 23             3994 	.byte	35
00000ce9 4e765f53746f   3995 	.strz	"Nv_Storage"
00000cef 7261676500 
00000cf4 14             3996 	.byte	20
00000cf5 0a             3997 	.byte	10
00000cf6 37             3998 	.byte	55
00000cf7 00000000*      3999 	.word	.LDW_4bdd788
00000cfb 0223           4000 	.byte	2,35
00000cfd 08             4001 	.byte	8
00000cfe 01             4002 	.byte	1
                        4003 
00000cff 00             4004 	.byte	0
                        4005 
                        4006 .LDW_56d2c68:
00000d00 28             4007 	.byte	40
00000d01 44656d5f4366   4008 	.strz	"Dem_Cfg_DtcType"
00000d07 675f44746354 
00000d0d 79706500 
00000d11 15             4009 	.byte	21
00000d12 02             4010 	.byte	2
00000d13 37             4011 	.byte	55
00000d14 00000000*      4012 	.word	.LDW_56d26e8
                        4013 
                        4014 .LDW_56d2cc0:

                                                                      Page 87
                                                              C:\Users\nhuliyap\AppData\Local\Temp\gh_00002581.s
00000d18 28             4015 	.byte	40
00000d19 44656d5f4576   4016 	.strz	"Dem_EvMemOccurrenceCounterType"
00000d1f 4d656d4f6363 
00000d25 757272656e63 
00000d2b 65436f756e74 
00000d31 657254797065 
00000d37 00 
00000d38 42             4017 	.byte	66
00000d39 15             4018 	.byte	21
00000d3a 32             4019 	.byte	50
00000d3b 00000000*      4020 	.word	.LDW_491ba88
                        4021 
                        4022 .LDW_55ece58:
00000d3f 28             4023 	.byte	40
00000d40 44656d5f4576   4024 	.strz	"Dem_EvMemAgingCounterType"
00000d46 4d656d416769 
00000d4c 6e67436f756e 
00000d52 746572547970 
00000d58 6500 
00000d5a 4a             4025 	.byte	74
00000d5b 15             4026 	.byte	21
00000d5c 32             4027 	.byte	50
00000d5d 00000000*      4028 	.word	.LDW_491ba88
                        4029 
                        4030 .LDW_56d3088:
00000d61 41             4031 	.byte	65
00000d62 6b             4032 	.byte	107
00000d63 03             4033 	.byte	3
00000d64 32             4034 	.byte	50
00000d65 04             4035 	.byte	4
00000d66 01             4036 	.byte	1
                        4037 
                        4038 .LDW_55a22a8:
00000d67 23             4039 	.byte	35
00000d68 537461747573   4040 	.strz	"Status"
00000d6e 00 
00000d6f 6c             4041 	.byte	108
00000d70 14             4042 	.byte	20
00000d71 32             4043 	.byte	50
00000d72 00000000*      4044 	.word	.LDW_4bdde38
00000d76 0223           4045 	.byte	2,35
00000d78 00             4046 	.byte	0
00000d79 01             4047 	.byte	1
                        4048 
                        4049 .LDW_55a2920:
00000d7a 23             4050 	.byte	35
00000d7b 4576656e7449   4051 	.strz	"EventId"
00000d81 6400 
00000d83 6d             4052 	.byte	109
00000d84 14             4053 	.byte	20
00000d85 32             4054 	.byte	50
00000d86 00000000*      4055 	.word	.LDW_4bdde38
00000d8a 0223           4056 	.byte	2,35
00000d8c 02             4057 	.byte	2
00000d8d 01             4058 	.byte	1
                        4059 
00000d8e 00             4060 	.byte	0
                        4061 
                        4062 .LDW_56d2848:
00000d8f 43             4063 	.byte	67
00000d90 69             4064 	.byte	105

                                                                      Page 88
                                                              C:\Users\nhuliyap\AppData\Local\Temp\gh_00002581.s
00000d91 01             4065 	.byte	1
00000d92 32             4066 	.byte	50
00000d93 04             4067 	.byte	4
00000d94 01             4068 	.byte	1
                        4069 
                        4070 	.section	.debug_abbrev
000000b2 43             4071 	.byte	67
000000b3 17             4072 	.byte	23
000000b4 01             4073 	.byte	1
000000b5 3b0f           4074 	.byte	59,15
000000b7 390f           4075 	.byte	57,15
000000b9 3a0f           4076 	.byte	58,15
000000bb 0b0f           4077 	.byte	11,15
000000bd 320b           4078 	.byte	50,11
000000bf 0000           4079 	.byte	0,0
                        4080 
                        4081 	.section	.debug_info
                        4082 .LDW_55a2800:
00000d95 23             4083 	.byte	35
00000d96 4461746100     4084 	.strz	"Data"
00000d9b 6e             4085 	.byte	110
00000d9c 04             4086 	.byte	4
00000d9d 32             4087 	.byte	50
00000d9e 00000000*      4088 	.word	.LDW_56d3088
00000da2 0223           4089 	.byte	2,35
00000da4 00             4090 	.byte	0
00000da5 01             4091 	.byte	1
                        4092 
00000da6 00             4093 	.byte	0
                        4094 
                        4095 .LDW_56d28a0:
00000da7 28             4096 	.byte	40
00000da8 44656d5f4576   4097 	.strz	"Dem_EvMemHdrType"
00000dae 4d656d486472 
00000db4 5479706500 
00000db9 72             4098 	.byte	114
00000dba 02             4099 	.byte	2
00000dbb 32             4100 	.byte	50
00000dbc 00000000*      4101 	.word	.LDW_56d2848
                        4102 
                        4103 .LDW_552b658:
00000dc0 41             4104 	.byte	65
00000dc1 74             4105 	.byte	116
00000dc2 0f             4106 	.byte	15
00000dc3 32             4107 	.byte	50
00000dc4 30             4108 	.byte	48
00000dc5 01             4109 	.byte	1
                        4110 
                        4111 .LDW_55a2a40:
00000dc6 23             4112 	.byte	35
00000dc7 48647200       4113 	.strz	"Hdr"
00000dcb 75             4114 	.byte	117
00000dcc 2e             4115 	.byte	46
00000dcd 32             4116 	.byte	50
00000dce 00000000*      4117 	.word	.LDW_56d28a0
00000dd2 0223           4118 	.byte	2,35
00000dd4 00             4119 	.byte	0
00000dd5 01             4120 	.byte	1
                        4121 
                        4122 .LDW_55a29f8:
00000dd6 23             4123 	.byte	35

                                                                      Page 89
                                                              C:\Users\nhuliyap\AppData\Local\Temp\gh_00002581.s
00000dd7 4461746100     4124 	.strz	"Data"
00000ddc 8a01           4125 	.byte	138,1
00000dde 2e             4126 	.byte	46
00000ddf 32             4127 	.byte	50
00000de0 00000000*      4128 	.word	.LDW_494d7a0
00000de4 0223           4129 	.byte	2,35
00000de6 04             4130 	.byte	4
00000de7 01             4131 	.byte	1
                        4132 
                        4133 .LDW_55a2968:
00000de8 23             4134 	.byte	35
00000de9 4661696c7572   4135 	.strz	"FailureCounter"
00000def 65436f756e74 
00000df5 657200 
00000df8 8b01           4136 	.byte	139,1
00000dfa 2e             4137 	.byte	46
00000dfb 32             4138 	.byte	50
00000dfc 00000000*      4139 	.word	.LDW_491ba88
00000e00 0223           4140 	.byte	2,35
00000e02 24             4141 	.byte	36
00000e03 01             4142 	.byte	1
                        4143 
                        4144 .LDW_55a2848:
00000e04 23             4145 	.byte	35
00000e05 467265657a65   4146 	.strz	"FreezeFrameCounter"
00000e0b 4672616d6543 
00000e11 6f756e746572 
00000e17 00 
00000e18 8e01           4147 	.byte	142,1
00000e1a 2e             4148 	.byte	46
00000e1b 32             4149 	.byte	50
00000e1c 00000000*      4150 	.word	.LDW_491ba88
00000e20 0223           4151 	.byte	2,35
00000e22 25             4152 	.byte	37
00000e23 01             4153 	.byte	1
                        4154 
                        4155 .LDW_55a24a0:
00000e24 23             4156 	.byte	35
00000e25 4167696e6743   4157 	.strz	"AgingCounter"
00000e2b 6f756e746572 
00000e31 00 
00000e32 9d01           4158 	.byte	157,1
00000e34 2e             4159 	.byte	46
00000e35 32             4160 	.byte	50
00000e36 00000000*      4161 	.word	.LDW_55ece58
00000e3a 0223           4162 	.byte	2,35
00000e3c 26             4163 	.byte	38
00000e3d 01             4164 	.byte	1
                        4165 
                        4166 .LDW_55a2578:
00000e3e 23             4167 	.byte	35
00000e3f 4f6363757272   4168 	.strz	"OccurrenceCounter"
00000e45 656e6365436f 
00000e4b 756e74657200 
00000e51 a301           4169 	.byte	163,1
00000e53 2e             4170 	.byte	46
00000e54 32             4171 	.byte	50
00000e55 00000000*      4172 	.word	.LDW_56d2cc0
00000e59 0223           4173 	.byte	2,35
00000e5b 27             4174 	.byte	39
00000e5c 01             4175 	.byte	1

                                                                      Page 90
                                                              C:\Users\nhuliyap\AppData\Local\Temp\gh_00002581.s
                        4176 
                        4177 .LDW_55a25c0:
00000e5d 23             4178 	.byte	35
00000e5e 547269676765   4179 	.strz	"Trigger"
00000e64 7200 
00000e66 a601           4180 	.byte	166,1
00000e68 2e             4181 	.byte	46
00000e69 32             4182 	.byte	50
00000e6a 00000000*      4183 	.word	.LDW_515a9b0
00000e6e 0223           4184 	.byte	2,35
00000e70 28             4185 	.byte	40
00000e71 01             4186 	.byte	1
                        4187 
                        4188 .LDW_55a2608:
00000e72 23             4189 	.byte	35
00000e73 54696d654964   4190 	.strz	"TimeId"
00000e79 00 
00000e7a a901           4191 	.byte	169,1
00000e7c 2e             4192 	.byte	46
00000e7d 32             4193 	.byte	50
00000e7e 00000000*      4194 	.word	.LDW_4bde518
00000e82 0223           4195 	.byte	2,35
00000e84 2c             4196 	.byte	44
00000e85 01             4197 	.byte	1
                        4198 
00000e86 00             4199 	.byte	0
                        4200 
                        4201 .LDW_5511340:
00000e87 28             4202 	.byte	40
00000e88 44656d5f4576   4203 	.strz	"Dem_EvMemEventMemoryType"
00000e8e 4d656d457665 
00000e94 6e744d656d6f 
00000e9a 727954797065 
00000ea0 00 
00000ea1 b601           4204 	.byte	182,1
00000ea3 02             4205 	.byte	2
00000ea4 32             4206 	.byte	50
00000ea5 00000000*      4207 	.word	.LDW_552b658
                        4208 
                        4209 .LDW_56d3c38:
00000ea9 41             4210 	.byte	65
00000eaa 09             4211 	.byte	9
00000eab 0f             4212 	.byte	15
00000eac 38             4213 	.byte	56
00000ead 38             4214 	.byte	56
00000eae 01             4215 	.byte	1
                        4216 
                        4217 .LDW_55a2de8:
00000eaf 23             4218 	.byte	35
00000eb0 447463496400   4219 	.strz	"DtcId"
00000eb6 0b             4220 	.byte	11
00000eb7 1c             4221 	.byte	28
00000eb8 38             4222 	.byte	56
00000eb9 00000000*      4223 	.word	.LDW_4ca01a8
00000ebd 0223           4224 	.byte	2,35
00000ebf 00             4225 	.byte	0
00000ec0 01             4226 	.byte	1
                        4227 
                        4228 .LDW_55a2e78:
00000ec1 23             4229 	.byte	35
00000ec2 4454434f7269   4230 	.strz	"DTCOrigin"

                                                                      Page 91
                                                              C:\Users\nhuliyap\AppData\Local\Temp\gh_00002581.s
00000ec8 67696e00 
00000ecc 0c             4231 	.byte	12
00000ecd 1c             4232 	.byte	28
00000ece 38             4233 	.byte	56
00000ecf 00000000*      4234 	.word	.LDW_4cd1348
00000ed3 0223           4235 	.byte	2,35
00000ed5 02             4236 	.byte	2
00000ed6 01             4237 	.byte	1
                        4238 
                        4239 .LDW_55a2ba8:
00000ed7 23             4240 	.byte	35
00000ed8 526571436f75   4241 	.strz	"ReqCounter"
00000ede 6e74657200 
00000ee3 0d             4242 	.byte	13
00000ee4 1c             4243 	.byte	28
00000ee5 38             4244 	.byte	56
00000ee6 00000000*      4245 	.word	.LDW_491ba88
00000eea 0223           4246 	.byte	2,35
00000eec 03             4247 	.byte	3
00000eed 01             4248 	.byte	1
                        4249 
                        4250 .LDW_55a2b60:
00000eee 23             4251 	.byte	35
00000eef 44656d436f75   4252 	.strz	"DemCounter"
00000ef5 6e74657200 
00000efa 0f             4253 	.byte	15
00000efb 1c             4254 	.byte	28
00000efc 38             4255 	.byte	56
00000efd 00000000*      4256 	.word	.LDW_491ba88
00000f01 0223           4257 	.byte	2,35
00000f03 04             4258 	.byte	4
00000f04 01             4259 	.byte	1
                        4260 
                        4261 .LDW_55a2bf0:
00000f05 23             4262 	.byte	35
00000f06 497356616c69   4263 	.strz	"IsValid"
00000f0c 6400 
00000f0e 10             4264 	.byte	16
00000f0f 1c             4265 	.byte	28
00000f10 38             4266 	.byte	56
00000f11 00000000*      4267 	.word	.LDW_4bdd788
00000f15 0223           4268 	.byte	2,35
00000f17 05             4269 	.byte	5
00000f18 01             4270 	.byte	1
                        4271 
                        4272 .LDW_55a2e30:
00000f19 23             4273 	.byte	35
00000f1a 4576656e744d   4274 	.strz	"EventMemory"
00000f20 656d6f727900 
00000f26 11             4275 	.byte	17
00000f27 1c             4276 	.byte	28
00000f28 38             4277 	.byte	56
00000f29 00000000*      4278 	.word	.LDW_5511340
00000f2d 0223           4279 	.byte	2,35
00000f2f 08             4280 	.byte	8
00000f30 01             4281 	.byte	1
                        4282 
00000f31 00             4283 	.byte	0
                        4284 
                        4285 .LDW_56d3608:
00000f32 28             4286 	.byte	40

                                                                      Page 92
                                                              C:\Users\nhuliyap\AppData\Local\Temp\gh_00002581.s
00000f33 44656d5f4576   4287 	.strz	"Dem_EvMemDTCRecordType"
00000f39 4d656d445443 
00000f3f 5265636f7264 
00000f45 5479706500 
00000f4a 12             4288 	.byte	18
00000f4b 02             4289 	.byte	2
00000f4c 38             4290 	.byte	56
00000f4d 00000000*      4291 	.word	.LDW_56d3c38
                        4292 
                        4293 .LDW_56d3be0:
00000f51 28             4294 	.byte	40
00000f52 44656d5f4f70   4295 	.strz	"Dem_OpMoStateType"
00000f58 4d6f53746174 
00000f5e 655479706500 
00000f64 0a             4296 	.byte	10
00000f65 0f             4297 	.byte	15
00000f66 42             4298 	.byte	66
00000f67 00000000*      4299 	.word	.LDW_491ba88
                        4300 
                        4301 .LDW_5703098:
00000f6b 28             4302 	.byte	40
00000f6c 44656d5f4d61   4303 	.strz	"Dem_MapDtcIdToEventIdType"
00000f72 704474634964 
00000f78 546f4576656e 
00000f7e 744964547970 
00000f84 6500 
00000f86 68             4304 	.byte	104
00000f87 19             4305 	.byte	25
00000f88 4c             4306 	.byte	76
00000f89 00000000*      4307 	.word	.LDW_4d53ca8
                        4308 
                        4309 .LDW_5703568:
00000f8d 41             4310 	.byte	65
00000f8e 1b             4311 	.byte	27
00000f8f 01             4312 	.byte	1
00000f90 64             4313 	.byte	100
00000f91 04             4314 	.byte	4
00000f92 01             4315 	.byte	1
                        4316 
                        4317 .LDW_5708658:
00000f93 23             4318 	.byte	35
00000f94 646174614461   4319 	.strz	"dataDataContainer_1"
00000f9a 7461436f6e74 
00000fa0 61696e65725f 
00000fa6 3100 
00000fa8 1c             4320 	.byte	28
00000fa9 09             4321 	.byte	9
00000faa 64             4322 	.byte	100
00000fab 00000000*      4323 	.word	.LDW_4bde518
00000faf 0223           4324 	.byte	2,35
00000fb1 00             4325 	.byte	0
00000fb2 01             4326 	.byte	1
                        4327 
00000fb3 00             4328 	.byte	0
                        4329 
                        4330 .LDW_5703778:
00000fb4 28             4331 	.byte	40
00000fb5 44656d5f4576   4332 	.strz	"Dem_EvtParam_32Type"
00000fbb 74506172616d 
00000fc1 5f3332547970 
00000fc7 6500 

                                                                      Page 93
                                                              C:\Users\nhuliyap\AppData\Local\Temp\gh_00002581.s
00000fc9 1d             4333 	.byte	29
00000fca 02             4334 	.byte	2
00000fcb 64             4335 	.byte	100
00000fcc 00000000*      4336 	.word	.LDW_5703568
                        4337 
                        4338 .LDW_57047a0:
00000fd0 41             4339 	.byte	65
00000fd1 15             4340 	.byte	21
00000fd2 0f             4341 	.byte	15
00000fd3 39             4342 	.byte	57
00000fd4 02             4343 	.byte	2
00000fd5 01             4344 	.byte	1
                        4345 
                        4346 .LDW_5708a90:
00000fd6 23             4347 	.byte	35
00000fd7 65764d656d49   4348 	.strz	"evMemId"
00000fdd 6400 
00000fdf 16             4349 	.byte	22
00000fe0 0a             4350 	.byte	10
00000fe1 39             4351 	.byte	57
00000fe2 00000000*      4352 	.word	.LDW_491ba88
00000fe6 0223           4353 	.byte	2,35
00000fe8 00             4354 	.byte	0
00000fe9 01             4355 	.byte	1
                        4356 
                        4357 .LDW_5708fa0:
00000fea 23             4358 	.byte	35
00000feb 6f726967696e   4359 	.strz	"originSupported"
00000ff1 537570706f72 
00000ff7 74656400 
00000ffb 17             4360 	.byte	23
00000ffc 0c             4361 	.byte	12
00000ffd 39             4362 	.byte	57
00000ffe 00000000*      4363 	.word	.LDW_4bdd788
00001002 0223           4364 	.byte	2,35
00001004 01             4365 	.byte	1
00001005 01             4366 	.byte	1
                        4367 
00001006 00             4368 	.byte	0
                        4369 
                        4370 .LDW_5704010:
00001007 28             4371 	.byte	40
00001008 44656d5f4576   4372 	.strz	"Dem_EvMemMapOrigin2IdType"
0000100e 4d656d4d6170 
00001014 4f726967696e 
0000101a 324964547970 
00001020 6500 
00001022 18             4373 	.byte	24
00001023 02             4374 	.byte	2
00001024 39             4375 	.byte	57
00001025 00000000*      4376 	.word	.LDW_57047a0
                        4377 
                        4378 .LDW_5704bc0:
00001029 41             4379 	.byte	65
0000102a 19             4380 	.byte	25
0000102b 0f             4381 	.byte	15
0000102c 8101           4382 	.byte	129,1
0000102e 01             4383 	.byte	1
0000102f 01             4384 	.byte	1
                        4385 
                        4386 .LDW_57093d8:

                                                                      Page 94
                                                              C:\Users\nhuliyap\AppData\Local\Temp\gh_00002581.s
00001030 23             4387 	.byte	35
00001031 737461746500   4388 	.strz	"state"
00001037 1a             4389 	.byte	26
00001038 15             4390 	.byte	21
00001039 8101           4391 	.byte	129,1
0000103b 00000000*      4392 	.word	.LDW_56d2bb8
0000103f 0223           4393 	.byte	2,35
00001041 00             4394 	.byte	0
00001042 01             4395 	.byte	1
                        4396 
00001043 00             4397 	.byte	0
                        4398 
                        4399 .LDW_5704fe0:
00001044 28             4400 	.byte	40
00001045 44656d5f4474   4401 	.strz	"Dem_DtcState"
0000104b 635374617465 
00001051 00 
00001052 1b             4402 	.byte	27
00001053 02             4403 	.byte	2
00001054 8101           4404 	.byte	129,1
00001056 00000000*      4405 	.word	.LDW_5704bc0
                        4406 
                        4407 .LDW_5704a08:
0000105a 05             4408 	.byte	5
0000105b 44656d5f4366   4409 	.strz	"Dem_Cfg_Dtc"
00001061 675f44746300 
00001067 19             4410 	.byte	25
00001068 1e             4411 	.byte	30
00001069 37             4412 	.byte	55
0000106a 00000000*      4413 	.word	.LDW_570e938
0000106e 01             4414 	.byte	1
0000106f 01             4415 	.byte	1
                        4416 
                        4417 	.section	.debug_abbrev
000000c1 05             4418 	.byte	5
000000c2 34             4419 	.byte	52
000000c3 00             4420 	.byte	0
000000c4 0308           4421 	.byte	3,8
000000c6 3b0f           4422 	.byte	59,15
000000c8 390f           4423 	.byte	57,15
000000ca 3a0f           4424 	.byte	58,15
000000cc 4910           4425 	.byte	73,16
000000ce 3f0c           4426 	.byte	63,12
000000d0 3c0c           4427 	.byte	60,12
000000d2 0000           4428 	.byte	0,0
                        4429 
                        4430 	.section	.debug_info
                        4431 .LDW_57048a8:
00001070 05             4432 	.byte	5
00001071 44656d5f4f70   4433 	.strz	"Dem_OpMoState"
00001077 4d6f53746174 
0000107d 6500 
0000107f 1a             4434 	.byte	26
00001080 1a             4435 	.byte	26
00001081 42             4436 	.byte	66
00001082 00000000*      4437 	.word	.LDW_56d3be0
00001086 01             4438 	.byte	1
00001087 01             4439 	.byte	1
                        4440 
                        4441 .LDW_5724048:
00001088 05             4442 	.byte	5

                                                                      Page 95
                                                              C:\Users\nhuliyap\AppData\Local\Temp\gh_00002581.s
00001089 44656d5f4d61   4443 	.strz	"Dem_MapDtcIdToEventId"
0000108f 704474634964 
00001095 546f4576656e 
0000109b 74496400 
0000109f 75             4444 	.byte	117
000010a0 29             4445 	.byte	41
000010a1 4c             4446 	.byte	76
000010a2 00000000*      4447 	.word	.LDW_570ecf0
000010a6 01             4448 	.byte	1
000010a7 01             4449 	.byte	1
                        4450 
                        4451 .LDW_5724b48:
000010a8 05             4452 	.byte	5
000010a9 44656d5f4d61   4453 	.strz	"Dem_MapEventIdToDtcId"
000010af 704576656e74 
000010b5 4964546f4474 
000010bb 63496400 
000010bf 76             4454 	.byte	118
000010c0 29             4455 	.byte	41
000010c1 4c             4456 	.byte	76
000010c2 00000000*      4457 	.word	.LDW_570ee88
000010c6 01             4458 	.byte	1
000010c7 01             4459 	.byte	1
                        4460 
                        4461 .LDW_57258b0:
000010c8 05             4462 	.byte	5
000010c9 44656d5f4576   4463 	.strz	"Dem_EvtParam_32"
000010cf 74506172616d 
000010d5 5f333200 
000010d9 20             4464 	.byte	32
000010da 22             4465 	.byte	34
000010db 64             4466 	.byte	100
000010dc 00000000*      4467 	.word	.LDW_5727fc8
000010e0 01             4468 	.byte	1
000010e1 01             4469 	.byte	1
                        4470 
                        4471 .LDW_57264b8:
000010e2 05             4472 	.byte	5
000010e3 44656d5f4576   4473 	.strz	"Dem_EvMemEventMemory"
000010e9 4d656d457665 
000010ef 6e744d656d6f 
000010f5 727900 
000010f8 42             4474 	.byte	66
000010f9 01             4475 	.byte	1
000010fa 3c             4476 	.byte	60
000010fb 00000000*      4477 	.word	.LDW_57277d0
000010ff 01             4478 	.byte	1
00001100 01             4479 	.byte	1
                        4480 
                        4481 .LDW_5726250:
00001101 05             4482 	.byte	5
00001102 44656d5f4576   4483 	.strz	"Dem_EvMemMapOrigin2Id"
00001108 4d656d4d6170 
0000110e 4f726967696e 
00001114 32496400 
00001118 1c             4484 	.byte	28
00001119 01             4485 	.byte	1
0000111a 39             4486 	.byte	57
0000111b 00000000*      4487 	.word	.LDW_5727c98
0000111f 01             4488 	.byte	1
00001120 01             4489 	.byte	1

                                                                      Page 96
                                                              C:\Users\nhuliyap\AppData\Local\Temp\gh_00002581.s
                        4490 
                        4491 .LDW_5726358:
00001121 05             4492 	.byte	5
00001122 44656d5f416c   4493 	.strz	"Dem_AllDTCsState"
00001128 6c4454437353 
0000112e 7461746500 
00001133 4b             4494 	.byte	75
00001134 05             4495 	.byte	5
00001135 8101           4496 	.byte	129,1
00001137 00000000*      4497 	.word	.LDW_5728160
0000113b 01             4498 	.byte	1
0000113c 01             4499 	.byte	1
                        4500 
                        4501 .LDW_57265c0:
0000113d 04             4502 	.byte	4
0000113e 44656d447463   4503 	.strz	"DemDtcIdCopy"
00001144 4964436f7079 
0000114a 00 
0000114b 11             4504 	.byte	17
0000114c 16             4505 	.byte	22
0000114d 01             4506 	.byte	1
0000114e 00000000*      4507 	.word	.LDW_4ca01a8
00001152 00             4508 	.byte	0
00001153 00             4509 	.byte	0
00001154 0503           4510 	.byte	5,3
00001156 00000000*      4511 	.word	_DemDtcIdCopy..C.3A.5C_ECU2.5CECU_Rivian_A1.5CTarget.5Crepo_projects.5CpRealEcu.5CcR_R2023.2E09.2E15.5Cmake.5Coutput.5Cobjects.5CDem_EvMemApi.
                        4512 
                        4513 	.section	.debug_abbrev
000000d4 04             4514 	.byte	4
000000d5 34             4515 	.byte	52
000000d6 00             4516 	.byte	0
000000d7 0308           4517 	.byte	3,8
000000d9 3b0f           4518 	.byte	59,15
000000db 390f           4519 	.byte	57,15
000000dd 3a0f           4520 	.byte	58,15
000000df 4910           4521 	.byte	73,16
000000e1 3f0c           4522 	.byte	63,12
000000e3 3c0c           4523 	.byte	60,12
000000e5 020a           4524 	.byte	2,10
000000e7 0000           4525 	.byte	0,0
                        4526 
                        4527 	.section	.debug_info
                        4528 .LDW_57266c8:
0000115a 04             4529 	.byte	4
0000115b 44656d447463   4530 	.strz	"DemDtcCodeCopy"
00001161 436f6465436f 
00001167 707900 
0000116a 12             4531 	.byte	18
0000116b 0f             4532 	.byte	15
0000116c 01             4533 	.byte	1
0000116d 00000000*      4534 	.word	.LDW_4bde518
00001171 00             4535 	.byte	0
00001172 00             4536 	.byte	0
00001173 0503           4537 	.byte	5,3
00001175 00000000*      4538 	.word	_DemDtcCodeCopy..C.3A.5C_ECU2.5CECU_Rivian_A1.5CTarget.5Crepo_projects.5CpRealEcu.5CcR_R2023.2E09.2E15.5Cmake.5Coutput.5Cobjects.5CDem_EvMemApi.
                        4539 
                        4540 .LDW_5726618:
00001179 04             4541 	.byte	4
0000117a 44656d5f4576   4542 	.strz	"Dem_EvMemDTCRecord"
00001180 4d656d445443 
00001186 5265636f7264 

                                                                      Page 97
                                                              C:\Users\nhuliyap\AppData\Local\Temp\gh_00002581.s
0000118c 00 
0000118d 3b             4543 	.byte	59
0000118e 18             4544 	.byte	24
0000118f 01             4545 	.byte	1
00001190 00000000*      4546 	.word	.LDW_56d3608
00001194 01             4547 	.byte	1
00001195 00             4548 	.byte	0
00001196 0503           4549 	.byte	5,3
00001198 00000000*      4550 	.word	_Dem_EvMemDTCRecord
                        4551 
                        4552 .LDW_57267d0:
0000119c 04             4553 	.byte	4
0000119d 44656d5f4576   4554 	.strz	"Dem_EvMemFilteredRecordLocId"
000011a3 4d656d46696c 
000011a9 746572656452 
000011af 65636f72644c 
000011b5 6f63496400 
000011ba 9f03           4555 	.byte	159,3
000011bc 15             4556 	.byte	21
000011bd 01             4557 	.byte	1
000011be 00000000*      4558 	.word	.LDW_4d535c8
000011c2 00             4559 	.byte	0
000011c3 00             4560 	.byte	0
000011c4 0503           4561 	.byte	5,3
000011c6 00000000*      4562 	.word	_Dem_EvMemFilteredRecordLocId..C.3A.5C_ECU2.5CECU_Rivian_A1.5CTarget.5Crepo_projects.5CpRealEcu.5CcR_R2023.2E09.2E15.5Cmake.5Coutput.5Cobjects.5CDem_EvMemApi.
                        4563 
                        4564 .LDW_5726988:
000011ca 04             4565 	.byte	4
000011cb 44656d5f4576   4566 	.strz	"Dem_EvMemFilteredRecordFreezeFrameId"
000011d1 4d656d46696c 
000011d7 746572656452 
000011dd 65636f726446 
000011e3 7265657a6546 
000011e9 72616d654964 
000011ef 00 
000011f0 a003           4567 	.byte	160,3
000011f2 15             4568 	.byte	21
000011f3 01             4569 	.byte	1
000011f4 00000000*      4570 	.word	.LDW_4d535c8
000011f8 00             4571 	.byte	0
000011f9 00             4572 	.byte	0
000011fa 0503           4573 	.byte	5,3
000011fc 00000000*      4574 	.word	_Dem_EvMemFilteredRecordFreezeFrameId..C.3A.5C_ECU2.5CECU_Rivian_A1.5CTarget.5Crepo_projects.5CpRealEcu.5CcR_R2023.2E09.2E15.5Cmake.5Coutput.5Cobjects.5CDem_EvMemApi.
                        4575 
                        4576 .LDW_5663308:
00001200 15             4577 	.byte	21
00001201 5f5f444900     4578 	.strz	"__DI"
00001206 18             4579 	.byte	24
00001207 06             4580 	.byte	6
00001208 48             4581 	.byte	72
00001209 01             4582 	.byte	1
0000120a 00             4583 	.byte	0
0000120b 01             4584 	.byte	1
0000120c 01             4585 	.byte	1
0000120d 00             4586 	.byte	0
0000120e 01             4587 	.byte	1
                        4588 
                        4589 	.section	.debug_abbrev
000000e9 15             4590 	.byte	21
000000ea 2e             4591 	.byte	46
000000eb 01             4592 	.byte	1

                                                                      Page 98
                                                              C:\Users\nhuliyap\AppData\Local\Temp\gh_00002581.s
000000ec 0308           4593 	.byte	3,8
000000ee 3b0f           4594 	.byte	59,15
000000f0 390f           4595 	.byte	57,15
000000f2 3a0f           4596 	.byte	58,15
000000f4 3c0c           4597 	.byte	60,12
000000f6 200b           4598 	.byte	32,11
000000f8 3f0c           4599 	.byte	63,12
000000fa 320b           4600 	.byte	50,11
000000fc 4c0b           4601 	.byte	76,11
000000fe 270c           4602 	.byte	39,12
00000100 0000           4603 	.byte	0,0
                        4604 
                        4605 	.section	.debug_info
0000120f 00             4606 	.byte	0
                        4607 
                        4608 .LDW_5662858:
00001210 15             4609 	.byte	21
00001211 5f5f454900     4610 	.strz	"__EI"
00001216 19             4611 	.byte	25
00001217 06             4612 	.byte	6
00001218 48             4613 	.byte	72
00001219 01             4614 	.byte	1
0000121a 00             4615 	.byte	0
0000121b 01             4616 	.byte	1
0000121c 01             4617 	.byte	1
0000121d 00             4618 	.byte	0
0000121e 01             4619 	.byte	1
                        4620 
0000121f 00             4621 	.byte	0
                        4622 
                        4623 .LDW_4948890:
00001220 16             4624 	.byte	22
00001221 7262615f4469   4625 	.strz	"rba_DiagLib_Bit8GetSingleBit"
00001227 61674c69625f 
0000122d 426974384765 
00001233 7453696e676c 
00001239 6542697400 
0000123e 2e             4626 	.byte	46
0000123f 14             4627 	.byte	20
00001240 18             4628 	.byte	24
00001241 00000000*      4629 	.word	.LDW_491ba88
00001245 00             4630 	.byte	0
00001246 03             4631 	.byte	3
00001247 00             4632 	.byte	0
00001248 01             4633 	.byte	1
00001249 00             4634 	.byte	0
0000124a 01             4635 	.byte	1
                        4636 
                        4637 	.section	.debug_abbrev
00000102 16             4638 	.byte	22
00000103 2e             4639 	.byte	46
00000104 01             4640 	.byte	1
00000105 0308           4641 	.byte	3,8
00000107 3b0f           4642 	.byte	59,15
00000109 390f           4643 	.byte	57,15
0000010b 3a0f           4644 	.byte	58,15
0000010d 4910           4645 	.byte	73,16
0000010f 3c0c           4646 	.byte	60,12
00000111 200b           4647 	.byte	32,11
00000113 3f0c           4648 	.byte	63,12
00000115 320b           4649 	.byte	50,11

                                                                      Page 99
                                                              C:\Users\nhuliyap\AppData\Local\Temp\gh_00002581.s
00000117 4c0b           4650 	.byte	76,11
00000119 270c           4651 	.byte	39,12
0000011b 0000           4652 	.byte	0,0
                        4653 
                        4654 	.section	.debug_info
                        4655 .LDW_4bdd418:
0000124b 10             4656 	.byte	16
0000124c 76616c756500   4657 	.strz	"value"
00001252 2e             4658 	.byte	46
00001253 37             4659 	.byte	55
00001254 18             4660 	.byte	24
00001255 00000000*      4661 	.word	.LDW_491ba88
00001259 00             4662 	.byte	0
                        4663 
                        4664 	.section	.debug_abbrev
0000011d 10             4665 	.byte	16
0000011e 05             4666 	.byte	5
0000011f 00             4667 	.byte	0
00000120 0308           4668 	.byte	3,8
00000122 3b0f           4669 	.byte	59,15
00000124 390f           4670 	.byte	57,15
00000126 3a0f           4671 	.byte	58,15
00000128 4910           4672 	.byte	73,16
0000012a 4b0c           4673 	.byte	75,12
0000012c 0000           4674 	.byte	0,0
                        4675 
                        4676 	.section	.debug_info
                        4677 .LDW_4bdd470:
0000125a 10             4678 	.byte	16
0000125b 6269745f706f   4679 	.strz	"bit_position"
00001261 736974696f6e 
00001267 00 
00001268 2e             4680 	.byte	46
00001269 44             4681 	.byte	68
0000126a 18             4682 	.byte	24
0000126b 00000000*      4683 	.word	.LDW_491ba88
0000126f 00             4684 	.byte	0
                        4685 
                        4686 .LDW_4bdcb20:
00001270 20             4687 	.byte	32
                        4688 
                        4689 	.section	.debug_abbrev
0000012e 20             4690 	.byte	32
0000012f 0b             4691 	.byte	11
00000130 01             4692 	.byte	1
00000131 0000           4693 	.byte	0,0
                        4694 
                        4695 	.section	.debug_info
00001271 00             4696 	.byte	0
                        4697 
00001272 00             4698 	.byte	0
                        4699 
                        4700 .LDW_4948928:
00001273 16             4701 	.byte	22
00001274 7262615f4469   4702 	.strz	"rba_DiagLib_Bit8IsBitSet"
0000127a 61674c69625f 
00001280 426974384973 
00001286 426974536574 
0000128c 00 
0000128d 32             4703 	.byte	50
0000128e 16             4704 	.byte	22

                                                                      Page 100
                                                              C:\Users\nhuliyap\AppData\Local\Temp\gh_00002581.s
0000128f 18             4705 	.byte	24
00001290 00000000*      4706 	.word	.LDW_4bdd788
00001294 00             4707 	.byte	0
00001295 03             4708 	.byte	3
00001296 00             4709 	.byte	0
00001297 01             4710 	.byte	1
00001298 00             4711 	.byte	0
00001299 01             4712 	.byte	1
                        4713 
                        4714 .LDW_4bdd2b8:
0000129a 10             4715 	.byte	16
0000129b 76616c756500   4716 	.strz	"value"
000012a1 32             4717 	.byte	50
000012a2 35             4718 	.byte	53
000012a3 18             4719 	.byte	24
000012a4 00000000*      4720 	.word	.LDW_491ba88
000012a8 00             4721 	.byte	0
                        4722 
                        4723 .LDW_4bdd310:
000012a9 10             4724 	.byte	16
000012aa 6269745f706f   4725 	.strz	"bit_position"
000012b0 736974696f6e 
000012b6 00 
000012b7 32             4726 	.byte	50
000012b8 42             4727 	.byte	66
000012b9 18             4728 	.byte	24
000012ba 00000000*      4729 	.word	.LDW_491ba88
000012be 00             4730 	.byte	0
                        4731 
                        4732 .LDW_4bdc9a0:
000012bf 20             4733 	.byte	32
                        4734 
000012c0 00             4735 	.byte	0
                        4736 
000012c1 00             4737 	.byte	0
                        4738 
                        4739 .LDW_4c1e358:
000012c2 16             4740 	.byte	22
000012c3 7262615f4469   4741 	.strz	"rba_DiagLib_Bit32GetSingleBit"
000012c9 61674c69625f 
000012cf 426974333247 
000012d5 657453696e67 
000012db 6c6542697400 
000012e1 2e             4742 	.byte	46
000012e2 15             4743 	.byte	21
000012e3 1a             4744 	.byte	26
000012e4 00000000*      4745 	.word	.LDW_4bde518
000012e8 00             4746 	.byte	0
000012e9 03             4747 	.byte	3
000012ea 00             4748 	.byte	0
000012eb 01             4749 	.byte	1
000012ec 00             4750 	.byte	0
000012ed 01             4751 	.byte	1
                        4752 
                        4753 .LDW_4c24d48:
000012ee 10             4754 	.byte	16
000012ef 76616c756500   4755 	.strz	"value"
000012f5 2e             4756 	.byte	46
000012f6 3a             4757 	.byte	58
000012f7 1a             4758 	.byte	26
000012f8 00000000*      4759 	.word	.LDW_4bde518

                                                                      Page 101
                                                              C:\Users\nhuliyap\AppData\Local\Temp\gh_00002581.s
000012fc 00             4760 	.byte	0
                        4761 
                        4762 .LDW_4c25218:
000012fd 10             4763 	.byte	16
000012fe 6269745f706f   4764 	.strz	"bit_position"
00001304 736974696f6e 
0000130a 00 
0000130b 2e             4765 	.byte	46
0000130c 47             4766 	.byte	71
0000130d 1a             4767 	.byte	26
0000130e 00000000*      4768 	.word	.LDW_491ba88
00001312 00             4769 	.byte	0
                        4770 
                        4771 .LDW_4c1f500:
00001313 20             4772 	.byte	32
                        4773 
00001314 00             4774 	.byte	0
                        4775 
00001315 00             4776 	.byte	0
                        4777 
                        4778 .LDW_57295a8:
00001316 16             4779 	.byte	22
00001317 4465745f5265   4780 	.strz	"Det_ReportError"
0000131d 706f72744572 
00001323 726f7200 
00001327 1b             4781 	.byte	27
00001328 10             4782 	.byte	16
00001329 29             4783 	.byte	41
0000132a 00000000*      4784 	.word	.LDW_4ca0888
0000132e 01             4785 	.byte	1
0000132f 00             4786 	.byte	0
00001330 01             4787 	.byte	1
00001331 01             4788 	.byte	1
00001332 00             4789 	.byte	0
00001333 01             4790 	.byte	1
                        4791 
00001334 00             4792 	.byte	0
                        4793 
                        4794 .LDW_4cc5cb8:
00001335 16             4795 	.byte	22
00001336 44656d5f4c69   4796 	.strz	"Dem_LibGetParamUI8"
0000133c 624765745061 
00001342 72616d554938 
00001348 00 
00001349 15             4797 	.byte	21
0000134a 12             4798 	.byte	18
0000134b 27             4799 	.byte	39
0000134c 00000000*      4800 	.word	.LDW_491ba88
00001350 00             4801 	.byte	0
00001351 03             4802 	.byte	3
00001352 00             4803 	.byte	0
00001353 01             4804 	.byte	1
00001354 00             4805 	.byte	0
00001355 01             4806 	.byte	1
                        4807 
                        4808 .LDW_4c9fe90:
00001356 10             4809 	.byte	16
00001357 706172616d65   4810 	.strz	"parameter"
0000135d 74657200 
00001361 15             4811 	.byte	21
00001362 2c             4812 	.byte	44

                                                                      Page 102
                                                              C:\Users\nhuliyap\AppData\Local\Temp\gh_00002581.s
00001363 27             4813 	.byte	39
00001364 00000000*      4814 	.word	.LDW_491ba88
00001368 00             4815 	.byte	0
                        4816 
                        4817 .LDW_4c81f20:
00001369 20             4818 	.byte	32
                        4819 
0000136a 00             4820 	.byte	0
                        4821 
0000136b 00             4822 	.byte	0
                        4823 
                        4824 .LDW_4cc5c20:
0000136c 16             4825 	.byte	22
0000136d 44656d5f4366   4826 	.strz	"Dem_Cfg_Dtc_GetDtcCode"
00001373 675f4474635f 
00001379 476574447463 
0000137f 436f646500 
00001384 3f             4827 	.byte	63
00001385 1e             4828 	.byte	30
00001386 37             4829 	.byte	55
00001387 00000000*      4830 	.word	.LDW_4c9fb20
0000138b 00             4831 	.byte	0
0000138c 03             4832 	.byte	3
0000138d 00             4833 	.byte	0
0000138e 01             4834 	.byte	1
0000138f 00             4835 	.byte	0
00001390 01             4836 	.byte	1
                        4837 
                        4838 .LDW_4c9fde0:
00001391 10             4839 	.byte	16
00001392 696e647800     4840 	.strz	"indx"
00001397 3f             4841 	.byte	63
00001398 43             4842 	.byte	67
00001399 37             4843 	.byte	55
0000139a 00000000*      4844 	.word	.LDW_4ca01a8
0000139e 00             4845 	.byte	0
                        4846 
                        4847 .LDW_4c935f0:
0000139f 20             4848 	.byte	32
                        4849 
000013a0 00             4850 	.byte	0
                        4851 
000013a1 00             4852 	.byte	0
                        4853 
                        4854 .LDW_4cc56c8:
000013a2 16             4855 	.byte	22
000013a3 44656d5f4576   4856 	.strz	"Dem_EvMemIsDtcKindValid"
000013a9 4d656d497344 
000013af 74634b696e64 
000013b5 56616c696400 
000013bb 21             4857 	.byte	33
000013bc 1e             4858 	.byte	30
000013bd 38             4859 	.byte	56
000013be 00000000*      4860 	.word	.LDW_4cd1088
000013c2 00             4861 	.byte	0
000013c3 03             4862 	.byte	3
000013c4 00             4863 	.byte	0
000013c5 01             4864 	.byte	1
000013c6 00             4865 	.byte	0
000013c7 01             4866 	.byte	1
                        4867 

                                                                      Page 103
                                                              C:\Users\nhuliyap\AppData\Local\Temp\gh_00002581.s
                        4868 .LDW_4cd1190:
000013c8 10             4869 	.byte	16
000013c9 4454434b696e   4870 	.strz	"DTCKind"
000013cf 6400 
000013d1 21             4871 	.byte	33
000013d2 47             4872 	.byte	71
000013d3 38             4873 	.byte	56
000013d4 00000000*      4874 	.word	.LDW_4c9fd88
000013d8 00             4875 	.byte	0
                        4876 
                        4877 .LDW_4c93980:
000013d9 20             4878 	.byte	32
                        4879 
000013da 00             4880 	.byte	0
                        4881 
000013db 00             4882 	.byte	0
                        4883 
                        4884 .LDW_4cc63d8:
000013dc 16             4885 	.byte	22
000013dd 44656d5f4576   4886 	.strz	"Dem_EvMemIsDtcOriginValid"
000013e3 4d656d497344 
000013e9 74634f726967 
000013ef 696e56616c69 
000013f5 6400 
000013f7 26             4887 	.byte	38
000013f8 1e             4888 	.byte	30
000013f9 38             4889 	.byte	56
000013fa 00000000*      4890 	.word	.LDW_4cd1088
000013fe 00             4891 	.byte	0
000013ff 03             4892 	.byte	3
00001400 00             4893 	.byte	0
00001401 01             4894 	.byte	1
00001402 00             4895 	.byte	0
00001403 01             4896 	.byte	1
                        4897 
                        4898 .LDW_4cd15b0:
00001404 10             4899 	.byte	16
00001405 4454434f7269   4900 	.strz	"DTCOrigin"
0000140b 67696e00 
0000140f 26             4901 	.byte	38
00001410 4d             4902 	.byte	77
00001411 38             4903 	.byte	56
00001412 00000000*      4904 	.word	.LDW_4cd2f78
00001416 00             4905 	.byte	0
                        4906 
                        4907 .LDW_4c939b0:
00001417 20             4908 	.byte	32
                        4909 
00001418 00             4910 	.byte	0
                        4911 
00001419 00             4912 	.byte	0
                        4913 
                        4914 .LDW_53cfb98:
0000141a 15             4915 	.byte	21
0000141b 5363684d5f45   4916 	.strz	"SchM_Enter_Dem_Dcm"
00001421 6e7465725f44 
00001427 656d5f44636d 
0000142d 00 
0000142e 1f             4917 	.byte	31
0000142f 22             4918 	.byte	34
00001430 43             4919 	.byte	67

                                                                      Page 104
                                                              C:\Users\nhuliyap\AppData\Local\Temp\gh_00002581.s
00001431 00             4920 	.byte	0
00001432 03             4921 	.byte	3
00001433 00             4922 	.byte	0
00001434 01             4923 	.byte	1
00001435 00             4924 	.byte	0
00001436 01             4925 	.byte	1
                        4926 
                        4927 .LDW_514d350:
00001437 20             4928 	.byte	32
                        4929 
00001438 00             4930 	.byte	0
                        4931 
00001439 00             4932 	.byte	0
                        4933 
                        4934 .LDW_53cfc30:
0000143a 15             4935 	.byte	21
0000143b 5363684d5f45   4936 	.strz	"SchM_Exit_Dem_Dcm"
00001441 7869745f4465 
00001447 6d5f44636d00 
0000144d 23             4937 	.byte	35
0000144e 22             4938 	.byte	34
0000144f 43             4939 	.byte	67
00001450 00             4940 	.byte	0
00001451 03             4941 	.byte	3
00001452 00             4942 	.byte	0
00001453 01             4943 	.byte	1
00001454 00             4944 	.byte	0
00001455 01             4945 	.byte	1
                        4946 
                        4947 .LDW_514d260:
00001456 20             4948 	.byte	32
                        4949 
00001457 00             4950 	.byte	0
                        4951 
00001458 00             4952 	.byte	0
                        4953 
                        4954 .LDW_53ce930:
00001459 16             4955 	.byte	22
0000145a 44656d5f6973   4956 	.strz	"Dem_isDtcIdValid"
00001460 447463496456 
00001466 616c696400 
0000146b 7f             4957 	.byte	127
0000146c 1e             4958 	.byte	30
0000146d 4c             4959 	.byte	76
0000146e 00000000*      4960 	.word	.LDW_4cd1088
00001472 00             4961 	.byte	0
00001473 03             4962 	.byte	3
00001474 00             4963 	.byte	0
00001475 01             4964 	.byte	1
00001476 00             4965 	.byte	0
00001477 01             4966 	.byte	1
                        4967 
                        4968 .LDW_4d53728:
00001478 10             4969 	.byte	16
00001479 696400         4970 	.strz	"id"
0000147c 7f             4971 	.byte	127
0000147d 3e             4972 	.byte	62
0000147e 4c             4973 	.byte	76
0000147f 00000000*      4974 	.word	.LDW_4ca01a8
00001483 00             4975 	.byte	0
                        4976 

                                                                      Page 105
                                                              C:\Users\nhuliyap\AppData\Local\Temp\gh_00002581.s
                        4977 .LDW_5413180:
00001484 20             4978 	.byte	32
                        4979 
00001485 00             4980 	.byte	0
                        4981 
00001486 00             4982 	.byte	0
                        4983 
                        4984 .LDW_53ce508:
00001487 16             4985 	.byte	22
00001488 44656d5f4474   4986 	.strz	"Dem_DtcIdFromEventId"
0000148e 63496446726f 
00001494 6d4576656e74 
0000149a 496400 
0000149d 8401           4987 	.byte	132,1
0000149f 1b             4988 	.byte	27
000014a0 4c             4989 	.byte	76
000014a1 00000000*      4990 	.word	.LDW_4ca01a8
000014a5 00             4991 	.byte	0
000014a6 03             4992 	.byte	3
000014a7 00             4993 	.byte	0
000014a8 01             4994 	.byte	1
000014a9 00             4995 	.byte	0
000014aa 01             4996 	.byte	1
                        4997 
                        4998 .LDW_4d53258:
000014ab 10             4999 	.byte	16
000014ac 696400         5000 	.strz	"id"
000014af 8401           5001 	.byte	132,1
000014b1 41             5002 	.byte	65
000014b2 4c             5003 	.byte	76
000014b3 00000000*      5004 	.word	.LDW_4d53ca8
000014b7 00             5005 	.byte	0
                        5006 
                        5007 .LDW_54135d0:
000014b8 20             5008 	.byte	32
                        5009 
000014b9 00             5010 	.byte	0
                        5011 
000014ba 00             5012 	.byte	0
                        5013 
                        5014 .LDW_5417a78:
000014bb 16             5015 	.byte	22
000014bc 44656d5f4474   5016 	.strz	"Dem_DtcIdGetEventId"
000014c2 634964476574 
000014c8 4576656e7449 
000014ce 6400 
000014d0 8b01           5017 	.byte	139,1
000014d2 1c             5018 	.byte	28
000014d3 4c             5019 	.byte	76
000014d4 00000000*      5020 	.word	.LDW_4d53ca8
000014d8 00             5021 	.byte	0
000014d9 03             5022 	.byte	3
000014da 00             5023 	.byte	0
000014db 01             5024 	.byte	1
000014dc 00             5025 	.byte	0
000014dd 01             5026 	.byte	1
                        5027 
                        5028 .LDW_4d538e0:
000014de 10             5029 	.byte	16
000014df 647463696400   5030 	.strz	"dtcid"
000014e5 8b01           5031 	.byte	139,1

                                                                      Page 106
                                                              C:\Users\nhuliyap\AppData\Local\Temp\gh_00002581.s
000014e7 3f             5032 	.byte	63
000014e8 4c             5033 	.byte	76
000014e9 00000000*      5034 	.word	.LDW_4ca01a8
000014ed 00             5035 	.byte	0
                        5036 
                        5037 .LDW_5413480:
000014ee 20             5038 	.byte	32
                        5039 
000014ef 00             5040 	.byte	0
                        5041 
000014f0 00             5042 	.byte	0
                        5043 
                        5044 .LDW_54173f0:
000014f1 16             5045 	.byte	22
000014f2 44656d5f4474   5046 	.strz	"Dem_DtcIdGetFirstEventId"
000014f8 634964476574 
000014fe 466972737445 
00001504 76656e744964 
0000150a 00 
0000150b 9201           5047 	.byte	146,1
0000150d 1c             5048 	.byte	28
0000150e 4c             5049 	.byte	76
0000150f 00000000*      5050 	.word	.LDW_4d53ca8
00001513 00             5051 	.byte	0
00001514 03             5052 	.byte	3
00001515 00             5053 	.byte	0
00001516 01             5054 	.byte	1
00001517 00             5055 	.byte	0
00001518 01             5056 	.byte	1
                        5057 
                        5058 .LDW_4d53780:
00001519 10             5059 	.byte	16
0000151a 647463696400   5060 	.strz	"dtcid"
00001520 9201           5061 	.byte	146,1
00001522 44             5062 	.byte	68
00001523 4c             5063 	.byte	76
00001524 00000000*      5064 	.word	.LDW_4ca01a8
00001528 00             5065 	.byte	0
                        5066 
                        5067 .LDW_54133f0:
00001529 20             5068 	.byte	32
                        5069 
0000152a 00             5070 	.byte	0
                        5071 
0000152b 00             5072 	.byte	0
                        5073 
                        5074 .LDW_54cb330:
0000152c 16             5075 	.byte	22
0000152d 44656d5f4576   5076 	.strz	"Dem_EvtParam_GetMaxNumberFreezeFrameRecords"
00001533 74506172616d 
00001539 5f4765744d61 
0000153f 784e756d6265 
00001545 72467265657a 
0000154b 654672616d65 
00001551 5265636f7264 
00001557 7300 
00001559 9f01           5077 	.byte	159,1
0000155b 14             5078 	.byte	20
0000155c 64             5079 	.byte	100
0000155d 00000000*      5080 	.word	.LDW_491ba88
00001561 00             5081 	.byte	0

                                                                      Page 107
                                                              C:\Users\nhuliyap\AppData\Local\Temp\gh_00002581.s
00001562 03             5082 	.byte	3
00001563 00             5083 	.byte	0
00001564 01             5084 	.byte	1
00001565 00             5085 	.byte	0
00001566 01             5086 	.byte	1
                        5087 
                        5088 .LDW_5419d78:
00001567 10             5089 	.byte	16
00001568 696e647800     5090 	.strz	"indx"
0000156d 9f01           5091 	.byte	159,1
0000156f 50             5092 	.byte	80
00001570 64             5093 	.byte	100
00001571 00000000*      5094 	.word	.LDW_4d53ca8
00001575 00             5095 	.byte	0
                        5096 
                        5097 .LDW_5414950:
00001576 20             5098 	.byte	32
                        5099 
00001577 00             5100 	.byte	0
                        5101 
00001578 00             5102 	.byte	0
                        5103 
                        5104 .LDW_54de938:
00001579 16             5105 	.byte	22
0000157a 44656d5f456e   5106 	.strz	"Dem_EnvIsAnyTriggerSet"
00001580 764973416e79 
00001586 547269676765 
0000158c 7253657400 
00001591 13             5107 	.byte	19
00001592 1e             5108 	.byte	30
00001593 68             5109 	.byte	104
00001594 00000000*      5110 	.word	.LDW_4cd1088
00001598 00             5111 	.byte	0
00001599 03             5112 	.byte	3
0000159a 00             5113 	.byte	0
0000159b 01             5114 	.byte	1
0000159c 00             5115 	.byte	0
0000159d 01             5116 	.byte	1
                        5117 
                        5118 .LDW_515a958:
0000159e 10             5119 	.byte	16
0000159f 747269676765   5120 	.strz	"trigger2test"
000015a5 723274657374 
000015ab 00 
000015ac 13             5121 	.byte	19
000015ad 45             5122 	.byte	69
000015ae 68             5123 	.byte	104
000015af 00000000*      5124 	.word	.LDW_515a9b0
000015b3 00             5125 	.byte	0
                        5126 
                        5127 .LDW_515b778:
000015b4 20             5128 	.byte	32
                        5129 
000015b5 00             5130 	.byte	0
                        5131 
000015b6 00             5132 	.byte	0
                        5133 
                        5134 .LDW_54defc0:
000015b7 16             5135 	.byte	22
000015b8 44656d5f456e   5136 	.strz	"Dem_EnvIsTriggerSet"
000015be 764973547269 

                                                                      Page 108
                                                              C:\Users\nhuliyap\AppData\Local\Temp\gh_00002581.s
000015c4 676765725365 
000015ca 7400 
000015cc 18             5137 	.byte	24
000015cd 1e             5138 	.byte	30
000015ce 68             5139 	.byte	104
000015cf 00000000*      5140 	.word	.LDW_4cd1088
000015d3 00             5141 	.byte	0
000015d4 03             5142 	.byte	3
000015d5 00             5143 	.byte	0
000015d6 01             5144 	.byte	1
000015d7 00             5145 	.byte	0
000015d8 01             5146 	.byte	1
                        5147 
                        5148 .LDW_515ac70:
000015d9 10             5149 	.byte	16
000015da 747269676765   5150 	.strz	"trigger"
000015e0 7200 
000015e2 18             5151 	.byte	24
000015e3 42             5152 	.byte	66
000015e4 68             5153 	.byte	104
000015e5 00000000*      5154 	.word	.LDW_515a9b0
000015e9 00             5155 	.byte	0
                        5156 
                        5157 .LDW_515a640:
000015ea 10             5158 	.byte	16
000015eb 747269676765   5159 	.strz	"trigger2test"
000015f1 723274657374 
000015f7 00 
000015f8 18             5160 	.byte	24
000015f9 5b             5161 	.byte	91
000015fa 68             5162 	.byte	104
000015fb 00000000*      5163 	.word	.LDW_515a9b0
000015ff 00             5164 	.byte	0
                        5165 
                        5166 .LDW_515ba48:
00001600 20             5167 	.byte	32
                        5168 
00001601 00             5169 	.byte	0
                        5170 
00001602 00             5171 	.byte	0
                        5172 
                        5173 .LDW_4d599d0:
00001603 16             5174 	.byte	22
00001604 44656d5f4576   5175 	.strz	"Dem_EvMemIsMemIdValid"
0000160a 4d656d49734d 
00001610 656d49645661 
00001616 6c696400 
0000161a 4c             5176 	.byte	76
0000161b 1e             5177 	.byte	30
0000161c 3c             5178 	.byte	60
0000161d 00000000*      5179 	.word	.LDW_4cd1088
00001621 00             5180 	.byte	0
00001622 03             5181 	.byte	3
00001623 00             5182 	.byte	0
00001624 01             5183 	.byte	1
00001625 00             5184 	.byte	0
00001626 01             5185 	.byte	1
                        5186 
                        5187 .LDW_552bbd8:
00001627 10             5188 	.byte	16
00001628 4d656d496400   5189 	.strz	"MemId"

                                                                      Page 109
                                                              C:\Users\nhuliyap\AppData\Local\Temp\gh_00002581.s
0000162e 4c             5190 	.byte	76
0000162f 41             5191 	.byte	65
00001630 3c             5192 	.byte	60
00001631 00000000*      5193 	.word	.LDW_4d535c8
00001635 00             5194 	.byte	0
                        5195 
                        5196 .LDW_5580940:
00001636 20             5197 	.byte	32
                        5198 
00001637 00             5199 	.byte	0
                        5200 
00001638 00             5201 	.byte	0
                        5202 
                        5203 .LDW_4d598a0:
00001639 16             5204 	.byte	22
0000163a 44656d5f4576   5205 	.strz	"Dem_EvMemIsEventMemLocIdValid"
00001640 4d656d497345 
00001646 76656e744d65 
0000164c 6d4c6f634964 
00001652 56616c696400 
00001658 51             5206 	.byte	81
00001659 1e             5207 	.byte	30
0000165a 3c             5208 	.byte	60
0000165b 00000000*      5209 	.word	.LDW_4cd1088
0000165f 00             5210 	.byte	0
00001660 03             5211 	.byte	3
00001661 00             5212 	.byte	0
00001662 01             5213 	.byte	1
00001663 00             5214 	.byte	0
00001664 01             5215 	.byte	1
                        5216 
                        5217 .LDW_552b4a0:
00001665 10             5218 	.byte	16
00001666 4c6f63496400   5219 	.strz	"LocId"
0000166c 51             5220 	.byte	81
0000166d 49             5221 	.byte	73
0000166e 3c             5222 	.byte	60
0000166f 00000000*      5223 	.word	.LDW_4d535c8
00001673 00             5224 	.byte	0
                        5225 
                        5226 .LDW_5580eb0:
00001674 20             5227 	.byte	32
                        5228 
00001675 00             5229 	.byte	0
                        5230 
00001676 00             5231 	.byte	0
                        5232 
                        5233 .LDW_4d59b98:
00001677 16             5234 	.byte	22
00001678 44656d5f4576   5235 	.strz	"Dem_EvMemGetEventMemStatusByPtr"
0000167e 4d656d476574 
00001684 4576656e744d 
0000168a 656d53746174 
00001690 757342795074 
00001696 7200 
00001698 66             5236 	.byte	102
00001699 19             5237 	.byte	25
0000169a 3c             5238 	.byte	60
0000169b 00000000*      5239 	.word	.LDW_4d535c8
0000169f 00             5240 	.byte	0
000016a0 03             5241 	.byte	3

                                                                      Page 110
                                                              C:\Users\nhuliyap\AppData\Local\Temp\gh_00002581.s
000016a1 00             5242 	.byte	0
000016a2 01             5243 	.byte	1
000016a3 00             5244 	.byte	0
000016a4 01             5245 	.byte	1
                        5246 
                        5247 .LDW_5511080:
000016a5 10             5248 	.byte	16
000016a6 4576656e744d   5249 	.strz	"EventMemory"
000016ac 656d6f727900 
000016b2 66             5250 	.byte	102
000016b3 59             5251 	.byte	89
000016b4 3c             5252 	.byte	60
000016b5 00000000*      5253 	.word	.LDW_551a350
000016b9 00             5254 	.byte	0
                        5255 
                        5256 .LDW_5580ee0:
000016ba 20             5257 	.byte	32
                        5258 
000016bb 00             5259 	.byte	0
                        5260 
000016bc 00             5261 	.byte	0
                        5262 
                        5263 .LDW_4d59a68:
000016bd 16             5264 	.byte	22
000016be 44656d5f4576   5265 	.strz	"Dem_EvMemGetEventMemStatus"
000016c4 4d656d476574 
000016ca 4576656e744d 
000016d0 656d53746174 
000016d6 757300 
000016d9 6b             5266 	.byte	107
000016da 19             5267 	.byte	25
000016db 3c             5268 	.byte	60
000016dc 00000000*      5269 	.word	.LDW_4d535c8
000016e0 00             5270 	.byte	0
000016e1 03             5271 	.byte	3
000016e2 00             5272 	.byte	0
000016e3 01             5273 	.byte	1
000016e4 00             5274 	.byte	0
000016e5 01             5275 	.byte	1
                        5276 
                        5277 .LDW_5510fd0:
000016e6 10             5278 	.byte	16
000016e7 4c6f63496400   5279 	.strz	"LocId"
000016ed 6b             5280 	.byte	107
000016ee 41             5281 	.byte	65
000016ef 3c             5282 	.byte	60
000016f0 00000000*      5283 	.word	.LDW_4d535c8
000016f4 00             5284 	.byte	0
                        5285 
                        5286 .LDW_5580e50:
000016f5 20             5287 	.byte	32
                        5288 
000016f6 00             5289 	.byte	0
                        5290 
000016f7 00             5291 	.byte	0
                        5292 
                        5293 .LDW_4d59808:
000016f8 16             5294 	.byte	22
000016f9 44656d5f4576   5295 	.strz	"Dem_EvMemGetEventMemEventIdByPtr"
000016ff 4d656d476574 
00001705 4576656e744d 

                                                                      Page 111
                                                              C:\Users\nhuliyap\AppData\Local\Temp\gh_00002581.s
0000170b 656d4576656e 
00001711 744964427950 
00001717 747200 
0000171a 75             5296 	.byte	117
0000171b 1c             5297 	.byte	28
0000171c 3c             5298 	.byte	60
0000171d 00000000*      5299 	.word	.LDW_4d53ca8
00001721 00             5300 	.byte	0
00001722 03             5301 	.byte	3
00001723 00             5302 	.byte	0
00001724 01             5303 	.byte	1
00001725 00             5304 	.byte	0
00001726 01             5305 	.byte	1
                        5306 
                        5307 .LDW_55110d8:
00001727 10             5308 	.byte	16
00001728 4576656e744d   5309 	.strz	"EventMemory"
0000172e 656d6f727900 
00001734 75             5310 	.byte	117
00001735 5d             5311 	.byte	93
00001736 3c             5312 	.byte	60
00001737 00000000*      5313 	.word	.LDW_551a350
0000173b 00             5314 	.byte	0
                        5315 
                        5316 .LDW_557f080:
0000173c 20             5317 	.byte	32
                        5318 
0000173d 00             5319 	.byte	0
                        5320 
0000173e 00             5321 	.byte	0
                        5322 
                        5323 .LDW_4d59180:
0000173f 16             5324 	.byte	22
00001740 44656d5f4576   5325 	.strz	"Dem_EvMemGetEventMemEventId"
00001746 4d656d476574 
0000174c 4576656e744d 
00001752 656d4576656e 
00001758 74496400 
0000175c 7a             5326 	.byte	122
0000175d 1c             5327 	.byte	28
0000175e 3c             5328 	.byte	60
0000175f 00000000*      5329 	.word	.LDW_4d53ca8
00001763 00             5330 	.byte	0
00001764 03             5331 	.byte	3
00001765 00             5332 	.byte	0
00001766 01             5333 	.byte	1
00001767 00             5334 	.byte	0
00001768 01             5335 	.byte	1
                        5336 
                        5337 .LDW_5510e70:
00001769 10             5338 	.byte	16
0000176a 4c6f63496400   5339 	.strz	"LocId"
00001770 7a             5340 	.byte	122
00001771 45             5341 	.byte	69
00001772 3c             5342 	.byte	60
00001773 00000000*      5343 	.word	.LDW_4d535c8
00001777 00             5344 	.byte	0
                        5345 
                        5346 .LDW_557f2c0:
00001778 20             5347 	.byte	32
                        5348 

                                                                      Page 112
                                                              C:\Users\nhuliyap\AppData\Local\Temp\gh_00002581.s
00001779 00             5349 	.byte	0
                        5350 
0000177a 00             5351 	.byte	0
                        5352 
                        5353 .LDW_4d5c100:
0000177b 16             5354 	.byte	22
0000177c 44656d5f4576   5355 	.strz	"Dem_EvMemGetEventMemFreezeFrameCounterByPtr"
00001782 4d656d476574 
00001788 4576656e744d 
0000178e 656d46726565 
00001794 7a654672616d 
0000179a 65436f756e74 
000017a0 657242795074 
000017a6 7200 
000017a8 b203           5356 	.byte	178,3
000017aa 19             5357 	.byte	25
000017ab 3c             5358 	.byte	60
000017ac 00000000*      5359 	.word	.LDW_4d535c8
000017b0 00             5360 	.byte	0
000017b1 03             5361 	.byte	3
000017b2 00             5362 	.byte	0
000017b3 01             5363 	.byte	1
000017b4 00             5364 	.byte	0
000017b5 01             5365 	.byte	1
                        5366 
                        5367 .LDW_5511a20:
000017b6 10             5368 	.byte	16
000017b7 4576656e744d   5369 	.strz	"EventMemory"
000017bd 656d6f727900 
000017c3 b203           5370 	.byte	178,3
000017c5 65             5371 	.byte	101
000017c6 3c             5372 	.byte	60
000017c7 00000000*      5373 	.word	.LDW_551a350
000017cb 00             5374 	.byte	0
                        5375 
                        5376 .LDW_557fda0:
000017cc 20             5377 	.byte	32
                        5378 
000017cd 00             5379 	.byte	0
                        5380 
000017ce 00             5381 	.byte	0
                        5382 
                        5383 .LDW_4d5b488:
000017cf 16             5384 	.byte	22
000017d0 44656d5f4576   5385 	.strz	"Dem_EvMemGetEventMemFreezeFrameCounter"
000017d6 4d656d476574 
000017dc 4576656e744d 
000017e2 656d46726565 
000017e8 7a654672616d 
000017ee 65436f756e74 
000017f4 657200 
000017f7 bd03           5386 	.byte	189,3
000017f9 19             5387 	.byte	25
000017fa 3c             5388 	.byte	60
000017fb 00000000*      5389 	.word	.LDW_4d535c8
000017ff 00             5390 	.byte	0
00001800 03             5391 	.byte	3
00001801 00             5392 	.byte	0
00001802 01             5393 	.byte	1
00001803 00             5394 	.byte	0
00001804 01             5395 	.byte	1

                                                                      Page 113
                                                              C:\Users\nhuliyap\AppData\Local\Temp\gh_00002581.s
                        5396 
                        5397 .LDW_5511b80:
00001805 10             5398 	.byte	16
00001806 4c6f63496400   5399 	.strz	"LocId"
0000180c bd03           5400 	.byte	189,3
0000180e 4d             5401 	.byte	77
0000180f 3c             5402 	.byte	60
00001810 00000000*      5403 	.word	.LDW_4d535c8
00001814 00             5404 	.byte	0
                        5405 
                        5406 .LDW_557fe30:
00001815 20             5407 	.byte	32
                        5408 
00001816 00             5409 	.byte	0
                        5410 
00001817 00             5411 	.byte	0
                        5412 
                        5413 .LDW_4d5b358:
00001818 16             5414 	.byte	22
00001819 44656d5f4576   5415 	.strz	"Dem_EvMemGetEventMemTriggerByPtr"
0000181f 4d656d476574 
00001825 4576656e744d 
0000182b 656d54726967 
00001831 676572427950 
00001837 747200 
0000183a cc03           5416 	.byte	204,3
0000183c 1c             5417 	.byte	28
0000183d 3c             5418 	.byte	60
0000183e 00000000*      5419 	.word	.LDW_515a9b0
00001842 00             5420 	.byte	0
00001843 03             5421 	.byte	3
00001844 00             5422 	.byte	0
00001845 01             5423 	.byte	1
00001846 00             5424 	.byte	0
00001847 01             5425 	.byte	1
                        5426 
                        5427 .LDW_5510b58:
00001848 10             5428 	.byte	16
00001849 4576656e744d   5429 	.strz	"EventMemory"
0000184f 656d6f727900 
00001855 cc03           5430 	.byte	204,3
00001857 5d             5431 	.byte	93
00001858 3c             5432 	.byte	60
00001859 00000000*      5433 	.word	.LDW_551a350
0000185d 00             5434 	.byte	0
                        5435 
                        5436 .LDW_55c5578:
0000185e 20             5437 	.byte	32
                        5438 
0000185f 00             5439 	.byte	0
                        5440 
00001860 00             5441 	.byte	0
                        5442 
                        5443 .LDW_4d5ae98:
00001861 16             5444 	.byte	22
00001862 44656d5f4576   5445 	.strz	"Dem_EvMemGetEventMemTrigger"
00001868 4d656d476574 
0000186e 4576656e744d 
00001874 656d54726967 
0000187a 67657200 
0000187e d703           5446 	.byte	215,3

                                                                      Page 114
                                                              C:\Users\nhuliyap\AppData\Local\Temp\gh_00002581.s
00001880 1c             5447 	.byte	28
00001881 3c             5448 	.byte	60
00001882 00000000*      5449 	.word	.LDW_515a9b0
00001886 00             5450 	.byte	0
00001887 03             5451 	.byte	3
00001888 00             5452 	.byte	0
00001889 01             5453 	.byte	1
0000188a 00             5454 	.byte	0
0000188b 01             5455 	.byte	1
                        5456 
                        5457 .LDW_55106e0:
0000188c 10             5458 	.byte	16
0000188d 4c6f63496400   5459 	.strz	"LocId"
00001893 d703           5460 	.byte	215,3
00001895 45             5461 	.byte	69
00001896 3c             5462 	.byte	60
00001897 00000000*      5463 	.word	.LDW_4d535c8
0000189b 00             5464 	.byte	0
                        5465 
                        5466 .LDW_55c5278:
0000189c 20             5467 	.byte	32
                        5468 
0000189d 00             5469 	.byte	0
                        5470 
0000189e 00             5471 	.byte	0
                        5472 
                        5473 .LDW_4d5ba78:
0000189f 16             5474 	.byte	22
000018a0 44656d5f4576   5475 	.strz	"Dem_EvMemGetEventMemDataByPtr"
000018a6 4d656d476574 
000018ac 4576656e744d 
000018b2 656d44617461 
000018b8 427950747200 
000018be e603           5476 	.byte	230,3
000018c0 13             5477 	.byte	19
000018c1 3c             5478 	.byte	60
000018c2 00000000*      5479 	.word	.LDW_4906be0
000018c6 00             5480 	.byte	0
000018c7 03             5481 	.byte	3
000018c8 00             5482 	.byte	0
000018c9 01             5483 	.byte	1
000018ca 00             5484 	.byte	0
000018cb 01             5485 	.byte	1
                        5486 
                        5487 .LDW_5510528:
000018cc 10             5488 	.byte	16
000018cd 4576656e744d   5489 	.strz	"EventMemory"
000018d3 656d6f727900 
000018d9 e603           5490 	.byte	230,3
000018db 4b             5491 	.byte	75
000018dc 3c             5492 	.byte	60
000018dd 00000000*      5493 	.word	.LDW_55c4188
000018e1 00             5494 	.byte	0
                        5495 
                        5496 .LDW_55c5638:
000018e2 20             5497 	.byte	32
                        5498 
000018e3 00             5499 	.byte	0
                        5500 
000018e4 00             5501 	.byte	0
                        5502 

                                                                      Page 115
                                                              C:\Users\nhuliyap\AppData\Local\Temp\gh_00002581.s
                        5503 .LDW_4d5bf38:
000018e5 16             5504 	.byte	22
000018e6 44656d5f4576   5505 	.strz	"Dem_EvMemIsStored"
000018ec 4d656d497353 
000018f2 746f72656400 
000018f8 8304           5506 	.byte	131,4
000018fa 1e             5507 	.byte	30
000018fb 3c             5508 	.byte	60
000018fc 00000000*      5509 	.word	.LDW_4cd1088
00001900 00             5510 	.byte	0
00001901 03             5511 	.byte	3
00001902 00             5512 	.byte	0
00001903 01             5513 	.byte	1
00001904 00             5514 	.byte	0
00001905 01             5515 	.byte	1
                        5516 
                        5517 .LDW_5510108:
00001906 10             5518 	.byte	16
00001907 537461747573   5519 	.strz	"Status"
0000190d 00 
0000190e 8304           5520 	.byte	131,4
00001910 3d             5521 	.byte	61
00001911 3c             5522 	.byte	60
00001912 00000000*      5523 	.word	.LDW_4d535c8
00001916 00             5524 	.byte	0
                        5525 
                        5526 .LDW_55c5428:
00001917 20             5527 	.byte	32
                        5528 
00001918 00             5529 	.byte	0
                        5530 
00001919 00             5531 	.byte	0
                        5532 
                        5533 .LDW_4d5bc40:
0000191a 16             5534 	.byte	22
0000191b 44656d5f4576   5535 	.strz	"Dem_EvMemIsEmpty"
00001921 4d656d497345 
00001927 6d70747900 
0000192c 8804           5536 	.byte	136,4
0000192e 1e             5537 	.byte	30
0000192f 3c             5538 	.byte	60
00001930 00000000*      5539 	.word	.LDW_4cd1088
00001934 00             5540 	.byte	0
00001935 03             5541 	.byte	3
00001936 00             5542 	.byte	0
00001937 01             5543 	.byte	1
00001938 00             5544 	.byte	0
00001939 01             5545 	.byte	1
                        5546 
                        5547 .LDW_5510790:
0000193a 10             5548 	.byte	16
0000193b 537461747573   5549 	.strz	"Status"
00001941 00 
00001942 8804           5550 	.byte	136,4
00001944 3c             5551 	.byte	60
00001945 3c             5552 	.byte	60
00001946 00000000*      5553 	.word	.LDW_4d535c8
0000194a 00             5554 	.byte	0
                        5555 
                        5556 .LDW_55c5398:
0000194b 20             5557 	.byte	32

                                                                      Page 116
                                                              C:\Users\nhuliyap\AppData\Local\Temp\gh_00002581.s
                        5558 
0000194c 00             5559 	.byte	0
                        5560 
0000194d 00             5561 	.byte	0
                        5562 
                        5563 .LDW_4d5b5b8:
0000194e 16             5564 	.byte	22
0000194f 44656d5f4576   5565 	.strz	"Dem_EvMemGetShadowVisibility"
00001955 4d656d476574 
0000195b 536861646f77 
00001961 566973696269 
00001967 6c69747900 
0000196c a604           5566 	.byte	166,4
0000196e 1e             5567 	.byte	30
0000196f 3c             5568 	.byte	60
00001970 00000000*      5569 	.word	.LDW_4cd1088
00001974 00             5570 	.byte	0
00001975 03             5571 	.byte	3
00001976 00             5572 	.byte	0
00001977 01             5573 	.byte	1
00001978 00             5574 	.byte	0
00001979 01             5575 	.byte	1
                        5576 
                        5577 .LDW_55c50c8:
0000197a 20             5578 	.byte	32
                        5579 
0000197b 00             5580 	.byte	0
                        5581 
0000197c 00             5582 	.byte	0
                        5583 
                        5584 .LDW_4d5b9e0:
0000197d 16             5585 	.byte	22
0000197e 44656d5f4576   5586 	.strz	"Dem_EvMemIsVisible"
00001984 4d656d497356 
0000198a 697369626c65 
00001990 00 
00001991 aa04           5587 	.byte	170,4
00001993 1e             5588 	.byte	30
00001994 3c             5589 	.byte	60
00001995 00000000*      5590 	.word	.LDW_4cd1088
00001999 00             5591 	.byte	0
0000199a 03             5592 	.byte	3
0000199b 00             5593 	.byte	0
0000199c 01             5594 	.byte	1
0000199d 00             5595 	.byte	0
0000199e 01             5596 	.byte	1
                        5597 
                        5598 .LDW_5510948:
0000199f 10             5599 	.byte	16
000019a0 537461747573   5600 	.strz	"Status"
000019a6 00 
000019a7 aa04           5601 	.byte	170,4
000019a9 3e             5602 	.byte	62
000019aa 3c             5603 	.byte	60
000019ab 00000000*      5604 	.word	.LDW_4d535c8
000019af 00             5605 	.byte	0
                        5606 
                        5607 .LDW_5510160:
000019b0 10             5608 	.byte	16
000019b1 536861646f77   5609 	.strz	"ShadowEntriesVisible"
000019b7 456e74726965 

                                                                      Page 117
                                                              C:\Users\nhuliyap\AppData\Local\Temp\gh_00002581.s
000019bd 735669736962 
000019c3 6c6500 
000019c6 aa04           5610 	.byte	170,4
000019c8 58             5611 	.byte	88
000019c9 3c             5612 	.byte	60
000019ca 00000000*      5613 	.word	.LDW_4cd1088
000019ce 00             5614 	.byte	0
                        5615 
                        5616 .LDW_55c5728:
000019cf 20             5617 	.byte	32
                        5618 
000019d0 00             5619 	.byte	0
                        5620 
000019d1 00             5621 	.byte	0
                        5622 
                        5623 .LDW_4d5b818:
000019d2 16             5624 	.byte	22
000019d3 44656d5f4576   5625 	.strz	"Dem_EvMemGetEventMemStartLocId"
000019d9 4d656d476574 
000019df 4576656e744d 
000019e5 656d53746172 
000019eb 744c6f634964 
000019f1 00 
000019f2 b004           5626 	.byte	176,4
000019f4 19             5627 	.byte	25
000019f5 3c             5628 	.byte	60
000019f6 00000000*      5629 	.word	.LDW_4d535c8
000019fa 00             5630 	.byte	0
000019fb 03             5631 	.byte	3
000019fc 00             5632 	.byte	0
000019fd 01             5633 	.byte	1
000019fe 00             5634 	.byte	0
000019ff 01             5635 	.byte	1
                        5636 
                        5637 .LDW_5510aa8:
00001a00 10             5638 	.byte	16
00001a01 4d656d496400   5639 	.strz	"MemId"
00001a07 b004           5640 	.byte	176,4
00001a09 45             5641 	.byte	69
00001a0a 3c             5642 	.byte	60
00001a0b 00000000*      5643 	.word	.LDW_4d535c8
00001a0f 00             5644 	.byte	0
                        5645 
                        5646 .LDW_55c5b48:
00001a10 20             5647 	.byte	32
                        5648 
00001a11 00             5649 	.byte	0
                        5650 
00001a12 00             5651 	.byte	0
                        5652 
                        5653 .LDW_4d5b948:
00001a13 16             5654 	.byte	22
00001a14 44656d5f4576   5655 	.strz	"Dem_EvMemGetEventMemEndLocId"
00001a1a 4d656d476574 
00001a20 4576656e744d 
00001a26 656d456e644c 
00001a2c 6f63496400 
00001a31 bc04           5656 	.byte	188,4
00001a33 19             5657 	.byte	25
00001a34 3c             5658 	.byte	60
00001a35 00000000*      5659 	.word	.LDW_4d535c8

                                                                      Page 118
                                                              C:\Users\nhuliyap\AppData\Local\Temp\gh_00002581.s
00001a39 00             5660 	.byte	0
00001a3a 03             5661 	.byte	3
00001a3b 00             5662 	.byte	0
00001a3c 01             5663 	.byte	1
00001a3d 00             5664 	.byte	0
00001a3e 01             5665 	.byte	1
                        5666 
                        5667 .LDW_55107e8:
00001a3f 10             5668 	.byte	16
00001a40 4d656d496400   5669 	.strz	"MemId"
00001a46 bc04           5670 	.byte	188,4
00001a48 43             5671 	.byte	67
00001a49 3c             5672 	.byte	60
00001a4a 00000000*      5673 	.word	.LDW_4d535c8
00001a4e 00             5674 	.byte	0
                        5675 
                        5676 .LDW_55c5c68:
00001a4f 20             5677 	.byte	32
                        5678 
00001a50 00             5679 	.byte	0
                        5680 
00001a51 00             5681 	.byte	0
                        5682 
                        5683 .LDW_4d5c068:
00001a52 15             5684 	.byte	21
00001a53 44656d5f4576   5685 	.strz	"Dem_EvMemEventMemoryLocIteratorNew"
00001a59 4d656d457665 
00001a5f 6e744d656d6f 
00001a65 72794c6f6349 
00001a6b 74657261746f 
00001a71 724e657700 
00001a76 c704           5686 	.byte	199,4
00001a78 11             5687 	.byte	17
00001a79 3c             5688 	.byte	60
00001a7a 00             5689 	.byte	0
00001a7b 03             5690 	.byte	3
00001a7c 00             5691 	.byte	0
00001a7d 01             5692 	.byte	1
00001a7e 00             5693 	.byte	0
00001a7f 01             5694 	.byte	1
                        5695 
                        5696 .LDW_5510318:
00001a80 10             5697 	.byte	16
00001a81 4c6f63496400   5698 	.strz	"LocId"
00001a87 c704           5699 	.byte	199,4
00001a89 43             5700 	.byte	67
00001a8a 3c             5701 	.byte	60
00001a8b 00000000*      5702 	.word	.LDW_55c4c40
00001a8f 00             5703 	.byte	0
                        5704 
                        5705 .LDW_5510840:
00001a90 10             5706 	.byte	16
00001a91 4d656d496400   5707 	.strz	"MemId"
00001a97 c704           5708 	.byte	199,4
00001a99 57             5709 	.byte	87
00001a9a 3c             5710 	.byte	60
00001a9b 00000000*      5711 	.word	.LDW_4d535c8
00001a9f 00             5712 	.byte	0
                        5713 
                        5714 .LDW_55c5b78:
00001aa0 20             5715 	.byte	32

                                                                      Page 119
                                                              C:\Users\nhuliyap\AppData\Local\Temp\gh_00002581.s
                        5716 
00001aa1 00             5717 	.byte	0
                        5718 
00001aa2 00             5719 	.byte	0
                        5720 
                        5721 .LDW_4d5afc8:
00001aa3 16             5722 	.byte	22
00001aa4 44656d5f4576   5723 	.strz	"Dem_EvMemEventMemoryLocIteratorIsValid"
00001aaa 4d656d457665 
00001ab0 6e744d656d6f 
00001ab6 72794c6f6349 
00001abc 74657261746f 
00001ac2 72497356616c 
00001ac8 696400 
00001acb cc04           5724 	.byte	204,4
00001acd 1e             5725 	.byte	30
00001ace 3c             5726 	.byte	60
00001acf 00000000*      5727 	.word	.LDW_4cd1088
00001ad3 00             5728 	.byte	0
00001ad4 03             5729 	.byte	3
00001ad5 00             5730 	.byte	0
00001ad6 01             5731 	.byte	1
00001ad7 00             5732 	.byte	0
00001ad8 01             5733 	.byte	1
                        5734 
                        5735 .LDW_5510898:
00001ad9 10             5736 	.byte	16
00001ada 4c6f63496400   5737 	.strz	"LocId"
00001ae0 cc04           5738 	.byte	204,4
00001ae2 5a             5739 	.byte	90
00001ae3 3c             5740 	.byte	60
00001ae4 00000000*      5741 	.word	.LDW_55c4578
00001ae8 00             5742 	.byte	0
                        5743 
                        5744 .LDW_55101b8:
00001ae9 10             5745 	.byte	16
00001aea 4d656d496400   5746 	.strz	"MemId"
00001af0 cc04           5747 	.byte	204,4
00001af2 6e             5748 	.byte	110
00001af3 3c             5749 	.byte	60
00001af4 00000000*      5750 	.word	.LDW_4d535c8
00001af8 00             5751 	.byte	0
                        5752 
                        5753 .LDW_55c5818:
00001af9 20             5754 	.byte	32
                        5755 
00001afa 00             5756 	.byte	0
                        5757 
00001afb 00             5758 	.byte	0
                        5759 
                        5760 .LDW_4d5bcd8:
00001afc 15             5761 	.byte	21
00001afd 44656d5f4576   5762 	.strz	"Dem_EvMemEventMemoryLocIteratorNext"
00001b03 4d656d457665 
00001b09 6e744d656d6f 
00001b0f 72794c6f6349 
00001b15 74657261746f 
00001b1b 724e65787400 
00001b21 d104           5763 	.byte	209,4
00001b23 11             5764 	.byte	17
00001b24 3c             5765 	.byte	60

                                                                      Page 120
                                                              C:\Users\nhuliyap\AppData\Local\Temp\gh_00002581.s
00001b25 00             5766 	.byte	0
00001b26 03             5767 	.byte	3
00001b27 00             5768 	.byte	0
00001b28 01             5769 	.byte	1
00001b29 00             5770 	.byte	0
00001b2a 01             5771 	.byte	1
                        5772 
                        5773 .LDW_5510210:
00001b2b 10             5774 	.byte	16
00001b2c 4c6f63496400   5775 	.strz	"LocId"
00001b32 d104           5776 	.byte	209,4
00001b34 44             5777 	.byte	68
00001b35 3c             5778 	.byte	60
00001b36 00000000*      5779 	.word	.LDW_55c4c40
00001b3a 00             5780 	.byte	0
                        5781 
                        5782 .LDW_5510268:
00001b3b 10             5783 	.byte	16
00001b3c 4d656d496400   5784 	.strz	"MemId"
00001b42 d104           5785 	.byte	209,4
00001b44 58             5786 	.byte	88
00001b45 3c             5787 	.byte	60
00001b46 00000000*      5788 	.word	.LDW_4d535c8
00001b4a 00             5789 	.byte	0
                        5790 
                        5791 .LDW_55c5788:
00001b4b 20             5792 	.byte	32
                        5793 
00001b4c 00             5794 	.byte	0
                        5795 
00001b4d 00             5796 	.byte	0
                        5797 
                        5798 .LDW_4d5bb10:
00001b4e 15             5799 	.byte	21
00001b4f 44656d5f4576   5800 	.strz	"Dem_EvMemEventMemoryLocIteratorInvalidate"
00001b55 4d656d457665 
00001b5b 6e744d656d6f 
00001b61 72794c6f6349 
00001b67 74657261746f 
00001b6d 72496e76616c 
00001b73 696461746500 
00001b79 d704           5801 	.byte	215,4
00001b7b 11             5802 	.byte	17
00001b7c 3c             5803 	.byte	60
00001b7d 00             5804 	.byte	0
00001b7e 03             5805 	.byte	3
00001b7f 00             5806 	.byte	0
00001b80 01             5807 	.byte	1
00001b81 00             5808 	.byte	0
00001b82 01             5809 	.byte	1
                        5810 
                        5811 .LDW_5510370:
00001b83 10             5812 	.byte	16
00001b84 4c6f63496400   5813 	.strz	"LocId"
00001b8a d704           5814 	.byte	215,4
00001b8c 4a             5815 	.byte	74
00001b8d 3c             5816 	.byte	60
00001b8e 00000000*      5817 	.word	.LDW_55c4c40
00001b92 00             5818 	.byte	0
                        5819 
                        5820 .LDW_55103c8:

                                                                      Page 121
                                                              C:\Users\nhuliyap\AppData\Local\Temp\gh_00002581.s
00001b93 10             5821 	.byte	16
00001b94 4d656d496400   5822 	.strz	"MemId"
00001b9a d704           5823 	.byte	215,4
00001b9c 5e             5824 	.byte	94
00001b9d 3c             5825 	.byte	60
00001b9e 00000000*      5826 	.word	.LDW_4d535c8
00001ba2 00             5827 	.byte	0
                        5828 
                        5829 .LDW_55c5c38:
00001ba3 20             5830 	.byte	32
                        5831 
00001ba4 00             5832 	.byte	0
                        5833 
00001ba5 00             5834 	.byte	0
                        5835 
                        5836 .LDW_4d5d238:
00001ba6 16             5837 	.byte	22
00001ba7 44656d5f4576   5838 	.strz	"Dem_EvMemIsOriginSupported"
00001bad 4d656d49734f 
00001bb3 726967696e53 
00001bb9 7570706f7274 
00001bbf 656400 
00001bc2 20             5839 	.byte	32
00001bc3 14             5840 	.byte	20
00001bc4 39             5841 	.byte	57
00001bc5 00000000*      5842 	.word	.LDW_4bdd788
00001bc9 00             5843 	.byte	0
00001bca 03             5844 	.byte	3
00001bcb 00             5845 	.byte	0
00001bcc 01             5846 	.byte	1
00001bcd 00             5847 	.byte	0
00001bce 01             5848 	.byte	1
                        5849 
                        5850 .LDW_55ecfb8:
00001bcf 10             5851 	.byte	16
00001bd0 6f726967696e   5852 	.strz	"origin"
00001bd6 00 
00001bd7 20             5853 	.byte	32
00001bd8 42             5854 	.byte	66
00001bd9 39             5855 	.byte	57
00001bda 00000000*      5856 	.word	.LDW_4cd1348
00001bde 00             5857 	.byte	0
                        5858 
                        5859 .LDW_55c6c28:
00001bdf 20             5860 	.byte	32
                        5861 
00001be0 00             5862 	.byte	0
                        5863 
00001be1 00             5864 	.byte	0
                        5865 
                        5866 .LDW_4d5cbb0:
00001be2 16             5867 	.byte	22
00001be3 44656d5f4576   5868 	.strz	"Dem_EvMemGetEvMemIdFromOrigin"
00001be9 4d656d476574 
00001bef 45764d656d49 
00001bf5 6446726f6d4f 
00001bfb 726967696e00 
00001c01 25             5869 	.byte	37
00001c02 12             5870 	.byte	18
00001c03 39             5871 	.byte	57
00001c04 00000000*      5872 	.word	.LDW_491ba88

                                                                      Page 122
                                                              C:\Users\nhuliyap\AppData\Local\Temp\gh_00002581.s
00001c08 00             5873 	.byte	0
00001c09 03             5874 	.byte	3
00001c0a 00             5875 	.byte	0
00001c0b 01             5876 	.byte	1
00001c0c 00             5877 	.byte	0
00001c0d 01             5878 	.byte	1
                        5879 
                        5880 .LDW_55ed220:
00001c0e 10             5881 	.byte	16
00001c0f 6f726967696e   5882 	.strz	"origin"
00001c15 00 
00001c16 25             5883 	.byte	37
00001c17 43             5884 	.byte	67
00001c18 39             5885 	.byte	57
00001c19 00000000*      5886 	.word	.LDW_4cd1348
00001c1d 00             5887 	.byte	0
                        5888 
                        5889 .LDW_55c6cb8:
00001c1e 20             5890 	.byte	32
                        5891 
00001c1f 00             5892 	.byte	0
                        5893 
00001c20 00             5894 	.byte	0
                        5895 
                        5896 .LDW_573d690:
00001c21 16             5897 	.byte	22
00001c22 44656d5f4576   5898 	.strz	"Dem_EvMemGetEventMemoryLocIdOfDtcWithVisibility"
00001c28 4d656d476574 
00001c2e 4576656e744d 
00001c34 656d6f72794c 
00001c3a 6f6349644f66 
00001c40 447463576974 
00001c46 685669736962 
00001c4c 696c69747900 
00001c52 38             5899 	.byte	56
00001c53 0f             5900 	.byte	15
00001c54 39             5901 	.byte	57
00001c55 00000000*      5902 	.word	.LDW_4d535c8
00001c59 01             5903 	.byte	1
00001c5a 00             5904 	.byte	0
00001c5b 01             5905 	.byte	1
00001c5c 01             5906 	.byte	1
00001c5d 00             5907 	.byte	0
00001c5e 01             5908 	.byte	1
                        5909 
00001c5f 00             5910 	.byte	0
                        5911 
                        5912 .LDW_4d5ecf0:
00001c60 16             5913 	.byte	22
00001c61 44656d5f456e   5914 	.strz	"Dem_EnvIsFFRecNumValid"
00001c67 764973464652 
00001c6d 65634e756d56 
00001c73 616c696400 
00001c78 0e             5915 	.byte	14
00001c79 1e             5916 	.byte	30
00001c7a 7f             5917 	.byte	127
00001c7b 00000000*      5918 	.word	.LDW_4cd1088
00001c7f 00             5919 	.byte	0
00001c80 03             5920 	.byte	3
00001c81 00             5921 	.byte	0
00001c82 01             5922 	.byte	1

                                                                      Page 123
                                                              C:\Users\nhuliyap\AppData\Local\Temp\gh_00002581.s
00001c83 00             5923 	.byte	0
00001c84 01             5924 	.byte	1
                        5925 
                        5926 .LDW_564c948:
00001c85 10             5927 	.byte	16
00001c86 4576656e7449   5928 	.strz	"EventId"
00001c8c 6400 
00001c8e 0e             5929 	.byte	14
00001c8f 45             5930 	.byte	69
00001c90 7f             5931 	.byte	127
00001c91 00000000*      5932 	.word	.LDW_4d53ca8
00001c95 00             5933 	.byte	0
                        5934 
                        5935 .LDW_564d080:
00001c96 10             5936 	.byte	16
00001c97 5265634e756d   5937 	.strz	"RecNumber"
00001c9d 62657200 
00001ca1 0e             5938 	.byte	14
00001ca2 54             5939 	.byte	84
00001ca3 7f             5940 	.byte	127
00001ca4 00000000*      5941 	.word	.LDW_491ba88
00001ca8 00             5942 	.byte	0
                        5943 
                        5944 .LDW_55c8938:
00001ca9 20             5945 	.byte	32
                        5946 
00001caa 00             5947 	.byte	0
                        5948 
00001cab 00             5949 	.byte	0
                        5950 
                        5951 .LDW_4d5ed88:
00001cac 16             5952 	.byte	22
00001cad 44656d5f456e   5953 	.strz	"Dem_EnvGetIndexFromFFRecNum"
00001cb3 76476574496e 
00001cb9 64657846726f 
00001cbf 6d4646526563 
00001cc5 4e756d00 
00001cc9 13             5954 	.byte	19
00001cca 12             5955 	.byte	18
00001ccb 7f             5956 	.byte	127
00001ccc 00000000*      5957 	.word	.LDW_491ba88
00001cd0 00             5958 	.byte	0
00001cd1 03             5959 	.byte	3
00001cd2 00             5960 	.byte	0
00001cd3 01             5961 	.byte	1
00001cd4 00             5962 	.byte	0
00001cd5 01             5963 	.byte	1
                        5964 
                        5965 .LDW_564d0d8:
00001cd6 10             5966 	.byte	16
00001cd7 4576656e7449   5967 	.strz	"EventId"
00001cdd 6400 
00001cdf 13             5968 	.byte	19
00001ce0 3e             5969 	.byte	62
00001ce1 7f             5970 	.byte	127
00001ce2 00000000*      5971 	.word	.LDW_4d53ca8
00001ce6 00             5972 	.byte	0
                        5973 
                        5974 .LDW_564c9f8:
00001ce7 10             5975 	.byte	16
00001ce8 5265634e756d   5976 	.strz	"RecNumber"

                                                                      Page 124
                                                              C:\Users\nhuliyap\AppData\Local\Temp\gh_00002581.s
00001cee 62657200 
00001cf2 13             5977 	.byte	19
00001cf3 4d             5978 	.byte	77
00001cf4 7f             5979 	.byte	127
00001cf5 00000000*      5980 	.word	.LDW_491ba88
00001cf9 00             5981 	.byte	0
                        5982 
                        5983 .LDW_55c86c8:
00001cfa 20             5984 	.byte	32
                        5985 
00001cfb 00             5986 	.byte	0
                        5987 
00001cfc 00             5988 	.byte	0
                        5989 
                        5990 .LDW_5662300:
00001cfd 16             5991 	.byte	22
00001cfe 44656d5f456e   5992 	.strz	"Dem_EnvGetFFRecNumFromIndex"
00001d04 764765744646 
00001d0a 5265634e756d 
00001d10 46726f6d496e 
00001d16 64657800 
00001d1a 19             5993 	.byte	25
00001d1b 12             5994 	.byte	18
00001d1c 7f             5995 	.byte	127
00001d1d 00000000*      5996 	.word	.LDW_491ba88
00001d21 00             5997 	.byte	0
00001d22 03             5998 	.byte	3
00001d23 00             5999 	.byte	0
00001d24 01             6000 	.byte	1
00001d25 00             6001 	.byte	0
00001d26 01             6002 	.byte	1
                        6003 
                        6004 .LDW_564cd10:
00001d27 10             6005 	.byte	16
00001d28 4576656e7449   6006 	.strz	"EventId"
00001d2e 6400 
00001d30 19             6007 	.byte	25
00001d31 3e             6008 	.byte	62
00001d32 7f             6009 	.byte	127
00001d33 00000000*      6010 	.word	.LDW_4d53ca8
00001d37 00             6011 	.byte	0
                        6012 
                        6013 .LDW_564cb58:
00001d38 10             6014 	.byte	16
00001d39 69647800       6015 	.strz	"idx"
00001d3d 19             6016 	.byte	25
00001d3e 4d             6017 	.byte	77
00001d3f 7f             6018 	.byte	127
00001d40 00000000*      6019 	.word	.LDW_491ba88
00001d44 00             6020 	.byte	0
                        6021 
                        6022 .LDW_55c88d8:
00001d45 20             6023 	.byte	32
                        6024 
00001d46 00             6025 	.byte	0
                        6026 
00001d47 00             6027 	.byte	0
                        6028 
                        6029 .LDW_5661098:
00001d48 16             6030 	.byte	22
00001d49 44656d5f456e   6031 	.strz	"Dem_EnvGetFFRecordTrigger"

                                                                      Page 125
                                                              C:\Users\nhuliyap\AppData\Local\Temp\gh_00002581.s
00001d4f 764765744646 
00001d55 5265636f7264 
00001d5b 547269676765 
00001d61 7200 
00001d63 1f             6032 	.byte	31
00001d64 1c             6033 	.byte	28
00001d65 7f             6034 	.byte	127
00001d66 00000000*      6035 	.word	.LDW_515a9b0
00001d6a 00             6036 	.byte	0
00001d6b 03             6037 	.byte	3
00001d6c 00             6038 	.byte	0
00001d6d 01             6039 	.byte	1
00001d6e 00             6040 	.byte	0
00001d6f 01             6041 	.byte	1
                        6042 
                        6043 .LDW_564c7e8:
00001d70 10             6044 	.byte	16
00001d71 5265634e756d   6045 	.strz	"RecNumber"
00001d77 62657200 
00001d7b 1f             6046 	.byte	31
00001d7c 3d             6047 	.byte	61
00001d7d 7f             6048 	.byte	127
00001d7e 00000000*      6049 	.word	.LDW_491ba88
00001d82 00             6050 	.byte	0
                        6051 
                        6052 .LDW_55c8998:
00001d83 20             6053 	.byte	32
                        6054 
00001d84 00             6055 	.byte	0
                        6056 
00001d85 00             6057 	.byte	0
                        6058 
                        6059 .LDW_5661e40:
00001d86 16             6060 	.byte	22
00001d87 44656d5f456e   6061 	.strz	"Dem_EnvIsFFRecNumStored"
00001d8d 764973464652 
00001d93 65634e756d53 
00001d99 746f72656400 
00001d9f 2c             6062 	.byte	44
00001da0 1e             6063 	.byte	30
00001da1 7f             6064 	.byte	127
00001da2 00000000*      6065 	.word	.LDW_4cd1088
00001da6 00             6066 	.byte	0
00001da7 03             6067 	.byte	3
00001da8 00             6068 	.byte	0
00001da9 01             6069 	.byte	1
00001daa 00             6070 	.byte	0
00001dab 01             6071 	.byte	1
                        6072 
                        6073 .LDW_564c688:
00001dac 10             6074 	.byte	16
00001dad 4576656e744d   6075 	.strz	"EventMemory"
00001db3 656d6f727900 
00001db9 2c             6076 	.byte	44
00001dba 56             6077 	.byte	86
00001dbb 7f             6078 	.byte	127
00001dbc 00000000*      6079 	.word	.LDW_551a350
00001dc0 00             6080 	.byte	0
                        6081 
                        6082 .LDW_564cd68:
00001dc1 10             6083 	.byte	16

                                                                      Page 126
                                                              C:\Users\nhuliyap\AppData\Local\Temp\gh_00002581.s
00001dc2 5265634e756d   6084 	.strz	"RecNumber"
00001dc8 62657200 
00001dcc 2c             6085 	.byte	44
00001dcd 69             6086 	.byte	105
00001dce 7f             6087 	.byte	127
00001dcf 00000000*      6088 	.word	.LDW_491ba88
00001dd3 00             6089 	.byte	0
                        6090 
                        6091 .LDW_55c8e48:
00001dd4 20             6092 	.byte	32
                        6093 
                        6094 .LDW_564cbb0:
00001dd5 05             6095 	.byte	5
00001dd6 4576656e7449   6096 	.strz	"EventId"
00001ddc 6400 
00001dde 2e             6097 	.byte	46
00001ddf 15             6098 	.byte	21
00001de0 7f             6099 	.byte	127
00001de1 00000000*      6100 	.word	.LDW_4d53ca8
00001de5 00             6101 	.byte	0
00001de6 00             6102 	.byte	0
                        6103 
00001de7 00             6104 	.byte	0
                        6105 
00001de8 00             6106 	.byte	0
                        6107 
                        6108 .LDW_573d0a0:
00001de9 16             6109 	.byte	22
00001dea 44656d5f456e   6110 	.strz	"Dem_EnvIsEDRNumberValid"
00001df0 764973454452 
00001df6 4e756d626572 
00001dfc 56616c696400 
00001e02 2c             6111 	.byte	44
00001e03 13             6112 	.byte	19
00001e04 76             6113 	.byte	118
00001e05 00000000*      6114 	.word	.LDW_4cd1088
00001e09 01             6115 	.byte	1
00001e0a 00             6116 	.byte	0
00001e0b 01             6117 	.byte	1
00001e0c 01             6118 	.byte	1
00001e0d 00             6119 	.byte	0
00001e0e 01             6120 	.byte	1
                        6121 
00001e0f 00             6122 	.byte	0
                        6123 
                        6124 .LDW_573d858:
00001e10 16             6125 	.byte	22
00001e11 44656d5f456e   6126 	.strz	"Dem_EnvRetrieveEDR"
00001e17 765265747269 
00001e1d 657665454452 
00001e23 00 
00001e24 2d             6127 	.byte	45
00001e25 2a             6128 	.byte	42
00001e26 76             6129 	.byte	118
00001e27 00000000*      6130 	.word	.LDW_55ead00
00001e2b 01             6131 	.byte	1
00001e2c 00             6132 	.byte	0
00001e2d 01             6133 	.byte	1
00001e2e 01             6134 	.byte	1
00001e2f 00             6135 	.byte	0
00001e30 01             6136 	.byte	1

                                                                      Page 127
                                                              C:\Users\nhuliyap\AppData\Local\Temp\gh_00002581.s
                        6137 
00001e31 00             6138 	.byte	0
                        6139 
                        6140 .LDW_573cda8:
00001e32 16             6141 	.byte	22
00001e33 44656d5f456e   6142 	.strz	"Dem_EnvRetrieveFF"
00001e39 765265747269 
00001e3f 657665464600 
00001e45 2e             6143 	.byte	46
00001e46 27             6144 	.byte	39
00001e47 76             6145 	.byte	118
00001e48 00000000*      6146 	.word	.LDW_564c1b8
00001e4c 01             6147 	.byte	1
00001e4d 00             6148 	.byte	0
00001e4e 01             6149 	.byte	1
00001e4f 01             6150 	.byte	1
00001e50 00             6151 	.byte	0
00001e51 01             6152 	.byte	1
                        6153 
00001e52 00             6154 	.byte	0
                        6155 
                        6156 .LDW_573cab0:
00001e53 16             6157 	.byte	22
00001e54 44656d5f456e   6158 	.strz	"Dem_EnvGetSizeOfEDR"
00001e5a 764765745369 
00001e60 7a654f664544 
00001e66 5200 
00001e68 30             6159 	.byte	48
00001e69 30             6160 	.byte	48
00001e6a 76             6161 	.byte	118
00001e6b 00000000*      6162 	.word	.LDW_55ebb18
00001e6f 01             6163 	.byte	1
00001e70 00             6164 	.byte	0
00001e71 01             6165 	.byte	1
00001e72 01             6166 	.byte	1
00001e73 00             6167 	.byte	0
00001e74 01             6168 	.byte	1
                        6169 
00001e75 00             6170 	.byte	0
                        6171 
                        6172 .LDW_573dd18:
00001e76 16             6173 	.byte	22
00001e77 44656d5f456e   6174 	.strz	"Dem_EnvGetSizeOfED"
00001e7d 764765745369 
00001e83 7a654f664544 
00001e89 00 
00001e8a 31             6175 	.byte	49
00001e8b 30             6176 	.byte	48
00001e8c 76             6177 	.byte	118
00001e8d 00000000*      6178 	.word	.LDW_55ebb18
00001e91 01             6179 	.byte	1
00001e92 00             6180 	.byte	0
00001e93 01             6181 	.byte	1
00001e94 01             6182 	.byte	1
00001e95 00             6183 	.byte	0
00001e96 01             6184 	.byte	1
                        6185 
00001e97 00             6186 	.byte	0
                        6187 
                        6188 .LDW_573d8f0:
00001e98 16             6189 	.byte	22

                                                                      Page 128
                                                              C:\Users\nhuliyap\AppData\Local\Temp\gh_00002581.s
00001e99 44656d5f456e   6190 	.strz	"Dem_EnvGetSizeOfFF"
00001e9f 764765745369 
00001ea5 7a654f664646 
00001eab 00 
00001eac 32             6191 	.byte	50
00001ead 29             6192 	.byte	41
00001eae 76             6193 	.byte	118
00001eaf 00000000*      6194 	.word	.LDW_564bf50
00001eb3 01             6195 	.byte	1
00001eb4 00             6196 	.byte	0
00001eb5 01             6197 	.byte	1
00001eb6 01             6198 	.byte	1
00001eb7 00             6199 	.byte	0
00001eb8 01             6200 	.byte	1
                        6201 
00001eb9 00             6202 	.byte	0
                        6203 
                        6204 .LDW_5661558:
00001eba 16             6205 	.byte	22
00001ebb 44656d5f4474   6206 	.strz	"Dem_DtcIsSuppressed"
00001ec1 634973537570 
00001ec7 707265737365 
00001ecd 6400 
00001ecf 64             6207 	.byte	100
00001ed0 1e             6208 	.byte	30
00001ed1 8101           6209 	.byte	129,1
00001ed3 00000000*      6210 	.word	.LDW_4cd1088
00001ed7 00             6211 	.byte	0
00001ed8 03             6212 	.byte	3
00001ed9 00             6213 	.byte	0
00001eda 01             6214 	.byte	1
00001edb 00             6215 	.byte	0
00001edc 01             6216 	.byte	1
                        6217 
                        6218 .LDW_564ce70:
00001edd 10             6219 	.byte	16
00001ede 647463496400   6220 	.strz	"dtcId"
00001ee4 64             6221 	.byte	100
00001ee5 41             6222 	.byte	65
00001ee6 8101           6223 	.byte	129,1
00001ee8 00000000*      6224 	.word	.LDW_4ca01a8
00001eec 00             6225 	.byte	0
                        6226 
                        6227 .LDW_55c8c98:
00001eed 20             6228 	.byte	32
                        6229 
00001eee 00             6230 	.byte	0
                        6231 
00001eef 00             6232 	.byte	0
                        6233 
                        6234 .LDW_5661d10:
00001ef0 16             6235 	.byte	22
00001ef1 44656d5f4474   6236 	.strz	"Dem_DtcIsSupported"
00001ef7 634973537570 
00001efd 706f72746564 
00001f03 00 
00001f04 78             6237 	.byte	120
00001f05 1e             6238 	.byte	30
00001f06 8101           6239 	.byte	129,1
00001f08 00000000*      6240 	.word	.LDW_4cd1088
00001f0c 00             6241 	.byte	0

                                                                      Page 129
                                                              C:\Users\nhuliyap\AppData\Local\Temp\gh_00002581.s
00001f0d 03             6242 	.byte	3
00001f0e 00             6243 	.byte	0
00001f0f 01             6244 	.byte	1
00001f10 00             6245 	.byte	0
00001f11 01             6246 	.byte	1
                        6247 
                        6248 .LDW_564cc60:
00001f12 10             6249 	.byte	16
00001f13 647463494400   6250 	.strz	"dtcID"
00001f19 78             6251 	.byte	120
00001f1a 40             6252 	.byte	64
00001f1b 8101           6253 	.byte	129,1
00001f1d 00000000*      6254 	.word	.LDW_4ca01a8
00001f21 00             6255 	.byte	0
                        6256 
                        6257 .LDW_55c8cf8:
00001f22 20             6258 	.byte	32
                        6259 
00001f23 00             6260 	.byte	0
                        6261 
00001f24 00             6262 	.byte	0
                        6263 
                        6264 .LDW_56615f0:
00001f25 16             6265 	.byte	22
00001f26 44656d5f4765   6266 	.strz	"Dem_GetDtcCode"
00001f2c 74447463436f 
00001f32 646500 
00001f35 c301           6267 	.byte	195,1
00001f37 1c             6268 	.byte	28
00001f38 8101           6269 	.byte	129,1
00001f3a 00000000*      6270 	.word	.LDW_4c9fb20
00001f3e 00             6271 	.byte	0
00001f3f 03             6272 	.byte	3
00001f40 00             6273 	.byte	0
00001f41 01             6274 	.byte	1
00001f42 00             6275 	.byte	0
00001f43 01             6276 	.byte	1
                        6277 
                        6278 .LDW_564d188:
00001f44 10             6279 	.byte	16
00001f45 647463496400   6280 	.strz	"dtcId"
00001f4b c301           6281 	.byte	195,1
00001f4d 3a             6282 	.byte	58
00001f4e 8101           6283 	.byte	129,1
00001f50 00000000*      6284 	.word	.LDW_4ca01a8
00001f54 00             6285 	.byte	0
                        6286 
                        6287 .LDW_56956a0:
00001f55 20             6288 	.byte	32
                        6289 
00001f56 00             6290 	.byte	0
                        6291 
00001f57 00             6292 	.byte	0
                        6293 
                        6294 .LDW_573d138:
00001f58 16             6295 	.byte	22
00001f59 44656d5f4474   6296 	.strz	"Dem_DtcIdFromDtcCode"
00001f5f 63496446726f 
00001f65 6d447463436f 
00001f6b 646500 
00001f6e db01           6297 	.byte	219,1

                                                                      Page 130
                                                              C:\Users\nhuliyap\AppData\Local\Temp\gh_00002581.s
00001f70 0f             6298 	.byte	15
00001f71 8101           6299 	.byte	129,1
00001f73 00000000*      6300 	.word	.LDW_4ca01a8
00001f77 01             6301 	.byte	1
00001f78 00             6302 	.byte	0
00001f79 01             6303 	.byte	1
00001f7a 01             6304 	.byte	1
00001f7b 00             6305 	.byte	0
00001f7c 01             6306 	.byte	1
                        6307 
00001f7d 00             6308 	.byte	0
                        6309 
                        6310 .LDW_56617b8:
00001f7e 14             6311 	.byte	20
00001f7f 44656d5f4576   6312 	.strz	"Dem_EvMemGetMemoryLocIdOfDtcAndOriginWithVisibility"
00001f85 4d656d476574 
00001f8b 4d656d6f7279 
00001f91 4c6f6349644f 
00001f97 66447463416e 
00001f9d 644f72696769 
00001fa3 6e5769746856 
00001fa9 69736962696c 
00001faf 69747900 
00001fb3 18             6313 	.byte	24
00001fb4 0e             6314 	.byte	14
00001fb5 01             6315 	.byte	1
00001fb6 00000000*      6316 	.word	.LDW_4d535c8
00001fba 00000000*      6317 	.word	_Dem_EvMemGetMemoryLocIdOfDtcAndOriginWithVisibility
00001fbe 00000000*      6318 	.word	___ghs_eofn_Dem_EvMemGetMemoryLocIdOfDtcAndOriginWithVisibility
00001fc2 0153           6319 	.byte	1,83
00001fc4 02             6320 	.byte	2
00001fc5 00             6321 	.byte	0
00001fc6 02             6322 	.byte	2
00001fc7 00             6323 	.byte	0
00001fc8 00             6324 	.byte	0
00001fc9 00             6325 	.byte	0
00001fca 00             6326 	.byte	0
00001fcb 01             6327 	.byte	1
00001fcc 01             6328 	.byte	1
00001fcd 00             6329 	.byte	0
00001fce 01             6330 	.byte	1
                        6331 
                        6332 	.section	.debug_abbrev
00000133 14             6333 	.byte	20
00000134 2e             6334 	.byte	46
00000135 01             6335 	.byte	1
00000136 0308           6336 	.byte	3,8
00000138 3b0f           6337 	.byte	59,15
0000013a 390f           6338 	.byte	57,15
0000013c 3a0f           6339 	.byte	58,15
0000013e 4910           6340 	.byte	73,16
00000140 1101           6341 	.byte	17,1
00000142 1201           6342 	.byte	18,1
00000144 400a           6343 	.byte	64,10
00000146 8341           6344 	.byte	131,65
00000148 0f             6345 	.byte	15
00000149 8741           6346 	.byte	135,65
0000014b 0d             6347 	.byte	13
0000014c 8541           6348 	.byte	133,65
0000014e 0f             6349 	.byte	15
0000014f 8641           6350 	.byte	134,65

                                                                      Page 131
                                                              C:\Users\nhuliyap\AppData\Local\Temp\gh_00002581.s
00000151 0d             6351 	.byte	13
00000152 9241           6352 	.byte	146,65
00000154 0f             6353 	.byte	15
00000155 3c0c           6354 	.byte	60,12
00000157 200b           6355 	.byte	32,11
00000159 3f0c           6356 	.byte	63,12
0000015b 320b           6357 	.byte	50,11
0000015d 4c0b           6358 	.byte	76,11
0000015f 270c           6359 	.byte	39,12
00000161 0000           6360 	.byte	0,0
                        6361 
                        6362 	.section	.debug_frame
                        6363 .LDW_4fe01a8:
00000090 00000000*      6364 	.word	.LDW_unq_4-.LDW_unq_3
                        6365 .LDW_unq_3:
00000094 00000000*      6366 	.word	.LDW_566a730
00000098 00000000*      6367 	.word	_Dem_EvMemGetMemoryLocIdOfDtcAndOriginWithVisibility
0000009c 00000000*      6368 	.word	___ghs_eofn_Dem_EvMemGetMemoryLocIdOfDtcAndOriginWithVisibility-_Dem_EvMemGetMemoryLocIdOfDtcAndOriginWithVisibility
000000a0 01             6369 	.byte	1
000000a1 00000000*      6370 	.word	.LDW11
000000a5 00             6371 	.byte	0
000000a6 00             6372 	.byte	0
000000a7 00             6373 	.byte	0
                        6374 .LDW_unq_4:
                        6375 	.section	.debug_line
0000191b 000502         6376 	.byte	0,5,2
0000191e 00000000*      6377 	.word	_Dem_EvMemGetMemoryLocIdOfDtcAndOriginWithVisibility
00001922 03             6378 	.byte	3
00001923 18             6379 	.byte	24
00001924 02             6380 	.byte	2
00001925 00             6381 	.byte	0
00001926 01             6382 	.byte	1
00001927 06             6383 	.byte	6
00001928 13             6384 	.byte	19
00001929 000502         6385 	.byte	0,5,2
0000192c 00000000*      6386 	.word	.LDWlin1
00001930 0b             6387 	.byte	11
00001931 0b             6388 	.byte	11
00001932 06             6389 	.byte	6
00001933 000502         6390 	.byte	0,5,2
00001936 00000000*      6391 	.word	.LDWlin2
0000193a 02             6392 	.byte	2
0000193b 00             6393 	.byte	0
0000193c 02             6394 	.byte	2
0000193d 02             6395 	.byte	2
0000193e 000101         6396 	.byte	0,1,1
                        6397 	.section	.debug_info
                        6398 .LDW_564d2e8:
00001fcf 0f             6399 	.byte	15
00001fd0 447463496400   6400 	.strz	"DtcId"
00001fd6 18             6401 	.byte	24
00001fd7 50             6402 	.byte	80
00001fd8 01             6403 	.byte	1
00001fd9 00000000*      6404 	.word	.LDW_4ca01a8
00001fdd 00             6405 	.byte	0
00001fde 0156           6406 	.byte	1,86
                        6407 
                        6408 	.section	.debug_abbrev
00000163 0f             6409 	.byte	15
00000164 05             6410 	.byte	5
00000165 00             6411 	.byte	0

                                                                      Page 132
                                                              C:\Users\nhuliyap\AppData\Local\Temp\gh_00002581.s
00000166 0308           6412 	.byte	3,8
00000168 3b0f           6413 	.byte	59,15
0000016a 390f           6414 	.byte	57,15
0000016c 3a0f           6415 	.byte	58,15
0000016e 4910           6416 	.byte	73,16
00000170 4b0c           6417 	.byte	75,12
00000172 020a           6418 	.byte	2,10
00000174 0000           6419 	.byte	0,0
                        6420 
                        6421 	.section	.debug_info
                        6422 .LDW_564d4f8:
00001fe0 0f             6423 	.byte	15
00001fe1 4454434f7269   6424 	.strz	"DTCOrigin"
00001fe7 67696e00 
00001feb 18             6425 	.byte	24
00001fec 69             6426 	.byte	105
00001fed 01             6427 	.byte	1
00001fee 00000000*      6428 	.word	.LDW_4cd1348
00001ff2 00             6429 	.byte	0
00001ff3 0157           6430 	.byte	1,87
                        6431 
                        6432 .LDW_564db28:
00001ff5 0f             6433 	.byte	15
00001ff6 536861646f77   6434 	.strz	"ShadowEntriesVisible"
00001ffc 456e74726965 
00002002 735669736962 
00002008 6c6500 
0000200b 18             6435 	.byte	24
0000200c 8601           6436 	.byte	134,1
0000200e 01             6437 	.byte	1
0000200f 00000000*      6438 	.word	.LDW_4cd1088
00002013 00             6439 	.byte	0
00002014 0158           6440 	.byte	1,88
                        6441 
                        6442 .LDW_5695520:
00002016 1d             6443 	.byte	29
00002017 00000000*      6444 	.word	.LDW01
0000201b 00000000*      6445 	.word	.LDW11
                        6446 
                        6447 	.section	.debug_abbrev
00000176 1d             6448 	.byte	29
00000177 0b             6449 	.byte	11
00000178 01             6450 	.byte	1
00000179 1101           6451 	.byte	17,1
0000017b 1201           6452 	.byte	18,1
0000017d 0000           6453 	.byte	0,0
                        6454 
                        6455 	.section	.debug_info
0000201f 00             6456 	.byte	0
                        6457 
00002020 00             6458 	.byte	0
                        6459 
                        6460 .LDW_56611c8:
00002021 15             6461 	.byte	21
00002022 44656d5f4576   6462 	.strz	"Dem_EvMemInvalidateSyncDataRecord"
00002028 4d656d496e76 
0000202e 616c69646174 
00002034 6553796e6344 
0000203a 617461526563 
00002040 6f726400 
00002044 3e             6463 	.byte	62

                                                                      Page 133
                                                              C:\Users\nhuliyap\AppData\Local\Temp\gh_00002581.s
00002045 11             6464 	.byte	17
00002046 01             6465 	.byte	1
00002047 00             6466 	.byte	0
00002048 03             6467 	.byte	3
00002049 00             6468 	.byte	0
0000204a 01             6469 	.byte	1
0000204b 00             6470 	.byte	0
0000204c 01             6471 	.byte	1
                        6472 
                        6473 .LDW_5695400:
0000204d 20             6474 	.byte	32
                        6475 
0000204e 00             6476 	.byte	0
                        6477 
0000204f 00             6478 	.byte	0
                        6479 
                        6480 .LDW_5661850:
00002050 14             6481 	.byte	20
00002051 44656d5f4576   6482 	.strz	"Dem_EvMemReqSyncDataRecord"
00002057 4d656d526571 
0000205d 53796e634461 
00002063 74615265636f 
00002069 726400 
0000206c 48             6483 	.byte	72
0000206d 1a             6484 	.byte	26
0000206e 01             6485 	.byte	1
0000206f 00000000*      6486 	.word	.LDW_4cd1088
00002073 00000000*      6487 	.word	_Dem_EvMemReqSyncDataRecord..C.3A.5C_ECU2.5CECU_Rivian_A1.5CTarget.5Crepo_projects.5CpRealEcu.5CcR_R2023.2E09.2E15.5Cmake.5Coutput.5Cobjects.5CDem_EvMemApi.
00002077 00000000*      6488 	.word	___ghs_eofn_Dem_EvMemReqSyncDataRecord
0000207b 0153           6489 	.byte	1,83
0000207d 02             6490 	.byte	2
0000207e 00             6491 	.byte	0
0000207f 02             6492 	.byte	2
00002080 00             6493 	.byte	0
00002081 00             6494 	.byte	0
00002082 00             6495 	.byte	0
00002083 00             6496 	.byte	0
00002084 00             6497 	.byte	0
00002085 01             6498 	.byte	1
00002086 00             6499 	.byte	0
00002087 01             6500 	.byte	1
                        6501 
                        6502 	.section	.debug_frame
                        6503 .LDW_5134e58:
000000a8 00000000*      6504 	.word	.LDW_unq_6-.LDW_unq_5
                        6505 .LDW_unq_5:
000000ac 00000000*      6506 	.word	.LDW_566a730
000000b0 00000000*      6507 	.word	_Dem_EvMemReqSyncDataRecord..C.3A.5C_ECU2.5CECU_Rivian_A1.5CTarget.5Crepo_projects.5CpRealEcu.5CcR_R2023.2E09.2E15.5Cmake.5Coutput.5Cobjects.5CDem_EvMemApi.
000000b4 00000000*      6508 	.word	___ghs_eofn_Dem_EvMemReqSyncDataRecord-_Dem_EvMemReqSyncDataRecord..C.3A.5C_ECU2.5CECU_Rivian_A1.5CTarget.5Crepo_projects.5CpRealEcu.5CcR_R2023.2E09.2E15.5Cmake.5Coutput.5Cobjects.5CDem_EvMemApi.
000000b8 01             6509 	.byte	1
000000b9 00000000*      6510 	.word	.LDW31
000000bd 00             6511 	.byte	0
000000be 00             6512 	.byte	0
000000bf 00             6513 	.byte	0
                        6514 .LDW_unq_6:
                        6515 	.section	.debug_line
00001941 000502         6516 	.byte	0,5,2
00001944 00000000*      6517 	.word	_Dem_EvMemReqSyncDataRecord..C.3A.5C_ECU2.5CECU_Rivian_A1.5CTarget.5Crepo_projects.5CpRealEcu.5CcR_R2023.2E09.2E15.5Cmake.5Coutput.5Cobjects.5CDem_EvMemApi.
00001948 03             6518 	.byte	3
00001949 c800           6519 	.byte	200,0
0000194b 02             6520 	.byte	2

                                                                      Page 134
                                                              C:\Users\nhuliyap\AppData\Local\Temp\gh_00002581.s
0000194c 00             6521 	.byte	0
0000194d 01             6522 	.byte	1
0000194e 06             6523 	.byte	6
0000194f 03             6524 	.byte	3
00001950 04             6525 	.byte	4
00001951 02             6526 	.byte	2
00001952 04             6527 	.byte	4
00001953 01             6528 	.byte	1
00001954 1c             6529 	.byte	28
00001955 000502         6530 	.byte	0,5,2
00001958 00000000*      6531 	.word	.LDWlin3
0000195c 03             6532 	.byte	3
0000195d 04             6533 	.byte	4
0000195e 02             6534 	.byte	2
0000195f 00             6535 	.byte	0
00001960 01             6536 	.byte	1
00001961 03             6537 	.byte	3
00001962 7d             6538 	.byte	125
00001963 02             6539 	.byte	2
00001964 02             6540 	.byte	2
00001965 01             6541 	.byte	1
00001966 0b             6542 	.byte	11
00001967 13             6543 	.byte	19
00001968 24             6544 	.byte	36
00001969 02             6545 	.byte	2
0000196a 00             6546 	.byte	0
0000196b 0b             6547 	.byte	11
0000196c 34             6548 	.byte	52
0000196d 1c             6549 	.byte	28
0000196e 02             6550 	.byte	2
0000196f 02             6551 	.byte	2
00001970 000101         6552 	.byte	0,1,1
                        6553 	.section	.debug_info
                        6554 .LDW_564d238:
00002088 0f             6555 	.byte	15
00002089 447463496400   6556 	.strz	"DtcId"
0000208f 48             6557 	.byte	72
00002090 43             6558 	.byte	67
00002091 01             6559 	.byte	1
00002092 00000000*      6560 	.word	.LDW_4ca01a8
00002096 00             6561 	.byte	0
00002097 0156           6562 	.byte	1,86
                        6563 
                        6564 .LDW_564dad0:
00002099 0f             6565 	.byte	15
0000209a 4454434f7269   6566 	.strz	"DTCOrigin"
000020a0 67696e00 
000020a4 48             6567 	.byte	72
000020a5 5c             6568 	.byte	92
000020a6 01             6569 	.byte	1
000020a7 00000000*      6570 	.word	.LDW_4cd1348
000020ab 00             6571 	.byte	0
000020ac 0157           6572 	.byte	1,87
                        6573 
                        6574 .LDW_5695430:
000020ae 1d             6575 	.byte	29
000020af 00000000*      6576 	.word	.LDW21
000020b3 00000000*      6577 	.word	.LDW31
                        6578 
                        6579 .LDW_564d4a0:
000020b7 05             6580 	.byte	5

                                                                      Page 135
                                                              C:\Users\nhuliyap\AppData\Local\Temp\gh_00002581.s
000020b8 72657475726e   6581 	.strz	"returnStatus"
000020be 537461747573 
000020c4 00 
000020c5 4b             6582 	.byte	75
000020c6 16             6583 	.byte	22
000020c7 01             6584 	.byte	1
000020c8 00000000*      6585 	.word	.LDW_4cd1088
000020cc 00             6586 	.byte	0
000020cd 00             6587 	.byte	0
                        6588 
000020ce 00             6589 	.byte	0
                        6590 
000020cf 00             6591 	.byte	0
                        6592 
                        6593 .LDW_5661f70:
000020d0 13             6594 	.byte	19
000020d1 44656d5f4576   6595 	.strz	"Dem_EvMemApiMainFunction"
000020d7 4d656d417069 
000020dd 4d61696e4675 
000020e3 6e6374696f6e 
000020e9 00 
000020ea 60             6596 	.byte	96
000020eb 06             6597 	.byte	6
000020ec 01             6598 	.byte	1
000020ed 00000000*      6599 	.word	_Dem_EvMemApiMainFunction
000020f1 00000000*      6600 	.word	___ghs_eofn_Dem_EvMemApiMainFunction
000020f5 0153           6601 	.byte	1,83
000020f7 828080800b     6602 	.byte	130,128,128,128,11
000020fc 0c             6603 	.byte	12
000020fd 03             6604 	.byte	3
000020fe 0c             6605 	.byte	12
000020ff 00             6606 	.byte	0
00002100 00             6607 	.byte	0
00002101 00             6608 	.byte	0
00002102 01             6609 	.byte	1
00002103 01             6610 	.byte	1
00002104 00             6611 	.byte	0
00002105 01             6612 	.byte	1
                        6613 
                        6614 	.section	.debug_abbrev
0000017f 13             6615 	.byte	19
00000180 2e             6616 	.byte	46
00000181 01             6617 	.byte	1
00000182 0308           6618 	.byte	3,8
00000184 3b0f           6619 	.byte	59,15
00000186 390f           6620 	.byte	57,15
00000188 3a0f           6621 	.byte	58,15
0000018a 1101           6622 	.byte	17,1
0000018c 1201           6623 	.byte	18,1
0000018e 400a           6624 	.byte	64,10
00000190 8341           6625 	.byte	131,65
00000192 0f             6626 	.byte	15
00000193 8741           6627 	.byte	135,65
00000195 0d             6628 	.byte	13
00000196 8541           6629 	.byte	133,65
00000198 0f             6630 	.byte	15
00000199 8641           6631 	.byte	134,65
0000019b 0d             6632 	.byte	13
0000019c 9241           6633 	.byte	146,65
0000019e 0f             6634 	.byte	15
0000019f 3c0c           6635 	.byte	60,12

                                                                      Page 136
                                                              C:\Users\nhuliyap\AppData\Local\Temp\gh_00002581.s
000001a1 200b           6636 	.byte	32,11
000001a3 3f0c           6637 	.byte	63,12
000001a5 320b           6638 	.byte	50,11
000001a7 4c0b           6639 	.byte	76,11
000001a9 270c           6640 	.byte	39,12
000001ab 0000           6641 	.byte	0,0
                        6642 
                        6643 	.section	.debug_frame
                        6644 .LDW_5135058:
000000c0 00000000*      6645 	.word	.LDW_unq_8-.LDW_unq_7
                        6646 .LDW_unq_7:
000000c4 00000000*      6647 	.word	.LDW_566a730
000000c8 00000000*      6648 	.word	_Dem_EvMemApiMainFunction
000000cc 00000000*      6649 	.word	___ghs_eofn_Dem_EvMemApiMainFunction-_Dem_EvMemApiMainFunction
000000d0 44             6650 	.byte	68
000000d1 9f             6651 	.byte	159
000000d2 00             6652 	.byte	0
000000d3 40             6653 	.byte	64
000000d4 9d             6654 	.byte	157
000000d5 04             6655 	.byte	4
000000d6 40             6656 	.byte	64
000000d7 9c             6657 	.byte	156
000000d8 08             6658 	.byte	8
000000d9 01             6659 	.byte	1
000000da 00000000*      6660 	.word	.LDW51
000000de 00             6661 	.byte	0
000000df 00             6662 	.byte	0
                        6663 .LDW_unq_8:
                        6664 	.section	.debug_line
00001973 000502         6665 	.byte	0,5,2
00001976 00000000*      6666 	.word	_Dem_EvMemApiMainFunction
0000197a 03             6667 	.byte	3
0000197b df00           6668 	.byte	223,0
0000197d 02             6669 	.byte	2
0000197e 00             6670 	.byte	0
0000197f 01             6671 	.byte	1
00001980 06             6672 	.byte	6
00001981 03             6673 	.byte	3
00001982 08             6674 	.byte	8
00001983 02             6675 	.byte	2
00001984 04             6676 	.byte	4
00001985 01             6677 	.byte	1
00001986 1c             6678 	.byte	28
00001987 000502         6679 	.byte	0,5,2
0000198a 00000000*      6680 	.word	.LDWlin4
0000198e 0c             6681 	.byte	12
0000198f 14             6682 	.byte	20
00001990 03             6683 	.byte	3
00001991 7d             6684 	.byte	125
00001992 02             6685 	.byte	2
00001993 04             6686 	.byte	4
00001994 01             6687 	.byte	1
00001995 000502         6688 	.byte	0,5,2
00001998 00000000*      6689 	.word	.LDWlin5
0000199c 03             6690 	.byte	3
0000199d 06             6691 	.byte	6
0000199e 02             6692 	.byte	2
0000199f 00             6693 	.byte	0
000019a0 01             6694 	.byte	1
000019a1 03             6695 	.byte	3
000019a2 7e             6696 	.byte	126

                                                                      Page 137
                                                              C:\Users\nhuliyap\AppData\Local\Temp\gh_00002581.s
000019a3 02             6697 	.byte	2
000019a4 04             6698 	.byte	4
000019a5 01             6699 	.byte	1
000019a6 0b             6700 	.byte	11
000019a7 000502         6701 	.byte	0,5,2
000019aa 00000000*      6702 	.word	.LDWlin6
000019ae 0c             6703 	.byte	12
000019af 0b             6704 	.byte	11
000019b0 000502         6705 	.byte	0,5,2
000019b3 00000000*      6706 	.word	.LDWlin7
000019b7 0b             6707 	.byte	11
000019b8 33             6708 	.byte	51
000019b9 000502         6709 	.byte	0,5,2
000019bc 00000000*      6710 	.word	.LDWlin8
000019c0 0b             6711 	.byte	11
000019c1 0b             6712 	.byte	11
000019c2 000502         6713 	.byte	0,5,2
000019c5 00000000*      6714 	.word	.LDWlin9
000019c9 0b             6715 	.byte	11
000019ca 02             6716 	.byte	2
000019cb 00             6717 	.byte	0
000019cc 0b             6718 	.byte	11
000019cd 02             6719 	.byte	2
000019ce 00             6720 	.byte	0
000019cf 0b             6721 	.byte	11
000019d0 1b             6722 	.byte	27
000019d1 02             6723 	.byte	2
000019d2 00             6724 	.byte	0
000019d3 0c             6725 	.byte	12
000019d4 1d             6726 	.byte	29
000019d5 02             6727 	.byte	2
000019d6 04             6728 	.byte	4
000019d7 000101         6729 	.byte	0,1,1
                        6730 	.section	.debug_info
                        6731 .LDW_56951c0:
00002106 1d             6732 	.byte	29
00002107 00000000*      6733 	.word	.LDW41
0000210b 00000000*      6734 	.word	.LDW51
                        6735 
                        6736 .LDW_564db80:
0000210f 04             6737 	.byte	4
00002110 4c6f63496400   6738 	.strz	"LocId"
00002116 63             6739 	.byte	99
00002117 11             6740 	.byte	17
00002118 01             6741 	.byte	1
00002119 00000000*      6742 	.word	.LDW_4d535c8
0000211d 00             6743 	.byte	0
0000211e 00             6744 	.byte	0
0000211f 015a           6745 	.byte	1,90
                        6746 
                        6747 .LDW_564d290:
00002121 04             6748 	.byte	4
00002122 447463496453   6749 	.strz	"DtcIdStored"
00002128 746f72656400 
0000212e 64             6750 	.byte	100
0000212f 12             6751 	.byte	18
00002130 01             6752 	.byte	1
00002131 00000000*      6753 	.word	.LDW_4ca01a8
00002135 00             6754 	.byte	0
00002136 00             6755 	.byte	0
00002137 0156           6756 	.byte	1,86

                                                                      Page 138
                                                              C:\Users\nhuliyap\AppData\Local\Temp\gh_00002581.s
                        6757 
                        6758 .LDW_564d918:
00002139 04             6759 	.byte	4
0000213a 4454434f7269   6760 	.strz	"DTCOriginStored"
00002140 67696e53746f 
00002146 72656400 
0000214a 65             6761 	.byte	101
0000214b 16             6762 	.byte	22
0000214c 01             6763 	.byte	1
0000214d 00000000*      6764 	.word	.LDW_4cd1348
00002151 00             6765 	.byte	0
00002152 00             6766 	.byte	0
00002153 0157           6767 	.byte	1,87
                        6768 
                        6769 .LDW_564d1e0:
00002155 04             6770 	.byte	4
00002156 526571436f75   6771 	.strz	"ReqCounterStored"
0000215c 6e7465725374 
00002162 6f72656400 
00002167 66             6772 	.byte	102
00002168 0a             6773 	.byte	10
00002169 01             6774 	.byte	1
0000216a 00000000*      6775 	.word	.LDW_491ba88
0000216e 00             6776 	.byte	0
0000216f 00             6777 	.byte	0
00002170 016c           6778 	.byte	1,108
                        6779 
00002172 00             6780 	.byte	0
                        6781 
00002173 00             6782 	.byte	0
                        6783 
                        6784 .LDW_56612f8:
00002174 14             6785 	.byte	20
00002175 44656d5f4469   6786 	.strz	"Dem_DisableDTCRecordUpdate"
0000217b 7361626c6544 
00002181 54435265636f 
00002187 726455706461 
0000218d 746500 
00002190 8401           6787 	.byte	132,1
00002192 26             6788 	.byte	38
00002193 01             6789 	.byte	1
00002194 00000000*      6790 	.word	.LDW_564d340
00002198 00000000*      6791 	.word	_Dem_DisableDTCRecordUpdate
0000219c 00000000*      6792 	.word	___ghs_eofn_Dem_DisableDTCRecordUpdate
000021a0 0153           6793 	.byte	1,83
000021a2 02             6794 	.byte	2
000021a3 00             6795 	.byte	0
000021a4 02             6796 	.byte	2
000021a5 00             6797 	.byte	0
000021a6 00             6798 	.byte	0
000021a7 00             6799 	.byte	0
000021a8 00             6800 	.byte	0
000021a9 01             6801 	.byte	1
000021aa 01             6802 	.byte	1
000021ab 00             6803 	.byte	0
000021ac 01             6804 	.byte	1
                        6805 
                        6806 	.section	.debug_frame
                        6807 .LDW_5134dd8:
000000e0 00000000*      6808 	.word	.LDW_unq_a-.LDW_unq_9
                        6809 .LDW_unq_9:

                                                                      Page 139
                                                              C:\Users\nhuliyap\AppData\Local\Temp\gh_00002581.s
000000e4 00000000*      6810 	.word	.LDW_566a730
000000e8 00000000*      6811 	.word	_Dem_DisableDTCRecordUpdate
000000ec 00000000*      6812 	.word	___ghs_eofn_Dem_DisableDTCRecordUpdate-_Dem_DisableDTCRecordUpdate
000000f0 01             6813 	.byte	1
000000f1 00000000*      6814 	.word	.LDW71
000000f5 00             6815 	.byte	0
000000f6 00             6816 	.byte	0
000000f7 00             6817 	.byte	0
                        6818 .LDW_unq_a:
                        6819 	.section	.debug_line
000019da 000502         6820 	.byte	0,5,2
000019dd 00000000*      6821 	.word	_Dem_DisableDTCRecordUpdate
000019e1 06             6822 	.byte	6
000019e2 03             6823 	.byte	3
000019e3 8801           6824 	.byte	136,1
000019e5 02             6825 	.byte	2
000019e6 00             6826 	.byte	0
000019e7 01             6827 	.byte	1
000019e8 000502         6828 	.byte	0,5,2
000019eb 00000000*      6829 	.word	.LDWlin10
000019ef 0b             6830 	.byte	11
000019f0 06             6831 	.byte	6
000019f1 02             6832 	.byte	2
000019f2 02             6833 	.byte	2
000019f3 02             6834 	.byte	2
000019f4 02             6835 	.byte	2
000019f5 000101         6836 	.byte	0,1,1
                        6837 	.section	.debug_info
                        6838 .LDW_564dbd8:
000021ad 0f             6839 	.byte	15
000021ae 44544300       6840 	.strz	"DTC"
000021b2 8401           6841 	.byte	132,1
000021b4 48             6842 	.byte	72
000021b5 01             6843 	.byte	1
000021b6 00000000*      6844 	.word	.LDW_4bde518
000021ba 00             6845 	.byte	0
000021bb 0156           6846 	.byte	1,86
                        6847 
                        6848 .LDW_564dc30:
000021bd 0f             6849 	.byte	15
000021be 4454434f7269   6850 	.strz	"DTCOrigin"
000021c4 67696e00 
000021c8 8401           6851 	.byte	132,1
000021ca 5e             6852 	.byte	94
000021cb 01             6853 	.byte	1
000021cc 00000000*      6854 	.word	.LDW_4cd1348
000021d0 00             6855 	.byte	0
000021d1 0157           6856 	.byte	1,87
                        6857 
                        6858 .LDW_5695250:
000021d3 1d             6859 	.byte	29
000021d4 00000000*      6860 	.word	.LDW61
000021d8 00000000*      6861 	.word	.LDW71
                        6862 
000021dc 00             6863 	.byte	0
                        6864 
000021dd 00             6865 	.byte	0
                        6866 
                        6867 .LDW_5661c78:
000021de 14             6868 	.byte	20
000021df 44656d5f456e   6869 	.strz	"Dem_EnableDTCRecordUpdate"

                                                                      Page 140
                                                              C:\Users\nhuliyap\AppData\Local\Temp\gh_00002581.s
000021e5 61626c654454 
000021eb 435265636f72 
000021f1 645570646174 
000021f7 6500 
000021f9 8d01           6870 	.byte	141,1
000021fb 10             6871 	.byte	16
000021fc 01             6872 	.byte	1
000021fd 00000000*      6873 	.word	.LDW_4ca0888
00002201 00000000*      6874 	.word	_Dem_EnableDTCRecordUpdate
00002205 00000000*      6875 	.word	___ghs_eofn_Dem_EnableDTCRecordUpdate
00002209 0153           6876 	.byte	1,83
0000220b 02             6877 	.byte	2
0000220c 00             6878 	.byte	0
0000220d 02             6879 	.byte	2
0000220e 00             6880 	.byte	0
0000220f 00             6881 	.byte	0
00002210 00             6882 	.byte	0
00002211 00             6883 	.byte	0
00002212 01             6884 	.byte	1
00002213 01             6885 	.byte	1
00002214 00             6886 	.byte	0
00002215 01             6887 	.byte	1
                        6888 
                        6889 	.section	.debug_frame
                        6890 .LDW_5134358:
000000f8 00000000*      6891 	.word	.LDW_unq_c-.LDW_unq_b
                        6892 .LDW_unq_b:
000000fc 00000000*      6893 	.word	.LDW_566a730
00000100 00000000*      6894 	.word	_Dem_EnableDTCRecordUpdate
00000104 00000000*      6895 	.word	___ghs_eofn_Dem_EnableDTCRecordUpdate-_Dem_EnableDTCRecordUpdate
00000108 01             6896 	.byte	1
00000109 00000000*      6897 	.word	.LDW91
0000010d 00             6898 	.byte	0
0000010e 00             6899 	.byte	0
0000010f 00             6900 	.byte	0
                        6901 .LDW_unq_c:
                        6902 	.section	.debug_line
000019f8 000502         6903 	.byte	0,5,2
000019fb 00000000*      6904 	.word	_Dem_EnableDTCRecordUpdate
000019ff 06             6905 	.byte	6
00001a00 03             6906 	.byte	3
00001a01 8d01           6907 	.byte	141,1
00001a03 02             6908 	.byte	2
00001a04 00             6909 	.byte	0
00001a05 01             6910 	.byte	1
00001a06 06             6911 	.byte	6
00001a07 02             6912 	.byte	2
00001a08 02             6913 	.byte	2
00001a09 02             6914 	.byte	2
00001a0a 02             6915 	.byte	2
00001a0b 000101         6916 	.byte	0,1,1
                        6917 	.section	.debug_info
                        6918 .LDW_56955b0:
00002216 1d             6919 	.byte	29
00002217 00000000*      6920 	.word	.LDW81
0000221b 00000000*      6921 	.word	.LDW91
                        6922 
0000221f 00             6923 	.byte	0
                        6924 
00002220 00             6925 	.byte	0
                        6926 

                                                                      Page 141
                                                              C:\Users\nhuliyap\AppData\Local\Temp\gh_00002581.s
                        6927 .LDW_56618e8:
00002221 14             6928 	.byte	20
00002222 44656d5f4765   6929 	.strz	"Dem_GetExtendedDataRecordByDTC"
00002228 74457874656e 
0000222e 646564446174 
00002234 615265636f72 
0000223a 644279445443 
00002240 00 
00002241 9501           6930 	.byte	149,1
00002243 2a             6931 	.byte	42
00002244 01             6932 	.byte	1
00002245 00000000*      6933 	.word	.LDW_55ead00
00002249 00000000*      6934 	.word	_Dem_GetExtendedDataRecordByDTC
0000224d 00000000*      6935 	.word	___ghs_eofn_Dem_GetExtendedDataRecordByDTC
00002251 0153           6936 	.byte	1,83
00002253 828080f80b     6937 	.byte	130,128,128,248,11
00002258 1c             6938 	.byte	28
00002259 03             6939 	.byte	3
0000225a 28             6940 	.byte	40
0000225b 00             6941 	.byte	0
0000225c 00             6942 	.byte	0
0000225d 00             6943 	.byte	0
0000225e 01             6944 	.byte	1
0000225f 01             6945 	.byte	1
00002260 00             6946 	.byte	0
00002261 01             6947 	.byte	1
                        6948 
                        6949 	.section	.debug_frame
                        6950 .LDW_508ebb8:
00000110 00000000*      6951 	.word	.LDW_unq_e-.LDW_unq_d
                        6952 .LDW_unq_d:
00000114 00000000*      6953 	.word	.LDW_566a730
00000118 00000000*      6954 	.word	_Dem_GetExtendedDataRecordByDTC
0000011c 00000000*      6955 	.word	___ghs_eofn_Dem_GetExtendedDataRecordByDTC-_Dem_GetExtendedDataRecordByDTC
00000120 44             6956 	.byte	68
00000121 9f             6957 	.byte	159
00000122 09             6958 	.byte	9
00000123 40             6959 	.byte	64
00000124 9d             6960 	.byte	157
00000125 0d             6961 	.byte	13
00000126 40             6962 	.byte	64
00000127 9c             6963 	.byte	156
00000128 11             6964 	.byte	17
00000129 40             6965 	.byte	64
0000012a 9b             6966 	.byte	155
0000012b 15             6967 	.byte	21
0000012c 40             6968 	.byte	64
0000012d 9a             6969 	.byte	154
0000012e 19             6970 	.byte	25
0000012f 40             6971 	.byte	64
00000130 99             6972 	.byte	153
00000131 1d             6973 	.byte	29
00000132 40             6974 	.byte	64
00000133 98             6975 	.byte	152
00000134 21             6976 	.byte	33
00000135 01             6977 	.byte	1
00000136 00000000*      6978 	.word	.LDW12
0000013a 00             6979 	.byte	0
0000013b 00             6980 	.byte	0
                        6981 .LDW_unq_e:
                        6982 	.section	.debug_line

                                                                      Page 142
                                                              C:\Users\nhuliyap\AppData\Local\Temp\gh_00002581.s
00001a0e 000502         6983 	.byte	0,5,2
00001a11 00000000*      6984 	.word	_Dem_GetExtendedDataRecordByDTC
00001a15 03             6985 	.byte	3
00001a16 9a01           6986 	.byte	154,1
00001a18 02             6987 	.byte	2
00001a19 00             6988 	.byte	0
00001a1a 01             6989 	.byte	1
00001a1b 06             6990 	.byte	6
00001a1c 03             6991 	.byte	3
00001a1d 05             6992 	.byte	5
00001a1e 02             6993 	.byte	2
00001a1f 0a             6994 	.byte	10
00001a20 01             6995 	.byte	1
00001a21 000502         6996 	.byte	0,5,2
00001a24 00000000*      6997 	.word	.LDWlin11
00001a28 0b             6998 	.byte	11
00001a29 0b             6999 	.byte	11
00001a2a 000502         7000 	.byte	0,5,2
00001a2d 00000000*      7001 	.word	.LDWlin12
00001a31 0b             7002 	.byte	11
00001a32 000502         7003 	.byte	0,5,2
00001a35 00000000*      7004 	.word	.LDWlin13
00001a39 0b             7005 	.byte	11
00001a3a 02             7006 	.byte	2
00001a3b 00             7007 	.byte	0
00001a3c 0c             7008 	.byte	12
00001a3d 000502         7009 	.byte	0,5,2
00001a40 00000000*      7010 	.word	.LDWlin14
00001a44 0b             7011 	.byte	11
00001a45 0b             7012 	.byte	11
00001a46 000502         7013 	.byte	0,5,2
00001a49 00000000*      7014 	.word	.LDWlin15
00001a4d 0b             7015 	.byte	11
00001a4e 000502         7016 	.byte	0,5,2
00001a51 00000000*      7017 	.word	.LDWlin16
00001a55 0b             7018 	.byte	11
00001a56 02             7019 	.byte	2
00001a57 00             7020 	.byte	0
00001a58 0c             7021 	.byte	12
00001a59 000502         7022 	.byte	0,5,2
00001a5c 00000000*      7023 	.word	.LDWlin17
00001a60 0b             7024 	.byte	11
00001a61 0b             7025 	.byte	11
00001a62 000502         7026 	.byte	0,5,2
00001a65 00000000*      7027 	.word	.LDWlin18
00001a69 0b             7028 	.byte	11
00001a6a 02             7029 	.byte	2
00001a6b 00             7030 	.byte	0
00001a6c 0c             7031 	.byte	12
00001a6d 000502         7032 	.byte	0,5,2
00001a70 00000000*      7033 	.word	.LDWlin19
00001a74 0b             7034 	.byte	11
00001a75 0b             7035 	.byte	11
00001a76 000502         7036 	.byte	0,5,2
00001a79 00000000*      7037 	.word	.LDWlin20
00001a7d 0b             7038 	.byte	11
00001a7e 13             7039 	.byte	19
00001a7f 02             7040 	.byte	2
00001a80 00             7041 	.byte	0
00001a81 0b             7042 	.byte	11
00001a82 1c             7043 	.byte	28

                                                                      Page 143
                                                              C:\Users\nhuliyap\AppData\Local\Temp\gh_00002581.s
00001a83 000502         7044 	.byte	0,5,2
00001a86 00000000*      7045 	.word	.LDWlin21
00001a8a 0b             7046 	.byte	11
00001a8b 0b             7047 	.byte	11
00001a8c 000502         7048 	.byte	0,5,2
00001a8f 00000000*      7049 	.word	.LDWlin22
00001a93 0b             7050 	.byte	11
00001a94 000502         7051 	.byte	0,5,2
00001a97 00000000*      7052 	.word	.LDWlin23
00001a9b 0b             7053 	.byte	11
00001a9c 02             7054 	.byte	2
00001a9d 00             7055 	.byte	0
00001a9e 0c             7056 	.byte	12
00001a9f 000502         7057 	.byte	0,5,2
00001aa2 00000000*      7058 	.word	.LDWlin24
00001aa6 0c             7059 	.byte	12
00001aa7 000502         7060 	.byte	0,5,2
00001aaa 00000000*      7061 	.word	.LDWlin25
00001aae 0b             7062 	.byte	11
00001aaf 0c             7063 	.byte	12
00001ab0 000502         7064 	.byte	0,5,2
00001ab3 00000000*      7065 	.word	.LDWlin26
00001ab7 0b             7066 	.byte	11
00001ab8 0b             7067 	.byte	11
00001ab9 000502         7068 	.byte	0,5,2
00001abc 00000000*      7069 	.word	.LDWlin27
00001ac0 0b             7070 	.byte	11
00001ac1 02             7071 	.byte	2
00001ac2 00             7072 	.byte	0
00001ac3 0b             7073 	.byte	11
00001ac4 000502         7074 	.byte	0,5,2
00001ac7 00000000*      7075 	.word	.LDWlin28
00001acb 0b             7076 	.byte	11
00001acc 02             7077 	.byte	2
00001acd 00             7078 	.byte	0
00001ace 0c             7079 	.byte	12
00001acf 000502         7080 	.byte	0,5,2
00001ad2 00000000*      7081 	.word	.LDWlin29
00001ad6 0b             7082 	.byte	11
00001ad7 0b             7083 	.byte	11
00001ad8 000502         7084 	.byte	0,5,2
00001adb 00000000*      7085 	.word	.LDWlin30
00001adf 0b             7086 	.byte	11
00001ae0 02             7087 	.byte	2
00001ae1 00             7088 	.byte	0
00001ae2 0c             7089 	.byte	12
00001ae3 000502         7090 	.byte	0,5,2
00001ae6 00000000*      7091 	.word	.LDWlin31
00001aea 03             7092 	.byte	3
00001aeb 04             7093 	.byte	4
00001aec 02             7094 	.byte	2
00001aed 00             7095 	.byte	0
00001aee 01             7096 	.byte	1
00001aef 02             7097 	.byte	2
00001af0 00             7098 	.byte	0
00001af1 0c             7099 	.byte	12
00001af2 06             7100 	.byte	6
00001af3 000502         7101 	.byte	0,5,2
00001af6 00000000*      7102 	.word	.LDWlin32
00001afa 03             7103 	.byte	3
00001afb 7c             7104 	.byte	124

                                                                      Page 144
                                                              C:\Users\nhuliyap\AppData\Local\Temp\gh_00002581.s
00001afc 02             7105 	.byte	2
00001afd 00             7106 	.byte	0
00001afe 01             7107 	.byte	1
00001aff 06             7108 	.byte	6
00001b00 03             7109 	.byte	3
00001b01 05             7110 	.byte	5
00001b02 02             7111 	.byte	2
00001b03 00             7112 	.byte	0
00001b04 01             7113 	.byte	1
00001b05 0b             7114 	.byte	11
00001b06 06             7115 	.byte	6
00001b07 03             7116 	.byte	3
00001b08 7b             7117 	.byte	123
00001b09 02             7118 	.byte	2
00001b0a 04             7119 	.byte	4
00001b0b 01             7120 	.byte	1
00001b0c 06             7121 	.byte	6
00001b0d 03             7122 	.byte	3
00001b0e 06             7123 	.byte	6
00001b0f 02             7124 	.byte	2
00001b10 00             7125 	.byte	0
00001b11 01             7126 	.byte	1
00001b12 000502         7127 	.byte	0,5,2
00001b15 00000000*      7128 	.word	.LDWlin33
00001b19 0b             7129 	.byte	11
00001b1a 02             7130 	.byte	2
00001b1b 00             7131 	.byte	0
00001b1c 0c             7132 	.byte	12
00001b1d 06             7133 	.byte	6
00001b1e 000502         7134 	.byte	0,5,2
00001b21 00000000*      7135 	.word	.LDWlin34
00001b25 02             7136 	.byte	2
00001b26 00             7137 	.byte	0
00001b27 02             7138 	.byte	2
00001b28 04             7139 	.byte	4
00001b29 000101         7140 	.byte	0,1,1
                        7141 	.section	.debug_info
                        7142 .LDW_564d970:
00002262 0f             7143 	.byte	15
00002263 44544300       7144 	.strz	"DTC"
00002267 9501           7145 	.byte	149,1
00002269 50             7146 	.byte	80
0000226a 01             7147 	.byte	1
0000226b 00000000*      7148 	.word	.LDW_4bde518
0000226f 00             7149 	.byte	0
00002270 016b           7150 	.byte	1,107
                        7151 
                        7152 .LDW_564d398:
00002272 0f             7153 	.byte	15
00002273 4454434b696e   7154 	.strz	"DTCKind"
00002279 6400 
0000227b 9601           7155 	.byte	150,1
0000227d 17             7156 	.byte	23
0000227e 01             7157 	.byte	1
0000227f 00000000*      7158 	.word	.LDW_4c9fd88
00002283 00             7159 	.byte	0
00002284 0157           7160 	.byte	1,87
                        7161 
                        7162 .LDW_564d658:
00002286 0f             7163 	.byte	15
00002287 4454434f7269   7164 	.strz	"DTCOrigin"

                                                                      Page 145
                                                              C:\Users\nhuliyap\AppData\Local\Temp\gh_00002581.s
0000228d 67696e00 
00002291 9701           7165 	.byte	151,1
00002293 19             7166 	.byte	25
00002294 01             7167 	.byte	1
00002295 00000000*      7168 	.word	.LDW_4cd1348
00002299 00             7169 	.byte	0
0000229a 016a           7170 	.byte	1,106
                        7171 
                        7172 .LDW_564d6b0:
0000229c 0f             7173 	.byte	15
0000229d 457874656e64   7174 	.strz	"ExtendedDataNumber"
000022a3 656444617461 
000022a9 4e756d626572 
000022af 00 
000022b0 9801           7175 	.byte	152,1
000022b2 0d             7176 	.byte	13
000022b3 01             7177 	.byte	1
000022b4 00000000*      7178 	.word	.LDW_491ba88
000022b8 00             7179 	.byte	0
000022b9 016c           7180 	.byte	1,108
                        7181 
                        7182 .LDW_564d708:
000022bb 0f             7183 	.byte	15
000022bc 446573744275   7184 	.strz	"DestBuffer"
000022c2 6666657200 
000022c7 9901           7185 	.byte	153,1
000022c9 0e             7186 	.byte	14
000022ca 01             7187 	.byte	1
000022cb 00000000*      7188 	.word	.LDW_4906be0
000022cf 00             7189 	.byte	0
000022d0 0168           7190 	.byte	1,104
                        7191 
                        7192 .LDW_564d7b8:
000022d2 0f             7193 	.byte	15
000022d3 42756653697a   7194 	.strz	"BufSize"
000022d9 6500 
000022db 9a01           7195 	.byte	154,1
000022dd 0f             7196 	.byte	15
000022de 01             7197 	.byte	1
000022df 00000000*      7198 	.word	.LDW_4906a58
000022e3 00             7199 	.byte	0
000022e4 0169           7200 	.byte	1,105
                        7201 
                        7202 .LDW_5695a60:
000022e6 1d             7203 	.byte	29
000022e7 00000000*      7204 	.word	.LDW02
000022eb 00000000*      7205 	.word	.LDW12
                        7206 
                        7207 .LDW_564d810:
000022ef 04             7208 	.byte	4
000022f0 447463496400   7209 	.strz	"DtcId"
000022f6 9c01           7210 	.byte	156,1
000022f8 12             7211 	.byte	18
000022f9 01             7212 	.byte	1
000022fa 00000000*      7213 	.word	.LDW_4ca01a8
000022fe 00             7214 	.byte	0
000022ff 00             7215 	.byte	0
00002300 016d           7216 	.byte	1,109
                        7217 
                        7218 .LDW_564d9c8:
00002302 04             7219 	.byte	4

                                                                      Page 146
                                                              C:\Users\nhuliyap\AppData\Local\Temp\gh_00002581.s
00002303 4576656e7449   7220 	.strz	"EventId"
00002309 6400 
0000230b 9d01           7221 	.byte	157,1
0000230d 14             7222 	.byte	20
0000230e 01             7223 	.byte	1
0000230f 00000000*      7224 	.word	.LDW_4d53ca8
00002313 00             7225 	.byte	0
00002314 00             7226 	.byte	0
00002315 0156           7227 	.byte	1,86
                        7228 
                        7229 .LDW_564e418:
00002317 04             7230 	.byte	4
00002318 547269676765   7231 	.strz	"Trigger"
0000231e 7200 
00002320 9e01           7232 	.byte	158,1
00002322 14             7233 	.byte	20
00002323 01             7234 	.byte	1
00002324 00000000*      7235 	.word	.LDW_515a9b0
00002328 00             7236 	.byte	0
00002329 00             7237 	.byte	0
0000232a 0273           7238 	.byte	2,115
0000232c 0b             7239 	.byte	11
                        7240 
0000232d 00             7241 	.byte	0
                        7242 
0000232e 00             7243 	.byte	0
                        7244 
                        7245 .LDW_5661980:
0000232f 14             7246 	.byte	20
00002330 44656d5f4765   7247 	.strz	"Dem_GetSizeOfExtendedDataRecordByDTC"
00002336 7453697a654f 
0000233c 66457874656e 
00002342 646564446174 
00002348 615265636f72 
0000234e 644279445443 
00002354 00 
00002355 de01           7248 	.byte	222,1
00002357 30             7249 	.byte	48
00002358 01             7250 	.byte	1
00002359 00000000*      7251 	.word	.LDW_55ebb18
0000235d 00000000*      7252 	.word	_Dem_GetSizeOfExtendedDataRecordByDTC
00002361 00000000*      7253 	.word	___ghs_eofn_Dem_GetSizeOfExtendedDataRecordByDTC
00002365 0153           7254 	.byte	1,83
00002367 828080e00b     7255 	.byte	130,128,128,224,11
0000236c 14             7256 	.byte	20
0000236d 03             7257 	.byte	3
0000236e 18             7258 	.byte	24
0000236f 00             7259 	.byte	0
00002370 00             7260 	.byte	0
00002371 00             7261 	.byte	0
00002372 01             7262 	.byte	1
00002373 01             7263 	.byte	1
00002374 00             7264 	.byte	0
00002375 01             7265 	.byte	1
                        7266 
                        7267 	.section	.debug_frame
                        7268 .LDW_508ecb8:
0000013c 00000000*      7269 	.word	.LDW_unq_10-.LDW_unq_f
                        7270 .LDW_unq_f:
00000140 00000000*      7271 	.word	.LDW_566a730
00000144 00000000*      7272 	.word	_Dem_GetSizeOfExtendedDataRecordByDTC

                                                                      Page 147
                                                              C:\Users\nhuliyap\AppData\Local\Temp\gh_00002581.s
00000148 00000000*      7273 	.word	___ghs_eofn_Dem_GetSizeOfExtendedDataRecordByDTC-_Dem_GetSizeOfExtendedDataRecordByDTC
0000014c 44             7274 	.byte	68
0000014d 9f             7275 	.byte	159
0000014e 03             7276 	.byte	3
0000014f 40             7277 	.byte	64
00000150 9d             7278 	.byte	157
00000151 07             7279 	.byte	7
00000152 40             7280 	.byte	64
00000153 9c             7281 	.byte	156
00000154 0b             7282 	.byte	11
00000155 40             7283 	.byte	64
00000156 9b             7284 	.byte	155
00000157 0f             7285 	.byte	15
00000158 40             7286 	.byte	64
00000159 9a             7287 	.byte	154
0000015a 13             7288 	.byte	19
0000015b 01             7289 	.byte	1
0000015c 00000000*      7290 	.word	.LDW32
                        7291 .LDW_unq_10:
                        7292 	.section	.debug_line
00001b2c 000502         7293 	.byte	0,5,2
00001b2f 00000000*      7294 	.word	_Dem_GetSizeOfExtendedDataRecordByDTC
00001b33 03             7295 	.byte	3
00001b34 e201           7296 	.byte	226,1
00001b36 02             7297 	.byte	2
00001b37 00             7298 	.byte	0
00001b38 01             7299 	.byte	1
00001b39 06             7300 	.byte	6
00001b3a 03             7301 	.byte	3
00001b3b 05             7302 	.byte	5
00001b3c 02             7303 	.byte	2
00001b3d 0a             7304 	.byte	10
00001b3e 01             7305 	.byte	1
00001b3f 000502         7306 	.byte	0,5,2
00001b42 00000000*      7307 	.word	.LDWlin35
00001b46 0b             7308 	.byte	11
00001b47 0b             7309 	.byte	11
00001b48 000502         7310 	.byte	0,5,2
00001b4b 00000000*      7311 	.word	.LDWlin36
00001b4f 0b             7312 	.byte	11
00001b50 000502         7313 	.byte	0,5,2
00001b53 00000000*      7314 	.word	.LDWlin37
00001b57 0b             7315 	.byte	11
00001b58 02             7316 	.byte	2
00001b59 00             7317 	.byte	0
00001b5a 0c             7318 	.byte	12
00001b5b 000502         7319 	.byte	0,5,2
00001b5e 00000000*      7320 	.word	.LDWlin38
00001b62 0b             7321 	.byte	11
00001b63 0b             7322 	.byte	11
00001b64 000502         7323 	.byte	0,5,2
00001b67 00000000*      7324 	.word	.LDWlin39
00001b6b 0b             7325 	.byte	11
00001b6c 000502         7326 	.byte	0,5,2
00001b6f 00000000*      7327 	.word	.LDWlin40
00001b73 0b             7328 	.byte	11
00001b74 02             7329 	.byte	2
00001b75 00             7330 	.byte	0
00001b76 0c             7331 	.byte	12
00001b77 000502         7332 	.byte	0,5,2
00001b7a 00000000*      7333 	.word	.LDWlin41

                                                                      Page 148
                                                              C:\Users\nhuliyap\AppData\Local\Temp\gh_00002581.s
00001b7e 0b             7334 	.byte	11
00001b7f 0b             7335 	.byte	11
00001b80 000502         7336 	.byte	0,5,2
00001b83 00000000*      7337 	.word	.LDWlin42
00001b87 0b             7338 	.byte	11
00001b88 13             7339 	.byte	19
00001b89 02             7340 	.byte	2
00001b8a 00             7341 	.byte	0
00001b8b 0b             7342 	.byte	11
00001b8c 1c             7343 	.byte	28
00001b8d 000502         7344 	.byte	0,5,2
00001b90 00000000*      7345 	.word	.LDWlin43
00001b94 0b             7346 	.byte	11
00001b95 0b             7347 	.byte	11
00001b96 000502         7348 	.byte	0,5,2
00001b99 00000000*      7349 	.word	.LDWlin44
00001b9d 0b             7350 	.byte	11
00001b9e 000502         7351 	.byte	0,5,2
00001ba1 00000000*      7352 	.word	.LDWlin45
00001ba5 0b             7353 	.byte	11
00001ba6 02             7354 	.byte	2
00001ba7 00             7355 	.byte	0
00001ba8 0c             7356 	.byte	12
00001ba9 000502         7357 	.byte	0,5,2
00001bac 00000000*      7358 	.word	.LDWlin46
00001bb0 0c             7359 	.byte	12
00001bb1 000502         7360 	.byte	0,5,2
00001bb4 00000000*      7361 	.word	.LDWlin47
00001bb8 0b             7362 	.byte	11
00001bb9 0b             7363 	.byte	11
00001bba 000502         7364 	.byte	0,5,2
00001bbd 00000000*      7365 	.word	.LDWlin48
00001bc1 0b             7366 	.byte	11
00001bc2 000502         7367 	.byte	0,5,2
00001bc5 00000000*      7368 	.word	.LDWlin49
00001bc9 0b             7369 	.byte	11
00001bca 02             7370 	.byte	2
00001bcb 00             7371 	.byte	0
00001bcc 0c             7372 	.byte	12
00001bcd 000502         7373 	.byte	0,5,2
00001bd0 00000000*      7374 	.word	.LDWlin50
00001bd4 0b             7375 	.byte	11
00001bd5 0b             7376 	.byte	11
00001bd6 000502         7377 	.byte	0,5,2
00001bd9 00000000*      7378 	.word	.LDWlin51
00001bdd 0b             7379 	.byte	11
00001bde 0c             7380 	.byte	12
00001bdf 0b             7381 	.byte	11
00001be0 000502         7382 	.byte	0,5,2
00001be3 00000000*      7383 	.word	.LDWlin52
00001be7 0b             7384 	.byte	11
00001be8 02             7385 	.byte	2
00001be9 00             7386 	.byte	0
00001bea 06             7387 	.byte	6
00001beb 02             7388 	.byte	2
00001bec 00             7389 	.byte	0
00001bed 02             7390 	.byte	2
00001bee 04             7391 	.byte	4
00001bef 000101         7392 	.byte	0,1,1
                        7393 	.section	.debug_info
                        7394 .LDW_564dd90:

                                                                      Page 149
                                                              C:\Users\nhuliyap\AppData\Local\Temp\gh_00002581.s
00002376 0f             7395 	.byte	15
00002377 44544300       7396 	.strz	"DTC"
0000237b de01           7397 	.byte	222,1
0000237d 5c             7398 	.byte	92
0000237e 01             7399 	.byte	1
0000237f 00000000*      7400 	.word	.LDW_4bde518
00002383 00             7401 	.byte	0
00002384 016b           7402 	.byte	1,107
                        7403 
                        7404 .LDW_564e730:
00002386 0f             7405 	.byte	15
00002387 4454434b696e   7406 	.strz	"DTCKind"
0000238d 6400 
0000238f df01           7407 	.byte	223,1
00002391 17             7408 	.byte	23
00002392 01             7409 	.byte	1
00002393 00000000*      7410 	.word	.LDW_4c9fd88
00002397 00             7411 	.byte	0
00002398 0157           7412 	.byte	1,87
                        7413 
                        7414 .LDW_564e520:
0000239a 0f             7415 	.byte	15
0000239b 4454434f7269   7416 	.strz	"DTCOrigin"
000023a1 67696e00 
000023a5 e001           7417 	.byte	224,1
000023a7 19             7418 	.byte	25
000023a8 01             7419 	.byte	1
000023a9 00000000*      7420 	.word	.LDW_4cd1348
000023ad 00             7421 	.byte	0
000023ae 0158           7422 	.byte	1,88
                        7423 
                        7424 .LDW_564dde8:
000023b0 0f             7425 	.byte	15
000023b1 457874656e64   7426 	.strz	"ExtendedDataNumber"
000023b7 656444617461 
000023bd 4e756d626572 
000023c3 00 
000023c4 e101           7427 	.byte	225,1
000023c6 0d             7428 	.byte	13
000023c7 01             7429 	.byte	1
000023c8 00000000*      7430 	.word	.LDW_491ba88
000023cc 00             7431 	.byte	0
000023cd 016c           7432 	.byte	1,108
                        7433 
                        7434 .LDW_564def0:
000023cf 0f             7435 	.byte	15
000023d0 53697a654f66   7436 	.strz	"SizeOfExtendedDataRecord"
000023d6 457874656e64 
000023dc 656444617461 
000023e2 5265636f7264 
000023e8 00 
000023e9 e201           7437 	.byte	226,1
000023eb 0f             7438 	.byte	15
000023ec 01             7439 	.byte	1
000023ed 00000000*      7440 	.word	.LDW_4906a58
000023f1 00             7441 	.byte	0
000023f2 016a           7442 	.byte	1,106
                        7443 
                        7444 .LDW_5695730:
000023f4 1d             7445 	.byte	29
000023f5 00000000*      7446 	.word	.LDW22

                                                                      Page 150
                                                              C:\Users\nhuliyap\AppData\Local\Temp\gh_00002581.s
000023f9 00000000*      7447 	.word	.LDW32
                        7448 
                        7449 .LDW_564e050:
000023fd 04             7450 	.byte	4
000023fe 447463496400   7451 	.strz	"DtcId"
00002404 e401           7452 	.byte	228,1
00002406 12             7453 	.byte	18
00002407 01             7454 	.byte	1
00002408 00000000*      7455 	.word	.LDW_4ca01a8
0000240c 00             7456 	.byte	0
0000240d 00             7457 	.byte	0
0000240e 0162           7458 	.byte	1,98
                        7459 
                        7460 .LDW_564e578:
00002410 04             7461 	.byte	4
00002411 4576656e7449   7462 	.strz	"EventId"
00002417 6400 
00002419 e501           7463 	.byte	229,1
0000241b 14             7464 	.byte	20
0000241c 01             7465 	.byte	1
0000241d 00000000*      7466 	.word	.LDW_4d53ca8
00002421 00             7467 	.byte	0
00002422 00             7468 	.byte	0
00002423 016d           7469 	.byte	1,109
                        7470 
                        7471 .LDW_564de40:
00002425 04             7472 	.byte	4
00002426 547269676765   7473 	.strz	"Trigger"
0000242c 7200 
0000242e e601           7474 	.byte	230,1
00002430 14             7475 	.byte	20
00002431 01             7476 	.byte	1
00002432 00000000*      7477 	.word	.LDW_515a9b0
00002436 00             7478 	.byte	0
00002437 00             7479 	.byte	0
00002438 0273           7480 	.byte	2,115
0000243a 03             7481 	.byte	3
                        7482 
0000243b 00             7483 	.byte	0
                        7484 
0000243c 00             7485 	.byte	0
                        7486 
                        7487 .LDW_5661da8:
0000243d 14             7488 	.byte	20
0000243e 44656d5f4765   7489 	.strz	"Dem_GetFreezeFrameDataByDTC"
00002444 74467265657a 
0000244a 654672616d65 
00002450 446174614279 
00002456 44544300 
0000245a 9602           7490 	.byte	150,2
0000245c 27             7491 	.byte	39
0000245d 01             7492 	.byte	1
0000245e 00000000*      7493 	.word	.LDW_564c1b8
00002462 00000000*      7494 	.word	_Dem_GetFreezeFrameDataByDTC
00002466 00000000*      7495 	.word	___ghs_eofn_Dem_GetFreezeFrameDataByDTC
0000246a 0153           7496 	.byte	1,83
0000246c 828080f80b     7497 	.byte	130,128,128,248,11
00002471 1c             7498 	.byte	28
00002472 03             7499 	.byte	3
00002473 24             7500 	.byte	36
00002474 00             7501 	.byte	0

                                                                      Page 151
                                                              C:\Users\nhuliyap\AppData\Local\Temp\gh_00002581.s
00002475 00             7502 	.byte	0
00002476 00             7503 	.byte	0
00002477 01             7504 	.byte	1
00002478 01             7505 	.byte	1
00002479 00             7506 	.byte	0
0000247a 01             7507 	.byte	1
                        7508 
                        7509 	.section	.debug_frame
                        7510 .LDW_508e338:
00000160 00000000*      7511 	.word	.LDW_unq_12-.LDW_unq_11
                        7512 .LDW_unq_11:
00000164 00000000*      7513 	.word	.LDW_566a730
00000168 00000000*      7514 	.word	_Dem_GetFreezeFrameDataByDTC
0000016c 00000000*      7515 	.word	___ghs_eofn_Dem_GetFreezeFrameDataByDTC-_Dem_GetFreezeFrameDataByDTC
00000170 44             7516 	.byte	68
00000171 9f             7517 	.byte	159
00000172 06             7518 	.byte	6
00000173 40             7519 	.byte	64
00000174 9d             7520 	.byte	157
00000175 0a             7521 	.byte	10
00000176 40             7522 	.byte	64
00000177 9c             7523 	.byte	156
00000178 0e             7524 	.byte	14
00000179 40             7525 	.byte	64
0000017a 9b             7526 	.byte	155
0000017b 12             7527 	.byte	18
0000017c 40             7528 	.byte	64
0000017d 9a             7529 	.byte	154
0000017e 16             7530 	.byte	22
0000017f 40             7531 	.byte	64
00000180 99             7532 	.byte	153
00000181 1a             7533 	.byte	26
00000182 40             7534 	.byte	64
00000183 98             7535 	.byte	152
00000184 1e             7536 	.byte	30
00000185 01             7537 	.byte	1
00000186 00000000*      7538 	.word	.LDW52
0000018a 00             7539 	.byte	0
0000018b 00             7540 	.byte	0
                        7541 .LDW_unq_12:
                        7542 	.section	.debug_line
00001bf2 000502         7543 	.byte	0,5,2
00001bf5 00000000*      7544 	.word	_Dem_GetFreezeFrameDataByDTC
00001bf9 03             7545 	.byte	3
00001bfa 9b02           7546 	.byte	155,2
00001bfc 02             7547 	.byte	2
00001bfd 00             7548 	.byte	0
00001bfe 01             7549 	.byte	1
00001bff 06             7550 	.byte	6
00001c00 03             7551 	.byte	3
00001c01 05             7552 	.byte	5
00001c02 02             7553 	.byte	2
00001c03 0a             7554 	.byte	10
00001c04 01             7555 	.byte	1
00001c05 000502         7556 	.byte	0,5,2
00001c08 00000000*      7557 	.word	.LDWlin53
00001c0c 0b             7558 	.byte	11
00001c0d 0b             7559 	.byte	11
00001c0e 000502         7560 	.byte	0,5,2
00001c11 00000000*      7561 	.word	.LDWlin54
00001c15 0b             7562 	.byte	11

                                                                      Page 152
                                                              C:\Users\nhuliyap\AppData\Local\Temp\gh_00002581.s
00001c16 000502         7563 	.byte	0,5,2
00001c19 00000000*      7564 	.word	.LDWlin55
00001c1d 0b             7565 	.byte	11
00001c1e 02             7566 	.byte	2
00001c1f 00             7567 	.byte	0
00001c20 0c             7568 	.byte	12
00001c21 000502         7569 	.byte	0,5,2
00001c24 00000000*      7570 	.word	.LDWlin56
00001c28 0b             7571 	.byte	11
00001c29 0b             7572 	.byte	11
00001c2a 000502         7573 	.byte	0,5,2
00001c2d 00000000*      7574 	.word	.LDWlin57
00001c31 0b             7575 	.byte	11
00001c32 000502         7576 	.byte	0,5,2
00001c35 00000000*      7577 	.word	.LDWlin58
00001c39 0b             7578 	.byte	11
00001c3a 02             7579 	.byte	2
00001c3b 00             7580 	.byte	0
00001c3c 0c             7581 	.byte	12
00001c3d 000502         7582 	.byte	0,5,2
00001c40 00000000*      7583 	.word	.LDWlin59
00001c44 0b             7584 	.byte	11
00001c45 0c             7585 	.byte	12
00001c46 02             7586 	.byte	2
00001c47 00             7587 	.byte	0
00001c48 0c             7588 	.byte	12
00001c49 000502         7589 	.byte	0,5,2
00001c4c 00000000*      7590 	.word	.LDWlin60
00001c50 0b             7591 	.byte	11
00001c51 0b             7592 	.byte	11
00001c52 000502         7593 	.byte	0,5,2
00001c55 00000000*      7594 	.word	.LDWlin61
00001c59 0b             7595 	.byte	11
00001c5a 13             7596 	.byte	19
00001c5b 02             7597 	.byte	2
00001c5c 00             7598 	.byte	0
00001c5d 0b             7599 	.byte	11
00001c5e 1c             7600 	.byte	28
00001c5f 000502         7601 	.byte	0,5,2
00001c62 00000000*      7602 	.word	.LDWlin62
00001c66 0b             7603 	.byte	11
00001c67 0b             7604 	.byte	11
00001c68 000502         7605 	.byte	0,5,2
00001c6b 00000000*      7606 	.word	.LDWlin63
00001c6f 0b             7607 	.byte	11
00001c70 000502         7608 	.byte	0,5,2
00001c73 00000000*      7609 	.word	.LDWlin64
00001c77 0b             7610 	.byte	11
00001c78 02             7611 	.byte	2
00001c79 00             7612 	.byte	0
00001c7a 03             7613 	.byte	3
00001c7b 04             7614 	.byte	4
00001c7c 02             7615 	.byte	2
00001c7d 00             7616 	.byte	0
00001c7e 01             7617 	.byte	1
00001c7f 000502         7618 	.byte	0,5,2
00001c82 00000000*      7619 	.word	.LDWlin65
00001c86 0b             7620 	.byte	11
00001c87 0b             7621 	.byte	11
00001c88 000502         7622 	.byte	0,5,2
00001c8b 00000000*      7623 	.word	.LDWlin66

                                                                      Page 153
                                                              C:\Users\nhuliyap\AppData\Local\Temp\gh_00002581.s
00001c8f 0b             7624 	.byte	11
00001c90 000502         7625 	.byte	0,5,2
00001c93 00000000*      7626 	.word	.LDWlin67
00001c97 0b             7627 	.byte	11
00001c98 02             7628 	.byte	2
00001c99 00             7629 	.byte	0
00001c9a 0c             7630 	.byte	12
00001c9b 000502         7631 	.byte	0,5,2
00001c9e 00000000*      7632 	.word	.LDWlin68
00001ca2 0b             7633 	.byte	11
00001ca3 0c             7634 	.byte	12
00001ca4 02             7635 	.byte	2
00001ca5 00             7636 	.byte	0
00001ca6 0c             7637 	.byte	12
00001ca7 000502         7638 	.byte	0,5,2
00001caa 00000000*      7639 	.word	.LDWlin69
00001cae 0b             7640 	.byte	11
00001caf 0b             7641 	.byte	11
00001cb0 000502         7642 	.byte	0,5,2
00001cb3 00000000*      7643 	.word	.LDWlin70
00001cb7 0b             7644 	.byte	11
00001cb8 02             7645 	.byte	2
00001cb9 00             7646 	.byte	0
00001cba 0c             7647 	.byte	12
00001cbb 000502         7648 	.byte	0,5,2
00001cbe 00000000*      7649 	.word	.LDWlin71
00001cc2 03             7650 	.byte	3
00001cc3 08             7651 	.byte	8
00001cc4 02             7652 	.byte	2
00001cc5 00             7653 	.byte	0
00001cc6 01             7654 	.byte	1
00001cc7 03             7655 	.byte	3
00001cc8 7c             7656 	.byte	124
00001cc9 02             7657 	.byte	2
00001cca 04             7658 	.byte	4
00001ccb 01             7659 	.byte	1
00001ccc 02             7660 	.byte	2
00001ccd 00             7661 	.byte	0
00001cce 0c             7662 	.byte	12
00001ccf 06             7663 	.byte	6
00001cd0 000502         7664 	.byte	0,5,2
00001cd3 00000000*      7665 	.word	.LDWlin72
00001cd7 03             7666 	.byte	3
00001cd8 7c             7667 	.byte	124
00001cd9 02             7668 	.byte	2
00001cda 00             7669 	.byte	0
00001cdb 01             7670 	.byte	1
00001cdc 06             7671 	.byte	6
00001cdd 03             7672 	.byte	3
00001cde 07             7673 	.byte	7
00001cdf 02             7674 	.byte	2
00001ce0 00             7675 	.byte	0
00001ce1 01             7676 	.byte	1
00001ce2 0b             7677 	.byte	11
00001ce3 06             7678 	.byte	6
00001ce4 03             7679 	.byte	3
00001ce5 79             7680 	.byte	121
00001ce6 02             7681 	.byte	2
00001ce7 04             7682 	.byte	4
00001ce8 01             7683 	.byte	1
00001ce9 06             7684 	.byte	6

                                                                      Page 154
                                                              C:\Users\nhuliyap\AppData\Local\Temp\gh_00002581.s
00001cea 03             7685 	.byte	3
00001ceb 08             7686 	.byte	8
00001cec 02             7687 	.byte	2
00001ced 00             7688 	.byte	0
00001cee 01             7689 	.byte	1
00001cef 000502         7690 	.byte	0,5,2
00001cf2 00000000*      7691 	.word	.LDWlin73
00001cf6 0b             7692 	.byte	11
00001cf7 02             7693 	.byte	2
00001cf8 00             7694 	.byte	0
00001cf9 0c             7695 	.byte	12
00001cfa 06             7696 	.byte	6
00001cfb 000502         7697 	.byte	0,5,2
00001cfe 00000000*      7698 	.word	.LDWlin74
00001d02 02             7699 	.byte	2
00001d03 00             7700 	.byte	0
00001d04 02             7701 	.byte	2
00001d05 04             7702 	.byte	4
00001d06 000101         7703 	.byte	0,1,1
                        7704 	.section	.debug_info
                        7705 .LDW_564de98:
0000247b 0f             7706 	.byte	15
0000247c 44544300       7707 	.strz	"DTC"
00002480 9602           7708 	.byte	150,2
00002482 4a             7709 	.byte	74
00002483 01             7710 	.byte	1
00002484 00000000*      7711 	.word	.LDW_4bde518
00002488 00             7712 	.byte	0
00002489 016b           7713 	.byte	1,107
                        7714 
                        7715 .LDW_564dc88:
0000248b 0f             7716 	.byte	15
0000248c 4454434b696e   7717 	.strz	"DTCKind"
00002492 6400 
00002494 9702           7718 	.byte	151,2
00002496 17             7719 	.byte	23
00002497 01             7720 	.byte	1
00002498 00000000*      7721 	.word	.LDW_4c9fd88
0000249c 00             7722 	.byte	0
0000249d 0157           7723 	.byte	1,87
                        7724 
                        7725 .LDW_564e3c0:
0000249f 0f             7726 	.byte	15
000024a0 4454434f7269   7727 	.strz	"DTCOrigin"
000024a6 67696e00 
000024aa 9802           7728 	.byte	152,2
000024ac 19             7729 	.byte	25
000024ad 01             7730 	.byte	1
000024ae 00000000*      7731 	.word	.LDW_4cd1348
000024b2 00             7732 	.byte	0
000024b3 016a           7733 	.byte	1,106
                        7734 
                        7735 .LDW_564e158:
000024b5 0f             7736 	.byte	15
000024b6 5265636f7264   7737 	.strz	"RecordNumber"
000024bc 4e756d626572 
000024c2 00 
000024c3 9902           7738 	.byte	153,2
000024c5 0d             7739 	.byte	13
000024c6 01             7740 	.byte	1
000024c7 00000000*      7741 	.word	.LDW_491ba88

                                                                      Page 155
                                                              C:\Users\nhuliyap\AppData\Local\Temp\gh_00002581.s
000024cb 00             7742 	.byte	0
000024cc 016c           7743 	.byte	1,108
                        7744 
                        7745 .LDW_564dce0:
000024ce 0f             7746 	.byte	15
000024cf 446573744275   7747 	.strz	"DestBuffer"
000024d5 6666657200 
000024da 9a02           7748 	.byte	154,2
000024dc 0e             7749 	.byte	14
000024dd 01             7750 	.byte	1
000024de 00000000*      7751 	.word	.LDW_4906be0
000024e2 00             7752 	.byte	0
000024e3 0168           7753 	.byte	1,104
                        7754 
                        7755 .LDW_564e680:
000024e5 0f             7756 	.byte	15
000024e6 42756653697a   7757 	.strz	"BufSize"
000024ec 6500 
000024ee 9b02           7758 	.byte	155,2
000024f0 0f             7759 	.byte	15
000024f1 01             7760 	.byte	1
000024f2 00000000*      7761 	.word	.LDW_4906a58
000024f6 00             7762 	.byte	0
000024f7 0169           7763 	.byte	1,105
                        7764 
                        7765 .LDW_5695b80:
000024f9 1d             7766 	.byte	29
000024fa 00000000*      7767 	.word	.LDW42
000024fe 00000000*      7768 	.word	.LDW52
                        7769 
                        7770 .LDW_564df48:
00002502 04             7771 	.byte	4
00002503 447463496400   7772 	.strz	"DtcId"
00002509 9d02           7773 	.byte	157,2
0000250b 12             7774 	.byte	18
0000250c 01             7775 	.byte	1
0000250d 00000000*      7776 	.word	.LDW_4ca01a8
00002511 00             7777 	.byte	0
00002512 00             7778 	.byte	0
00002513 0156           7779 	.byte	1,86
                        7780 
                        7781 .LDW_564e260:
00002515 04             7782 	.byte	4
00002516 5265636f7264   7783 	.strz	"RecordIndex"
0000251c 496e64657800 
00002522 9e02           7784 	.byte	158,2
00002524 0a             7785 	.byte	10
00002525 01             7786 	.byte	1
00002526 00000000*      7787 	.word	.LDW_491ba88
0000252a 00             7788 	.byte	0
0000252b 00             7789 	.byte	0
0000252c 0159           7790 	.byte	1,89
                        7791 
                        7792 .LDW_564e2b8:
0000252e 04             7793 	.byte	4
0000252f 4576656e7449   7794 	.strz	"EventId"
00002535 6400 
00002537 9f02           7795 	.byte	159,2
00002539 14             7796 	.byte	20
0000253a 01             7797 	.byte	1
0000253b 00000000*      7798 	.word	.LDW_4d53ca8

                                                                      Page 156
                                                              C:\Users\nhuliyap\AppData\Local\Temp\gh_00002581.s
0000253f 00             7799 	.byte	0
00002540 00             7800 	.byte	0
00002541 016e           7801 	.byte	1,110
                        7802 
00002543 00             7803 	.byte	0
                        7804 
00002544 00             7805 	.byte	0
                        7806 
                        7807 .LDW_5661ed8:
00002545 14             7808 	.byte	20
00002546 44656d5f4765   7809 	.strz	"Dem_GetSizeOfFreezeFrameByDTC"
0000254c 7453697a654f 
00002552 66467265657a 
00002558 654672616d65 
0000255e 427944544300 
00002564 e202           7810 	.byte	226,2
00002566 29             7811 	.byte	41
00002567 01             7812 	.byte	1
00002568 00000000*      7813 	.word	.LDW_564bf50
0000256c 00000000*      7814 	.word	_Dem_GetSizeOfFreezeFrameByDTC
00002570 00000000*      7815 	.word	___ghs_eofn_Dem_GetSizeOfFreezeFrameByDTC
00002574 0153           7816 	.byte	1,83
00002576 828080e00b     7817 	.byte	130,128,128,224,11
0000257b 14             7818 	.byte	20
0000257c 03             7819 	.byte	3
0000257d 14             7820 	.byte	20
0000257e 00             7821 	.byte	0
0000257f 00             7822 	.byte	0
00002580 00             7823 	.byte	0
00002581 01             7824 	.byte	1
00002582 01             7825 	.byte	1
00002583 00             7826 	.byte	0
00002584 01             7827 	.byte	1
                        7828 
                        7829 	.section	.debug_frame
                        7830 .LDW_518fe78:
0000018c 00000000*      7831 	.word	.LDW_unq_14-.LDW_unq_13
                        7832 .LDW_unq_13:
00000190 00000000*      7833 	.word	.LDW_566a730
00000194 00000000*      7834 	.word	_Dem_GetSizeOfFreezeFrameByDTC
00000198 00000000*      7835 	.word	___ghs_eofn_Dem_GetSizeOfFreezeFrameByDTC-_Dem_GetSizeOfFreezeFrameByDTC
0000019c 44             7836 	.byte	68
0000019d 9f             7837 	.byte	159
0000019e 00             7838 	.byte	0
0000019f 40             7839 	.byte	64
000001a0 9d             7840 	.byte	157
000001a1 04             7841 	.byte	4
000001a2 40             7842 	.byte	64
000001a3 9c             7843 	.byte	156
000001a4 08             7844 	.byte	8
000001a5 40             7845 	.byte	64
000001a6 9b             7846 	.byte	155
000001a7 0c             7847 	.byte	12
000001a8 40             7848 	.byte	64
000001a9 9a             7849 	.byte	154
000001aa 10             7850 	.byte	16
000001ab 01             7851 	.byte	1
000001ac 00000000*      7852 	.word	.LDW72
                        7853 .LDW_unq_14:
                        7854 	.section	.debug_line
00001d09 000502         7855 	.byte	0,5,2

                                                                      Page 157
                                                              C:\Users\nhuliyap\AppData\Local\Temp\gh_00002581.s
00001d0c 00000000*      7856 	.word	_Dem_GetSizeOfFreezeFrameByDTC
00001d10 03             7857 	.byte	3
00001d11 e602           7858 	.byte	230,2
00001d13 02             7859 	.byte	2
00001d14 00             7860 	.byte	0
00001d15 01             7861 	.byte	1
00001d16 06             7862 	.byte	6
00001d17 03             7863 	.byte	3
00001d18 06             7864 	.byte	6
00001d19 02             7865 	.byte	2
00001d1a 0a             7866 	.byte	10
00001d1b 01             7867 	.byte	1
00001d1c 000502         7868 	.byte	0,5,2
00001d1f 00000000*      7869 	.word	.LDWlin75
00001d23 0b             7870 	.byte	11
00001d24 0b             7871 	.byte	11
00001d25 000502         7872 	.byte	0,5,2
00001d28 00000000*      7873 	.word	.LDWlin76
00001d2c 0b             7874 	.byte	11
00001d2d 000502         7875 	.byte	0,5,2
00001d30 00000000*      7876 	.word	.LDWlin77
00001d34 0b             7877 	.byte	11
00001d35 02             7878 	.byte	2
00001d36 00             7879 	.byte	0
00001d37 0c             7880 	.byte	12
00001d38 000502         7881 	.byte	0,5,2
00001d3b 00000000*      7882 	.word	.LDWlin78
00001d3f 0b             7883 	.byte	11
00001d40 0b             7884 	.byte	11
00001d41 000502         7885 	.byte	0,5,2
00001d44 00000000*      7886 	.word	.LDWlin79
00001d48 0b             7887 	.byte	11
00001d49 000502         7888 	.byte	0,5,2
00001d4c 00000000*      7889 	.word	.LDWlin80
00001d50 0b             7890 	.byte	11
00001d51 02             7891 	.byte	2
00001d52 00             7892 	.byte	0
00001d53 0c             7893 	.byte	12
00001d54 000502         7894 	.byte	0,5,2
00001d57 00000000*      7895 	.word	.LDWlin81
00001d5b 0b             7896 	.byte	11
00001d5c 0b             7897 	.byte	11
00001d5d 000502         7898 	.byte	0,5,2
00001d60 00000000*      7899 	.word	.LDWlin82
00001d64 0b             7900 	.byte	11
00001d65 13             7901 	.byte	19
00001d66 02             7902 	.byte	2
00001d67 00             7903 	.byte	0
00001d68 0b             7904 	.byte	11
00001d69 1c             7905 	.byte	28
00001d6a 000502         7906 	.byte	0,5,2
00001d6d 00000000*      7907 	.word	.LDWlin83
00001d71 0b             7908 	.byte	11
00001d72 0b             7909 	.byte	11
00001d73 000502         7910 	.byte	0,5,2
00001d76 00000000*      7911 	.word	.LDWlin84
00001d7a 0b             7912 	.byte	11
00001d7b 000502         7913 	.byte	0,5,2
00001d7e 00000000*      7914 	.word	.LDWlin85
00001d82 0b             7915 	.byte	11
00001d83 02             7916 	.byte	2

                                                                      Page 158
                                                              C:\Users\nhuliyap\AppData\Local\Temp\gh_00002581.s
00001d84 00             7917 	.byte	0
00001d85 0c             7918 	.byte	12
00001d86 000502         7919 	.byte	0,5,2
00001d89 00000000*      7920 	.word	.LDWlin86
00001d8d 0c             7921 	.byte	12
00001d8e 000502         7922 	.byte	0,5,2
00001d91 00000000*      7923 	.word	.LDWlin87
00001d95 0b             7924 	.byte	11
00001d96 0b             7925 	.byte	11
00001d97 000502         7926 	.byte	0,5,2
00001d9a 00000000*      7927 	.word	.LDWlin88
00001d9e 0b             7928 	.byte	11
00001d9f 000502         7929 	.byte	0,5,2
00001da2 00000000*      7930 	.word	.LDWlin89
00001da6 0b             7931 	.byte	11
00001da7 02             7932 	.byte	2
00001da8 00             7933 	.byte	0
00001da9 0c             7934 	.byte	12
00001daa 000502         7935 	.byte	0,5,2
00001dad 00000000*      7936 	.word	.LDWlin90
00001db1 0b             7937 	.byte	11
00001db2 000502         7938 	.byte	0,5,2
00001db5 00000000*      7939 	.word	.LDWlin91
00001db9 0b             7940 	.byte	11
00001dba 0c             7941 	.byte	12
00001dbb 000502         7942 	.byte	0,5,2
00001dbe 00000000*      7943 	.word	.LDWlin92
00001dc2 0b             7944 	.byte	11
00001dc3 02             7945 	.byte	2
00001dc4 00             7946 	.byte	0
00001dc5 0c             7947 	.byte	12
00001dc6 02             7948 	.byte	2
00001dc7 04             7949 	.byte	4
00001dc8 000101         7950 	.byte	0,1,1
                        7951 	.section	.debug_info
                        7952 .LDW_564e1b0:
00002585 0f             7953 	.byte	15
00002586 44544300       7954 	.strz	"DTC"
0000258a e202           7955 	.byte	226,2
0000258c 4e             7956 	.byte	78
0000258d 01             7957 	.byte	1
0000258e 00000000*      7958 	.word	.LDW_4bde518
00002592 00             7959 	.byte	0
00002593 016b           7960 	.byte	1,107
                        7961 
                        7962 .LDW_564dfa0:
00002595 0f             7963 	.byte	15
00002596 4454434b696e   7964 	.strz	"DTCKind"
0000259c 6400 
0000259e e302           7965 	.byte	227,2
000025a0 17             7966 	.byte	23
000025a1 01             7967 	.byte	1
000025a2 00000000*      7968 	.word	.LDW_4c9fd88
000025a6 00             7969 	.byte	0
000025a7 0157           7970 	.byte	1,87
                        7971 
                        7972 .LDW_564dff8:
000025a9 0f             7973 	.byte	15
000025aa 4454434f7269   7974 	.strz	"DTCOrigin"
000025b0 67696e00 
000025b4 e402           7975 	.byte	228,2

                                                                      Page 159
                                                              C:\Users\nhuliyap\AppData\Local\Temp\gh_00002581.s
000025b6 19             7976 	.byte	25
000025b7 01             7977 	.byte	1
000025b8 00000000*      7978 	.word	.LDW_4cd1348
000025bc 00             7979 	.byte	0
000025bd 0158           7980 	.byte	1,88
                        7981 
                        7982 .LDW_564e0a8:
000025bf 0f             7983 	.byte	15
000025c0 5265636f7264   7984 	.strz	"RecordNumber"
000025c6 4e756d626572 
000025cc 00 
000025cd e502           7985 	.byte	229,2
000025cf 0d             7986 	.byte	13
000025d0 01             7987 	.byte	1
000025d1 00000000*      7988 	.word	.LDW_491ba88
000025d5 00             7989 	.byte	0
000025d6 016c           7990 	.byte	1,108
                        7991 
                        7992 .LDW_564e100:
000025d8 0f             7993 	.byte	15
000025d9 53697a654f66   7994 	.strz	"SizeOfFreezeFrame"
000025df 467265657a65 
000025e5 4672616d6500 
000025eb e602           7995 	.byte	230,2
000025ed 0f             7996 	.byte	15
000025ee 01             7997 	.byte	1
000025ef 00000000*      7998 	.word	.LDW_4906a58
000025f3 00             7999 	.byte	0
000025f4 016a           8000 	.byte	1,106
                        8001 
                        8002 .LDW_5695b50:
000025f6 1d             8003 	.byte	29
000025f7 00000000*      8004 	.word	.LDW62
000025fb 00000000*      8005 	.word	.LDW72
                        8006 
                        8007 .LDW_564dd38:
000025ff 04             8008 	.byte	4
00002600 447463496400   8009 	.strz	"DtcId"
00002606 e802           8010 	.byte	232,2
00002608 12             8011 	.byte	18
00002609 01             8012 	.byte	1
0000260a 00000000*      8013 	.word	.LDW_4ca01a8
0000260e 00             8014 	.byte	0
0000260f 00             8015 	.byte	0
00002610 0162           8016 	.byte	1,98
                        8017 
                        8018 .LDW_564e208:
00002612 05             8019 	.byte	5
00002613 4e6f4f664672   8020 	.strz	"NoOfFreezeFrames"
00002619 65657a654672 
0000261f 616d657300 
00002624 e902           8021 	.byte	233,2
00002626 0b             8022 	.byte	11
00002627 01             8023 	.byte	1
00002628 00000000*      8024 	.word	.LDW_491ba88
0000262c 00             8025 	.byte	0
0000262d 00             8026 	.byte	0
                        8027 
                        8028 .LDW_564e310:
0000262e 04             8029 	.byte	4
0000262f 4576656e7449   8030 	.strz	"EventId"

                                                                      Page 160
                                                              C:\Users\nhuliyap\AppData\Local\Temp\gh_00002581.s
00002635 6400 
00002637 ea02           8031 	.byte	234,2
00002639 14             8032 	.byte	20
0000263a 01             8033 	.byte	1
0000263b 00000000*      8034 	.word	.LDW_4d53ca8
0000263f 00             8035 	.byte	0
00002640 00             8036 	.byte	0
00002641 0156           8037 	.byte	1,86
                        8038 
                        8039 .LDW_564e5d0:
00002643 04             8040 	.byte	4
00002644 52657475726e   8041 	.strz	"ReturnSts"
0000264a 53747300 
0000264e eb02           8042 	.byte	235,2
00002650 2c             8043 	.byte	44
00002651 01             8044 	.byte	1
00002652 00000000*      8045 	.word	.LDW_564bf50
00002656 00             8046 	.byte	0
00002657 00             8047 	.byte	0
00002658 015a           8048 	.byte	1,90
                        8049 
0000265a 00             8050 	.byte	0
                        8051 
0000265b 00             8052 	.byte	0
                        8053 
                        8054 .LDW_5662008:
0000265c 14             8055 	.byte	20
0000265d 44656d5f5365   8056 	.strz	"Dem_SetFreezeFrameRecordFilter"
00002663 74467265657a 
00002669 654672616d65 
0000266f 5265636f7264 
00002675 46696c746572 
0000267b 00 
0000267c ac03           8057 	.byte	172,3
0000267e 19             8058 	.byte	25
0000267f 01             8059 	.byte	1
00002680 00000000*      8060 	.word	.LDW_564e368
00002684 00000000*      8061 	.word	_Dem_SetFreezeFrameRecordFilter
00002688 00000000*      8062 	.word	___ghs_eofn_Dem_SetFreezeFrameRecordFilter
0000268c 0153           8063 	.byte	1,83
0000268e 02             8064 	.byte	2
0000268f 00             8065 	.byte	0
00002690 02             8066 	.byte	2
00002691 00             8067 	.byte	0
00002692 00             8068 	.byte	0
00002693 00             8069 	.byte	0
00002694 00             8070 	.byte	0
00002695 01             8071 	.byte	1
00002696 01             8072 	.byte	1
00002697 00             8073 	.byte	0
00002698 01             8074 	.byte	1
                        8075 
                        8076 	.section	.debug_frame
                        8077 .LDW_50bef10:
000001b0 00000000*      8078 	.word	.LDW_unq_16-.LDW_unq_15
                        8079 .LDW_unq_15:
000001b4 00000000*      8080 	.word	.LDW_566a730
000001b8 00000000*      8081 	.word	_Dem_SetFreezeFrameRecordFilter
000001bc 00000000*      8082 	.word	___ghs_eofn_Dem_SetFreezeFrameRecordFilter-_Dem_SetFreezeFrameRecordFilter
000001c0 01             8083 	.byte	1
000001c1 00000000*      8084 	.word	.LDW92

                                                                      Page 161
                                                              C:\Users\nhuliyap\AppData\Local\Temp\gh_00002581.s
000001c5 00             8085 	.byte	0
000001c6 00             8086 	.byte	0
000001c7 00             8087 	.byte	0
                        8088 .LDW_unq_16:
                        8089 	.section	.debug_line
00001dcb 000502         8090 	.byte	0,5,2
00001dce 00000000*      8091 	.word	_Dem_SetFreezeFrameRecordFilter
00001dd2 03             8092 	.byte	3
00001dd3 ac03           8093 	.byte	172,3
00001dd5 02             8094 	.byte	2
00001dd6 00             8095 	.byte	0
00001dd7 01             8096 	.byte	1
00001dd8 06             8097 	.byte	6
00001dd9 000502         8098 	.byte	0,5,2
00001ddc 00000000*      8099 	.word	.LDWlin93
00001de0 03             8100 	.byte	3
00001de1 05             8101 	.byte	5
00001de2 02             8102 	.byte	2
00001de3 00             8103 	.byte	0
00001de4 01             8104 	.byte	1
00001de5 13             8105 	.byte	19
00001de6 0b             8106 	.byte	11
00001de7 000502         8107 	.byte	0,5,2
00001dea 00000000*      8108 	.word	.LDWlin94
00001dee 0b             8109 	.byte	11
00001def 02             8110 	.byte	2
00001df0 00             8111 	.byte	0
00001df1 03             8112 	.byte	3
00001df2 04             8113 	.byte	4
00001df3 02             8114 	.byte	2
00001df4 00             8115 	.byte	0
00001df5 01             8116 	.byte	1
00001df6 03             8117 	.byte	3
00001df7 06             8118 	.byte	6
00001df8 02             8119 	.byte	2
00001df9 04             8120 	.byte	4
00001dfa 01             8121 	.byte	1
00001dfb 02             8122 	.byte	2
00001dfc 02             8123 	.byte	2
00001dfd 03             8124 	.byte	3
00001dfe 04             8125 	.byte	4
00001dff 02             8126 	.byte	2
00001e00 00             8127 	.byte	0
00001e01 01             8128 	.byte	1
00001e02 000502         8129 	.byte	0,5,2
00001e05 00000000*      8130 	.word	.LDWlin95
00001e09 0b             8131 	.byte	11
00001e0a 0c             8132 	.byte	12
00001e0b 0b             8133 	.byte	11
00001e0c 0c             8134 	.byte	12
00001e0d 02             8135 	.byte	2
00001e0e 00             8136 	.byte	0
00001e0f 0c             8137 	.byte	12
00001e10 0b             8138 	.byte	11
00001e11 0b             8139 	.byte	11
00001e12 2b             8140 	.byte	43
00001e13 02             8141 	.byte	2
00001e14 00             8142 	.byte	0
00001e15 0b             8143 	.byte	11
00001e16 02             8144 	.byte	2
00001e17 00             8145 	.byte	0

                                                                      Page 162
                                                              C:\Users\nhuliyap\AppData\Local\Temp\gh_00002581.s
00001e18 03             8146 	.byte	3
00001e19 70             8147 	.byte	112
00001e1a 02             8148 	.byte	2
00001e1b 00             8149 	.byte	0
00001e1c 01             8150 	.byte	1
00001e1d 000502         8151 	.byte	0,5,2
00001e20 00000000*      8152 	.word	.LDWlin96
00001e24 03             8153 	.byte	3
00001e25 11             8154 	.byte	17
00001e26 02             8155 	.byte	2
00001e27 00             8156 	.byte	0
00001e28 01             8157 	.byte	1
00001e29 0c             8158 	.byte	12
00001e2a 1b             8159 	.byte	27
00001e2b 14             8160 	.byte	20
00001e2c 06             8161 	.byte	6
00001e2d 02             8162 	.byte	2
00001e2e 02             8163 	.byte	2
00001e2f 02             8164 	.byte	2
00001e30 02             8165 	.byte	2
00001e31 000101         8166 	.byte	0,1,1
                        8167 	.section	.debug_info
                        8168 .LDW_564e470:
00002699 0f             8169 	.byte	15
0000269a 445443466f72   8170 	.strz	"DTCFormat"
000026a0 6d617400 
000026a4 ac03           8171 	.byte	172,3
000026a6 4a             8172 	.byte	74
000026a7 01             8173 	.byte	1
000026a8 00000000*      8174 	.word	.LDW_4d534c0
000026ac 00             8175 	.byte	0
000026ad 0156           8176 	.byte	1,86
                        8177 
                        8178 .LDW_564e628:
000026af 0f             8179 	.byte	15
000026b0 4e756d626572   8180 	.strz	"NumberOfFilteredRecords"
000026b6 4f6646696c74 
000026bc 657265645265 
000026c2 636f72647300 
000026c8 ac03           8181 	.byte	172,3
000026ca 5d             8182 	.byte	93
000026cb 01             8183 	.byte	1
000026cc 00000000*      8184 	.word	.LDW_4906a58
000026d0 00             8185 	.byte	0
000026d1 016e           8186 	.byte	1,110
                        8187 
                        8188 .LDW_5695a90:
000026d3 1d             8189 	.byte	29
000026d4 00000000*      8190 	.word	.LDW82
000026d8 00000000*      8191 	.word	.LDW92
                        8192 
                        8193 .LDW_564e4c8:
000026dc 04             8194 	.byte	4
000026dd 4c6f63496400   8195 	.strz	"LocId"
000026e3 ae03           8196 	.byte	174,3
000026e5 11             8197 	.byte	17
000026e6 01             8198 	.byte	1
000026e7 00000000*      8199 	.word	.LDW_4d535c8
000026eb 00             8200 	.byte	0
000026ec 00             8201 	.byte	0
000026ed 0161           8202 	.byte	1,97

                                                                      Page 163
                                                              C:\Users\nhuliyap\AppData\Local\Temp\gh_00002581.s
                        8203 
000026ef 00             8204 	.byte	0
                        8205 
000026f0 00             8206 	.byte	0
                        8207 
                        8208 .LDW_5661a18:
000026f1 14             8209 	.byte	20
000026f2 44656d5f4765   8210 	.strz	"Dem_GetNextFilteredRecord"
000026f8 744e65787446 
000026fe 696c74657265 
00002704 645265636f72 
0000270a 6400 
0000270c d803           8211 	.byte	216,3
0000270e 22             8212 	.byte	34
0000270f 01             8213 	.byte	1
00002710 00000000*      8214 	.word	.LDW_564e6d8
00002714 00000000*      8215 	.word	_Dem_GetNextFilteredRecord
00002718 00000000*      8216 	.word	___ghs_eofn_Dem_GetNextFilteredRecord
0000271c 0153           8217 	.byte	1,83
0000271e 02             8218 	.byte	2
0000271f 00             8219 	.byte	0
00002720 02             8220 	.byte	2
00002721 00             8221 	.byte	0
00002722 00             8222 	.byte	0
00002723 00             8223 	.byte	0
00002724 00             8224 	.byte	0
00002725 01             8225 	.byte	1
00002726 01             8226 	.byte	1
00002727 00             8227 	.byte	0
00002728 01             8228 	.byte	1
                        8229 
                        8230 	.section	.debug_frame
                        8231 .LDW_55e3368:
000001c8 00000000*      8232 	.word	.LDW_unq_18-.LDW_unq_17
                        8233 .LDW_unq_17:
000001cc 00000000*      8234 	.word	.LDW_566a730
000001d0 00000000*      8235 	.word	_Dem_GetNextFilteredRecord
000001d4 00000000*      8236 	.word	___ghs_eofn_Dem_GetNextFilteredRecord-_Dem_GetNextFilteredRecord
000001d8 01             8237 	.byte	1
000001d9 00000000*      8238 	.word	.LDW13
000001dd 00             8239 	.byte	0
000001de 00             8240 	.byte	0
000001df 00             8241 	.byte	0
                        8242 .LDW_unq_18:
                        8243 	.section	.debug_line
00001e34 000502         8244 	.byte	0,5,2
00001e37 00000000*      8245 	.word	_Dem_GetNextFilteredRecord
00001e3b 03             8246 	.byte	3
00001e3c d803           8247 	.byte	216,3
00001e3e 02             8248 	.byte	2
00001e3f 00             8249 	.byte	0
00001e40 01             8250 	.byte	1
00001e41 06             8251 	.byte	6
00001e42 000502         8252 	.byte	0,5,2
00001e45 00000000*      8253 	.word	.LDWlin97
00001e49 02             8254 	.byte	2
00001e4a 00             8255 	.byte	0
00001e4b 000502         8256 	.byte	0,5,2
00001e4e 00000000*      8257 	.word	.LDWlin98
00001e52 03             8258 	.byte	3
00001e53 06             8259 	.byte	6

                                                                      Page 164
                                                              C:\Users\nhuliyap\AppData\Local\Temp\gh_00002581.s
00001e54 02             8260 	.byte	2
00001e55 00             8261 	.byte	0
00001e56 01             8262 	.byte	1
00001e57 0d             8263 	.byte	13
00001e58 000502         8264 	.byte	0,5,2
00001e5b 00000000*      8265 	.word	.LDWlin99
00001e5f 03             8266 	.byte	3
00001e60 04             8267 	.byte	4
00001e61 02             8268 	.byte	2
00001e62 00             8269 	.byte	0
00001e63 01             8270 	.byte	1
00001e64 03             8271 	.byte	3
00001e65 7d             8272 	.byte	125
00001e66 02             8273 	.byte	2
00001e67 02             8274 	.byte	2
00001e68 01             8275 	.byte	1
00001e69 13             8276 	.byte	19
00001e6a 000502         8277 	.byte	0,5,2
00001e6d 00000000*      8278 	.word	.LDWlin100
00001e71 0d             8279 	.byte	13
00001e72 0b             8280 	.byte	11
00001e73 0b             8281 	.byte	11
00001e74 0b             8282 	.byte	11
00001e75 0b             8283 	.byte	11
00001e76 0d             8284 	.byte	13
00001e77 0b             8285 	.byte	11
00001e78 0d             8286 	.byte	13
00001e79 02             8287 	.byte	2
00001e7a 00             8288 	.byte	0
00001e7b 0b             8289 	.byte	11
00001e7c 02             8290 	.byte	2
00001e7d 00             8291 	.byte	0
00001e7e 0b             8292 	.byte	11
00001e7f 02             8293 	.byte	2
00001e80 00             8294 	.byte	0
00001e81 0b             8295 	.byte	11
00001e82 0b             8296 	.byte	11
00001e83 0c             8297 	.byte	12
00001e84 000502         8298 	.byte	0,5,2
00001e87 00000000*      8299 	.word	.LDWlin101
00001e8b 03             8300 	.byte	3
00001e8c 0f             8301 	.byte	15
00001e8d 02             8302 	.byte	2
00001e8e 00             8303 	.byte	0
00001e8f 01             8304 	.byte	1
00001e90 03             8305 	.byte	3
00001e91 72             8306 	.byte	114
00001e92 02             8307 	.byte	2
00001e93 02             8308 	.byte	2
00001e94 01             8309 	.byte	1
00001e95 0b             8310 	.byte	11
00001e96 000502         8311 	.byte	0,5,2
00001e99 00000000*      8312 	.word	.LDWlin102
00001e9d 03             8313 	.byte	3
00001e9e 11             8314 	.byte	17
00001e9f 02             8315 	.byte	2
00001ea0 00             8316 	.byte	0
00001ea1 01             8317 	.byte	1
00001ea2 2b             8318 	.byte	43
00001ea3 000502         8319 	.byte	0,5,2
00001ea6 00000000*      8320 	.word	.LDWlin103

                                                                      Page 165
                                                              C:\Users\nhuliyap\AppData\Local\Temp\gh_00002581.s
00001eaa 03             8321 	.byte	3
00001eab 04             8322 	.byte	4
00001eac 02             8323 	.byte	2
00001ead 00             8324 	.byte	0
00001eae 01             8325 	.byte	1
00001eaf 02             8326 	.byte	2
00001eb0 00             8327 	.byte	0
00001eb1 0b             8328 	.byte	11
00001eb2 0b             8329 	.byte	11
00001eb3 0c             8330 	.byte	12
00001eb4 0b             8331 	.byte	11
00001eb5 0c             8332 	.byte	12
00001eb6 03             8333 	.byte	3
00001eb7 05             8334 	.byte	5
00001eb8 02             8335 	.byte	2
00001eb9 00             8336 	.byte	0
00001eba 01             8337 	.byte	1
00001ebb 0b             8338 	.byte	11
00001ebc 03             8339 	.byte	3
00001ebd 12             8340 	.byte	18
00001ebe 02             8341 	.byte	2
00001ebf 00             8342 	.byte	0
00001ec0 01             8343 	.byte	1
00001ec1 02             8344 	.byte	2
00001ec2 00             8345 	.byte	0
00001ec3 03             8346 	.byte	3
00001ec4 60             8347 	.byte	96
00001ec5 02             8348 	.byte	2
00001ec6 00             8349 	.byte	0
00001ec7 01             8350 	.byte	1
00001ec8 03             8351 	.byte	3
00001ec9 22             8352 	.byte	34
00001eca 02             8353 	.byte	2
00001ecb 00             8354 	.byte	0
00001ecc 01             8355 	.byte	1
00001ecd 0b             8356 	.byte	11
00001ece 02             8357 	.byte	2
00001ecf 00             8358 	.byte	0
00001ed0 0c             8359 	.byte	12
00001ed1 1b             8360 	.byte	27
00001ed2 02             8361 	.byte	2
00001ed3 00             8362 	.byte	0
00001ed4 0b             8363 	.byte	11
00001ed5 02             8364 	.byte	2
00001ed6 00             8365 	.byte	0
00001ed7 0b             8366 	.byte	11
00001ed8 03             8367 	.byte	3
00001ed9 a87f           8368 	.byte	168,127
00001edb 02             8369 	.byte	2
00001edc 08             8370 	.byte	8
00001edd 01             8371 	.byte	1
00001ede 03             8372 	.byte	3
00001edf d900           8373 	.byte	217,0
00001ee1 02             8374 	.byte	2
00001ee2 04             8375 	.byte	4
00001ee3 01             8376 	.byte	1
00001ee4 0b             8377 	.byte	11
00001ee5 06             8378 	.byte	6
00001ee6 000502         8379 	.byte	0,5,2
00001ee9 00000000*      8380 	.word	.LDWlin104
00001eed 02             8381 	.byte	2

                                                                      Page 166
                                                              C:\Users\nhuliyap\AppData\Local\Temp\gh_00002581.s
00001eee 00             8382 	.byte	0
00001eef 02             8383 	.byte	2
00001ef0 02             8384 	.byte	2
00001ef1 000101         8385 	.byte	0,1,1
                        8386 	.section	.debug_info
                        8387 .LDW_564e9f0:
00002729 0f             8388 	.byte	15
0000272a 44544300       8389 	.strz	"DTC"
0000272e d803           8390 	.byte	216,3
00002730 44             8391 	.byte	68
00002731 01             8392 	.byte	1
00002732 00000000*      8393 	.word	.LDW_4c203a0
00002736 00             8394 	.byte	0
00002737 0156           8395 	.byte	1,86
                        8396 
                        8397 .LDW_564e890:
00002739 0f             8398 	.byte	15
0000273a 5265636f7264   8399 	.strz	"RecordNumber"
00002740 4e756d626572 
00002746 00 
00002747 d803           8400 	.byte	216,3
00002749 50             8401 	.byte	80
0000274a 01             8402 	.byte	1
0000274b 00000000*      8403 	.word	.LDW_4906be0
0000274f 00             8404 	.byte	0
00002750 0157           8405 	.byte	1,87
                        8406 
                        8407 .LDW_56957f0:
00002752 1d             8408 	.byte	29
00002753 00000000*      8409 	.word	.LDW03
00002757 00000000*      8410 	.word	.LDW13
                        8411 
                        8412 .LDW_564e788:
0000275b 05             8413 	.byte	5
0000275c 4c6f63496400   8414 	.strz	"LocId"
00002762 da03           8415 	.byte	218,3
00002764 11             8416 	.byte	17
00002765 01             8417 	.byte	1
00002766 00000000*      8418 	.word	.LDW_4d535c8
0000276a 00             8419 	.byte	0
0000276b 00             8420 	.byte	0
                        8421 
                        8422 .LDW_564eaf8:
0000276c 05             8423 	.byte	5
0000276d 537461747573   8424 	.strz	"Status"
00002773 00 
00002774 db03           8425 	.byte	219,3
00002776 11             8426 	.byte	17
00002777 01             8427 	.byte	1
00002778 00000000*      8428 	.word	.LDW_4d535c8
0000277c 00             8429 	.byte	0
0000277d 00             8430 	.byte	0
                        8431 
                        8432 .LDW_564e8e8:
0000277e 04             8433 	.byte	4
0000277f 4576656e7449   8434 	.strz	"EventId"
00002785 6400 
00002787 dc03           8435 	.byte	220,3
00002789 14             8436 	.byte	20
0000278a 01             8437 	.byte	1
0000278b 00000000*      8438 	.word	.LDW_4d53ca8

                                                                      Page 167
                                                              C:\Users\nhuliyap\AppData\Local\Temp\gh_00002581.s
0000278f 00             8439 	.byte	0
00002790 00             8440 	.byte	0
00002791 015d           8441 	.byte	1,93
                        8442 
                        8443 .LDW_564eaa0:
00002793 04             8444 	.byte	4
00002794 467265657a65   8445 	.strz	"FreezeFrameCounter"
0000279a 4672616d6543 
000027a0 6f756e746572 
000027a6 00 
000027a7 dd03           8446 	.byte	221,3
000027a9 11             8447 	.byte	17
000027aa 01             8448 	.byte	1
000027ab 00000000*      8449 	.word	.LDW_4d535c8
000027af 00             8450 	.byte	0
000027b0 00             8451 	.byte	0
000027b1 015c           8452 	.byte	1,92
                        8453 
000027b3 00             8454 	.byte	0
                        8455 
000027b4 00             8456 	.byte	0
                        8457 
                        8458 .LDW_5661ab0:
000027b5 14             8459 	.byte	20
000027b6 44656d5f5265   8460 	.strz	"Dem_ReadEventsFromMemory"
000027bc 61644576656e 
000027c2 747346726f6d 
000027c8 4d656d6f7279 
000027ce 00 
000027cf c104           8461 	.byte	193,4
000027d1 13             8462 	.byte	19
000027d2 01             8463 	.byte	1
000027d3 00000000*      8464 	.word	.LDW_564ec58
000027d7 00000000*      8465 	.word	_Dem_ReadEventsFromMemory
000027db 00000000*      8466 	.word	___ghs_eofn_Dem_ReadEventsFromMemory
000027df 0153           8467 	.byte	1,83
000027e1 02             8468 	.byte	2
000027e2 00             8469 	.byte	0
000027e3 02             8470 	.byte	2
000027e4 00             8471 	.byte	0
000027e5 00             8472 	.byte	0
000027e6 00             8473 	.byte	0
000027e7 00             8474 	.byte	0
000027e8 01             8475 	.byte	1
000027e9 01             8476 	.byte	1
000027ea 00             8477 	.byte	0
000027eb 01             8478 	.byte	1
                        8479 
                        8480 	.section	.debug_frame
                        8481 .LDW_55e38a8:
000001e0 00000000*      8482 	.word	.LDW_unq_1a-.LDW_unq_19
                        8483 .LDW_unq_19:
000001e4 00000000*      8484 	.word	.LDW_566a730
000001e8 00000000*      8485 	.word	_Dem_ReadEventsFromMemory
000001ec 00000000*      8486 	.word	___ghs_eofn_Dem_ReadEventsFromMemory-_Dem_ReadEventsFromMemory
000001f0 01             8487 	.byte	1
000001f1 00000000*      8488 	.word	.LDW33
000001f5 00             8489 	.byte	0
000001f6 00             8490 	.byte	0
000001f7 00             8491 	.byte	0
                        8492 .LDW_unq_1a:

                                                                      Page 168
                                                              C:\Users\nhuliyap\AppData\Local\Temp\gh_00002581.s
                        8493 	.section	.debug_line
00001ef4 000502         8494 	.byte	0,5,2
00001ef7 00000000*      8495 	.word	_Dem_ReadEventsFromMemory
00001efb 03             8496 	.byte	3
00001efc c104           8497 	.byte	193,4
00001efe 02             8498 	.byte	2
00001eff 00             8499 	.byte	0
00001f00 01             8500 	.byte	1
00001f01 06             8501 	.byte	6
00001f02 1b             8502 	.byte	27
00001f03 000502         8503 	.byte	0,5,2
00001f06 00000000*      8504 	.word	.LDWlin105
00001f0a 0b             8505 	.byte	11
00001f0b 63             8506 	.byte	99
00001f0c 0d             8507 	.byte	13
00001f0d 0c             8508 	.byte	12
00001f0e 0d             8509 	.byte	13
00001f0f 02             8510 	.byte	2
00001f10 00             8511 	.byte	0
00001f11 06             8512 	.byte	6
00001f12 02             8513 	.byte	2
00001f13 00             8514 	.byte	0
00001f14 02             8515 	.byte	2
00001f15 02             8516 	.byte	2
00001f16 000101         8517 	.byte	0,1,1
                        8518 	.section	.debug_info
                        8519 .LDW_564e838:
000027ec 0f             8520 	.byte	15
000027ed 526561644576   8521 	.strz	"ReadEventsFromMemoryState"
000027f3 656e74734672 
000027f9 6f6d4d656d6f 
000027ff 727953746174 
00002805 6500 
00002807 c104           8522 	.byte	193,4
00002809 4b             8523 	.byte	75
0000280a 01             8524 	.byte	1
0000280b 00000000*      8525 	.word	.LDW_565fe20
0000280f 00             8526 	.byte	0
00002810 0156           8527 	.byte	1,86
                        8528 
                        8529 .LDW_564edb8:
00002812 0f             8530 	.byte	15
00002813 6f726967696e   8531 	.strz	"origin"
00002819 00 
0000281a c104           8532 	.byte	193,4
0000281c 78             8533 	.byte	120
0000281d 01             8534 	.byte	1
0000281e 00000000*      8535 	.word	.LDW_4cd1348
00002822 00             8536 	.byte	0
00002823 0157           8537 	.byte	1,87
                        8538 
                        8539 .LDW_5695af0:
00002825 1d             8540 	.byte	29
00002826 00000000*      8541 	.word	.LDW23
0000282a 00000000*      8542 	.word	.LDW33
                        8543 
0000282e 00             8544 	.byte	0
                        8545 
0000282f 00             8546 	.byte	0
                        8547 
                        8548 .LDW_56620a0:

                                                                      Page 169
                                                              C:\Users\nhuliyap\AppData\Local\Temp\gh_00002581.s
00002830 14             8549 	.byte	20
00002831 44656d5f4765   8550 	.strz	"Dem_GetNextEventFromMemory"
00002837 744e65787445 
0000283d 76656e744672 
00002843 6f6d4d656d6f 
00002849 727900 
0000284c d004           8551 	.byte	208,4
0000284e 13             8552 	.byte	19
0000284f 01             8553 	.byte	1
00002850 00000000*      8554 	.word	.LDW_564ec58
00002854 00000000*      8555 	.word	_Dem_GetNextEventFromMemory
00002858 00000000*      8556 	.word	___ghs_eofn_Dem_GetNextEventFromMemory
0000285c 0153           8557 	.byte	1,83
0000285e 02             8558 	.byte	2
0000285f 00             8559 	.byte	0
00002860 02             8560 	.byte	2
00002861 00             8561 	.byte	0
00002862 00             8562 	.byte	0
00002863 00             8563 	.byte	0
00002864 00             8564 	.byte	0
00002865 01             8565 	.byte	1
00002866 01             8566 	.byte	1
00002867 00             8567 	.byte	0
00002868 01             8568 	.byte	1
                        8569 
                        8570 	.section	.debug_frame
                        8571 .LDW_559fe78:
000001f8 00000000*      8572 	.word	.LDW_unq_1c-.LDW_unq_1b
                        8573 .LDW_unq_1b:
000001fc 00000000*      8574 	.word	.LDW_566a730
00000200 00000000*      8575 	.word	_Dem_GetNextEventFromMemory
00000204 00000000*      8576 	.word	___ghs_eofn_Dem_GetNextEventFromMemory-_Dem_GetNextEventFromMemory
00000208 01             8577 	.byte	1
00000209 00000000*      8578 	.word	.LDW53
0000020d 00             8579 	.byte	0
0000020e 00             8580 	.byte	0
0000020f 00             8581 	.byte	0
                        8582 .LDW_unq_1c:
                        8583 	.section	.debug_line
00001f19 000502         8584 	.byte	0,5,2
00001f1c 00000000*      8585 	.word	_Dem_GetNextEventFromMemory
00001f20 03             8586 	.byte	3
00001f21 d004           8587 	.byte	208,4
00001f23 02             8588 	.byte	2
00001f24 00             8589 	.byte	0
00001f25 01             8590 	.byte	1
00001f26 06             8591 	.byte	6
00001f27 03             8592 	.byte	3
00001f28 0b             8593 	.byte	11
00001f29 02             8594 	.byte	2
00001f2a 02             8595 	.byte	2
00001f2b 01             8596 	.byte	1
00001f2c 02             8597 	.byte	2
00001f2d 00             8598 	.byte	0
00001f2e 03             8599 	.byte	3
00001f2f 76             8600 	.byte	118
00001f30 02             8601 	.byte	2
00001f31 00             8602 	.byte	0
00001f32 01             8603 	.byte	1
00001f33 03             8604 	.byte	3
00001f34 0b             8605 	.byte	11

                                                                      Page 170
                                                              C:\Users\nhuliyap\AppData\Local\Temp\gh_00002581.s
00001f35 02             8606 	.byte	2
00001f36 02             8607 	.byte	2
00001f37 01             8608 	.byte	1
00001f38 0b             8609 	.byte	11
00001f39 000502         8610 	.byte	0,5,2
00001f3c 00000000*      8611 	.word	.LDWlin106
00001f40 03             8612 	.byte	3
00001f41 74             8613 	.byte	116
00001f42 02             8614 	.byte	2
00001f43 00             8615 	.byte	0
00001f44 01             8616 	.byte	1
00001f45 0c             8617 	.byte	12
00001f46 000502         8618 	.byte	0,5,2
00001f49 00000000*      8619 	.word	.LDWlin107
00001f4d 0d             8620 	.byte	13
00001f4e 3d             8621 	.byte	61
00001f4f 0b             8622 	.byte	11
00001f50 03             8623 	.byte	3
00001f51 7b             8624 	.byte	123
00001f52 02             8625 	.byte	2
00001f53 06             8626 	.byte	6
00001f54 01             8627 	.byte	1
00001f55 1d             8628 	.byte	29
00001f56 06             8629 	.byte	6
00001f57 000502         8630 	.byte	0,5,2
00001f5a 00000000*      8631 	.word	.LDWlin108
00001f5e 02             8632 	.byte	2
00001f5f 00             8633 	.byte	0
00001f60 02             8634 	.byte	2
00001f61 02             8635 	.byte	2
00001f62 000101         8636 	.byte	0,1,1
                        8637 	.section	.debug_info
                        8638 .LDW_564ef18:
00002869 0f             8639 	.byte	15
0000286a 526561644576   8640 	.strz	"ReadEventsFromMemoryState"
00002870 656e74734672 
00002876 6f6d4d656d6f 
0000287c 727953746174 
00002882 6500 
00002884 d004           8641 	.byte	208,4
00002886 4d             8642 	.byte	77
00002887 01             8643 	.byte	1
00002888 00000000*      8644 	.word	.LDW_565fe20
0000288c 00             8645 	.byte	0
0000288d 016e           8646 	.byte	1,110
                        8647 
                        8648 .LDW_564ea48:
0000288f 0f             8649 	.byte	15
00002890 4576656e7449   8650 	.strz	"EventId"
00002896 6400 
00002898 d004           8651 	.byte	208,4
0000289a 79             8652 	.byte	121
0000289b 01             8653 	.byte	1
0000289c 00000000*      8654 	.word	.LDW_565f9c0
000028a0 00             8655 	.byte	0
000028a1 0157           8656 	.byte	1,87
                        8657 
                        8658 .LDW_564ef70:
000028a3 0f             8659 	.byte	15
000028a4 4c6f63496400   8660 	.strz	"LocId"
000028aa d004           8661 	.byte	208,4

                                                                      Page 171
                                                              C:\Users\nhuliyap\AppData\Local\Temp\gh_00002581.s
000028ac 8a01           8662 	.byte	138,1
000028ae 01             8663 	.byte	1
000028af 00000000*      8664 	.word	.LDW_4906a58
000028b3 00             8665 	.byte	0
000028b4 0158           8666 	.byte	1,88
                        8667 
                        8668 .LDW_5696030:
000028b6 1d             8669 	.byte	29
000028b7 00000000*      8670 	.word	.LDW43
000028bb 00000000*      8671 	.word	.LDW53
                        8672 
000028bf 00             8673 	.byte	0
                        8674 
000028c0 00             8675 	.byte	0
                        8676 
                        8677 .LDW_5662138:
000028c1 16             8678 	.byte	22
000028c2 44656d5f4576   8679 	.strz	"Dem_EvMemGetNoOfEntries"
000028c8 4d656d476574 
000028ce 4e6f4f66456e 
000028d4 747269657300 
000028da e104           8680 	.byte	225,4
000028dc 12             8681 	.byte	18
000028dd 01             8682 	.byte	1
000028de 00000000*      8683 	.word	.LDW_491ba88
000028e2 00             8684 	.byte	0
000028e3 03             8685 	.byte	3
000028e4 00             8686 	.byte	0
000028e5 01             8687 	.byte	1
000028e6 00             8688 	.byte	0
000028e7 01             8689 	.byte	1
                        8690 
                        8691 .LDW_564eb50:
000028e8 10             8692 	.byte	16
000028e9 4d656d496400   8693 	.strz	"MemId"
000028ef e104           8694 	.byte	225,4
000028f1 37             8695 	.byte	55
000028f2 01             8696 	.byte	1
000028f3 00000000*      8697 	.word	.LDW_4d535c8
000028f7 00             8698 	.byte	0
                        8699 
                        8700 .LDW_5696180:
000028f8 20             8701 	.byte	32
                        8702 
                        8703 .LDW_564eba8:
000028f9 05             8704 	.byte	5
000028fa 4c6f63496400   8705 	.strz	"LocId"
00002900 e304           8706 	.byte	227,4
00002902 11             8707 	.byte	17
00002903 01             8708 	.byte	1
00002904 00000000*      8709 	.word	.LDW_4d535c8
00002908 00             8710 	.byte	0
00002909 00             8711 	.byte	0
                        8712 
                        8713 .LDW_564e998:
0000290a 05             8714 	.byte	5
0000290b 636f756e7465   8715 	.strz	"counter"
00002911 7200 
00002913 e404           8716 	.byte	228,4
00002915 0a             8717 	.byte	10
00002916 01             8718 	.byte	1

                                                                      Page 172
                                                              C:\Users\nhuliyap\AppData\Local\Temp\gh_00002581.s
00002917 00000000*      8719 	.word	.LDW_491ba88
0000291b 00             8720 	.byte	0
0000291c 00             8721 	.byte	0
                        8722 
0000291d 00             8723 	.byte	0
                        8724 
0000291e 00             8725 	.byte	0
                        8726 
                        8727 .LDW_56621d0:
0000291f 14             8728 	.byte	20
00002920 44656d5f4765   8729 	.strz	"Dem_GetNumberOfEventMemoryEntries"
00002926 744e756d6265 
0000292c 724f66457665 
00002932 6e744d656d6f 
00002938 7279456e7472 
0000293e 69657300 
00002942 f404           8730 	.byte	244,4
00002944 10             8731 	.byte	16
00002945 01             8732 	.byte	1
00002946 00000000*      8733 	.word	.LDW_4ca0888
0000294a 00000000*      8734 	.word	_Dem_GetNumberOfEventMemoryEntries
0000294e 00000000*      8735 	.word	___ghs_eofn_Dem_GetNumberOfEventMemoryEntries
00002952 0153           8736 	.byte	1,83
00002954 8280808008     8737 	.byte	130,128,128,128,8
00002959 04             8738 	.byte	4
0000295a 03             8739 	.byte	3
0000295b 04             8740 	.byte	4
0000295c 00             8741 	.byte	0
0000295d 00             8742 	.byte	0
0000295e 00             8743 	.byte	0
0000295f 01             8744 	.byte	1
00002960 01             8745 	.byte	1
00002961 00             8746 	.byte	0
00002962 01             8747 	.byte	1
                        8748 
                        8749 	.section	.debug_frame
                        8750 .LDW_559fe38:
00000210 00000000*      8751 	.word	.LDW_unq_1e-.LDW_unq_1d
                        8752 .LDW_unq_1d:
00000214 00000000*      8753 	.word	.LDW_566a730
00000218 00000000*      8754 	.word	_Dem_GetNumberOfEventMemoryEntries
0000021c 00000000*      8755 	.word	___ghs_eofn_Dem_GetNumberOfEventMemoryEntries-_Dem_GetNumberOfEventMemoryEntries
00000220 44             8756 	.byte	68
00000221 9f             8757 	.byte	159
00000222 00             8758 	.byte	0
00000223 01             8759 	.byte	1
00000224 00000000*      8760 	.word	.LDW73
                        8761 .LDW_unq_1e:
                        8762 	.section	.debug_line
00001f65 000502         8763 	.byte	0,5,2
00001f68 00000000*      8764 	.word	_Dem_GetNumberOfEventMemoryEntries
00001f6c 03             8765 	.byte	3
00001f6d f404           8766 	.byte	244,4
00001f6f 02             8767 	.byte	2
00001f70 00             8768 	.byte	0
00001f71 01             8769 	.byte	1
00001f72 06             8770 	.byte	6
00001f73 1d             8771 	.byte	29
00001f74 02             8772 	.byte	2
00001f75 00             8773 	.byte	0
00001f76 02             8774 	.byte	2

                                                                      Page 173
                                                              C:\Users\nhuliyap\AppData\Local\Temp\gh_00002581.s
00001f77 00             8775 	.byte	0
00001f78 02             8776 	.byte	2
00001f79 00             8777 	.byte	0
00001f7a 000502         8778 	.byte	0,5,2
00001f7d 00000000*      8779 	.word	.LDWlin109
00001f81 02             8780 	.byte	2
00001f82 00             8781 	.byte	0
00001f83 000502         8782 	.byte	0,5,2
00001f86 00000000*      8783 	.word	.LDWlin110
00001f8a 02             8784 	.byte	2
00001f8b 00             8785 	.byte	0
00001f8c 02             8786 	.byte	2
00001f8d 00             8787 	.byte	0
00001f8e 02             8788 	.byte	2
00001f8f 00             8789 	.byte	0
00001f90 0b             8790 	.byte	11
00001f91 02             8791 	.byte	2
00001f92 00             8792 	.byte	0
00001f93 02             8793 	.byte	2
00001f94 00             8794 	.byte	0
00001f95 02             8795 	.byte	2
00001f96 00             8796 	.byte	0
00001f97 000502         8797 	.byte	0,5,2
00001f9a 00000000*      8798 	.word	.LDWlin111
00001f9e 02             8799 	.byte	2
00001f9f 00             8800 	.byte	0
00001fa0 000502         8801 	.byte	0,5,2
00001fa3 00000000*      8802 	.word	.LDWlin112
00001fa7 02             8803 	.byte	2
00001fa8 00             8804 	.byte	0
00001fa9 02             8805 	.byte	2
00001faa 00             8806 	.byte	0
00001fab 02             8807 	.byte	2
00001fac 00             8808 	.byte	0
00001fad 0b             8809 	.byte	11
00001fae 000502         8810 	.byte	0,5,2
00001fb1 00000000*      8811 	.word	.LDWlin113
00001fb5 0b             8812 	.byte	11
00001fb6 0b             8813 	.byte	11
00001fb7 000502         8814 	.byte	0,5,2
00001fba 00000000*      8815 	.word	.LDWlin114
00001fbe 0b             8816 	.byte	11
00001fbf 000502         8817 	.byte	0,5,2
00001fc2 00000000*      8818 	.word	.LDWlin115
00001fc6 0b             8819 	.byte	11
00001fc7 02             8820 	.byte	2
00001fc8 00             8821 	.byte	0
00001fc9 0c             8822 	.byte	12
00001fca 0b             8823 	.byte	11
00001fcb 0b             8824 	.byte	11
00001fcc 000502         8825 	.byte	0,5,2
00001fcf 00000000*      8826 	.word	.LDWlin116
00001fd3 0b             8827 	.byte	11
00001fd4 13             8828 	.byte	19
00001fd5 02             8829 	.byte	2
00001fd6 00             8830 	.byte	0
00001fd7 03             8831 	.byte	3
00001fd8 17             8832 	.byte	23
00001fd9 02             8833 	.byte	2
00001fda 00             8834 	.byte	0
00001fdb 01             8835 	.byte	1

                                                                      Page 174
                                                              C:\Users\nhuliyap\AppData\Local\Temp\gh_00002581.s
00001fdc 02             8836 	.byte	2
00001fdd 04             8837 	.byte	4
00001fde 000101         8838 	.byte	0,1,1
                        8839 	.section	.debug_info
                        8840 .LDW_564ec00:
00002963 0f             8841 	.byte	15
00002964 4454434f7269   8842 	.strz	"DTCOrigin"
0000296a 67696e00 
0000296e f404           8843 	.byte	244,4
00002970 44             8844 	.byte	68
00002971 01             8845 	.byte	1
00002972 00000000*      8846 	.word	.LDW_4cd1348
00002976 00             8847 	.byte	0
00002977 0156           8848 	.byte	1,86
                        8849 
                        8850 .LDW_564ecb0:
00002979 0f             8851 	.byte	15
0000297a 4e756d626572   8852 	.strz	"NumberOfEventMemoryEntries"
00002980 4f664576656e 
00002986 744d656d6f72 
0000298c 79456e747269 
00002992 657300 
00002995 f404           8853 	.byte	244,4
00002997 56             8854 	.byte	86
00002998 01             8855 	.byte	1
00002999 00000000*      8856 	.word	.LDW_4906be0
0000299d 00             8857 	.byte	0
0000299e 0157           8858 	.byte	1,87
                        8859 
                        8860 .LDW_5695f10:
000029a0 1d             8861 	.byte	29
000029a1 00000000*      8862 	.word	.LDW63
000029a5 00000000*      8863 	.word	.LDW73
                        8864 
                        8865 .LDW_564ed08:
000029a9 04             8866 	.byte	4
000029aa 72657456616c   8867 	.strz	"retVal"
000029b0 00 
000029b1 f604           8868 	.byte	246,4
000029b3 14             8869 	.byte	20
000029b4 01             8870 	.byte	1
000029b5 00000000*      8871 	.word	.LDW_4ca0888
000029b9 00             8872 	.byte	0
000029ba 00             8873 	.byte	0
000029bb 015a           8874 	.byte	1,90
                        8875 
000029bd 00             8876 	.byte	0
                        8877 
000029be 00             8878 	.byte	0
                        8879 
000029bf 00             8880 	.byte	0
                        8881 
                        8882 	.section	.debug_line
                        8883 .Ldw_line_end:
                        8884 	.section	.debug_macinfo
00000000 01             8885 	.byte	1
00000001 00             8886 	.byte	0
00000002 5f5f474e555f   8887 	.strz	"__GNU_ASM_SUPPORT__ 1"
00000008 41534d5f5355 
0000000e 50504f52545f 
00000014 5f203100 

                                                                      Page 175
                                                              C:\Users\nhuliyap\AppData\Local\Temp\gh_00002581.s
00000018 01             8888 	.byte	1
00000019 00             8889 	.byte	0
0000001a 5f5f67687320   8890 	.strz	"__ghs 1"
00000020 3100 
00000022 01             8891 	.byte	1
00000023 00             8892 	.byte	0
00000024 5f5f6768735f   8893 	.strz	"__ghs__ 1"
0000002a 5f203100 
0000002e 01             8894 	.byte	1
0000002f 00             8895 	.byte	0
00000030 5f5f41545452   8896 	.strz	"__ATTRIBUTES 1"
00000036 494255544553 
0000003c 203100 
0000003f 01             8897 	.byte	1
00000040 00             8898 	.byte	0
00000041 5f5f4544475f   8899 	.strz	"__EDG__ 1"
00000047 5f203100 
0000004b 01             8900 	.byte	1
0000004c 00             8901 	.byte	0
0000004d 5f5f434f5245   8902 	.strz	"__CORE_V850E3V5__ 1"
00000053 5f5638353045 
00000059 3356355f5f20 
0000005f 3100 
00000061 01             8903 	.byte	1
00000062 00             8904 	.byte	0
00000063 5f5f56383530   8905 	.strz	"__V850E__ 1"
00000069 455f5f203100 
0000006f 01             8906 	.byte	1
00000070 00             8907 	.byte	0
00000071 5f5f56383530   8908 	.strz	"__V850E2__ 1"
00000077 45325f5f2031 
0000007d 00 
0000007e 01             8909 	.byte	1
0000007f 00             8910 	.byte	0
00000080 5f5f56383530   8911 	.strz	"__V850E2R__ 1"
00000086 4532525f5f20 
0000008c 3100 
0000008e 01             8912 	.byte	1
0000008f 00             8913 	.byte	0
00000090 5f5f56383530   8914 	.strz	"__V850E2V3__ 1"
00000096 453256335f5f 
0000009c 203100 
0000009f 01             8915 	.byte	1
000000a0 00             8916 	.byte	0
000000a1 5f5f56383530   8917 	.strz	"__V850E3__ 1"
000000a7 45335f5f2031 
000000ad 00 
000000ae 01             8918 	.byte	1
000000af 00             8919 	.byte	0
000000b0 5f5f4c4c4f4e   8920 	.strz	"__LLONG_BIT 64"
000000b6 475f42495420 
000000bc 363400 
000000bf 01             8921 	.byte	1
000000c0 00             8922 	.byte	0
000000c1 4e4f545f5245   8923 	.strz	"NOT_READY_FOR_TESTING_OR_DEPLOYMENT 1"
000000c7 4144595f464f 
000000cd 525f54455354 
000000d3 494e475f4f52 
000000d9 5f4445504c4f 
000000df 594d454e5420 
000000e5 3100 

                                                                      Page 176
                                                              C:\Users\nhuliyap\AppData\Local\Temp\gh_00002581.s
000000e7 03             8924 	.byte	3
000000e8 00             8925 	.byte	0
000000e9 01             8926 	.byte	1
000000ea 03             8927 	.byte	3
000000eb 01             8928 	.byte	1
000000ec 02             8929 	.byte	2
000000ed 03             8930 	.byte	3
000000ee 1c             8931 	.byte	28
000000ef 03             8932 	.byte	3
000000f0 01             8933 	.byte	1
000000f1 39             8934 	.byte	57
000000f2 4c4f575f4259   8935 	.strz	"LOW_BYTE_FIRST 1u"
000000f8 54455f464952 
000000fe 535420317500 
00000104 01             8936 	.byte	1
00000105 3c             8937 	.byte	60
00000106 545255452031   8938 	.strz	"TRUE 1u"
0000010c 7500 
0000010e 01             8939 	.byte	1
0000010f 40             8940 	.byte	64
00000110 46414c534520   8941 	.strz	"FALSE 0u"
00000116 307500 
00000119 01             8942 	.byte	1
0000011a 45             8943 	.byte	69
0000011b 4350555f4259   8944 	.strz	"CPU_BYTE_ORDER LOW_BYTE_FIRST"
00000121 54455f4f5244 
00000127 4552204c4f57 
0000012d 5f425954455f 
00000133 464952535400 
00000139 04             8945 	.byte	4
0000013a 03             8946 	.byte	3
0000013b 1d             8947 	.byte	29
0000013c 04             8948 	.byte	4
0000013d 03             8949 	.byte	3
0000013e 1b             8950 	.byte	27
0000013f 05             8951 	.byte	5
00000140 03             8952 	.byte	3
00000141 54             8953 	.byte	84
00000142 06             8954 	.byte	6
00000143 04             8955 	.byte	4
00000144 04             8956 	.byte	4
00000145 01             8957 	.byte	1
00000146 2f             8958 	.byte	47
00000147 4e554c4c5f50   8959 	.strz	"NULL_PTR ((void *)0)"
0000014d 545220282876 
00000153 6f6964202a29 
00000159 302900 
0000015c 01             8960 	.byte	1
0000015d 33             8961 	.byte	51
0000015e 4c4f43414c5f   8962 	.strz	"LOCAL_INLINE static inline"
00000164 494e4c494e45 
0000016a 207374617469 
00000170 6320696e6c69 
00000176 6e6500 
00000179 01             8963 	.byte	1
0000017a 34             8964 	.byte	52
0000017b 46554e432872   8965 	.strz	"FUNC(rettype,memclass) rettype"
00000181 657474797065 
00000187 2c6d656d636c 
0000018d 617373292072 
00000193 657474797065 

                                                                      Page 177
                                                              C:\Users\nhuliyap\AppData\Local\Temp\gh_00002581.s
00000199 00 
0000019a 01             8966 	.byte	1
0000019b 37             8967 	.byte	55
0000019c 503256415228   8968 	.strz	"P2VAR(ptrtype,memclass,ptrclass) ptrtype*"
000001a2 707472747970 
000001a8 652c6d656d63 
000001ae 6c6173732c70 
000001b4 7472636c6173 
000001ba 732920707472 
000001c0 747970652a00 
000001c6 01             8969 	.byte	1
000001c7 38             8970 	.byte	56
000001c8 5032434f4e53   8971 	.strz	"P2CONST(ptrtype,memclass,ptrclass) const ptrtype*"
000001ce 542870747274 
000001d4 7970652c6d65 
000001da 6d636c617373 
000001e0 2c707472636c 
000001e6 617373292063 
000001ec 6f6e73742070 
000001f2 747274797065 
000001f8 2a00 
000001fa 01             8972 	.byte	1
000001fb 3d             8973 	.byte	61
000001fc 434f4e535428   8974 	.strz	"CONST(type,memclass) const type"
00000202 747970652c6d 
00000208 656d636c6173 
0000020e 732920636f6e 
00000214 737420747970 
0000021a 6500 
0000021c 04             8975 	.byte	4
0000021d 01             8976 	.byte	1
0000021e 3c             8977 	.byte	60
0000021f 5354445f4f4e   8978 	.strz	"STD_ON 1u"
00000225 20317500 
00000229 01             8979 	.byte	1
0000022a 3d             8980 	.byte	61
0000022b 5354445f4f46   8981 	.strz	"STD_OFF 0u"
00000231 4620307500 
00000236 01             8982 	.byte	1
00000237 3e             8983 	.byte	62
00000238 455f4f4b2030   8984 	.strz	"E_OK 0u"
0000023e 7500 
00000240 01             8985 	.byte	1
00000241 3f             8986 	.byte	63
00000242 455f4e4f545f   8987 	.strz	"E_NOT_OK 1u"
00000248 4f4b20317500 
0000024e 04             8988 	.byte	4
0000024f 03             8989 	.byte	3
00000250 03             8990 	.byte	3
00000251 07             8991 	.byte	7
00000252 03             8992 	.byte	3
00000253 04             8993 	.byte	4
00000254 08             8994 	.byte	8
00000255 01             8995 	.byte	1
00000256 02             8996 	.byte	2
00000257 44454d5f5459   8997 	.strz	"DEM_TYPES_H "
0000025d 5045535f4820 
00000263 00 
00000264 03             8998 	.byte	3
00000265 04             8999 	.byte	4
00000266 09             9000 	.byte	9

                                                                      Page 178
                                                              C:\Users\nhuliyap\AppData\Local\Temp\gh_00002581.s
00000267 01             9001 	.byte	1
00000268 04             9002 	.byte	4
00000269 44454d5f4346   9003 	.strz	"DEM_CFG_OBD_OFF 0"
0000026f 475f4f42445f 
00000275 4f4646203000 
0000027b 01             9004 	.byte	1
0000027c 05             9005 	.byte	5
0000027d 44454d5f4346   9006 	.strz	"DEM_CFG_OBD_ON 1"
00000283 475f4f42445f 
00000289 4f4e203100 
0000028e 01             9007 	.byte	1
0000028f 06             9008 	.byte	6
00000290 44454d5f4346   9009 	.strz	"DEM_CFG_OBD DEM_CFG_OBD_OFF"
00000296 475f4f424420 
0000029c 44454d5f4346 
000002a2 475f4f42445f 
000002a8 4f464600 
000002ac 01             9010 	.byte	1
000002ad 07             9011 	.byte	7
000002ae 44454d5f4346   9012 	.strz	"DEM_CFG_J1939DCM_OFF 0"
000002b4 475f4a313933 
000002ba 3944434d5f4f 
000002c0 4646203000 
000002c5 01             9013 	.byte	1
000002c6 09             9014 	.byte	9
000002c7 44454d5f4346   9015 	.strz	"DEM_CFG_J1939DCM DEM_CFG_J1939DCM_OFF"
000002cd 475f4a313933 
000002d3 3944434d2044 
000002d9 454d5f434647 
000002df 5f4a31393339 
000002e5 44434d5f4f46 
000002eb 4600 
000002ed 01             9016 	.byte	1
000002ee 0a             9017 	.byte	10
000002ef 44454d5f4346   9018 	.strz	"DEM_CFG_J1939DCM_CLEAR_SUPPORT DEM_CFG_J1939DCM_OFF"
000002f5 475f4a313933 
000002fb 3944434d5f43 
00000301 4c4541525f53 
00000307 5550504f5254 
0000030d 2044454d5f43 
00000313 46475f4a3139 
00000319 333944434d5f 
0000031f 4f464600 
00000323 01             9019 	.byte	1
00000324 11             9020 	.byte	17
00000325 44454d5f4246   9021 	.strz	"DEM_BFM_ON TRUE"
0000032b 4d5f4f4e2054 
00000331 52554500 
00000335 01             9022 	.byte	1
00000336 15             9023 	.byte	21
00000337 44454d5f4246   9024 	.strz	"DEM_BFM_OFF FALSE"
0000033d 4d5f4f464620 
00000343 46414c534500 
00000349 01             9025 	.byte	1
0000034a 1f             9026 	.byte	31
0000034b 44454d5f4246   9027 	.strz	"DEM_BFM_ENABLED DEM_BFM_OFF"
00000351 4d5f454e4142 
00000357 4c4544204445 
0000035d 4d5f42464d5f 
00000363 4f464600 
00000367 01             9028 	.byte	1

                                                                      Page 179
                                                              C:\Users\nhuliyap\AppData\Local\Temp\gh_00002581.s
00000368 20             9029 	.byte	32
00000369 44454d5f4346   9030 	.strz	"DEM_CFG_TRIGGER_TO_STORE_NVM_SUPPORTED FALSE"
0000036f 475f54524947 
00000375 4745525f544f 
0000037b 5f53544f5245 
00000381 5f4e564d5f53 
00000387 5550504f5254 
0000038d 45442046414c 
00000393 534500 
00000396 01             9031 	.byte	1
00000397 21             9032 	.byte	33
00000398 44454d5f4346   9033 	.strz	"DEM_CFG_SUSPICIOUS_SUPPORT FALSE"
0000039e 475f53555350 
000003a4 4943494f5553 
000003aa 5f535550504f 
000003b0 52542046414c 
000003b6 534500 
000003b9 01             9034 	.byte	1
000003ba 22             9035 	.byte	34
000003bb 44454d5f4346   9036 	.strz	"DEM_CFG_DEBTIMEBASED_CONFIGURED_CYCLICTASKTIME TRUE"
000003c1 475f44454254 
000003c7 494d45424153 
000003cd 45445f434f4e 
000003d3 464947555245 
000003d9 445f4359434c 
000003df 49435441534b 
000003e5 54494d452054 
000003eb 52554500 
000003ef 01             9037 	.byte	1
000003f0 23             9038 	.byte	35
000003f1 44454d5f4346   9039 	.strz	"DEM_CFG_EVMEMGENERIC_SUPPORTED TRUE"
000003f7 475f45564d45 
000003fd 4d47454e4552 
00000403 49435f535550 
00000409 504f52544544 
0000040f 205452554500 
00000415 01             9040 	.byte	1
00000416 24             9041 	.byte	36
00000417 44454d5f4346   9042 	.strz	"DEM_CFG_VERSION_INFO_API_OFF STD_OFF"
0000041d 475f56455253 
00000423 494f4e5f494e 
00000429 464f5f415049 
0000042f 5f4f46462053 
00000435 54445f4f4646 
0000043b 00 
0000043c 01             9043 	.byte	1
0000043d 25             9044 	.byte	37
0000043e 44454d5f4346   9045 	.strz	"DEM_CFG_VERSION_INFO_API_ON STD_ON"
00000444 475f56455253 
0000044a 494f4e5f494e 
00000450 464f5f415049 
00000456 5f4f4e205354 
0000045c 445f4f4e00 
00000461 01             9046 	.byte	1
00000462 26             9047 	.byte	38
00000463 44454d5f4346   9048 	.strz	"DEM_CFG_VERSION_INFO_API DEM_CFG_VERSION_INFO_API_OFF"
00000469 475f56455253 
0000046f 494f4e5f494e 
00000475 464f5f415049 
0000047b 2044454d5f43 
00000481 46475f564552 

                                                                      Page 180
                                                              C:\Users\nhuliyap\AppData\Local\Temp\gh_00002581.s
00000487 53494f4e5f49 
0000048d 4e464f5f4150 
00000493 495f4f464600 
00000499 01             9049 	.byte	1
0000049a 27             9050 	.byte	39
0000049b 44454d5f4346   9051 	.strz	"DEM_CFG_ALTERNATIVEDTC_OFF STD_OFF"
000004a1 475f414c5445 
000004a7 524e41544956 
000004ad 454454435f4f 
000004b3 464620535444 
000004b9 5f4f464600 
000004be 01             9052 	.byte	1
000004bf 28             9053 	.byte	40
000004c0 44454d5f4346   9054 	.strz	"DEM_CFG_ALTERNATIVEDTC_ON STD_ON"
000004c6 475f414c5445 
000004cc 524e41544956 
000004d2 454454435f4f 
000004d8 4e205354445f 
000004de 4f4e00 
000004e1 01             9055 	.byte	1
000004e2 29             9056 	.byte	41
000004e3 44454d5f4346   9057 	.strz	"DEM_CFG_ALTERNATIVEDTC DEM_CFG_ALTERNATIVEDTC_OFF"
000004e9 475f414c5445 
000004ef 524e41544956 
000004f5 454454432044 
000004fb 454d5f434647 
00000501 5f414c544552 
00000507 4e4154495645 
0000050d 4454435f4f46 
00000513 4600 
00000515 01             9058 	.byte	1
00000516 2a             9059 	.byte	42
00000517 44454d5f4346   9060 	.strz	"DEM_CFG_ERASE_ALL_OFF 0u"
0000051d 475f45524153 
00000523 455f414c4c5f 
00000529 4f4646203075 
0000052f 00 
00000530 01             9061 	.byte	1
00000531 2b             9062 	.byte	43
00000532 44454d5f4346   9063 	.strz	"DEM_CFG_ERASE_ALL_WITHOUT_HASHID_CHECK 1u"
00000538 475f45524153 
0000053e 455f414c4c5f 
00000544 574954484f55 
0000054a 545f48415348 
00000550 49445f434845 
00000556 434b20317500 
0000055c 01             9064 	.byte	1
0000055d 2c             9065 	.byte	44
0000055e 44454d5f4346   9066 	.strz	"DEM_CFG_ERASE_ALL_WITH_HASHID_CHECK 2u"
00000564 475f45524153 
0000056a 455f414c4c5f 
00000570 574954485f48 
00000576 41534849445f 
0000057c 434845434b20 
00000582 327500 
00000585 01             9067 	.byte	1
00000586 2d             9068 	.byte	45
00000587 44454d5f4346   9069 	.strz	"DEM_CFG_ERASE_ALL_DATA_SUPPORTED DEM_CFG_ERASE_ALL_OFF"
0000058d 475f45524153 
00000593 455f414c4c5f 
00000599 444154415f53 

                                                                      Page 181
                                                              C:\Users\nhuliyap\AppData\Local\Temp\gh_00002581.s
0000059f 5550504f5254 
000005a5 45442044454d 
000005ab 5f4346475f45 
000005b1 524153455f41 
000005b7 4c4c5f4f4646 
000005bd 00 
000005be 01             9070 	.byte	1
000005bf 2e             9071 	.byte	46
000005c0 44454d5f4346   9072 	.strz	"DEM_CFG_DEPENDENCY_OFF STD_OFF"
000005c6 475f44455045 
000005cc 4e44454e4359 
000005d2 5f4f46462053 
000005d8 54445f4f4646 
000005de 00 
000005df 01             9073 	.byte	1
000005e0 2f             9074 	.byte	47
000005e1 44454d5f4346   9075 	.strz	"DEM_CFG_DEPENDENCY_ON STD_ON"
000005e7 475f44455045 
000005ed 4e44454e4359 
000005f3 5f4f4e205354 
000005f9 445f4f4e00 
000005fe 01             9076 	.byte	1
000005ff 30             9077 	.byte	48
00000600 44454d5f4346   9078 	.strz	"DEM_CFG_DEPENDENCY DEM_CFG_DEPENDENCY_OFF"
00000606 475f44455045 
0000060c 4e44454e4359 
00000612 2044454d5f43 
00000618 46475f444550 
0000061e 454e44454e43 
00000624 595f4f464600 
0000062a 01             9079 	.byte	1
0000062b 31             9080 	.byte	49
0000062c 44454d5f4346   9081 	.strz	"DEM_CFG_TESTMODE_SUPPORT_ON STD_ON"
00000632 475f54455354 
00000638 4d4f44455f53 
0000063e 5550504f5254 
00000644 5f4f4e205354 
0000064a 445f4f4e00 
0000064f 01             9082 	.byte	1
00000650 32             9083 	.byte	50
00000651 44454d5f4346   9084 	.strz	"DEM_CFG_TESTMODE_SUPPORT_OFF STD_OFF"
00000657 475f54455354 
0000065d 4d4f44455f53 
00000663 5550504f5254 
00000669 5f4f46462053 
0000066f 54445f4f4646 
00000675 00 
00000676 01             9085 	.byte	1
00000677 33             9086 	.byte	51
00000678 44454d5f4346   9087 	.strz	"DEM_CFG_TESTMODE_SUPPORT DEM_CFG_TESTMODE_SUPPORT_OFF"
0000067e 475f54455354 
00000684 4d4f44455f53 
0000068a 5550504f5254 
00000690 2044454d5f43 
00000696 46475f544553 
0000069c 544d4f44455f 
000006a2 535550504f52 
000006a8 545f4f464600 
000006ae 01             9088 	.byte	1
000006af 34             9089 	.byte	52
000006b0 44454d5f4346   9090 	.strz	"DEM_CFG_CHECKAPICONSISTENCY TRUE"

                                                                      Page 182
                                                              C:\Users\nhuliyap\AppData\Local\Temp\gh_00002581.s
000006b6 475f43484543 
000006bc 4b415049434f 
000006c2 4e5349535445 
000006c8 4e4359205452 
000006ce 554500 
000006d1 01             9091 	.byte	1
000006d2 35             9092 	.byte	53
000006d3 44454d5f4346   9093 	.strz	"DEM_CFG_DEBUGDATA_OFF 0"
000006d9 475f44454255 
000006df 47444154415f 
000006e5 4f4646203000 
000006eb 01             9094 	.byte	1
000006ec 37             9095 	.byte	55
000006ed 44454d5f4346   9096 	.strz	"DEM_CFG_DEBUGDATA_32BIT (0+4)"
000006f3 475f44454255 
000006f9 47444154415f 
000006ff 333242495420 
00000705 28302b342900 
0000070b 01             9097 	.byte	1
0000070c 38             9098 	.byte	56
0000070d 44454d5f4346   9099 	.strz	"DEM_CFG_DEBUGDATA DEM_CFG_DEBUGDATA_32BIT"
00000713 475f44454255 
00000719 474441544120 
0000071f 44454d5f4346 
00000725 475f44454255 
0000072b 47444154415f 
00000731 333242495400 
00000737 01             9100 	.byte	1
00000738 3b             9101 	.byte	59
00000739 44454d5f4445   9102 	.strz	"DEM_DEBUGDATA_PARAM(A,B) ,A,B"
0000073f 425547444154 
00000745 415f50415241 
0000074b 4d28412c4229 
00000751 202c412c4200 
00000757 04             9103 	.byte	4
00000758 03             9104 	.byte	3
00000759 05             9105 	.byte	5
0000075a 0a             9106 	.byte	10
0000075b 03             9107 	.byte	3
0000075c 04             9108 	.byte	4
0000075d 0b             9109 	.byte	11
0000075e 03             9110 	.byte	3
0000075f 06             9111 	.byte	6
00000760 08             9112 	.byte	8
00000761 04             9113 	.byte	4
00000762 01             9114 	.byte	1
00000763 0d             9115 	.byte	13
00000764 44454d5f434c   9116 	.strz	"DEM_CLIENT_SELECTION_TYPE_ALL_DTCS 0X01u"
0000076a 49454e545f53 
00000770 454c45435449 
00000776 4f4e5f545950 
0000077c 455f414c4c5f 
00000782 445443532030 
00000788 5830317500 
0000078d 01             9117 	.byte	1
0000078e 0e             9118 	.byte	14
0000078f 44454d5f434c   9119 	.strz	"DEM_CLIENT_SELECTION_TYPE_GROUP_DTC 0X02u"
00000795 49454e545f53 
0000079b 454c45435449 
000007a1 4f4e5f545950 
000007a7 455f47524f55 

                                                                      Page 183
                                                              C:\Users\nhuliyap\AppData\Local\Temp\gh_00002581.s
000007ad 505f44544320 
000007b3 305830327500 
000007b9 01             9120 	.byte	1
000007ba 0f             9121 	.byte	15
000007bb 44454d5f434c   9122 	.strz	"DEM_CLIENT_SELECTION_TYPE_SINGLE_DTC 0X03u"
000007c1 49454e545f53 
000007c7 454c45435449 
000007cd 4f4e5f545950 
000007d3 455f53494e47 
000007d9 4c455f445443 
000007df 203058303375 
000007e5 00 
000007e6 01             9123 	.byte	1
000007e7 22             9124 	.byte	34
000007e8 44454d5f494e   9125 	.strz	"DEM_INVALID_DTC 0xAA000000u"
000007ee 56414c49445f 
000007f4 445443203078 
000007fa 414130303030 
00000800 30307500 
00000804 01             9126 	.byte	1
00000805 2b             9127 	.byte	43
00000806 44454d5f5752   9128 	.strz	"DEM_WRONG_DTC DEM_CLEAR_WRONG_DTC"
0000080c 4f4e475f4454 
00000812 432044454d5f 
00000818 434c4541525f 
0000081e 57524f4e475f 
00000824 44544300 
00000828 01             9129 	.byte	1
00000829 2d             9130 	.byte	45
0000082a 44454d5f5045   9131 	.strz	"DEM_PENDING DEM_CLEAR_PENDING"
00000830 4e44494e4720 
00000836 44454d5f434c 
0000083c 4541525f5045 
00000842 4e44494e4700 
00000848 01             9132 	.byte	1
00000849 2e             9133 	.byte	46
0000084a 44454d5f4641   9134 	.strz	"DEM_FAILED DEM_CLEAR_FAILED"
00000850 494c45442044 
00000856 454d5f434c45 
0000085c 41525f464149 
00000862 4c454400 
00000866 04             9135 	.byte	4
00000867 01             9136 	.byte	1
00000868 06             9137 	.byte	6
00000869 44454d5f434c   9138 	.strz	"DEM_CLIENTS_COUNT 2u"
0000086f 49454e54535f 
00000875 434f554e5420 
0000087b 327500 
0000087e 01             9139 	.byte	1
0000087f 07             9140 	.byte	7
00000880 44454d5f434c   9141 	.strz	"DEM_CLIENTID_ARRAYLENGTH (DEM_CLIENTS_COUNT+1u)"
00000886 49454e544944 
0000088c 5f4152524159 
00000892 4c454e475448 
00000898 202844454d5f 
0000089e 434c49454e54 
000008a4 535f434f554e 
000008aa 542b31752900 
000008b0 04             9142 	.byte	4
000008b1 03             9143 	.byte	3
000008b2 06             9144 	.byte	6

                                                                      Page 184
                                                              C:\Users\nhuliyap\AppData\Local\Temp\gh_00002581.s
000008b3 0c             9145 	.byte	12
000008b4 01             9146 	.byte	1
000008b5 04             9147 	.byte	4
000008b6 44454d5f4e4f   9148 	.strz	"DEM_NODEID_INVALID 0"
000008bc 444549445f49 
000008c2 4e56414c4944 
000008c8 203000 
000008cb 01             9149 	.byte	1
000008cc 05             9150 	.byte	5
000008cd 44454d5f4e4f   9151 	.strz	"DEM_NODEID_COUNT 6u"
000008d3 444549445f43 
000008d9 4f554e542036 
000008df 7500 
000008e1 01             9152 	.byte	1
000008e2 06             9153 	.byte	6
000008e3 44454d5f4e4f   9154 	.strz	"DEM_NODEID_ARRAYLENGTH (DEM_NODEID_COUNT+1u)"
000008e9 444549445f41 
000008ef 525241594c45 
000008f5 4e4754482028 
000008fb 44454d5f4e4f 
00000901 444549445f43 
00000907 4f554e542b31 
0000090d 752900 
00000910 04             9155 	.byte	4
00000911 03             9156 	.byte	3
00000912 07             9157 	.byte	7
00000913 0d             9158 	.byte	13
00000914 01             9159 	.byte	1
00000915 08             9160 	.byte	8
00000916 44454d5f4d4f   9161 	.strz	"DEM_MODULE_ID 54"
0000091c 44554c455f49 
00000922 4420353400 
00000927 01             9162 	.byte	1
00000928 0a             9163 	.byte	10
00000929 44454d5f494e   9164 	.strz	"DEM_INSTANCE_ID 0"
0000092f 5354414e4345 
00000935 5f4944203000 
0000093b 04             9165 	.byte	4
0000093c 03             9166 	.byte	3
0000093d 08             9167 	.byte	8
0000093e 0e             9168 	.byte	14
0000093f 03             9169 	.byte	3
00000940 06             9170 	.byte	6
00000941 0f             9171 	.byte	15
00000942 04             9172 	.byte	4
00000943 01             9173 	.byte	1
00000944 08             9174 	.byte	8
00000945 44454d5f5544   9175 	.strz	"DEM_UDS_STATUS_TF 0x01"
0000094b 535f53544154 
00000951 55535f544620 
00000957 3078303100 
0000095c 01             9176 	.byte	1
0000095d 09             9177 	.byte	9
0000095e 44454d5f5544   9178 	.strz	"DEM_UDS_STATUS_TFTOC 0x02"
00000964 535f53544154 
0000096a 55535f544654 
00000970 4f4320307830 
00000976 3200 
00000978 01             9179 	.byte	1
00000979 0a             9180 	.byte	10
0000097a 44454d5f5544   9181 	.strz	"DEM_UDS_STATUS_PDTC 0x04"

                                                                      Page 185
                                                              C:\Users\nhuliyap\AppData\Local\Temp\gh_00002581.s
00000980 535f53544154 
00000986 55535f504454 
0000098c 432030783034 
00000992 00 
00000993 01             9182 	.byte	1
00000994 0b             9183 	.byte	11
00000995 44454d5f5544   9184 	.strz	"DEM_UDS_STATUS_CDTC 0x08"
0000099b 535f53544154 
000009a1 55535f434454 
000009a7 432030783038 
000009ad 00 
000009ae 01             9185 	.byte	1
000009af 0c             9186 	.byte	12
000009b0 44454d5f5544   9187 	.strz	"DEM_UDS_STATUS_TNCSLC 0x10"
000009b6 535f53544154 
000009bc 55535f544e43 
000009c2 534c43203078 
000009c8 313000 
000009cb 01             9188 	.byte	1
000009cc 0d             9189 	.byte	13
000009cd 44454d5f5544   9190 	.strz	"DEM_UDS_STATUS_TFSLC 0x20"
000009d3 535f53544154 
000009d9 55535f544653 
000009df 4c4320307832 
000009e5 3000 
000009e7 01             9191 	.byte	1
000009e8 0e             9192 	.byte	14
000009e9 44454d5f5544   9193 	.strz	"DEM_UDS_STATUS_TNCTOC 0x40"
000009ef 535f53544154 
000009f5 55535f544e43 
000009fb 544f43203078 
00000a01 343000 
00000a04 01             9194 	.byte	1
00000a05 0f             9195 	.byte	15
00000a06 44454d5f5544   9196 	.strz	"DEM_UDS_STATUS_WIR 0x80"
00000a0c 535f53544154 
00000a12 55535f574952 
00000a18 203078383000 
00000a1e 01             9197 	.byte	1
00000a1f 18             9198 	.byte	24
00000a20 44454d5f4454   9199 	.strz	"DEM_DTC_ORIGIN_PRIMARY_MEMORY 0x01"
00000a26 435f4f524947 
00000a2c 494e5f505249 
00000a32 4d4152595f4d 
00000a38 454d4f525920 
00000a3e 3078303100 
00000a43 01             9200 	.byte	1
00000a44 19             9201 	.byte	25
00000a45 44454d5f4454   9202 	.strz	"DEM_DTC_ORIGIN_MIRROR_MEMORY 0x02"
00000a4b 435f4f524947 
00000a51 494e5f4d4952 
00000a57 524f525f4d45 
00000a5d 4d4f52592030 
00000a63 78303200 
00000a67 01             9203 	.byte	1
00000a68 1a             9204 	.byte	26
00000a69 44454d5f4454   9205 	.strz	"DEM_DTC_ORIGIN_PERMANENT_MEMORY 0x03"
00000a6f 435f4f524947 
00000a75 494e5f504552 
00000a7b 4d414e454e54 
00000a81 5f4d454d4f52 

                                                                      Page 186
                                                              C:\Users\nhuliyap\AppData\Local\Temp\gh_00002581.s
00000a87 592030783033 
00000a8d 00 
00000a8e 01             9206 	.byte	1
00000a8f 1d             9207 	.byte	29
00000a90 44454d5f4454   9208 	.strz	"DEM_DTC_ORIGIN_SECONDARY_MEMORY 0x04"
00000a96 435f4f524947 
00000a9c 494e5f534543 
00000aa2 4f4e44415259 
00000aa8 5f4d454d4f52 
00000aae 592030783034 
00000ab4 00 
00000ab5 04             9209 	.byte	4
00000ab6 01             9210 	.byte	1
00000ab7 0e             9211 	.byte	14
00000ab8 44454d5f494e   9212 	.strz	"DEM_INLINE LOCAL_INLINE"
00000abe 4c494e45204c 
00000ac4 4f43414c5f49 
00000aca 4e4c494e4500 
00000ad0 01             9213 	.byte	1
00000ad1 0f             9214 	.byte	15
00000ad2 44454d5f554e   9215 	.strz	"DEM_UNUSED_PARAM(P) ((void)(P))"
00000ad8 555345445f50 
00000ade 4152414d2850 
00000ae4 29202828766f 
00000aea 696429285029 
00000af0 2900 
00000af2 01             9216 	.byte	1
00000af3 10             9217 	.byte	16
00000af4 44454d5f455f   9218 	.strz	"DEM_E_NO_DTC_AVAILABLE 2"
00000afa 4e4f5f445443 
00000b00 5f415641494c 
00000b06 41424c452032 
00000b0c 00 
00000b0d 01             9219 	.byte	1
00000b0e 12             9220 	.byte	18
00000b0f 455f4e4f5f44   9221 	.strz	"E_NO_DTC_AVAILABLE DEM_E_NO_DTC_AVAILABLE"
00000b15 54435f415641 
00000b1b 494c41424c45 
00000b21 2044454d5f45 
00000b27 5f4e4f5f4454 
00000b2d 435f41564149 
00000b33 4c41424c4500 
00000b39 01             9222 	.byte	1
00000b3a 19             9223 	.byte	25
00000b3b 44454d5f455f   9224 	.strz	"DEM_E_NO_FDC_AVAILABLE 3"
00000b41 4e4f5f464443 
00000b47 5f415641494c 
00000b4d 41424c452033 
00000b53 00 
00000b54 01             9225 	.byte	1
00000b55 1b             9226 	.byte	27
00000b56 455f4e4f5f46   9227 	.strz	"E_NO_FDC_AVAILABLE DEM_E_NO_FDC_AVAILABLE"
00000b5c 44435f415641 
00000b62 494c41424c45 
00000b68 2044454d5f45 
00000b6e 5f4e4f5f4644 
00000b74 435f41564149 
00000b7a 4c41424c4500 
00000b80 01             9228 	.byte	1
00000b81 31             9229 	.byte	49
00000b82 44454d5f5245   9230 	.strz	"DEM_READEVENT_OK 0x00"

                                                                      Page 187
                                                              C:\Users\nhuliyap\AppData\Local\Temp\gh_00002581.s
00000b88 41444556454e 
00000b8e 545f4f4b2030 
00000b94 78303000 
00000b98 01             9231 	.byte	1
00000b99 32             9232 	.byte	50
00000b9a 44454d5f5245   9233 	.strz	"DEM_READEVENT_NO_MATCHING_ELEMENT 0x01"
00000ba0 41444556454e 
00000ba6 545f4e4f5f4d 
00000bac 41544348494e 
00000bb2 475f454c454d 
00000bb8 454e54203078 
00000bbe 303100 
00000bc1 01             9234 	.byte	1
00000bc2 33             9235 	.byte	51
00000bc3 44454d5f5245   9236 	.strz	"DEM_READEVENT_WRONG_ORIGIN 0x02"
00000bc9 41444556454e 
00000bcf 545f57524f4e 
00000bd5 475f4f524947 
00000bdb 494e20307830 
00000be1 3200 
00000be3 01             9237 	.byte	1
00000be4 43             9238 	.byte	67
00000be5 44454d5f5245   9239 	.strz	"DEM_RECORD_OK 0x00"
00000beb 434f52445f4f 
00000bf1 4b2030783030 
00000bf7 00 
00000bf8 01             9240 	.byte	1
00000bf9 44             9241 	.byte	68
00000bfa 44454d5f5245   9242 	.strz	"DEM_RECORD_WRONG_DTC 0x01"
00000c00 434f52445f57 
00000c06 524f4e475f44 
00000c0c 544320307830 
00000c12 3100 
00000c14 01             9243 	.byte	1
00000c15 45             9244 	.byte	69
00000c16 44454d5f5245   9245 	.strz	"DEM_RECORD_WRONG_DTCORIGIN 0x02"
00000c1c 434f52445f57 
00000c22 524f4e475f44 
00000c28 54434f524947 
00000c2e 494e20307830 
00000c34 3200 
00000c36 01             9246 	.byte	1
00000c37 46             9247 	.byte	70
00000c38 44454d5f5245   9248 	.strz	"DEM_RECORD_WRONG_DTCKIND 0x03"
00000c3e 434f52445f57 
00000c44 524f4e475f44 
00000c4a 54434b494e44 
00000c50 203078303300 
00000c56 01             9249 	.byte	1
00000c57 47             9250 	.byte	71
00000c58 44454d5f5245   9251 	.strz	"DEM_RECORD_WRONG_NUMBER 0x04"
00000c5e 434f52445f57 
00000c64 524f4e475f4e 
00000c6a 554d42455220 
00000c70 3078303400 
00000c75 01             9252 	.byte	1
00000c76 48             9253 	.byte	72
00000c77 44454d5f5245   9254 	.strz	"DEM_RECORD_WRONG_BUFFERSIZE 0x05"
00000c7d 434f52445f57 
00000c83 524f4e475f42 
00000c89 554646455253 

                                                                      Page 188
                                                              C:\Users\nhuliyap\AppData\Local\Temp\gh_00002581.s
00000c8f 495a45203078 
00000c95 303500 
00000c98 01             9255 	.byte	1
00000c99 49             9256 	.byte	73
00000c9a 44454d5f5245   9257 	.strz	"DEM_RECORD_PENDING 0x06"
00000ca0 434f52445f50 
00000ca6 454e44494e47 
00000cac 203078303600 
00000cb2 01             9258 	.byte	1
00000cb3 4d             9259 	.byte	77
00000cb4 44454d5f4745   9260 	.strz	"DEM_GET_SIZEOFEDRBYDTC_OK 0x00"
00000cba 545f53495a45 
00000cc0 4f4645445242 
00000cc6 594454435f4f 
00000ccc 4b2030783030 
00000cd2 00 
00000cd3 01             9261 	.byte	1
00000cd4 4e             9262 	.byte	78
00000cd5 44454d5f4745   9263 	.strz	"DEM_GET_SIZEOFEDRBYDTC_W_DTC 0x01"
00000cdb 545f53495a45 
00000ce1 4f4645445242 
00000ce7 594454435f57 
00000ced 5f4454432030 
00000cf3 78303100 
00000cf7 01             9264 	.byte	1
00000cf8 4f             9265 	.byte	79
00000cf9 44454d5f4745   9266 	.strz	"DEM_GET_SIZEOFEDRBYDTC_W_DTCOR 0x02"
00000cff 545f53495a45 
00000d05 4f4645445242 
00000d0b 594454435f57 
00000d11 5f4454434f52 
00000d17 203078303200 
00000d1d 01             9267 	.byte	1
00000d1e 50             9268 	.byte	80
00000d1f 44454d5f4745   9269 	.strz	"DEM_GET_SIZEOFEDRBYDTC_W_DTCKI 0x03"
00000d25 545f53495a45 
00000d2b 4f4645445242 
00000d31 594454435f57 
00000d37 5f4454434b49 
00000d3d 203078303300 
00000d43 01             9270 	.byte	1
00000d44 51             9271 	.byte	81
00000d45 44454d5f4745   9272 	.strz	"DEM_GET_SIZEOFEDRBYDTC_W_RNUM 0x04"
00000d4b 545f53495a45 
00000d51 4f4645445242 
00000d57 594454435f57 
00000d5d 5f524e554d20 
00000d63 3078303400 
00000d68 01             9273 	.byte	1
00000d69 55             9274 	.byte	85
00000d6a 44454d5f4745   9275 	.strz	"DEM_GET_FFDATABYDTC_OK 0x00"
00000d70 545f46464441 
00000d76 544142594454 
00000d7c 435f4f4b2030 
00000d82 78303000 
00000d86 01             9276 	.byte	1
00000d87 56             9277 	.byte	86
00000d88 44454d5f4745   9278 	.strz	"DEM_GET_FFDATABYDTC_WRONG_DTC 0x01"
00000d8e 545f46464441 
00000d94 544142594454 
00000d9a 435f57524f4e 

                                                                      Page 189
                                                              C:\Users\nhuliyap\AppData\Local\Temp\gh_00002581.s
00000da0 475f44544320 
00000da6 3078303100 
00000dab 01             9279 	.byte	1
00000dac 57             9280 	.byte	87
00000dad 44454d5f4745   9281 	.strz	"DEM_GET_FFDATABYDTC_WRONG_DTCORIGIN 0x02"
00000db3 545f46464441 
00000db9 544142594454 
00000dbf 435f57524f4e 
00000dc5 475f4454434f 
00000dcb 524947494e20 
00000dd1 3078303200 
00000dd6 01             9282 	.byte	1
00000dd7 58             9283 	.byte	88
00000dd8 44454d5f4745   9284 	.strz	"DEM_GET_FFDATABYDTC_WRONG_DTCKIND 0x03"
00000dde 545f46464441 
00000de4 544142594454 
00000dea 435f57524f4e 
00000df0 475f4454434b 
00000df6 494e44203078 
00000dfc 303300 
00000dff 01             9285 	.byte	1
00000e00 59             9286 	.byte	89
00000e01 44454d5f4745   9287 	.strz	"DEM_GET_FFDATABYDTC_WRONG_RECORDNUMBER 0x04"
00000e07 545f46464441 
00000e0d 544142594454 
00000e13 435f57524f4e 
00000e19 475f5245434f 
00000e1f 52444e554d42 
00000e25 455220307830 
00000e2b 3400 
00000e2d 01             9288 	.byte	1
00000e2e 5a             9289 	.byte	90
00000e2f 44454d5f4745   9290 	.strz	"DEM_GET_FFDATABYDTC_WRONG_BUFFERSIZE 0x05"
00000e35 545f46464441 
00000e3b 544142594454 
00000e41 435f57524f4e 
00000e47 475f42554646 
00000e4d 455253495a45 
00000e53 203078303500 
00000e59 01             9291 	.byte	1
00000e5a 5b             9292 	.byte	91
00000e5b 44454d5f4745   9293 	.strz	"DEM_GET_FFDATABYDTC_PENDING 0x06"
00000e61 545f46464441 
00000e67 544142594454 
00000e6d 435f50454e44 
00000e73 494e47203078 
00000e79 303600 
00000e7c 01             9294 	.byte	1
00000e7d 5e             9295 	.byte	94
00000e7e 44454d5f4745   9296 	.strz	"DEM_GET_SIZEOFFF_OK 0x00"
00000e84 545f53495a45 
00000e8a 4f4646465f4f 
00000e90 4b2030783030 
00000e96 00 
00000e97 01             9297 	.byte	1
00000e98 5f             9298 	.byte	95
00000e99 44454d5f4745   9299 	.strz	"DEM_GET_SIZEOFFF_WRONG_DTC 0x01"
00000e9f 545f53495a45 
00000ea5 4f4646465f57 
00000eab 524f4e475f44 
00000eb1 544320307830 

                                                                      Page 190
                                                              C:\Users\nhuliyap\AppData\Local\Temp\gh_00002581.s
00000eb7 3100 
00000eb9 01             9300 	.byte	1
00000eba 60             9301 	.byte	96
00000ebb 44454d5f4745   9302 	.strz	"DEM_GET_SIZEOFFF_WRONG_DTCOR 0x02"
00000ec1 545f53495a45 
00000ec7 4f4646465f57 
00000ecd 524f4e475f44 
00000ed3 54434f522030 
00000ed9 78303200 
00000edd 01             9303 	.byte	1
00000ede 61             9304 	.byte	97
00000edf 44454d5f4745   9305 	.strz	"DEM_GET_SIZEOFFF_WRONG_DTCKIND 0x03"
00000ee5 545f53495a45 
00000eeb 4f4646465f57 
00000ef1 524f4e475f44 
00000ef7 54434b494e44 
00000efd 203078303300 
00000f03 01             9306 	.byte	1
00000f04 62             9307 	.byte	98
00000f05 44454d5f4745   9308 	.strz	"DEM_GET_SIZEOFFF_WRONG_RNUM 0x04"
00000f0b 545f53495a45 
00000f11 4f4646465f57 
00000f17 524f4e475f52 
00000f1d 4e554d203078 
00000f23 303400 
00000f26 01             9309 	.byte	1
00000f27 66             9310 	.byte	102
00000f28 44454d5f4649   9311 	.strz	"DEM_FILTER_ACCEPTED 0x00"
00000f2e 4c5445525f41 
00000f34 434345505445 
00000f3a 442030783030 
00000f40 00 
00000f41 01             9312 	.byte	1
00000f42 67             9313 	.byte	103
00000f43 44454d5f5752   9314 	.strz	"DEM_WRONG_FILTER 0x01"
00000f49 4f4e475f4649 
00000f4f 4c5445522030 
00000f55 78303100 
00000f59 01             9315 	.byte	1
00000f5a 9901           9316 	.byte	153,1
00000f5c 44454d5f4649   9317 	.strz	"DEM_FIRST_FAILED_DTC 0x01"
00000f62 5253545f4641 
00000f68 494c45445f44 
00000f6e 544320307830 
00000f74 3100 
00000f76 01             9318 	.byte	1
00000f77 9a01           9319 	.byte	154,1
00000f79 44454d5f4d4f   9320 	.strz	"DEM_MOST_RECENT_FAILED_DTC 0x02"
00000f7f 53545f524543 
00000f85 454e545f4641 
00000f8b 494c45445f44 
00000f91 544320307830 
00000f97 3200 
00000f99 01             9321 	.byte	1
00000f9a 9b01           9322 	.byte	155,1
00000f9c 44454d5f4649   9323 	.strz	"DEM_FIRST_DET_CONFIRMED_DTC 0x03"
00000fa2 5253545f4445 
00000fa8 545f434f4e46 
00000fae 49524d45445f 
00000fb4 445443203078 
00000fba 303300 

                                                                      Page 191
                                                              C:\Users\nhuliyap\AppData\Local\Temp\gh_00002581.s
00000fbd 01             9324 	.byte	1
00000fbe 9c01           9325 	.byte	156,1
00000fc0 44454d5f4d4f   9326 	.strz	"DEM_MOST_REC_DET_CONFIRMED_DTC 0x04"
00000fc6 53545f524543 
00000fcc 5f4445545f43 
00000fd2 4f4e4649524d 
00000fd8 45445f445443 
00000fde 203078303400 
00000fe4 01             9327 	.byte	1
00000fe5 c101           9328 	.byte	193,1
00000fe7 44454d5f4454   9329 	.strz	"DEM_DTC_KIND_ALL_DTCS 0x01u"
00000fed 435f4b494e44 
00000ff3 5f414c4c5f44 
00000ff9 544353203078 
00000fff 30317500 
00001003 01             9330 	.byte	1
00001004 c501           9331 	.byte	197,1
00001006 44454d5f4449   9332 	.strz	"DEM_DISABLE_DTCRECUP_OK 0x00"
0000100c 5341424c455f 
00001012 445443524543 
00001018 55505f4f4b20 
0000101e 3078303000 
00001023 01             9333 	.byte	1
00001024 cb01           9334 	.byte	203,1
00001026 44454d5f5452   9335 	.strz	"DEM_TRIGGER_NONE 0x00u"
0000102c 49474745525f 
00001032 4e4f4e452030 
00001038 7830307500 
0000103d 01             9336 	.byte	1
0000103e cc01           9337 	.byte	204,1
00001040 44454d5f5452   9338 	.strz	"DEM_TRIGGER_ON_TEST_FAILED 0x01u"
00001046 49474745525f 
0000104c 4f4e5f544553 
00001052 545f4641494c 
00001058 454420307830 
0000105e 317500 
00001061 01             9339 	.byte	1
00001062 cd01           9340 	.byte	205,1
00001064 44454d5f5452   9341 	.strz	"DEM_TRIGGER_ON_PENDING 0x02u"
0000106a 49474745525f 
00001070 4f4e5f50454e 
00001076 44494e472030 
0000107c 7830327500 
00001081 01             9342 	.byte	1
00001082 ce01           9343 	.byte	206,1
00001084 44454d5f5452   9344 	.strz	"DEM_TRIGGER_ON_CONFIRMED 0x04u"
0000108a 49474745525f 
00001090 4f4e5f434f4e 
00001096 4649524d4544 
0000109c 203078303475 
000010a2 00 
000010a3 01             9345 	.byte	1
000010a4 cf01           9346 	.byte	207,1
000010a6 44454d5f5452   9347 	.strz	"DEM_TRIGGER_ON_FDC_THRESHOLD 0x08u"
000010ac 49474745525f 
000010b2 4f4e5f464443 
000010b8 5f5448524553 
000010be 484f4c442030 
000010c4 7830387500 
000010c9 01             9348 	.byte	1
000010ca d001           9349 	.byte	208,1

                                                                      Page 192
                                                              C:\Users\nhuliyap\AppData\Local\Temp\gh_00002581.s
000010cc 44454d5f5452   9350 	.strz	"DEM_TRIGGER_ON_PASSED 0x10u"
000010d2 49474745525f 
000010d8 4f4e5f504153 
000010de 534544203078 
000010e4 31307500 
000010e8 01             9351 	.byte	1
000010e9 d401           9352 	.byte	212,1
000010eb 44454d5f4649   9353 	.strz	"DEM_FILTERED_NO_MATCHING_DTC 0x01"
000010f1 4c5445524544 
000010f7 5f4e4f5f4d41 
000010fd 544348494e47 
00001103 5f4454432030 
00001109 78303100 
0000110d 01             9354 	.byte	1
0000110e d701           9355 	.byte	215,1
00001110 44454d5f4649   9356 	.strz	"DEM_FILTERED_OK 0x00"
00001116 4c5445524544 
0000111c 5f4f4b203078 
00001122 303000 
00001125 04             9357 	.byte	4
00001126 03             9358 	.byte	3
00001127 07             9359 	.byte	7
00001128 10             9360 	.byte	16
00001129 01             9361 	.byte	1
0000112a 06             9362 	.byte	6
0000112b 44454d5f4556   9363 	.strz	"DEM_EVENTID_INVALID 0u"
00001131 454e5449445f 
00001137 494e56414c49 
0000113d 4420307500 
00001142 01             9364 	.byte	1
00001143 07             9365 	.byte	7
00001144 44454d5f4556   9366 	.strz	"DEM_EVENTID_COUNT 41u"
0000114a 454e5449445f 
00001150 434f554e5420 
00001156 34317500 
0000115a 01             9367 	.byte	1
0000115b 08             9368 	.byte	8
0000115c 44454d5f4556   9369 	.strz	"DEM_EVENTID_ARRAYLENGTH (DEM_EVENTID_COUNT+1u)"
00001162 454e5449445f 
00001168 41525241594c 
0000116e 454e47544820 
00001174 2844454d5f45 
0000117a 56454e544944 
00001180 5f434f554e54 
00001186 2b31752900 
0000118b 04             9370 	.byte	4
0000118c 03             9371 	.byte	3
0000118d 08             9372 	.byte	8
0000118e 11             9373 	.byte	17
0000118f 01             9374 	.byte	1
00001190 08             9375 	.byte	8
00001191 44454d5f4346   9376 	.strz	"DEM_CFG_EVCOMB_DISABLED 1u"
00001197 475f4556434f 
0000119d 4d425f444953 
000011a3 41424c454420 
000011a9 317500 
000011ac 01             9377 	.byte	1
000011ad 09             9378 	.byte	9
000011ae 44454d5f4346   9379 	.strz	"DEM_CFG_EVCOMB_ONSTORAGE 2u"
000011b4 475f4556434f 
000011ba 4d425f4f4e53 

                                                                      Page 193
                                                              C:\Users\nhuliyap\AppData\Local\Temp\gh_00002581.s
000011c0 544f52414745 
000011c6 20327500 
000011ca 01             9380 	.byte	1
000011cb 0a             9381 	.byte	10
000011cc 44454d5f4346   9382 	.strz	"DEM_CFG_EVCOMB_ONRETRIEVAL 3u"
000011d2 475f4556434f 
000011d8 4d425f4f4e52 
000011de 455452494556 
000011e4 414c20337500 
000011ea 01             9383 	.byte	1
000011eb 0b             9384 	.byte	11
000011ec 44454d5f4346   9385 	.strz	"DEM_CFG_EVCOMB DEM_CFG_EVCOMB_DISABLED"
000011f2 475f4556434f 
000011f8 4d422044454d 
000011fe 5f4346475f45 
00001204 56434f4d425f 
0000120a 44495341424c 
00001210 454400 
00001213 01             9386 	.byte	1
00001214 0d             9387 	.byte	13
00001215 44454d5f4454   9388 	.strz	"DEM_DTCID_INVALID 0u"
0000121b 4349445f494e 
00001221 56414c494420 
00001227 307500 
0000122a 01             9389 	.byte	1
0000122b 0e             9390 	.byte	14
0000122c 44454d5f4454   9391 	.strz	"DEM_DTCID_COUNT 41u"
00001232 4349445f434f 
00001238 554e54203431 
0000123e 7500 
00001240 01             9392 	.byte	1
00001241 0f             9393 	.byte	15
00001242 44454d5f4454   9394 	.strz	"DEM_DTCID_ARRAYLENGTH (DEM_DTCID_COUNT+1u)"
00001248 4349445f4152 
0000124e 5241594c454e 
00001254 475448202844 
0000125a 454d5f445443 
00001260 49445f434f55 
00001266 4e542b317529 
0000126c 00 
0000126d 01             9395 	.byte	1
0000126e 3c             9396 	.byte	60
0000126f 44454d5f4454   9397 	.strz	"DEM_DTCGROUPID_COUNT 1u"
00001275 4347524f5550 
0000127b 49445f434f55 
00001281 4e5420317500 
00001287 01             9398 	.byte	1
00001288 3d             9399 	.byte	61
00001289 44454d5f4454   9400 	.strz	"DEM_DTCGROUPID_ARRAYLENGTH (DEM_DTCGROUPID_COUNT+1u)"
0000128f 4347524f5550 
00001295 49445f415252 
0000129b 41594c454e47 
000012a1 544820284445 
000012a7 4d5f44544347 
000012ad 524f55504944 
000012b3 5f434f554e54 
000012b9 2b31752900 
000012be 04             9401 	.byte	4
000012bf 03             9402 	.byte	3
000012c0 0a             9403 	.byte	10
000012c1 12             9404 	.byte	18

                                                                      Page 194
                                                              C:\Users\nhuliyap\AppData\Local\Temp\gh_00002581.s
000012c2 01             9405 	.byte	1
000012c3 06             9406 	.byte	6
000012c4 44454d5f4346   9407 	.strz	"DEM_CFG_BUILDTARGET_ECU 1"
000012ca 475f4255494c 
000012d0 445441524745 
000012d6 545f45435520 
000012dc 3100 
000012de 01             9408 	.byte	1
000012df 07             9409 	.byte	7
000012e0 44454d5f4346   9410 	.strz	"DEM_CFG_BUILDTARGET_DEMTESTSUITE 2"
000012e6 475f4255494c 
000012ec 445441524745 
000012f2 545f44454d54 
000012f8 455354535549 
000012fe 5445203200 
00001303 01             9411 	.byte	1
00001304 10             9412 	.byte	16
00001305 44454d5f4346   9413 	.strz	"DEM_CFG_BUILDTARGET DEM_CFG_BUILDTARGET_ECU"
0000130b 475f4255494c 
00001311 445441524745 
00001317 542044454d5f 
0000131d 4346475f4255 
00001323 494c44544152 
00001329 4745545f4543 
0000132f 5500 
00001331 01             9414 	.byte	1
00001332 17             9415 	.byte	23
00001333 44454d5f4346   9416 	.strz	"DEM_CFG_DEVERRORDETECT_ON STD_ON"
00001339 475f44455645 
0000133f 52524f524445 
00001345 544543545f4f 
0000134b 4e205354445f 
00001351 4f4e00 
00001354 01             9417 	.byte	1
00001355 18             9418 	.byte	24
00001356 44454d5f4346   9419 	.strz	"DEM_CFG_DEVERRORDETECT DEM_CFG_DEVERRORDETECT_ON"
0000135c 475f44455645 
00001362 52524f524445 
00001368 544543542044 
0000136e 454d5f434647 
00001374 5f4445564552 
0000137a 524f52444554 
00001380 4543545f4f4e 
00001386 00 
00001387 01             9420 	.byte	1
00001388 1a             9421 	.byte	26
00001389 44454d5f4e4f   9422 	.strz	"DEM_NO_SUPPRESSION STD_OFF"
0000138f 5f5355505052 
00001395 455353494f4e 
0000139b 205354445f4f 
000013a1 464600 
000013a4 01             9423 	.byte	1
000013a5 1b             9424 	.byte	27
000013a6 44454d5f4556   9425 	.strz	"DEM_EVENT_SUPPRESSION STD_ON"
000013ac 454e545f5355 
000013b2 505052455353 
000013b8 494f4e205354 
000013be 445f4f4e00 
000013c3 01             9426 	.byte	1
000013c4 1c             9427 	.byte	28
000013c5 44454d5f4454   9428 	.strz	"DEM_DTC_SUPPRESSION (STD_ON+STD_OFF+1)"

                                                                      Page 195
                                                              C:\Users\nhuliyap\AppData\Local\Temp\gh_00002581.s
000013cb 435f53555050 
000013d1 52455353494f 
000013d7 4e2028535444 
000013dd 5f4f4e2b5354 
000013e3 445f4f46462b 
000013e9 312900 
000013ec 01             9429 	.byte	1
000013ed 1d             9430 	.byte	29
000013ee 44454d5f4556   9431 	.strz	"DEM_EVENT_AND_DTC_SUPPRESSION (DEM_DTC_SUPPRESSION+1)"
000013f4 454e545f414e 
000013fa 445f4454435f 
00001400 535550505245 
00001406 5353494f4e20 
0000140c 2844454d5f44 
00001412 54435f535550 
00001418 505245535349 
0000141e 4f4e2b312900 
00001424 01             9432 	.byte	1
00001425 1e             9433 	.byte	30
00001426 44454d5f4346   9434 	.strz	"DEM_CFG_SUPPRESSION DEM_EVENT_SUPPRESSION"
0000142c 475f53555050 
00001432 52455353494f 
00001438 4e2044454d5f 
0000143e 4556454e545f 
00001444 535550505245 
0000144a 5353494f4e00 
00001450 04             9435 	.byte	4
00001451 03             9436 	.byte	3
00001452 0b             9437 	.byte	11
00001453 13             9438 	.byte	19
00001454 01             9439 	.byte	1
00001455 04             9440 	.byte	4
00001456 44454d5f4346   9441 	.strz	"DEM_CFG_DEBMONINTERNAL_OFF STD_OFF"
0000145c 475f4445424d 
00001462 4f4e494e5445 
00001468 524e414c5f4f 
0000146e 464620535444 
00001474 5f4f464600 
00001479 01             9442 	.byte	1
0000147a 05             9443 	.byte	5
0000147b 44454d5f4346   9444 	.strz	"DEM_CFG_DEBMONINTERNAL_ON STD_ON"
00001481 475f4445424d 
00001487 4f4e494e5445 
0000148d 524e414c5f4f 
00001493 4e205354445f 
00001499 4f4e00 
0000149c 01             9445 	.byte	1
0000149d 06             9446 	.byte	6
0000149e 44454d5f4346   9447 	.strz	"DEM_CFG_DEBMONINTERNAL DEM_CFG_DEBMONINTERNAL_OFF"
000014a4 475f4445424d 
000014aa 4f4e494e5445 
000014b0 524e414c2044 
000014b6 454d5f434647 
000014bc 5f4445424d4f 
000014c2 4e494e544552 
000014c8 4e414c5f4f46 
000014ce 4600 
000014d0 01             9448 	.byte	1
000014d1 07             9449 	.byte	7
000014d2 44454d5f4346   9450 	.strz	"DEM_CFG_DEBARTIMEBASE_OFF STD_OFF"
000014d8 475f44454241 

                                                                      Page 196
                                                              C:\Users\nhuliyap\AppData\Local\Temp\gh_00002581.s
000014de 5254494d4542 
000014e4 4153455f4f46 
000014ea 46205354445f 
000014f0 4f464600 
000014f4 01             9451 	.byte	1
000014f5 08             9452 	.byte	8
000014f6 44454d5f4346   9453 	.strz	"DEM_CFG_DEBARTIMEBASE_ON STD_ON"
000014fc 475f44454241 
00001502 5254494d4542 
00001508 4153455f4f4e 
0000150e 205354445f4f 
00001514 4e00 
00001516 01             9454 	.byte	1
00001517 09             9455 	.byte	9
00001518 44454d5f4346   9456 	.strz	"DEM_CFG_DEBARTIMEBASE DEM_CFG_DEBARTIMEBASE_ON"
0000151e 475f44454241 
00001524 5254494d4542 
0000152a 415345204445 
00001530 4d5f4346475f 
00001536 444542415254 
0000153c 494d45424153 
00001542 455f4f4e00 
00001547 01             9457 	.byte	1
00001548 13             9458 	.byte	19
00001549 44454d5f4346   9459 	.strz	"DEM_CFG_DEBCOUNTERBASECLASS_ON STD_ON"
0000154f 475f44454243 
00001555 4f554e544552 
0000155b 42415345434c 
00001561 4153535f4f4e 
00001567 205354445f4f 
0000156d 4e00 
0000156f 01             9460 	.byte	1
00001570 14             9461 	.byte	20
00001571 44454d5f4346   9462 	.strz	"DEM_CFG_DEBCOUNTERBASECLASS DEM_CFG_DEBCOUNTERBASECLASS_ON"
00001577 475f44454243 
0000157d 4f554e544552 
00001583 42415345434c 
00001589 415353204445 
0000158f 4d5f4346475f 
00001595 444542434f55 
0000159b 4e5445524241 
000015a1 5345434c4153 
000015a7 535f4f4e00 
000015ac 01             9463 	.byte	1
000015ad 36             9464 	.byte	54
000015ae 44454d5f4346   9465 	.strz	"DEM_CFG_ALTERNATIVEDEBDEFINED FALSE"
000015b4 475f414c5445 
000015ba 524e41544956 
000015c0 454445424445 
000015c6 46494e454420 
000015cc 46414c534500 
000015d2 01             9466 	.byte	1
000015d3 8701           9467 	.byte	135,1
000015d5 44454d5f4346   9468 	.strz	"DEM_CFG_DEB_NUMBEROFCLASSES 3"
000015db 475f4445425f 
000015e1 4e554d424552 
000015e7 4f46434c4153 
000015ed 534553203300 
000015f3 01             9469 	.byte	1
000015f4 8801           9470 	.byte	136,1
000015f6 44454d5f4445   9471 	.strz	"DEM_DEBMETH_IDX_ARTIME (1u)"

                                                                      Page 197
                                                              C:\Users\nhuliyap\AppData\Local\Temp\gh_00002581.s
000015fc 424d4554485f 
00001602 4944585f4152 
00001608 54494d452028 
0000160e 31752900 
00001612 04             9472 	.byte	4
00001613 03             9473 	.byte	3
00001614 0c             9474 	.byte	12
00001615 14             9475 	.byte	20
00001616 01             9476 	.byte	1
00001617 04             9477 	.byte	4
00001618 44454d5f4346   9478 	.strz	"DEM_CFG_ENABLECONDITION_ON STD_ON"
0000161e 475f454e4142 
00001624 4c45434f4e44 
0000162a 4954494f4e5f 
00001630 4f4e20535444 
00001636 5f4f4e00 
0000163a 01             9479 	.byte	1
0000163b 05             9480 	.byte	5
0000163c 44454d5f4346   9481 	.strz	"DEM_CFG_ENABLECONDITION_OFF STD_OFF"
00001642 475f454e4142 
00001648 4c45434f4e44 
0000164e 4954494f4e5f 
00001654 4f4646205354 
0000165a 445f4f464600 
00001660 01             9482 	.byte	1
00001661 06             9483 	.byte	6
00001662 44454d5f4346   9484 	.strz	"DEM_CFG_ENABLECONDITION DEM_CFG_ENABLECONDITION_OFF"
00001668 475f454e4142 
0000166e 4c45434f4e44 
00001674 4954494f4e20 
0000167a 44454d5f4346 
00001680 475f454e4142 
00001686 4c45434f4e44 
0000168c 4954494f4e5f 
00001692 4f464600 
00001696 01             9485 	.byte	1
00001697 07             9486 	.byte	7
00001698 44454d5f454e   9487 	.strz	"DEM_ENABLECONDITION_COUNT 0u"
0000169e 41424c45434f 
000016a4 4e444954494f 
000016aa 4e5f434f554e 
000016b0 5420307500 
000016b5 01             9488 	.byte	1
000016b6 08             9489 	.byte	8
000016b7 44454d5f454e   9490 	.strz	"DEM_ENABLECONDITION_ARRAYLENGTH (DEM_ENABLECONDITION_COUNT)"
000016bd 41424c45434f 
000016c3 4e444954494f 
000016c9 4e5f41525241 
000016cf 594c454e4754 
000016d5 48202844454d 
000016db 5f454e41424c 
000016e1 45434f4e4449 
000016e7 54494f4e5f43 
000016ed 4f554e542900 
000016f3 04             9491 	.byte	4
000016f4 03             9492 	.byte	3
000016f5 0d             9493 	.byte	13
000016f6 15             9494 	.byte	21
000016f7 01             9495 	.byte	1
000016f8 04             9496 	.byte	4
000016f9 44454d5f4346   9497 	.strz	"DEM_CFG_EVTCATEGORY_OFF STD_OFF"

                                                                      Page 198
                                                              C:\Users\nhuliyap\AppData\Local\Temp\gh_00002581.s
000016ff 475f45565443 
00001705 415445474f52 
0000170b 595f4f464620 
00001711 5354445f4f46 
00001717 4600 
00001719 01             9498 	.byte	1
0000171a 05             9499 	.byte	5
0000171b 44454d5f4346   9500 	.strz	"DEM_CFG_EVTCATEGORY_ON STD_ON"
00001721 475f45565443 
00001727 415445474f52 
0000172d 595f4f4e2053 
00001733 54445f4f4e00 
00001739 01             9501 	.byte	1
0000173a 06             9502 	.byte	6
0000173b 44454d5f4346   9503 	.strz	"DEM_CFG_EVTCATEGORY DEM_CFG_EVTCATEGORY_OFF"
00001741 475f45565443 
00001747 415445474f52 
0000174d 592044454d5f 
00001753 4346475f4556 
00001759 544341544547 
0000175f 4f52595f4f46 
00001765 4600 
00001767 04             9504 	.byte	4
00001768 03             9505 	.byte	3
00001769 0e             9506 	.byte	14
0000176a 16             9507 	.byte	22
0000176b 01             9508 	.byte	1
0000176c 06             9509 	.byte	6
0000176d 44454d5f4346   9510 	.strz	"DEM_CFG_EVT_INDICATOR_OFF 0u"
00001773 475f4556545f 
00001779 494e44494341 
0000177f 544f525f4f46 
00001785 4620307500 
0000178a 01             9511 	.byte	1
0000178b 07             9512 	.byte	7
0000178c 44454d5f4346   9513 	.strz	"DEM_CFG_EVT_INDICATOR_ON 1u"
00001792 475f4556545f 
00001798 494e44494341 
0000179e 544f525f4f4e 
000017a4 20317500 
000017a8 01             9514 	.byte	1
000017a9 08             9515 	.byte	8
000017aa 44454d5f4346   9516 	.strz	"DEM_CFG_EVT_INDICATOR_PROJECTSPECIFIC 2u"
000017b0 475f4556545f 
000017b6 494e44494341 
000017bc 544f525f5052 
000017c2 4f4a45435453 
000017c8 504543494649 
000017ce 4320327500 
000017d3 01             9517 	.byte	1
000017d4 09             9518 	.byte	9
000017d5 44454d5f4346   9519 	.strz	"DEM_CFG_EVT_INDICATOR DEM_CFG_EVT_INDICATOR_OFF"
000017db 475f4556545f 
000017e1 494e44494341 
000017e7 544f52204445 
000017ed 4d5f4346475f 
000017f3 4556545f494e 
000017f9 44494341544f 
000017ff 525f4f464600 
00001805 04             9520 	.byte	4
00001806 03             9521 	.byte	3

                                                                      Page 199
                                                              C:\Users\nhuliyap\AppData\Local\Temp\gh_00002581.s
00001807 0f             9522 	.byte	15
00001808 17             9523 	.byte	23
00001809 03             9524 	.byte	3
0000180a 06             9525 	.byte	6
0000180b 18             9526 	.byte	24
0000180c 04             9527 	.byte	4
0000180d 03             9528 	.byte	3
0000180e 07             9529 	.byte	7
0000180f 19             9530 	.byte	25
00001810 04             9531 	.byte	4
00001811 03             9532 	.byte	3
00001812 08             9533 	.byte	8
00001813 1a             9534 	.byte	26
00001814 01             9535 	.byte	1
00001815 04             9536 	.byte	4
00001816 5242415f4449   9537 	.strz	"RBA_DIAGLIB_ISBITSET32 rba_DiagLib_Bit32IsBitSet"
0000181c 41474c49425f 
00001822 495342495453 
00001828 455433322072 
0000182e 62615f446961 
00001834 674c69625f42 
0000183a 697433324973 
00001840 426974536574 
00001846 00 
00001847 01             9538 	.byte	1
00001848 05             9539 	.byte	5
00001849 5242415f4449   9540 	.strz	"RBA_DIAGLIB_GETSINGLEBIT32 rba_DiagLib_Bit32GetSingleBit"
0000184f 41474c49425f 
00001855 47455453494e 
0000185b 474c45424954 
00001861 333220726261 
00001867 5f446961674c 
0000186d 69625f426974 
00001873 333247657453 
00001879 696e676c6542 
0000187f 697400 
00001882 01             9541 	.byte	1
00001883 06             9542 	.byte	6
00001884 5242415f4449   9543 	.strz	"RBA_DIAGLIB_GETBITS32 rba_DiagLib_Bit32GetBits"
0000188a 41474c49425f 
00001890 474554424954 
00001896 533332207262 
0000189c 615f44696167 
000018a2 4c69625f4269 
000018a8 743332476574 
000018ae 4269747300 
000018b3 04             9544 	.byte	4
000018b4 01             9545 	.byte	1
000018b5 10             9546 	.byte	16
000018b6 44454d5f4f50   9547 	.strz	"DEM_OPERATIONCYCLE_COUNT 3"
000018bc 45524154494f 
000018c2 4e4359434c45 
000018c8 5f434f554e54 
000018ce 203300 
000018d1 01             9548 	.byte	1
000018d2 16             9549 	.byte	22
000018d3 44454d5f4f50   9550 	.strz	"DEM_OPERATIONCYCLE_ISBITSET rba_DiagLib_Bit8IsBitSet"
000018d9 45524154494f 
000018df 4e4359434c45 
000018e5 5f4953424954 
000018eb 534554207262 

                                                                      Page 200
                                                              C:\Users\nhuliyap\AppData\Local\Temp\gh_00002581.s
000018f1 615f44696167 
000018f7 4c69625f4269 
000018fd 743849734269 
00001903 7453657400 
00001908 04             9551 	.byte	4
00001909 03             9552 	.byte	3
0000190a 10             9553 	.byte	16
0000190b 1b             9554 	.byte	27
0000190c 01             9555 	.byte	1
0000190d 04             9556 	.byte	4
0000190e 44454d5f4346   9557 	.strz	"DEM_CFG_STORAGECONDITION_ON STD_ON"
00001914 475f53544f52 
0000191a 414745434f4e 
00001920 444954494f4e 
00001926 5f4f4e205354 
0000192c 445f4f4e00 
00001931 01             9558 	.byte	1
00001932 05             9559 	.byte	5
00001933 44454d5f4346   9560 	.strz	"DEM_CFG_STORAGECONDITION_OFF STD_OFF"
00001939 475f53544f52 
0000193f 414745434f4e 
00001945 444954494f4e 
0000194b 5f4f46462053 
00001951 54445f4f4646 
00001957 00 
00001958 01             9561 	.byte	1
00001959 06             9562 	.byte	6
0000195a 44454d5f4346   9563 	.strz	"DEM_CFG_STORAGECONDITION DEM_CFG_STORAGECONDITION_OFF"
00001960 475f53544f52 
00001966 414745434f4e 
0000196c 444954494f4e 
00001972 2044454d5f43 
00001978 46475f53544f 
0000197e 52414745434f 
00001984 4e444954494f 
0000198a 4e5f4f464600 
00001990 01             9564 	.byte	1
00001991 07             9565 	.byte	7
00001992 44454d5f5354   9566 	.strz	"DEM_STORAGECONDITION_COUNT 0u"
00001998 4f5241474543 
0000199e 4f4e44495449 
000019a4 4f4e5f434f55 
000019aa 4e5420307500 
000019b0 01             9567 	.byte	1
000019b1 08             9568 	.byte	8
000019b2 44454d5f5354   9569 	.strz	"DEM_STORAGECONDITION_ARRAYLENGTH (DEM_STORAGECONDITION_COUNT)"
000019b8 4f5241474543 
000019be 4f4e44495449 
000019c4 4f4e5f415252 
000019ca 41594c454e47 
000019d0 544820284445 
000019d6 4d5f53544f52 
000019dc 414745434f4e 
000019e2 444954494f4e 
000019e8 5f434f554e54 
000019ee 2900 
000019f0 04             9570 	.byte	4
000019f1 03             9571 	.byte	3
000019f2 11             9572 	.byte	17
000019f3 1c             9573 	.byte	28
000019f4 01             9574 	.byte	1

                                                                      Page 201
                                                              C:\Users\nhuliyap\AppData\Local\Temp\gh_00002581.s
000019f5 08             9575 	.byte	8
000019f6 44454d5f5354   9576 	.strz	"DEM_START_SEC_ROM_CODE "
000019fc 4152545f5345 
00001a02 435f524f4d5f 
00001a08 434f44452000 
00001a0e 03             9577 	.byte	3
00001a0f 09             9578 	.byte	9
00001a10 1d             9579 	.byte	29
00001a11 01             9580 	.byte	1
00001a12 06             9581 	.byte	6
00001a13 44454d5f4d45   9582 	.strz	"DEM_MEMMAP_ERROR "
00001a19 4d4d41505f45 
00001a1f 52524f522000 
00001a25 01             9583 	.byte	1
00001a26 51             9584 	.byte	81
00001a27 4253575f5354   9585 	.strz	"BSW_START_SEC_CODE "
00001a2d 4152545f5345 
00001a33 435f434f4445 
00001a39 2000 
00001a3b 03             9586 	.byte	3
00001a3c 52             9587 	.byte	82
00001a3d 1e             9588 	.byte	30
00001a3e 01             9589 	.byte	1
00001a3f da08           9590 	.byte	218,8
00001a41 53544152545f   9591 	.strz	"START_SEC_CODE "
00001a47 5345435f434f 
00001a4d 44452000 
00001a51 03             9592 	.byte	3
00001a52 bb09           9593 	.byte	187,9
00001a54 1f             9594 	.byte	31
00001a55 01             9595 	.byte	1
00001a56 f307           9596 	.byte	243,7
00001a58 434f44455f53   9597 	.strz	"CODE_SEC_OPEN "
00001a5e 45435f4f5045 
00001a64 4e2000 
00001a67 04             9598 	.byte	4
00001a68 04             9599 	.byte	4
00001a69 01             9600 	.byte	1
00001a6a 56             9601 	.byte	86
00001a6b 44454d5f5741   9602 	.strz	"DEM_WAS_STARTED_SEC_ROM_CODE "
00001a71 535f53544152 
00001a77 5445445f5345 
00001a7d 435f524f4d5f 
00001a83 434f44452000 
00001a89 04             9603 	.byte	4
00001a8a 01             9604 	.byte	1
00001a8b 0f             9605 	.byte	15
00001a8c 44454d5f5354   9606 	.strz	"DEM_STOP_SEC_ROM_CODE "
00001a92 4f505f534543 
00001a98 5f524f4d5f43 
00001a9e 4f44452000 
00001aa3 03             9607 	.byte	3
00001aa4 10             9608 	.byte	16
00001aa5 1d             9609 	.byte	29
00001aa6 01             9610 	.byte	1
00001aa7 06             9611 	.byte	6
00001aa8 44454d5f4d45   9612 	.strz	"DEM_MEMMAP_ERROR "
00001aae 4d4d41505f45 
00001ab4 52524f522000 
00001aba 01             9613 	.byte	1
00001abb 5e             9614 	.byte	94

                                                                      Page 202
                                                              C:\Users\nhuliyap\AppData\Local\Temp\gh_00002581.s
00001abc 4253575f5354   9615 	.strz	"BSW_STOP_SEC_CODE "
00001ac2 4f505f534543 
00001ac8 5f434f444520 
00001ace 00 
00001acf 03             9616 	.byte	3
00001ad0 5f             9617 	.byte	95
00001ad1 1e             9618 	.byte	30
00001ad2 01             9619 	.byte	1
00001ad3 de08           9620 	.byte	222,8
00001ad5 53544f505f53   9621 	.strz	"STOP_SEC_CODE "
00001adb 45435f434f44 
00001ae1 452000 
00001ae4 03             9622 	.byte	3
00001ae5 bb09           9623 	.byte	187,9
00001ae7 1f             9624 	.byte	31
00001ae8 04             9625 	.byte	4
00001ae9 04             9626 	.byte	4
00001aea 04             9627 	.byte	4
00001aeb 04             9628 	.byte	4
00001aec 03             9629 	.byte	3
00001aed 12             9630 	.byte	18
00001aee 20             9631 	.byte	32
00001aef 03             9632 	.byte	3
00001af0 05             9633 	.byte	5
00001af1 21             9634 	.byte	33
00001af2 03             9635 	.byte	3
00001af3 06             9636 	.byte	6
00001af4 22             9637 	.byte	34
00001af5 04             9638 	.byte	4
00001af6 04             9639 	.byte	4
00001af7 01             9640 	.byte	1
00001af8 07             9641 	.byte	7
00001af9 44454d5f5354   9642 	.strz	"DEM_START_SEC_ROM_CODE "
00001aff 4152545f5345 
00001b05 435f524f4d5f 
00001b0b 434f44452000 
00001b11 03             9643 	.byte	3
00001b12 08             9644 	.byte	8
00001b13 1d             9645 	.byte	29
00001b14 01             9646 	.byte	1
00001b15 06             9647 	.byte	6
00001b16 44454d5f4d45   9648 	.strz	"DEM_MEMMAP_ERROR "
00001b1c 4d4d41505f45 
00001b22 52524f522000 
00001b28 01             9649 	.byte	1
00001b29 51             9650 	.byte	81
00001b2a 4253575f5354   9651 	.strz	"BSW_START_SEC_CODE "
00001b30 4152545f5345 
00001b36 435f434f4445 
00001b3c 2000 
00001b3e 03             9652 	.byte	3
00001b3f 52             9653 	.byte	82
00001b40 1e             9654 	.byte	30
00001b41 01             9655 	.byte	1
00001b42 da08           9656 	.byte	218,8
00001b44 53544152545f   9657 	.strz	"START_SEC_CODE "
00001b4a 5345435f434f 
00001b50 44452000 
00001b54 03             9658 	.byte	3
00001b55 bb09           9659 	.byte	187,9
00001b57 1f             9660 	.byte	31

                                                                      Page 203
                                                              C:\Users\nhuliyap\AppData\Local\Temp\gh_00002581.s
00001b58 01             9661 	.byte	1
00001b59 f307           9662 	.byte	243,7
00001b5b 434f44455f53   9663 	.strz	"CODE_SEC_OPEN "
00001b61 45435f4f5045 
00001b67 4e2000 
00001b6a 04             9664 	.byte	4
00001b6b 04             9665 	.byte	4
00001b6c 01             9666 	.byte	1
00001b6d 56             9667 	.byte	86
00001b6e 44454d5f5741   9668 	.strz	"DEM_WAS_STARTED_SEC_ROM_CODE "
00001b74 535f53544152 
00001b7a 5445445f5345 
00001b80 435f524f4d5f 
00001b86 434f44452000 
00001b8c 04             9669 	.byte	4
00001b8d 01             9670 	.byte	1
00001b8e 53             9671 	.byte	83
00001b8f 44454d5f5354   9672 	.strz	"DEM_STOP_SEC_ROM_CODE "
00001b95 4f505f534543 
00001b9b 5f524f4d5f43 
00001ba1 4f44452000 
00001ba6 03             9673 	.byte	3
00001ba7 54             9674 	.byte	84
00001ba8 1d             9675 	.byte	29
00001ba9 01             9676 	.byte	1
00001baa 06             9677 	.byte	6
00001bab 44454d5f4d45   9678 	.strz	"DEM_MEMMAP_ERROR "
00001bb1 4d4d41505f45 
00001bb7 52524f522000 
00001bbd 01             9679 	.byte	1
00001bbe 5e             9680 	.byte	94
00001bbf 4253575f5354   9681 	.strz	"BSW_STOP_SEC_CODE "
00001bc5 4f505f534543 
00001bcb 5f434f444520 
00001bd1 00 
00001bd2 03             9682 	.byte	3
00001bd3 5f             9683 	.byte	95
00001bd4 1e             9684 	.byte	30
00001bd5 01             9685 	.byte	1
00001bd6 de08           9686 	.byte	222,8
00001bd8 53544f505f53   9687 	.strz	"STOP_SEC_CODE "
00001bde 45435f434f44 
00001be4 452000 
00001be7 03             9688 	.byte	3
00001be8 bb09           9689 	.byte	187,9
00001bea 1f             9690 	.byte	31
00001beb 04             9691 	.byte	4
00001bec 04             9692 	.byte	4
00001bed 04             9693 	.byte	4
00001bee 04             9694 	.byte	4
00001bef 03             9695 	.byte	3
00001bf0 13             9696 	.byte	19
00001bf1 23             9697 	.byte	35
00001bf2 04             9698 	.byte	4
00001bf3 01             9699 	.byte	1
00001bf4 19             9700 	.byte	25
00001bf5 44454d5f5354   9701 	.strz	"DEM_START_SEC_ROM_CODE "
00001bfb 4152545f5345 
00001c01 435f524f4d5f 
00001c07 434f44452000 
00001c0d 03             9702 	.byte	3

                                                                      Page 204
                                                              C:\Users\nhuliyap\AppData\Local\Temp\gh_00002581.s
00001c0e 1a             9703 	.byte	26
00001c0f 1d             9704 	.byte	29
00001c10 01             9705 	.byte	1
00001c11 06             9706 	.byte	6
00001c12 44454d5f4d45   9707 	.strz	"DEM_MEMMAP_ERROR "
00001c18 4d4d41505f45 
00001c1e 52524f522000 
00001c24 01             9708 	.byte	1
00001c25 51             9709 	.byte	81
00001c26 4253575f5354   9710 	.strz	"BSW_START_SEC_CODE "
00001c2c 4152545f5345 
00001c32 435f434f4445 
00001c38 2000 
00001c3a 03             9711 	.byte	3
00001c3b 52             9712 	.byte	82
00001c3c 1e             9713 	.byte	30
00001c3d 01             9714 	.byte	1
00001c3e da08           9715 	.byte	218,8
00001c40 53544152545f   9716 	.strz	"START_SEC_CODE "
00001c46 5345435f434f 
00001c4c 44452000 
00001c50 03             9717 	.byte	3
00001c51 bb09           9718 	.byte	187,9
00001c53 1f             9719 	.byte	31
00001c54 01             9720 	.byte	1
00001c55 f307           9721 	.byte	243,7
00001c57 434f44455f53   9722 	.strz	"CODE_SEC_OPEN "
00001c5d 45435f4f5045 
00001c63 4e2000 
00001c66 04             9723 	.byte	4
00001c67 04             9724 	.byte	4
00001c68 01             9725 	.byte	1
00001c69 56             9726 	.byte	86
00001c6a 44454d5f5741   9727 	.strz	"DEM_WAS_STARTED_SEC_ROM_CODE "
00001c70 535f53544152 
00001c76 5445445f5345 
00001c7c 435f524f4d5f 
00001c82 434f44452000 
00001c88 04             9728 	.byte	4
00001c89 01             9729 	.byte	1
00001c8a c401           9730 	.byte	196,1
00001c8c 44454d5f5354   9731 	.strz	"DEM_STOP_SEC_ROM_CODE "
00001c92 4f505f534543 
00001c98 5f524f4d5f43 
00001c9e 4f44452000 
00001ca3 03             9732 	.byte	3
00001ca4 c501           9733 	.byte	197,1
00001ca6 1d             9734 	.byte	29
00001ca7 01             9735 	.byte	1
00001ca8 06             9736 	.byte	6
00001ca9 44454d5f4d45   9737 	.strz	"DEM_MEMMAP_ERROR "
00001caf 4d4d41505f45 
00001cb5 52524f522000 
00001cbb 01             9738 	.byte	1
00001cbc 5e             9739 	.byte	94
00001cbd 4253575f5354   9740 	.strz	"BSW_STOP_SEC_CODE "
00001cc3 4f505f534543 
00001cc9 5f434f444520 
00001ccf 00 
00001cd0 03             9741 	.byte	3
00001cd1 5f             9742 	.byte	95

                                                                      Page 205
                                                              C:\Users\nhuliyap\AppData\Local\Temp\gh_00002581.s
00001cd2 1e             9743 	.byte	30
00001cd3 01             9744 	.byte	1
00001cd4 de08           9745 	.byte	222,8
00001cd6 53544f505f53   9746 	.strz	"STOP_SEC_CODE "
00001cdc 45435f434f44 
00001ce2 452000 
00001ce5 03             9747 	.byte	3
00001ce6 bb09           9748 	.byte	187,9
00001ce8 1f             9749 	.byte	31
00001ce9 04             9750 	.byte	4
00001cea 04             9751 	.byte	4
00001ceb 04             9752 	.byte	4
00001cec 01             9753 	.byte	1
00001ced c701           9754 	.byte	199,1
00001cef 44454d5f5354   9755 	.strz	"DEM_START_SEC_ROM_CONST "
00001cf5 4152545f5345 
00001cfb 435f524f4d5f 
00001d01 434f4e535420 
00001d07 00 
00001d08 03             9756 	.byte	3
00001d09 c801           9757 	.byte	200,1
00001d0b 1d             9758 	.byte	29
00001d0c 01             9759 	.byte	1
00001d0d 06             9760 	.byte	6
00001d0e 44454d5f4d45   9761 	.strz	"DEM_MEMMAP_ERROR "
00001d14 4d4d41505f45 
00001d1a 52524f522000 
00001d20 01             9762 	.byte	1
00001d21 3a             9763 	.byte	58
00001d22 4253575f5354   9764 	.strz	"BSW_START_SEC_CONST_UNSPECIFIED "
00001d28 4152545f5345 
00001d2e 435f434f4e53 
00001d34 545f554e5350 
00001d3a 454349464945 
00001d40 442000 
00001d43 03             9765 	.byte	3
00001d44 3b             9766 	.byte	59
00001d45 1e             9767 	.byte	30
00001d46 01             9768 	.byte	1
00001d47 f005           9769 	.byte	240,5
00001d49 53544152545f   9770 	.strz	"START_SEC_CONST_UNSPECIFIED "
00001d4f 5345435f434f 
00001d55 4e53545f554e 
00001d5b 535045434946 
00001d61 4945442000 
00001d66 03             9771 	.byte	3
00001d67 bb09           9772 	.byte	187,9
00001d69 1f             9773 	.byte	31
00001d6a 01             9774 	.byte	1
00001d6b b408           9775 	.byte	180,8
00001d6d 434f4e53545f   9776 	.strz	"CONST_SEC_OPEN "
00001d73 5345435f4f50 
00001d79 454e2000 
00001d7d 04             9777 	.byte	4
00001d7e 04             9778 	.byte	4
00001d7f 01             9779 	.byte	1
00001d80 3f             9780 	.byte	63
00001d81 44454d5f5741   9781 	.strz	"DEM_WAS_STARTED_SEC_ROM_CONST "
00001d87 535f53544152 
00001d8d 5445445f5345 
00001d93 435f524f4d5f 

                                                                      Page 206
                                                              C:\Users\nhuliyap\AppData\Local\Temp\gh_00002581.s
00001d99 434f4e535420 
00001d9f 00 
00001da0 04             9782 	.byte	4
00001da1 01             9783 	.byte	1
00001da2 ca01           9784 	.byte	202,1
00001da4 44454d5f5354   9785 	.strz	"DEM_STOP_SEC_ROM_CONST "
00001daa 4f505f534543 
00001db0 5f524f4d5f43 
00001db6 4f4e53542000 
00001dbc 03             9786 	.byte	3
00001dbd cb01           9787 	.byte	203,1
00001dbf 1d             9788 	.byte	29
00001dc0 01             9789 	.byte	1
00001dc1 06             9790 	.byte	6
00001dc2 44454d5f4d45   9791 	.strz	"DEM_MEMMAP_ERROR "
00001dc8 4d4d41505f45 
00001dce 52524f522000 
00001dd4 01             9792 	.byte	1
00001dd5 47             9793 	.byte	71
00001dd6 4253575f5354   9794 	.strz	"BSW_STOP_SEC_CONST_UNSPECIFIED "
00001ddc 4f505f534543 
00001de2 5f434f4e5354 
00001de8 5f554e535045 
00001dee 434946494544 
00001df4 2000 
00001df6 03             9795 	.byte	3
00001df7 48             9796 	.byte	72
00001df8 1e             9797 	.byte	30
00001df9 01             9798 	.byte	1
00001dfa f405           9799 	.byte	244,5
00001dfc 53544f505f53   9800 	.strz	"STOP_SEC_CONST "
00001e02 45435f434f4e 
00001e08 53542000 
00001e0c 03             9801 	.byte	3
00001e0d bb09           9802 	.byte	187,9
00001e0f 1f             9803 	.byte	31
00001e10 04             9804 	.byte	4
00001e11 04             9805 	.byte	4
00001e12 04             9806 	.byte	4
00001e13 01             9807 	.byte	1
00001e14 cd01           9808 	.byte	205,1
00001e16 44454d5f5354   9809 	.strz	"DEM_START_SEC_ROM_CODE "
00001e1c 4152545f5345 
00001e22 435f524f4d5f 
00001e28 434f44452000 
00001e2e 03             9810 	.byte	3
00001e2f ce01           9811 	.byte	206,1
00001e31 1d             9812 	.byte	29
00001e32 01             9813 	.byte	1
00001e33 06             9814 	.byte	6
00001e34 44454d5f4d45   9815 	.strz	"DEM_MEMMAP_ERROR "
00001e3a 4d4d41505f45 
00001e40 52524f522000 
00001e46 01             9816 	.byte	1
00001e47 51             9817 	.byte	81
00001e48 4253575f5354   9818 	.strz	"BSW_START_SEC_CODE "
00001e4e 4152545f5345 
00001e54 435f434f4445 
00001e5a 2000 
00001e5c 03             9819 	.byte	3
00001e5d 52             9820 	.byte	82

                                                                      Page 207
                                                              C:\Users\nhuliyap\AppData\Local\Temp\gh_00002581.s
00001e5e 1e             9821 	.byte	30
00001e5f 01             9822 	.byte	1
00001e60 da08           9823 	.byte	218,8
00001e62 53544152545f   9824 	.strz	"START_SEC_CODE "
00001e68 5345435f434f 
00001e6e 44452000 
00001e72 03             9825 	.byte	3
00001e73 bb09           9826 	.byte	187,9
00001e75 1f             9827 	.byte	31
00001e76 01             9828 	.byte	1
00001e77 f307           9829 	.byte	243,7
00001e79 434f44455f53   9830 	.strz	"CODE_SEC_OPEN "
00001e7f 45435f4f5045 
00001e85 4e2000 
00001e88 04             9831 	.byte	4
00001e89 04             9832 	.byte	4
00001e8a 01             9833 	.byte	1
00001e8b 56             9834 	.byte	86
00001e8c 44454d5f5741   9835 	.strz	"DEM_WAS_STARTED_SEC_ROM_CODE "
00001e92 535f53544152 
00001e98 5445445f5345 
00001e9e 435f524f4d5f 
00001ea4 434f44452000 
00001eaa 04             9836 	.byte	4
00001eab 01             9837 	.byte	1
00001eac d201           9838 	.byte	210,1
00001eae 44454d5f5354   9839 	.strz	"DEM_STOP_SEC_ROM_CODE "
00001eb4 4f505f534543 
00001eba 5f524f4d5f43 
00001ec0 4f44452000 
00001ec5 03             9840 	.byte	3
00001ec6 d301           9841 	.byte	211,1
00001ec8 1d             9842 	.byte	29
00001ec9 01             9843 	.byte	1
00001eca 06             9844 	.byte	6
00001ecb 44454d5f4d45   9845 	.strz	"DEM_MEMMAP_ERROR "
00001ed1 4d4d41505f45 
00001ed7 52524f522000 
00001edd 01             9846 	.byte	1
00001ede 5e             9847 	.byte	94
00001edf 4253575f5354   9848 	.strz	"BSW_STOP_SEC_CODE "
00001ee5 4f505f534543 
00001eeb 5f434f444520 
00001ef1 00 
00001ef2 03             9849 	.byte	3
00001ef3 5f             9850 	.byte	95
00001ef4 1e             9851 	.byte	30
00001ef5 01             9852 	.byte	1
00001ef6 de08           9853 	.byte	222,8
00001ef8 53544f505f53   9854 	.strz	"STOP_SEC_CODE "
00001efe 45435f434f44 
00001f04 452000 
00001f07 03             9855 	.byte	3
00001f08 bb09           9856 	.byte	187,9
00001f0a 1f             9857 	.byte	31
00001f0b 04             9858 	.byte	4
00001f0c 04             9859 	.byte	4
00001f0d 04             9860 	.byte	4
00001f0e 04             9861 	.byte	4
00001f0f 03             9862 	.byte	3
00001f10 05             9863 	.byte	5

                                                                      Page 208
                                                              C:\Users\nhuliyap\AppData\Local\Temp\gh_00002581.s
00001f11 24             9864 	.byte	36
00001f12 03             9865 	.byte	3
00001f13 04             9866 	.byte	4
00001f14 25             9867 	.byte	37
00001f15 03             9868 	.byte	3
00001f16 06             9869 	.byte	6
00001f17 26             9870 	.byte	38
00001f18 03             9871 	.byte	3
00001f19 06             9872 	.byte	6
00001f1a 27             9873 	.byte	39
00001f1b 03             9874 	.byte	3
00001f1c 05             9875 	.byte	5
00001f1d 28             9876 	.byte	40
00001f1e 03             9877 	.byte	3
00001f1f 07             9878 	.byte	7
00001f20 29             9879 	.byte	41
00001f21 03             9880 	.byte	3
00001f22 04             9881 	.byte	4
00001f23 2a             9882 	.byte	42
00001f24 03             9883 	.byte	3
00001f25 04             9884 	.byte	4
00001f26 2b             9885 	.byte	43
00001f27 04             9886 	.byte	4
00001f28 04             9887 	.byte	4
00001f29 01             9888 	.byte	1
00001f2a 08             9889 	.byte	8
00001f2b 4445545f4346   9890 	.strz	"DET_CFG_CHECK_API_CONSISTENCY TRUE"
00001f31 475f43484543 
00001f37 4b5f4150495f 
00001f3d 434f4e534953 
00001f43 54454e435920 
00001f49 5452554500 
00001f4e 01             9891 	.byte	1
00001f4f 0a             9892 	.byte	10
00001f50 4445545f5354   9893 	.strz	"DET_START_SEC_ROM_CODE "
00001f56 4152545f5345 
00001f5c 435f524f4d5f 
00001f62 434f44452000 
00001f68 03             9894 	.byte	3
00001f69 0b             9895 	.byte	11
00001f6a 2c             9896 	.byte	44
00001f6b 01             9897 	.byte	1
00001f6c 06             9898 	.byte	6
00001f6d 4d454d4d4150   9899 	.strz	"MEMMAP_ERROR "
00001f73 5f4552524f52 
00001f79 2000 
00001f7b 01             9900 	.byte	1
00001f7c 51             9901 	.byte	81
00001f7d 4253575f5354   9902 	.strz	"BSW_START_SEC_DEFAULT_CODE "
00001f83 4152545f5345 
00001f89 435f44454641 
00001f8f 554c545f434f 
00001f95 44452000 
00001f99 03             9903 	.byte	3
00001f9a 52             9904 	.byte	82
00001f9b 1e             9905 	.byte	30
00001f9c 01             9906 	.byte	1
00001f9d d308           9907 	.byte	211,8
00001f9f 53544152545f   9908 	.strz	"START_SEC_CODE "
00001fa5 5345435f434f 
00001fab 44452000 

                                                                      Page 209
                                                              C:\Users\nhuliyap\AppData\Local\Temp\gh_00002581.s
00001faf 03             9909 	.byte	3
00001fb0 bb09           9910 	.byte	187,9
00001fb2 1f             9911 	.byte	31
00001fb3 01             9912 	.byte	1
00001fb4 f307           9913 	.byte	243,7
00001fb6 434f44455f53   9914 	.strz	"CODE_SEC_OPEN "
00001fbc 45435f4f5045 
00001fc2 4e2000 
00001fc5 04             9915 	.byte	4
00001fc6 04             9916 	.byte	4
00001fc7 01             9917 	.byte	1
00001fc8 56             9918 	.byte	86
00001fc9 4445545f5741   9919 	.strz	"DET_WAS_STARTED_SEC_ROM_CODE "
00001fcf 535f53544152 
00001fd5 5445445f5345 
00001fdb 435f524f4d5f 
00001fe1 434f44452000 
00001fe7 04             9920 	.byte	4
00001fe8 01             9921 	.byte	1
00001fe9 20             9922 	.byte	32
00001fea 4445545f5354   9923 	.strz	"DET_STOP_SEC_ROM_CODE "
00001ff0 4f505f534543 
00001ff6 5f524f4d5f43 
00001ffc 4f44452000 
00002001 03             9924 	.byte	3
00002002 21             9925 	.byte	33
00002003 2c             9926 	.byte	44
00002004 01             9927 	.byte	1
00002005 06             9928 	.byte	6
00002006 4d454d4d4150   9929 	.strz	"MEMMAP_ERROR "
0000200c 5f4552524f52 
00002012 2000 
00002014 01             9930 	.byte	1
00002015 5e             9931 	.byte	94
00002016 4253575f5354   9932 	.strz	"BSW_STOP_SEC_DEFAULT_CODE "
0000201c 4f505f534543 
00002022 5f4445464155 
00002028 4c545f434f44 
0000202e 452000 
00002031 03             9933 	.byte	3
00002032 5f             9934 	.byte	95
00002033 1e             9935 	.byte	30
00002034 01             9936 	.byte	1
00002035 d608           9937 	.byte	214,8
00002037 53544f505f53   9938 	.strz	"STOP_SEC_CODE "
0000203d 45435f434f44 
00002043 452000 
00002046 03             9939 	.byte	3
00002047 bb09           9940 	.byte	187,9
00002049 1f             9941 	.byte	31
0000204a 04             9942 	.byte	4
0000204b 04             9943 	.byte	4
0000204c 04             9944 	.byte	4
0000204d 04             9945 	.byte	4
0000204e 01             9946 	.byte	1
0000204f 08             9947 	.byte	8
00002050 44454d5f4445   9948 	.strz	"DEM_DET(APIID,ERRORID) Det_ReportError(DEM_MODULE_ID,DEM_INSTANCE_ID,APIID,ERRORID)"
00002056 542841504949 
0000205c 442c4552524f 
00002062 524944292044 
00002068 65745f526570 

                                                                      Page 210
                                                              C:\Users\nhuliyap\AppData\Local\Temp\gh_00002581.s
0000206e 6f7274457272 
00002074 6f722844454d 
0000207a 5f4d4f44554c 
00002080 455f49442c44 
00002086 454d5f494e53 
0000208c 54414e43455f 
00002092 49442c415049 
00002098 49442c455252 
0000209e 4f5249442900 
000020a4 01             9949 	.byte	1
000020a5 13             9950 	.byte	19
000020a6 44454d5f4153   9951 	.strz	"DEM_ASSERT(C,APIID,ERRORID) do { if(!(C)) { DEM_DET(APIID,ERRORID); }}while(0)"
000020ac 534552542843 
000020b2 2c4150494944 
000020b8 2c4552524f52 
000020be 49442920646f 
000020c4 207b20696628 
000020ca 212843292920 
000020d0 7b2044454d5f 
000020d6 444554284150 
000020dc 4949442c4552 
000020e2 524f52494429 
000020e8 3b207d7d7768 
000020ee 696c65283029 
000020f4 00 
000020f5 01             9952 	.byte	1
000020f6 16             9953 	.byte	22
000020f7 44454d5f455f   9954 	.strz	"DEM_E_WRONG_CONFIGURATION 0x10"
000020fd 57524f4e475f 
00002103 434f4e464947 
00002109 55524154494f 
0000210f 4e2030783130 
00002115 00 
00002116 01             9955 	.byte	1
00002117 17             9956 	.byte	23
00002118 44454d5f455f   9957 	.strz	"DEM_E_PARAM_POINTER 0x11"
0000211e 504152414d5f 
00002124 504f494e5445 
0000212a 522030783131 
00002130 00 
00002131 01             9958 	.byte	1
00002132 1a             9959 	.byte	26
00002133 44454d5f455f   9960 	.strz	"DEM_E_UNINIT 0x20"
00002139 554e494e4954 
0000213f 203078323000 
00002145 01             9961 	.byte	1
00002146 1b             9962 	.byte	27
00002147 44454d5f455f   9963 	.strz	"DEM_E_NODATAAVAILABLE 0x30"
0000214d 4e4f44415441 
00002153 415641494c41 
00002159 424c45203078 
0000215f 333000 
00002162 01             9964 	.byte	1
00002163 31             9965 	.byte	49
00002164 44454d5f4445   9966 	.strz	"DEM_DET_APIID_GETFREEZEFRAMEDATABYDTC 0x1D"
0000216a 545f41504949 
00002170 445f47455446 
00002176 5245455a4546 
0000217c 52414d454441 
00002182 544142594454 
00002188 432030783144 

                                                                      Page 211
                                                              C:\Users\nhuliyap\AppData\Local\Temp\gh_00002581.s
0000218e 00 
0000218f 01             9967 	.byte	1
00002190 32             9968 	.byte	50
00002191 44454d5f4445   9969 	.strz	"DEM_DET_APIID_GETSIZEOFFREEZEFRAMEBYDTC 0x1F"
00002197 545f41504949 
0000219d 445f47455453 
000021a3 495a454f4646 
000021a9 5245455a4546 
000021af 52414d454259 
000021b5 445443203078 
000021bb 314600 
000021be 01             9970 	.byte	1
000021bf 33             9971 	.byte	51
000021c0 44454d5f4445   9972 	.strz	"DEM_DET_APIID_GETEXTENDEDDATARECORDBYDTC 0x20"
000021c6 545f41504949 
000021cc 445f47455445 
000021d2 5854454e4445 
000021d8 444441544152 
000021de 45434f524442 
000021e4 594454432030 
000021ea 78323000 
000021ee 01             9973 	.byte	1
000021ef 34             9974 	.byte	52
000021f0 44454d5f4445   9975 	.strz	"DEM_DET_APIID_GETSIZEOFEXTENDEDDATARECORDBYDTC 0x21"
000021f6 545f41504949 
000021fc 445f47455453 
00002202 495a454f4645 
00002208 5854454e4445 
0000220e 444441544152 
00002214 45434f524442 
0000221a 594454432030 
00002220 78323100 
00002224 01             9976 	.byte	1
00002225 3d             9977 	.byte	61
00002226 44454d5f4445   9978 	.strz	"DEM_DET_APIID_DEM_EVMEMGETNUMBEROFEVENTENTRIES 0x35"
0000222c 545f41504949 
00002232 445f44454d5f 
00002238 45564d454d47 
0000223e 45544e554d42 
00002244 45524f464556 
0000224a 454e54454e54 
00002250 524945532030 
00002256 78333500 
0000225a 01             9979 	.byte	1
0000225b 50             9980 	.byte	80
0000225c 44454d5f4445   9981 	.strz	"DEM_DET_APIID_DEBCALLFILTER 0xA0"
00002262 545f41504949 
00002268 445f44454243 
0000226e 414c4c46494c 
00002274 544552203078 
0000227a 413000 
0000227d 01             9982 	.byte	1
0000227e 51             9983 	.byte	81
0000227f 44454d5f4445   9984 	.strz	"DEM_DET_APIID_DEBMAINFUNCTION 0xA1"
00002285 545f41504949 
0000228b 445f4445424d 
00002291 41494e46554e 
00002297 4354494f4e20 
0000229d 3078413100 
000022a2 01             9985 	.byte	1
000022a3 52             9986 	.byte	82

                                                                      Page 212
                                                              C:\Users\nhuliyap\AppData\Local\Temp\gh_00002581.s
000022a4 44454d5f4445   9987 	.strz	"DEM_DET_APIID_ENVDARETRIEVE 0xA2"
000022aa 545f41504949 
000022b0 445f454e5644 
000022b6 415245545249 
000022bc 455645203078 
000022c2 413200 
000022c5 01             9988 	.byte	1
000022c6 57             9989 	.byte	87
000022c7 44454d5f4445   9990 	.strz	"DEM_DET_APIID_ENVDACAPTURE 0xA7"
000022cd 545f41504949 
000022d3 445f454e5644 
000022d9 414341505455 
000022df 524520307841 
000022e5 3700 
000022e7 01             9991 	.byte	1
000022e8 58             9992 	.byte	88
000022e9 44454d5f4445   9993 	.strz	"DEM_DET_APIID_ENVDASKIP 0xA8"
000022ef 545f41504949 
000022f5 445f454e5644 
000022fb 41534b495020 
00002301 3078413800 
00002306 01             9994 	.byte	1
00002307 59             9995 	.byte	89
00002308 44454d5f4445   9996 	.strz	"DEM_DET_APIID_ENVDAUPDATE 0xA9"
0000230e 545f41504949 
00002314 445f454e5644 
0000231a 415550444154 
00002320 452030784139 
00002326 00 
00002327 01             9997 	.byte	1
00002328 5e             9998 	.byte	94
00002329 44454d5f4445   9999 	.strz	"DEM_DET_APIID_ENVFFCOPYRAW 0xAE"
0000232f 545f41504949 
00002335 445f454e5646 
0000233b 46434f505952 
00002341 415720307841 
00002347 4500 
00002349 01            10000 	.byte	1
0000234a 62            10001 	.byte	98
0000234b 44454d5f4445  10002 	.strz	"DEM_DET_APIID_EVMEMSETEVENTFAILED 0xB5"
00002351 545f41504949 
00002357 445f45564d45 
0000235d 4d5345544556 
00002363 454e54464149 
00002369 4c4544203078 
0000236f 423500 
00002372 01            10003 	.byte	1
00002373 67            10004 	.byte	103
00002374 44454d5f4445  10005 	.strz	"DEM_DET_APIID_EVENTIDLISTITERATOR 0xBD"
0000237a 545f41504949 
00002380 445f4556454e 
00002386 5449444c4953 
0000238c 544954455241 
00002392 544f52203078 
00002398 424400 
0000239b 01            10006 	.byte	1
0000239c 6c            10007 	.byte	108
0000239d 44454d5f4445  10008 	.strz	"DEM_DET_APIID_DEM_EVMEMGETEVENTMEMID 0xC2"
000023a3 545f41504949 
000023a9 445f44454d5f 
000023af 45564d454d47 

                                                                      Page 213
                                                              C:\Users\nhuliyap\AppData\Local\Temp\gh_00002581.s
000023b5 45544556454e 
000023bb 544d454d4944 
000023c1 203078433200 
000023c7 01            10009 	.byte	1
000023c8 6f            10010 	.byte	111
000023c9 44454d5f4445  10011 	.strz	"DEM_DET_APIID_DTCGROUPIDIDLISTITERATOR 0xC5"
000023cf 545f41504949 
000023d5 445f44544347 
000023db 524f55504944 
000023e1 49444c495354 
000023e7 495445524154 
000023ed 4f5220307843 
000023f3 3500 
000023f5 04            10012 	.byte	4
000023f6 03            10013 	.byte	3
000023f7 06            10014 	.byte	6
000023f8 2d            10015 	.byte	45
000023f9 03            10016 	.byte	3
000023fa 04            10017 	.byte	4
000023fb 2e            10018 	.byte	46
000023fc 01            10019 	.byte	1
000023fd 10            10020 	.byte	16
000023fe 5242415f4253  10021 	.strz	"RBA_BSWSRV_START_SEC_CODE "
00002404 575352565f53 
0000240a 544152545f53 
00002410 45435f434f44 
00002416 452000 
00002419 03            10022 	.byte	3
0000241a 11            10023 	.byte	17
0000241b 2f            10024 	.byte	47
0000241c 01            10025 	.byte	1
0000241d 37            10026 	.byte	55
0000241e 4253575f5354  10027 	.strz	"BSW_START_SEC_DEFAULT_CODE "
00002424 4152545f5345 
0000242a 435f44454641 
00002430 554c545f434f 
00002436 44452000 
0000243a 03            10028 	.byte	3
0000243b 38            10029 	.byte	56
0000243c 1e            10030 	.byte	30
0000243d 01            10031 	.byte	1
0000243e d308          10032 	.byte	211,8
00002440 53544152545f  10033 	.strz	"START_SEC_CODE "
00002446 5345435f434f 
0000244c 44452000 
00002450 03            10034 	.byte	3
00002451 bb09          10035 	.byte	187,9
00002453 1f            10036 	.byte	31
00002454 01            10037 	.byte	1
00002455 f307          10038 	.byte	243,7
00002457 434f44455f53  10039 	.strz	"CODE_SEC_OPEN "
0000245d 45435f4f5045 
00002463 4e2000 
00002466 04            10040 	.byte	4
00002467 04            10041 	.byte	4
00002468 04            10042 	.byte	4
00002469 01            10043 	.byte	1
0000246a 15            10044 	.byte	21
0000246b 5242415f4253  10045 	.strz	"RBA_BSWSRV_STOP_SEC_CODE "
00002471 575352565f53 
00002477 544f505f5345 

                                                                      Page 214
                                                              C:\Users\nhuliyap\AppData\Local\Temp\gh_00002581.s
0000247d 435f434f4445 
00002483 2000 
00002485 03            10046 	.byte	3
00002486 16            10047 	.byte	22
00002487 2f            10048 	.byte	47
00002488 01            10049 	.byte	1
00002489 3b            10050 	.byte	59
0000248a 4253575f5354  10051 	.strz	"BSW_STOP_SEC_DEFAULT_CODE "
00002490 4f505f534543 
00002496 5f4445464155 
0000249c 4c545f434f44 
000024a2 452000 
000024a5 03            10052 	.byte	3
000024a6 3c            10053 	.byte	60
000024a7 1e            10054 	.byte	30
000024a8 01            10055 	.byte	1
000024a9 d608          10056 	.byte	214,8
000024ab 53544f505f53  10057 	.strz	"STOP_SEC_CODE "
000024b1 45435f434f44 
000024b7 452000 
000024ba 03            10058 	.byte	3
000024bb bb09          10059 	.byte	187,9
000024bd 1f            10060 	.byte	31
000024be 04            10061 	.byte	4
000024bf 04            10062 	.byte	4
000024c0 04            10063 	.byte	4
000024c1 04            10064 	.byte	4
000024c2 01            10065 	.byte	1
000024c3 06            10066 	.byte	6
000024c4 5242415f4449  10067 	.strz	"RBA_DIAGLIB_MEMCPY(xDest_p,xSrc_pc,numBytes_u32) rba_DiagLib_MemUtils_MemCpy((uint8*)(xDest_p),(const uint8*)(xSrc_pc),(uint32)(numBytes_u32))"
000024ca 41474c49425f 
000024d0 4d454d435059 
000024d6 287844657374 
000024dc 5f702c785372 
000024e2 635f70632c6e 
000024e8 756d42797465 
000024ee 735f75333229 
000024f4 207262615f44 
000024fa 6961674c6962 
00002500 5f4d656d5574 
00002506 696c735f4d65 
0000250c 6d4370792828 
00002512 75696e74382a 
00002518 292878446573 
0000251e 745f70292c28 
00002524 636f6e737420 
0000252a 75696e74382a 
00002530 292878537263 
00002536 5f7063292c28 
0000253c 75696e743332 
00002542 29286e756d42 
00002548 797465735f75 
0000254e 3332292900 
00002553 01            10068 	.byte	1
00002554 07            10069 	.byte	7
00002555 5242415f4449  10070 	.strz	"RBA_DIAGLIB_MEMSET(xDest_p,xPattern_u32,numBytes_u32) rba_DiagLib_MemUtils_MemSet((uint8*)(xDest_p),(sint32)(xPattern_u32),(uint32)(numBytes_u32))"
0000255b 41474c49425f 
00002561 4d454d534554 
00002567 287844657374 
0000256d 5f702c785061 
00002573 747465726e5f 

                                                                      Page 215
                                                              C:\Users\nhuliyap\AppData\Local\Temp\gh_00002581.s
00002579 7533322c6e75 
0000257f 6d4279746573 
00002585 5f7533322920 
0000258b 7262615f4469 
00002591 61674c69625f 
00002597 4d656d557469 
0000259d 6c735f4d656d 
000025a3 536574282875 
000025a9 696e74382a29 
000025af 287844657374 
000025b5 5f70292c2873 
000025bb 696e74333229 
000025c1 287850617474 
000025c7 65726e5f7533 
000025cd 32292c287569 
000025d3 6e7433322928 
000025d9 6e756d427974 
000025df 65735f753332 
000025e5 292900 
000025e8 04            10071 	.byte	4
000025e9 01            10072 	.byte	1
000025ea 09            10073 	.byte	9
000025eb 44454d5f5354  10074 	.strz	"DEM_STATIC_ASSERT(COND,MSG) typedef uint8 Dem_static_assertion_ ## MSG[(2*(((COND)!=(FALSE))?1:0))-1]"
000025f1 415449435f41 
000025f7 535345525428 
000025fd 434f4e442c4d 
00002603 534729207479 
00002609 706564656620 
0000260f 75696e743820 
00002615 44656d5f7374 
0000261b 617469635f61 
00002621 737365727469 
00002627 6f6e5f202323 
0000262d 204d53475b28 
00002633 322a28282843 
00002639 4f4e4429213d 
0000263f 2846414c5345 
00002645 29293f313a30 
0000264b 29292d315d00 
00002651 01            10075 	.byte	1
00002652 0b            10076 	.byte	11
00002653 44454d5f4d45  10077 	.strz	"DEM_MEMCPY RBA_DIAGLIB_MEMCPY"
00002659 4d4350592052 
0000265f 42415f444941 
00002665 474c49425f4d 
0000266b 454d43505900 
00002671 01            10078 	.byte	1
00002672 0c            10079 	.byte	12
00002673 44454d5f4d45  10080 	.strz	"DEM_MEMSET RBA_DIAGLIB_MEMSET"
00002679 4d5345542052 
0000267f 42415f444941 
00002685 474c49425f4d 
0000268b 454d53455400 
00002691 01            10081 	.byte	1
00002692 0e            10082 	.byte	14
00002693 44454d5f4153  10083 	.strz	"DEM_ASSERT_RANGECHECK(CONDITION) do {}while(0)"
00002699 534552545f52 
0000269f 414e47454348 
000026a5 45434b28434f 
000026ab 4e444954494f 
000026b1 4e2920646f20 

                                                                      Page 216
                                                              C:\Users\nhuliyap\AppData\Local\Temp\gh_00002581.s
000026b7 7b7d7768696c 
000026bd 6528302900 
000026c2 04            10084 	.byte	4
000026c3 03            10085 	.byte	3
000026c4 07            10086 	.byte	7
000026c5 30            10087 	.byte	48
000026c6 01            10088 	.byte	1
000026c7 04            10089 	.byte	4
000026c8 44454d5f4346  10090 	.strz	"DEM_CFG_ENV_DATAELEMENTS_EXTERN_AVAILABILITY STD_ON"
000026ce 475f454e565f 
000026d4 44415441454c 
000026da 454d454e5453 
000026e0 5f4558544552 
000026e6 4e5f41564149 
000026ec 4c4142494c49 
000026f2 545920535444 
000026f8 5f4f4e00 
000026fc 01            10091 	.byte	1
000026fd 05            10092 	.byte	5
000026fe 44454d5f4346  10093 	.strz	"DEM_CFG_ENV_DATAELEMENTS_INTERN_AVAILABILITY STD_ON"
00002704 475f454e565f 
0000270a 44415441454c 
00002710 454d454e5453 
00002716 5f494e544552 
0000271c 4e5f41564149 
00002722 4c4142494c49 
00002728 545920535444 
0000272e 5f4f4e00 
00002732 01            10094 	.byte	1
00002733 06            10095 	.byte	6
00002734 44454d5f4346  10096 	.strz	"DEM_CFG_READDEM_AGINGCTR_UPCNT_SUPPORTED TRUE"
0000273a 475f52454144 
00002740 44454d5f4147 
00002746 494e47435452 
0000274c 5f5550434e54 
00002752 5f535550504f 
00002758 525445442054 
0000275e 52554500 
00002762 01            10097 	.byte	1
00002763 07            10098 	.byte	7
00002764 44454d5f4346  10099 	.strz	"DEM_CFG_READDEM_AGINGCTR_DOWNCNT_SUPPORTED FALSE"
0000276a 475f52454144 
00002770 44454d5f4147 
00002776 494e47435452 
0000277c 5f444f574e43 
00002782 4e545f535550 
00002788 504f52544544 
0000278e 2046414c5345 
00002794 00 
00002795 01            10100 	.byte	1
00002796 08            10101 	.byte	8
00002797 44454d5f4346  10102 	.strz	"DEM_CFG_READDEM_OCCCTR_SUPPORTED FALSE"
0000279d 475f52454144 
000027a3 44454d5f4f43 
000027a9 434354525f53 
000027af 5550504f5254 
000027b5 45442046414c 
000027bb 534500 
000027be 01            10103 	.byte	1
000027bf 09            10104 	.byte	9
000027c0 44454d5f4346  10105 	.strz	"DEM_CFG_READDEM_OVFLIND_SUPPORTED FALSE"

                                                                      Page 217
                                                              C:\Users\nhuliyap\AppData\Local\Temp\gh_00002581.s
000027c6 475f52454144 
000027cc 44454d5f4f56 
000027d2 464c494e445f 
000027d8 535550504f52 
000027de 544544204641 
000027e4 4c534500 
000027e8 01            10106 	.byte	1
000027e9 0a            10107 	.byte	10
000027ea 44454d5f4346  10108 	.strz	"DEM_CFG_READDEM_SIGNIFICANCE_SUPPORTED FALSE"
000027f0 475f52454144 
000027f6 44454d5f5349 
000027fc 474e49464943 
00002802 414e43455f53 
00002808 5550504f5254 
0000280e 45442046414c 
00002814 534500 
00002817 01            10109 	.byte	1
00002818 0b            10110 	.byte	11
00002819 44454d5f4346  10111 	.strz	"DEM_CFG_READDEM_DEBUG0_SUPPORTED FALSE"
0000281f 475f52454144 
00002825 44454d5f4445 
0000282b 425547305f53 
00002831 5550504f5254 
00002837 45442046414c 
0000283d 534500 
00002840 01            10112 	.byte	1
00002841 0c            10113 	.byte	12
00002842 44454d5f4346  10114 	.strz	"DEM_CFG_READDEM_DEBUG1_SUPPORTED FALSE"
00002848 475f52454144 
0000284e 44454d5f4445 
00002854 425547315f53 
0000285a 5550504f5254 
00002860 45442046414c 
00002866 534500 
00002869 01            10115 	.byte	1
0000286a 0d            10116 	.byte	13
0000286b 44454d5f4346  10117 	.strz	"DEM_CFG_READDEM_EVENT_ID_SUPPORTED FALSE"
00002871 475f52454144 
00002877 44454d5f4556 
0000287d 454e545f4944 
00002883 5f535550504f 
00002889 525445442046 
0000288f 414c534500 
00002894 01            10118 	.byte	1
00002895 0e            10119 	.byte	14
00002896 44454d5f4346  10120 	.strz	"DEM_CFG_READDEM_CURRENT_FDC_SUPPORTED FALSE"
0000289c 475f52454144 
000028a2 44454d5f4355 
000028a8 5252454e545f 
000028ae 4644435f5355 
000028b4 50504f525445 
000028ba 442046414c53 
000028c0 4500 
000028c2 01            10121 	.byte	1
000028c3 0f            10122 	.byte	15
000028c4 44454d5f4346  10123 	.strz	"DEM_CFG_READDEM_MAX_FDC_DURING_CURRENT_CYCLE_SUPPORTED FALSE"
000028ca 475f52454144 
000028d0 44454d5f4d41 
000028d6 585f4644435f 
000028dc 445552494e47 
000028e2 5f4355525245 

                                                                      Page 218
                                                              C:\Users\nhuliyap\AppData\Local\Temp\gh_00002581.s
000028e8 4e545f435943 
000028ee 4c455f535550 
000028f4 504f52544544 
000028fa 2046414c5345 
00002900 00 
00002901 01            10124 	.byte	1
00002902 10            10125 	.byte	16
00002903 44454d5f4346  10126 	.strz	"DEM_CFG_READDEM_MAX_FDC_SINCE_LAST_CLEAR_SUPPORTED FALSE"
00002909 475f52454144 
0000290f 44454d5f4d41 
00002915 585f4644435f 
0000291b 53494e43455f 
00002921 4c4153545f43 
00002927 4c4541525f53 
0000292d 5550504f5254 
00002933 45442046414c 
00002939 534500 
0000293c 01            10127 	.byte	1
0000293d 11            10128 	.byte	17
0000293e 44454d5f4346  10129 	.strz	"DEM_CFG_READDEM_CYCLES_SINCE_FIRST_FAILED_SUPPORTED FALSE"
00002944 475f52454144 
0000294a 44454d5f4359 
00002950 434c45535f53 
00002956 494e43455f46 
0000295c 495253545f46 
00002962 41494c45445f 
00002968 535550504f52 
0000296e 544544204641 
00002974 4c534500 
00002978 01            10130 	.byte	1
00002979 12            10131 	.byte	18
0000297a 44454d5f4346  10132 	.strz	"DEM_CFG_READDEM_CYCLES_SINCE_LAST_FAILED_SUPPORTED FALSE"
00002980 475f52454144 
00002986 44454d5f4359 
0000298c 434c45535f53 
00002992 494e43455f4c 
00002998 4153545f4641 
0000299e 494c45445f53 
000029a4 5550504f5254 
000029aa 45442046414c 
000029b0 534500 
000029b3 01            10133 	.byte	1
000029b4 13            10134 	.byte	19
000029b5 44454d5f4346  10135 	.strz	"DEM_CFG_READDEM_CYCLES_SINCE_LAST_FAILED_EXCLUDING_TNC_SUPPORTED FALSE"
000029bb 475f52454144 
000029c1 44454d5f4359 
000029c7 434c45535f53 
000029cd 494e43455f4c 
000029d3 4153545f4641 
000029d9 494c45445f45 
000029df 58434c554449 
000029e5 4e475f544e43 
000029eb 5f535550504f 
000029f1 525445442046 
000029f7 414c534500 
000029fc 01            10136 	.byte	1
000029fd 14            10137 	.byte	20
000029fe 44454d5f4346  10138 	.strz	"DEM_CFG_READDEM_FAILED_CYCLES_SUPPORTED FALSE"
00002a04 475f52454144 
00002a0a 44454d5f4641 
00002a10 494c45445f43 

                                                                      Page 219
                                                              C:\Users\nhuliyap\AppData\Local\Temp\gh_00002581.s
00002a16 59434c45535f 
00002a1c 535550504f52 
00002a22 544544204641 
00002a28 4c534500 
00002a2c 01            10139 	.byte	1
00002a2d 35            10140 	.byte	53
00002a2e 44454d5f4346  10141 	.strz	"DEM_CFG_ENV_DATAELEMENTS_ARRAYLENGTH (12+1)"
00002a34 475f454e565f 
00002a3a 44415441454c 
00002a40 454d454e5453 
00002a46 5f4152524159 
00002a4c 4c454e475448 
00002a52 202831322b31 
00002a58 2900 
00002a5a 04            10142 	.byte	4
00002a5b 03            10143 	.byte	3
00002a5c 08            10144 	.byte	8
00002a5d 31            10145 	.byte	49
00002a5e 03            10146 	.byte	3
00002a5f 07            10147 	.byte	7
00002a60 32            10148 	.byte	50
00002a61 03            10149 	.byte	3
00002a62 07            10150 	.byte	7
00002a63 33            10151 	.byte	51
00002a64 03            10152 	.byte	3
00002a65 08            10153 	.byte	8
00002a66 34            10154 	.byte	52
00002a67 01            10155 	.byte	1
00002a68 18            10156 	.byte	24
00002a69 44454d5f4346  10157 	.strz	"DEM_CFG_ALLOW_HISTORY_ON STD_ON"
00002a6f 475f414c4c4f 
00002a75 575f48495354 
00002a7b 4f52595f4f4e 
00002a81 205354445f4f 
00002a87 4e00 
00002a89 01            10158 	.byte	1
00002a8a 19            10159 	.byte	25
00002a8b 44454d5f4346  10160 	.strz	"DEM_CFG_ALLOW_HISTORY_OFF STD_OFF"
00002a91 475f414c4c4f 
00002a97 575f48495354 
00002a9d 4f52595f4f46 
00002aa3 46205354445f 
00002aa9 4f464600 
00002aad 01            10161 	.byte	1
00002aae 1a            10162 	.byte	26
00002aaf 44454d5f4346  10163 	.strz	"DEM_CFG_ALLOW_HISTORY DEM_CFG_ALLOW_HISTORY_OFF"
00002ab5 475f414c4c4f 
00002abb 575f48495354 
00002ac1 4f5259204445 
00002ac7 4d5f4346475f 
00002acd 414c4c4f575f 
00002ad3 484953544f52 
00002ad9 595f4f464600 
00002adf 01            10164 	.byte	1
00002ae0 1c            10165 	.byte	28
00002ae1 44454d5f4346  10166 	.strz	"DEM_CFG_LOCK_ALLFAILUREINFO_ON STD_ON"
00002ae7 475f4c4f434b 
00002aed 5f414c4c4641 
00002af3 494c55524549 
00002af9 4e464f5f4f4e 
00002aff 205354445f4f 

                                                                      Page 220
                                                              C:\Users\nhuliyap\AppData\Local\Temp\gh_00002581.s
00002b05 4e00 
00002b07 01            10167 	.byte	1
00002b08 1d            10168 	.byte	29
00002b09 44454d5f4346  10169 	.strz	"DEM_CFG_LOCK_ALLFAILUREINFO_OFF STD_OFF"
00002b0f 475f4c4f434b 
00002b15 5f414c4c4641 
00002b1b 494c55524549 
00002b21 4e464f5f4f46 
00002b27 46205354445f 
00002b2d 4f464600 
00002b31 01            10170 	.byte	1
00002b32 1e            10171 	.byte	30
00002b33 44454d5f4346  10172 	.strz	"DEM_CFG_LOCK_ALLFAILUREINFO DEM_CFG_LOCK_ALLFAILUREINFO_OFF"
00002b39 475f4c4f434b 
00002b3f 5f414c4c4641 
00002b45 494c55524549 
00002b4b 4e464f204445 
00002b51 4d5f4346475f 
00002b57 4c4f434b5f41 
00002b5d 4c4c4641494c 
00002b63 555245494e46 
00002b69 4f5f4f464600 
00002b6f 01            10173 	.byte	1
00002b70 20            10174 	.byte	32
00002b71 44454d5f4346  10175 	.strz	"DEM_CFG_SUPPORTEVENTMEMORYENTRY_ONFDCTHRESHOLD_ON STD_ON"
00002b77 475f53555050 
00002b7d 4f5254455645 
00002b83 4e544d454d4f 
00002b89 5259454e5452 
00002b8f 595f4f4e4644 
00002b95 435448524553 
00002b9b 484f4c445f4f 
00002ba1 4e205354445f 
00002ba7 4f4e00 
00002baa 01            10176 	.byte	1
00002bab 21            10177 	.byte	33
00002bac 44454d5f4346  10178 	.strz	"DEM_CFG_SUPPORTEVENTMEMORYENTRY_ONFDCTHRESHOLD_OFF STD_OFF"
00002bb2 475f53555050 
00002bb8 4f5254455645 
00002bbe 4e544d454d4f 
00002bc4 5259454e5452 
00002bca 595f4f4e4644 
00002bd0 435448524553 
00002bd6 484f4c445f4f 
00002bdc 464620535444 
00002be2 5f4f464600 
00002be7 01            10179 	.byte	1
00002be8 22            10180 	.byte	34
00002be9 44454d5f4346  10181 	.strz	"DEM_CFG_SUPPORTEVENTMEMORYENTRY_ONFDCTHRESHOLD DEM_CFG_SUPPORTEVENTMEMORYENTRY_ONFDCTHRESHOLD_OFF"
00002bef 475f53555050 
00002bf5 4f5254455645 
00002bfb 4e544d454d4f 
00002c01 5259454e5452 
00002c07 595f4f4e4644 
00002c0d 435448524553 
00002c13 484f4c442044 
00002c19 454d5f434647 
00002c1f 5f535550504f 
00002c25 52544556454e 
00002c2b 544d454d4f52 
00002c31 59454e545259 

                                                                      Page 221
                                                              C:\Users\nhuliyap\AppData\Local\Temp\gh_00002581.s
00002c37 5f4f4e464443 
00002c3d 544852455348 
00002c43 4f4c445f4f46 
00002c49 4600 
00002c4b 01            10182 	.byte	1
00002c4c 24            10183 	.byte	36
00002c4d 44454d5f4346  10184 	.strz	"DEM_CFG_SUPPORT_EVENT_FDCTHRESHOLDREACHED FALSE"
00002c53 475f53555050 
00002c59 4f52545f4556 
00002c5f 454e545f4644 
00002c65 435448524553 
00002c6b 484f4c445245 
00002c71 414348454420 
00002c77 46414c534500 
00002c7d 01            10185 	.byte	1
00002c7e 26            10186 	.byte	38
00002c7f 44454d5f4346  10187 	.strz	"DEM_CFG_SETEVENTSTATUSCALLNOTIFICATION_OFF STD_OFF"
00002c85 475f53455445 
00002c8b 56454e545354 
00002c91 415455534341 
00002c97 4c4c4e4f5449 
00002c9d 464943415449 
00002ca3 4f4e5f4f4646 
00002ca9 205354445f4f 
00002caf 464600 
00002cb2 01            10188 	.byte	1
00002cb3 27            10189 	.byte	39
00002cb4 44454d5f4346  10190 	.strz	"DEM_CFG_SETEVENTSTATUSCALLNOTIFICATION_ON STD_ON"
00002cba 475f53455445 
00002cc0 56454e545354 
00002cc6 415455534341 
00002ccc 4c4c4e4f5449 
00002cd2 464943415449 
00002cd8 4f4e5f4f4e20 
00002cde 5354445f4f4e 
00002ce4 00 
00002ce5 01            10191 	.byte	1
00002ce6 2c            10192 	.byte	44
00002ce7 44454d5f4346  10193 	.strz	"DEM_CFG_SETEVENTSTATUSCALLNOTIFICATION DEM_CFG_SETEVENTSTATUSCALLNOTIFICATION_OFF"
00002ced 475f53455445 
00002cf3 56454e545354 
00002cf9 415455534341 
00002cff 4c4c4e4f5449 
00002d05 464943415449 
00002d0b 4f4e2044454d 
00002d11 5f4346475f53 
00002d17 45544556454e 
00002d1d 545354415455 
00002d23 5343414c4c4e 
00002d29 4f5449464943 
00002d2f 4154494f4e5f 
00002d35 4f464600 
00002d39 01            10194 	.byte	1
00002d3a 35            10195 	.byte	53
00002d3b 44454d5f4346  10196 	.strz	"DEM_CFG_DTCSETTINGBLOCKSREPORTING TRUE"
00002d41 475f44544353 
00002d47 455454494e47 
00002d4d 424c4f434b53 
00002d53 5245504f5254 
00002d59 494e47205452 
00002d5f 554500 

                                                                      Page 222
                                                              C:\Users\nhuliyap\AppData\Local\Temp\gh_00002581.s
00002d62 01            10197 	.byte	1
00002d63 37            10198 	.byte	55
00002d64 44454d5f4346  10199 	.strz	"DEM_CFG_SUPPORT_AGINGCNTR_ONLY_WHEN_AGING_ALLOWED FALSE"
00002d6a 475f53555050 
00002d70 4f52545f4147 
00002d76 494e47434e54 
00002d7c 525f4f4e4c59 
00002d82 5f5748454e5f 
00002d88 4147494e475f 
00002d8e 414c4c4f5745 
00002d94 442046414c53 
00002d9a 4500 
00002d9c 01            10200 	.byte	1
00002d9d 3d            10201 	.byte	61
00002d9e 44454d5f4346  10202 	.strz	"DEM_CFG_EVT_CLEARALLOWEDCALLBACK_OFF STD_OFF"
00002da4 475f4556545f 
00002daa 434c45415241 
00002db0 4c4c4f574544 
00002db6 43414c4c4241 
00002dbc 434b5f4f4646 
00002dc2 205354445f4f 
00002dc8 464600 
00002dcb 01            10203 	.byte	1
00002dcc 3f            10204 	.byte	63
00002dcd 44454d5f4346  10205 	.strz	"DEM_CFG_EVT_CLEARALLOWEDCALLBACK DEM_CFG_EVT_CLEARALLOWEDCALLBACK_OFF"
00002dd3 475f4556545f 
00002dd9 434c45415241 
00002ddf 4c4c4f574544 
00002de5 43414c4c4241 
00002deb 434b2044454d 
00002df1 5f4346475f45 
00002df7 56545f434c45 
00002dfd 4152414c4c4f 
00002e03 57454443414c 
00002e09 4c4241434b5f 
00002e0f 4f464600 
00002e13 01            10206 	.byte	1
00002e14 4e            10207 	.byte	78
00002e15 44454d5f4346  10208 	.strz	"DEM_CFG_EVT_STATUS_CHANGE_NUM_CALLBACKS 0u"
00002e1b 475f4556545f 
00002e21 535441545553 
00002e27 5f4348414e47 
00002e2d 455f4e554d5f 
00002e33 43414c4c4241 
00002e39 434b53203075 
00002e3f 00 
00002e40 01            10209 	.byte	1
00002e41 50            10210 	.byte	80
00002e42 44454d5f4346  10211 	.strz	"DEM_CFG_TFSLC_RESET_AFTER_AGING_AND_DISPLACEMENT FALSE"
00002e48 475f5446534c 
00002e4e 435f52455345 
00002e54 545f41465445 
00002e5a 525f4147494e 
00002e60 475f414e445f 
00002e66 444953504c41 
00002e6c 43454d454e54 
00002e72 2046414c5345 
00002e78 00 
00002e79 01            10212 	.byte	1
00002e7a 52            10213 	.byte	82
00002e7b 44454d5f4346  10214 	.strz	"DEM_CFG_EVT_ATTRIBUTE_OFF STD_OFF"

                                                                      Page 223
                                                              C:\Users\nhuliyap\AppData\Local\Temp\gh_00002581.s
00002e81 475f4556545f 
00002e87 415454524942 
00002e8d 5554455f4f46 
00002e93 46205354445f 
00002e99 4f464600 
00002e9d 01            10215 	.byte	1
00002e9e 53            10216 	.byte	83
00002e9f 44454d5f4346  10217 	.strz	"DEM_CFG_EVT_ATTRIBUTE_ON STD_ON"
00002ea5 475f4556545f 
00002eab 415454524942 
00002eb1 5554455f4f4e 
00002eb7 205354445f4f 
00002ebd 4e00 
00002ebf 01            10218 	.byte	1
00002ec0 54            10219 	.byte	84
00002ec1 44454d5f4346  10220 	.strz	"DEM_CFG_EVT_ATTRIBUTE DEM_CFG_EVT_ATTRIBUTE_OFF"
00002ec7 475f4556545f 
00002ecd 415454524942 
00002ed3 555445204445 
00002ed9 4d5f4346475f 
00002edf 4556545f4154 
00002ee5 545249425554 
00002eeb 455f4f464600 
00002ef1 01            10221 	.byte	1
00002ef2 56            10222 	.byte	86
00002ef3 44454d5f4556  10223 	.strz	"DEM_EVT_BP_STATE_CAUSALFAULT 0u"
00002ef9 545f42505f53 
00002eff 544154455f43 
00002f05 415553414c46 
00002f0b 41554c542030 
00002f11 7500 
00002f13 01            10224 	.byte	1
00002f14 58            10225 	.byte	88
00002f15 44454d5f4556  10226 	.strz	"DEM_EVT_BP_STATE_SUSPICIONLEVEL 1u"
00002f1b 545f42505f53 
00002f21 544154455f53 
00002f27 555350494349 
00002f2d 4f4e4c455645 
00002f33 4c20317500 
00002f38 01            10227 	.byte	1
00002f39 59            10228 	.byte	89
00002f3a 44454d5f4556  10229 	.strz	"DEM_EVT_BP_STATE_NOTAVAILABLE 2u"
00002f40 545f42505f53 
00002f46 544154455f4e 
00002f4c 4f5441564149 
00002f52 4c41424c4520 
00002f58 327500 
00002f5b 01            10230 	.byte	1
00002f5c 5a            10231 	.byte	90
00002f5d 44454d5f4556  10232 	.strz	"DEM_EVT_BP_STATE_INITMONITORING 3u"
00002f63 545f42505f53 
00002f69 544154455f49 
00002f6f 4e49544d4f4e 
00002f75 49544f52494e 
00002f7b 4720337500 
00002f80 01            10233 	.byte	1
00002f81 5c            10234 	.byte	92
00002f82 44454d5f4556  10235 	.strz	"DEM_EVT_BP_STATE_INITMONITORING_SIZE 3u"
00002f88 545f42505f53 
00002f8e 544154455f49 
00002f94 4e49544d4f4e 

                                                                      Page 224
                                                              C:\Users\nhuliyap\AppData\Local\Temp\gh_00002581.s
00002f9a 49544f52494e 
00002fa0 475f53495a45 
00002fa6 20337500 
00002faa 01            10236 	.byte	1
00002fab 5d            10237 	.byte	93
00002fac 44454d5f4556  10238 	.strz	"DEM_EVT_BP_STATE_WIRSTATUS_EXTERNAL 6u"
00002fb2 545f42505f53 
00002fb8 544154455f57 
00002fbe 495253544154 
00002fc4 55535f455854 
00002fca 45524e414c20 
00002fd0 367500 
00002fd3 01            10239 	.byte	1
00002fd4 5f            10240 	.byte	95
00002fd5 44454d5f4556  10241 	.strz	"DEM_EVT_BP_STATE_NXT_REPORT_IS_RELEVANT 7u"
00002fdb 545f42505f53 
00002fe1 544154455f4e 
00002fe7 58545f524550 
00002fed 4f52545f4953 
00002ff3 5f52454c4556 
00002ff9 414e54203775 
00002fff 00 
00003000 01            10242 	.byte	1
00003001 62            10243 	.byte	98
00003002 44454d5f4556  10244 	.strz	"DEM_EVTSTATE_ISBITSET rba_DiagLib_Bit8IsBitSet"
00003008 545354415445 
0000300e 5f4953424954 
00003014 534554207262 
0000301a 615f44696167 
00003020 4c69625f4269 
00003026 743849734269 
0000302c 7453657400 
00003031 01            10245 	.byte	1
00003032 63            10246 	.byte	99
00003033 44454d5f4556  10247 	.strz	"DEM_EVTSTATE_OVERWRITEBIT rba_DiagLib_Bit8OverwriteBit"
00003039 545354415445 
0000303f 5f4f56455257 
00003045 524954454249 
0000304b 54207262615f 
00003051 446961674c69 
00003057 625f42697438 
0000305d 4f7665727772 
00003063 697465426974 
00003069 00 
0000306a 01            10248 	.byte	1
0000306b 64            10249 	.byte	100
0000306c 44454d5f4556  10250 	.strz	"DEM_EVTSTATE_OVERWRITEBITS rba_DiagLib_Bit8OverwriteBits"
00003072 545354415445 
00003078 5f4f56455257 
0000307e 524954454249 
00003084 545320726261 
0000308a 5f446961674c 
00003090 69625f426974 
00003096 384f76657277 
0000309c 726974654269 
000030a2 747300 
000030a5 01            10251 	.byte	1
000030a6 67            10252 	.byte	103
000030a7 44454d5f4556  10253 	.strz	"DEM_EVTSTATE_GETBITS rba_DiagLib_Bit8GetBits"
000030ad 545354415445 
000030b3 5f4745544249 

                                                                      Page 225
                                                              C:\Users\nhuliyap\AppData\Local\Temp\gh_00002581.s
000030b9 545320726261 
000030bf 5f446961674c 
000030c5 69625f426974 
000030cb 384765744269 
000030d1 747300 
000030d4 01            10254 	.byte	1
000030d5 68            10255 	.byte	104
000030d6 44454d5f4556  10256 	.strz	"DEM_EVTSTATE_CLEARBITS rba_DiagLib_Bit8ClearBits"
000030dc 545354415445 
000030e2 5f434c454152 
000030e8 424954532072 
000030ee 62615f446961 
000030f4 674c69625f42 
000030fa 697438436c65 
00003100 617242697473 
00003106 00 
00003107 01            10257 	.byte	1
00003108 6c            10258 	.byte	108
00003109 44454d5f4346  10259 	.strz	"DEM_CFG_CALLBACK_INIT_MON_FOR_EVENT_SUPPORTED TRUE"
0000310f 475f43414c4c 
00003115 4241434b5f49 
0000311b 4e49545f4d4f 
00003121 4e5f464f525f 
00003127 4556454e545f 
0000312d 535550504f52 
00003133 544544205452 
00003139 554500 
0000313c 01            10260 	.byte	1
0000313d 6e            10261 	.byte	110
0000313e 44454d5f4346  10262 	.strz	"DEM_CFG_CALLBACK_INITMFORE_LISTLENGTH 40u"
00003144 475f43414c4c 
0000314a 4241434b5f49 
00003150 4e49544d464f 
00003156 52455f4c4953 
0000315c 544c454e4754 
00003162 482034307500 
00003168 04            10263 	.byte	4
00003169 01            10264 	.byte	1
0000316a 0a            10265 	.byte	10
0000316b 44454d5f4346  10266 	.strz	"DEM_CFG_EVMEM_DISPLACEMENT_SUPPORTED TRUE"
00003171 475f45564d45 
00003177 4d5f44495350 
0000317d 4c4143454d45 
00003183 4e545f535550 
00003189 504f52544544 
0000318f 205452554500 
00003195 01            10267 	.byte	1
00003196 0c            10268 	.byte	12
00003197 44454d5f4346  10269 	.strz	"DEM_CFG_EVMEM_DISPLACEMENT_STRATEGY_AUTOSAR 1u"
0000319d 475f45564d45 
000031a3 4d5f44495350 
000031a9 4c4143454d45 
000031af 4e545f535452 
000031b5 41544547595f 
000031bb 4155544f5341 
000031c1 5220317500 
000031c6 01            10270 	.byte	1
000031c7 0e            10271 	.byte	14
000031c8 44454d5f4346  10272 	.strz	"DEM_CFG_EVMEM_DISPLACEMENT_STRATEGY_CUST 3u"
000031ce 475f45564d45 
000031d4 4d5f44495350 

                                                                      Page 226
                                                              C:\Users\nhuliyap\AppData\Local\Temp\gh_00002581.s
000031da 4c4143454d45 
000031e0 4e545f535452 
000031e6 41544547595f 
000031ec 435553542033 
000031f2 7500 
000031f4 01            10273 	.byte	1
000031f5 11            10274 	.byte	17
000031f6 44454d5f4346  10275 	.strz	"DEM_CFG_EVMEM_MEMORY_DISPLACEMENT_STRATEGY DEM_CFG_EVMEM_DISPLACEMENT_STRATEGY_AUTOSAR"
000031fc 475f45564d45 
00003202 4d5f4d454d4f 
00003208 52595f444953 
0000320e 504c4143454d 
00003214 454e545f5354 
0000321a 524154454759 
00003220 2044454d5f43 
00003226 46475f45564d 
0000322c 454d5f444953 
00003232 504c4143454d 
00003238 454e545f5354 
0000323e 524154454759 
00003244 5f4155544f53 
0000324a 415200 
0000324d 01            10276 	.byte	1
0000324e 13            10277 	.byte	19
0000324f 44454d5f4346  10278 	.strz	"DEM_CFG_EVMEM_MIRROR_DISPLACEMENT_STRATEGY DEM_CFG_EVMEM_DISPLACEMENT_STRATEGY_AUTOSAR"
00003255 475f45564d45 
0000325b 4d5f4d495252 
00003261 4f525f444953 
00003267 504c4143454d 
0000326d 454e545f5354 
00003273 524154454759 
00003279 2044454d5f43 
0000327f 46475f45564d 
00003285 454d5f444953 
0000328b 504c4143454d 
00003291 454e545f5354 
00003297 524154454759 
0000329d 5f4155544f53 
000032a3 415200 
000032a6 01            10279 	.byte	1
000032a7 1b            10280 	.byte	27
000032a8 44454d5f4346  10281 	.strz	"DEM_CFG_EVMEM_OCCCOUNTER_TRIGGER_STSMASK 0u"
000032ae 475f45564d45 
000032b4 4d5f4f434343 
000032ba 4f554e544552 
000032c0 5f5452494747 
000032c6 45525f535453 
000032cc 4d41534b2030 
000032d2 7500 
000032d4 01            10282 	.byte	1
000032d5 1d            10283 	.byte	29
000032d6 44454d5f4346  10284 	.strz	"DEM_CFG_EVMEM_EXTENDED_DATA_SUPPORTED FALSE"
000032dc 475f45564d45 
000032e2 4d5f45585445 
000032e8 4e4445445f44 
000032ee 4154415f5355 
000032f4 50504f525445 
000032fa 442046414c53 
00003300 4500 
00003302 01            10285 	.byte	1
00003303 22            10286 	.byte	34

                                                                      Page 227
                                                              C:\Users\nhuliyap\AppData\Local\Temp\gh_00002581.s
00003304 44454d5f4346  10287 	.strz	"DEM_CFG_EVMEM_FREEZE_FRAME_SUPPORTED TRUE"
0000330a 475f45564d45 
00003310 4d5f46524545 
00003316 5a455f465241 
0000331c 4d455f535550 
00003322 504f52544544 
00003328 205452554500 
0000332e 01            10288 	.byte	1
0000332f 2a            10289 	.byte	42
00003330 44454d5f4346  10290 	.strz	"DEM_CFG_MAX_NUMBER_EVENT_ENTRY_PRIMARY 10u"
00003336 475f4d41585f 
0000333c 4e554d424552 
00003342 5f4556454e54 
00003348 5f454e545259 
0000334e 5f5052494d41 
00003354 525920313075 
0000335a 00 
0000335b 01            10291 	.byte	1
0000335c 2c            10292 	.byte	44
0000335d 44454d5f4346  10293 	.strz	"DEM_CFG_MAX_NUMBER_EVENT_ENTRY_SECONDARY 0u"
00003363 475f4d41585f 
00003369 4e554d424552 
0000336f 5f4556454e54 
00003375 5f454e545259 
0000337b 5f5345434f4e 
00003381 444152592030 
00003387 7500 
00003389 01            10294 	.byte	1
0000338a 2e            10295 	.byte	46
0000338b 44454d5f4454  10296 	.strz	"DEM_DTC_ORIGIN_USERDEFINED_MEMORY 0x0u"
00003391 435f4f524947 
00003397 494e5f555345 
0000339d 52444546494e 
000033a3 45445f4d454d 
000033a9 4f5259203078 
000033af 307500 
000033b2 01            10297 	.byte	1
000033b3 30            10298 	.byte	48
000033b4 44454d5f4346  10299 	.strz	"DEM_CFG_MAX_NUMBER_EVENT_ENTRY_MIRROR 0u"
000033ba 475f4d41585f 
000033c0 4e554d424552 
000033c6 5f4556454e54 
000033cc 5f454e545259 
000033d2 5f4d4952524f 
000033d8 5220307500 
000033dd 01            10300 	.byte	1
000033de 36            10301 	.byte	54
000033df 44454d5f4346  10302 	.strz	"DEM_CFG_EVMEM_MIRROR_MEMORY_DTC_STATUS_STORED FALSE"
000033e5 475f45564d45 
000033eb 4d5f4d495252 
000033f1 4f525f4d454d 
000033f7 4f52595f4454 
000033fd 435f53544154 
00003403 55535f53544f 
00003409 524544204641 
0000340f 4c534500 
00003413 01            10303 	.byte	1
00003414 38            10304 	.byte	56
00003415 44454d5f4346  10305 	.strz	"DEM_CFG_EVMEM_SHADOW_MEMORY_SUPPORTED FALSE"
0000341b 475f45564d45 
00003421 4d5f53484144 

                                                                      Page 228
                                                              C:\Users\nhuliyap\AppData\Local\Temp\gh_00002581.s
00003427 4f575f4d454d 
0000342d 4f52595f5355 
00003433 50504f525445 
00003439 442046414c53 
0000343f 4500 
00003441 01            10306 	.byte	1
00003442 3b            10307 	.byte	59
00003443 44454d5f4346  10308 	.strz	"DEM_CFG_EVMEM_SHADOW_ENTRIES_VISIBLE FALSE"
00003449 475f45564d45 
0000344f 4d5f53484144 
00003455 4f575f454e54 
0000345b 524945535f56 
00003461 495349424c45 
00003467 2046414c5345 
0000346d 00 
0000346e 01            10309 	.byte	1
0000346f 40            10310 	.byte	64
00003470 44454d5f4346  10311 	.strz	"DEM_CFG_EVMEM_SHADOW_ENTRIES_SUPPORTED FALSE"
00003476 475f45564d45 
0000347c 4d5f53484144 
00003482 4f575f454e54 
00003488 524945535f53 
0000348e 5550504f5254 
00003494 45442046414c 
0000349a 534500 
0000349d 01            10312 	.byte	1
0000349e 44            10313 	.byte	68
0000349f 44454d5f4346  10314 	.strz	"DEM_CFG_EVMEM_AGING_METHOD_COUNT_UP 1u"
000034a5 475f45564d45 
000034ab 4d5f4147494e 
000034b1 475f4d455448 
000034b7 4f445f434f55 
000034bd 4e545f555020 
000034c3 317500 
000034c6 01            10315 	.byte	1
000034c7 45            10316 	.byte	69
000034c8 44454d5f4346  10317 	.strz	"DEM_CFG_EVMEM_AGING_METHOD_COUNT_DOWN 2u"
000034ce 475f45564d45 
000034d4 4d5f4147494e 
000034da 475f4d455448 
000034e0 4f445f434f55 
000034e6 4e545f444f57 
000034ec 4e20327500 
000034f1 01            10318 	.byte	1
000034f2 46            10319 	.byte	70
000034f3 44454d5f4346  10320 	.strz	"DEM_CFG_EVMEM_AGING_METHOD_AGINGCYC_STORE 3u"
000034f9 475f45564d45 
000034ff 4d5f4147494e 
00003505 475f4d455448 
0000350b 4f445f414749 
00003511 4e474359435f 
00003517 53544f524520 
0000351d 337500 
00003520 01            10321 	.byte	1
00003521 47            10322 	.byte	71
00003522 44454d5f4346  10323 	.strz	"DEM_CFG_EVMEM_AGING_METHOD_AGINGCYC_DIFF_UP 4u"
00003528 475f45564d45 
0000352e 4d5f4147494e 
00003534 475f4d455448 
0000353a 4f445f414749 
00003540 4e474359435f 

                                                                      Page 229
                                                              C:\Users\nhuliyap\AppData\Local\Temp\gh_00002581.s
00003546 444946465f55 
0000354c 5020347500 
00003551 01            10324 	.byte	1
00003552 48            10325 	.byte	72
00003553 44454d5f4346  10326 	.strz	"DEM_CFG_EVMEM_AGING_METHOD_AGINGCYC_DIFF_DOWN 5u"
00003559 475f45564d45 
0000355f 4d5f4147494e 
00003565 475f4d455448 
0000356b 4f445f414749 
00003571 4e474359435f 
00003577 444946465f44 
0000357d 4f574e203575 
00003583 00 
00003584 01            10327 	.byte	1
00003585 49            10328 	.byte	73
00003586 44454d5f4346  10329 	.strz	"DEM_CFG_EVMEM_AGING_METHOD_USER 6u"
0000358c 475f45564d45 
00003592 4d5f4147494e 
00003598 475f4d455448 
0000359e 4f445f555345 
000035a4 5220367500 
000035a9 01            10330 	.byte	1
000035aa 4b            10331 	.byte	75
000035ab 44454d5f4346  10332 	.strz	"DEM_CFG_EVMEM_AGING_COUNTER_SUPPORTED TRUE"
000035b1 475f45564d45 
000035b7 4d5f4147494e 
000035bd 475f434f554e 
000035c3 5445525f5355 
000035c9 50504f525445 
000035cf 442054525545 
000035d5 00 
000035d6 01            10333 	.byte	1
000035d7 4c            10334 	.byte	76
000035d8 44454d5f4346  10335 	.strz	"DEM_CFG_EVMEM_AGING_METHOD DEM_CFG_EVMEM_AGING_METHOD_COUNT_UP"
000035de 475f45564d45 
000035e4 4d5f4147494e 
000035ea 475f4d455448 
000035f0 4f442044454d 
000035f6 5f4346475f45 
000035fc 564d454d5f41 
00003602 47494e475f4d 
00003608 4554484f445f 
0000360e 434f554e545f 
00003614 555000 
00003617 01            10336 	.byte	1
00003618 4e            10337 	.byte	78
00003619 44454d5f4346  10338 	.strz	"DEM_CFG_EVMEM_TESTFAILED_TAC_SUPPORTED FALSE"
0000361f 475f45564d45 
00003625 4d5f54455354 
0000362b 4641494c4544 
00003631 5f5441435f53 
00003637 5550504f5254 
0000363d 45442046414c 
00003643 534500 
00003646 01            10339 	.byte	1
00003647 50            10340 	.byte	80
00003648 44454d5f4346  10341 	.strz	"DEM_CFG_EVMEM_TESTCOMPLETE_TAC_SUPPORTED FALSE"
0000364e 475f45564d45 
00003654 4d5f54455354 
0000365a 434f4d504c45 
00003660 54455f544143 

                                                                      Page 230
                                                              C:\Users\nhuliyap\AppData\Local\Temp\gh_00002581.s
00003666 5f535550504f 
0000366c 525445442046 
00003672 414c534500 
00003677 01            10342 	.byte	1
00003678 52            10343 	.byte	82
00003679 44454d5f4346  10344 	.strz	"DEM_CFG_EVMEM_AGING_COUNTER_MAX 0xFF"
0000367f 475f45564d45 
00003685 4d5f4147494e 
0000368b 475f434f554e 
00003691 5445525f4d41 
00003697 582030784646 
0000369d 00 
0000369e 01            10345 	.byte	1
0000369f 54            10346 	.byte	84
000036a0 44454d5f4346  10347 	.strz	"DEM_CFG_EVMEM_OCCURRENCE_COUNTER_SUPPORTED TRUE"
000036a6 475f45564d45 
000036ac 4d5f4f434355 
000036b2 5252454e4345 
000036b8 5f434f554e54 
000036be 45525f535550 
000036c4 504f52544544 
000036ca 205452554500 
000036d0 01            10348 	.byte	1
000036d1 5c            10349 	.byte	92
000036d2 44454d5f4346  10350 	.strz	"DEM_CFG_EVMEM_PROJECT_EXTENSION FALSE"
000036d8 475f45564d45 
000036de 4d5f50524f4a 
000036e4 4543545f4558 
000036ea 54454e53494f 
000036f0 4e2046414c53 
000036f6 4500 
000036f8 01            10351 	.byte	1
000036f9 5e            10352 	.byte	94
000036fa 44454d5f4346  10353 	.strz	"DEM_CFG_EVMEM_READ_FROM_DIFFERENT_TASK FALSE"
00003700 475f45564d45 
00003706 4d5f52454144 
0000370c 5f46524f4d5f 
00003712 444946464552 
00003718 454e545f5441 
0000371e 534b2046414c 
00003724 534500 
00003727 01            10354 	.byte	1
00003728 63            10355 	.byte	99
00003729 44454d5f4346  10356 	.strz	"DEM_CFG_EVMEM_DEBUG_BITFIELDS FALSE"
0000372f 475f45564d45 
00003735 4d5f44454255 
0000373b 475f42495446 
00003741 49454c445320 
00003747 46414c534500 
0000374d 01            10357 	.byte	1
0000374e 66            10358 	.byte	102
0000374f 44454d5f4346  10359 	.strz	"DEM_CFG_SERVICE_READDTCINFORMATION_SUBFUNC_0x03 TRUE"
00003755 475f53455256 
0000375b 4943455f5245 
00003761 414444544349 
00003767 4e464f524d41 
0000376d 54494f4e5f53 
00003773 554246554e43 
00003779 5f3078303320 
0000377f 5452554500 
00003784 01            10360 	.byte	1

                                                                      Page 231
                                                              C:\Users\nhuliyap\AppData\Local\Temp\gh_00002581.s
00003785 68            10361 	.byte	104
00003786 44454d5f4346  10362 	.strz	"DEM_CFG_SERVICE_READDTCINFORMATION_SUBFUNC_0x04 TRUE"
0000378c 475f53455256 
00003792 4943455f5245 
00003798 414444544349 
0000379e 4e464f524d41 
000037a4 54494f4e5f53 
000037aa 554246554e43 
000037b0 5f3078303420 
000037b6 5452554500 
000037bb 01            10363 	.byte	1
000037bc 6a            10364 	.byte	106
000037bd 44454d5f4346  10365 	.strz	"DEM_CFG_SERVICE_READDTCINFORMATION_SUBFUNC_0x06 TRUE"
000037c3 475f53455256 
000037c9 4943455f5245 
000037cf 414444544349 
000037d5 4e464f524d41 
000037db 54494f4e5f53 
000037e1 554246554e43 
000037e7 5f3078303620 
000037ed 5452554500 
000037f2 01            10366 	.byte	1
000037f3 70            10367 	.byte	112
000037f4 44454d5f4346  10368 	.strz	"DEM_CFG_EVMEM_OCCURRENCE_COUNTER_MAX 0xFFu"
000037fa 475f45564d45 
00003800 4d5f4f434355 
00003806 5252454e4345 
0000380c 5f434f554e54 
00003812 45525f4d4158 
00003818 203078464675 
0000381e 00 
0000381f 01            10369 	.byte	1
00003820 8201          10370 	.byte	130,1
00003822 44454d5f4556  10371 	.strz	"DEM_EVMEM_MEMCOUNTER0 0u"
00003828 4d454d5f4d45 
0000382e 4d434f554e54 
00003834 455230203075 
0000383a 00 
0000383b 01            10372 	.byte	1
0000383c 8401          10373 	.byte	132,1
0000383e 44454d5f4346  10374 	.strz	"DEM_CFG_EVMEM_MEMID_PRIMARY (DEM_EVMEM_MEMCOUNTER0)"
00003844 475f45564d45 
0000384a 4d5f4d454d49 
00003850 445f5052494d 
00003856 415259202844 
0000385c 454d5f45564d 
00003862 454d5f4d454d 
00003868 434f554e5445 
0000386e 52302900 
00003872 01            10375 	.byte	1
00003873 8501          10376 	.byte	133,1
00003875 44454d5f4556  10377 	.strz	"DEM_EVMEM_MEMCOUNTER1 (DEM_EVMEM_MEMCOUNTER0+1u)"
0000387b 4d454d5f4d45 
00003881 4d434f554e54 
00003887 455231202844 
0000388d 454d5f45564d 
00003893 454d5f4d454d 
00003899 434f554e5445 
0000389f 52302b317529 
000038a5 00 
000038a6 01            10378 	.byte	1

                                                                      Page 232
                                                              C:\Users\nhuliyap\AppData\Local\Temp\gh_00002581.s
000038a7 8d01          10379 	.byte	141,1
000038a9 44454d5f4556  10380 	.strz	"DEM_EVMEM_MEMCOUNTER2 (DEM_EVMEM_MEMCOUNTER1)"
000038af 4d454d5f4d45 
000038b5 4d434f554e54 
000038bb 455232202844 
000038c1 454d5f45564d 
000038c7 454d5f4d454d 
000038cd 434f554e5445 
000038d3 52312900 
000038d7 01            10381 	.byte	1
000038d8 9701          10382 	.byte	151,1
000038da 44454d5f4556  10383 	.strz	"DEM_EVMEM_MEMCOUNTER3 (DEM_EVMEM_MEMCOUNTER2)"
000038e0 4d454d5f4d45 
000038e6 4d434f554e54 
000038ec 455233202844 
000038f2 454d5f45564d 
000038f8 454d5f4d454d 
000038fe 434f554e5445 
00003904 52322900 
00003908 01            10384 	.byte	1
00003909 9801          10385 	.byte	152,1
0000390b 44454d5f4346  10386 	.strz	"DEM_CFG_EVMEM_MIRROR_MEMORY_SUPPORTED FALSE"
00003911 475f45564d45 
00003917 4d5f4d495252 
0000391d 4f525f4d454d 
00003923 4f52595f5355 
00003929 50504f525445 
0000392f 442046414c53 
00003935 4500 
00003937 01            10387 	.byte	1
00003938 9c01          10388 	.byte	156,1
0000393a 44454d5f4346  10389 	.strz	"DEM_CFG_EVMEM_MAX_MEMS DEM_EVMEM_MEMCOUNTER3"
00003940 475f45564d45 
00003946 4d5f4d41585f 
0000394c 4d454d532044 
00003952 454d5f45564d 
00003958 454d5f4d454d 
0000395e 434f554e5445 
00003964 523300 
00003967 01            10390 	.byte	1
00003968 9e01          10391 	.byte	158,1
0000396a 44454d5f4346  10392 	.strz	"DEM_CFG_MAX_NUMBER_EVENT_ENTRY_ALL (DEM_CFG_MAX_NUMBER_EVENT_ENTRY_PRIMARY + DEM_CFG_MAX_NUMBER_EVENT_ENTRY_SECONDARY + DEM_CFG_MAX_NUMBER_EVENT_ENTRY_MIRROR)"
00003970 475f4d41585f 
00003976 4e554d424552 
0000397c 5f4556454e54 
00003982 5f454e545259 
00003988 5f414c4c2028 
0000398e 44454d5f4346 
00003994 475f4d41585f 
0000399a 4e554d424552 
000039a0 5f4556454e54 
000039a6 5f454e545259 
000039ac 5f5052494d41 
000039b2 5259202b2044 
000039b8 454d5f434647 
000039be 5f4d41585f4e 
000039c4 554d4245525f 
000039ca 4556454e545f 
000039d0 454e5452595f 
000039d6 5345434f4e44 
000039dc 415259202b20 

                                                                      Page 233
                                                              C:\Users\nhuliyap\AppData\Local\Temp\gh_00002581.s
000039e2 44454d5f4346 
000039e8 475f4d41585f 
000039ee 4e554d424552 
000039f4 5f4556454e54 
000039fa 5f454e545259 
00003a00 5f4d4952524f 
00003a06 522900 
00003a09 04            10393 	.byte	4
00003a0a 03            10394 	.byte	3
00003a0b 08            10395 	.byte	8
00003a0c 35            10396 	.byte	53
00003a0d 01            10397 	.byte	1
00003a0e 06            10398 	.byte	6
00003a0f 44454d5f4346  10399 	.strz	"DEM_CFG_ENVMINSIZE_OF_RAWENVDATA (32u + 0u + 0u)"
00003a15 475f454e564d 
00003a1b 494e53495a45 
00003a21 5f4f465f5241 
00003a27 57454e564441 
00003a2d 544120283332 
00003a33 75202b203075 
00003a39 202b20307529 
00003a3f 00 
00003a40 01            10400 	.byte	1
00003a41 08            10401 	.byte	8
00003a42 44454d5f4346  10402 	.strz	"DEM_CFG_ENVMINSIZE_OF_MULTIPLE_RAWENVDATA (32u + 0u + 0u)"
00003a48 475f454e564d 
00003a4e 494e53495a45 
00003a54 5f4f465f4d55 
00003a5a 4c5449504c45 
00003a60 5f524157454e 
00003a66 564441544120 
00003a6c 28333275202b 
00003a72 203075202b20 
00003a78 30752900 
00003a7c 04            10403 	.byte	4
00003a7d 03            10404 	.byte	3
00003a7e 0b            10405 	.byte	11
00003a7f 36            10406 	.byte	54
00003a80 01            10407 	.byte	1
00003a81 08            10408 	.byte	8
00003a82 44454d5f4346  10409 	.strz	"DEM_CFG_REPORT_CHRONOLOGICAL_ORDER_HOOKS_ENABLED FALSE"
00003a88 475f5245504f 
00003a8e 52545f434852 
00003a94 4f4e4f4c4f47 
00003a9a 4943414c5f4f 
00003aa0 524445525f48 
00003aa6 4f4f4b535f45 
00003aac 4e41424c4544 
00003ab2 2046414c5345 
00003ab8 00 
00003ab9 01            10410 	.byte	1
00003aba 0c            10411 	.byte	12
00003abb 44454d5f4454  10412 	.strz	"DEM_DTC_BP_STATE_SUPPRESSED 0u"
00003ac1 435f42505f53 
00003ac7 544154455f53 
00003acd 555050524553 
00003ad3 534544203075 
00003ad9 00 
00003ada 01            10413 	.byte	1
00003adb 0d            10414 	.byte	13
00003adc 44454d5f4454  10415 	.strz	"DEM_DTC_BP_GROUP_DTCSETTING_DISABLED 1u"

                                                                      Page 234
                                                              C:\Users\nhuliyap\AppData\Local\Temp\gh_00002581.s
00003ae2 435f42505f47 
00003ae8 524f55505f44 
00003aee 544353455454 
00003af4 494e475f4449 
00003afa 5341424c4544 
00003b00 20317500 
00003b04 01            10416 	.byte	1
00003b05 10            10417 	.byte	16
00003b06 44454d5f4454  10418 	.strz	"DEM_DTCSTATE_ISBITSET rba_DiagLib_Bit8IsBitSet"
00003b0c 435354415445 
00003b12 5f4953424954 
00003b18 534554207262 
00003b1e 615f44696167 
00003b24 4c69625f4269 
00003b2a 743849734269 
00003b30 7453657400 
00003b35 01            10419 	.byte	1
00003b36 11            10420 	.byte	17
00003b37 44454d5f4454  10421 	.strz	"DEM_DTCSTATE_OVERWRITEBIT rba_DiagLib_Bit8OverwriteBit"
00003b3d 435354415445 
00003b43 5f4f56455257 
00003b49 524954454249 
00003b4f 54207262615f 
00003b55 446961674c69 
00003b5b 625f42697438 
00003b61 4f7665727772 
00003b67 697465426974 
00003b6d 00 
00003b6e 04            10422 	.byte	4
00003b6f 03            10423 	.byte	3
00003b70 0d            10424 	.byte	13
00003b71 37            10425 	.byte	55
00003b72 01            10426 	.byte	1
00003b73 17            10427 	.byte	23
00003b74 44454d5f5354  10428 	.strz	"DEM_START_SEC_ROM_CONST "
00003b7a 4152545f5345 
00003b80 435f524f4d5f 
00003b86 434f4e535420 
00003b8c 00 
00003b8d 03            10429 	.byte	3
00003b8e 18            10430 	.byte	24
00003b8f 1d            10431 	.byte	29
00003b90 01            10432 	.byte	1
00003b91 06            10433 	.byte	6
00003b92 44454d5f4d45  10434 	.strz	"DEM_MEMMAP_ERROR "
00003b98 4d4d41505f45 
00003b9e 52524f522000 
00003ba4 01            10435 	.byte	1
00003ba5 3a            10436 	.byte	58
00003ba6 4253575f5354  10437 	.strz	"BSW_START_SEC_CONST_UNSPECIFIED "
00003bac 4152545f5345 
00003bb2 435f434f4e53 
00003bb8 545f554e5350 
00003bbe 454349464945 
00003bc4 442000 
00003bc7 03            10438 	.byte	3
00003bc8 3b            10439 	.byte	59
00003bc9 1e            10440 	.byte	30
00003bca 01            10441 	.byte	1
00003bcb f005          10442 	.byte	240,5
00003bcd 53544152545f  10443 	.strz	"START_SEC_CONST_UNSPECIFIED "

                                                                      Page 235
                                                              C:\Users\nhuliyap\AppData\Local\Temp\gh_00002581.s
00003bd3 5345435f434f 
00003bd9 4e53545f554e 
00003bdf 535045434946 
00003be5 4945442000 
00003bea 03            10444 	.byte	3
00003beb bb09          10445 	.byte	187,9
00003bed 1f            10446 	.byte	31
00003bee 01            10447 	.byte	1
00003bef b408          10448 	.byte	180,8
00003bf1 434f4e53545f  10449 	.strz	"CONST_SEC_OPEN "
00003bf7 5345435f4f50 
00003bfd 454e2000 
00003c01 04            10450 	.byte	4
00003c02 04            10451 	.byte	4
00003c03 01            10452 	.byte	1
00003c04 3f            10453 	.byte	63
00003c05 44454d5f5741  10454 	.strz	"DEM_WAS_STARTED_SEC_ROM_CONST "
00003c0b 535f53544152 
00003c11 5445445f5345 
00003c17 435f524f4d5f 
00003c1d 434f4e535420 
00003c23 00 
00003c24 04            10455 	.byte	4
00003c25 01            10456 	.byte	1
00003c26 1a            10457 	.byte	26
00003c27 44454d5f5354  10458 	.strz	"DEM_STOP_SEC_ROM_CONST "
00003c2d 4f505f534543 
00003c33 5f524f4d5f43 
00003c39 4f4e53542000 
00003c3f 03            10459 	.byte	3
00003c40 1b            10460 	.byte	27
00003c41 1d            10461 	.byte	29
00003c42 01            10462 	.byte	1
00003c43 06            10463 	.byte	6
00003c44 44454d5f4d45  10464 	.strz	"DEM_MEMMAP_ERROR "
00003c4a 4d4d41505f45 
00003c50 52524f522000 
00003c56 01            10465 	.byte	1
00003c57 47            10466 	.byte	71
00003c58 4253575f5354  10467 	.strz	"BSW_STOP_SEC_CONST_UNSPECIFIED "
00003c5e 4f505f534543 
00003c64 5f434f4e5354 
00003c6a 5f554e535045 
00003c70 434946494544 
00003c76 2000 
00003c78 03            10468 	.byte	3
00003c79 48            10469 	.byte	72
00003c7a 1e            10470 	.byte	30
00003c7b 01            10471 	.byte	1
00003c7c f405          10472 	.byte	244,5
00003c7e 53544f505f53  10473 	.strz	"STOP_SEC_CONST "
00003c84 45435f434f4e 
00003c8a 53542000 
00003c8e 03            10474 	.byte	3
00003c8f bb09          10475 	.byte	187,9
00003c91 1f            10476 	.byte	31
00003c92 04            10477 	.byte	4
00003c93 04            10478 	.byte	4
00003c94 04            10479 	.byte	4
00003c95 04            10480 	.byte	4
00003c96 01            10481 	.byte	1

                                                                      Page 236
                                                              C:\Users\nhuliyap\AppData\Local\Temp\gh_00002581.s
00003c97 15            10482 	.byte	21
00003c98 44454d5f4556  10483 	.strz	"DEM_EVMEM_INVALID_LOCID 0xFFFFu"
00003c9e 4d454d5f494e 
00003ca4 56414c49445f 
00003caa 4c4f43494420 
00003cb0 307846464646 
00003cb6 7500 
00003cb8 01            10484 	.byte	1
00003cb9 17            10485 	.byte	23
00003cba 44454d5f4556  10486 	.strz	"DEM_EVMEM_INVALID_MEMID 0xFFFFu"
00003cc0 4d454d5f494e 
00003cc6 56414c49445f 
00003ccc 4d454d494420 
00003cd2 307846464646 
00003cd8 7500 
00003cda 01            10487 	.byte	1
00003cdb 19            10488 	.byte	25
00003cdc 44454d5f4556  10489 	.strz	"DEM_EVMEM_STSMASK_TESTFAILED 0x0001u"
00003ce2 4d454d5f5354 
00003ce8 534d41534b5f 
00003cee 544553544641 
00003cf4 494c45442030 
00003cfa 783030303175 
00003d00 00 
00003d01 01            10490 	.byte	1
00003d02 1a            10491 	.byte	26
00003d03 44454d5f4556  10492 	.strz	"DEM_EVMEM_STSMASK_TESTFAILED_TFC 0x0002u"
00003d09 4d454d5f5354 
00003d0f 534d41534b5f 
00003d15 544553544641 
00003d1b 494c45445f54 
00003d21 464320307830 
00003d27 3030327500 
00003d2c 01            10493 	.byte	1
00003d2d 1b            10494 	.byte	27
00003d2e 44454d5f4556  10495 	.strz	"DEM_EVMEM_STSMASK_PENDING 0x0004u"
00003d34 4d454d5f5354 
00003d3a 534d41534b5f 
00003d40 50454e44494e 
00003d46 472030783030 
00003d4c 30347500 
00003d50 01            10496 	.byte	1
00003d51 1c            10497 	.byte	28
00003d52 44454d5f4556  10498 	.strz	"DEM_EVMEM_STSMASK_CONFIRMED 0x0008u"
00003d58 4d454d5f5354 
00003d5e 534d41534b5f 
00003d64 434f4e464952 
00003d6a 4d4544203078 
00003d70 303030387500 
00003d76 01            10499 	.byte	1
00003d77 1e            10500 	.byte	30
00003d78 44454d5f4556  10501 	.strz	"DEM_EVMEM_STSMASK_TESTCOMPLETE_TFC 0x0020u"
00003d7e 4d454d5f5354 
00003d84 534d41534b5f 
00003d8a 54455354434f 
00003d90 4d504c455445 
00003d96 5f5446432030 
00003d9c 783030323075 
00003da2 00 
00003da3 01            10502 	.byte	1
00003da4 1f            10503 	.byte	31

                                                                      Page 237
                                                              C:\Users\nhuliyap\AppData\Local\Temp\gh_00002581.s
00003da5 44454d5f4556  10504 	.strz	"DEM_EVMEM_STSMASK_TESTFAILED_SLC 0x0040u"
00003dab 4d454d5f5354 
00003db1 534d41534b5f 
00003db7 544553544641 
00003dbd 494c45445f53 
00003dc3 4c4320307830 
00003dc9 3034307500 
00003dce 01            10505 	.byte	1
00003dcf 20            10506 	.byte	32
00003dd0 44454d5f4556  10507 	.strz	"DEM_EVMEM_STSMASK_DELETED 0x0080u"
00003dd6 4d454d5f5354 
00003ddc 534d41534b5f 
00003de2 44454c455445 
00003de8 442030783030 
00003dee 38307500 
00003df2 01            10508 	.byte	1
00003df3 22            10509 	.byte	34
00003df4 44454d5f4556  10510 	.strz	"DEM_EVMEM_STSMASK_TESTFAILED_TAC 0x0100u"
00003dfa 4d454d5f5354 
00003e00 534d41534b5f 
00003e06 544553544641 
00003e0c 494c45445f54 
00003e12 414320307830 
00003e18 3130307500 
00003e1d 01            10511 	.byte	1
00003e1e 23            10512 	.byte	35
00003e1f 44454d5f4556  10513 	.strz	"DEM_EVMEM_STSMASK_TESTCOMPLETE_TAC 0x0200u"
00003e25 4d454d5f5354 
00003e2b 534d41534b5f 
00003e31 54455354434f 
00003e37 4d504c455445 
00003e3d 5f5441432030 
00003e43 783032303075 
00003e49 00 
00003e4a 01            10514 	.byte	1
00003e4b 24            10515 	.byte	36
00003e4c 44454d5f4556  10516 	.strz	"DEM_EVMEM_STSMASK_AGED 0x0400u"
00003e52 4d454d5f5354 
00003e58 534d41534b5f 
00003e5e 414745442030 
00003e64 783034303075 
00003e6a 00 
00003e6b 01            10517 	.byte	1
00003e6c 26            10518 	.byte	38
00003e6d 44454d5f4556  10519 	.strz	"DEM_EVMEM_STSMASK_STORED 0x1000u"
00003e73 4d454d5f5354 
00003e79 534d41534b5f 
00003e7f 53544f524544 
00003e85 203078313030 
00003e8b 307500 
00003e8e 01            10520 	.byte	1
00003e8f 2b            10521 	.byte	43
00003e90 44454d5f4556  10522 	.strz	"DEM_EVMEM_STSMASK_READER_COPY_CURRENT 0u"
00003e96 4d454d5f5354 
00003e9c 534d41534b5f 
00003ea2 524541444552 
00003ea8 5f434f50595f 
00003eae 43555252454e 
00003eb4 5420307500 
00003eb9 01            10523 	.byte	1
00003eba 38            10524 	.byte	56

                                                                      Page 238
                                                              C:\Users\nhuliyap\AppData\Local\Temp\gh_00002581.s
00003ebb 44454d5f4556  10525 	.strz	"DEM_EVMEM_WRITEMASK_DATA 0x0001u"
00003ec1 4d454d5f5752 
00003ec7 4954454d4153 
00003ecd 4b5f44415441 
00003ed3 203078303030 
00003ed9 317500 
00003edc 04            10526 	.byte	4
00003edd 04            10527 	.byte	4
00003ede 01            10528 	.byte	1
00003edf 24            10529 	.byte	36
00003ee0 44454d5f5354  10530 	.strz	"DEM_START_SEC_ROM_CONST "
00003ee6 4152545f5345 
00003eec 435f524f4d5f 
00003ef2 434f4e535420 
00003ef8 00 
00003ef9 03            10531 	.byte	3
00003efa 25            10532 	.byte	37
00003efb 1d            10533 	.byte	29
00003efc 01            10534 	.byte	1
00003efd 06            10535 	.byte	6
00003efe 44454d5f4d45  10536 	.strz	"DEM_MEMMAP_ERROR "
00003f04 4d4d41505f45 
00003f0a 52524f522000 
00003f10 01            10537 	.byte	1
00003f11 3a            10538 	.byte	58
00003f12 4253575f5354  10539 	.strz	"BSW_START_SEC_CONST_UNSPECIFIED "
00003f18 4152545f5345 
00003f1e 435f434f4e53 
00003f24 545f554e5350 
00003f2a 454349464945 
00003f30 442000 
00003f33 03            10540 	.byte	3
00003f34 3b            10541 	.byte	59
00003f35 1e            10542 	.byte	30
00003f36 01            10543 	.byte	1
00003f37 f005          10544 	.byte	240,5
00003f39 53544152545f  10545 	.strz	"START_SEC_CONST_UNSPECIFIED "
00003f3f 5345435f434f 
00003f45 4e53545f554e 
00003f4b 535045434946 
00003f51 4945442000 
00003f56 03            10546 	.byte	3
00003f57 bb09          10547 	.byte	187,9
00003f59 1f            10548 	.byte	31
00003f5a 01            10549 	.byte	1
00003f5b b408          10550 	.byte	180,8
00003f5d 434f4e53545f  10551 	.strz	"CONST_SEC_OPEN "
00003f63 5345435f4f50 
00003f69 454e2000 
00003f6d 04            10552 	.byte	4
00003f6e 04            10553 	.byte	4
00003f6f 01            10554 	.byte	1
00003f70 3f            10555 	.byte	63
00003f71 44454d5f5741  10556 	.strz	"DEM_WAS_STARTED_SEC_ROM_CONST "
00003f77 535f53544152 
00003f7d 5445445f5345 
00003f83 435f524f4d5f 
00003f89 434f4e535420 
00003f8f 00 
00003f90 04            10557 	.byte	4
00003f91 01            10558 	.byte	1

                                                                      Page 239
                                                              C:\Users\nhuliyap\AppData\Local\Temp\gh_00002581.s
00003f92 27            10559 	.byte	39
00003f93 44454d5f5354  10560 	.strz	"DEM_STOP_SEC_ROM_CONST "
00003f99 4f505f534543 
00003f9f 5f524f4d5f43 
00003fa5 4f4e53542000 
00003fab 03            10561 	.byte	3
00003fac 28            10562 	.byte	40
00003fad 1d            10563 	.byte	29
00003fae 01            10564 	.byte	1
00003faf 06            10565 	.byte	6
00003fb0 44454d5f4d45  10566 	.strz	"DEM_MEMMAP_ERROR "
00003fb6 4d4d41505f45 
00003fbc 52524f522000 
00003fc2 01            10567 	.byte	1
00003fc3 47            10568 	.byte	71
00003fc4 4253575f5354  10569 	.strz	"BSW_STOP_SEC_CONST_UNSPECIFIED "
00003fca 4f505f534543 
00003fd0 5f434f4e5354 
00003fd6 5f554e535045 
00003fdc 434946494544 
00003fe2 2000 
00003fe4 03            10570 	.byte	3
00003fe5 48            10571 	.byte	72
00003fe6 1e            10572 	.byte	30
00003fe7 01            10573 	.byte	1
00003fe8 f405          10574 	.byte	244,5
00003fea 53544f505f53  10575 	.strz	"STOP_SEC_CONST "
00003ff0 45435f434f4e 
00003ff6 53542000 
00003ffa 03            10576 	.byte	3
00003ffb bb09          10577 	.byte	187,9
00003ffd 1f            10578 	.byte	31
00003ffe 04            10579 	.byte	4
00003fff 04            10580 	.byte	4
00004000 04            10581 	.byte	4
00004001 01            10582 	.byte	1
00004002 9301          10583 	.byte	147,1
00004004 44454d5f5354  10584 	.strz	"DEM_START_SEC_ROM_CODE "
0000400a 4152545f5345 
00004010 435f524f4d5f 
00004016 434f44452000 
0000401c 03            10585 	.byte	3
0000401d 9401          10586 	.byte	148,1
0000401f 1d            10587 	.byte	29
00004020 01            10588 	.byte	1
00004021 06            10589 	.byte	6
00004022 44454d5f4d45  10590 	.strz	"DEM_MEMMAP_ERROR "
00004028 4d4d41505f45 
0000402e 52524f522000 
00004034 01            10591 	.byte	1
00004035 51            10592 	.byte	81
00004036 4253575f5354  10593 	.strz	"BSW_START_SEC_CODE "
0000403c 4152545f5345 
00004042 435f434f4445 
00004048 2000 
0000404a 03            10594 	.byte	3
0000404b 52            10595 	.byte	82
0000404c 1e            10596 	.byte	30
0000404d 01            10597 	.byte	1
0000404e da08          10598 	.byte	218,8
00004050 53544152545f  10599 	.strz	"START_SEC_CODE "

                                                                      Page 240
                                                              C:\Users\nhuliyap\AppData\Local\Temp\gh_00002581.s
00004056 5345435f434f 
0000405c 44452000 
00004060 03            10600 	.byte	3
00004061 bb09          10601 	.byte	187,9
00004063 1f            10602 	.byte	31
00004064 01            10603 	.byte	1
00004065 f307          10604 	.byte	243,7
00004067 434f44455f53  10605 	.strz	"CODE_SEC_OPEN "
0000406d 45435f4f5045 
00004073 4e2000 
00004076 04            10606 	.byte	4
00004077 04            10607 	.byte	4
00004078 01            10608 	.byte	1
00004079 56            10609 	.byte	86
0000407a 44454d5f5741  10610 	.strz	"DEM_WAS_STARTED_SEC_ROM_CODE "
00004080 535f53544152 
00004086 5445445f5345 
0000408c 435f524f4d5f 
00004092 434f44452000 
00004098 04            10611 	.byte	4
00004099 01            10612 	.byte	1
0000409a d301          10613 	.byte	211,1
0000409c 44454d5f5354  10614 	.strz	"DEM_STOP_SEC_ROM_CODE "
000040a2 4f505f534543 
000040a8 5f524f4d5f43 
000040ae 4f44452000 
000040b3 03            10615 	.byte	3
000040b4 d401          10616 	.byte	212,1
000040b6 1d            10617 	.byte	29
000040b7 01            10618 	.byte	1
000040b8 06            10619 	.byte	6
000040b9 44454d5f4d45  10620 	.strz	"DEM_MEMMAP_ERROR "
000040bf 4d4d41505f45 
000040c5 52524f522000 
000040cb 01            10621 	.byte	1
000040cc 5e            10622 	.byte	94
000040cd 4253575f5354  10623 	.strz	"BSW_STOP_SEC_CODE "
000040d3 4f505f534543 
000040d9 5f434f444520 
000040df 00 
000040e0 03            10624 	.byte	3
000040e1 5f            10625 	.byte	95
000040e2 1e            10626 	.byte	30
000040e3 01            10627 	.byte	1
000040e4 de08          10628 	.byte	222,8
000040e6 53544f505f53  10629 	.strz	"STOP_SEC_CODE "
000040ec 45435f434f44 
000040f2 452000 
000040f5 03            10630 	.byte	3
000040f6 bb09          10631 	.byte	187,9
000040f8 1f            10632 	.byte	31
000040f9 04            10633 	.byte	4
000040fa 04            10634 	.byte	4
000040fb 04            10635 	.byte	4
000040fc 04            10636 	.byte	4
000040fd 04            10637 	.byte	4
000040fe 01            10638 	.byte	1
000040ff 06            10639 	.byte	6
00004100 44656d5f4d61  10640 	.strz	"Dem_MaxDataValueTypeSize 32"
00004106 784461746156 
0000410c 616c75655479 

                                                                      Page 241
                                                              C:\Users\nhuliyap\AppData\Local\Temp\gh_00002581.s
00004112 706553697a65 
00004118 20333200 
0000411c 04            10641 	.byte	4
0000411d 03            10642 	.byte	3
0000411e 06            10643 	.byte	6
0000411f 38            10644 	.byte	56
00004120 01            10645 	.byte	1
00004121 14            10646 	.byte	20
00004122 44454d5f5354  10647 	.strz	"DEM_START_SEC_RAM_CLEARED "
00004128 4152545f5345 
0000412e 435f52414d5f 
00004134 434c45415245 
0000413a 442000 
0000413d 03            10648 	.byte	3
0000413e 15            10649 	.byte	21
0000413f 1d            10650 	.byte	29
00004140 01            10651 	.byte	1
00004141 06            10652 	.byte	6
00004142 44454d5f4d45  10653 	.strz	"DEM_MEMMAP_ERROR "
00004148 4d4d41505f45 
0000414e 52524f522000 
00004154 01            10654 	.byte	1
00004155 0c            10655 	.byte	12
00004156 4253575f5354  10656 	.strz	"BSW_START_SEC_VAR_CLEARED_UNSPECIFIED "
0000415c 4152545f5345 
00004162 435f5641525f 
00004168 434c45415245 
0000416e 445f554e5350 
00004174 454349464945 
0000417a 442000 
0000417d 03            10657 	.byte	3
0000417e 0d            10658 	.byte	13
0000417f 1e            10659 	.byte	30
00004180 01            10660 	.byte	1
00004181 42            10661 	.byte	66
00004182 53544152545f  10662 	.strz	"START_SEC_VAR_CLEARED_UNSPECIFIED "
00004188 5345435f5641 
0000418e 525f434c4541 
00004194 5245445f554e 
0000419a 535045434946 
000041a0 4945442000 
000041a5 03            10663 	.byte	3
000041a6 bb09          10664 	.byte	187,9
000041a8 1f            10665 	.byte	31
000041a9 01            10666 	.byte	1
000041aa 56            10667 	.byte	86
000041ab 53544152545f  10668 	.strz	"START_SEC_VAR_ZERO_INIT_UNSPECIFIED "
000041b1 5345435f5641 
000041b7 525f5a45524f 
000041bd 5f494e49545f 
000041c3 554e53504543 
000041c9 494649454420 
000041cf 00 
000041d0 01            10669 	.byte	1
000041d1 840a          10670 	.byte	132,10
000041d3 5641525f5345  10671 	.strz	"VAR_SEC_OPEN "
000041d9 435f4f50454e 
000041df 2000 
000041e1 04            10672 	.byte	4
000041e2 04            10673 	.byte	4
000041e3 01            10674 	.byte	1

                                                                      Page 242
                                                              C:\Users\nhuliyap\AppData\Local\Temp\gh_00002581.s
000041e4 11            10675 	.byte	17
000041e5 44454d5f5741  10676 	.strz	"DEM_WAS_STARTED_SEC_RAM_CLEARED "
000041eb 535f53544152 
000041f1 5445445f5345 
000041f7 435f52414d5f 
000041fd 434c45415245 
00004203 442000 
00004206 04            10677 	.byte	4
00004207 01            10678 	.byte	1
00004208 17            10679 	.byte	23
00004209 44454d5f5354  10680 	.strz	"DEM_STOP_SEC_RAM_CLEARED "
0000420f 4f505f534543 
00004215 5f52414d5f43 
0000421b 4c4541524544 
00004221 2000 
00004223 03            10681 	.byte	3
00004224 18            10682 	.byte	24
00004225 1d            10683 	.byte	29
00004226 01            10684 	.byte	1
00004227 06            10685 	.byte	6
00004228 44454d5f4d45  10686 	.strz	"DEM_MEMMAP_ERROR "
0000422e 4d4d41505f45 
00004234 52524f522000 
0000423a 01            10687 	.byte	1
0000423b 19            10688 	.byte	25
0000423c 4253575f5354  10689 	.strz	"BSW_STOP_SEC_VAR_CLEARED_UNSPECIFIED "
00004242 4f505f534543 
00004248 5f5641525f43 
0000424e 4c4541524544 
00004254 5f554e535045 
0000425a 434946494544 
00004260 2000 
00004262 03            10690 	.byte	3
00004263 1a            10691 	.byte	26
00004264 1e            10692 	.byte	30
00004265 01            10693 	.byte	1
00004266 46            10694 	.byte	70
00004267 53544f505f53  10695 	.strz	"STOP_SEC_VAR "
0000426d 45435f564152 
00004273 2000 
00004275 03            10696 	.byte	3
00004276 bb09          10697 	.byte	187,9
00004278 1f            10698 	.byte	31
00004279 04            10699 	.byte	4
0000427a 04            10700 	.byte	4
0000427b 04            10701 	.byte	4
0000427c 01            10702 	.byte	1
0000427d 19            10703 	.byte	25
0000427e 44454d5f5354  10704 	.strz	"DEM_START_SEC_ROM_CODE "
00004284 4152545f5345 
0000428a 435f524f4d5f 
00004290 434f44452000 
00004296 03            10705 	.byte	3
00004297 1a            10706 	.byte	26
00004298 1d            10707 	.byte	29
00004299 01            10708 	.byte	1
0000429a 06            10709 	.byte	6
0000429b 44454d5f4d45  10710 	.strz	"DEM_MEMMAP_ERROR "
000042a1 4d4d41505f45 
000042a7 52524f522000 
000042ad 01            10711 	.byte	1

                                                                      Page 243
                                                              C:\Users\nhuliyap\AppData\Local\Temp\gh_00002581.s
000042ae 51            10712 	.byte	81
000042af 4253575f5354  10713 	.strz	"BSW_START_SEC_CODE "
000042b5 4152545f5345 
000042bb 435f434f4445 
000042c1 2000 
000042c3 03            10714 	.byte	3
000042c4 52            10715 	.byte	82
000042c5 1e            10716 	.byte	30
000042c6 01            10717 	.byte	1
000042c7 da08          10718 	.byte	218,8
000042c9 53544152545f  10719 	.strz	"START_SEC_CODE "
000042cf 5345435f434f 
000042d5 44452000 
000042d9 03            10720 	.byte	3
000042da bb09          10721 	.byte	187,9
000042dc 1f            10722 	.byte	31
000042dd 01            10723 	.byte	1
000042de f307          10724 	.byte	243,7
000042e0 434f44455f53  10725 	.strz	"CODE_SEC_OPEN "
000042e6 45435f4f5045 
000042ec 4e2000 
000042ef 04            10726 	.byte	4
000042f0 04            10727 	.byte	4
000042f1 01            10728 	.byte	1
000042f2 56            10729 	.byte	86
000042f3 44454d5f5741  10730 	.strz	"DEM_WAS_STARTED_SEC_ROM_CODE "
000042f9 535f53544152 
000042ff 5445445f5345 
00004305 435f524f4d5f 
0000430b 434f44452000 
00004311 04            10731 	.byte	4
00004312 01            10732 	.byte	1
00004313 1e            10733 	.byte	30
00004314 44454d5f5354  10734 	.strz	"DEM_STOP_SEC_ROM_CODE "
0000431a 4f505f534543 
00004320 5f524f4d5f43 
00004326 4f44452000 
0000432b 03            10735 	.byte	3
0000432c 1f            10736 	.byte	31
0000432d 1d            10737 	.byte	29
0000432e 01            10738 	.byte	1
0000432f 06            10739 	.byte	6
00004330 44454d5f4d45  10740 	.strz	"DEM_MEMMAP_ERROR "
00004336 4d4d41505f45 
0000433c 52524f522000 
00004342 01            10741 	.byte	1
00004343 5e            10742 	.byte	94
00004344 4253575f5354  10743 	.strz	"BSW_STOP_SEC_CODE "
0000434a 4f505f534543 
00004350 5f434f444520 
00004356 00 
00004357 03            10744 	.byte	3
00004358 5f            10745 	.byte	95
00004359 1e            10746 	.byte	30
0000435a 01            10747 	.byte	1
0000435b de08          10748 	.byte	222,8
0000435d 53544f505f53  10749 	.strz	"STOP_SEC_CODE "
00004363 45435f434f44 
00004369 452000 
0000436c 03            10750 	.byte	3
0000436d bb09          10751 	.byte	187,9

                                                                      Page 244
                                                              C:\Users\nhuliyap\AppData\Local\Temp\gh_00002581.s
0000436f 1f            10752 	.byte	31
00004370 04            10753 	.byte	4
00004371 04            10754 	.byte	4
00004372 04            10755 	.byte	4
00004373 04            10756 	.byte	4
00004374 03            10757 	.byte	3
00004375 07            10758 	.byte	7
00004376 39            10759 	.byte	57
00004377 03            10760 	.byte	3
00004378 09            10761 	.byte	9
00004379 3a            10762 	.byte	58
0000437a 03            10763 	.byte	3
0000437b 07            10764 	.byte	7
0000437c 3b            10765 	.byte	59
0000437d 01            10766 	.byte	1
0000437e 11            10767 	.byte	17
0000437f 44454d5f5354  10768 	.strz	"DEM_START_SEC_ROM_CONST "
00004385 4152545f5345 
0000438b 435f524f4d5f 
00004391 434f4e535420 
00004397 00 
00004398 03            10769 	.byte	3
00004399 12            10770 	.byte	18
0000439a 1d            10771 	.byte	29
0000439b 01            10772 	.byte	1
0000439c 06            10773 	.byte	6
0000439d 44454d5f4d45  10774 	.strz	"DEM_MEMMAP_ERROR "
000043a3 4d4d41505f45 
000043a9 52524f522000 
000043af 01            10775 	.byte	1
000043b0 3a            10776 	.byte	58
000043b1 4253575f5354  10777 	.strz	"BSW_START_SEC_CONST_UNSPECIFIED "
000043b7 4152545f5345 
000043bd 435f434f4e53 
000043c3 545f554e5350 
000043c9 454349464945 
000043cf 442000 
000043d2 03            10778 	.byte	3
000043d3 3b            10779 	.byte	59
000043d4 1e            10780 	.byte	30
000043d5 01            10781 	.byte	1
000043d6 f005          10782 	.byte	240,5
000043d8 53544152545f  10783 	.strz	"START_SEC_CONST_UNSPECIFIED "
000043de 5345435f434f 
000043e4 4e53545f554e 
000043ea 535045434946 
000043f0 4945442000 
000043f5 03            10784 	.byte	3
000043f6 bb09          10785 	.byte	187,9
000043f8 1f            10786 	.byte	31
000043f9 01            10787 	.byte	1
000043fa b408          10788 	.byte	180,8
000043fc 434f4e53545f  10789 	.strz	"CONST_SEC_OPEN "
00004402 5345435f4f50 
00004408 454e2000 
0000440c 04            10790 	.byte	4
0000440d 04            10791 	.byte	4
0000440e 01            10792 	.byte	1
0000440f 3f            10793 	.byte	63
00004410 44454d5f5741  10794 	.strz	"DEM_WAS_STARTED_SEC_ROM_CONST "
00004416 535f53544152 

                                                                      Page 245
                                                              C:\Users\nhuliyap\AppData\Local\Temp\gh_00002581.s
0000441c 5445445f5345 
00004422 435f524f4d5f 
00004428 434f4e535420 
0000442e 00 
0000442f 04            10795 	.byte	4
00004430 01            10796 	.byte	1
00004431 16            10797 	.byte	22
00004432 44454d5f5354  10798 	.strz	"DEM_STOP_SEC_ROM_CONST "
00004438 4f505f534543 
0000443e 5f524f4d5f43 
00004444 4f4e53542000 
0000444a 03            10799 	.byte	3
0000444b 17            10800 	.byte	23
0000444c 1d            10801 	.byte	29
0000444d 01            10802 	.byte	1
0000444e 06            10803 	.byte	6
0000444f 44454d5f4d45  10804 	.strz	"DEM_MEMMAP_ERROR "
00004455 4d4d41505f45 
0000445b 52524f522000 
00004461 01            10805 	.byte	1
00004462 47            10806 	.byte	71
00004463 4253575f5354  10807 	.strz	"BSW_STOP_SEC_CONST_UNSPECIFIED "
00004469 4f505f534543 
0000446f 5f434f4e5354 
00004475 5f554e535045 
0000447b 434946494544 
00004481 2000 
00004483 03            10808 	.byte	3
00004484 48            10809 	.byte	72
00004485 1e            10810 	.byte	30
00004486 01            10811 	.byte	1
00004487 f405          10812 	.byte	244,5
00004489 53544f505f53  10813 	.strz	"STOP_SEC_CONST "
0000448f 45435f434f4e 
00004495 53542000 
00004499 03            10814 	.byte	3
0000449a bb09          10815 	.byte	187,9
0000449c 1f            10816 	.byte	31
0000449d 04            10817 	.byte	4
0000449e 04            10818 	.byte	4
0000449f 04            10819 	.byte	4
000044a0 04            10820 	.byte	4
000044a1 01            10821 	.byte	1
000044a2 0a            10822 	.byte	10
000044a3 44454d5f5354  10823 	.strz	"DEM_START_SEC_RAM_CLEARED "
000044a9 4152545f5345 
000044af 435f52414d5f 
000044b5 434c45415245 
000044bb 442000 
000044be 03            10824 	.byte	3
000044bf 0b            10825 	.byte	11
000044c0 1d            10826 	.byte	29
000044c1 01            10827 	.byte	1
000044c2 06            10828 	.byte	6
000044c3 44454d5f4d45  10829 	.strz	"DEM_MEMMAP_ERROR "
000044c9 4d4d41505f45 
000044cf 52524f522000 
000044d5 01            10830 	.byte	1
000044d6 0c            10831 	.byte	12
000044d7 4253575f5354  10832 	.strz	"BSW_START_SEC_VAR_CLEARED_UNSPECIFIED "
000044dd 4152545f5345 

                                                                      Page 246
                                                              C:\Users\nhuliyap\AppData\Local\Temp\gh_00002581.s
000044e3 435f5641525f 
000044e9 434c45415245 
000044ef 445f554e5350 
000044f5 454349464945 
000044fb 442000 
000044fe 03            10833 	.byte	3
000044ff 0d            10834 	.byte	13
00004500 1e            10835 	.byte	30
00004501 01            10836 	.byte	1
00004502 42            10837 	.byte	66
00004503 53544152545f  10838 	.strz	"START_SEC_VAR_CLEARED_UNSPECIFIED "
00004509 5345435f5641 
0000450f 525f434c4541 
00004515 5245445f554e 
0000451b 535045434946 
00004521 4945442000 
00004526 03            10839 	.byte	3
00004527 bb09          10840 	.byte	187,9
00004529 1f            10841 	.byte	31
0000452a 01            10842 	.byte	1
0000452b 56            10843 	.byte	86
0000452c 53544152545f  10844 	.strz	"START_SEC_VAR_ZERO_INIT_UNSPECIFIED "
00004532 5345435f5641 
00004538 525f5a45524f 
0000453e 5f494e49545f 
00004544 554e53504543 
0000454a 494649454420 
00004550 00 
00004551 01            10845 	.byte	1
00004552 840a          10846 	.byte	132,10
00004554 5641525f5345  10847 	.strz	"VAR_SEC_OPEN "
0000455a 435f4f50454e 
00004560 2000 
00004562 04            10848 	.byte	4
00004563 04            10849 	.byte	4
00004564 01            10850 	.byte	1
00004565 11            10851 	.byte	17
00004566 44454d5f5741  10852 	.strz	"DEM_WAS_STARTED_SEC_RAM_CLEARED "
0000456c 535f53544152 
00004572 5445445f5345 
00004578 435f52414d5f 
0000457e 434c45415245 
00004584 442000 
00004587 04            10853 	.byte	4
00004588 01            10854 	.byte	1
00004589 0f            10855 	.byte	15
0000458a 44454d5f5354  10856 	.strz	"DEM_STOP_SEC_RAM_CLEARED "
00004590 4f505f534543 
00004596 5f52414d5f43 
0000459c 4c4541524544 
000045a2 2000 
000045a4 03            10857 	.byte	3
000045a5 10            10858 	.byte	16
000045a6 1d            10859 	.byte	29
000045a7 01            10860 	.byte	1
000045a8 06            10861 	.byte	6
000045a9 44454d5f4d45  10862 	.strz	"DEM_MEMMAP_ERROR "
000045af 4d4d41505f45 
000045b5 52524f522000 
000045bb 01            10863 	.byte	1
000045bc 19            10864 	.byte	25

                                                                      Page 247
                                                              C:\Users\nhuliyap\AppData\Local\Temp\gh_00002581.s
000045bd 4253575f5354  10865 	.strz	"BSW_STOP_SEC_VAR_CLEARED_UNSPECIFIED "
000045c3 4f505f534543 
000045c9 5f5641525f43 
000045cf 4c4541524544 
000045d5 5f554e535045 
000045db 434946494544 
000045e1 2000 
000045e3 03            10866 	.byte	3
000045e4 1a            10867 	.byte	26
000045e5 1e            10868 	.byte	30
000045e6 01            10869 	.byte	1
000045e7 46            10870 	.byte	70
000045e8 53544f505f53  10871 	.strz	"STOP_SEC_VAR "
000045ee 45435f564152 
000045f4 2000 
000045f6 03            10872 	.byte	3
000045f7 bb09          10873 	.byte	187,9
000045f9 1f            10874 	.byte	31
000045fa 04            10875 	.byte	4
000045fb 04            10876 	.byte	4
000045fc 04            10877 	.byte	4
000045fd 01            10878 	.byte	1
000045fe 12            10879 	.byte	18
000045ff 44454d5f5354  10880 	.strz	"DEM_START_SEC_ROM_CODE "
00004605 4152545f5345 
0000460b 435f524f4d5f 
00004611 434f44452000 
00004617 03            10881 	.byte	3
00004618 13            10882 	.byte	19
00004619 1d            10883 	.byte	29
0000461a 01            10884 	.byte	1
0000461b 06            10885 	.byte	6
0000461c 44454d5f4d45  10886 	.strz	"DEM_MEMMAP_ERROR "
00004622 4d4d41505f45 
00004628 52524f522000 
0000462e 01            10887 	.byte	1
0000462f 51            10888 	.byte	81
00004630 4253575f5354  10889 	.strz	"BSW_START_SEC_CODE "
00004636 4152545f5345 
0000463c 435f434f4445 
00004642 2000 
00004644 03            10890 	.byte	3
00004645 52            10891 	.byte	82
00004646 1e            10892 	.byte	30
00004647 01            10893 	.byte	1
00004648 da08          10894 	.byte	218,8
0000464a 53544152545f  10895 	.strz	"START_SEC_CODE "
00004650 5345435f434f 
00004656 44452000 
0000465a 03            10896 	.byte	3
0000465b bb09          10897 	.byte	187,9
0000465d 1f            10898 	.byte	31
0000465e 01            10899 	.byte	1
0000465f f307          10900 	.byte	243,7
00004661 434f44455f53  10901 	.strz	"CODE_SEC_OPEN "
00004667 45435f4f5045 
0000466d 4e2000 
00004670 04            10902 	.byte	4
00004671 04            10903 	.byte	4
00004672 01            10904 	.byte	1
00004673 56            10905 	.byte	86

                                                                      Page 248
                                                              C:\Users\nhuliyap\AppData\Local\Temp\gh_00002581.s
00004674 44454d5f5741  10906 	.strz	"DEM_WAS_STARTED_SEC_ROM_CODE "
0000467a 535f53544152 
00004680 5445445f5345 
00004686 435f524f4d5f 
0000468c 434f44452000 
00004692 04            10907 	.byte	4
00004693 01            10908 	.byte	1
00004694 1e            10909 	.byte	30
00004695 44454d5f5354  10910 	.strz	"DEM_STOP_SEC_ROM_CODE "
0000469b 4f505f534543 
000046a1 5f524f4d5f43 
000046a7 4f44452000 
000046ac 03            10911 	.byte	3
000046ad 1f            10912 	.byte	31
000046ae 1d            10913 	.byte	29
000046af 01            10914 	.byte	1
000046b0 06            10915 	.byte	6
000046b1 44454d5f4d45  10916 	.strz	"DEM_MEMMAP_ERROR "
000046b7 4d4d41505f45 
000046bd 52524f522000 
000046c3 01            10917 	.byte	1
000046c4 5e            10918 	.byte	94
000046c5 4253575f5354  10919 	.strz	"BSW_STOP_SEC_CODE "
000046cb 4f505f534543 
000046d1 5f434f444520 
000046d7 00 
000046d8 03            10920 	.byte	3
000046d9 5f            10921 	.byte	95
000046da 1e            10922 	.byte	30
000046db 01            10923 	.byte	1
000046dc de08          10924 	.byte	222,8
000046de 53544f505f53  10925 	.strz	"STOP_SEC_CODE "
000046e4 45435f434f44 
000046ea 452000 
000046ed 03            10926 	.byte	3
000046ee bb09          10927 	.byte	187,9
000046f0 1f            10928 	.byte	31
000046f1 04            10929 	.byte	4
000046f2 04            10930 	.byte	4
000046f3 04            10931 	.byte	4
000046f4 04            10932 	.byte	4
000046f5 03            10933 	.byte	3
000046f6 0c            10934 	.byte	12
000046f7 3c            10935 	.byte	60
000046f8 03            10936 	.byte	3
000046f9 06            10937 	.byte	6
000046fa 3d            10938 	.byte	61
000046fb 04            10939 	.byte	4
000046fc 03            10940 	.byte	3
000046fd 07            10941 	.byte	7
000046fe 3e            10942 	.byte	62
000046ff 03            10943 	.byte	3
00004700 08            10944 	.byte	8
00004701 3f            10945 	.byte	63
00004702 01            10946 	.byte	1
00004703 09            10947 	.byte	9
00004704 44454d5f4152  10948 	.strz	"DEM_ARRAY_DECLARE(TYPE,NAME,SIZE) extern TYPE NAME[SIZE]"
0000470a 5241595f4445 
00004710 434c41524528 
00004716 545950452c4e 
0000471c 414d452c5349 

                                                                      Page 249
                                                              C:\Users\nhuliyap\AppData\Local\Temp\gh_00002581.s
00004722 5a4529206578 
00004728 7465726e2054 
0000472e 595045204e41 
00004734 4d455b53495a 
0000473a 455d00 
0000473d 01            10949 	.byte	1
0000473e 0a            10950 	.byte	10
0000473f 44454d5f4152  10951 	.strz	"DEM_ARRAY_DECLARE_CONST(TYPE,NAME,SIZE) extern const TYPE NAME[SIZE]"
00004745 5241595f4445 
0000474b 434c4152455f 
00004751 434f4e535428 
00004757 545950452c4e 
0000475d 414d452c5349 
00004763 5a4529206578 
00004769 7465726e2063 
0000476f 6f6e73742054 
00004775 595045204e41 
0000477b 4d455b53495a 
00004781 455d00 
00004784 01            10952 	.byte	1
00004785 0d            10953 	.byte	13
00004786 44454d5f4152  10954 	.strz	"DEM_ARRAY_FUNCPARAM(TYPE,NAME) TYPE NAME[]"
0000478c 5241595f4655 
00004792 4e4350415241 
00004798 4d2854595045 
0000479e 2c4e414d4529 
000047a4 205459504520 
000047aa 4e414d455b5d 
000047b0 00 
000047b1 01            10955 	.byte	1
000047b2 0e            10956 	.byte	14
000047b3 44454d5f4152  10957 	.strz	"DEM_ARRAY_CONSTFUNCPARAM(TYPE,NAME) const TYPE NAME[]"
000047b9 5241595f434f 
000047bf 4e535446554e 
000047c5 43504152414d 
000047cb 28545950452c 
000047d1 4e414d452920 
000047d7 636f6e737420 
000047dd 54595045204e 
000047e3 414d455b5d00 
000047e9 01            10958 	.byte	1
000047ea 0f            10959 	.byte	15
000047eb 44454d5f5349  10960 	.strz	"DEM_SIZEOF_VAR(x) sizeof(x)"
000047f1 5a454f465f56 
000047f7 415228782920 
000047fd 73697a656f66 
00004803 28782900 
00004807 01            10961 	.byte	1
00004808 10            10962 	.byte	16
00004809 44454d5f5349  10963 	.strz	"DEM_SIZEOF_TYPE(x) sizeof(x)"
0000480f 5a454f465f54 
00004815 595045287829 
0000481b 2073697a656f 
00004821 6628782900 
00004826 04            10964 	.byte	4
00004827 03            10965 	.byte	3
00004828 09            10966 	.byte	9
00004829 40            10967 	.byte	64
0000482a 03            10968 	.byte	3
0000482b 08            10969 	.byte	8
0000482c 41            10970 	.byte	65

                                                                      Page 250
                                                              C:\Users\nhuliyap\AppData\Local\Temp\gh_00002581.s
0000482d 03            10971 	.byte	3
0000482e 06            10972 	.byte	6
0000482f 42            10973 	.byte	66
00004830 01            10974 	.byte	1
00004831 0d            10975 	.byte	13
00004832 44454d5f4f50  10976 	.strz	"DEM_OPMO_STATE_INITIALIZED 2"
00004838 4d4f5f535441 
0000483e 54455f494e49 
00004844 5449414c495a 
0000484a 4544203200 
0000484f 01            10977 	.byte	1
00004850 16            10978 	.byte	22
00004851 44454d5f4649  10979 	.strz	"DEM_FIM_STATE_INITIALIZED 2"
00004857 4d5f53544154 
0000485d 455f494e4954 
00004863 49414c495a45 
00004869 44203200 
0000486d 01            10980 	.byte	1
0000486e 18            10981 	.byte	24
0000486f 44454d5f5354  10982 	.strz	"DEM_START_SEC_RAM_INIT "
00004875 4152545f5345 
0000487b 435f52414d5f 
00004881 494e49542000 
00004887 03            10983 	.byte	3
00004888 19            10984 	.byte	25
00004889 1d            10985 	.byte	29
0000488a 01            10986 	.byte	1
0000488b 06            10987 	.byte	6
0000488c 44454d5f4d45  10988 	.strz	"DEM_MEMMAP_ERROR "
00004892 4d4d41505f45 
00004898 52524f522000 
0000489e 01            10989 	.byte	1
0000489f 23            10990 	.byte	35
000048a0 4253575f5354  10991 	.strz	"BSW_START_SEC_VAR_INIT_UNSPECIFIED "
000048a6 4152545f5345 
000048ac 435f5641525f 
000048b2 494e49545f55 
000048b8 4e5350454349 
000048be 464945442000 
000048c4 03            10992 	.byte	3
000048c5 24            10993 	.byte	36
000048c6 1e            10994 	.byte	30
000048c7 01            10995 	.byte	1
000048c8 8001          10996 	.byte	128,1
000048ca 53544152545f  10997 	.strz	"START_SEC_VAR_INIT_UNSPECIFIED "
000048d0 5345435f5641 
000048d6 525f494e4954 
000048dc 5f554e535045 
000048e2 434946494544 
000048e8 2000 
000048ea 03            10998 	.byte	3
000048eb bb09          10999 	.byte	187,9
000048ed 1f            11000 	.byte	31
000048ee 01            11001 	.byte	1
000048ef a109          11002 	.byte	161,9
000048f1 5641525f5345  11003 	.strz	"VAR_SEC_OPEN "
000048f7 435f4f50454e 
000048fd 2000 
000048ff 04            11004 	.byte	4
00004900 04            11005 	.byte	4
00004901 01            11006 	.byte	1

                                                                      Page 251
                                                              C:\Users\nhuliyap\AppData\Local\Temp\gh_00002581.s
00004902 28            11007 	.byte	40
00004903 44454d5f5741  11008 	.strz	"DEM_WAS_STARTED_SEC_RAM_INIT "
00004909 535f53544152 
0000490f 5445445f5345 
00004915 435f52414d5f 
0000491b 494e49542000 
00004921 04            11009 	.byte	4
00004922 01            11010 	.byte	1
00004923 1e            11011 	.byte	30
00004924 44454d5f5354  11012 	.strz	"DEM_STOP_SEC_RAM_INIT "
0000492a 4f505f534543 
00004930 5f52414d5f49 
00004936 4e49542000 
0000493b 03            11013 	.byte	3
0000493c 1f            11014 	.byte	31
0000493d 1d            11015 	.byte	29
0000493e 01            11016 	.byte	1
0000493f 06            11017 	.byte	6
00004940 44454d5f4d45  11018 	.strz	"DEM_MEMMAP_ERROR "
00004946 4d4d41505f45 
0000494c 52524f522000 
00004952 01            11019 	.byte	1
00004953 30            11020 	.byte	48
00004954 4253575f5354  11021 	.strz	"BSW_STOP_SEC_VAR_INIT_UNSPECIFIED "
0000495a 4f505f534543 
00004960 5f5641525f49 
00004966 4e49545f554e 
0000496c 535045434946 
00004972 4945442000 
00004977 03            11022 	.byte	3
00004978 31            11023 	.byte	49
00004979 1e            11024 	.byte	30
0000497a 01            11025 	.byte	1
0000497b 8401          11026 	.byte	132,1
0000497d 53544f505f53  11027 	.strz	"STOP_SEC_VAR "
00004983 45435f564152 
00004989 2000 
0000498b 03            11028 	.byte	3
0000498c bb09          11029 	.byte	187,9
0000498e 1f            11030 	.byte	31
0000498f 04            11031 	.byte	4
00004990 04            11032 	.byte	4
00004991 04            11033 	.byte	4
00004992 01            11034 	.byte	1
00004993 21            11035 	.byte	33
00004994 44454d5f454e  11036 	.strz	"DEM_ENTRY_CONDITION_CHECK_DEM_INITIALIZED(APIID,RETURNVALUE) do {DEM_ASSERT_ISNOTLOCKED(); if(Dem_OpMoState != DEM_OPMO_STATE_INITIALIZED) {DEM_DET(APIID, DEM_E_UNINIT); return (RETURNVALUE); }}while(0)"
0000499a 5452595f434f 
000049a0 4e444954494f 
000049a6 4e5f43484543 
000049ac 4b5f44454d5f 
000049b2 494e49544941 
000049b8 4c495a454428 
000049be 41504949442c 
000049c4 52455455524e 
000049ca 56414c554529 
000049d0 20646f207b44 
000049d6 454d5f415353 
000049dc 4552545f4953 
000049e2 4e4f544c4f43 
000049e8 4b454428293b 
000049ee 206966284465 

                                                                      Page 252
                                                              C:\Users\nhuliyap\AppData\Local\Temp\gh_00002581.s
000049f4 6d5f4f704d6f 
000049fa 537461746520 
00004a00 213d2044454d 
00004a06 5f4f504d4f5f 
00004a0c 53544154455f 
00004a12 494e49544941 
00004a18 4c495a454429 
00004a1e 207b44454d5f 
00004a24 444554284150 
00004a2a 4949442c2044 
00004a30 454d5f455f55 
00004a36 4e494e495429 
00004a3c 3b2072657475 
00004a42 726e20285245 
00004a48 5455524e5641 
00004a4e 4c5545293b20 
00004a54 7d7d7768696c 
00004a5a 6528302900 
00004a5f 01            11037 	.byte	1
00004a60 33            11038 	.byte	51
00004a61 44454d5f454e  11039 	.strz	"DEM_ENTRY_CONDITION_CHECK_NOT_NULL_PTR(POINTER,APIID,RETURNVALUE) do {DEM_ASSERT_ISNOTLOCKED(); if((POINTER)==NULL_PTR) { DEM_DET(APIID, DEM_E_PARAM_POINTER); return (RETURNVALUE); }}while(0)"
00004a67 5452595f434f 
00004a6d 4e444954494f 
00004a73 4e5f43484543 
00004a79 4b5f4e4f545f 
00004a7f 4e554c4c5f50 
00004a85 545228504f49 
00004a8b 4e5445522c41 
00004a91 504949442c52 
00004a97 455455524e56 
00004a9d 414c55452920 
00004aa3 646f207b4445 
00004aa9 4d5f41535345 
00004aaf 52545f49534e 
00004ab5 4f544c4f434b 
00004abb 454428293b20 
00004ac1 69662828504f 
00004ac7 494e54455229 
00004acd 3d3d4e554c4c 
00004ad3 5f5054522920 
00004ad9 7b2044454d5f 
00004adf 444554284150 
00004ae5 4949442c2044 
00004aeb 454d5f455f50 
00004af1 4152414d5f50 
00004af7 4f494e544552 
00004afd 293b20726574 
00004b03 75726e202852 
00004b09 455455524e56 
00004b0f 414c5545293b 
00004b15 207d7d776869 
00004b1b 6c6528302900 
00004b21 04            11040 	.byte	4
00004b22 03            11041 	.byte	3
00004b23 07            11042 	.byte	7
00004b24 43            11043 	.byte	67
00004b25 03            11044 	.byte	3
00004b26 04            11045 	.byte	4
00004b27 44            11046 	.byte	68
00004b28 03            11047 	.byte	3
00004b29 04            11048 	.byte	4

                                                                      Page 253
                                                              C:\Users\nhuliyap\AppData\Local\Temp\gh_00002581.s
00004b2a 45            11049 	.byte	69
00004b2b 03            11050 	.byte	3
00004b2c 44            11051 	.byte	68
00004b2d 46            11052 	.byte	70
00004b2e 01            11053 	.byte	1
00004b2f 17            11054 	.byte	23
00004b30 505241474d41  11055 	.strz	"PRAGMA(x) _Pragma(#x)"
00004b36 287829205f50 
00004b3c 7261676d6128 
00004b42 23782900 
00004b46 01            11056 	.byte	1
00004b47 18            11057 	.byte	24
00004b48 5f5f52454144  11058 	.strz	"__READ volatile const"
00004b4e 20766f6c6174 
00004b54 696c6520636f 
00004b5a 6e737400 
00004b5e 01            11059 	.byte	1
00004b5f 1a            11060 	.byte	26
00004b60 5f5f52454144  11061 	.strz	"__READ_WRITE volatile"
00004b66 5f5752495445 
00004b6c 20766f6c6174 
00004b72 696c6500 
00004b76 01            11062 	.byte	1
00004b77 1c            11063 	.byte	28
00004b78 5f5f494f5245  11064 	.strz	"__IOREG(reg,addr,attrib,type) PRAGMA(ghs io reg addr) extern attrib type reg;"
00004b7e 47287265672c 
00004b84 616464722c61 
00004b8a 74747269622c 
00004b90 747970652920 
00004b96 505241474d41 
00004b9c 286768732069 
00004ba2 6f2072656720 
00004ba8 616464722920 
00004bae 65787465726e 
00004bb4 206174747269 
00004bba 622074797065 
00004bc0 207265673b00 
00004bc6 01            11065 	.byte	1
00004bc7 1f            11066 	.byte	31
00004bc8 5f5f494f5245  11067 	.strz	"__IOREGARRAY(reg,array,addr,attrib,type) PRAGMA(ghs io reg addr) extern attrib type reg[array];"
00004bce 474152524159 
00004bd4 287265672c61 
00004bda 727261792c61 
00004be0 6464722c6174 
00004be6 747269622c74 
00004bec 797065292050 
00004bf2 5241474d4128 
00004bf8 67687320696f 
00004bfe 207265672061 
00004c04 646472292065 
00004c0a 787465726e20 
00004c10 617474726962 
00004c16 207479706520 
00004c1c 7265675b6172 
00004c22 7261795d3b00 
00004c28 04            11068 	.byte	4
00004c29 03            11069 	.byte	3
00004c2a 45            11070 	.byte	69
00004c2b 47            11071 	.byte	71
00004c2c 01            11072 	.byte	1
00004c2d 05            11073 	.byte	5

                                                                      Page 254
                                                              C:\Users\nhuliyap\AppData\Local\Temp\gh_00002581.s
00004c2e 5f494e4c494e  11074 	.strz	"_INLINE_ __inline"
00004c34 455f205f5f69 
00004c3a 6e6c696e6500 
00004c40 03            11075 	.byte	3
00004c41 06            11076 	.byte	6
00004c42 48            11077 	.byte	72
00004c43 01            11078 	.byte	1
00004c44 0f            11079 	.byte	15
00004c45 5f5f41545452  11080 	.strz	"__ATTRIBUTE(x) __attribute__(x)"
00004c4b 494255544528 
00004c51 7829205f5f61 
00004c57 747472696275 
00004c5d 74655f5f2878 
00004c63 2900 
00004c65 01            11081 	.byte	1
00004c66 74            11082 	.byte	116
00004c67 5f5f47455453  11083 	.strz	"__GETSP_macro() asm (\"mov sp, %0\" : \"=r\" (result));"
00004c6d 505f6d616372 
00004c73 6f2829206173 
00004c79 6d2028226d6f 
00004c7f 762073702c20 
00004c85 253022203a20 
00004c8b 223d72222028 
00004c91 726573756c74 
00004c97 29293b00 
00004c9b 04            11084 	.byte	4
00004c9c 01            11085 	.byte	1
00004c9d 09            11086 	.byte	9
00004c9e 7533325f5420  11087 	.strz	"u32_T unsigned long"
00004ca4 756e7369676e 
00004caa 6564206c6f6e 
00004cb0 6700 
00004cb2 01            11088 	.byte	1
00004cb3 b902          11089 	.byte	185,2
00004cb5 50535720352c  11090 	.strz	"PSW 5, 0"
00004cbb 203000 
00004cbe 01            11091 	.byte	1
00004cbf c302          11092 	.byte	195,2
00004cc1 4d4346473020  11093 	.strz	"MCFG0 0, 1"
00004cc7 302c203100 
00004ccc 01            11094 	.byte	1
00004ccd c502          11095 	.byte	197,2
00004ccf 454241534520  11096 	.strz	"EBASE 3, 1"
00004cd5 332c203100 
00004cda 01            11097 	.byte	1
00004cdb c602          11098 	.byte	198,2
00004cdd 494e54425020  11099 	.strz	"INTBP 4, 1"
00004ce3 342c203100 
00004ce8 01            11100 	.byte	1
00004ce9 c702          11101 	.byte	199,2
00004ceb 4d43544c2035  11102 	.strz	"MCTL 5, 1"
00004cf1 2c203100 
00004cf5 01            11103 	.byte	1
00004cf6 c902          11104 	.byte	201,2
00004cf8 534343464720  11105 	.strz	"SCCFG 11, 1"
00004cfe 31312c203100 
00004d04 01            11106 	.byte	1
00004d05 ce02          11107 	.byte	206,2
00004d07 415349442037  11108 	.strz	"ASID 7, 2"
00004d0d 2c203200 
00004d11 01            11109 	.byte	1

                                                                      Page 255
                                                              C:\Users\nhuliyap\AppData\Local\Temp\gh_00002581.s
00004d12 d002          11110 	.byte	208,2
00004d14 495350522031  11111 	.strz	"ISPR 10, 2"
00004d1a 302c203200 
00004d1f 01            11112 	.byte	1
00004d20 d102          11113 	.byte	209,2
00004d22 504d52203131  11114 	.strz	"PMR 11, 2"
00004d28 2c203200 
00004d2c 01            11115 	.byte	1
00004d2d d202          11116 	.byte	210,2
00004d2f 494353522031  11117 	.strz	"ICSR 12, 2"
00004d35 322c203200 
00004d3a 01            11118 	.byte	1
00004d3b d302          11119 	.byte	211,2
00004d3d 494e54434647  11120 	.strz	"INTCFG 13, 2"
00004d43 2031332c2032 
00004d49 00 
00004d4a 01            11121 	.byte	1
00004d4b d502          11122 	.byte	213,2
00004d4d 4d504d20302c  11123 	.strz	"MPM 0, 5"
00004d53 203500 
00004d56 01            11124 	.byte	1
00004d57 d602          11125 	.byte	214,2
00004d59 4d5052432031  11126 	.strz	"MPRC 1, 5"
00004d5f 2c203500 
00004d63 01            11127 	.byte	1
00004d64 d702          11128 	.byte	215,2
00004d66 4d504252474e  11129 	.strz	"MPBRGN 4, 5"
00004d6c 20342c203500 
00004d72 01            11130 	.byte	1
00004d73 d802          11131 	.byte	216,2
00004d75 4d505452474e  11132 	.strz	"MPTRGN 5, 5"
00004d7b 20352c203500 
00004d81 01            11133 	.byte	1
00004d82 d902          11134 	.byte	217,2
00004d84 4d434120382c  11135 	.strz	"MCA 8, 5"
00004d8a 203500 
00004d8d 01            11136 	.byte	1
00004d8e da02          11137 	.byte	218,2
00004d90 4d435320392c  11138 	.strz	"MCS 9, 5"
00004d96 203500 
00004d99 01            11139 	.byte	1
00004d9a db02          11140 	.byte	219,2
00004d9c 4d4343203130  11141 	.strz	"MCC 10, 5"
00004da2 2c203500 
00004da6 01            11142 	.byte	1
00004da7 dc02          11143 	.byte	220,2
00004da9 4d4352203131  11144 	.strz	"MCR 11, 5"
00004daf 2c203500 
00004db3 01            11145 	.byte	1
00004db4 de02          11146 	.byte	222,2
00004db6 4d504c413020  11147 	.strz	"MPLA0 0, 6"
00004dbc 302c203600 
00004dc1 01            11148 	.byte	1
00004dc2 df02          11149 	.byte	223,2
00004dc4 4d5055413020  11150 	.strz	"MPUA0 1, 6"
00004dca 312c203600 
00004dcf 01            11151 	.byte	1
00004dd0 e002          11152 	.byte	224,2
00004dd2 4d5041543020  11153 	.strz	"MPAT0 2, 6"
00004dd8 322c203600 
00004ddd 01            11154 	.byte	1

                                                                      Page 256
                                                              C:\Users\nhuliyap\AppData\Local\Temp\gh_00002581.s
00004dde e102          11155 	.byte	225,2
00004de0 4d504c413120  11156 	.strz	"MPLA1 4, 6"
00004de6 342c203600 
00004deb 01            11157 	.byte	1
00004dec e202          11158 	.byte	226,2
00004dee 4d5055413120  11159 	.strz	"MPUA1 5, 6"
00004df4 352c203600 
00004df9 01            11160 	.byte	1
00004dfa e302          11161 	.byte	227,2
00004dfc 4d5041543120  11162 	.strz	"MPAT1 6, 6"
00004e02 362c203600 
00004e07 01            11163 	.byte	1
00004e08 e402          11164 	.byte	228,2
00004e0a 4d504c413220  11165 	.strz	"MPLA2 8, 6"
00004e10 382c203600 
00004e15 01            11166 	.byte	1
00004e16 e502          11167 	.byte	229,2
00004e18 4d5055413220  11168 	.strz	"MPUA2 9, 6"
00004e1e 392c203600 
00004e23 01            11169 	.byte	1
00004e24 e602          11170 	.byte	230,2
00004e26 4d5041543220  11171 	.strz	"MPAT2 10, 6"
00004e2c 31302c203600 
00004e32 01            11172 	.byte	1
00004e33 e702          11173 	.byte	231,2
00004e35 4d504c413320  11174 	.strz	"MPLA3 12, 6"
00004e3b 31322c203600 
00004e41 01            11175 	.byte	1
00004e42 e802          11176 	.byte	232,2
00004e44 4d5055413320  11177 	.strz	"MPUA3 13, 6"
00004e4a 31332c203600 
00004e50 01            11178 	.byte	1
00004e51 e902          11179 	.byte	233,2
00004e53 4d5041543320  11180 	.strz	"MPAT3 14, 6"
00004e59 31342c203600 
00004e5f 01            11181 	.byte	1
00004e60 ea02          11182 	.byte	234,2
00004e62 4d504c413420  11183 	.strz	"MPLA4 16, 6"
00004e68 31362c203600 
00004e6e 01            11184 	.byte	1
00004e6f eb02          11185 	.byte	235,2
00004e71 4d5055413420  11186 	.strz	"MPUA4 17, 6"
00004e77 31372c203600 
00004e7d 01            11187 	.byte	1
00004e7e ec02          11188 	.byte	236,2
00004e80 4d5041543420  11189 	.strz	"MPAT4 18, 6"
00004e86 31382c203600 
00004e8c 01            11190 	.byte	1
00004e8d ed02          11191 	.byte	237,2
00004e8f 4d504c413520  11192 	.strz	"MPLA5 20, 6"
00004e95 32302c203600 
00004e9b 01            11193 	.byte	1
00004e9c ee02          11194 	.byte	238,2
00004e9e 4d5055413520  11195 	.strz	"MPUA5 21, 6"
00004ea4 32312c203600 
00004eaa 01            11196 	.byte	1
00004eab ef02          11197 	.byte	239,2
00004ead 4d5041543520  11198 	.strz	"MPAT5 22, 6"
00004eb3 32322c203600 
00004eb9 01            11199 	.byte	1
00004eba f002          11200 	.byte	240,2

                                                                      Page 257
                                                              C:\Users\nhuliyap\AppData\Local\Temp\gh_00002581.s
00004ebc 4d504c413620  11201 	.strz	"MPLA6 24, 6"
00004ec2 32342c203600 
00004ec8 01            11202 	.byte	1
00004ec9 f102          11203 	.byte	241,2
00004ecb 4d5055413620  11204 	.strz	"MPUA6 25, 6"
00004ed1 32352c203600 
00004ed7 01            11205 	.byte	1
00004ed8 f202          11206 	.byte	242,2
00004eda 4d5041543620  11207 	.strz	"MPAT6 26, 6"
00004ee0 32362c203600 
00004ee6 01            11208 	.byte	1
00004ee7 f302          11209 	.byte	243,2
00004ee9 4d4c55413720  11210 	.strz	"MLUA7 28, 6"
00004eef 32382c203600 
00004ef5 01            11211 	.byte	1
00004ef6 f402          11212 	.byte	244,2
00004ef8 4d5055413720  11213 	.strz	"MPUA7 29, 6"
00004efe 32392c203600 
00004f04 01            11214 	.byte	1
00004f05 f502          11215 	.byte	245,2
00004f07 4d5041543720  11216 	.strz	"MPAT7 30, 6"
00004f0d 33302c203600 
00004f13 01            11217 	.byte	1
00004f14 f602          11218 	.byte	246,2
00004f16 4d504c413820  11219 	.strz	"MPLA8 0, 7"
00004f1c 302c203700 
00004f21 01            11220 	.byte	1
00004f22 f702          11221 	.byte	247,2
00004f24 4d5055413820  11222 	.strz	"MPUA8 1, 7"
00004f2a 312c203700 
00004f2f 01            11223 	.byte	1
00004f30 f802          11224 	.byte	248,2
00004f32 4d5041543820  11225 	.strz	"MPAT8 2, 7"
00004f38 322c203700 
00004f3d 01            11226 	.byte	1
00004f3e f902          11227 	.byte	249,2
00004f40 4d504c413920  11228 	.strz	"MPLA9 4, 7"
00004f46 342c203700 
00004f4b 01            11229 	.byte	1
00004f4c fa02          11230 	.byte	250,2
00004f4e 4d5055413920  11231 	.strz	"MPUA9 5, 7"
00004f54 352c203700 
00004f59 01            11232 	.byte	1
00004f5a fb02          11233 	.byte	251,2
00004f5c 4d5041543920  11234 	.strz	"MPAT9 6, 7"
00004f62 362c203700 
00004f67 01            11235 	.byte	1
00004f68 fc02          11236 	.byte	252,2
00004f6a 4d504c413130  11237 	.strz	"MPLA10 8, 7"
00004f70 20382c203700 
00004f76 01            11238 	.byte	1
00004f77 fd02          11239 	.byte	253,2
00004f79 4d5055413130  11240 	.strz	"MPUA10 9, 7"
00004f7f 20392c203700 
00004f85 01            11241 	.byte	1
00004f86 fe02          11242 	.byte	254,2
00004f88 4d5041543130  11243 	.strz	"MPAT10 10, 7"
00004f8e 2031302c2037 
00004f94 00 
00004f95 01            11244 	.byte	1
00004f96 ff02          11245 	.byte	255,2

                                                                      Page 258
                                                              C:\Users\nhuliyap\AppData\Local\Temp\gh_00002581.s
00004f98 4d504c413131  11246 	.strz	"MPLA11 12, 7"
00004f9e 2031322c2037 
00004fa4 00 
00004fa5 01            11247 	.byte	1
00004fa6 8003          11248 	.byte	128,3
00004fa8 4d5055413131  11249 	.strz	"MPUA11 13, 7"
00004fae 2031332c2037 
00004fb4 00 
00004fb5 01            11250 	.byte	1
00004fb6 8103          11251 	.byte	129,3
00004fb8 4d5041543131  11252 	.strz	"MPAT11 14, 7"
00004fbe 2031342c2037 
00004fc4 00 
00004fc5 01            11253 	.byte	1
00004fc6 8203          11254 	.byte	130,3
00004fc8 4d504c413132  11255 	.strz	"MPLA12 16, 7"
00004fce 2031362c2037 
00004fd4 00 
00004fd5 01            11256 	.byte	1
00004fd6 8303          11257 	.byte	131,3
00004fd8 4d5055413132  11258 	.strz	"MPUA12 17, 7"
00004fde 2031372c2037 
00004fe4 00 
00004fe5 01            11259 	.byte	1
00004fe6 8403          11260 	.byte	132,3
00004fe8 4d5041543132  11261 	.strz	"MPAT12 18, 7"
00004fee 2031382c2037 
00004ff4 00 
00004ff5 01            11262 	.byte	1
00004ff6 8503          11263 	.byte	133,3
00004ff8 4d504c413133  11264 	.strz	"MPLA13 20, 7"
00004ffe 2032302c2037 
00005004 00 
00005005 01            11265 	.byte	1
00005006 8603          11266 	.byte	134,3
00005008 4d5055413133  11267 	.strz	"MPUA13 21, 7"
0000500e 2032312c2037 
00005014 00 
00005015 01            11268 	.byte	1
00005016 8703          11269 	.byte	135,3
00005018 4d5041543133  11270 	.strz	"MPAT13 22, 7"
0000501e 2032322c2037 
00005024 00 
00005025 01            11271 	.byte	1
00005026 8803          11272 	.byte	136,3
00005028 4d504c413134  11273 	.strz	"MPLA14 24, 7"
0000502e 2032342c2037 
00005034 00 
00005035 01            11274 	.byte	1
00005036 8903          11275 	.byte	137,3
00005038 4d5055413134  11276 	.strz	"MPUA14 25, 7"
0000503e 2032352c2037 
00005044 00 
00005045 01            11277 	.byte	1
00005046 8a03          11278 	.byte	138,3
00005048 4d5041543134  11279 	.strz	"MPAT14 26, 7"
0000504e 2032362c2037 
00005054 00 
00005055 01            11280 	.byte	1
00005056 8b03          11281 	.byte	139,3
00005058 4d504c413135  11282 	.strz	"MPLA15 28, 7"

                                                                      Page 259
                                                              C:\Users\nhuliyap\AppData\Local\Temp\gh_00002581.s
0000505e 2032382c2037 
00005064 00 
00005065 01            11283 	.byte	1
00005066 8c03          11284 	.byte	140,3
00005068 4d5055413135  11285 	.strz	"MPUA15 29, 7"
0000506e 2032392c2037 
00005074 00 
00005075 01            11286 	.byte	1
00005076 8d03          11287 	.byte	141,3
00005078 4d5041543135  11288 	.strz	"MPAT15 30, 7"
0000507e 2033302c2037 
00005084 00 
00005085 04            11289 	.byte	4
00005086 04            11290 	.byte	4
00005087 04            11291 	.byte	4
00005088 04            11292 	.byte	4
00005089 01            11293 	.byte	1
0000508a 09            11294 	.byte	9
0000508b 44454d5f454e  11295 	.strz	"DEM_ENTERLOCK_MON() SchM_Enter_Dem_Monitoring()"
00005091 5445524c4f43 
00005097 4b5f4d4f4e28 
0000509d 29205363684d 
000050a3 5f456e746572 
000050a9 5f44656d5f4d 
000050af 6f6e69746f72 
000050b5 696e67282900 
000050bb 01            11296 	.byte	1
000050bc 0a            11297 	.byte	10
000050bd 44454d5f4558  11298 	.strz	"DEM_EXITLOCK_MON() SchM_Exit_Dem_Monitoring()"
000050c3 49544c4f434b 
000050c9 5f4d4f4e2829 
000050cf 205363684d5f 
000050d5 457869745f44 
000050db 656d5f4d6f6e 
000050e1 69746f72696e 
000050e7 67282900 
000050eb 01            11299 	.byte	1
000050ec 0b            11300 	.byte	11
000050ed 44454d5f454e  11301 	.strz	"DEM_ENTERLOCK_DCM() SchM_Enter_Dem_Dcm()"
000050f3 5445524c4f43 
000050f9 4b5f44434d28 
000050ff 29205363684d 
00005105 5f456e746572 
0000510b 5f44656d5f44 
00005111 636d282900 
00005116 01            11302 	.byte	1
00005117 0c            11303 	.byte	12
00005118 44454d5f4558  11304 	.strz	"DEM_EXITLOCK_DCM() SchM_Exit_Dem_Dcm()"
0000511e 49544c4f434b 
00005124 5f44434d2829 
0000512a 205363684d5f 
00005130 457869745f44 
00005136 656d5f44636d 
0000513c 282900 
0000513f 01            11305 	.byte	1
00005140 0d            11306 	.byte	13
00005141 44454d5f4153  11307 	.strz	"DEM_ASSERT_ISLOCKED() do {}while(0)"
00005147 534552545f49 
0000514d 534c4f434b45 
00005153 44282920646f 
00005159 207b7d776869 

                                                                      Page 260
                                                              C:\Users\nhuliyap\AppData\Local\Temp\gh_00002581.s
0000515f 6c6528302900 
00005165 01            11308 	.byte	1
00005166 0e            11309 	.byte	14
00005167 44454d5f4153  11310 	.strz	"DEM_ASSERT_ISNOTLOCKED() do {}while(0)"
0000516d 534552545f49 
00005173 534e4f544c4f 
00005179 434b45442829 
0000517f 20646f207b7d 
00005185 7768696c6528 
0000518b 302900 
0000518e 04            11311 	.byte	4
0000518f 01            11312 	.byte	1
00005190 0a            11313 	.byte	10
00005191 44454d5f4249  11314 	.strz	"DEM_BITARRAY_DATAELEMENTS(BITCOUNT) ((((BITCOUNT)-1u) >> 5u)+1UL)"
00005197 544152524159 
0000519d 5f4441544145 
000051a3 4c454d454e54 
000051a9 532842495443 
000051af 4f554e542920 
000051b5 282828284249 
000051bb 54434f554e54 
000051c1 292d31752920 
000051c7 3e3e20357529 
000051cd 2b31554c2900 
000051d3 01            11315 	.byte	1
000051d4 0c            11316 	.byte	12
000051d5 44454d5f4249  11317 	.strz	"DEM_BITARRAY_DECLARE(VARNAME,BITCOUNT) DEM_ARRAY_DECLARE(uint32, VARNAME, DEM_BITARRAY_DATAELEMENTS(BITCOUNT))"
000051db 544152524159 
000051e1 5f4445434c41 
000051e7 524528564152 
000051ed 4e414d452c42 
000051f3 4954434f554e 
000051f9 54292044454d 
000051ff 5f4152524159 
00005205 5f4445434c41 
0000520b 52452875696e 
00005211 7433322c2056 
00005217 41524e414d45 
0000521d 2c2044454d5f 
00005223 424954415252 
00005229 41595f444154 
0000522f 41454c454d45 
00005235 4e5453284249 
0000523b 54434f554e54 
00005241 292900 
00005244 01            11318 	.byte	1
00005245 11            11319 	.byte	17
00005246 44454d5f4249  11320 	.strz	"DEM_BITARRAY_FUNCPARAM(VARNAME) DEM_ARRAY_FUNCPARAM(uint32,VARNAME)"
0000524c 544152524159 
00005252 5f46554e4350 
00005258 4152414d2856 
0000525e 41524e414d45 
00005264 292044454d5f 
0000526a 41525241595f 
00005270 46554e435041 
00005276 52414d287569 
0000527c 6e7433322c56 
00005282 41524e414d45 
00005288 2900 
0000528a 01            11321 	.byte	1
0000528b 12            11322 	.byte	18

                                                                      Page 261
                                                              C:\Users\nhuliyap\AppData\Local\Temp\gh_00002581.s
0000528c 44454d5f4249  11323 	.strz	"DEM_BITARRAY_CONSTFUNCPARAM(VARNAME) DEM_ARRAY_CONSTFUNCPARAM(uint32,VARNAME)"
00005292 544152524159 
00005298 5f434f4e5354 
0000529e 46554e435041 
000052a4 52414d285641 
000052aa 524e414d4529 
000052b0 2044454d5f41 
000052b6 525241595f43 
000052bc 4f4e53544655 
000052c2 4e4350415241 
000052c8 4d2875696e74 
000052ce 33322c564152 
000052d4 4e414d452900 
000052da 01            11324 	.byte	1
000052db 14            11325 	.byte	20
000052dc 44454d5f4249  11326 	.strz	"DEM_BITARRAY_ELEMENT_BITSIZE (DEM_SIZEOF_TYPE(uint32) * 8u)"
000052e2 544152524159 
000052e8 5f454c454d45 
000052ee 4e545f424954 
000052f4 53495a452028 
000052fa 44454d5f5349 
00005300 5a454f465f54 
00005306 595045287569 
0000530c 6e7433322920 
00005312 2a2038752900 
00005318 04            11327 	.byte	4
00005319 03            11328 	.byte	3
0000531a 0d            11329 	.byte	13
0000531b 49            11330 	.byte	73
0000531c 01            11331 	.byte	1
0000531d 09            11332 	.byte	9
0000531e 44454d5f4953  11333 	.strz	"DEM_ISO14229_TESTFAILED 0u"
00005324 4f3134323239 
0000532a 5f5445535446 
00005330 41494c454420 
00005336 307500 
00005339 01            11334 	.byte	1
0000533a 0a            11335 	.byte	10
0000533b 44454d5f4953  11336 	.strz	"DEM_ISO14229_TESTFAILED_TOC 1u"
00005341 4f3134323239 
00005347 5f5445535446 
0000534d 41494c45445f 
00005353 544f43203175 
00005359 00 
0000535a 01            11337 	.byte	1
0000535b 0b            11338 	.byte	11
0000535c 44454d5f4953  11339 	.strz	"DEM_ISO14229_TESTFAILED_SLC 5u"
00005362 4f3134323239 
00005368 5f5445535446 
0000536e 41494c45445f 
00005374 534c43203575 
0000537a 00 
0000537b 01            11340 	.byte	1
0000537c 0c            11341 	.byte	12
0000537d 44454d5f4953  11342 	.strz	"DEM_ISO14229_TESTNOTCOMPLETE_TOC 6u"
00005383 4f3134323239 
00005389 5f544553544e 
0000538f 4f54434f4d50 
00005395 4c4554455f54 
0000539b 4f4320367500 
000053a1 01            11343 	.byte	1

                                                                      Page 262
                                                              C:\Users\nhuliyap\AppData\Local\Temp\gh_00002581.s
000053a2 0d            11344 	.byte	13
000053a3 44454d5f4953  11345 	.strz	"DEM_ISO14229_TESTNOTCOMPLETE_SLC 4u"
000053a9 4f3134323239 
000053af 5f544553544e 
000053b5 4f54434f4d50 
000053bb 4c4554455f53 
000053c1 4c4320347500 
000053c7 01            11346 	.byte	1
000053c8 0e            11347 	.byte	14
000053c9 44454d5f4953  11348 	.strz	"DEM_ISO14229_PENDINGDTC 2u"
000053cf 4f3134323239 
000053d5 5f50454e4449 
000053db 4e4744544320 
000053e1 327500 
000053e4 01            11349 	.byte	1
000053e5 0f            11350 	.byte	15
000053e6 44454d5f4953  11351 	.strz	"DEM_ISO14229_CONFIRMEDDTC 3u"
000053ec 4f3134323239 
000053f2 5f434f4e4649 
000053f8 524d45444454 
000053fe 4320337500 
00005403 01            11352 	.byte	1
00005404 10            11353 	.byte	16
00005405 44454d5f4953  11354 	.strz	"DEM_ISO14229_WARNINGINDICATOR 7u"
0000540b 4f3134323239 
00005411 5f5741524e49 
00005417 4e47494e4449 
0000541d 4341544f5220 
00005423 377500 
00005426 01            11355 	.byte	1
00005427 12            11356 	.byte	18
00005428 44454d5f4953  11357 	.strz	"DEM_ISO14229_BM_TESTFAILED (1u<<DEM_ISO14229_TESTFAILED)"
0000542e 4f3134323239 
00005434 5f424d5f5445 
0000543a 53544641494c 
00005440 454420283175 
00005446 3c3c44454d5f 
0000544c 49534f313432 
00005452 32395f544553 
00005458 544641494c45 
0000545e 442900 
00005461 01            11358 	.byte	1
00005462 13            11359 	.byte	19
00005463 44454d5f4953  11360 	.strz	"DEM_ISO14229_BM_TESTFAILED_TOC (1u<<DEM_ISO14229_TESTFAILED_TOC)"
00005469 4f3134323239 
0000546f 5f424d5f5445 
00005475 53544641494c 
0000547b 45445f544f43 
00005481 202831753c3c 
00005487 44454d5f4953 
0000548d 4f3134323239 
00005493 5f5445535446 
00005499 41494c45445f 
0000549f 544f432900 
000054a4 01            11361 	.byte	1
000054a5 14            11362 	.byte	20
000054a6 44454d5f4953  11363 	.strz	"DEM_ISO14229_BM_TESTFAILED_SLC (1u<<DEM_ISO14229_TESTFAILED_SLC)"
000054ac 4f3134323239 
000054b2 5f424d5f5445 
000054b8 53544641494c 
000054be 45445f534c43 

                                                                      Page 263
                                                              C:\Users\nhuliyap\AppData\Local\Temp\gh_00002581.s
000054c4 202831753c3c 
000054ca 44454d5f4953 
000054d0 4f3134323239 
000054d6 5f5445535446 
000054dc 41494c45445f 
000054e2 534c432900 
000054e7 01            11364 	.byte	1
000054e8 15            11365 	.byte	21
000054e9 44454d5f4953  11366 	.strz	"DEM_ISO14229_BM_TESTNOTCOMPLETE_TOC (1u<<DEM_ISO14229_TESTNOTCOMPLETE_TOC)"
000054ef 4f3134323239 
000054f5 5f424d5f5445 
000054fb 53544e4f5443 
00005501 4f4d504c4554 
00005507 455f544f4320 
0000550d 2831753c3c44 
00005513 454d5f49534f 
00005519 31343232395f 
0000551f 544553544e4f 
00005525 54434f4d504c 
0000552b 4554455f544f 
00005531 432900 
00005534 01            11367 	.byte	1
00005535 16            11368 	.byte	22
00005536 44454d5f4953  11369 	.strz	"DEM_ISO14229_BM_TESTNOTCOMPLETE_SLC (1u<<DEM_ISO14229_TESTNOTCOMPLETE_SLC)"
0000553c 4f3134323239 
00005542 5f424d5f5445 
00005548 53544e4f5443 
0000554e 4f4d504c4554 
00005554 455f534c4320 
0000555a 2831753c3c44 
00005560 454d5f49534f 
00005566 31343232395f 
0000556c 544553544e4f 
00005572 54434f4d504c 
00005578 4554455f534c 
0000557e 432900 
00005581 01            11370 	.byte	1
00005582 17            11371 	.byte	23
00005583 44454d5f4953  11372 	.strz	"DEM_ISO14229_BM_PENDINGDTC (1u<<DEM_ISO14229_PENDINGDTC)"
00005589 4f3134323239 
0000558f 5f424d5f5045 
00005595 4e44494e4744 
0000559b 544320283175 
000055a1 3c3c44454d5f 
000055a7 49534f313432 
000055ad 32395f50454e 
000055b3 44494e474454 
000055b9 432900 
000055bc 01            11373 	.byte	1
000055bd 18            11374 	.byte	24
000055be 44454d5f4953  11375 	.strz	"DEM_ISO14229_BM_CONFIRMEDDTC (1u<<DEM_ISO14229_CONFIRMEDDTC)"
000055c4 4f3134323239 
000055ca 5f424d5f434f 
000055d0 4e4649524d45 
000055d6 444454432028 
000055dc 31753c3c4445 
000055e2 4d5f49534f31 
000055e8 343232395f43 
000055ee 4f4e4649524d 
000055f4 454444544329 
000055fa 00 

                                                                      Page 264
                                                              C:\Users\nhuliyap\AppData\Local\Temp\gh_00002581.s
000055fb 01            11376 	.byte	1
000055fc 19            11377 	.byte	25
000055fd 44454d5f4953  11378 	.strz	"DEM_ISO14229_BM_WARNINGINDICATOR (1u<<DEM_ISO14229_WARNINGINDICATOR)"
00005603 4f3134323239 
00005609 5f424d5f5741 
0000560f 524e494e4749 
00005615 4e4449434154 
0000561b 4f5220283175 
00005621 3c3c44454d5f 
00005627 49534f313432 
0000562d 32395f574152 
00005633 4e494e47494e 
00005639 44494341544f 
0000563f 522900 
00005642 04            11379 	.byte	4
00005643 03            11380 	.byte	3
00005644 0f            11381 	.byte	15
00005645 4a            11382 	.byte	74
00005646 03            11383 	.byte	3
00005647 06            11384 	.byte	6
00005648 4b            11385 	.byte	75
00005649 01            11386 	.byte	1
0000564a 0d            11387 	.byte	13
0000564b 44454d5f4346  11388 	.strz	"DEM_CFG_CLEAR_DTC_LIMITATION_ALL_SUPPORTED_DTCS 1"
00005651 475f434c4541 
00005657 525f4454435f 
0000565d 4c494d495441 
00005663 54494f4e5f41 
00005669 4c4c5f535550 
0000566f 504f52544544 
00005675 5f4454435320 
0000567b 3100 
0000567d 01            11389 	.byte	1
0000567e 0e            11390 	.byte	14
0000567f 44454d5f4346  11391 	.strz	"DEM_CFG_CLEAR_DTC_LIMITATION_ONLY_CLEAR_ALL_DTCS 2"
00005685 475f434c4541 
0000568b 525f4454435f 
00005691 4c494d495441 
00005697 54494f4e5f4f 
0000569d 4e4c595f434c 
000056a3 4541525f414c 
000056a9 4c5f44544353 
000056af 203200 
000056b2 01            11392 	.byte	1
000056b3 0f            11393 	.byte	15
000056b4 44454d5f4346  11394 	.strz	"DEM_CFG_CLEAR_DTC_LIMITATION DEM_CFG_CLEAR_DTC_LIMITATION_ALL_SUPPORTED_DTCS"
000056ba 475f434c4541 
000056c0 525f4454435f 
000056c6 4c494d495441 
000056cc 54494f4e2044 
000056d2 454d5f434647 
000056d8 5f434c454152 
000056de 5f4454435f4c 
000056e4 494d49544154 
000056ea 494f4e5f414c 
000056f0 4c5f53555050 
000056f6 4f525445445f 
000056fc 4454435300 
00005701 04            11395 	.byte	4
00005702 03            11396 	.byte	3
00005703 09            11397 	.byte	9

                                                                      Page 265
                                                              C:\Users\nhuliyap\AppData\Local\Temp\gh_00002581.s
00005704 4c            11398 	.byte	76
00005705 03            11399 	.byte	3
00005706 0c            11400 	.byte	12
00005707 4d            11401 	.byte	77
00005708 04            11402 	.byte	4
00005709 01            11403 	.byte	1
0000570a 16            11404 	.byte	22
0000570b 44454d5f4556  11405 	.strz	"DEM_EVENTIDITERATORNEW 1"
00005711 454e54494449 
00005717 54455241544f 
0000571d 524e45572031 
00005723 00 
00005724 01            11406 	.byte	1
00005725 73            11407 	.byte	115
00005726 44454d5f5354  11408 	.strz	"DEM_START_SEC_ROM_CONST "
0000572c 4152545f5345 
00005732 435f524f4d5f 
00005738 434f4e535420 
0000573e 00 
0000573f 03            11409 	.byte	3
00005740 74            11410 	.byte	116
00005741 1d            11411 	.byte	29
00005742 01            11412 	.byte	1
00005743 06            11413 	.byte	6
00005744 44454d5f4d45  11414 	.strz	"DEM_MEMMAP_ERROR "
0000574a 4d4d41505f45 
00005750 52524f522000 
00005756 01            11415 	.byte	1
00005757 3a            11416 	.byte	58
00005758 4253575f5354  11417 	.strz	"BSW_START_SEC_CONST_UNSPECIFIED "
0000575e 4152545f5345 
00005764 435f434f4e53 
0000576a 545f554e5350 
00005770 454349464945 
00005776 442000 
00005779 03            11418 	.byte	3
0000577a 3b            11419 	.byte	59
0000577b 1e            11420 	.byte	30
0000577c 01            11421 	.byte	1
0000577d f005          11422 	.byte	240,5
0000577f 53544152545f  11423 	.strz	"START_SEC_CONST_UNSPECIFIED "
00005785 5345435f434f 
0000578b 4e53545f554e 
00005791 535045434946 
00005797 4945442000 
0000579c 03            11424 	.byte	3
0000579d bb09          11425 	.byte	187,9
0000579f 1f            11426 	.byte	31
000057a0 01            11427 	.byte	1
000057a1 b408          11428 	.byte	180,8
000057a3 434f4e53545f  11429 	.strz	"CONST_SEC_OPEN "
000057a9 5345435f4f50 
000057af 454e2000 
000057b3 04            11430 	.byte	4
000057b4 04            11431 	.byte	4
000057b5 01            11432 	.byte	1
000057b6 3f            11433 	.byte	63
000057b7 44454d5f5741  11434 	.strz	"DEM_WAS_STARTED_SEC_ROM_CONST "
000057bd 535f53544152 
000057c3 5445445f5345 
000057c9 435f524f4d5f 

                                                                      Page 266
                                                              C:\Users\nhuliyap\AppData\Local\Temp\gh_00002581.s
000057cf 434f4e535420 
000057d5 00 
000057d6 04            11435 	.byte	4
000057d7 01            11436 	.byte	1
000057d8 77            11437 	.byte	119
000057d9 44454d5f5354  11438 	.strz	"DEM_STOP_SEC_ROM_CONST "
000057df 4f505f534543 
000057e5 5f524f4d5f43 
000057eb 4f4e53542000 
000057f1 03            11439 	.byte	3
000057f2 78            11440 	.byte	120
000057f3 1d            11441 	.byte	29
000057f4 01            11442 	.byte	1
000057f5 06            11443 	.byte	6
000057f6 44454d5f4d45  11444 	.strz	"DEM_MEMMAP_ERROR "
000057fc 4d4d41505f45 
00005802 52524f522000 
00005808 01            11445 	.byte	1
00005809 47            11446 	.byte	71
0000580a 4253575f5354  11447 	.strz	"BSW_STOP_SEC_CONST_UNSPECIFIED "
00005810 4f505f534543 
00005816 5f434f4e5354 
0000581c 5f554e535045 
00005822 434946494544 
00005828 2000 
0000582a 03            11448 	.byte	3
0000582b 48            11449 	.byte	72
0000582c 1e            11450 	.byte	30
0000582d 01            11451 	.byte	1
0000582e f405          11452 	.byte	244,5
00005830 53544f505f53  11453 	.strz	"STOP_SEC_CONST "
00005836 45435f434f4e 
0000583c 53542000 
00005840 03            11454 	.byte	3
00005841 bb09          11455 	.byte	187,9
00005843 1f            11456 	.byte	31
00005844 04            11457 	.byte	4
00005845 04            11458 	.byte	4
00005846 04            11459 	.byte	4
00005847 01            11460 	.byte	1
00005848 a701          11461 	.byte	167,1
0000584a 44454d5f4454  11462 	.strz	"DEM_DTCIDITERATOR_NEW() 1"
00005850 434944495445 
00005856 5241544f525f 
0000585c 4e4557282920 
00005862 3100 
00005864 01            11463 	.byte	1
00005865 c301          11464 	.byte	195,1
00005867 44454d5f4454  11465 	.strz	"DEM_DTCGROUPIDITERATOR_NEW() 1"
0000586d 4347524f5550 
00005873 494449544552 
00005879 41544f525f4e 
0000587f 455728292031 
00005885 00 
00005886 01            11466 	.byte	1
00005887 ab02          11467 	.byte	171,2
00005889 44454d5f5354  11468 	.strz	"DEM_START_SEC_ROM_CONST "
0000588f 4152545f5345 
00005895 435f524f4d5f 
0000589b 434f4e535420 
000058a1 00 

                                                                      Page 267
                                                              C:\Users\nhuliyap\AppData\Local\Temp\gh_00002581.s
000058a2 03            11469 	.byte	3
000058a3 ac02          11470 	.byte	172,2
000058a5 1d            11471 	.byte	29
000058a6 01            11472 	.byte	1
000058a7 06            11473 	.byte	6
000058a8 44454d5f4d45  11474 	.strz	"DEM_MEMMAP_ERROR "
000058ae 4d4d41505f45 
000058b4 52524f522000 
000058ba 01            11475 	.byte	1
000058bb 3a            11476 	.byte	58
000058bc 4253575f5354  11477 	.strz	"BSW_START_SEC_CONST_UNSPECIFIED "
000058c2 4152545f5345 
000058c8 435f434f4e53 
000058ce 545f554e5350 
000058d4 454349464945 
000058da 442000 
000058dd 03            11478 	.byte	3
000058de 3b            11479 	.byte	59
000058df 1e            11480 	.byte	30
000058e0 01            11481 	.byte	1
000058e1 f005          11482 	.byte	240,5
000058e3 53544152545f  11483 	.strz	"START_SEC_CONST_UNSPECIFIED "
000058e9 5345435f434f 
000058ef 4e53545f554e 
000058f5 535045434946 
000058fb 4945442000 
00005900 03            11484 	.byte	3
00005901 bb09          11485 	.byte	187,9
00005903 1f            11486 	.byte	31
00005904 01            11487 	.byte	1
00005905 b408          11488 	.byte	180,8
00005907 434f4e53545f  11489 	.strz	"CONST_SEC_OPEN "
0000590d 5345435f4f50 
00005913 454e2000 
00005917 04            11490 	.byte	4
00005918 04            11491 	.byte	4
00005919 01            11492 	.byte	1
0000591a 3f            11493 	.byte	63
0000591b 44454d5f5741  11494 	.strz	"DEM_WAS_STARTED_SEC_ROM_CONST "
00005921 535f53544152 
00005927 5445445f5345 
0000592d 435f524f4d5f 
00005933 434f4e535420 
00005939 00 
0000593a 04            11495 	.byte	4
0000593b 01            11496 	.byte	1
0000593c ae02          11497 	.byte	174,2
0000593e 44454d5f5354  11498 	.strz	"DEM_STOP_SEC_ROM_CONST "
00005944 4f505f534543 
0000594a 5f524f4d5f43 
00005950 4f4e53542000 
00005956 03            11499 	.byte	3
00005957 af02          11500 	.byte	175,2
00005959 1d            11501 	.byte	29
0000595a 01            11502 	.byte	1
0000595b 06            11503 	.byte	6
0000595c 44454d5f4d45  11504 	.strz	"DEM_MEMMAP_ERROR "
00005962 4d4d41505f45 
00005968 52524f522000 
0000596e 01            11505 	.byte	1
0000596f 47            11506 	.byte	71

                                                                      Page 268
                                                              C:\Users\nhuliyap\AppData\Local\Temp\gh_00002581.s
00005970 4253575f5354  11507 	.strz	"BSW_STOP_SEC_CONST_UNSPECIFIED "
00005976 4f505f534543 
0000597c 5f434f4e5354 
00005982 5f554e535045 
00005988 434946494544 
0000598e 2000 
00005990 03            11508 	.byte	3
00005991 48            11509 	.byte	72
00005992 1e            11510 	.byte	30
00005993 01            11511 	.byte	1
00005994 f405          11512 	.byte	244,5
00005996 53544f505f53  11513 	.strz	"STOP_SEC_CONST "
0000599c 45435f434f4e 
000059a2 53542000 
000059a6 03            11514 	.byte	3
000059a7 bb09          11515 	.byte	187,9
000059a9 1f            11516 	.byte	31
000059aa 04            11517 	.byte	4
000059ab 04            11518 	.byte	4
000059ac 04            11519 	.byte	4
000059ad 04            11520 	.byte	4
000059ae 01            11521 	.byte	1
000059af 0b            11522 	.byte	11
000059b0 44454d5f5354  11523 	.strz	"DEM_START_SEC_ROM_CODE "
000059b6 4152545f5345 
000059bc 435f524f4d5f 
000059c2 434f44452000 
000059c8 03            11524 	.byte	3
000059c9 0c            11525 	.byte	12
000059ca 1d            11526 	.byte	29
000059cb 01            11527 	.byte	1
000059cc 06            11528 	.byte	6
000059cd 44454d5f4d45  11529 	.strz	"DEM_MEMMAP_ERROR "
000059d3 4d4d41505f45 
000059d9 52524f522000 
000059df 01            11530 	.byte	1
000059e0 51            11531 	.byte	81
000059e1 4253575f5354  11532 	.strz	"BSW_START_SEC_CODE "
000059e7 4152545f5345 
000059ed 435f434f4445 
000059f3 2000 
000059f5 03            11533 	.byte	3
000059f6 52            11534 	.byte	82
000059f7 1e            11535 	.byte	30
000059f8 01            11536 	.byte	1
000059f9 da08          11537 	.byte	218,8
000059fb 53544152545f  11538 	.strz	"START_SEC_CODE "
00005a01 5345435f434f 
00005a07 44452000 
00005a0b 03            11539 	.byte	3
00005a0c bb09          11540 	.byte	187,9
00005a0e 1f            11541 	.byte	31
00005a0f 01            11542 	.byte	1
00005a10 f307          11543 	.byte	243,7
00005a12 434f44455f53  11544 	.strz	"CODE_SEC_OPEN "
00005a18 45435f4f5045 
00005a1e 4e2000 
00005a21 04            11545 	.byte	4
00005a22 04            11546 	.byte	4
00005a23 01            11547 	.byte	1
00005a24 56            11548 	.byte	86

                                                                      Page 269
                                                              C:\Users\nhuliyap\AppData\Local\Temp\gh_00002581.s
00005a25 44454d5f5741  11549 	.strz	"DEM_WAS_STARTED_SEC_ROM_CODE "
00005a2b 535f53544152 
00005a31 5445445f5345 
00005a37 435f524f4d5f 
00005a3d 434f44452000 
00005a43 04            11550 	.byte	4
00005a44 01            11551 	.byte	1
00005a45 12            11552 	.byte	18
00005a46 44454d5f5354  11553 	.strz	"DEM_STOP_SEC_ROM_CODE "
00005a4c 4f505f534543 
00005a52 5f524f4d5f43 
00005a58 4f44452000 
00005a5d 03            11554 	.byte	3
00005a5e 13            11555 	.byte	19
00005a5f 1d            11556 	.byte	29
00005a60 01            11557 	.byte	1
00005a61 06            11558 	.byte	6
00005a62 44454d5f4d45  11559 	.strz	"DEM_MEMMAP_ERROR "
00005a68 4d4d41505f45 
00005a6e 52524f522000 
00005a74 01            11560 	.byte	1
00005a75 5e            11561 	.byte	94
00005a76 4253575f5354  11562 	.strz	"BSW_STOP_SEC_CODE "
00005a7c 4f505f534543 
00005a82 5f434f444520 
00005a88 00 
00005a89 03            11563 	.byte	3
00005a8a 5f            11564 	.byte	95
00005a8b 1e            11565 	.byte	30
00005a8c 01            11566 	.byte	1
00005a8d de08          11567 	.byte	222,8
00005a8f 53544f505f53  11568 	.strz	"STOP_SEC_CODE "
00005a95 45435f434f44 
00005a9b 452000 
00005a9e 03            11569 	.byte	3
00005a9f bb09          11570 	.byte	187,9
00005aa1 1f            11571 	.byte	31
00005aa2 04            11572 	.byte	4
00005aa3 04            11573 	.byte	4
00005aa4 04            11574 	.byte	4
00005aa5 04            11575 	.byte	4
00005aa6 03            11576 	.byte	3
00005aa7 12            11577 	.byte	18
00005aa8 4e            11578 	.byte	78
00005aa9 01            11579 	.byte	1
00005aaa 08            11580 	.byte	8
00005aab 44454d5f4346  11581 	.strz	"DEM_CFG_FFPRESTORAGESUPPORT_ON STD_ON"
00005ab1 475f46465052 
00005ab7 4553544f5241 
00005abd 474553555050 
00005ac3 4f52545f4f4e 
00005ac9 205354445f4f 
00005acf 4e00 
00005ad1 01            11582 	.byte	1
00005ad2 09            11583 	.byte	9
00005ad3 44454d5f4346  11584 	.strz	"DEM_CFG_FFPRESTORAGESUPPORT DEM_CFG_FFPRESTORAGESUPPORT_ON"
00005ad9 475f46465052 
00005adf 4553544f5241 
00005ae5 474553555050 
00005aeb 4f5254204445 
00005af1 4d5f4346475f 

                                                                      Page 270
                                                              C:\Users\nhuliyap\AppData\Local\Temp\gh_00002581.s
00005af7 464650524553 
00005afd 544f52414745 
00005b03 535550504f52 
00005b09 545f4f4e00 
00005b0e 01            11585 	.byte	1
00005b0f 0a            11586 	.byte	10
00005b10 44454d5f4346  11587 	.strz	"DEM_CFG_FFPRESTORAGE_NONVOLATILE_OFF STD_OFF"
00005b16 475f46465052 
00005b1c 4553544f5241 
00005b22 47455f4e4f4e 
00005b28 564f4c415449 
00005b2e 4c455f4f4646 
00005b34 205354445f4f 
00005b3a 464600 
00005b3d 01            11588 	.byte	1
00005b3e 0b            11589 	.byte	11
00005b3f 44454d5f4346  11590 	.strz	"DEM_CFG_FFPRESTORAGE_NONVOLATILE_ON STD_ON"
00005b45 475f46465052 
00005b4b 4553544f5241 
00005b51 47455f4e4f4e 
00005b57 564f4c415449 
00005b5d 4c455f4f4e20 
00005b63 5354445f4f4e 
00005b69 00 
00005b6a 01            11591 	.byte	1
00005b6b 0c            11592 	.byte	12
00005b6c 44454d5f4346  11593 	.strz	"DEM_CFG_FFPRESTORAGE_NONVOLATILE DEM_CFG_FFPRESTORAGE_NONVOLATILE_OFF"
00005b72 475f46465052 
00005b78 4553544f5241 
00005b7e 47455f4e4f4e 
00005b84 564f4c415449 
00005b8a 4c452044454d 
00005b90 5f4346475f46 
00005b96 465052455354 
00005b9c 4f524147455f 
00005ba2 4e4f4e564f4c 
00005ba8 4154494c455f 
00005bae 4f464600 
00005bb2 01            11594 	.byte	1
00005bb3 10            11595 	.byte	16
00005bb4 44454d5f4346  11596 	.strz	"DEM_CFG_EVBUFF_SIZE 1u"
00005bba 475f45564255 
00005bc0 46465f53495a 
00005bc6 4520317500 
00005bcb 01            11597 	.byte	1
00005bcc 12            11598 	.byte	18
00005bcd 44454d5f4346  11599 	.strz	"DEM_CFG_SUPPORT_PROJECTSPECIFIC_FAILUREMEMORY FALSE"
00005bd3 475f53555050 
00005bd9 4f52545f5052 
00005bdf 4f4a45435453 
00005be5 504543494649 
00005beb 435f4641494c 
00005bf1 5552454d454d 
00005bf7 4f5259204641 
00005bfd 4c534500 
00005c01 04            11600 	.byte	4
00005c02 03            11601 	.byte	3
00005c03 14            11602 	.byte	20
00005c04 4f            11603 	.byte	79
00005c05 04            11604 	.byte	4
00005c06 03            11605 	.byte	3

                                                                      Page 271
                                                              C:\Users\nhuliyap\AppData\Local\Temp\gh_00002581.s
00005c07 15            11606 	.byte	21
00005c08 50            11607 	.byte	80
00005c09 01            11608 	.byte	1
00005c0a 27            11609 	.byte	39
00005c0b 44454d5f5354  11610 	.strz	"DEM_START_SEC_ROM_CODE "
00005c11 4152545f5345 
00005c17 435f524f4d5f 
00005c1d 434f44452000 
00005c23 03            11611 	.byte	3
00005c24 28            11612 	.byte	40
00005c25 1d            11613 	.byte	29
00005c26 01            11614 	.byte	1
00005c27 06            11615 	.byte	6
00005c28 44454d5f4d45  11616 	.strz	"DEM_MEMMAP_ERROR "
00005c2e 4d4d41505f45 
00005c34 52524f522000 
00005c3a 01            11617 	.byte	1
00005c3b 51            11618 	.byte	81
00005c3c 4253575f5354  11619 	.strz	"BSW_START_SEC_CODE "
00005c42 4152545f5345 
00005c48 435f434f4445 
00005c4e 2000 
00005c50 03            11620 	.byte	3
00005c51 52            11621 	.byte	82
00005c52 1e            11622 	.byte	30
00005c53 01            11623 	.byte	1
00005c54 da08          11624 	.byte	218,8
00005c56 53544152545f  11625 	.strz	"START_SEC_CODE "
00005c5c 5345435f434f 
00005c62 44452000 
00005c66 03            11626 	.byte	3
00005c67 bb09          11627 	.byte	187,9
00005c69 1f            11628 	.byte	31
00005c6a 01            11629 	.byte	1
00005c6b f307          11630 	.byte	243,7
00005c6d 434f44455f53  11631 	.strz	"CODE_SEC_OPEN "
00005c73 45435f4f5045 
00005c79 4e2000 
00005c7c 04            11632 	.byte	4
00005c7d 04            11633 	.byte	4
00005c7e 01            11634 	.byte	1
00005c7f 56            11635 	.byte	86
00005c80 44454d5f5741  11636 	.strz	"DEM_WAS_STARTED_SEC_ROM_CODE "
00005c86 535f53544152 
00005c8c 5445445f5345 
00005c92 435f524f4d5f 
00005c98 434f44452000 
00005c9e 04            11637 	.byte	4
00005c9f 01            11638 	.byte	1
00005ca0 67            11639 	.byte	103
00005ca1 44454d5f5354  11640 	.strz	"DEM_STOP_SEC_ROM_CODE "
00005ca7 4f505f534543 
00005cad 5f524f4d5f43 
00005cb3 4f44452000 
00005cb8 03            11641 	.byte	3
00005cb9 68            11642 	.byte	104
00005cba 1d            11643 	.byte	29
00005cbb 01            11644 	.byte	1
00005cbc 06            11645 	.byte	6
00005cbd 44454d5f4d45  11646 	.strz	"DEM_MEMMAP_ERROR "
00005cc3 4d4d41505f45 

                                                                      Page 272
                                                              C:\Users\nhuliyap\AppData\Local\Temp\gh_00002581.s
00005cc9 52524f522000 
00005ccf 01            11647 	.byte	1
00005cd0 5e            11648 	.byte	94
00005cd1 4253575f5354  11649 	.strz	"BSW_STOP_SEC_CODE "
00005cd7 4f505f534543 
00005cdd 5f434f444520 
00005ce3 00 
00005ce4 03            11650 	.byte	3
00005ce5 5f            11651 	.byte	95
00005ce6 1e            11652 	.byte	30
00005ce7 01            11653 	.byte	1
00005ce8 de08          11654 	.byte	222,8
00005cea 53544f505f53  11655 	.strz	"STOP_SEC_CODE "
00005cf0 45435f434f44 
00005cf6 452000 
00005cf9 03            11656 	.byte	3
00005cfa bb09          11657 	.byte	187,9
00005cfc 1f            11658 	.byte	31
00005cfd 04            11659 	.byte	4
00005cfe 04            11660 	.byte	4
00005cff 04            11661 	.byte	4
00005d00 04            11662 	.byte	4
00005d01 03            11663 	.byte	3
00005d02 16            11664 	.byte	22
00005d03 51            11665 	.byte	81
00005d04 04            11666 	.byte	4
00005d05 03            11667 	.byte	3
00005d06 19            11668 	.byte	25
00005d07 52            11669 	.byte	82
00005d08 01            11670 	.byte	1
00005d09 06            11671 	.byte	6
00005d0a 44454d5f4346  11672 	.strz	"DEM_CFG_DISTURBANCE_MEMORY_ON STD_ON"
00005d10 475f44495354 
00005d16 555242414e43 
00005d1c 455f4d454d4f 
00005d22 52595f4f4e20 
00005d28 5354445f4f4e 
00005d2e 00 
00005d2f 01            11673 	.byte	1
00005d30 07            11674 	.byte	7
00005d31 44454d5f4346  11675 	.strz	"DEM_CFG_DISTURBANCE_MEMORY_OFF STD_OFF"
00005d37 475f44495354 
00005d3d 555242414e43 
00005d43 455f4d454d4f 
00005d49 52595f4f4646 
00005d4f 205354445f4f 
00005d55 464600 
00005d58 01            11676 	.byte	1
00005d59 08            11677 	.byte	8
00005d5a 44454d5f4346  11678 	.strz	"DEM_CFG_DISTURBANCE_MEMORY DEM_CFG_DISTURBANCE_MEMORY_OFF"
00005d60 475f44495354 
00005d66 555242414e43 
00005d6c 455f4d454d4f 
00005d72 52592044454d 
00005d78 5f4346475f44 
00005d7e 495354555242 
00005d84 414e43455f4d 
00005d8a 454d4f52595f 
00005d90 4f464600 
00005d94 01            11679 	.byte	1
00005d95 0a            11680 	.byte	10

                                                                      Page 273
                                                              C:\Users\nhuliyap\AppData\Local\Temp\gh_00002581.s
00005d96 44454d5f4346  11681 	.strz	"DEM_CFG_DIST_MEM_CALLBACK_ON_DISTURBANCE_ON STD_ON"
00005d9c 475f44495354 
00005da2 5f4d454d5f43 
00005da8 414c4c424143 
00005dae 4b5f4f4e5f44 
00005db4 495354555242 
00005dba 414e43455f4f 
00005dc0 4e205354445f 
00005dc6 4f4e00 
00005dc9 01            11682 	.byte	1
00005dca 0b            11683 	.byte	11
00005dcb 44454d5f4346  11684 	.strz	"DEM_CFG_DIST_MEM_CALLBACK_ON_DISTURBANCE_OFF STD_OFF"
00005dd1 475f44495354 
00005dd7 5f4d454d5f43 
00005ddd 414c4c424143 
00005de3 4b5f4f4e5f44 
00005de9 495354555242 
00005def 414e43455f4f 
00005df5 464620535444 
00005dfb 5f4f464600 
00005e00 01            11685 	.byte	1
00005e01 0c            11686 	.byte	12
00005e02 44454d5f4346  11687 	.strz	"DEM_CFG_DIST_MEM_CALLBACK_ON_DISTURBANCE DEM_CFG_DIST_MEM_CALLBACK_ON_DISTURBANCE_OFF"
00005e08 475f44495354 
00005e0e 5f4d454d5f43 
00005e14 414c4c424143 
00005e1a 4b5f4f4e5f44 
00005e20 495354555242 
00005e26 414e43452044 
00005e2c 454d5f434647 
00005e32 5f444953545f 
00005e38 4d454d5f4341 
00005e3e 4c4c4241434b 
00005e44 5f4f4e5f4449 
00005e4a 535455524241 
00005e50 4e43455f4f46 
00005e56 4600 
00005e58 04            11688 	.byte	4
00005e59 03            11689 	.byte	3
00005e5a 1b            11690 	.byte	27
00005e5b 53            11691 	.byte	83
00005e5c 03            11692 	.byte	3
00005e5d 06            11693 	.byte	6
00005e5e 54            11694 	.byte	84
00005e5f 01            11695 	.byte	1
00005e60 04            11696 	.byte	4
00005e61 4e564d5f485f  11697 	.strz	"NVM_H_ "
00005e67 2000 
00005e69 03            11698 	.byte	3
00005e6a 13            11699 	.byte	19
00005e6b 55            11700 	.byte	85
00005e6c 03            11701 	.byte	3
00005e6d 0a            11702 	.byte	10
00005e6e 56            11703 	.byte	86
00005e6f 03            11704 	.byte	3
00005e70 05            11705 	.byte	5
00005e71 57            11706 	.byte	87
00005e72 03            11707 	.byte	3
00005e73 04            11708 	.byte	4
00005e74 58            11709 	.byte	88
00005e75 01            11710 	.byte	1

                                                                      Page 274
                                                              C:\Users\nhuliyap\AppData\Local\Temp\gh_00002581.s
00005e76 08            11711 	.byte	8
00005e77 44454d5f5354  11712 	.strz	"DEM_START_SEC_ROM_CODE "
00005e7d 4152545f5345 
00005e83 435f524f4d5f 
00005e89 434f44452000 
00005e8f 03            11713 	.byte	3
00005e90 09            11714 	.byte	9
00005e91 1d            11715 	.byte	29
00005e92 01            11716 	.byte	1
00005e93 06            11717 	.byte	6
00005e94 44454d5f4d45  11718 	.strz	"DEM_MEMMAP_ERROR "
00005e9a 4d4d41505f45 
00005ea0 52524f522000 
00005ea6 01            11719 	.byte	1
00005ea7 51            11720 	.byte	81
00005ea8 4253575f5354  11721 	.strz	"BSW_START_SEC_CODE "
00005eae 4152545f5345 
00005eb4 435f434f4445 
00005eba 2000 
00005ebc 03            11722 	.byte	3
00005ebd 52            11723 	.byte	82
00005ebe 1e            11724 	.byte	30
00005ebf 01            11725 	.byte	1
00005ec0 da08          11726 	.byte	218,8
00005ec2 53544152545f  11727 	.strz	"START_SEC_CODE "
00005ec8 5345435f434f 
00005ece 44452000 
00005ed2 03            11728 	.byte	3
00005ed3 bb09          11729 	.byte	187,9
00005ed5 1f            11730 	.byte	31
00005ed6 01            11731 	.byte	1
00005ed7 f307          11732 	.byte	243,7
00005ed9 434f44455f53  11733 	.strz	"CODE_SEC_OPEN "
00005edf 45435f4f5045 
00005ee5 4e2000 
00005ee8 04            11734 	.byte	4
00005ee9 04            11735 	.byte	4
00005eea 01            11736 	.byte	1
00005eeb 56            11737 	.byte	86
00005eec 44454d5f5741  11738 	.strz	"DEM_WAS_STARTED_SEC_ROM_CODE "
00005ef2 535f53544152 
00005ef8 5445445f5345 
00005efe 435f524f4d5f 
00005f04 434f44452000 
00005f0a 04            11739 	.byte	4
00005f0b 01            11740 	.byte	1
00005f0c 21            11741 	.byte	33
00005f0d 44454d5f5354  11742 	.strz	"DEM_STOP_SEC_ROM_CODE "
00005f13 4f505f534543 
00005f19 5f524f4d5f43 
00005f1f 4f44452000 
00005f24 03            11743 	.byte	3
00005f25 22            11744 	.byte	34
00005f26 1d            11745 	.byte	29
00005f27 01            11746 	.byte	1
00005f28 06            11747 	.byte	6
00005f29 44454d5f4d45  11748 	.strz	"DEM_MEMMAP_ERROR "
00005f2f 4d4d41505f45 
00005f35 52524f522000 
00005f3b 01            11749 	.byte	1
00005f3c 5e            11750 	.byte	94

                                                                      Page 275
                                                              C:\Users\nhuliyap\AppData\Local\Temp\gh_00002581.s
00005f3d 4253575f5354  11751 	.strz	"BSW_STOP_SEC_CODE "
00005f43 4f505f534543 
00005f49 5f434f444520 
00005f4f 00 
00005f50 03            11752 	.byte	3
00005f51 5f            11753 	.byte	95
00005f52 1e            11754 	.byte	30
00005f53 01            11755 	.byte	1
00005f54 de08          11756 	.byte	222,8
00005f56 53544f505f53  11757 	.strz	"STOP_SEC_CODE "
00005f5c 45435f434f44 
00005f62 452000 
00005f65 03            11758 	.byte	3
00005f66 bb09          11759 	.byte	187,9
00005f68 1f            11760 	.byte	31
00005f69 04            11761 	.byte	4
00005f6a 04            11762 	.byte	4
00005f6b 04            11763 	.byte	4
00005f6c 04            11764 	.byte	4
00005f6d 01            11765 	.byte	1
00005f6e 06            11766 	.byte	6
00005f6f 44454d5f5354  11767 	.strz	"DEM_START_SEC_ROM_CODE "
00005f75 4152545f5345 
00005f7b 435f524f4d5f 
00005f81 434f44452000 
00005f87 03            11768 	.byte	3
00005f88 07            11769 	.byte	7
00005f89 1d            11770 	.byte	29
00005f8a 01            11771 	.byte	1
00005f8b 06            11772 	.byte	6
00005f8c 44454d5f4d45  11773 	.strz	"DEM_MEMMAP_ERROR "
00005f92 4d4d41505f45 
00005f98 52524f522000 
00005f9e 01            11774 	.byte	1
00005f9f 51            11775 	.byte	81
00005fa0 4253575f5354  11776 	.strz	"BSW_START_SEC_CODE "
00005fa6 4152545f5345 
00005fac 435f434f4445 
00005fb2 2000 
00005fb4 03            11777 	.byte	3
00005fb5 52            11778 	.byte	82
00005fb6 1e            11779 	.byte	30
00005fb7 01            11780 	.byte	1
00005fb8 da08          11781 	.byte	218,8
00005fba 53544152545f  11782 	.strz	"START_SEC_CODE "
00005fc0 5345435f434f 
00005fc6 44452000 
00005fca 03            11783 	.byte	3
00005fcb bb09          11784 	.byte	187,9
00005fcd 1f            11785 	.byte	31
00005fce 01            11786 	.byte	1
00005fcf f307          11787 	.byte	243,7
00005fd1 434f44455f53  11788 	.strz	"CODE_SEC_OPEN "
00005fd7 45435f4f5045 
00005fdd 4e2000 
00005fe0 04            11789 	.byte	4
00005fe1 04            11790 	.byte	4
00005fe2 01            11791 	.byte	1
00005fe3 56            11792 	.byte	86
00005fe4 44454d5f5741  11793 	.strz	"DEM_WAS_STARTED_SEC_ROM_CODE "
00005fea 535f53544152 

                                                                      Page 276
                                                              C:\Users\nhuliyap\AppData\Local\Temp\gh_00002581.s
00005ff0 5445445f5345 
00005ff6 435f524f4d5f 
00005ffc 434f44452000 
00006002 04            11794 	.byte	4
00006003 01            11795 	.byte	1
00006004 18            11796 	.byte	24
00006005 44454d5f5354  11797 	.strz	"DEM_STOP_SEC_ROM_CODE "
0000600b 4f505f534543 
00006011 5f524f4d5f43 
00006017 4f44452000 
0000601c 03            11798 	.byte	3
0000601d 19            11799 	.byte	25
0000601e 1d            11800 	.byte	29
0000601f 01            11801 	.byte	1
00006020 06            11802 	.byte	6
00006021 44454d5f4d45  11803 	.strz	"DEM_MEMMAP_ERROR "
00006027 4d4d41505f45 
0000602d 52524f522000 
00006033 01            11804 	.byte	1
00006034 5e            11805 	.byte	94
00006035 4253575f5354  11806 	.strz	"BSW_STOP_SEC_CODE "
0000603b 4f505f534543 
00006041 5f434f444520 
00006047 00 
00006048 03            11807 	.byte	3
00006049 5f            11808 	.byte	95
0000604a 1e            11809 	.byte	30
0000604b 01            11810 	.byte	1
0000604c de08          11811 	.byte	222,8
0000604e 53544f505f53  11812 	.strz	"STOP_SEC_CODE "
00006054 45435f434f44 
0000605a 452000 
0000605d 03            11813 	.byte	3
0000605e bb09          11814 	.byte	187,9
00006060 1f            11815 	.byte	31
00006061 04            11816 	.byte	4
00006062 04            11817 	.byte	4
00006063 04            11818 	.byte	4
00006064 04            11819 	.byte	4
00006065 03            11820 	.byte	3
00006066 06            11821 	.byte	6
00006067 59            11822 	.byte	89
00006068 04            11823 	.byte	4
00006069 03            11824 	.byte	3
0000606a 07            11825 	.byte	7
0000606b 5a            11826 	.byte	90
0000606c 03            11827 	.byte	3
0000606d 04            11828 	.byte	4
0000606e 5b            11829 	.byte	91
0000606f 01            11830 	.byte	1
00006070 0e            11831 	.byte	14
00006071 50524f445543  11832 	.strz	"PRODUCTION_SW 0x0"
00006077 54494f4e5f53 
0000607d 572030783000 
00006083 01            11833 	.byte	1
00006084 0f            11834 	.byte	15
00006085 444556454c4f  11835 	.strz	"DEVELOPMENT_SW 0x1"
0000608b 504d454e545f 
00006091 535720307831 
00006097 00 
00006098 01            11836 	.byte	1

                                                                      Page 277
                                                              C:\Users\nhuliyap\AppData\Local\Temp\gh_00002581.s
00006099 10            11837 	.byte	16
0000609a 53575f434154  11838 	.strz	"SW_CATEGORY PRODUCTION_SW"
000060a0 45474f525920 
000060a6 50524f445543 
000060ac 54494f4e5f53 
000060b2 5700 
000060b4 04            11839 	.byte	4
000060b5 01            11840 	.byte	1
000060b6 06            11841 	.byte	6
000060b7 4d41585f5349  11842 	.strz	"MAX_SIZE_WS_TELEGRAM 16U"
000060bd 5a455f57535f 
000060c3 54454c454752 
000060c9 414d20313655 
000060cf 00 
000060d0 01            11843 	.byte	1
000060d1 0e            11844 	.byte	14
000060d2 4e564d5f424c  11845 	.strz	"NVM_BLOCK_TYPE uint32"
000060d8 4f434b5f5459 
000060de 50452075696e 
000060e4 74333200 
000060e8 04            11846 	.byte	4
000060e9 04            11847 	.byte	4
000060ea 03            11848 	.byte	3
000060eb 0c            11849 	.byte	12
000060ec 5c            11850 	.byte	92
000060ed 01            11851 	.byte	1
000060ee 13            11852 	.byte	19
000060ef 4e564d5f5245  11853 	.strz	"NVM_REQ_OK (0u)"
000060f5 515f4f4b2028 
000060fb 30752900 
000060ff 01            11854 	.byte	1
00006100 16            11855 	.byte	22
00006101 4e564d5f5245  11856 	.strz	"NVM_REQ_NOT_OK (1u)"
00006107 515f4e4f545f 
0000610d 4f4b20283175 
00006113 2900 
00006115 01            11857 	.byte	1
00006116 19            11858 	.byte	25
00006117 4e564d5f5245  11859 	.strz	"NVM_REQ_PENDING (2u)"
0000611d 515f50454e44 
00006123 494e47202832 
00006129 752900 
0000612c 01            11860 	.byte	1
0000612d 1c            11861 	.byte	28
0000612e 4e564d5f5245  11862 	.strz	"NVM_REQ_INTEGRITY_FAILED (3u)"
00006134 515f494e5445 
0000613a 47524954595f 
00006140 4641494c4544 
00006146 202833752900 
0000614c 01            11863 	.byte	1
0000614d 1f            11864 	.byte	31
0000614e 4e564d5f5245  11865 	.strz	"NVM_REQ_BLOCK_SKIPPED (4u)"
00006154 515f424c4f43 
0000615a 4b5f534b4950 
00006160 504544202834 
00006166 752900 
00006169 01            11866 	.byte	1
0000616a 22            11867 	.byte	34
0000616b 4e564d5f5245  11868 	.strz	"NVM_REQ_NV_INVALIDATED (5u)"
00006171 515f4e565f49 
00006177 4e56414c4944 

                                                                      Page 278
                                                              C:\Users\nhuliyap\AppData\Local\Temp\gh_00002581.s
0000617d 415445442028 
00006183 35752900 
00006187 01            11869 	.byte	1
00006188 25            11870 	.byte	37
00006189 4e564d5f5245  11871 	.strz	"NVM_REQ_CANCELED (6u)"
0000618f 515f43414e43 
00006195 454c45442028 
0000619b 36752900 
0000619f 01            11872 	.byte	1
000061a0 28            11873 	.byte	40
000061a1 4e564d5f5245  11874 	.strz	"NVM_REQ_REDUNDANCY_FAILED (7u)"
000061a7 515f52454455 
000061ad 4e44414e4359 
000061b3 5f4641494c45 
000061b9 442028377529 
000061bf 00 
000061c0 01            11875 	.byte	1
000061c1 2b            11876 	.byte	43
000061c2 4e564d5f5245  11877 	.strz	"NVM_REQ_RESTORED_FROM_ROM (8u)"
000061c8 515f52455354 
000061ce 4f5245445f46 
000061d4 524f4d5f524f 
000061da 4d2028387529 
000061e0 00 
000061e1 04            11878 	.byte	4
000061e2 01            11879 	.byte	1
000061e3 18            11880 	.byte	24
000061e4 4e564d5f4150  11881 	.strz	"NVM_API_CONFIG_CLASS_1 (1u)"
000061ea 495f434f4e46 
000061f0 49475f434c41 
000061f6 53535f312028 
000061fc 31752900 
00006200 01            11882 	.byte	1
00006201 1a            11883 	.byte	26
00006202 4e564d5f4150  11884 	.strz	"NVM_API_CONFIG_CLASS_3 (7u)"
00006208 495f434f4e46 
0000620e 49475f434c41 
00006214 53535f332028 
0000621a 37752900 
0000621e 01            11885 	.byte	1
0000621f 1c            11886 	.byte	28
00006220 4e564d5f4150  11887 	.strz	"NVM_API_CONFIG_CLASS (NVM_API_CONFIG_CLASS_3)"
00006226 495f434f4e46 
0000622c 49475f434c41 
00006232 535320284e56 
00006238 4d5f4150495f 
0000623e 434f4e464947 
00006244 5f434c415353 
0000624a 5f332900 
0000624e 01            11888 	.byte	1
0000624f 2c            11889 	.byte	44
00006250 4e564d5f5645  11890 	.strz	"NVM_VERSION_INFO_API (STD_ON)"
00006256 5253494f4e5f 
0000625c 494e464f5f41 
00006262 504920285354 
00006268 445f4f4e2900 
0000626e 01            11891 	.byte	1
0000626f 2e            11892 	.byte	46
00006270 4e564d5f5345  11893 	.strz	"NVM_SET_RAM_BLOCK_STATUS_API (STD_ON)"
00006276 545f52414d5f 
0000627c 424c4f434b5f 

                                                                      Page 279
                                                              C:\Users\nhuliyap\AppData\Local\Temp\gh_00002581.s
00006282 535441545553 
00006288 5f4150492028 
0000628e 5354445f4f4e 
00006294 2900 
00006296 01            11894 	.byte	1
00006297 30            11895 	.byte	48
00006298 4e564d5f4b49  11896 	.strz	"NVM_KILL_WRITEALL_API (STD_ON)"
0000629e 4c4c5f575249 
000062a4 5445414c4c5f 
000062aa 415049202853 
000062b0 54445f4f4e29 
000062b6 00 
000062b7 01            11897 	.byte	1
000062b8 32            11898 	.byte	50
000062b9 4e564d5f5245  11899 	.strz	"NVM_REPAIR_REDUNDANT_BLOCKS_API (STD_OFF)"
000062bf 504149525f52 
000062c5 4544554e4441 
000062cb 4e545f424c4f 
000062d1 434b535f4150 
000062d7 492028535444 
000062dd 5f4f46462900 
000062e3 01            11900 	.byte	1
000062e4 56            11901 	.byte	86
000062e5 4e564d5f5354  11902 	.strz	"NVM_START_SEC_CONST_DESCRIPTOR_TABLE "
000062eb 4152545f5345 
000062f1 435f434f4e53 
000062f7 545f44455343 
000062fd 524950544f52 
00006303 5f5441424c45 
00006309 2000 
0000630b 03            11903 	.byte	3
0000630c 57            11904 	.byte	87
0000630d 5d            11905 	.byte	93
0000630e 01            11906 	.byte	1
0000630f 02            11907 	.byte	2
00006310 4d454d4d4150  11908 	.strz	"MEMMAP_VENDOR_ID (30u)"
00006316 5f56454e444f 
0000631c 525f49442028 
00006322 3330752900 
00006327 01            11909 	.byte	1
00006328 08            11910 	.byte	8
00006329 4d454d4d4150  11911 	.strz	"MEMMAP_AR_RELEASE_MAJOR_VERSION (4u)"
0000632f 5f41525f5245 
00006335 4c454153455f 
0000633b 4d414a4f525f 
00006341 56455253494f 
00006347 4e2028347529 
0000634d 00 
0000634e 01            11912 	.byte	1
0000634f 09            11913 	.byte	9
00006350 4d454d4d4150  11914 	.strz	"MEMMAP_AR_RELEASE_MINOR_VERSION (0u)"
00006356 5f41525f5245 
0000635c 4c454153455f 
00006362 4d494e4f525f 
00006368 56455253494f 
0000636e 4e2028307529 
00006374 00 
00006375 01            11915 	.byte	1
00006376 0a            11916 	.byte	10
00006377 4d454d4d4150  11917 	.strz	"MEMMAP_AR_RELEASE_REVISION_VERSION (3u)"
0000637d 5f41525f5245 

                                                                      Page 280
                                                              C:\Users\nhuliyap\AppData\Local\Temp\gh_00002581.s
00006383 4c454153455f 
00006389 524556495349 
0000638f 4f4e5f564552 
00006395 53494f4e2028 
0000639b 33752900 
0000639f 01            11918 	.byte	1
000063a0 10            11919 	.byte	16
000063a1 4d454d5f4152  11920 	.strz	"MEM_AR_RELEASE_MAJOR_VERSION MEMMAP_AR_RELEASE_MAJOR_VERSION"
000063a7 5f52454c4541 
000063ad 53455f4d414a 
000063b3 4f525f564552 
000063b9 53494f4e204d 
000063bf 454d4d41505f 
000063c5 41525f52454c 
000063cb 454153455f4d 
000063d1 414a4f525f56 
000063d7 455253494f4e 
000063dd 00 
000063de 01            11921 	.byte	1
000063df 11            11922 	.byte	17
000063e0 4d454d5f4152  11923 	.strz	"MEM_AR_RELEASE_MINOR_VERSION MEMMAP_AR_RELEASE_MINOR_VERSION"
000063e6 5f52454c4541 
000063ec 53455f4d494e 
000063f2 4f525f564552 
000063f8 53494f4e204d 
000063fe 454d4d41505f 
00006404 41525f52454c 
0000640a 454153455f4d 
00006410 494e4f525f56 
00006416 455253494f4e 
0000641c 00 
0000641d 01            11924 	.byte	1
0000641e 12            11925 	.byte	18
0000641f 4d454d5f4152  11926 	.strz	"MEM_AR_RELEASE_PATCH_VERSION MEMMAP_AR_RELEASE_REVISION_VERSION"
00006425 5f52454c4541 
0000642b 53455f504154 
00006431 43485f564552 
00006437 53494f4e204d 
0000643d 454d4d41505f 
00006443 41525f52454c 
00006449 454153455f52 
0000644f 45564953494f 
00006455 4e5f56455253 
0000645b 494f4e00 
0000645f 01            11927 	.byte	1
00006460 18            11928 	.byte	24
00006461 4d454d4d4150  11929 	.strz	"MEMMAP_SW_MAJOR_VERSION (1u)"
00006467 5f53575f4d41 
0000646d 4a4f525f5645 
00006473 5253494f4e20 
00006479 2831752900 
0000647e 01            11930 	.byte	1
0000647f 19            11931 	.byte	25
00006480 4d454d4d4150  11932 	.strz	"MEMMAP_SW_MINOR_VERSION (11u)"
00006486 5f53575f4d49 
0000648c 4e4f525f5645 
00006492 5253494f4e20 
00006498 283131752900 
0000649e 01            11933 	.byte	1
0000649f 1a            11934 	.byte	26
000064a0 4d454d4d4150  11935 	.strz	"MEMMAP_SW_PATCH_VERSION (0u)"

                                                                      Page 281
                                                              C:\Users\nhuliyap\AppData\Local\Temp\gh_00002581.s
000064a6 5f53575f5041 
000064ac 5443485f5645 
000064b2 5253494f4e20 
000064b8 2830752900 
000064bd 01            11936 	.byte	1
000064be 20            11937 	.byte	32
000064bf 4d454d5f5357  11938 	.strz	"MEM_SW_MAJOR_VERSION MEMMAP_SW_MAJOR_VERSION"
000064c5 5f4d414a4f52 
000064cb 5f5645525349 
000064d1 4f4e204d454d 
000064d7 4d41505f5357 
000064dd 5f4d414a4f52 
000064e3 5f5645525349 
000064e9 4f4e00 
000064ec 01            11939 	.byte	1
000064ed 21            11940 	.byte	33
000064ee 4d454d5f5357  11941 	.strz	"MEM_SW_MINOR_VERSION MEMMAP_SW_MINOR_VERSION"
000064f4 5f4d494e4f52 
000064fa 5f5645525349 
00006500 4f4e204d454d 
00006506 4d41505f5357 
0000650c 5f4d494e4f52 
00006512 5f5645525349 
00006518 4f4e00 
0000651b 01            11942 	.byte	1
0000651c 22            11943 	.byte	34
0000651d 4d454d5f5357  11944 	.strz	"MEM_SW_PATCH_VERSION MEMMAP_SW_PATCH_VERSION"
00006523 5f5041544348 
00006529 5f5645525349 
0000652f 4f4e204d454d 
00006535 4d41505f5357 
0000653b 5f5041544348 
00006541 5f5645525349 
00006547 4f4e00 
0000654a 01            11945 	.byte	1
0000654b 24            11946 	.byte	36
0000654c 4d454d4d4150  11947 	.strz	"MEMMAP_ERROR "
00006552 5f4552524f52 
00006558 2000 
0000655a 01            11948 	.byte	1
0000655b b201          11949 	.byte	178,1
0000655d 53544152545f  11950 	.strz	"START_SEC_CONST_UNSPECIFIED "
00006563 5345435f434f 
00006569 4e53545f554e 
0000656f 535045434946 
00006575 4945442000 
0000657a 03            11951 	.byte	3
0000657b f403          11952 	.byte	244,3
0000657d 1f            11953 	.byte	31
0000657e 01            11954 	.byte	1
0000657f b408          11955 	.byte	180,8
00006581 434f4e53545f  11956 	.strz	"CONST_SEC_OPEN "
00006587 5345435f4f50 
0000658d 454e2000 
00006591 04            11957 	.byte	4
00006592 04            11958 	.byte	4
00006593 01            11959 	.byte	1
00006594 5d            11960 	.byte	93
00006595 4e564d5f5354  11961 	.strz	"NVM_STOP_SEC_CONST_DESCRIPTOR_TABLE "
0000659b 4f505f534543 
000065a1 5f434f4e5354 

                                                                      Page 282
                                                              C:\Users\nhuliyap\AppData\Local\Temp\gh_00002581.s
000065a7 5f4445534352 
000065ad 4950544f525f 
000065b3 5441424c4520 
000065b9 00 
000065ba 03            11962 	.byte	3
000065bb 5e            11963 	.byte	94
000065bc 5d            11964 	.byte	93
000065bd 01            11965 	.byte	1
000065be 02            11966 	.byte	2
000065bf 4d454d4d4150  11967 	.strz	"MEMMAP_VENDOR_ID (30u)"
000065c5 5f56454e444f 
000065cb 525f49442028 
000065d1 3330752900 
000065d6 01            11968 	.byte	1
000065d7 08            11969 	.byte	8
000065d8 4d454d4d4150  11970 	.strz	"MEMMAP_AR_RELEASE_MAJOR_VERSION (4u)"
000065de 5f41525f5245 
000065e4 4c454153455f 
000065ea 4d414a4f525f 
000065f0 56455253494f 
000065f6 4e2028347529 
000065fc 00 
000065fd 01            11971 	.byte	1
000065fe 09            11972 	.byte	9
000065ff 4d454d4d4150  11973 	.strz	"MEMMAP_AR_RELEASE_MINOR_VERSION (0u)"
00006605 5f41525f5245 
0000660b 4c454153455f 
00006611 4d494e4f525f 
00006617 56455253494f 
0000661d 4e2028307529 
00006623 00 
00006624 01            11974 	.byte	1
00006625 0a            11975 	.byte	10
00006626 4d454d4d4150  11976 	.strz	"MEMMAP_AR_RELEASE_REVISION_VERSION (3u)"
0000662c 5f41525f5245 
00006632 4c454153455f 
00006638 524556495349 
0000663e 4f4e5f564552 
00006644 53494f4e2028 
0000664a 33752900 
0000664e 01            11977 	.byte	1
0000664f 10            11978 	.byte	16
00006650 4d454d5f4152  11979 	.strz	"MEM_AR_RELEASE_MAJOR_VERSION MEMMAP_AR_RELEASE_MAJOR_VERSION"
00006656 5f52454c4541 
0000665c 53455f4d414a 
00006662 4f525f564552 
00006668 53494f4e204d 
0000666e 454d4d41505f 
00006674 41525f52454c 
0000667a 454153455f4d 
00006680 414a4f525f56 
00006686 455253494f4e 
0000668c 00 
0000668d 01            11980 	.byte	1
0000668e 11            11981 	.byte	17
0000668f 4d454d5f4152  11982 	.strz	"MEM_AR_RELEASE_MINOR_VERSION MEMMAP_AR_RELEASE_MINOR_VERSION"
00006695 5f52454c4541 
0000669b 53455f4d494e 
000066a1 4f525f564552 
000066a7 53494f4e204d 
000066ad 454d4d41505f 

                                                                      Page 283
                                                              C:\Users\nhuliyap\AppData\Local\Temp\gh_00002581.s
000066b3 41525f52454c 
000066b9 454153455f4d 
000066bf 494e4f525f56 
000066c5 455253494f4e 
000066cb 00 
000066cc 01            11983 	.byte	1
000066cd 12            11984 	.byte	18
000066ce 4d454d5f4152  11985 	.strz	"MEM_AR_RELEASE_PATCH_VERSION MEMMAP_AR_RELEASE_REVISION_VERSION"
000066d4 5f52454c4541 
000066da 53455f504154 
000066e0 43485f564552 
000066e6 53494f4e204d 
000066ec 454d4d41505f 
000066f2 41525f52454c 
000066f8 454153455f52 
000066fe 45564953494f 
00006704 4e5f56455253 
0000670a 494f4e00 
0000670e 01            11986 	.byte	1
0000670f 18            11987 	.byte	24
00006710 4d454d4d4150  11988 	.strz	"MEMMAP_SW_MAJOR_VERSION (1u)"
00006716 5f53575f4d41 
0000671c 4a4f525f5645 
00006722 5253494f4e20 
00006728 2831752900 
0000672d 01            11989 	.byte	1
0000672e 19            11990 	.byte	25
0000672f 4d454d4d4150  11991 	.strz	"MEMMAP_SW_MINOR_VERSION (11u)"
00006735 5f53575f4d49 
0000673b 4e4f525f5645 
00006741 5253494f4e20 
00006747 283131752900 
0000674d 01            11992 	.byte	1
0000674e 1a            11993 	.byte	26
0000674f 4d454d4d4150  11994 	.strz	"MEMMAP_SW_PATCH_VERSION (0u)"
00006755 5f53575f5041 
0000675b 5443485f5645 
00006761 5253494f4e20 
00006767 2830752900 
0000676c 01            11995 	.byte	1
0000676d 20            11996 	.byte	32
0000676e 4d454d5f5357  11997 	.strz	"MEM_SW_MAJOR_VERSION MEMMAP_SW_MAJOR_VERSION"
00006774 5f4d414a4f52 
0000677a 5f5645525349 
00006780 4f4e204d454d 
00006786 4d41505f5357 
0000678c 5f4d414a4f52 
00006792 5f5645525349 
00006798 4f4e00 
0000679b 01            11998 	.byte	1
0000679c 21            11999 	.byte	33
0000679d 4d454d5f5357  12000 	.strz	"MEM_SW_MINOR_VERSION MEMMAP_SW_MINOR_VERSION"
000067a3 5f4d494e4f52 
000067a9 5f5645525349 
000067af 4f4e204d454d 
000067b5 4d41505f5357 
000067bb 5f4d494e4f52 
000067c1 5f5645525349 
000067c7 4f4e00 
000067ca 01            12001 	.byte	1
000067cb 22            12002 	.byte	34

                                                                      Page 284
                                                              C:\Users\nhuliyap\AppData\Local\Temp\gh_00002581.s
000067cc 4d454d5f5357  12003 	.strz	"MEM_SW_PATCH_VERSION MEMMAP_SW_PATCH_VERSION"
000067d2 5f5041544348 
000067d8 5f5645525349 
000067de 4f4e204d454d 
000067e4 4d41505f5357 
000067ea 5f5041544348 
000067f0 5f5645525349 
000067f6 4f4e00 
000067f9 01            12004 	.byte	1
000067fa 24            12005 	.byte	36
000067fb 4d454d4d4150  12006 	.strz	"MEMMAP_ERROR "
00006801 5f4552524f52 
00006807 2000 
00006809 01            12007 	.byte	1
0000680a b601          12008 	.byte	182,1
0000680c 53544f505f53  12009 	.strz	"STOP_SEC_CONST "
00006812 45435f434f4e 
00006818 53542000 
0000681c 03            12010 	.byte	3
0000681d f403          12011 	.byte	244,3
0000681f 1f            12012 	.byte	31
00006820 04            12013 	.byte	4
00006821 04            12014 	.byte	4
00006822 04            12015 	.byte	4
00006823 01            12016 	.byte	1
00006824 21            12017 	.byte	33
00006825 4e564d5f5354  12018 	.strz	"NVM_START_SEC_CODE "
0000682b 4152545f5345 
00006831 435f434f4445 
00006837 2000 
00006839 03            12019 	.byte	3
0000683a 22            12020 	.byte	34
0000683b 5d            12021 	.byte	93
0000683c 01            12022 	.byte	1
0000683d 02            12023 	.byte	2
0000683e 4d454d4d4150  12024 	.strz	"MEMMAP_VENDOR_ID (30u)"
00006844 5f56454e444f 
0000684a 525f49442028 
00006850 3330752900 
00006855 01            12025 	.byte	1
00006856 08            12026 	.byte	8
00006857 4d454d4d4150  12027 	.strz	"MEMMAP_AR_RELEASE_MAJOR_VERSION (4u)"
0000685d 5f41525f5245 
00006863 4c454153455f 
00006869 4d414a4f525f 
0000686f 56455253494f 
00006875 4e2028347529 
0000687b 00 
0000687c 01            12028 	.byte	1
0000687d 09            12029 	.byte	9
0000687e 4d454d4d4150  12030 	.strz	"MEMMAP_AR_RELEASE_MINOR_VERSION (0u)"
00006884 5f41525f5245 
0000688a 4c454153455f 
00006890 4d494e4f525f 
00006896 56455253494f 
0000689c 4e2028307529 
000068a2 00 
000068a3 01            12031 	.byte	1
000068a4 0a            12032 	.byte	10
000068a5 4d454d4d4150  12033 	.strz	"MEMMAP_AR_RELEASE_REVISION_VERSION (3u)"
000068ab 5f41525f5245 

                                                                      Page 285
                                                              C:\Users\nhuliyap\AppData\Local\Temp\gh_00002581.s
000068b1 4c454153455f 
000068b7 524556495349 
000068bd 4f4e5f564552 
000068c3 53494f4e2028 
000068c9 33752900 
000068cd 01            12034 	.byte	1
000068ce 10            12035 	.byte	16
000068cf 4d454d5f4152  12036 	.strz	"MEM_AR_RELEASE_MAJOR_VERSION MEMMAP_AR_RELEASE_MAJOR_VERSION"
000068d5 5f52454c4541 
000068db 53455f4d414a 
000068e1 4f525f564552 
000068e7 53494f4e204d 
000068ed 454d4d41505f 
000068f3 41525f52454c 
000068f9 454153455f4d 
000068ff 414a4f525f56 
00006905 455253494f4e 
0000690b 00 
0000690c 01            12037 	.byte	1
0000690d 11            12038 	.byte	17
0000690e 4d454d5f4152  12039 	.strz	"MEM_AR_RELEASE_MINOR_VERSION MEMMAP_AR_RELEASE_MINOR_VERSION"
00006914 5f52454c4541 
0000691a 53455f4d494e 
00006920 4f525f564552 
00006926 53494f4e204d 
0000692c 454d4d41505f 
00006932 41525f52454c 
00006938 454153455f4d 
0000693e 494e4f525f56 
00006944 455253494f4e 
0000694a 00 
0000694b 01            12040 	.byte	1
0000694c 12            12041 	.byte	18
0000694d 4d454d5f4152  12042 	.strz	"MEM_AR_RELEASE_PATCH_VERSION MEMMAP_AR_RELEASE_REVISION_VERSION"
00006953 5f52454c4541 
00006959 53455f504154 
0000695f 43485f564552 
00006965 53494f4e204d 
0000696b 454d4d41505f 
00006971 41525f52454c 
00006977 454153455f52 
0000697d 45564953494f 
00006983 4e5f56455253 
00006989 494f4e00 
0000698d 01            12043 	.byte	1
0000698e 18            12044 	.byte	24
0000698f 4d454d4d4150  12045 	.strz	"MEMMAP_SW_MAJOR_VERSION (1u)"
00006995 5f53575f4d41 
0000699b 4a4f525f5645 
000069a1 5253494f4e20 
000069a7 2831752900 
000069ac 01            12046 	.byte	1
000069ad 19            12047 	.byte	25
000069ae 4d454d4d4150  12048 	.strz	"MEMMAP_SW_MINOR_VERSION (11u)"
000069b4 5f53575f4d49 
000069ba 4e4f525f5645 
000069c0 5253494f4e20 
000069c6 283131752900 
000069cc 01            12049 	.byte	1
000069cd 1a            12050 	.byte	26
000069ce 4d454d4d4150  12051 	.strz	"MEMMAP_SW_PATCH_VERSION (0u)"

                                                                      Page 286
                                                              C:\Users\nhuliyap\AppData\Local\Temp\gh_00002581.s
000069d4 5f53575f5041 
000069da 5443485f5645 
000069e0 5253494f4e20 
000069e6 2830752900 
000069eb 01            12052 	.byte	1
000069ec 20            12053 	.byte	32
000069ed 4d454d5f5357  12054 	.strz	"MEM_SW_MAJOR_VERSION MEMMAP_SW_MAJOR_VERSION"
000069f3 5f4d414a4f52 
000069f9 5f5645525349 
000069ff 4f4e204d454d 
00006a05 4d41505f5357 
00006a0b 5f4d414a4f52 
00006a11 5f5645525349 
00006a17 4f4e00 
00006a1a 01            12055 	.byte	1
00006a1b 21            12056 	.byte	33
00006a1c 4d454d5f5357  12057 	.strz	"MEM_SW_MINOR_VERSION MEMMAP_SW_MINOR_VERSION"
00006a22 5f4d494e4f52 
00006a28 5f5645525349 
00006a2e 4f4e204d454d 
00006a34 4d41505f5357 
00006a3a 5f4d494e4f52 
00006a40 5f5645525349 
00006a46 4f4e00 
00006a49 01            12058 	.byte	1
00006a4a 22            12059 	.byte	34
00006a4b 4d454d5f5357  12060 	.strz	"MEM_SW_PATCH_VERSION MEMMAP_SW_PATCH_VERSION"
00006a51 5f5041544348 
00006a57 5f5645525349 
00006a5d 4f4e204d454d 
00006a63 4d41505f5357 
00006a69 5f5041544348 
00006a6f 5f5645525349 
00006a75 4f4e00 
00006a78 01            12061 	.byte	1
00006a79 24            12062 	.byte	36
00006a7a 4d454d4d4150  12063 	.strz	"MEMMAP_ERROR "
00006a80 5f4552524f52 
00006a86 2000 
00006a88 01            12064 	.byte	1
00006a89 8e01          12065 	.byte	142,1
00006a8b 53544152545f  12066 	.strz	"START_SEC_CODE "
00006a91 5345435f434f 
00006a97 44452000 
00006a9b 03            12067 	.byte	3
00006a9c f403          12068 	.byte	244,3
00006a9e 1f            12069 	.byte	31
00006a9f 01            12070 	.byte	1
00006aa0 f307          12071 	.byte	243,7
00006aa2 434f44455f53  12072 	.strz	"CODE_SEC_OPEN "
00006aa8 45435f4f5045 
00006aae 4e2000 
00006ab1 04            12073 	.byte	4
00006ab2 04            12074 	.byte	4
00006ab3 01            12075 	.byte	1
00006ab4 9401          12076 	.byte	148,1
00006ab6 4e564d5f5354  12077 	.strz	"NVM_STOP_SEC_CODE "
00006abc 4f505f534543 
00006ac2 5f434f444520 
00006ac8 00 
00006ac9 03            12078 	.byte	3

                                                                      Page 287
                                                              C:\Users\nhuliyap\AppData\Local\Temp\gh_00002581.s
00006aca 9501          12079 	.byte	149,1
00006acc 5d            12080 	.byte	93
00006acd 01            12081 	.byte	1
00006ace 24            12082 	.byte	36
00006acf 4d454d4d4150  12083 	.strz	"MEMMAP_ERROR "
00006ad5 5f4552524f52 
00006adb 2000 
00006add 01            12084 	.byte	1
00006ade 9201          12085 	.byte	146,1
00006ae0 53544f505f53  12086 	.strz	"STOP_SEC_CODE "
00006ae6 45435f434f44 
00006aec 452000 
00006aef 03            12087 	.byte	3
00006af0 f403          12088 	.byte	244,3
00006af2 1f            12089 	.byte	31
00006af3 04            12090 	.byte	4
00006af4 04            12091 	.byte	4
00006af5 04            12092 	.byte	4
00006af6 03            12093 	.byte	3
00006af7 08            12094 	.byte	8
00006af8 5e            12095 	.byte	94
00006af9 03            12096 	.byte	3
00006afa 06            12097 	.byte	6
00006afb 5f            12098 	.byte	95
00006afc 01            12099 	.byte	1
00006afd 13            12100 	.byte	19
00006afe 44454d5f4e56  12101 	.strz	"DEM_NVM_CFG_BLOCKID_TYPE uint8"
00006b04 4d5f4346475f 
00006b0a 424c4f434b49 
00006b10 445f54595045 
00006b16 2075696e7438 
00006b1c 00 
00006b1d 01            12102 	.byte	1
00006b1e 14            12103 	.byte	20
00006b1f 44454d5f4e56  12104 	.strz	"DEM_NVM_CFG_NUM_BLOCKS_TOTAL 12"
00006b25 4d5f4346475f 
00006b2b 4e554d5f424c 
00006b31 4f434b535f54 
00006b37 4f54414c2031 
00006b3d 3200 
00006b3f 01            12105 	.byte	1
00006b40 15            12106 	.byte	21
00006b41 44454d5f4e56  12107 	.strz	"DEM_NVM_CFG_NUM_BLOCKS_EXTENDED 11"
00006b47 4d5f4346475f 
00006b4d 4e554d5f424c 
00006b53 4f434b535f45 
00006b59 5854454e4445 
00006b5f 4420313100 
00006b64 01            12108 	.byte	1
00006b65 36            12109 	.byte	54
00006b66 44454d5f4e56  12110 	.strz	"DEM_NVM_CFG_NUM_STORAGEBUFFER 2"
00006b6c 4d5f4346475f 
00006b72 4e554d5f5354 
00006b78 4f5241474542 
00006b7e 554646455220 
00006b84 3200 
00006b86 01            12111 	.byte	1
00006b87 3a            12112 	.byte	58
00006b88 44454d5f4e56  12113 	.strz	"DEM_NVM_CFG_COPYFCT_NUM 1"
00006b8e 4d5f4346475f 
00006b94 434f50594643 

                                                                      Page 288
                                                              C:\Users\nhuliyap\AppData\Local\Temp\gh_00002581.s
00006b9a 545f4e554d20 
00006ba0 3100 
00006ba2 04            12114 	.byte	4
00006ba3 03            12115 	.byte	3
00006ba4 09            12116 	.byte	9
00006ba5 60            12117 	.byte	96
00006ba6 03            12118 	.byte	3
00006ba7 07            12119 	.byte	7
00006ba8 61            12120 	.byte	97
00006ba9 01            12121 	.byte	1
00006baa 08            12122 	.byte	8
00006bab 44454d5f4556  12123 	.strz	"DEM_EVMEMGEN_DTCIDS_BY_OCCURRENCE_TIME_ARRAYSIZE 5u"
00006bb1 4d454d47454e 
00006bb7 5f4454434944 
00006bbd 535f42595f4f 
00006bc3 434355525245 
00006bc9 4e43455f5449 
00006bcf 4d455f415252 
00006bd5 415953495a45 
00006bdb 20357500 
00006bdf 01            12124 	.byte	1
00006be0 09            12125 	.byte	9
00006be1 44454d5f4556  12126 	.strz	"DEM_EVMEMGEN_OVERFLOW_ARRAYSIZE 5u"
00006be7 4d454d47454e 
00006bed 5f4f56455246 
00006bf3 4c4f575f4152 
00006bf9 52415953495a 
00006bff 4520357500 
00006c04 04            12127 	.byte	4
00006c05 01            12128 	.byte	1
00006c06 19            12129 	.byte	25
00006c07 44454d5f5354  12130 	.strz	"DEM_START_SEC_SAVED_ZONE "
00006c0d 4152545f5345 
00006c13 435f53415645 
00006c19 445f5a4f4e45 
00006c1f 2000 
00006c21 03            12131 	.byte	3
00006c22 1a            12132 	.byte	26
00006c23 1d            12133 	.byte	29
00006c24 01            12134 	.byte	1
00006c25 06            12135 	.byte	6
00006c26 44454d5f4d45  12136 	.strz	"DEM_MEMMAP_ERROR "
00006c2c 4d4d41505f45 
00006c32 52524f522000 
00006c38 01            12137 	.byte	1
00006c39 9601          12138 	.byte	150,1
00006c3b 4253575f5354  12139 	.strz	"BSW_START_SEC_VAR_SAVED_ZONE_UNSPECIFIED "
00006c41 4152545f5345 
00006c47 435f5641525f 
00006c4d 53415645445f 
00006c53 5a4f4e455f55 
00006c59 4e5350454349 
00006c5f 464945442000 
00006c65 03            12140 	.byte	3
00006c66 9701          12141 	.byte	151,1
00006c68 1e            12142 	.byte	30
00006c69 03            12143 	.byte	3
00006c6a bb09          12144 	.byte	187,9
00006c6c 1f            12145 	.byte	31
00006c6d 04            12146 	.byte	4
00006c6e 04            12147 	.byte	4

                                                                      Page 289
                                                              C:\Users\nhuliyap\AppData\Local\Temp\gh_00002581.s
00006c6f 01            12148 	.byte	1
00006c70 9b01          12149 	.byte	155,1
00006c72 44454d5f5741  12150 	.strz	"DEM_WAS_STARTED_SEC_SAVED_ZONE "
00006c78 535f53544152 
00006c7e 5445445f5345 
00006c84 435f53415645 
00006c8a 445f5a4f4e45 
00006c90 2000 
00006c92 04            12151 	.byte	4
00006c93 01            12152 	.byte	1
00006c94 1c            12153 	.byte	28
00006c95 44454d5f5354  12154 	.strz	"DEM_STOP_SEC_SAVED_ZONE "
00006c9b 4f505f534543 
00006ca1 5f5341564544 
00006ca7 5f5a4f4e4520 
00006cad 00 
00006cae 03            12155 	.byte	3
00006caf 1d            12156 	.byte	29
00006cb0 1d            12157 	.byte	29
00006cb1 01            12158 	.byte	1
00006cb2 06            12159 	.byte	6
00006cb3 44454d5f4d45  12160 	.strz	"DEM_MEMMAP_ERROR "
00006cb9 4d4d41505f45 
00006cbf 52524f522000 
00006cc5 01            12161 	.byte	1
00006cc6 a301          12162 	.byte	163,1
00006cc8 4253575f5354  12163 	.strz	"BSW_STOP_SEC_VAR_SAVED_ZONE_UNSPECIFIED "
00006cce 4f505f534543 
00006cd4 5f5641525f53 
00006cda 415645445f5a 
00006ce0 4f4e455f554e 
00006ce6 535045434946 
00006cec 4945442000 
00006cf1 03            12164 	.byte	3
00006cf2 a401          12165 	.byte	164,1
00006cf4 1e            12166 	.byte	30
00006cf5 03            12167 	.byte	3
00006cf6 bb09          12168 	.byte	187,9
00006cf8 1f            12169 	.byte	31
00006cf9 04            12170 	.byte	4
00006cfa 04            12171 	.byte	4
00006cfb 04            12172 	.byte	4
00006cfc 04            12173 	.byte	4
00006cfd 03            12174 	.byte	3
00006cfe 0a            12175 	.byte	10
00006cff 54            12176 	.byte	84
00006d00 04            12177 	.byte	4
00006d01 01            12178 	.byte	1
00006d02 33            12179 	.byte	51
00006d03 44454d5f4e56  12180 	.strz	"DEM_NVM_STATUSBITMASK_NONE 0x00u"
00006d09 4d5f53544154 
00006d0f 55534249544d 
00006d15 41534b5f4e4f 
00006d1b 4e4520307830 
00006d21 307500 
00006d24 01            12181 	.byte	1
00006d25 34            12182 	.byte	52
00006d26 44454d5f4e56  12183 	.strz	"DEM_NVM_STATUSBITMASK_SHUTDOWN 0x01u"
00006d2c 4d5f53544154 
00006d32 55534249544d 
00006d38 41534b5f5348 

                                                                      Page 290
                                                              C:\Users\nhuliyap\AppData\Local\Temp\gh_00002581.s
00006d3e 5554444f574e 
00006d44 203078303175 
00006d4a 00 
00006d4b 01            12184 	.byte	1
00006d4c 35            12185 	.byte	53
00006d4d 44454d5f4e56  12186 	.strz	"DEM_NVM_STATUSBITMASK_IMMEDIATE 0x02u"
00006d53 4d5f53544154 
00006d59 55534249544d 
00006d5f 41534b5f494d 
00006d65 4d4544494154 
00006d6b 452030783032 
00006d71 7500 
00006d73 01            12187 	.byte	1
00006d74 37            12188 	.byte	55
00006d75 44454d5f4e56  12189 	.strz	"DEM_NVM_STATUSBITMASK_CLEAR 0x08u"
00006d7b 4d5f53544154 
00006d81 55534249544d 
00006d87 41534b5f434c 
00006d8d 454152203078 
00006d93 30387500 
00006d97 01            12190 	.byte	1
00006d98 38            12191 	.byte	56
00006d99 44454d5f4e56  12192 	.strz	"DEM_NVM_STATUSBITMASK_INVALIDATE 0x10u"
00006d9f 4d5f53544154 
00006da5 55534249544d 
00006dab 41534b5f494e 
00006db1 56414c494441 
00006db7 544520307831 
00006dbd 307500 
00006dc0 01            12193 	.byte	1
00006dc1 3a            12194 	.byte	58
00006dc2 44454d5f4e56  12195 	.strz	"DEM_NVM_STATUSBITMASK_EXCLUDE 0x40u"
00006dc8 4d5f53544154 
00006dce 55534249544d 
00006dd4 41534b5f4558 
00006dda 434c55444520 
00006de0 307834307500 
00006de6 01            12196 	.byte	1
00006de7 3e            12197 	.byte	62
00006de8 44454d5f4e56  12198 	.strz	"DEM_NVM_STATUSINDEX_SHUTDOWN 1u"
00006dee 4d5f53544154 
00006df4 5553494e4445 
00006dfa 585f53485554 
00006e00 444f574e2031 
00006e06 7500 
00006e08 01            12199 	.byte	1
00006e09 3f            12200 	.byte	63
00006e0a 44454d5f4e56  12201 	.strz	"DEM_NVM_STATUSINDEX_IMMEDIATE 2u"
00006e10 4d5f53544154 
00006e16 5553494e4445 
00006e1c 585f494d4d45 
00006e22 444941544520 
00006e28 327500 
00006e2b 01            12202 	.byte	1
00006e2c 40            12203 	.byte	64
00006e2d 44454d5f4e56  12204 	.strz	"DEM_NVM_STATUSINDEX_CLEAR 3u"
00006e33 4d5f53544154 
00006e39 5553494e4445 
00006e3f 585f434c4541 
00006e45 5220337500 
00006e4a 01            12205 	.byte	1

                                                                      Page 291
                                                              C:\Users\nhuliyap\AppData\Local\Temp\gh_00002581.s
00006e4b 41            12206 	.byte	65
00006e4c 44454d5f4e56  12207 	.strz	"DEM_NVM_STATUSINDEX_EXCLUDE 4u"
00006e52 4d5f53544154 
00006e58 5553494e4445 
00006e5e 585f4558434c 
00006e64 554445203475 
00006e6a 00 
00006e6b 01            12208 	.byte	1
00006e6c 44            12209 	.byte	68
00006e6d 44454d5f4e56  12210 	.strz	"DEM_NVM_PENDING NVM_REQ_PENDING"
00006e73 4d5f50454e44 
00006e79 494e47204e56 
00006e7f 4d5f5245515f 
00006e85 50454e44494e 
00006e8b 4700 
00006e8d 01            12211 	.byte	1
00006e8e 45            12212 	.byte	69
00006e8f 44454d5f4e56  12213 	.strz	"DEM_NVM_SUCCESS NVM_REQ_OK"
00006e95 4d5f53554343 
00006e9b 455353204e56 
00006ea1 4d5f5245515f 
00006ea7 4f4b00 
00006eaa 01            12214 	.byte	1
00006eab 46            12215 	.byte	70
00006eac 44454d5f4e56  12216 	.strz	"DEM_NVM_CANCELED NVM_REQ_CANCELED"
00006eb2 4d5f43414e43 
00006eb8 454c4544204e 
00006ebe 564d5f524551 
00006ec4 5f43414e4345 
00006eca 4c454400 
00006ece 01            12217 	.byte	1
00006ecf 47            12218 	.byte	71
00006ed0 44454d5f4e56  12219 	.strz	"DEM_NVM_FAILED NVM_REQ_NOT_OK"
00006ed6 4d5f4641494c 
00006edc 4544204e564d 
00006ee2 5f5245515f4e 
00006ee8 4f545f4f4b00 
00006eee 01            12220 	.byte	1
00006eef 48            12221 	.byte	72
00006ef0 44454d5f4e56  12222 	.strz	"DEM_NVM_INVALID NVM_REQ_NV_INVALIDATED"
00006ef6 4d5f494e5641 
00006efc 4c4944204e56 
00006f02 4d5f5245515f 
00006f08 4e565f494e56 
00006f0e 414c49444154 
00006f14 454400 
00006f17 01            12223 	.byte	1
00006f18 49            12224 	.byte	73
00006f19 44454d5f4e56  12225 	.strz	"DEM_NVM_INTEGRITY_FAILED NVM_REQ_INTEGRITY_FAILED"
00006f1f 4d5f494e5445 
00006f25 47524954595f 
00006f2b 4641494c4544 
00006f31 204e564d5f52 
00006f37 45515f494e54 
00006f3d 454752495459 
00006f43 5f4641494c45 
00006f49 4400 
00006f4b 01            12226 	.byte	1
00006f4c 4a            12227 	.byte	74
00006f4d 44454d5f4e56  12228 	.strz	"DEM_NVM_BLOCK_SKIPPED NVM_REQ_BLOCK_SKIPPED"
00006f53 4d5f424c4f43 

                                                                      Page 292
                                                              C:\Users\nhuliyap\AppData\Local\Temp\gh_00002581.s
00006f59 4b5f534b4950 
00006f5f 504544204e56 
00006f65 4d5f5245515f 
00006f6b 424c4f434b5f 
00006f71 534b49505045 
00006f77 4400 
00006f79 04            12229 	.byte	4
00006f7a 01            12230 	.byte	1
00006f7b 0e            12231 	.byte	14
00006f7c 44454d5f5354  12232 	.strz	"DEM_START_SEC_RAM_CLEARED "
00006f82 4152545f5345 
00006f88 435f52414d5f 
00006f8e 434c45415245 
00006f94 442000 
00006f97 03            12233 	.byte	3
00006f98 0f            12234 	.byte	15
00006f99 1d            12235 	.byte	29
00006f9a 01            12236 	.byte	1
00006f9b 06            12237 	.byte	6
00006f9c 44454d5f4d45  12238 	.strz	"DEM_MEMMAP_ERROR "
00006fa2 4d4d41505f45 
00006fa8 52524f522000 
00006fae 01            12239 	.byte	1
00006faf 0c            12240 	.byte	12
00006fb0 4253575f5354  12241 	.strz	"BSW_START_SEC_VAR_CLEARED_UNSPECIFIED "
00006fb6 4152545f5345 
00006fbc 435f5641525f 
00006fc2 434c45415245 
00006fc8 445f554e5350 
00006fce 454349464945 
00006fd4 442000 
00006fd7 03            12242 	.byte	3
00006fd8 0d            12243 	.byte	13
00006fd9 1e            12244 	.byte	30
00006fda 01            12245 	.byte	1
00006fdb 42            12246 	.byte	66
00006fdc 53544152545f  12247 	.strz	"START_SEC_VAR_CLEARED_UNSPECIFIED "
00006fe2 5345435f5641 
00006fe8 525f434c4541 
00006fee 5245445f554e 
00006ff4 535045434946 
00006ffa 4945442000 
00006fff 03            12248 	.byte	3
00007000 bb09          12249 	.byte	187,9
00007002 1f            12250 	.byte	31
00007003 01            12251 	.byte	1
00007004 56            12252 	.byte	86
00007005 53544152545f  12253 	.strz	"START_SEC_VAR_ZERO_INIT_UNSPECIFIED "
0000700b 5345435f5641 
00007011 525f5a45524f 
00007017 5f494e49545f 
0000701d 554e53504543 
00007023 494649454420 
00007029 00 
0000702a 01            12254 	.byte	1
0000702b 840a          12255 	.byte	132,10
0000702d 5641525f5345  12256 	.strz	"VAR_SEC_OPEN "
00007033 435f4f50454e 
00007039 2000 
0000703b 04            12257 	.byte	4
0000703c 04            12258 	.byte	4

                                                                      Page 293
                                                              C:\Users\nhuliyap\AppData\Local\Temp\gh_00002581.s
0000703d 01            12259 	.byte	1
0000703e 11            12260 	.byte	17
0000703f 44454d5f5741  12261 	.strz	"DEM_WAS_STARTED_SEC_RAM_CLEARED "
00007045 535f53544152 
0000704b 5445445f5345 
00007051 435f52414d5f 
00007057 434c45415245 
0000705d 442000 
00007060 04            12262 	.byte	4
00007061 01            12263 	.byte	1
00007062 1d            12264 	.byte	29
00007063 44454d5f5354  12265 	.strz	"DEM_STOP_SEC_RAM_CLEARED "
00007069 4f505f534543 
0000706f 5f52414d5f43 
00007075 4c4541524544 
0000707b 2000 
0000707d 03            12266 	.byte	3
0000707e 1e            12267 	.byte	30
0000707f 1d            12268 	.byte	29
00007080 01            12269 	.byte	1
00007081 06            12270 	.byte	6
00007082 44454d5f4d45  12271 	.strz	"DEM_MEMMAP_ERROR "
00007088 4d4d41505f45 
0000708e 52524f522000 
00007094 01            12272 	.byte	1
00007095 19            12273 	.byte	25
00007096 4253575f5354  12274 	.strz	"BSW_STOP_SEC_VAR_CLEARED_UNSPECIFIED "
0000709c 4f505f534543 
000070a2 5f5641525f43 
000070a8 4c4541524544 
000070ae 5f554e535045 
000070b4 434946494544 
000070ba 2000 
000070bc 03            12275 	.byte	3
000070bd 1a            12276 	.byte	26
000070be 1e            12277 	.byte	30
000070bf 01            12278 	.byte	1
000070c0 46            12279 	.byte	70
000070c1 53544f505f53  12280 	.strz	"STOP_SEC_VAR "
000070c7 45435f564152 
000070cd 2000 
000070cf 03            12281 	.byte	3
000070d0 bb09          12282 	.byte	187,9
000070d2 1f            12283 	.byte	31
000070d3 04            12284 	.byte	4
000070d4 04            12285 	.byte	4
000070d5 04            12286 	.byte	4
000070d6 01            12287 	.byte	1
000070d7 20            12288 	.byte	32
000070d8 44454d5f5354  12289 	.strz	"DEM_START_SEC_ROM_CONST "
000070de 4152545f5345 
000070e4 435f524f4d5f 
000070ea 434f4e535420 
000070f0 00 
000070f1 03            12290 	.byte	3
000070f2 21            12291 	.byte	33
000070f3 1d            12292 	.byte	29
000070f4 01            12293 	.byte	1
000070f5 06            12294 	.byte	6
000070f6 44454d5f4d45  12295 	.strz	"DEM_MEMMAP_ERROR "
000070fc 4d4d41505f45 

                                                                      Page 294
                                                              C:\Users\nhuliyap\AppData\Local\Temp\gh_00002581.s
00007102 52524f522000 
00007108 01            12296 	.byte	1
00007109 3a            12297 	.byte	58
0000710a 4253575f5354  12298 	.strz	"BSW_START_SEC_CONST_UNSPECIFIED "
00007110 4152545f5345 
00007116 435f434f4e53 
0000711c 545f554e5350 
00007122 454349464945 
00007128 442000 
0000712b 03            12299 	.byte	3
0000712c 3b            12300 	.byte	59
0000712d 1e            12301 	.byte	30
0000712e 01            12302 	.byte	1
0000712f f005          12303 	.byte	240,5
00007131 53544152545f  12304 	.strz	"START_SEC_CONST_UNSPECIFIED "
00007137 5345435f434f 
0000713d 4e53545f554e 
00007143 535045434946 
00007149 4945442000 
0000714e 03            12305 	.byte	3
0000714f bb09          12306 	.byte	187,9
00007151 1f            12307 	.byte	31
00007152 01            12308 	.byte	1
00007153 b408          12309 	.byte	180,8
00007155 434f4e53545f  12310 	.strz	"CONST_SEC_OPEN "
0000715b 5345435f4f50 
00007161 454e2000 
00007165 04            12311 	.byte	4
00007166 04            12312 	.byte	4
00007167 01            12313 	.byte	1
00007168 3f            12314 	.byte	63
00007169 44454d5f5741  12315 	.strz	"DEM_WAS_STARTED_SEC_ROM_CONST "
0000716f 535f53544152 
00007175 5445445f5345 
0000717b 435f524f4d5f 
00007181 434f4e535420 
00007187 00 
00007188 04            12316 	.byte	4
00007189 01            12317 	.byte	1
0000718a 2a            12318 	.byte	42
0000718b 44454d5f5354  12319 	.strz	"DEM_STOP_SEC_ROM_CONST "
00007191 4f505f534543 
00007197 5f524f4d5f43 
0000719d 4f4e53542000 
000071a3 03            12320 	.byte	3
000071a4 2b            12321 	.byte	43
000071a5 1d            12322 	.byte	29
000071a6 01            12323 	.byte	1
000071a7 06            12324 	.byte	6
000071a8 44454d5f4d45  12325 	.strz	"DEM_MEMMAP_ERROR "
000071ae 4d4d41505f45 
000071b4 52524f522000 
000071ba 01            12326 	.byte	1
000071bb 47            12327 	.byte	71
000071bc 4253575f5354  12328 	.strz	"BSW_STOP_SEC_CONST_UNSPECIFIED "
000071c2 4f505f534543 
000071c8 5f434f4e5354 
000071ce 5f554e535045 
000071d4 434946494544 
000071da 2000 
000071dc 03            12329 	.byte	3

                                                                      Page 295
                                                              C:\Users\nhuliyap\AppData\Local\Temp\gh_00002581.s
000071dd 48            12330 	.byte	72
000071de 1e            12331 	.byte	30
000071df 01            12332 	.byte	1
000071e0 f405          12333 	.byte	244,5
000071e2 53544f505f53  12334 	.strz	"STOP_SEC_CONST "
000071e8 45435f434f4e 
000071ee 53542000 
000071f2 03            12335 	.byte	3
000071f3 bb09          12336 	.byte	187,9
000071f5 1f            12337 	.byte	31
000071f6 04            12338 	.byte	4
000071f7 04            12339 	.byte	4
000071f8 04            12340 	.byte	4
000071f9 04            12341 	.byte	4
000071fa 03            12342 	.byte	3
000071fb 1c            12343 	.byte	28
000071fc 62            12344 	.byte	98
000071fd 03            12345 	.byte	3
000071fe 0f            12346 	.byte	15
000071ff 63            12347 	.byte	99
00007200 04            12348 	.byte	4
00007201 04            12349 	.byte	4
00007202 03            12350 	.byte	3
00007203 1f            12351 	.byte	31
00007204 64            12352 	.byte	100
00007205 03            12353 	.byte	3
00007206 07            12354 	.byte	7
00007207 65            12355 	.byte	101
00007208 03            12356 	.byte	3
00007209 09            12357 	.byte	9
0000720a 66            12358 	.byte	102
0000720b 01            12359 	.byte	1
0000720c 06            12360 	.byte	6
0000720d 5242415f4449  12361 	.strz	"RBA_DIAGLIB_START_SEC_ROM_CODE "
00007213 41474c49425f 
00007219 53544152545f 
0000721f 5345435f524f 
00007225 4d5f434f4445 
0000722b 2000 
0000722d 03            12362 	.byte	3
0000722e 07            12363 	.byte	7
0000722f 67            12364 	.byte	103
00007230 01            12365 	.byte	1
00007231 06            12366 	.byte	6
00007232 4d454d4d4150  12367 	.strz	"MEMMAP_ERROR "
00007238 5f4552524f52 
0000723e 2000 
00007240 01            12368 	.byte	1
00007241 51            12369 	.byte	81
00007242 4253575f5354  12370 	.strz	"BSW_START_SEC_DEFAULT_CODE "
00007248 4152545f5345 
0000724e 435f44454641 
00007254 554c545f434f 
0000725a 44452000 
0000725e 03            12371 	.byte	3
0000725f 52            12372 	.byte	82
00007260 1e            12373 	.byte	30
00007261 01            12374 	.byte	1
00007262 d308          12375 	.byte	211,8
00007264 53544152545f  12376 	.strz	"START_SEC_CODE "
0000726a 5345435f434f 

                                                                      Page 296
                                                              C:\Users\nhuliyap\AppData\Local\Temp\gh_00002581.s
00007270 44452000 
00007274 03            12377 	.byte	3
00007275 bb09          12378 	.byte	187,9
00007277 1f            12379 	.byte	31
00007278 01            12380 	.byte	1
00007279 f307          12381 	.byte	243,7
0000727b 434f44455f53  12382 	.strz	"CODE_SEC_OPEN "
00007281 45435f4f5045 
00007287 4e2000 
0000728a 04            12383 	.byte	4
0000728b 04            12384 	.byte	4
0000728c 01            12385 	.byte	1
0000728d 56            12386 	.byte	86
0000728e 5242415f4449  12387 	.strz	"RBA_DIAGLIB_WAS_STARTED_SEC_ROM_CODE "
00007294 41474c49425f 
0000729a 5741535f5354 
000072a0 41525445445f 
000072a6 5345435f524f 
000072ac 4d5f434f4445 
000072b2 2000 
000072b4 04            12388 	.byte	4
000072b5 01            12389 	.byte	1
000072b6 3b            12390 	.byte	59
000072b7 5242415f4449  12391 	.strz	"RBA_DIAGLIB_STOP_SEC_ROM_CODE "
000072bd 41474c49425f 
000072c3 53544f505f53 
000072c9 45435f524f4d 
000072cf 5f434f444520 
000072d5 00 
000072d6 03            12392 	.byte	3
000072d7 3c            12393 	.byte	60
000072d8 67            12394 	.byte	103
000072d9 01            12395 	.byte	1
000072da 06            12396 	.byte	6
000072db 4d454d4d4150  12397 	.strz	"MEMMAP_ERROR "
000072e1 5f4552524f52 
000072e7 2000 
000072e9 01            12398 	.byte	1
000072ea 5e            12399 	.byte	94
000072eb 4253575f5354  12400 	.strz	"BSW_STOP_SEC_DEFAULT_CODE "
000072f1 4f505f534543 
000072f7 5f4445464155 
000072fd 4c545f434f44 
00007303 452000 
00007306 03            12401 	.byte	3
00007307 5f            12402 	.byte	95
00007308 1e            12403 	.byte	30
00007309 01            12404 	.byte	1
0000730a d608          12405 	.byte	214,8
0000730c 53544f505f53  12406 	.strz	"STOP_SEC_CODE "
00007312 45435f434f44 
00007318 452000 
0000731b 03            12407 	.byte	3
0000731c bb09          12408 	.byte	187,9
0000731e 1f            12409 	.byte	31
0000731f 04            12410 	.byte	4
00007320 04            12411 	.byte	4
00007321 04            12412 	.byte	4
00007322 04            12413 	.byte	4
00007323 04            12414 	.byte	4
00007324 01            12415 	.byte	1

                                                                      Page 297
                                                              C:\Users\nhuliyap\AppData\Local\Temp\gh_00002581.s
00007325 0e            12416 	.byte	14
00007326 44454d5f5245  12417 	.strz	"DEM_RECOV (1u)"
0000732c 434f56202831 
00007332 752900 
00007335 01            12418 	.byte	1
00007336 12            12419 	.byte	18
00007337 44454d5f4445  12420 	.strz	"DEM_DEBOUNCE_FREEZE (0u)"
0000733d 424f554e4345 
00007343 5f465245455a 
00007349 452028307529 
0000734f 00 
00007350 01            12421 	.byte	1
00007351 18            12422 	.byte	24
00007352 44454d5f4e4f  12423 	.strz	"DEM_NO_STATUS_BYTE_CHANGE (0u)"
00007358 5f5354415455 
0000735e 535f42595445 
00007364 5f4348414e47 
0000736a 452028307529 
00007370 00 
00007371 04            12424 	.byte	4
00007372 01            12425 	.byte	1
00007373 64            12426 	.byte	100
00007374 44454d5f5354  12427 	.strz	"DEM_START_SEC_ROM_CONST "
0000737a 4152545f5345 
00007380 435f524f4d5f 
00007386 434f4e535420 
0000738c 00 
0000738d 03            12428 	.byte	3
0000738e 65            12429 	.byte	101
0000738f 1d            12430 	.byte	29
00007390 01            12431 	.byte	1
00007391 06            12432 	.byte	6
00007392 44454d5f4d45  12433 	.strz	"DEM_MEMMAP_ERROR "
00007398 4d4d41505f45 
0000739e 52524f522000 
000073a4 01            12434 	.byte	1
000073a5 3a            12435 	.byte	58
000073a6 4253575f5354  12436 	.strz	"BSW_START_SEC_CONST_UNSPECIFIED "
000073ac 4152545f5345 
000073b2 435f434f4e53 
000073b8 545f554e5350 
000073be 454349464945 
000073c4 442000 
000073c7 03            12437 	.byte	3
000073c8 3b            12438 	.byte	59
000073c9 1e            12439 	.byte	30
000073ca 01            12440 	.byte	1
000073cb f005          12441 	.byte	240,5
000073cd 53544152545f  12442 	.strz	"START_SEC_CONST_UNSPECIFIED "
000073d3 5345435f434f 
000073d9 4e53545f554e 
000073df 535045434946 
000073e5 4945442000 
000073ea 03            12443 	.byte	3
000073eb bb09          12444 	.byte	187,9
000073ed 1f            12445 	.byte	31
000073ee 01            12446 	.byte	1
000073ef b408          12447 	.byte	180,8
000073f1 434f4e53545f  12448 	.strz	"CONST_SEC_OPEN "
000073f7 5345435f4f50 
000073fd 454e2000 

                                                                      Page 298
                                                              C:\Users\nhuliyap\AppData\Local\Temp\gh_00002581.s
00007401 04            12449 	.byte	4
00007402 04            12450 	.byte	4
00007403 01            12451 	.byte	1
00007404 3f            12452 	.byte	63
00007405 44454d5f5741  12453 	.strz	"DEM_WAS_STARTED_SEC_ROM_CONST "
0000740b 535f53544152 
00007411 5445445f5345 
00007417 435f524f4d5f 
0000741d 434f4e535420 
00007423 00 
00007424 04            12454 	.byte	4
00007425 01            12455 	.byte	1
00007426 77            12456 	.byte	119
00007427 44454d5f5354  12457 	.strz	"DEM_STOP_SEC_ROM_CONST "
0000742d 4f505f534543 
00007433 5f524f4d5f43 
00007439 4f4e53542000 
0000743f 03            12458 	.byte	3
00007440 78            12459 	.byte	120
00007441 1d            12460 	.byte	29
00007442 01            12461 	.byte	1
00007443 06            12462 	.byte	6
00007444 44454d5f4d45  12463 	.strz	"DEM_MEMMAP_ERROR "
0000744a 4d4d41505f45 
00007450 52524f522000 
00007456 01            12464 	.byte	1
00007457 47            12465 	.byte	71
00007458 4253575f5354  12466 	.strz	"BSW_STOP_SEC_CONST_UNSPECIFIED "
0000745e 4f505f534543 
00007464 5f434f4e5354 
0000746a 5f554e535045 
00007470 434946494544 
00007476 2000 
00007478 03            12467 	.byte	3
00007479 48            12468 	.byte	72
0000747a 1e            12469 	.byte	30
0000747b 01            12470 	.byte	1
0000747c f405          12471 	.byte	244,5
0000747e 53544f505f53  12472 	.strz	"STOP_SEC_CONST "
00007484 45435f434f4e 
0000748a 53542000 
0000748e 03            12473 	.byte	3
0000748f bb09          12474 	.byte	187,9
00007491 1f            12475 	.byte	31
00007492 04            12476 	.byte	4
00007493 04            12477 	.byte	4
00007494 04            12478 	.byte	4
00007495 01            12479 	.byte	1
00007496 7a            12480 	.byte	122
00007497 44454d5f5354  12481 	.strz	"DEM_START_SEC_SAVED_ZONE "
0000749d 4152545f5345 
000074a3 435f53415645 
000074a9 445f5a4f4e45 
000074af 2000 
000074b1 03            12482 	.byte	3
000074b2 7b            12483 	.byte	123
000074b3 1d            12484 	.byte	29
000074b4 01            12485 	.byte	1
000074b5 06            12486 	.byte	6
000074b6 44454d5f4d45  12487 	.strz	"DEM_MEMMAP_ERROR "
000074bc 4d4d41505f45 

                                                                      Page 299
                                                              C:\Users\nhuliyap\AppData\Local\Temp\gh_00002581.s
000074c2 52524f522000 
000074c8 01            12488 	.byte	1
000074c9 9601          12489 	.byte	150,1
000074cb 4253575f5354  12490 	.strz	"BSW_START_SEC_VAR_SAVED_ZONE_UNSPECIFIED "
000074d1 4152545f5345 
000074d7 435f5641525f 
000074dd 53415645445f 
000074e3 5a4f4e455f55 
000074e9 4e5350454349 
000074ef 464945442000 
000074f5 03            12491 	.byte	3
000074f6 9701          12492 	.byte	151,1
000074f8 1e            12493 	.byte	30
000074f9 03            12494 	.byte	3
000074fa bb09          12495 	.byte	187,9
000074fc 1f            12496 	.byte	31
000074fd 04            12497 	.byte	4
000074fe 04            12498 	.byte	4
000074ff 01            12499 	.byte	1
00007500 9b01          12500 	.byte	155,1
00007502 44454d5f5741  12501 	.strz	"DEM_WAS_STARTED_SEC_SAVED_ZONE "
00007508 535f53544152 
0000750e 5445445f5345 
00007514 435f53415645 
0000751a 445f5a4f4e45 
00007520 2000 
00007522 04            12502 	.byte	4
00007523 01            12503 	.byte	1
00007524 8101          12504 	.byte	129,1
00007526 44454d5f5354  12505 	.strz	"DEM_STOP_SEC_SAVED_ZONE "
0000752c 4f505f534543 
00007532 5f5341564544 
00007538 5f5a4f4e4520 
0000753e 00 
0000753f 03            12506 	.byte	3
00007540 8201          12507 	.byte	130,1
00007542 1d            12508 	.byte	29
00007543 01            12509 	.byte	1
00007544 06            12510 	.byte	6
00007545 44454d5f4d45  12511 	.strz	"DEM_MEMMAP_ERROR "
0000754b 4d4d41505f45 
00007551 52524f522000 
00007557 01            12512 	.byte	1
00007558 a301          12513 	.byte	163,1
0000755a 4253575f5354  12514 	.strz	"BSW_STOP_SEC_VAR_SAVED_ZONE_UNSPECIFIED "
00007560 4f505f534543 
00007566 5f5641525f53 
0000756c 415645445f5a 
00007572 4f4e455f554e 
00007578 535045434946 
0000757e 4945442000 
00007583 03            12515 	.byte	3
00007584 a401          12516 	.byte	164,1
00007586 1e            12517 	.byte	30
00007587 03            12518 	.byte	3
00007588 bb09          12519 	.byte	187,9
0000758a 1f            12520 	.byte	31
0000758b 04            12521 	.byte	4
0000758c 04            12522 	.byte	4
0000758d 04            12523 	.byte	4
0000758e 01            12524 	.byte	1

                                                                      Page 300
                                                              C:\Users\nhuliyap\AppData\Local\Temp\gh_00002581.s
0000758f 8401          12525 	.byte	132,1
00007591 44454d5f5354  12526 	.strz	"DEM_START_SEC_RAM_CLEARED "
00007597 4152545f5345 
0000759d 435f52414d5f 
000075a3 434c45415245 
000075a9 442000 
000075ac 03            12527 	.byte	3
000075ad 8501          12528 	.byte	133,1
000075af 1d            12529 	.byte	29
000075b0 01            12530 	.byte	1
000075b1 06            12531 	.byte	6
000075b2 44454d5f4d45  12532 	.strz	"DEM_MEMMAP_ERROR "
000075b8 4d4d41505f45 
000075be 52524f522000 
000075c4 01            12533 	.byte	1
000075c5 0c            12534 	.byte	12
000075c6 4253575f5354  12535 	.strz	"BSW_START_SEC_VAR_CLEARED_UNSPECIFIED "
000075cc 4152545f5345 
000075d2 435f5641525f 
000075d8 434c45415245 
000075de 445f554e5350 
000075e4 454349464945 
000075ea 442000 
000075ed 03            12536 	.byte	3
000075ee 0d            12537 	.byte	13
000075ef 1e            12538 	.byte	30
000075f0 01            12539 	.byte	1
000075f1 42            12540 	.byte	66
000075f2 53544152545f  12541 	.strz	"START_SEC_VAR_CLEARED_UNSPECIFIED "
000075f8 5345435f5641 
000075fe 525f434c4541 
00007604 5245445f554e 
0000760a 535045434946 
00007610 4945442000 
00007615 03            12542 	.byte	3
00007616 bb09          12543 	.byte	187,9
00007618 1f            12544 	.byte	31
00007619 01            12545 	.byte	1
0000761a 56            12546 	.byte	86
0000761b 53544152545f  12547 	.strz	"START_SEC_VAR_ZERO_INIT_UNSPECIFIED "
00007621 5345435f5641 
00007627 525f5a45524f 
0000762d 5f494e49545f 
00007633 554e53504543 
00007639 494649454420 
0000763f 00 
00007640 01            12548 	.byte	1
00007641 840a          12549 	.byte	132,10
00007643 5641525f5345  12550 	.strz	"VAR_SEC_OPEN "
00007649 435f4f50454e 
0000764f 2000 
00007651 04            12551 	.byte	4
00007652 04            12552 	.byte	4
00007653 01            12553 	.byte	1
00007654 11            12554 	.byte	17
00007655 44454d5f5741  12555 	.strz	"DEM_WAS_STARTED_SEC_RAM_CLEARED "
0000765b 535f53544152 
00007661 5445445f5345 
00007667 435f52414d5f 
0000766d 434c45415245 
00007673 442000 

                                                                      Page 301
                                                              C:\Users\nhuliyap\AppData\Local\Temp\gh_00002581.s
00007676 04            12556 	.byte	4
00007677 01            12557 	.byte	1
00007678 8f01          12558 	.byte	143,1
0000767a 44454d5f5354  12559 	.strz	"DEM_STOP_SEC_RAM_CLEARED "
00007680 4f505f534543 
00007686 5f52414d5f43 
0000768c 4c4541524544 
00007692 2000 
00007694 03            12560 	.byte	3
00007695 9001          12561 	.byte	144,1
00007697 1d            12562 	.byte	29
00007698 01            12563 	.byte	1
00007699 06            12564 	.byte	6
0000769a 44454d5f4d45  12565 	.strz	"DEM_MEMMAP_ERROR "
000076a0 4d4d41505f45 
000076a6 52524f522000 
000076ac 01            12566 	.byte	1
000076ad 19            12567 	.byte	25
000076ae 4253575f5354  12568 	.strz	"BSW_STOP_SEC_VAR_CLEARED_UNSPECIFIED "
000076b4 4f505f534543 
000076ba 5f5641525f43 
000076c0 4c4541524544 
000076c6 5f554e535045 
000076cc 434946494544 
000076d2 2000 
000076d4 03            12569 	.byte	3
000076d5 1a            12570 	.byte	26
000076d6 1e            12571 	.byte	30
000076d7 01            12572 	.byte	1
000076d8 46            12573 	.byte	70
000076d9 53544f505f53  12574 	.strz	"STOP_SEC_VAR "
000076df 45435f564152 
000076e5 2000 
000076e7 03            12575 	.byte	3
000076e8 bb09          12576 	.byte	187,9
000076ea 1f            12577 	.byte	31
000076eb 04            12578 	.byte	4
000076ec 04            12579 	.byte	4
000076ed 04            12580 	.byte	4
000076ee 01            12581 	.byte	1
000076ef ec01          12582 	.byte	236,1
000076f1 44454d5f5354  12583 	.strz	"DEM_START_SEC_ROM_CODE "
000076f7 4152545f5345 
000076fd 435f524f4d5f 
00007703 434f44452000 
00007709 03            12584 	.byte	3
0000770a ed01          12585 	.byte	237,1
0000770c 1d            12586 	.byte	29
0000770d 01            12587 	.byte	1
0000770e 06            12588 	.byte	6
0000770f 44454d5f4d45  12589 	.strz	"DEM_MEMMAP_ERROR "
00007715 4d4d41505f45 
0000771b 52524f522000 
00007721 01            12590 	.byte	1
00007722 51            12591 	.byte	81
00007723 4253575f5354  12592 	.strz	"BSW_START_SEC_CODE "
00007729 4152545f5345 
0000772f 435f434f4445 
00007735 2000 
00007737 03            12593 	.byte	3
00007738 52            12594 	.byte	82

                                                                      Page 302
                                                              C:\Users\nhuliyap\AppData\Local\Temp\gh_00002581.s
00007739 1e            12595 	.byte	30
0000773a 01            12596 	.byte	1
0000773b da08          12597 	.byte	218,8
0000773d 53544152545f  12598 	.strz	"START_SEC_CODE "
00007743 5345435f434f 
00007749 44452000 
0000774d 03            12599 	.byte	3
0000774e bb09          12600 	.byte	187,9
00007750 1f            12601 	.byte	31
00007751 01            12602 	.byte	1
00007752 f307          12603 	.byte	243,7
00007754 434f44455f53  12604 	.strz	"CODE_SEC_OPEN "
0000775a 45435f4f5045 
00007760 4e2000 
00007763 04            12605 	.byte	4
00007764 04            12606 	.byte	4
00007765 01            12607 	.byte	1
00007766 56            12608 	.byte	86
00007767 44454d5f5741  12609 	.strz	"DEM_WAS_STARTED_SEC_ROM_CODE "
0000776d 535f53544152 
00007773 5445445f5345 
00007779 435f524f4d5f 
0000777f 434f44452000 
00007785 04            12610 	.byte	4
00007786 01            12611 	.byte	1
00007787 fe01          12612 	.byte	254,1
00007789 44454d5f5354  12613 	.strz	"DEM_STOP_SEC_ROM_CODE "
0000778f 4f505f534543 
00007795 5f524f4d5f43 
0000779b 4f44452000 
000077a0 03            12614 	.byte	3
000077a1 ff01          12615 	.byte	255,1
000077a3 1d            12616 	.byte	29
000077a4 01            12617 	.byte	1
000077a5 06            12618 	.byte	6
000077a6 44454d5f4d45  12619 	.strz	"DEM_MEMMAP_ERROR "
000077ac 4d4d41505f45 
000077b2 52524f522000 
000077b8 01            12620 	.byte	1
000077b9 5e            12621 	.byte	94
000077ba 4253575f5354  12622 	.strz	"BSW_STOP_SEC_CODE "
000077c0 4f505f534543 
000077c6 5f434f444520 
000077cc 00 
000077cd 03            12623 	.byte	3
000077ce 5f            12624 	.byte	95
000077cf 1e            12625 	.byte	30
000077d0 01            12626 	.byte	1
000077d1 de08          12627 	.byte	222,8
000077d3 53544f505f53  12628 	.strz	"STOP_SEC_CODE "
000077d9 45435f434f44 
000077df 452000 
000077e2 03            12629 	.byte	3
000077e3 bb09          12630 	.byte	187,9
000077e5 1f            12631 	.byte	31
000077e6 04            12632 	.byte	4
000077e7 04            12633 	.byte	4
000077e8 04            12634 	.byte	4
000077e9 04            12635 	.byte	4
000077ea 03            12636 	.byte	3
000077eb 0c            12637 	.byte	12

                                                                      Page 303
                                                              C:\Users\nhuliyap\AppData\Local\Temp\gh_00002581.s
000077ec 68            12638 	.byte	104
000077ed 04            12639 	.byte	4
000077ee 03            12640 	.byte	3
000077ef 0e            12641 	.byte	14
000077f0 69            12642 	.byte	105
000077f1 03            12643 	.byte	3
000077f2 07            12644 	.byte	7
000077f3 6a            12645 	.byte	106
000077f4 03            12646 	.byte	3
000077f5 08            12647 	.byte	8
000077f6 6b            12648 	.byte	107
000077f7 01            12649 	.byte	1
000077f8 06            12650 	.byte	6
000077f9 44454d5f4445  12651 	.strz	"DEM_DEB_LOCAL_CALC_PARAMS "
000077ff 425f4c4f4341 
00007805 4c5f43414c43 
0000780b 5f504152414d 
00007811 532000 
00007814 04            12652 	.byte	4
00007815 01            12653 	.byte	1
00007816 1a            12654 	.byte	26
00007817 44454d5f4445  12655 	.strz	"DEM_DEBACTION_NOOP 0x00u"
0000781d 42414354494f 
00007823 4e5f4e4f4f50 
00007829 203078303075 
0000782f 00 
00007830 01            12656 	.byte	1
00007831 23            12657 	.byte	35
00007832 44454d5f5354  12658 	.strz	"DEM_START_SEC_RAM_INIT "
00007838 4152545f5345 
0000783e 435f52414d5f 
00007844 494e49542000 
0000784a 03            12659 	.byte	3
0000784b 24            12660 	.byte	36
0000784c 1d            12661 	.byte	29
0000784d 01            12662 	.byte	1
0000784e 06            12663 	.byte	6
0000784f 44454d5f4d45  12664 	.strz	"DEM_MEMMAP_ERROR "
00007855 4d4d41505f45 
0000785b 52524f522000 
00007861 01            12665 	.byte	1
00007862 23            12666 	.byte	35
00007863 4253575f5354  12667 	.strz	"BSW_START_SEC_VAR_INIT_UNSPECIFIED "
00007869 4152545f5345 
0000786f 435f5641525f 
00007875 494e49545f55 
0000787b 4e5350454349 
00007881 464945442000 
00007887 03            12668 	.byte	3
00007888 24            12669 	.byte	36
00007889 1e            12670 	.byte	30
0000788a 01            12671 	.byte	1
0000788b 8001          12672 	.byte	128,1
0000788d 53544152545f  12673 	.strz	"START_SEC_VAR_INIT_UNSPECIFIED "
00007893 5345435f5641 
00007899 525f494e4954 
0000789f 5f554e535045 
000078a5 434946494544 
000078ab 2000 
000078ad 03            12674 	.byte	3
000078ae bb09          12675 	.byte	187,9

                                                                      Page 304
                                                              C:\Users\nhuliyap\AppData\Local\Temp\gh_00002581.s
000078b0 1f            12676 	.byte	31
000078b1 01            12677 	.byte	1
000078b2 a109          12678 	.byte	161,9
000078b4 5641525f5345  12679 	.strz	"VAR_SEC_OPEN "
000078ba 435f4f50454e 
000078c0 2000 
000078c2 04            12680 	.byte	4
000078c3 04            12681 	.byte	4
000078c4 01            12682 	.byte	1
000078c5 28            12683 	.byte	40
000078c6 44454d5f5741  12684 	.strz	"DEM_WAS_STARTED_SEC_RAM_INIT "
000078cc 535f53544152 
000078d2 5445445f5345 
000078d8 435f52414d5f 
000078de 494e49542000 
000078e4 04            12685 	.byte	4
000078e5 01            12686 	.byte	1
000078e6 26            12687 	.byte	38
000078e7 44454d5f5354  12688 	.strz	"DEM_STOP_SEC_RAM_INIT "
000078ed 4f505f534543 
000078f3 5f52414d5f49 
000078f9 4e49542000 
000078fe 03            12689 	.byte	3
000078ff 27            12690 	.byte	39
00007900 1d            12691 	.byte	29
00007901 01            12692 	.byte	1
00007902 06            12693 	.byte	6
00007903 44454d5f4d45  12694 	.strz	"DEM_MEMMAP_ERROR "
00007909 4d4d41505f45 
0000790f 52524f522000 
00007915 01            12695 	.byte	1
00007916 30            12696 	.byte	48
00007917 4253575f5354  12697 	.strz	"BSW_STOP_SEC_VAR_INIT_UNSPECIFIED "
0000791d 4f505f534543 
00007923 5f5641525f49 
00007929 4e49545f554e 
0000792f 535045434946 
00007935 4945442000 
0000793a 03            12698 	.byte	3
0000793b 31            12699 	.byte	49
0000793c 1e            12700 	.byte	30
0000793d 01            12701 	.byte	1
0000793e 8401          12702 	.byte	132,1
00007940 53544f505f53  12703 	.strz	"STOP_SEC_VAR "
00007946 45435f564152 
0000794c 2000 
0000794e 03            12704 	.byte	3
0000794f bb09          12705 	.byte	187,9
00007951 1f            12706 	.byte	31
00007952 04            12707 	.byte	4
00007953 04            12708 	.byte	4
00007954 04            12709 	.byte	4
00007955 01            12710 	.byte	1
00007956 30            12711 	.byte	48
00007957 44454d5f5354  12712 	.strz	"DEM_START_SEC_ROM_CODE "
0000795d 4152545f5345 
00007963 435f524f4d5f 
00007969 434f44452000 
0000796f 03            12713 	.byte	3
00007970 31            12714 	.byte	49
00007971 1d            12715 	.byte	29

                                                                      Page 305
                                                              C:\Users\nhuliyap\AppData\Local\Temp\gh_00002581.s
00007972 01            12716 	.byte	1
00007973 06            12717 	.byte	6
00007974 44454d5f4d45  12718 	.strz	"DEM_MEMMAP_ERROR "
0000797a 4d4d41505f45 
00007980 52524f522000 
00007986 01            12719 	.byte	1
00007987 51            12720 	.byte	81
00007988 4253575f5354  12721 	.strz	"BSW_START_SEC_CODE "
0000798e 4152545f5345 
00007994 435f434f4445 
0000799a 2000 
0000799c 03            12722 	.byte	3
0000799d 52            12723 	.byte	82
0000799e 1e            12724 	.byte	30
0000799f 01            12725 	.byte	1
000079a0 da08          12726 	.byte	218,8
000079a2 53544152545f  12727 	.strz	"START_SEC_CODE "
000079a8 5345435f434f 
000079ae 44452000 
000079b2 03            12728 	.byte	3
000079b3 bb09          12729 	.byte	187,9
000079b5 1f            12730 	.byte	31
000079b6 01            12731 	.byte	1
000079b7 f307          12732 	.byte	243,7
000079b9 434f44455f53  12733 	.strz	"CODE_SEC_OPEN "
000079bf 45435f4f5045 
000079c5 4e2000 
000079c8 04            12734 	.byte	4
000079c9 04            12735 	.byte	4
000079ca 01            12736 	.byte	1
000079cb 56            12737 	.byte	86
000079cc 44454d5f5741  12738 	.strz	"DEM_WAS_STARTED_SEC_ROM_CODE "
000079d2 535f53544152 
000079d8 5445445f5345 
000079de 435f524f4d5f 
000079e4 434f44452000 
000079ea 04            12739 	.byte	4
000079eb 01            12740 	.byte	1
000079ec 35            12741 	.byte	53
000079ed 44454d5f5354  12742 	.strz	"DEM_STOP_SEC_ROM_CODE "
000079f3 4f505f534543 
000079f9 5f524f4d5f43 
000079ff 4f44452000 
00007a04 03            12743 	.byte	3
00007a05 36            12744 	.byte	54
00007a06 1d            12745 	.byte	29
00007a07 01            12746 	.byte	1
00007a08 06            12747 	.byte	6
00007a09 44454d5f4d45  12748 	.strz	"DEM_MEMMAP_ERROR "
00007a0f 4d4d41505f45 
00007a15 52524f522000 
00007a1b 01            12749 	.byte	1
00007a1c 5e            12750 	.byte	94
00007a1d 4253575f5354  12751 	.strz	"BSW_STOP_SEC_CODE "
00007a23 4f505f534543 
00007a29 5f434f444520 
00007a2f 00 
00007a30 03            12752 	.byte	3
00007a31 5f            12753 	.byte	95
00007a32 1e            12754 	.byte	30
00007a33 01            12755 	.byte	1

                                                                      Page 306
                                                              C:\Users\nhuliyap\AppData\Local\Temp\gh_00002581.s
00007a34 de08          12756 	.byte	222,8
00007a36 53544f505f53  12757 	.strz	"STOP_SEC_CODE "
00007a3c 45435f434f44 
00007a42 452000 
00007a45 03            12758 	.byte	3
00007a46 bb09          12759 	.byte	187,9
00007a48 1f            12760 	.byte	31
00007a49 04            12761 	.byte	4
00007a4a 04            12762 	.byte	4
00007a4b 04            12763 	.byte	4
00007a4c 04            12764 	.byte	4
00007a4d 03            12765 	.byte	3
00007a4e 0a            12766 	.byte	10
00007a4f 6c            12767 	.byte	108
00007a50 01            12768 	.byte	1
00007a51 f801          12769 	.byte	248,1
00007a53 44454d5f5354  12770 	.strz	"DEM_START_SEC_ROM_CODE "
00007a59 4152545f5345 
00007a5f 435f524f4d5f 
00007a65 434f44452000 
00007a6b 03            12771 	.byte	3
00007a6c f901          12772 	.byte	249,1
00007a6e 1d            12773 	.byte	29
00007a6f 01            12774 	.byte	1
00007a70 06            12775 	.byte	6
00007a71 44454d5f4d45  12776 	.strz	"DEM_MEMMAP_ERROR "
00007a77 4d4d41505f45 
00007a7d 52524f522000 
00007a83 01            12777 	.byte	1
00007a84 51            12778 	.byte	81
00007a85 4253575f5354  12779 	.strz	"BSW_START_SEC_CODE "
00007a8b 4152545f5345 
00007a91 435f434f4445 
00007a97 2000 
00007a99 03            12780 	.byte	3
00007a9a 52            12781 	.byte	82
00007a9b 1e            12782 	.byte	30
00007a9c 01            12783 	.byte	1
00007a9d da08          12784 	.byte	218,8
00007a9f 53544152545f  12785 	.strz	"START_SEC_CODE "
00007aa5 5345435f434f 
00007aab 44452000 
00007aaf 03            12786 	.byte	3
00007ab0 bb09          12787 	.byte	187,9
00007ab2 1f            12788 	.byte	31
00007ab3 01            12789 	.byte	1
00007ab4 f307          12790 	.byte	243,7
00007ab6 434f44455f53  12791 	.strz	"CODE_SEC_OPEN "
00007abc 45435f4f5045 
00007ac2 4e2000 
00007ac5 04            12792 	.byte	4
00007ac6 04            12793 	.byte	4
00007ac7 01            12794 	.byte	1
00007ac8 56            12795 	.byte	86
00007ac9 44454d5f5741  12796 	.strz	"DEM_WAS_STARTED_SEC_ROM_CODE "
00007acf 535f53544152 
00007ad5 5445445f5345 
00007adb 435f524f4d5f 
00007ae1 434f44452000 
00007ae7 04            12797 	.byte	4
00007ae8 01            12798 	.byte	1

                                                                      Page 307
                                                              C:\Users\nhuliyap\AppData\Local\Temp\gh_00002581.s
00007ae9 ba02          12799 	.byte	186,2
00007aeb 44454d5f5354  12800 	.strz	"DEM_STOP_SEC_ROM_CODE "
00007af1 4f505f534543 
00007af7 5f524f4d5f43 
00007afd 4f44452000 
00007b02 03            12801 	.byte	3
00007b03 bb02          12802 	.byte	187,2
00007b05 1d            12803 	.byte	29
00007b06 01            12804 	.byte	1
00007b07 06            12805 	.byte	6
00007b08 44454d5f4d45  12806 	.strz	"DEM_MEMMAP_ERROR "
00007b0e 4d4d41505f45 
00007b14 52524f522000 
00007b1a 01            12807 	.byte	1
00007b1b 5e            12808 	.byte	94
00007b1c 4253575f5354  12809 	.strz	"BSW_STOP_SEC_CODE "
00007b22 4f505f534543 
00007b28 5f434f444520 
00007b2e 00 
00007b2f 03            12810 	.byte	3
00007b30 5f            12811 	.byte	95
00007b31 1e            12812 	.byte	30
00007b32 01            12813 	.byte	1
00007b33 de08          12814 	.byte	222,8
00007b35 53544f505f53  12815 	.strz	"STOP_SEC_CODE "
00007b3b 45435f434f44 
00007b41 452000 
00007b44 03            12816 	.byte	3
00007b45 bb09          12817 	.byte	187,9
00007b47 1f            12818 	.byte	31
00007b48 04            12819 	.byte	4
00007b49 04            12820 	.byte	4
00007b4a 04            12821 	.byte	4
00007b4b 04            12822 	.byte	4
00007b4c 03            12823 	.byte	3
00007b4d 0b            12824 	.byte	11
00007b4e 6d            12825 	.byte	109
00007b4f 04            12826 	.byte	4
00007b50 03            12827 	.byte	3
00007b51 0c            12828 	.byte	12
00007b52 6e            12829 	.byte	110
00007b53 03            12830 	.byte	3
00007b54 08            12831 	.byte	8
00007b55 6f            12832 	.byte	111
00007b56 01            12833 	.byte	1
00007b57 0f            12834 	.byte	15
00007b58 44656d5f4576  12835 	.strz	"Dem_EvBuffEventType uint8"
00007b5e 427566664576 
00007b64 656e74547970 
00007b6a 652075696e74 
00007b70 3800 
00007b72 01            12836 	.byte	1
00007b73 17            12837 	.byte	23
00007b74 435f4556454e  12838 	.strz	"C_EVENTTYPE_UNROBUST 7u"
00007b7a 54545950455f 
00007b80 554e524f4255 
00007b86 535420377500 
00007b8c 01            12839 	.byte	1
00007b8d 19            12840 	.byte	25
00007b8e 44454d5f4346  12841 	.strz	"DEM_CFG_EVBUFF_STORES_ENVDATA_ON STD_ON"
00007b94 475f45564255 

                                                                      Page 308
                                                              C:\Users\nhuliyap\AppData\Local\Temp\gh_00002581.s
00007b9a 46465f53544f 
00007ba0 5245535f454e 
00007ba6 56444154415f 
00007bac 4f4e20535444 
00007bb2 5f4f4e00 
00007bb6 01            12842 	.byte	1
00007bb7 1c            12843 	.byte	28
00007bb8 44454d5f4346  12844 	.strz	"DEM_CFG_EVBUFF_STORES_ENVDATA DEM_CFG_EVBUFF_STORES_ENVDATA_ON"
00007bbe 475f45564255 
00007bc4 46465f53544f 
00007bca 5245535f454e 
00007bd0 564441544120 
00007bd6 44454d5f4346 
00007bdc 475f45564255 
00007be2 46465f53544f 
00007be8 5245535f454e 
00007bee 56444154415f 
00007bf4 4f4e00 
00007bf7 04            12845 	.byte	4
00007bf8 01            12846 	.byte	1
00007bf9 13            12847 	.byte	19
00007bfa 44454d5f5354  12848 	.strz	"DEM_START_SEC_SAVED_ZONE "
00007c00 4152545f5345 
00007c06 435f53415645 
00007c0c 445f5a4f4e45 
00007c12 2000 
00007c14 03            12849 	.byte	3
00007c15 14            12850 	.byte	20
00007c16 1d            12851 	.byte	29
00007c17 01            12852 	.byte	1
00007c18 06            12853 	.byte	6
00007c19 44454d5f4d45  12854 	.strz	"DEM_MEMMAP_ERROR "
00007c1f 4d4d41505f45 
00007c25 52524f522000 
00007c2b 01            12855 	.byte	1
00007c2c 9601          12856 	.byte	150,1
00007c2e 4253575f5354  12857 	.strz	"BSW_START_SEC_VAR_SAVED_ZONE_UNSPECIFIED "
00007c34 4152545f5345 
00007c3a 435f5641525f 
00007c40 53415645445f 
00007c46 5a4f4e455f55 
00007c4c 4e5350454349 
00007c52 464945442000 
00007c58 03            12858 	.byte	3
00007c59 9701          12859 	.byte	151,1
00007c5b 1e            12860 	.byte	30
00007c5c 03            12861 	.byte	3
00007c5d bb09          12862 	.byte	187,9
00007c5f 1f            12863 	.byte	31
00007c60 04            12864 	.byte	4
00007c61 04            12865 	.byte	4
00007c62 01            12866 	.byte	1
00007c63 9b01          12867 	.byte	155,1
00007c65 44454d5f5741  12868 	.strz	"DEM_WAS_STARTED_SEC_SAVED_ZONE "
00007c6b 535f53544152 
00007c71 5445445f5345 
00007c77 435f53415645 
00007c7d 445f5a4f4e45 
00007c83 2000 
00007c85 04            12869 	.byte	4
00007c86 01            12870 	.byte	1

                                                                      Page 309
                                                              C:\Users\nhuliyap\AppData\Local\Temp\gh_00002581.s
00007c87 16            12871 	.byte	22
00007c88 44454d5f5354  12872 	.strz	"DEM_STOP_SEC_SAVED_ZONE "
00007c8e 4f505f534543 
00007c94 5f5341564544 
00007c9a 5f5a4f4e4520 
00007ca0 00 
00007ca1 03            12873 	.byte	3
00007ca2 17            12874 	.byte	23
00007ca3 1d            12875 	.byte	29
00007ca4 01            12876 	.byte	1
00007ca5 06            12877 	.byte	6
00007ca6 44454d5f4d45  12878 	.strz	"DEM_MEMMAP_ERROR "
00007cac 4d4d41505f45 
00007cb2 52524f522000 
00007cb8 01            12879 	.byte	1
00007cb9 a301          12880 	.byte	163,1
00007cbb 4253575f5354  12881 	.strz	"BSW_STOP_SEC_VAR_SAVED_ZONE_UNSPECIFIED "
00007cc1 4f505f534543 
00007cc7 5f5641525f53 
00007ccd 415645445f5a 
00007cd3 4f4e455f554e 
00007cd9 535045434946 
00007cdf 4945442000 
00007ce4 03            12882 	.byte	3
00007ce5 a401          12883 	.byte	164,1
00007ce7 1e            12884 	.byte	30
00007ce8 03            12885 	.byte	3
00007ce9 bb09          12886 	.byte	187,9
00007ceb 1f            12887 	.byte	31
00007cec 04            12888 	.byte	4
00007ced 04            12889 	.byte	4
00007cee 04            12890 	.byte	4
00007cef 01            12891 	.byte	1
00007cf0 21            12892 	.byte	33
00007cf1 44454d5f5354  12893 	.strz	"DEM_START_SEC_ROM_CODE "
00007cf7 4152545f5345 
00007cfd 435f524f4d5f 
00007d03 434f44452000 
00007d09 03            12894 	.byte	3
00007d0a 22            12895 	.byte	34
00007d0b 1d            12896 	.byte	29
00007d0c 01            12897 	.byte	1
00007d0d 06            12898 	.byte	6
00007d0e 44454d5f4d45  12899 	.strz	"DEM_MEMMAP_ERROR "
00007d14 4d4d41505f45 
00007d1a 52524f522000 
00007d20 01            12900 	.byte	1
00007d21 51            12901 	.byte	81
00007d22 4253575f5354  12902 	.strz	"BSW_START_SEC_CODE "
00007d28 4152545f5345 
00007d2e 435f434f4445 
00007d34 2000 
00007d36 03            12903 	.byte	3
00007d37 52            12904 	.byte	82
00007d38 1e            12905 	.byte	30
00007d39 01            12906 	.byte	1
00007d3a da08          12907 	.byte	218,8
00007d3c 53544152545f  12908 	.strz	"START_SEC_CODE "
00007d42 5345435f434f 
00007d48 44452000 
00007d4c 03            12909 	.byte	3

                                                                      Page 310
                                                              C:\Users\nhuliyap\AppData\Local\Temp\gh_00002581.s
00007d4d bb09          12910 	.byte	187,9
00007d4f 1f            12911 	.byte	31
00007d50 01            12912 	.byte	1
00007d51 f307          12913 	.byte	243,7
00007d53 434f44455f53  12914 	.strz	"CODE_SEC_OPEN "
00007d59 45435f4f5045 
00007d5f 4e2000 
00007d62 04            12915 	.byte	4
00007d63 04            12916 	.byte	4
00007d64 01            12917 	.byte	1
00007d65 56            12918 	.byte	86
00007d66 44454d5f5741  12919 	.strz	"DEM_WAS_STARTED_SEC_ROM_CODE "
00007d6c 535f53544152 
00007d72 5445445f5345 
00007d78 435f524f4d5f 
00007d7e 434f44452000 
00007d84 04            12920 	.byte	4
00007d85 01            12921 	.byte	1
00007d86 4f            12922 	.byte	79
00007d87 44454d5f5354  12923 	.strz	"DEM_STOP_SEC_ROM_CODE "
00007d8d 4f505f534543 
00007d93 5f524f4d5f43 
00007d99 4f44452000 
00007d9e 03            12924 	.byte	3
00007d9f 50            12925 	.byte	80
00007da0 1d            12926 	.byte	29
00007da1 01            12927 	.byte	1
00007da2 06            12928 	.byte	6
00007da3 44454d5f4d45  12929 	.strz	"DEM_MEMMAP_ERROR "
00007da9 4d4d41505f45 
00007daf 52524f522000 
00007db5 01            12930 	.byte	1
00007db6 5e            12931 	.byte	94
00007db7 4253575f5354  12932 	.strz	"BSW_STOP_SEC_CODE "
00007dbd 4f505f534543 
00007dc3 5f434f444520 
00007dc9 00 
00007dca 03            12933 	.byte	3
00007dcb 5f            12934 	.byte	95
00007dcc 1e            12935 	.byte	30
00007dcd 01            12936 	.byte	1
00007dce de08          12937 	.byte	222,8
00007dd0 53544f505f53  12938 	.strz	"STOP_SEC_CODE "
00007dd6 45435f434f44 
00007ddc 452000 
00007ddf 03            12939 	.byte	3
00007de0 bb09          12940 	.byte	187,9
00007de2 1f            12941 	.byte	31
00007de3 04            12942 	.byte	4
00007de4 04            12943 	.byte	4
00007de5 04            12944 	.byte	4
00007de6 04            12945 	.byte	4
00007de7 03            12946 	.byte	3
00007de8 0d            12947 	.byte	13
00007de9 70            12948 	.byte	112
00007dea 01            12949 	.byte	1
00007deb 09            12950 	.byte	9
00007dec 44454d5f5354  12951 	.strz	"DEM_START_SEC_ROM_CODE "
00007df2 4152545f5345 
00007df8 435f524f4d5f 
00007dfe 434f44452000 

                                                                      Page 311
                                                              C:\Users\nhuliyap\AppData\Local\Temp\gh_00002581.s
00007e04 03            12952 	.byte	3
00007e05 0a            12953 	.byte	10
00007e06 1d            12954 	.byte	29
00007e07 01            12955 	.byte	1
00007e08 06            12956 	.byte	6
00007e09 44454d5f4d45  12957 	.strz	"DEM_MEMMAP_ERROR "
00007e0f 4d4d41505f45 
00007e15 52524f522000 
00007e1b 01            12958 	.byte	1
00007e1c 51            12959 	.byte	81
00007e1d 4253575f5354  12960 	.strz	"BSW_START_SEC_CODE "
00007e23 4152545f5345 
00007e29 435f434f4445 
00007e2f 2000 
00007e31 03            12961 	.byte	3
00007e32 52            12962 	.byte	82
00007e33 1e            12963 	.byte	30
00007e34 01            12964 	.byte	1
00007e35 da08          12965 	.byte	218,8
00007e37 53544152545f  12966 	.strz	"START_SEC_CODE "
00007e3d 5345435f434f 
00007e43 44452000 
00007e47 03            12967 	.byte	3
00007e48 bb09          12968 	.byte	187,9
00007e4a 1f            12969 	.byte	31
00007e4b 01            12970 	.byte	1
00007e4c f307          12971 	.byte	243,7
00007e4e 434f44455f53  12972 	.strz	"CODE_SEC_OPEN "
00007e54 45435f4f5045 
00007e5a 4e2000 
00007e5d 04            12973 	.byte	4
00007e5e 04            12974 	.byte	4
00007e5f 01            12975 	.byte	1
00007e60 56            12976 	.byte	86
00007e61 44454d5f5741  12977 	.strz	"DEM_WAS_STARTED_SEC_ROM_CODE "
00007e67 535f53544152 
00007e6d 5445445f5345 
00007e73 435f524f4d5f 
00007e79 434f44452000 
00007e7f 04            12978 	.byte	4
00007e80 01            12979 	.byte	1
00007e81 24            12980 	.byte	36
00007e82 44454d5f5354  12981 	.strz	"DEM_STOP_SEC_ROM_CODE "
00007e88 4f505f534543 
00007e8e 5f524f4d5f43 
00007e94 4f44452000 
00007e99 03            12982 	.byte	3
00007e9a 25            12983 	.byte	37
00007e9b 1d            12984 	.byte	29
00007e9c 01            12985 	.byte	1
00007e9d 06            12986 	.byte	6
00007e9e 44454d5f4d45  12987 	.strz	"DEM_MEMMAP_ERROR "
00007ea4 4d4d41505f45 
00007eaa 52524f522000 
00007eb0 01            12988 	.byte	1
00007eb1 5e            12989 	.byte	94
00007eb2 4253575f5354  12990 	.strz	"BSW_STOP_SEC_CODE "
00007eb8 4f505f534543 
00007ebe 5f434f444520 
00007ec4 00 
00007ec5 03            12991 	.byte	3

                                                                      Page 312
                                                              C:\Users\nhuliyap\AppData\Local\Temp\gh_00002581.s
00007ec6 5f            12992 	.byte	95
00007ec7 1e            12993 	.byte	30
00007ec8 01            12994 	.byte	1
00007ec9 de08          12995 	.byte	222,8
00007ecb 53544f505f53  12996 	.strz	"STOP_SEC_CODE "
00007ed1 45435f434f44 
00007ed7 452000 
00007eda 03            12997 	.byte	3
00007edb bb09          12998 	.byte	187,9
00007edd 1f            12999 	.byte	31
00007ede 04            13000 	.byte	4
00007edf 04            13001 	.byte	4
00007ee0 04            13002 	.byte	4
00007ee1 04            13003 	.byte	4
00007ee2 01            13004 	.byte	1
00007ee3 c701          13005 	.byte	199,1
00007ee5 44454d5f5354  13006 	.strz	"DEM_START_SEC_ROM_CODE "
00007eeb 4152545f5345 
00007ef1 435f524f4d5f 
00007ef7 434f44452000 
00007efd 03            13007 	.byte	3
00007efe c801          13008 	.byte	200,1
00007f00 1d            13009 	.byte	29
00007f01 01            13010 	.byte	1
00007f02 06            13011 	.byte	6
00007f03 44454d5f4d45  13012 	.strz	"DEM_MEMMAP_ERROR "
00007f09 4d4d41505f45 
00007f0f 52524f522000 
00007f15 01            13013 	.byte	1
00007f16 51            13014 	.byte	81
00007f17 4253575f5354  13015 	.strz	"BSW_START_SEC_CODE "
00007f1d 4152545f5345 
00007f23 435f434f4445 
00007f29 2000 
00007f2b 03            13016 	.byte	3
00007f2c 52            13017 	.byte	82
00007f2d 1e            13018 	.byte	30
00007f2e 01            13019 	.byte	1
00007f2f da08          13020 	.byte	218,8
00007f31 53544152545f  13021 	.strz	"START_SEC_CODE "
00007f37 5345435f434f 
00007f3d 44452000 
00007f41 03            13022 	.byte	3
00007f42 bb09          13023 	.byte	187,9
00007f44 1f            13024 	.byte	31
00007f45 01            13025 	.byte	1
00007f46 f307          13026 	.byte	243,7
00007f48 434f44455f53  13027 	.strz	"CODE_SEC_OPEN "
00007f4e 45435f4f5045 
00007f54 4e2000 
00007f57 04            13028 	.byte	4
00007f58 04            13029 	.byte	4
00007f59 01            13030 	.byte	1
00007f5a 56            13031 	.byte	86
00007f5b 44454d5f5741  13032 	.strz	"DEM_WAS_STARTED_SEC_ROM_CODE "
00007f61 535f53544152 
00007f67 5445445f5345 
00007f6d 435f524f4d5f 
00007f73 434f44452000 
00007f79 04            13033 	.byte	4
00007f7a 01            13034 	.byte	1

                                                                      Page 313
                                                              C:\Users\nhuliyap\AppData\Local\Temp\gh_00002581.s
00007f7b cc01          13035 	.byte	204,1
00007f7d 44454d5f5354  13036 	.strz	"DEM_STOP_SEC_ROM_CODE "
00007f83 4f505f534543 
00007f89 5f524f4d5f43 
00007f8f 4f44452000 
00007f94 03            13037 	.byte	3
00007f95 cd01          13038 	.byte	205,1
00007f97 1d            13039 	.byte	29
00007f98 01            13040 	.byte	1
00007f99 06            13041 	.byte	6
00007f9a 44454d5f4d45  13042 	.strz	"DEM_MEMMAP_ERROR "
00007fa0 4d4d41505f45 
00007fa6 52524f522000 
00007fac 01            13043 	.byte	1
00007fad 5e            13044 	.byte	94
00007fae 4253575f5354  13045 	.strz	"BSW_STOP_SEC_CODE "
00007fb4 4f505f534543 
00007fba 5f434f444520 
00007fc0 00 
00007fc1 03            13046 	.byte	3
00007fc2 5f            13047 	.byte	95
00007fc3 1e            13048 	.byte	30
00007fc4 01            13049 	.byte	1
00007fc5 de08          13050 	.byte	222,8
00007fc7 53544f505f53  13051 	.strz	"STOP_SEC_CODE "
00007fcd 45435f434f44 
00007fd3 452000 
00007fd6 03            13052 	.byte	3
00007fd7 bb09          13053 	.byte	187,9
00007fd9 1f            13054 	.byte	31
00007fda 04            13055 	.byte	4
00007fdb 04            13056 	.byte	4
00007fdc 04            13057 	.byte	4
00007fdd 04            13058 	.byte	4
00007fde 03            13059 	.byte	3
00007fdf 11            13060 	.byte	17
00007fe0 71            13061 	.byte	113
00007fe1 03            13062 	.byte	3
00007fe2 06            13063 	.byte	6
00007fe3 72            13064 	.byte	114
00007fe4 03            13065 	.byte	3
00007fe5 07            13066 	.byte	7
00007fe6 73            13067 	.byte	115
00007fe7 01            13068 	.byte	1
00007fe8 0a            13069 	.byte	10
00007fe9 44454d5f434c  13070 	.strz	"DEM_CLIENTID_INVALID 0x00"
00007fef 49454e544944 
00007ff5 5f494e56414c 
00007ffb 494420307830 
00008001 3000 
00008003 01            13071 	.byte	1
00008004 20            13072 	.byte	32
00008005 44454d5f5354  13073 	.strz	"DEM_START_SEC_RAM_CLEARED "
0000800b 4152545f5345 
00008011 435f52414d5f 
00008017 434c45415245 
0000801d 442000 
00008020 03            13074 	.byte	3
00008021 21            13075 	.byte	33
00008022 1d            13076 	.byte	29
00008023 01            13077 	.byte	1

                                                                      Page 314
                                                              C:\Users\nhuliyap\AppData\Local\Temp\gh_00002581.s
00008024 06            13078 	.byte	6
00008025 44454d5f4d45  13079 	.strz	"DEM_MEMMAP_ERROR "
0000802b 4d4d41505f45 
00008031 52524f522000 
00008037 01            13080 	.byte	1
00008038 0c            13081 	.byte	12
00008039 4253575f5354  13082 	.strz	"BSW_START_SEC_VAR_CLEARED_UNSPECIFIED "
0000803f 4152545f5345 
00008045 435f5641525f 
0000804b 434c45415245 
00008051 445f554e5350 
00008057 454349464945 
0000805d 442000 
00008060 03            13083 	.byte	3
00008061 0d            13084 	.byte	13
00008062 1e            13085 	.byte	30
00008063 01            13086 	.byte	1
00008064 42            13087 	.byte	66
00008065 53544152545f  13088 	.strz	"START_SEC_VAR_CLEARED_UNSPECIFIED "
0000806b 5345435f5641 
00008071 525f434c4541 
00008077 5245445f554e 
0000807d 535045434946 
00008083 4945442000 
00008088 03            13089 	.byte	3
00008089 bb09          13090 	.byte	187,9
0000808b 1f            13091 	.byte	31
0000808c 01            13092 	.byte	1
0000808d 56            13093 	.byte	86
0000808e 53544152545f  13094 	.strz	"START_SEC_VAR_ZERO_INIT_UNSPECIFIED "
00008094 5345435f5641 
0000809a 525f5a45524f 
000080a0 5f494e49545f 
000080a6 554e53504543 
000080ac 494649454420 
000080b2 00 
000080b3 01            13095 	.byte	1
000080b4 840a          13096 	.byte	132,10
000080b6 5641525f5345  13097 	.strz	"VAR_SEC_OPEN "
000080bc 435f4f50454e 
000080c2 2000 
000080c4 04            13098 	.byte	4
000080c5 04            13099 	.byte	4
000080c6 01            13100 	.byte	1
000080c7 11            13101 	.byte	17
000080c8 44454d5f5741  13102 	.strz	"DEM_WAS_STARTED_SEC_RAM_CLEARED "
000080ce 535f53544152 
000080d4 5445445f5345 
000080da 435f52414d5f 
000080e0 434c45415245 
000080e6 442000 
000080e9 04            13103 	.byte	4
000080ea 01            13104 	.byte	1
000080eb 25            13105 	.byte	37
000080ec 44454d5f5354  13106 	.strz	"DEM_STOP_SEC_RAM_CLEARED "
000080f2 4f505f534543 
000080f8 5f52414d5f43 
000080fe 4c4541524544 
00008104 2000 
00008106 03            13107 	.byte	3
00008107 26            13108 	.byte	38

                                                                      Page 315
                                                              C:\Users\nhuliyap\AppData\Local\Temp\gh_00002581.s
00008108 1d            13109 	.byte	29
00008109 01            13110 	.byte	1
0000810a 06            13111 	.byte	6
0000810b 44454d5f4d45  13112 	.strz	"DEM_MEMMAP_ERROR "
00008111 4d4d41505f45 
00008117 52524f522000 
0000811d 01            13113 	.byte	1
0000811e 19            13114 	.byte	25
0000811f 4253575f5354  13115 	.strz	"BSW_STOP_SEC_VAR_CLEARED_UNSPECIFIED "
00008125 4f505f534543 
0000812b 5f5641525f43 
00008131 4c4541524544 
00008137 5f554e535045 
0000813d 434946494544 
00008143 2000 
00008145 03            13116 	.byte	3
00008146 1a            13117 	.byte	26
00008147 1e            13118 	.byte	30
00008148 01            13119 	.byte	1
00008149 46            13120 	.byte	70
0000814a 53544f505f53  13121 	.strz	"STOP_SEC_VAR "
00008150 45435f564152 
00008156 2000 
00008158 03            13122 	.byte	3
00008159 bb09          13123 	.byte	187,9
0000815b 1f            13124 	.byte	31
0000815c 04            13125 	.byte	4
0000815d 04            13126 	.byte	4
0000815e 04            13127 	.byte	4
0000815f 01            13128 	.byte	1
00008160 28            13129 	.byte	40
00008161 44454d5f5354  13130 	.strz	"DEM_START_SEC_ROM_CONST "
00008167 4152545f5345 
0000816d 435f524f4d5f 
00008173 434f4e535420 
00008179 00 
0000817a 03            13131 	.byte	3
0000817b 29            13132 	.byte	41
0000817c 1d            13133 	.byte	29
0000817d 01            13134 	.byte	1
0000817e 06            13135 	.byte	6
0000817f 44454d5f4d45  13136 	.strz	"DEM_MEMMAP_ERROR "
00008185 4d4d41505f45 
0000818b 52524f522000 
00008191 01            13137 	.byte	1
00008192 3a            13138 	.byte	58
00008193 4253575f5354  13139 	.strz	"BSW_START_SEC_CONST_UNSPECIFIED "
00008199 4152545f5345 
0000819f 435f434f4e53 
000081a5 545f554e5350 
000081ab 454349464945 
000081b1 442000 
000081b4 03            13140 	.byte	3
000081b5 3b            13141 	.byte	59
000081b6 1e            13142 	.byte	30
000081b7 01            13143 	.byte	1
000081b8 f005          13144 	.byte	240,5
000081ba 53544152545f  13145 	.strz	"START_SEC_CONST_UNSPECIFIED "
000081c0 5345435f434f 
000081c6 4e53545f554e 
000081cc 535045434946 

                                                                      Page 316
                                                              C:\Users\nhuliyap\AppData\Local\Temp\gh_00002581.s
000081d2 4945442000 
000081d7 03            13146 	.byte	3
000081d8 bb09          13147 	.byte	187,9
000081da 1f            13148 	.byte	31
000081db 01            13149 	.byte	1
000081dc b408          13150 	.byte	180,8
000081de 434f4e53545f  13151 	.strz	"CONST_SEC_OPEN "
000081e4 5345435f4f50 
000081ea 454e2000 
000081ee 04            13152 	.byte	4
000081ef 04            13153 	.byte	4
000081f0 01            13154 	.byte	1
000081f1 3f            13155 	.byte	63
000081f2 44454d5f5741  13156 	.strz	"DEM_WAS_STARTED_SEC_ROM_CONST "
000081f8 535f53544152 
000081fe 5445445f5345 
00008204 435f524f4d5f 
0000820a 434f4e535420 
00008210 00 
00008211 04            13157 	.byte	4
00008212 01            13158 	.byte	1
00008213 2d            13159 	.byte	45
00008214 44454d5f5354  13160 	.strz	"DEM_STOP_SEC_ROM_CONST "
0000821a 4f505f534543 
00008220 5f524f4d5f43 
00008226 4f4e53542000 
0000822c 03            13161 	.byte	3
0000822d 2e            13162 	.byte	46
0000822e 1d            13163 	.byte	29
0000822f 01            13164 	.byte	1
00008230 06            13165 	.byte	6
00008231 44454d5f4d45  13166 	.strz	"DEM_MEMMAP_ERROR "
00008237 4d4d41505f45 
0000823d 52524f522000 
00008243 01            13167 	.byte	1
00008244 47            13168 	.byte	71
00008245 4253575f5354  13169 	.strz	"BSW_STOP_SEC_CONST_UNSPECIFIED "
0000824b 4f505f534543 
00008251 5f434f4e5354 
00008257 5f554e535045 
0000825d 434946494544 
00008263 2000 
00008265 03            13170 	.byte	3
00008266 48            13171 	.byte	72
00008267 1e            13172 	.byte	30
00008268 01            13173 	.byte	1
00008269 f405          13174 	.byte	244,5
0000826b 53544f505f53  13175 	.strz	"STOP_SEC_CONST "
00008271 45435f434f4e 
00008277 53542000 
0000827b 03            13176 	.byte	3
0000827c bb09          13177 	.byte	187,9
0000827e 1f            13178 	.byte	31
0000827f 04            13179 	.byte	4
00008280 04            13180 	.byte	4
00008281 04            13181 	.byte	4
00008282 01            13182 	.byte	1
00008283 30            13183 	.byte	48
00008284 44454d5f5354  13184 	.strz	"DEM_START_SEC_ROM_CODE "
0000828a 4152545f5345 
00008290 435f524f4d5f 

                                                                      Page 317
                                                              C:\Users\nhuliyap\AppData\Local\Temp\gh_00002581.s
00008296 434f44452000 
0000829c 03            13185 	.byte	3
0000829d 31            13186 	.byte	49
0000829e 1d            13187 	.byte	29
0000829f 01            13188 	.byte	1
000082a0 06            13189 	.byte	6
000082a1 44454d5f4d45  13190 	.strz	"DEM_MEMMAP_ERROR "
000082a7 4d4d41505f45 
000082ad 52524f522000 
000082b3 01            13191 	.byte	1
000082b4 51            13192 	.byte	81
000082b5 4253575f5354  13193 	.strz	"BSW_START_SEC_CODE "
000082bb 4152545f5345 
000082c1 435f434f4445 
000082c7 2000 
000082c9 03            13194 	.byte	3
000082ca 52            13195 	.byte	82
000082cb 1e            13196 	.byte	30
000082cc 01            13197 	.byte	1
000082cd da08          13198 	.byte	218,8
000082cf 53544152545f  13199 	.strz	"START_SEC_CODE "
000082d5 5345435f434f 
000082db 44452000 
000082df 03            13200 	.byte	3
000082e0 bb09          13201 	.byte	187,9
000082e2 1f            13202 	.byte	31
000082e3 01            13203 	.byte	1
000082e4 f307          13204 	.byte	243,7
000082e6 434f44455f53  13205 	.strz	"CODE_SEC_OPEN "
000082ec 45435f4f5045 
000082f2 4e2000 
000082f5 04            13206 	.byte	4
000082f6 04            13207 	.byte	4
000082f7 01            13208 	.byte	1
000082f8 56            13209 	.byte	86
000082f9 44454d5f5741  13210 	.strz	"DEM_WAS_STARTED_SEC_ROM_CODE "
000082ff 535f53544152 
00008305 5445445f5345 
0000830b 435f524f4d5f 
00008311 434f44452000 
00008317 04            13211 	.byte	4
00008318 01            13212 	.byte	1
00008319 41            13213 	.byte	65
0000831a 44454d5f5354  13214 	.strz	"DEM_STOP_SEC_ROM_CODE "
00008320 4f505f534543 
00008326 5f524f4d5f43 
0000832c 4f44452000 
00008331 03            13215 	.byte	3
00008332 42            13216 	.byte	66
00008333 1d            13217 	.byte	29
00008334 01            13218 	.byte	1
00008335 06            13219 	.byte	6
00008336 44454d5f4d45  13220 	.strz	"DEM_MEMMAP_ERROR "
0000833c 4d4d41505f45 
00008342 52524f522000 
00008348 01            13221 	.byte	1
00008349 5e            13222 	.byte	94
0000834a 4253575f5354  13223 	.strz	"BSW_STOP_SEC_CODE "
00008350 4f505f534543 
00008356 5f434f444520 
0000835c 00 

                                                                      Page 318
                                                              C:\Users\nhuliyap\AppData\Local\Temp\gh_00002581.s
0000835d 03            13224 	.byte	3
0000835e 5f            13225 	.byte	95
0000835f 1e            13226 	.byte	30
00008360 01            13227 	.byte	1
00008361 de08          13228 	.byte	222,8
00008363 53544f505f53  13229 	.strz	"STOP_SEC_CODE "
00008369 45435f434f44 
0000836f 452000 
00008372 03            13230 	.byte	3
00008373 bb09          13231 	.byte	187,9
00008375 1f            13232 	.byte	31
00008376 04            13233 	.byte	4
00008377 04            13234 	.byte	4
00008378 04            13235 	.byte	4
00008379 04            13236 	.byte	4
0000837a 01            13237 	.byte	1
0000837b 0a            13238 	.byte	10
0000837c 44454d5f5354  13239 	.strz	"DEM_START_SEC_ROM_CODE "
00008382 4152545f5345 
00008388 435f524f4d5f 
0000838e 434f44452000 
00008394 03            13240 	.byte	3
00008395 0b            13241 	.byte	11
00008396 1d            13242 	.byte	29
00008397 01            13243 	.byte	1
00008398 06            13244 	.byte	6
00008399 44454d5f4d45  13245 	.strz	"DEM_MEMMAP_ERROR "
0000839f 4d4d41505f45 
000083a5 52524f522000 
000083ab 01            13246 	.byte	1
000083ac 51            13247 	.byte	81
000083ad 4253575f5354  13248 	.strz	"BSW_START_SEC_CODE "
000083b3 4152545f5345 
000083b9 435f434f4445 
000083bf 2000 
000083c1 03            13249 	.byte	3
000083c2 52            13250 	.byte	82
000083c3 1e            13251 	.byte	30
000083c4 01            13252 	.byte	1
000083c5 da08          13253 	.byte	218,8
000083c7 53544152545f  13254 	.strz	"START_SEC_CODE "
000083cd 5345435f434f 
000083d3 44452000 
000083d7 03            13255 	.byte	3
000083d8 bb09          13256 	.byte	187,9
000083da 1f            13257 	.byte	31
000083db 01            13258 	.byte	1
000083dc f307          13259 	.byte	243,7
000083de 434f44455f53  13260 	.strz	"CODE_SEC_OPEN "
000083e4 45435f4f5045 
000083ea 4e2000 
000083ed 04            13261 	.byte	4
000083ee 04            13262 	.byte	4
000083ef 01            13263 	.byte	1
000083f0 56            13264 	.byte	86
000083f1 44454d5f5741  13265 	.strz	"DEM_WAS_STARTED_SEC_ROM_CODE "
000083f7 535f53544152 
000083fd 5445445f5345 
00008403 435f524f4d5f 
00008409 434f44452000 
0000840f 04            13266 	.byte	4

                                                                      Page 319
                                                              C:\Users\nhuliyap\AppData\Local\Temp\gh_00002581.s
00008410 01            13267 	.byte	1
00008411 0d            13268 	.byte	13
00008412 44454d5f434c  13269 	.strz	"DEM_CLIENT_TYPE_MASK 0xFFu"
00008418 49454e545f54 
0000841e 5950455f4d41 
00008424 534b20307846 
0000842a 467500 
0000842d 01            13270 	.byte	1
0000842e 0f            13271 	.byte	15
0000842f 44454d5f434c  13272 	.strz	"DEM_CLIENT_REQUEST_RESULT_IDMASK 0xFF00u"
00008435 49454e545f52 
0000843b 455155455354 
00008441 5f524553554c 
00008447 545f49444d41 
0000844d 534b20307846 
00008453 4630307500 
00008458 01            13273 	.byte	1
00008459 2c            13274 	.byte	44
0000845a 44454d5f434c  13275 	.strz	"DEM_CLIENT_REQUEST_TYPE_CANCEL_MASK 0x01u"
00008460 49454e545f52 
00008466 455155455354 
0000846c 5f545950455f 
00008472 43414e43454c 
00008478 5f4d41534b20 
0000847e 307830317500 
00008484 01            13276 	.byte	1
00008485 51            13277 	.byte	81
00008486 44454d5f434c  13278 	.strz	"DEM_CLIENT_SELECTION_DTCINDEXMASK 0xFFFFu"
0000848c 49454e545f53 
00008492 454c45435449 
00008498 4f4e5f445443 
0000849e 494e4445584d 
000084a4 41534b203078 
000084aa 464646467500 
000084b0 01            13279 	.byte	1
000084b1 52            13280 	.byte	82
000084b2 44454d5f434c  13281 	.strz	"DEM_CLIENT_INVALIDATE_SELECTION_IDMASK 0x00FFFFFFu"
000084b8 49454e545f49 
000084be 4e56414c4944 
000084c4 4154455f5345 
000084ca 4c454354494f 
000084d0 4e5f49444d41 
000084d6 534b20307830 
000084dc 304646464646 
000084e2 467500 
000084e5 01            13282 	.byte	1
000084e6 53            13283 	.byte	83
000084e7 44454d5f434c  13284 	.strz	"DEM_CLIENT_SELECTION_TYPE_BITPOS_SELECTION_TYPE 16u"
000084ed 49454e545f53 
000084f3 454c45435449 
000084f9 4f4e5f545950 
000084ff 455f42495450 
00008505 4f535f53454c 
0000850b 454354494f4e 
00008511 5f5459504520 
00008517 31367500 
0000851b 01            13285 	.byte	1
0000851c 54            13286 	.byte	84
0000851d 44454d5f434c  13287 	.strz	"DEM_CLIENT_SELECTION_TYPE_BITPOS_RESULT 24u"
00008523 49454e545f53 
00008529 454c45435449 

                                                                      Page 320
                                                              C:\Users\nhuliyap\AppData\Local\Temp\gh_00002581.s
0000852f 4f4e5f545950 
00008535 455f42495450 
0000853b 4f535f524553 
00008541 554c54203234 
00008547 7500 
00008549 01            13288 	.byte	1
0000854a 9b01          13289 	.byte	155,1
0000854c 44454d5f5354  13290 	.strz	"DEM_STOP_SEC_ROM_CODE "
00008552 4f505f534543 
00008558 5f524f4d5f43 
0000855e 4f44452000 
00008563 03            13291 	.byte	3
00008564 9c01          13292 	.byte	156,1
00008566 1d            13293 	.byte	29
00008567 01            13294 	.byte	1
00008568 06            13295 	.byte	6
00008569 44454d5f4d45  13296 	.strz	"DEM_MEMMAP_ERROR "
0000856f 4d4d41505f45 
00008575 52524f522000 
0000857b 01            13297 	.byte	1
0000857c 5e            13298 	.byte	94
0000857d 4253575f5354  13299 	.strz	"BSW_STOP_SEC_CODE "
00008583 4f505f534543 
00008589 5f434f444520 
0000858f 00 
00008590 03            13300 	.byte	3
00008591 5f            13301 	.byte	95
00008592 1e            13302 	.byte	30
00008593 01            13303 	.byte	1
00008594 de08          13304 	.byte	222,8
00008596 53544f505f53  13305 	.strz	"STOP_SEC_CODE "
0000859c 45435f434f44 
000085a2 452000 
000085a5 03            13306 	.byte	3
000085a6 bb09          13307 	.byte	187,9
000085a8 1f            13308 	.byte	31
000085a9 04            13309 	.byte	4
000085aa 04            13310 	.byte	4
000085ab 04            13311 	.byte	4
000085ac 04            13312 	.byte	4
000085ad 03            13313 	.byte	3
000085ae 07            13314 	.byte	7
000085af 74            13315 	.byte	116
000085b0 01            13316 	.byte	1
000085b1 0e            13317 	.byte	14
000085b2 44454d5f434c  13318 	.strz	"DEM_CLEAR_DTC_MACHINE_STATE_IDLE 0x00u"
000085b8 4541525f4454 
000085be 435f4d414348 
000085c4 494e455f5354 
000085ca 4154455f4944 
000085d0 4c4520307830 
000085d6 307500 
000085d9 01            13319 	.byte	1
000085da 0f            13320 	.byte	15
000085db 44454d5f434c  13321 	.strz	"DEM_CLEAR_DTC_MACHINE_STATE_EXEC 0x01u"
000085e1 4541525f4454 
000085e7 435f4d414348 
000085ed 494e455f5354 
000085f3 4154455f4558 
000085f9 454320307830 
000085ff 317500 

                                                                      Page 321
                                                              C:\Users\nhuliyap\AppData\Local\Temp\gh_00002581.s
00008602 01            13322 	.byte	1
00008603 10            13323 	.byte	16
00008604 44454d5f434c  13324 	.strz	"DEM_CLEAR_DTC_MACHINE_STATE_WAITINGFORNVM 0x02u"
0000860a 4541525f4454 
00008610 435f4d414348 
00008616 494e455f5354 
0000861c 4154455f5741 
00008622 4954494e4746 
00008628 4f524e564d20 
0000862e 307830327500 
00008634 01            13325 	.byte	1
00008635 24            13326 	.byte	36
00008636 44454d5f5354  13327 	.strz	"DEM_START_SEC_RAM_CLEARED "
0000863c 4152545f5345 
00008642 435f52414d5f 
00008648 434c45415245 
0000864e 442000 
00008651 03            13328 	.byte	3
00008652 25            13329 	.byte	37
00008653 1d            13330 	.byte	29
00008654 01            13331 	.byte	1
00008655 06            13332 	.byte	6
00008656 44454d5f4d45  13333 	.strz	"DEM_MEMMAP_ERROR "
0000865c 4d4d41505f45 
00008662 52524f522000 
00008668 01            13334 	.byte	1
00008669 0c            13335 	.byte	12
0000866a 4253575f5354  13336 	.strz	"BSW_START_SEC_VAR_CLEARED_UNSPECIFIED "
00008670 4152545f5345 
00008676 435f5641525f 
0000867c 434c45415245 
00008682 445f554e5350 
00008688 454349464945 
0000868e 442000 
00008691 03            13337 	.byte	3
00008692 0d            13338 	.byte	13
00008693 1e            13339 	.byte	30
00008694 01            13340 	.byte	1
00008695 42            13341 	.byte	66
00008696 53544152545f  13342 	.strz	"START_SEC_VAR_CLEARED_UNSPECIFIED "
0000869c 5345435f5641 
000086a2 525f434c4541 
000086a8 5245445f554e 
000086ae 535045434946 
000086b4 4945442000 
000086b9 03            13343 	.byte	3
000086ba bb09          13344 	.byte	187,9
000086bc 1f            13345 	.byte	31
000086bd 01            13346 	.byte	1
000086be 56            13347 	.byte	86
000086bf 53544152545f  13348 	.strz	"START_SEC_VAR_ZERO_INIT_UNSPECIFIED "
000086c5 5345435f5641 
000086cb 525f5a45524f 
000086d1 5f494e49545f 
000086d7 554e53504543 
000086dd 494649454420 
000086e3 00 
000086e4 01            13349 	.byte	1
000086e5 840a          13350 	.byte	132,10
000086e7 5641525f5345  13351 	.strz	"VAR_SEC_OPEN "
000086ed 435f4f50454e 

                                                                      Page 322
                                                              C:\Users\nhuliyap\AppData\Local\Temp\gh_00002581.s
000086f3 2000 
000086f5 04            13352 	.byte	4
000086f6 04            13353 	.byte	4
000086f7 01            13354 	.byte	1
000086f8 11            13355 	.byte	17
000086f9 44454d5f5741  13356 	.strz	"DEM_WAS_STARTED_SEC_RAM_CLEARED "
000086ff 535f53544152 
00008705 5445445f5345 
0000870b 435f52414d5f 
00008711 434c45415245 
00008717 442000 
0000871a 04            13357 	.byte	4
0000871b 01            13358 	.byte	1
0000871c 29            13359 	.byte	41
0000871d 44454d5f5354  13360 	.strz	"DEM_STOP_SEC_RAM_CLEARED "
00008723 4f505f534543 
00008729 5f52414d5f43 
0000872f 4c4541524544 
00008735 2000 
00008737 03            13361 	.byte	3
00008738 2a            13362 	.byte	42
00008739 1d            13363 	.byte	29
0000873a 01            13364 	.byte	1
0000873b 06            13365 	.byte	6
0000873c 44454d5f4d45  13366 	.strz	"DEM_MEMMAP_ERROR "
00008742 4d4d41505f45 
00008748 52524f522000 
0000874e 01            13367 	.byte	1
0000874f 19            13368 	.byte	25
00008750 4253575f5354  13369 	.strz	"BSW_STOP_SEC_VAR_CLEARED_UNSPECIFIED "
00008756 4f505f534543 
0000875c 5f5641525f43 
00008762 4c4541524544 
00008768 5f554e535045 
0000876e 434946494544 
00008774 2000 
00008776 03            13370 	.byte	3
00008777 1a            13371 	.byte	26
00008778 1e            13372 	.byte	30
00008779 01            13373 	.byte	1
0000877a 46            13374 	.byte	70
0000877b 53544f505f53  13375 	.strz	"STOP_SEC_VAR "
00008781 45435f564152 
00008787 2000 
00008789 03            13376 	.byte	3
0000878a bb09          13377 	.byte	187,9
0000878c 1f            13378 	.byte	31
0000878d 04            13379 	.byte	4
0000878e 04            13380 	.byte	4
0000878f 04            13381 	.byte	4
00008790 01            13382 	.byte	1
00008791 2c            13383 	.byte	44
00008792 44454d5f5354  13384 	.strz	"DEM_START_SEC_ROM_CODE "
00008798 4152545f5345 
0000879e 435f524f4d5f 
000087a4 434f44452000 
000087aa 03            13385 	.byte	3
000087ab 2d            13386 	.byte	45
000087ac 1d            13387 	.byte	29
000087ad 01            13388 	.byte	1
000087ae 06            13389 	.byte	6

                                                                      Page 323
                                                              C:\Users\nhuliyap\AppData\Local\Temp\gh_00002581.s
000087af 44454d5f4d45  13390 	.strz	"DEM_MEMMAP_ERROR "
000087b5 4d4d41505f45 
000087bb 52524f522000 
000087c1 01            13391 	.byte	1
000087c2 51            13392 	.byte	81
000087c3 4253575f5354  13393 	.strz	"BSW_START_SEC_CODE "
000087c9 4152545f5345 
000087cf 435f434f4445 
000087d5 2000 
000087d7 03            13394 	.byte	3
000087d8 52            13395 	.byte	82
000087d9 1e            13396 	.byte	30
000087da 01            13397 	.byte	1
000087db da08          13398 	.byte	218,8
000087dd 53544152545f  13399 	.strz	"START_SEC_CODE "
000087e3 5345435f434f 
000087e9 44452000 
000087ed 03            13400 	.byte	3
000087ee bb09          13401 	.byte	187,9
000087f0 1f            13402 	.byte	31
000087f1 01            13403 	.byte	1
000087f2 f307          13404 	.byte	243,7
000087f4 434f44455f53  13405 	.strz	"CODE_SEC_OPEN "
000087fa 45435f4f5045 
00008800 4e2000 
00008803 04            13406 	.byte	4
00008804 04            13407 	.byte	4
00008805 01            13408 	.byte	1
00008806 56            13409 	.byte	86
00008807 44454d5f5741  13410 	.strz	"DEM_WAS_STARTED_SEC_ROM_CODE "
0000880d 535f53544152 
00008813 5445445f5345 
00008819 435f524f4d5f 
0000881f 434f44452000 
00008825 04            13411 	.byte	4
00008826 01            13412 	.byte	1
00008827 74            13413 	.byte	116
00008828 44454d5f5354  13414 	.strz	"DEM_STOP_SEC_ROM_CODE "
0000882e 4f505f534543 
00008834 5f524f4d5f43 
0000883a 4f44452000 
0000883f 03            13415 	.byte	3
00008840 75            13416 	.byte	117
00008841 1d            13417 	.byte	29
00008842 01            13418 	.byte	1
00008843 06            13419 	.byte	6
00008844 44454d5f4d45  13420 	.strz	"DEM_MEMMAP_ERROR "
0000884a 4d4d41505f45 
00008850 52524f522000 
00008856 01            13421 	.byte	1
00008857 5e            13422 	.byte	94
00008858 4253575f5354  13423 	.strz	"BSW_STOP_SEC_CODE "
0000885e 4f505f534543 
00008864 5f434f444520 
0000886a 00 
0000886b 03            13424 	.byte	3
0000886c 5f            13425 	.byte	95
0000886d 1e            13426 	.byte	30
0000886e 01            13427 	.byte	1
0000886f de08          13428 	.byte	222,8
00008871 53544f505f53  13429 	.strz	"STOP_SEC_CODE "

                                                                      Page 324
                                                              C:\Users\nhuliyap\AppData\Local\Temp\gh_00002581.s
00008877 45435f434f44 
0000887d 452000 
00008880 03            13430 	.byte	3
00008881 bb09          13431 	.byte	187,9
00008883 1f            13432 	.byte	31
00008884 04            13433 	.byte	4
00008885 04            13434 	.byte	4
00008886 04            13435 	.byte	4
00008887 04            13436 	.byte	4
00008888 01            13437 	.byte	1
00008889 0c            13438 	.byte	12
0000888a 44454d5f5354  13439 	.strz	"DEM_START_SEC_ROM_CODE "
00008890 4152545f5345 
00008896 435f524f4d5f 
0000889c 434f44452000 
000088a2 03            13440 	.byte	3
000088a3 0d            13441 	.byte	13
000088a4 1d            13442 	.byte	29
000088a5 01            13443 	.byte	1
000088a6 06            13444 	.byte	6
000088a7 44454d5f4d45  13445 	.strz	"DEM_MEMMAP_ERROR "
000088ad 4d4d41505f45 
000088b3 52524f522000 
000088b9 01            13446 	.byte	1
000088ba 51            13447 	.byte	81
000088bb 4253575f5354  13448 	.strz	"BSW_START_SEC_CODE "
000088c1 4152545f5345 
000088c7 435f434f4445 
000088cd 2000 
000088cf 03            13449 	.byte	3
000088d0 52            13450 	.byte	82
000088d1 1e            13451 	.byte	30
000088d2 01            13452 	.byte	1
000088d3 da08          13453 	.byte	218,8
000088d5 53544152545f  13454 	.strz	"START_SEC_CODE "
000088db 5345435f434f 
000088e1 44452000 
000088e5 03            13455 	.byte	3
000088e6 bb09          13456 	.byte	187,9
000088e8 1f            13457 	.byte	31
000088e9 01            13458 	.byte	1
000088ea f307          13459 	.byte	243,7
000088ec 434f44455f53  13460 	.strz	"CODE_SEC_OPEN "
000088f2 45435f4f5045 
000088f8 4e2000 
000088fb 04            13461 	.byte	4
000088fc 04            13462 	.byte	4
000088fd 01            13463 	.byte	1
000088fe 56            13464 	.byte	86
000088ff 44454d5f5741  13465 	.strz	"DEM_WAS_STARTED_SEC_ROM_CODE "
00008905 535f53544152 
0000890b 5445445f5345 
00008911 435f524f4d5f 
00008917 434f44452000 
0000891d 04            13466 	.byte	4
0000891e 01            13467 	.byte	1
0000891f 16            13468 	.byte	22
00008920 44454d5f5354  13469 	.strz	"DEM_STOP_SEC_ROM_CODE "
00008926 4f505f534543 
0000892c 5f524f4d5f43 
00008932 4f44452000 

                                                                      Page 325
                                                              C:\Users\nhuliyap\AppData\Local\Temp\gh_00002581.s
00008937 03            13470 	.byte	3
00008938 17            13471 	.byte	23
00008939 1d            13472 	.byte	29
0000893a 01            13473 	.byte	1
0000893b 06            13474 	.byte	6
0000893c 44454d5f4d45  13475 	.strz	"DEM_MEMMAP_ERROR "
00008942 4d4d41505f45 
00008948 52524f522000 
0000894e 01            13476 	.byte	1
0000894f 5e            13477 	.byte	94
00008950 4253575f5354  13478 	.strz	"BSW_STOP_SEC_CODE "
00008956 4f505f534543 
0000895c 5f434f444520 
00008962 00 
00008963 03            13479 	.byte	3
00008964 5f            13480 	.byte	95
00008965 1e            13481 	.byte	30
00008966 01            13482 	.byte	1
00008967 de08          13483 	.byte	222,8
00008969 53544f505f53  13484 	.strz	"STOP_SEC_CODE "
0000896f 45435f434f44 
00008975 452000 
00008978 03            13485 	.byte	3
00008979 bb09          13486 	.byte	187,9
0000897b 1f            13487 	.byte	31
0000897c 04            13488 	.byte	4
0000897d 04            13489 	.byte	4
0000897e 04            13490 	.byte	4
0000897f 04            13491 	.byte	4
00008980 01            13492 	.byte	1
00008981 1e            13493 	.byte	30
00008982 44454d5f5354  13494 	.strz	"DEM_START_SEC_ROM_CODE "
00008988 4152545f5345 
0000898e 435f524f4d5f 
00008994 434f44452000 
0000899a 03            13495 	.byte	3
0000899b 1f            13496 	.byte	31
0000899c 1d            13497 	.byte	29
0000899d 01            13498 	.byte	1
0000899e 06            13499 	.byte	6
0000899f 44454d5f4d45  13500 	.strz	"DEM_MEMMAP_ERROR "
000089a5 4d4d41505f45 
000089ab 52524f522000 
000089b1 01            13501 	.byte	1
000089b2 51            13502 	.byte	81
000089b3 4253575f5354  13503 	.strz	"BSW_START_SEC_CODE "
000089b9 4152545f5345 
000089bf 435f434f4445 
000089c5 2000 
000089c7 03            13504 	.byte	3
000089c8 52            13505 	.byte	82
000089c9 1e            13506 	.byte	30
000089ca 01            13507 	.byte	1
000089cb da08          13508 	.byte	218,8
000089cd 53544152545f  13509 	.strz	"START_SEC_CODE "
000089d3 5345435f434f 
000089d9 44452000 
000089dd 03            13510 	.byte	3
000089de bb09          13511 	.byte	187,9
000089e0 1f            13512 	.byte	31
000089e1 01            13513 	.byte	1

                                                                      Page 326
                                                              C:\Users\nhuliyap\AppData\Local\Temp\gh_00002581.s
000089e2 f307          13514 	.byte	243,7
000089e4 434f44455f53  13515 	.strz	"CODE_SEC_OPEN "
000089ea 45435f4f5045 
000089f0 4e2000 
000089f3 04            13516 	.byte	4
000089f4 04            13517 	.byte	4
000089f5 01            13518 	.byte	1
000089f6 56            13519 	.byte	86
000089f7 44454d5f5741  13520 	.strz	"DEM_WAS_STARTED_SEC_ROM_CODE "
000089fd 535f53544152 
00008a03 5445445f5345 
00008a09 435f524f4d5f 
00008a0f 434f44452000 
00008a15 04            13521 	.byte	4
00008a16 01            13522 	.byte	1
00008a17 2a            13523 	.byte	42
00008a18 44454d5f5354  13524 	.strz	"DEM_STOP_SEC_ROM_CODE "
00008a1e 4f505f534543 
00008a24 5f524f4d5f43 
00008a2a 4f44452000 
00008a2f 03            13525 	.byte	3
00008a30 2b            13526 	.byte	43
00008a31 1d            13527 	.byte	29
00008a32 01            13528 	.byte	1
00008a33 06            13529 	.byte	6
00008a34 44454d5f4d45  13530 	.strz	"DEM_MEMMAP_ERROR "
00008a3a 4d4d41505f45 
00008a40 52524f522000 
00008a46 01            13531 	.byte	1
00008a47 5e            13532 	.byte	94
00008a48 4253575f5354  13533 	.strz	"BSW_STOP_SEC_CODE "
00008a4e 4f505f534543 
00008a54 5f434f444520 
00008a5a 00 
00008a5b 03            13534 	.byte	3
00008a5c 5f            13535 	.byte	95
00008a5d 1e            13536 	.byte	30
00008a5e 01            13537 	.byte	1
00008a5f de08          13538 	.byte	222,8
00008a61 53544f505f53  13539 	.strz	"STOP_SEC_CODE "
00008a67 45435f434f44 
00008a6d 452000 
00008a70 03            13540 	.byte	3
00008a71 bb09          13541 	.byte	187,9
00008a73 1f            13542 	.byte	31
00008a74 04            13543 	.byte	4
00008a75 04            13544 	.byte	4
00008a76 04            13545 	.byte	4
00008a77 01            13546 	.byte	1
00008a78 2f            13547 	.byte	47
00008a79 44454d5f4556  13548 	.strz	"DEM_EVMEM_BOOL2DEC(b) ( (b) ? 1u : 0u )"
00008a7f 4d454d5f424f 
00008a85 4f4c32444543 
00008a8b 286229202820 
00008a91 286229203f20 
00008a97 3175203a2030 
00008a9d 75202900 
00008aa1 01            13549 	.byte	1
00008aa2 31            13550 	.byte	49
00008aa3 44454d5f4556  13551 	.strz	"DEM_EVMEM_USEVAR(var) (void)(var)"
00008aa9 4d454d5f5553 

                                                                      Page 327
                                                              C:\Users\nhuliyap\AppData\Local\Temp\gh_00002581.s
00008aaf 455641522876 
00008ab5 617229202876 
00008abb 6f6964292876 
00008ac1 61722900 
00008ac5 01            13552 	.byte	1
00008ac6 33            13553 	.byte	51
00008ac7 44454d5f5354  13554 	.strz	"DEM_START_SEC_ROM_CONST "
00008acd 4152545f5345 
00008ad3 435f524f4d5f 
00008ad9 434f4e535420 
00008adf 00 
00008ae0 03            13555 	.byte	3
00008ae1 34            13556 	.byte	52
00008ae2 1d            13557 	.byte	29
00008ae3 01            13558 	.byte	1
00008ae4 06            13559 	.byte	6
00008ae5 44454d5f4d45  13560 	.strz	"DEM_MEMMAP_ERROR "
00008aeb 4d4d41505f45 
00008af1 52524f522000 
00008af7 01            13561 	.byte	1
00008af8 3a            13562 	.byte	58
00008af9 4253575f5354  13563 	.strz	"BSW_START_SEC_CONST_UNSPECIFIED "
00008aff 4152545f5345 
00008b05 435f434f4e53 
00008b0b 545f554e5350 
00008b11 454349464945 
00008b17 442000 
00008b1a 03            13564 	.byte	3
00008b1b 3b            13565 	.byte	59
00008b1c 1e            13566 	.byte	30
00008b1d 01            13567 	.byte	1
00008b1e f005          13568 	.byte	240,5
00008b20 53544152545f  13569 	.strz	"START_SEC_CONST_UNSPECIFIED "
00008b26 5345435f434f 
00008b2c 4e53545f554e 
00008b32 535045434946 
00008b38 4945442000 
00008b3d 03            13570 	.byte	3
00008b3e bb09          13571 	.byte	187,9
00008b40 1f            13572 	.byte	31
00008b41 01            13573 	.byte	1
00008b42 b408          13574 	.byte	180,8
00008b44 434f4e53545f  13575 	.strz	"CONST_SEC_OPEN "
00008b4a 5345435f4f50 
00008b50 454e2000 
00008b54 04            13576 	.byte	4
00008b55 04            13577 	.byte	4
00008b56 01            13578 	.byte	1
00008b57 3f            13579 	.byte	63
00008b58 44454d5f5741  13580 	.strz	"DEM_WAS_STARTED_SEC_ROM_CONST "
00008b5e 535f53544152 
00008b64 5445445f5345 
00008b6a 435f524f4d5f 
00008b70 434f4e535420 
00008b76 00 
00008b77 04            13581 	.byte	4
00008b78 01            13582 	.byte	1
00008b79 36            13583 	.byte	54
00008b7a 44454d5f5354  13584 	.strz	"DEM_STOP_SEC_ROM_CONST "
00008b80 4f505f534543 
00008b86 5f524f4d5f43 

                                                                      Page 328
                                                              C:\Users\nhuliyap\AppData\Local\Temp\gh_00002581.s
00008b8c 4f4e53542000 
00008b92 03            13585 	.byte	3
00008b93 37            13586 	.byte	55
00008b94 1d            13587 	.byte	29
00008b95 01            13588 	.byte	1
00008b96 06            13589 	.byte	6
00008b97 44454d5f4d45  13590 	.strz	"DEM_MEMMAP_ERROR "
00008b9d 4d4d41505f45 
00008ba3 52524f522000 
00008ba9 01            13591 	.byte	1
00008baa 47            13592 	.byte	71
00008bab 4253575f5354  13593 	.strz	"BSW_STOP_SEC_CONST_UNSPECIFIED "
00008bb1 4f505f534543 
00008bb7 5f434f4e5354 
00008bbd 5f554e535045 
00008bc3 434946494544 
00008bc9 2000 
00008bcb 03            13594 	.byte	3
00008bcc 48            13595 	.byte	72
00008bcd 1e            13596 	.byte	30
00008bce 01            13597 	.byte	1
00008bcf f405          13598 	.byte	244,5
00008bd1 53544f505f53  13599 	.strz	"STOP_SEC_CONST "
00008bd7 45435f434f4e 
00008bdd 53542000 
00008be1 03            13600 	.byte	3
00008be2 bb09          13601 	.byte	187,9
00008be4 1f            13602 	.byte	31
00008be5 04            13603 	.byte	4
00008be6 04            13604 	.byte	4
00008be7 04            13605 	.byte	4
00008be8 01            13606 	.byte	1
00008be9 3d            13607 	.byte	61
00008bea 44454d5f4346  13608 	.strz	"DEM_CFG_EVMEM_EVENTMEMORY_LENGTH DEM_CFG_MAX_NUMBER_EVENT_ENTRY_ALL"
00008bf0 475f45564d45 
00008bf6 4d5f4556454e 
00008bfc 544d454d4f52 
00008c02 595f4c454e47 
00008c08 54482044454d 
00008c0e 5f4346475f4d 
00008c14 41585f4e554d 
00008c1a 4245525f4556 
00008c20 454e545f454e 
00008c26 5452595f414c 
00008c2c 4c00 
00008c2e 01            13609 	.byte	1
00008c2f 40            13610 	.byte	64
00008c30 44454d5f5354  13611 	.strz	"DEM_START_SEC_SAVED_ZONE "
00008c36 4152545f5345 
00008c3c 435f53415645 
00008c42 445f5a4f4e45 
00008c48 2000 
00008c4a 03            13612 	.byte	3
00008c4b 41            13613 	.byte	65
00008c4c 1d            13614 	.byte	29
00008c4d 01            13615 	.byte	1
00008c4e 06            13616 	.byte	6
00008c4f 44454d5f4d45  13617 	.strz	"DEM_MEMMAP_ERROR "
00008c55 4d4d41505f45 
00008c5b 52524f522000 
00008c61 01            13618 	.byte	1

                                                                      Page 329
                                                              C:\Users\nhuliyap\AppData\Local\Temp\gh_00002581.s
00008c62 9601          13619 	.byte	150,1
00008c64 4253575f5354  13620 	.strz	"BSW_START_SEC_VAR_SAVED_ZONE_UNSPECIFIED "
00008c6a 4152545f5345 
00008c70 435f5641525f 
00008c76 53415645445f 
00008c7c 5a4f4e455f55 
00008c82 4e5350454349 
00008c88 464945442000 
00008c8e 03            13621 	.byte	3
00008c8f 9701          13622 	.byte	151,1
00008c91 1e            13623 	.byte	30
00008c92 03            13624 	.byte	3
00008c93 bb09          13625 	.byte	187,9
00008c95 1f            13626 	.byte	31
00008c96 04            13627 	.byte	4
00008c97 04            13628 	.byte	4
00008c98 01            13629 	.byte	1
00008c99 9b01          13630 	.byte	155,1
00008c9b 44454d5f5741  13631 	.strz	"DEM_WAS_STARTED_SEC_SAVED_ZONE "
00008ca1 535f53544152 
00008ca7 5445445f5345 
00008cad 435f53415645 
00008cb3 445f5a4f4e45 
00008cb9 2000 
00008cbb 04            13632 	.byte	4
00008cbc 01            13633 	.byte	1
00008cbd 43            13634 	.byte	67
00008cbe 44454d5f5354  13635 	.strz	"DEM_STOP_SEC_SAVED_ZONE "
00008cc4 4f505f534543 
00008cca 5f5341564544 
00008cd0 5f5a4f4e4520 
00008cd6 00 
00008cd7 03            13636 	.byte	3
00008cd8 44            13637 	.byte	68
00008cd9 1d            13638 	.byte	29
00008cda 01            13639 	.byte	1
00008cdb 06            13640 	.byte	6
00008cdc 44454d5f4d45  13641 	.strz	"DEM_MEMMAP_ERROR "
00008ce2 4d4d41505f45 
00008ce8 52524f522000 
00008cee 01            13642 	.byte	1
00008cef a301          13643 	.byte	163,1
00008cf1 4253575f5354  13644 	.strz	"BSW_STOP_SEC_VAR_SAVED_ZONE_UNSPECIFIED "
00008cf7 4f505f534543 
00008cfd 5f5641525f53 
00008d03 415645445f5a 
00008d09 4f4e455f554e 
00008d0f 535045434946 
00008d15 4945442000 
00008d1a 03            13645 	.byte	3
00008d1b a401          13646 	.byte	164,1
00008d1d 1e            13647 	.byte	30
00008d1e 03            13648 	.byte	3
00008d1f bb09          13649 	.byte	187,9
00008d21 1f            13650 	.byte	31
00008d22 04            13651 	.byte	4
00008d23 04            13652 	.byte	4
00008d24 04            13653 	.byte	4
00008d25 01            13654 	.byte	1
00008d26 46            13655 	.byte	70
00008d27 44454d5f5354  13656 	.strz	"DEM_START_SEC_ROM_CONST "

                                                                      Page 330
                                                              C:\Users\nhuliyap\AppData\Local\Temp\gh_00002581.s
00008d2d 4152545f5345 
00008d33 435f524f4d5f 
00008d39 434f4e535420 
00008d3f 00 
00008d40 03            13657 	.byte	3
00008d41 47            13658 	.byte	71
00008d42 1d            13659 	.byte	29
00008d43 01            13660 	.byte	1
00008d44 06            13661 	.byte	6
00008d45 44454d5f4d45  13662 	.strz	"DEM_MEMMAP_ERROR "
00008d4b 4d4d41505f45 
00008d51 52524f522000 
00008d57 01            13663 	.byte	1
00008d58 3a            13664 	.byte	58
00008d59 4253575f5354  13665 	.strz	"BSW_START_SEC_CONST_UNSPECIFIED "
00008d5f 4152545f5345 
00008d65 435f434f4e53 
00008d6b 545f554e5350 
00008d71 454349464945 
00008d77 442000 
00008d7a 03            13666 	.byte	3
00008d7b 3b            13667 	.byte	59
00008d7c 1e            13668 	.byte	30
00008d7d 01            13669 	.byte	1
00008d7e f005          13670 	.byte	240,5
00008d80 53544152545f  13671 	.strz	"START_SEC_CONST_UNSPECIFIED "
00008d86 5345435f434f 
00008d8c 4e53545f554e 
00008d92 535045434946 
00008d98 4945442000 
00008d9d 03            13672 	.byte	3
00008d9e bb09          13673 	.byte	187,9
00008da0 1f            13674 	.byte	31
00008da1 01            13675 	.byte	1
00008da2 b408          13676 	.byte	180,8
00008da4 434f4e53545f  13677 	.strz	"CONST_SEC_OPEN "
00008daa 5345435f4f50 
00008db0 454e2000 
00008db4 04            13678 	.byte	4
00008db5 04            13679 	.byte	4
00008db6 01            13680 	.byte	1
00008db7 3f            13681 	.byte	63
00008db8 44454d5f5741  13682 	.strz	"DEM_WAS_STARTED_SEC_ROM_CONST "
00008dbe 535f53544152 
00008dc4 5445445f5345 
00008dca 435f524f4d5f 
00008dd0 434f4e535420 
00008dd6 00 
00008dd7 04            13683 	.byte	4
00008dd8 01            13684 	.byte	1
00008dd9 49            13685 	.byte	73
00008dda 44454d5f5354  13686 	.strz	"DEM_STOP_SEC_ROM_CONST "
00008de0 4f505f534543 
00008de6 5f524f4d5f43 
00008dec 4f4e53542000 
00008df2 03            13687 	.byte	3
00008df3 4a            13688 	.byte	74
00008df4 1d            13689 	.byte	29
00008df5 01            13690 	.byte	1
00008df6 06            13691 	.byte	6
00008df7 44454d5f4d45  13692 	.strz	"DEM_MEMMAP_ERROR "

                                                                      Page 331
                                                              C:\Users\nhuliyap\AppData\Local\Temp\gh_00002581.s
00008dfd 4d4d41505f45 
00008e03 52524f522000 
00008e09 01            13693 	.byte	1
00008e0a 47            13694 	.byte	71
00008e0b 4253575f5354  13695 	.strz	"BSW_STOP_SEC_CONST_UNSPECIFIED "
00008e11 4f505f534543 
00008e17 5f434f4e5354 
00008e1d 5f554e535045 
00008e23 434946494544 
00008e29 2000 
00008e2b 03            13696 	.byte	3
00008e2c 48            13697 	.byte	72
00008e2d 1e            13698 	.byte	30
00008e2e 01            13699 	.byte	1
00008e2f f405          13700 	.byte	244,5
00008e31 53544f505f53  13701 	.strz	"STOP_SEC_CONST "
00008e37 45435f434f4e 
00008e3d 53542000 
00008e41 03            13702 	.byte	3
00008e42 bb09          13703 	.byte	187,9
00008e44 1f            13704 	.byte	31
00008e45 04            13705 	.byte	4
00008e46 04            13706 	.byte	4
00008e47 04            13707 	.byte	4
00008e48 04            13708 	.byte	4
00008e49 03            13709 	.byte	3
00008e4a 0f            13710 	.byte	15
00008e4b 75            13711 	.byte	117
00008e4c 01            13712 	.byte	1
00008e4d 08            13713 	.byte	8
00008e4e 44454d5f5354  13714 	.strz	"DEM_START_SEC_ROM_CODE "
00008e54 4152545f5345 
00008e5a 435f524f4d5f 
00008e60 434f44452000 
00008e66 03            13715 	.byte	3
00008e67 09            13716 	.byte	9
00008e68 1d            13717 	.byte	29
00008e69 01            13718 	.byte	1
00008e6a 06            13719 	.byte	6
00008e6b 44454d5f4d45  13720 	.strz	"DEM_MEMMAP_ERROR "
00008e71 4d4d41505f45 
00008e77 52524f522000 
00008e7d 01            13721 	.byte	1
00008e7e 51            13722 	.byte	81
00008e7f 4253575f5354  13723 	.strz	"BSW_START_SEC_CODE "
00008e85 4152545f5345 
00008e8b 435f434f4445 
00008e91 2000 
00008e93 03            13724 	.byte	3
00008e94 52            13725 	.byte	82
00008e95 1e            13726 	.byte	30
00008e96 01            13727 	.byte	1
00008e97 da08          13728 	.byte	218,8
00008e99 53544152545f  13729 	.strz	"START_SEC_CODE "
00008e9f 5345435f434f 
00008ea5 44452000 
00008ea9 03            13730 	.byte	3
00008eaa bb09          13731 	.byte	187,9
00008eac 1f            13732 	.byte	31
00008ead 01            13733 	.byte	1
00008eae f307          13734 	.byte	243,7

                                                                      Page 332
                                                              C:\Users\nhuliyap\AppData\Local\Temp\gh_00002581.s
00008eb0 434f44455f53  13735 	.strz	"CODE_SEC_OPEN "
00008eb6 45435f4f5045 
00008ebc 4e2000 
00008ebf 04            13736 	.byte	4
00008ec0 04            13737 	.byte	4
00008ec1 01            13738 	.byte	1
00008ec2 56            13739 	.byte	86
00008ec3 44454d5f5741  13740 	.strz	"DEM_WAS_STARTED_SEC_ROM_CODE "
00008ec9 535f53544152 
00008ecf 5445445f5345 
00008ed5 435f524f4d5f 
00008edb 434f44452000 
00008ee1 04            13741 	.byte	4
00008ee2 01            13742 	.byte	1
00008ee3 0b            13743 	.byte	11
00008ee4 44454d5f5354  13744 	.strz	"DEM_STOP_SEC_ROM_CODE "
00008eea 4f505f534543 
00008ef0 5f524f4d5f43 
00008ef6 4f44452000 
00008efb 03            13745 	.byte	3
00008efc 0c            13746 	.byte	12
00008efd 1d            13747 	.byte	29
00008efe 01            13748 	.byte	1
00008eff 06            13749 	.byte	6
00008f00 44454d5f4d45  13750 	.strz	"DEM_MEMMAP_ERROR "
00008f06 4d4d41505f45 
00008f0c 52524f522000 
00008f12 01            13751 	.byte	1
00008f13 5e            13752 	.byte	94
00008f14 4253575f5354  13753 	.strz	"BSW_STOP_SEC_CODE "
00008f1a 4f505f534543 
00008f20 5f434f444520 
00008f26 00 
00008f27 03            13754 	.byte	3
00008f28 5f            13755 	.byte	95
00008f29 1e            13756 	.byte	30
00008f2a 01            13757 	.byte	1
00008f2b de08          13758 	.byte	222,8
00008f2d 53544f505f53  13759 	.strz	"STOP_SEC_CODE "
00008f33 45435f434f44 
00008f39 452000 
00008f3c 03            13760 	.byte	3
00008f3d bb09          13761 	.byte	187,9
00008f3f 1f            13762 	.byte	31
00008f40 04            13763 	.byte	4
00008f41 04            13764 	.byte	4
00008f42 04            13765 	.byte	4
00008f43 01            13766 	.byte	1
00008f44 1c            13767 	.byte	28
00008f45 44454d5f4556  13768 	.strz	"DEM_EVMEM_AGING_STATE ((DEM_EVMEM_STSMASK_TESTCOMPLETE_TAC * DEM_EVMEM_BOOL2DEC(Dem_LibGetParamBool(DEM_CFG_EVMEM_TESTCOMPLETE_TAC_SUPPORTED))) | DEM_EVMEM_STSMASK_CONFIRMED)"
00008f4b 4d454d5f4147 
00008f51 494e475f5354 
00008f57 415445202828 
00008f5d 44454d5f4556 
00008f63 4d454d5f5354 
00008f69 534d41534b5f 
00008f6f 54455354434f 
00008f75 4d504c455445 
00008f7b 5f544143202a 
00008f81 2044454d5f45 
00008f87 564d454d5f42 

                                                                      Page 333
                                                              C:\Users\nhuliyap\AppData\Local\Temp\gh_00002581.s
00008f8d 4f4f4c324445 
00008f93 432844656d5f 
00008f99 4c6962476574 
00008f9f 506172616d42 
00008fa5 6f6f6c284445 
00008fab 4d5f4346475f 
00008fb1 45564d454d5f 
00008fb7 54455354434f 
00008fbd 4d504c455445 
00008fc3 5f5441435f53 
00008fc9 5550504f5254 
00008fcf 454429292920 
00008fd5 7c2044454d5f 
00008fdb 45564d454d5f 
00008fe1 5354534d4153 
00008fe7 4b5f434f4e46 
00008fed 49524d454429 
00008ff3 00 
00008ff4 01            13769 	.byte	1
00008ff5 1f            13770 	.byte	31
00008ff6 44454d5f4556  13771 	.byte	68,69,77,95,69,86,77,69,77,95,65,71,73,78,71,95,77,65,83,75,32,40,40,68,69,77,95,69,86,77,69,77,95,83,84,83,77,65,83,75,95,84,69,83,84,70,65,73,76,69,68,95,84,65,67,32,42,32,68,69,77
00008ffc 4d454d5f4147 
00009002 494e475f4d41 
00009008 534b20282844 
0000900e 454d5f45564d 
00009014 454d5f535453 
0000901a 4d41534b5f54 
00009020 455354464149 
00009026 4c45445f5441 
0000902c 43202a204445 
00009032 4d 
00009033 5f45564d454d  13772 	.byte	95,69,86,77,69,77,95,66,79,79,76,50,68,69,67,40,68,101,109,95,76,105,98,71,101,116,80,97,114,97,109,66,111,111,108,40,68,69,77,95,67,70,71,95,69,86,77,69,77,95,84,69,83,84,70,65,73,76,69,68,95
00009039 5f424f4f4c32 
0000903f 444543284465 
00009045 6d5f4c696247 
0000904b 657450617261 
00009051 6d426f6f6c28 
00009057 44454d5f4346 
0000905d 475f45564d45 
00009063 4d5f54455354 
00009069 4641494c4544 
0000906f 5f 
00009070 5441435f5355  13773 	.byte	84,65,67,95,83,85,80,80,79,82,84,69,68,41,41,41,32,124,32,40,68,69,77,95,69,86,77,69,77,95,83,84,83,77,65,83,75,95,84,69,83,84,67,79,77,80,76,69,84,69,95,84,65,67,32,42,32,68,69,77,95
00009076 50504f525445 
0000907c 44292929207c 
00009082 202844454d5f 
00009088 45564d454d5f 
0000908e 5354534d4153 
00009094 4b5f54455354 
0000909a 434f4d504c45 
000090a0 54455f544143 
000090a6 202a2044454d 
000090ac 5f 
000090ad 45564d454d5f  13774 	.byte	69,86,77,69,77,95,66,79,79,76,50,68,69,67,40,68,101,109,95,76,105,98,71,101,116,80,97,114,97,109,66,111,111,108,40,68,69,77,95,67,70,71,95,69,86,77,69,77,95,84,69,83,84,67,79,77,80,76,69,84,69
000090b3 424f4f4c3244 
000090b9 45432844656d 
000090bf 5f4c69624765 
000090c5 74506172616d 
000090cb 426f6f6c2844 
000090d1 454d5f434647 
000090d7 5f45564d454d 

                                                                      Page 334
                                                              C:\Users\nhuliyap\AppData\Local\Temp\gh_00002581.s
000090dd 5f5445535443 
000090e3 4f4d504c4554 
000090e9 45 
000090ea 5f5441435f53  13775 	.byte	95,84,65,67,95,83,85,80,80,79,82,84,69,68,41,41,41,32,124,32,68,69,77,95,69,86,77,69,77,95,83,84,83,77,65,83,75,95,84,69,83,84,70,65,73,76,69,68,124,32,68,69,77,95,69,86,77,69,77,95,83
000090f0 5550504f5254 
000090f6 454429292920 
000090fc 7c2044454d5f 
00009102 45564d454d5f 
00009108 5354534d4153 
0000910e 4b5f54455354 
00009114 4641494c4544 
0000911a 7c2044454d5f 
00009120 45564d454d5f 
00009126 53 
00009127 54534d41534b  13776 	.byte	84,83,77,65,83,75,95,67,79,78,70,73,82,77,69,68,41,0
0000912d 5f434f4e4649 
00009133 524d45442900 
00009139 04            13777 	.byte	4
0000913a 01            13778 	.byte	1
0000913b 1a            13779 	.byte	26
0000913c 44454d5f5354  13780 	.strz	"DEM_START_SEC_ROM_CONST "
00009142 4152545f5345 
00009148 435f524f4d5f 
0000914e 434f4e535420 
00009154 00 
00009155 03            13781 	.byte	3
00009156 1b            13782 	.byte	27
00009157 1d            13783 	.byte	29
00009158 01            13784 	.byte	1
00009159 06            13785 	.byte	6
0000915a 44454d5f4d45  13786 	.strz	"DEM_MEMMAP_ERROR "
00009160 4d4d41505f45 
00009166 52524f522000 
0000916c 01            13787 	.byte	1
0000916d 3a            13788 	.byte	58
0000916e 4253575f5354  13789 	.strz	"BSW_START_SEC_CONST_UNSPECIFIED "
00009174 4152545f5345 
0000917a 435f434f4e53 
00009180 545f554e5350 
00009186 454349464945 
0000918c 442000 
0000918f 03            13790 	.byte	3
00009190 3b            13791 	.byte	59
00009191 1e            13792 	.byte	30
00009192 01            13793 	.byte	1
00009193 f005          13794 	.byte	240,5
00009195 53544152545f  13795 	.strz	"START_SEC_CONST_UNSPECIFIED "
0000919b 5345435f434f 
000091a1 4e53545f554e 
000091a7 535045434946 
000091ad 4945442000 
000091b2 03            13796 	.byte	3
000091b3 bb09          13797 	.byte	187,9
000091b5 1f            13798 	.byte	31
000091b6 01            13799 	.byte	1
000091b7 b408          13800 	.byte	180,8
000091b9 434f4e53545f  13801 	.strz	"CONST_SEC_OPEN "
000091bf 5345435f4f50 
000091c5 454e2000 
000091c9 04            13802 	.byte	4
000091ca 04            13803 	.byte	4

                                                                      Page 335
                                                              C:\Users\nhuliyap\AppData\Local\Temp\gh_00002581.s
000091cb 01            13804 	.byte	1
000091cc 3f            13805 	.byte	63
000091cd 44454d5f5741  13806 	.strz	"DEM_WAS_STARTED_SEC_ROM_CONST "
000091d3 535f53544152 
000091d9 5445445f5345 
000091df 435f524f4d5f 
000091e5 434f4e535420 
000091eb 00 
000091ec 04            13807 	.byte	4
000091ed 01            13808 	.byte	1
000091ee 1d            13809 	.byte	29
000091ef 44454d5f5354  13810 	.strz	"DEM_STOP_SEC_ROM_CONST "
000091f5 4f505f534543 
000091fb 5f524f4d5f43 
00009201 4f4e53542000 
00009207 03            13811 	.byte	3
00009208 1e            13812 	.byte	30
00009209 1d            13813 	.byte	29
0000920a 01            13814 	.byte	1
0000920b 06            13815 	.byte	6
0000920c 44454d5f4d45  13816 	.strz	"DEM_MEMMAP_ERROR "
00009212 4d4d41505f45 
00009218 52524f522000 
0000921e 01            13817 	.byte	1
0000921f 47            13818 	.byte	71
00009220 4253575f5354  13819 	.strz	"BSW_STOP_SEC_CONST_UNSPECIFIED "
00009226 4f505f534543 
0000922c 5f434f4e5354 
00009232 5f554e535045 
00009238 434946494544 
0000923e 2000 
00009240 03            13820 	.byte	3
00009241 48            13821 	.byte	72
00009242 1e            13822 	.byte	30
00009243 01            13823 	.byte	1
00009244 f405          13824 	.byte	244,5
00009246 53544f505f53  13825 	.strz	"STOP_SEC_CONST "
0000924c 45435f434f4e 
00009252 53542000 
00009256 03            13826 	.byte	3
00009257 bb09          13827 	.byte	187,9
00009259 1f            13828 	.byte	31
0000925a 04            13829 	.byte	4
0000925b 04            13830 	.byte	4
0000925c 04            13831 	.byte	4
0000925d 01            13832 	.byte	1
0000925e 2a            13833 	.byte	42
0000925f 44454d5f5354  13834 	.strz	"DEM_START_SEC_ROM_CODE "
00009265 4152545f5345 
0000926b 435f524f4d5f 
00009271 434f44452000 
00009277 03            13835 	.byte	3
00009278 2b            13836 	.byte	43
00009279 1d            13837 	.byte	29
0000927a 01            13838 	.byte	1
0000927b 06            13839 	.byte	6
0000927c 44454d5f4d45  13840 	.strz	"DEM_MEMMAP_ERROR "
00009282 4d4d41505f45 
00009288 52524f522000 
0000928e 01            13841 	.byte	1
0000928f 51            13842 	.byte	81

                                                                      Page 336
                                                              C:\Users\nhuliyap\AppData\Local\Temp\gh_00002581.s
00009290 4253575f5354  13843 	.strz	"BSW_START_SEC_CODE "
00009296 4152545f5345 
0000929c 435f434f4445 
000092a2 2000 
000092a4 03            13844 	.byte	3
000092a5 52            13845 	.byte	82
000092a6 1e            13846 	.byte	30
000092a7 01            13847 	.byte	1
000092a8 da08          13848 	.byte	218,8
000092aa 53544152545f  13849 	.strz	"START_SEC_CODE "
000092b0 5345435f434f 
000092b6 44452000 
000092ba 03            13850 	.byte	3
000092bb bb09          13851 	.byte	187,9
000092bd 1f            13852 	.byte	31
000092be 01            13853 	.byte	1
000092bf f307          13854 	.byte	243,7
000092c1 434f44455f53  13855 	.strz	"CODE_SEC_OPEN "
000092c7 45435f4f5045 
000092cd 4e2000 
000092d0 04            13856 	.byte	4
000092d1 04            13857 	.byte	4
000092d2 01            13858 	.byte	1
000092d3 56            13859 	.byte	86
000092d4 44454d5f5741  13860 	.strz	"DEM_WAS_STARTED_SEC_ROM_CODE "
000092da 535f53544152 
000092e0 5445445f5345 
000092e6 435f524f4d5f 
000092ec 434f44452000 
000092f2 04            13861 	.byte	4
000092f3 01            13862 	.byte	1
000092f4 4d            13863 	.byte	77
000092f5 44454d5f5354  13864 	.strz	"DEM_STOP_SEC_ROM_CODE "
000092fb 4f505f534543 
00009301 5f524f4d5f43 
00009307 4f44452000 
0000930c 03            13865 	.byte	3
0000930d 4e            13866 	.byte	78
0000930e 1d            13867 	.byte	29
0000930f 01            13868 	.byte	1
00009310 06            13869 	.byte	6
00009311 44454d5f4d45  13870 	.strz	"DEM_MEMMAP_ERROR "
00009317 4d4d41505f45 
0000931d 52524f522000 
00009323 01            13871 	.byte	1
00009324 5e            13872 	.byte	94
00009325 4253575f5354  13873 	.strz	"BSW_STOP_SEC_CODE "
0000932b 4f505f534543 
00009331 5f434f444520 
00009337 00 
00009338 03            13874 	.byte	3
00009339 5f            13875 	.byte	95
0000933a 1e            13876 	.byte	30
0000933b 01            13877 	.byte	1
0000933c de08          13878 	.byte	222,8
0000933e 53544f505f53  13879 	.strz	"STOP_SEC_CODE "
00009344 45435f434f44 
0000934a 452000 
0000934d 03            13880 	.byte	3
0000934e bb09          13881 	.byte	187,9
00009350 1f            13882 	.byte	31

                                                                      Page 337
                                                              C:\Users\nhuliyap\AppData\Local\Temp\gh_00002581.s
00009351 04            13883 	.byte	4
00009352 04            13884 	.byte	4
00009353 04            13885 	.byte	4
00009354 01            13886 	.byte	1
00009355 4f            13887 	.byte	79
00009356 44454d5f5354  13888 	.strz	"DEM_START_SEC_RAM_CLEARED "
0000935c 4152545f5345 
00009362 435f52414d5f 
00009368 434c45415245 
0000936e 442000 
00009371 03            13889 	.byte	3
00009372 50            13890 	.byte	80
00009373 1d            13891 	.byte	29
00009374 01            13892 	.byte	1
00009375 06            13893 	.byte	6
00009376 44454d5f4d45  13894 	.strz	"DEM_MEMMAP_ERROR "
0000937c 4d4d41505f45 
00009382 52524f522000 
00009388 01            13895 	.byte	1
00009389 0c            13896 	.byte	12
0000938a 4253575f5354  13897 	.strz	"BSW_START_SEC_VAR_CLEARED_UNSPECIFIED "
00009390 4152545f5345 
00009396 435f5641525f 
0000939c 434c45415245 
000093a2 445f554e5350 
000093a8 454349464945 
000093ae 442000 
000093b1 03            13898 	.byte	3
000093b2 0d            13899 	.byte	13
000093b3 1e            13900 	.byte	30
000093b4 01            13901 	.byte	1
000093b5 42            13902 	.byte	66
000093b6 53544152545f  13903 	.strz	"START_SEC_VAR_CLEARED_UNSPECIFIED "
000093bc 5345435f5641 
000093c2 525f434c4541 
000093c8 5245445f554e 
000093ce 535045434946 
000093d4 4945442000 
000093d9 03            13904 	.byte	3
000093da bb09          13905 	.byte	187,9
000093dc 1f            13906 	.byte	31
000093dd 01            13907 	.byte	1
000093de 56            13908 	.byte	86
000093df 53544152545f  13909 	.strz	"START_SEC_VAR_ZERO_INIT_UNSPECIFIED "
000093e5 5345435f5641 
000093eb 525f5a45524f 
000093f1 5f494e49545f 
000093f7 554e53504543 
000093fd 494649454420 
00009403 00 
00009404 01            13910 	.byte	1
00009405 840a          13911 	.byte	132,10
00009407 5641525f5345  13912 	.strz	"VAR_SEC_OPEN "
0000940d 435f4f50454e 
00009413 2000 
00009415 04            13913 	.byte	4
00009416 04            13914 	.byte	4
00009417 01            13915 	.byte	1
00009418 11            13916 	.byte	17
00009419 44454d5f5741  13917 	.strz	"DEM_WAS_STARTED_SEC_RAM_CLEARED "
0000941f 535f53544152 

                                                                      Page 338
                                                              C:\Users\nhuliyap\AppData\Local\Temp\gh_00002581.s
00009425 5445445f5345 
0000942b 435f52414d5f 
00009431 434c45415245 
00009437 442000 
0000943a 04            13918 	.byte	4
0000943b 01            13919 	.byte	1
0000943c 52            13920 	.byte	82
0000943d 44454d5f5354  13921 	.strz	"DEM_STOP_SEC_RAM_CLEARED "
00009443 4f505f534543 
00009449 5f52414d5f43 
0000944f 4c4541524544 
00009455 2000 
00009457 03            13922 	.byte	3
00009458 53            13923 	.byte	83
00009459 1d            13924 	.byte	29
0000945a 01            13925 	.byte	1
0000945b 06            13926 	.byte	6
0000945c 44454d5f4d45  13927 	.strz	"DEM_MEMMAP_ERROR "
00009462 4d4d41505f45 
00009468 52524f522000 
0000946e 01            13928 	.byte	1
0000946f 19            13929 	.byte	25
00009470 4253575f5354  13930 	.strz	"BSW_STOP_SEC_VAR_CLEARED_UNSPECIFIED "
00009476 4f505f534543 
0000947c 5f5641525f43 
00009482 4c4541524544 
00009488 5f554e535045 
0000948e 434946494544 
00009494 2000 
00009496 03            13931 	.byte	3
00009497 1a            13932 	.byte	26
00009498 1e            13933 	.byte	30
00009499 01            13934 	.byte	1
0000949a 46            13935 	.byte	70
0000949b 53544f505f53  13936 	.strz	"STOP_SEC_VAR "
000094a1 45435f564152 
000094a7 2000 
000094a9 03            13937 	.byte	3
000094aa bb09          13938 	.byte	187,9
000094ac 1f            13939 	.byte	31
000094ad 04            13940 	.byte	4
000094ae 04            13941 	.byte	4
000094af 04            13942 	.byte	4
000094b0 04            13943 	.byte	4
000094b1 03            13944 	.byte	3
000094b2 09            13945 	.byte	9
000094b3 76            13946 	.byte	118
000094b4 03            13947 	.byte	3
000094b5 09            13948 	.byte	9
000094b6 77            13949 	.byte	119
000094b7 03            13950 	.byte	3
000094b8 07            13951 	.byte	7
000094b9 78            13952 	.byte	120
000094ba 03            13953 	.byte	3
000094bb 08            13954 	.byte	8
000094bc 79            13955 	.byte	121
000094bd 01            13956 	.byte	1
000094be 15            13957 	.byte	21
000094bf 44454d5f4346  13958 	.strz	"DEM_CFG_ENVEXTDATAREC_ARRAYLENGTH (1+1)"
000094c5 475f454e5645 
000094cb 585444415441 

                                                                      Page 339
                                                              C:\Users\nhuliyap\AppData\Local\Temp\gh_00002581.s
000094d1 5245435f4152 
000094d7 5241594c454e 
000094dd 475448202831 
000094e3 2b312900 
000094e7 04            13959 	.byte	4
000094e8 01            13960 	.byte	1
000094e9 13            13961 	.byte	19
000094ea 44454d5f5354  13962 	.strz	"DEM_START_SEC_ROM_CONST "
000094f0 4152545f5345 
000094f6 435f524f4d5f 
000094fc 434f4e535420 
00009502 00 
00009503 03            13963 	.byte	3
00009504 14            13964 	.byte	20
00009505 1d            13965 	.byte	29
00009506 01            13966 	.byte	1
00009507 06            13967 	.byte	6
00009508 44454d5f4d45  13968 	.strz	"DEM_MEMMAP_ERROR "
0000950e 4d4d41505f45 
00009514 52524f522000 
0000951a 01            13969 	.byte	1
0000951b 3a            13970 	.byte	58
0000951c 4253575f5354  13971 	.strz	"BSW_START_SEC_CONST_UNSPECIFIED "
00009522 4152545f5345 
00009528 435f434f4e53 
0000952e 545f554e5350 
00009534 454349464945 
0000953a 442000 
0000953d 03            13972 	.byte	3
0000953e 3b            13973 	.byte	59
0000953f 1e            13974 	.byte	30
00009540 01            13975 	.byte	1
00009541 f005          13976 	.byte	240,5
00009543 53544152545f  13977 	.strz	"START_SEC_CONST_UNSPECIFIED "
00009549 5345435f434f 
0000954f 4e53545f554e 
00009555 535045434946 
0000955b 4945442000 
00009560 03            13978 	.byte	3
00009561 bb09          13979 	.byte	187,9
00009563 1f            13980 	.byte	31
00009564 01            13981 	.byte	1
00009565 b408          13982 	.byte	180,8
00009567 434f4e53545f  13983 	.strz	"CONST_SEC_OPEN "
0000956d 5345435f4f50 
00009573 454e2000 
00009577 04            13984 	.byte	4
00009578 04            13985 	.byte	4
00009579 01            13986 	.byte	1
0000957a 3f            13987 	.byte	63
0000957b 44454d5f5741  13988 	.strz	"DEM_WAS_STARTED_SEC_ROM_CONST "
00009581 535f53544152 
00009587 5445445f5345 
0000958d 435f524f4d5f 
00009593 434f4e535420 
00009599 00 
0000959a 04            13989 	.byte	4
0000959b 01            13990 	.byte	1
0000959c 17            13991 	.byte	23
0000959d 44454d5f5354  13992 	.strz	"DEM_STOP_SEC_ROM_CONST "
000095a3 4f505f534543 

                                                                      Page 340
                                                              C:\Users\nhuliyap\AppData\Local\Temp\gh_00002581.s
000095a9 5f524f4d5f43 
000095af 4f4e53542000 
000095b5 03            13993 	.byte	3
000095b6 18            13994 	.byte	24
000095b7 1d            13995 	.byte	29
000095b8 01            13996 	.byte	1
000095b9 06            13997 	.byte	6
000095ba 44454d5f4d45  13998 	.strz	"DEM_MEMMAP_ERROR "
000095c0 4d4d41505f45 
000095c6 52524f522000 
000095cc 01            13999 	.byte	1
000095cd 47            14000 	.byte	71
000095ce 4253575f5354  14001 	.strz	"BSW_STOP_SEC_CONST_UNSPECIFIED "
000095d4 4f505f534543 
000095da 5f434f4e5354 
000095e0 5f554e535045 
000095e6 434946494544 
000095ec 2000 
000095ee 03            14002 	.byte	3
000095ef 48            14003 	.byte	72
000095f0 1e            14004 	.byte	30
000095f1 01            14005 	.byte	1
000095f2 f405          14006 	.byte	244,5
000095f4 53544f505f53  14007 	.strz	"STOP_SEC_CONST "
000095fa 45435f434f4e 
00009600 53542000 
00009604 03            14008 	.byte	3
00009605 bb09          14009 	.byte	187,9
00009607 1f            14010 	.byte	31
00009608 04            14011 	.byte	4
00009609 04            14012 	.byte	4
0000960a 04            14013 	.byte	4
0000960b 04            14014 	.byte	4
0000960c 03            14015 	.byte	3
0000960d 08            14016 	.byte	8
0000960e 7a            14017 	.byte	122
0000960f 01            14018 	.byte	1
00009610 14            14019 	.byte	20
00009611 44454d5f4346  14020 	.strz	"DEM_CFG_ENVEXTDATA_ARRAYLENGTH (1+1)"
00009617 475f454e5645 
0000961d 585444415441 
00009623 5f4152524159 
00009629 4c454e475448 
0000962f 2028312b3129 
00009635 00 
00009636 04            14021 	.byte	4
00009637 01            14022 	.byte	1
00009638 10            14023 	.byte	16
00009639 44454d5f5354  14024 	.strz	"DEM_START_SEC_ROM_CONST "
0000963f 4152545f5345 
00009645 435f524f4d5f 
0000964b 434f4e535420 
00009651 00 
00009652 03            14025 	.byte	3
00009653 11            14026 	.byte	17
00009654 1d            14027 	.byte	29
00009655 01            14028 	.byte	1
00009656 06            14029 	.byte	6
00009657 44454d5f4d45  14030 	.strz	"DEM_MEMMAP_ERROR "
0000965d 4d4d41505f45 
00009663 52524f522000 

                                                                      Page 341
                                                              C:\Users\nhuliyap\AppData\Local\Temp\gh_00002581.s
00009669 01            14031 	.byte	1
0000966a 3a            14032 	.byte	58
0000966b 4253575f5354  14033 	.strz	"BSW_START_SEC_CONST_UNSPECIFIED "
00009671 4152545f5345 
00009677 435f434f4e53 
0000967d 545f554e5350 
00009683 454349464945 
00009689 442000 
0000968c 03            14034 	.byte	3
0000968d 3b            14035 	.byte	59
0000968e 1e            14036 	.byte	30
0000968f 01            14037 	.byte	1
00009690 f005          14038 	.byte	240,5
00009692 53544152545f  14039 	.strz	"START_SEC_CONST_UNSPECIFIED "
00009698 5345435f434f 
0000969e 4e53545f554e 
000096a4 535045434946 
000096aa 4945442000 
000096af 03            14040 	.byte	3
000096b0 bb09          14041 	.byte	187,9
000096b2 1f            14042 	.byte	31
000096b3 01            14043 	.byte	1
000096b4 b408          14044 	.byte	180,8
000096b6 434f4e53545f  14045 	.strz	"CONST_SEC_OPEN "
000096bc 5345435f4f50 
000096c2 454e2000 
000096c6 04            14046 	.byte	4
000096c7 04            14047 	.byte	4
000096c8 01            14048 	.byte	1
000096c9 3f            14049 	.byte	63
000096ca 44454d5f5741  14050 	.strz	"DEM_WAS_STARTED_SEC_ROM_CONST "
000096d0 535f53544152 
000096d6 5445445f5345 
000096dc 435f524f4d5f 
000096e2 434f4e535420 
000096e8 00 
000096e9 04            14051 	.byte	4
000096ea 01            14052 	.byte	1
000096eb 14            14053 	.byte	20
000096ec 44454d5f5354  14054 	.strz	"DEM_STOP_SEC_ROM_CONST "
000096f2 4f505f534543 
000096f8 5f524f4d5f43 
000096fe 4f4e53542000 
00009704 03            14055 	.byte	3
00009705 15            14056 	.byte	21
00009706 1d            14057 	.byte	29
00009707 01            14058 	.byte	1
00009708 06            14059 	.byte	6
00009709 44454d5f4d45  14060 	.strz	"DEM_MEMMAP_ERROR "
0000970f 4d4d41505f45 
00009715 52524f522000 
0000971b 01            14061 	.byte	1
0000971c 47            14062 	.byte	71
0000971d 4253575f5354  14063 	.strz	"BSW_STOP_SEC_CONST_UNSPECIFIED "
00009723 4f505f534543 
00009729 5f434f4e5354 
0000972f 5f554e535045 
00009735 434946494544 
0000973b 2000 
0000973d 03            14064 	.byte	3
0000973e 48            14065 	.byte	72

                                                                      Page 342
                                                              C:\Users\nhuliyap\AppData\Local\Temp\gh_00002581.s
0000973f 1e            14066 	.byte	30
00009740 01            14067 	.byte	1
00009741 f405          14068 	.byte	244,5
00009743 53544f505f53  14069 	.strz	"STOP_SEC_CONST "
00009749 45435f434f4e 
0000974f 53542000 
00009753 03            14070 	.byte	3
00009754 bb09          14071 	.byte	187,9
00009756 1f            14072 	.byte	31
00009757 04            14073 	.byte	4
00009758 04            14074 	.byte	4
00009759 04            14075 	.byte	4
0000975a 04            14076 	.byte	4
0000975b 03            14077 	.byte	3
0000975c 0a            14078 	.byte	10
0000975d 7b            14079 	.byte	123
0000975e 03            14080 	.byte	3
0000975f 07            14081 	.byte	7
00009760 7c            14082 	.byte	124
00009761 03            14083 	.byte	3
00009762 09            14084 	.byte	9
00009763 7d            14085 	.byte	125
00009764 01            14086 	.byte	1
00009765 1d            14087 	.byte	29
00009766 44454d5f4346  14088 	.strz	"DEM_CFG_ENVDID_ARRAYLENGTH (4+1)"
0000976c 475f454e5644 
00009772 49445f415252 
00009778 41594c454e47 
0000977e 54482028342b 
00009784 312900 
00009787 04            14089 	.byte	4
00009788 01            14090 	.byte	1
00009789 0f            14091 	.byte	15
0000978a 44454d5f5354  14092 	.strz	"DEM_START_SEC_ROM_CONST "
00009790 4152545f5345 
00009796 435f524f4d5f 
0000979c 434f4e535420 
000097a2 00 
000097a3 03            14093 	.byte	3
000097a4 10            14094 	.byte	16
000097a5 1d            14095 	.byte	29
000097a6 01            14096 	.byte	1
000097a7 06            14097 	.byte	6
000097a8 44454d5f4d45  14098 	.strz	"DEM_MEMMAP_ERROR "
000097ae 4d4d41505f45 
000097b4 52524f522000 
000097ba 01            14099 	.byte	1
000097bb 3a            14100 	.byte	58
000097bc 4253575f5354  14101 	.strz	"BSW_START_SEC_CONST_UNSPECIFIED "
000097c2 4152545f5345 
000097c8 435f434f4e53 
000097ce 545f554e5350 
000097d4 454349464945 
000097da 442000 
000097dd 03            14102 	.byte	3
000097de 3b            14103 	.byte	59
000097df 1e            14104 	.byte	30
000097e0 01            14105 	.byte	1
000097e1 f005          14106 	.byte	240,5
000097e3 53544152545f  14107 	.strz	"START_SEC_CONST_UNSPECIFIED "
000097e9 5345435f434f 

                                                                      Page 343
                                                              C:\Users\nhuliyap\AppData\Local\Temp\gh_00002581.s
000097ef 4e53545f554e 
000097f5 535045434946 
000097fb 4945442000 
00009800 03            14108 	.byte	3
00009801 bb09          14109 	.byte	187,9
00009803 1f            14110 	.byte	31
00009804 01            14111 	.byte	1
00009805 b408          14112 	.byte	180,8
00009807 434f4e53545f  14113 	.strz	"CONST_SEC_OPEN "
0000980d 5345435f4f50 
00009813 454e2000 
00009817 04            14114 	.byte	4
00009818 04            14115 	.byte	4
00009819 01            14116 	.byte	1
0000981a 3f            14117 	.byte	63
0000981b 44454d5f5741  14118 	.strz	"DEM_WAS_STARTED_SEC_ROM_CONST "
00009821 535f53544152 
00009827 5445445f5345 
0000982d 435f524f4d5f 
00009833 434f4e535420 
00009839 00 
0000983a 04            14119 	.byte	4
0000983b 01            14120 	.byte	1
0000983c 13            14121 	.byte	19
0000983d 44454d5f5354  14122 	.strz	"DEM_STOP_SEC_ROM_CONST "
00009843 4f505f534543 
00009849 5f524f4d5f43 
0000984f 4f4e53542000 
00009855 03            14123 	.byte	3
00009856 14            14124 	.byte	20
00009857 1d            14125 	.byte	29
00009858 01            14126 	.byte	1
00009859 06            14127 	.byte	6
0000985a 44454d5f4d45  14128 	.strz	"DEM_MEMMAP_ERROR "
00009860 4d4d41505f45 
00009866 52524f522000 
0000986c 01            14129 	.byte	1
0000986d 47            14130 	.byte	71
0000986e 4253575f5354  14131 	.strz	"BSW_STOP_SEC_CONST_UNSPECIFIED "
00009874 4f505f534543 
0000987a 5f434f4e5354 
00009880 5f554e535045 
00009886 434946494544 
0000988c 2000 
0000988e 03            14132 	.byte	3
0000988f 48            14133 	.byte	72
00009890 1e            14134 	.byte	30
00009891 01            14135 	.byte	1
00009892 f405          14136 	.byte	244,5
00009894 53544f505f53  14137 	.strz	"STOP_SEC_CONST "
0000989a 45435f434f4e 
000098a0 53542000 
000098a4 03            14138 	.byte	3
000098a5 bb09          14139 	.byte	187,9
000098a7 1f            14140 	.byte	31
000098a8 04            14141 	.byte	4
000098a9 04            14142 	.byte	4
000098aa 04            14143 	.byte	4
000098ab 04            14144 	.byte	4
000098ac 03            14145 	.byte	3
000098ad 08            14146 	.byte	8

                                                                      Page 344
                                                              C:\Users\nhuliyap\AppData\Local\Temp\gh_00002581.s
000098ae 7e            14147 	.byte	126
000098af 01            14148 	.byte	1
000098b0 14            14149 	.byte	20
000098b1 44454d5f4346  14150 	.strz	"DEM_CFG_ENVFREEZEFRAME_ARRAYLENGTH (1+1)"
000098b7 475f454e5646 
000098bd 5245455a4546 
000098c3 52414d455f41 
000098c9 525241594c45 
000098cf 4e4754482028 
000098d5 312b312900 
000098da 04            14151 	.byte	4
000098db 01            14152 	.byte	1
000098dc 0f            14153 	.byte	15
000098dd 44454d5f5354  14154 	.strz	"DEM_START_SEC_ROM_CONST "
000098e3 4152545f5345 
000098e9 435f524f4d5f 
000098ef 434f4e535420 
000098f5 00 
000098f6 03            14155 	.byte	3
000098f7 10            14156 	.byte	16
000098f8 1d            14157 	.byte	29
000098f9 01            14158 	.byte	1
000098fa 06            14159 	.byte	6
000098fb 44454d5f4d45  14160 	.strz	"DEM_MEMMAP_ERROR "
00009901 4d4d41505f45 
00009907 52524f522000 
0000990d 01            14161 	.byte	1
0000990e 3a            14162 	.byte	58
0000990f 4253575f5354  14163 	.strz	"BSW_START_SEC_CONST_UNSPECIFIED "
00009915 4152545f5345 
0000991b 435f434f4e53 
00009921 545f554e5350 
00009927 454349464945 
0000992d 442000 
00009930 03            14164 	.byte	3
00009931 3b            14165 	.byte	59
00009932 1e            14166 	.byte	30
00009933 01            14167 	.byte	1
00009934 f005          14168 	.byte	240,5
00009936 53544152545f  14169 	.strz	"START_SEC_CONST_UNSPECIFIED "
0000993c 5345435f434f 
00009942 4e53545f554e 
00009948 535045434946 
0000994e 4945442000 
00009953 03            14170 	.byte	3
00009954 bb09          14171 	.byte	187,9
00009956 1f            14172 	.byte	31
00009957 01            14173 	.byte	1
00009958 b408          14174 	.byte	180,8
0000995a 434f4e53545f  14175 	.strz	"CONST_SEC_OPEN "
00009960 5345435f4f50 
00009966 454e2000 
0000996a 04            14176 	.byte	4
0000996b 04            14177 	.byte	4
0000996c 01            14178 	.byte	1
0000996d 3f            14179 	.byte	63
0000996e 44454d5f5741  14180 	.strz	"DEM_WAS_STARTED_SEC_ROM_CONST "
00009974 535f53544152 
0000997a 5445445f5345 
00009980 435f524f4d5f 
00009986 434f4e535420 

                                                                      Page 345
                                                              C:\Users\nhuliyap\AppData\Local\Temp\gh_00002581.s
0000998c 00 
0000998d 04            14181 	.byte	4
0000998e 01            14182 	.byte	1
0000998f 13            14183 	.byte	19
00009990 44454d5f5354  14184 	.strz	"DEM_STOP_SEC_ROM_CONST "
00009996 4f505f534543 
0000999c 5f524f4d5f43 
000099a2 4f4e53542000 
000099a8 03            14185 	.byte	3
000099a9 14            14186 	.byte	20
000099aa 1d            14187 	.byte	29
000099ab 01            14188 	.byte	1
000099ac 06            14189 	.byte	6
000099ad 44454d5f4d45  14190 	.strz	"DEM_MEMMAP_ERROR "
000099b3 4d4d41505f45 
000099b9 52524f522000 
000099bf 01            14191 	.byte	1
000099c0 47            14192 	.byte	71
000099c1 4253575f5354  14193 	.strz	"BSW_STOP_SEC_CONST_UNSPECIFIED "
000099c7 4f505f534543 
000099cd 5f434f4e5354 
000099d3 5f554e535045 
000099d9 434946494544 
000099df 2000 
000099e1 03            14194 	.byte	3
000099e2 48            14195 	.byte	72
000099e3 1e            14196 	.byte	30
000099e4 01            14197 	.byte	1
000099e5 f405          14198 	.byte	244,5
000099e7 53544f505f53  14199 	.strz	"STOP_SEC_CONST "
000099ed 45435f434f4e 
000099f3 53542000 
000099f7 03            14200 	.byte	3
000099f8 bb09          14201 	.byte	187,9
000099fa 1f            14202 	.byte	31
000099fb 04            14203 	.byte	4
000099fc 04            14204 	.byte	4
000099fd 04            14205 	.byte	4
000099fe 04            14206 	.byte	4
000099ff 03            14207 	.byte	3
00009a00 0b            14208 	.byte	11
00009a01 7f            14209 	.byte	127
00009a02 03            14210 	.byte	3
00009a03 07            14211 	.byte	7
00009a04 8001          14212 	.byte	128,1
00009a06 01            14213 	.byte	1
00009a07 06            14214 	.byte	6
00009a08 44454d5f4346  14215 	.strz	"DEM_CFG_FFRECNUM_CALCULATED 1"
00009a0e 475f46465245 
00009a14 434e554d5f43 
00009a1a 414c43554c41 
00009a20 544544203100 
00009a26 01            14216 	.byte	1
00009a27 08            14217 	.byte	8
00009a28 44454d5f4346  14218 	.strz	"DEM_CFG_FFRECNUM DEM_CFG_FFRECNUM_CALCULATED"
00009a2e 475f46465245 
00009a34 434e554d2044 
00009a3a 454d5f434647 
00009a40 5f4646524543 
00009a46 4e554d5f4341 
00009a4c 4c43554c4154 

                                                                      Page 346
                                                              C:\Users\nhuliyap\AppData\Local\Temp\gh_00002581.s
00009a52 454400 
00009a55 04            14219 	.byte	4
00009a56 04            14220 	.byte	4
00009a57 01            14221 	.byte	1
00009a58 11            14222 	.byte	17
00009a59 44454d5f5354  14223 	.strz	"DEM_START_SEC_ROM_CONST "
00009a5f 4152545f5345 
00009a65 435f524f4d5f 
00009a6b 434f4e535420 
00009a71 00 
00009a72 03            14224 	.byte	3
00009a73 12            14225 	.byte	18
00009a74 1d            14226 	.byte	29
00009a75 01            14227 	.byte	1
00009a76 06            14228 	.byte	6
00009a77 44454d5f4d45  14229 	.strz	"DEM_MEMMAP_ERROR "
00009a7d 4d4d41505f45 
00009a83 52524f522000 
00009a89 01            14230 	.byte	1
00009a8a 3a            14231 	.byte	58
00009a8b 4253575f5354  14232 	.strz	"BSW_START_SEC_CONST_UNSPECIFIED "
00009a91 4152545f5345 
00009a97 435f434f4e53 
00009a9d 545f554e5350 
00009aa3 454349464945 
00009aa9 442000 
00009aac 03            14233 	.byte	3
00009aad 3b            14234 	.byte	59
00009aae 1e            14235 	.byte	30
00009aaf 01            14236 	.byte	1
00009ab0 f005          14237 	.byte	240,5
00009ab2 53544152545f  14238 	.strz	"START_SEC_CONST_UNSPECIFIED "
00009ab8 5345435f434f 
00009abe 4e53545f554e 
00009ac4 535045434946 
00009aca 4945442000 
00009acf 03            14239 	.byte	3
00009ad0 bb09          14240 	.byte	187,9
00009ad2 1f            14241 	.byte	31
00009ad3 01            14242 	.byte	1
00009ad4 b408          14243 	.byte	180,8
00009ad6 434f4e53545f  14244 	.strz	"CONST_SEC_OPEN "
00009adc 5345435f4f50 
00009ae2 454e2000 
00009ae6 04            14245 	.byte	4
00009ae7 04            14246 	.byte	4
00009ae8 01            14247 	.byte	1
00009ae9 3f            14248 	.byte	63
00009aea 44454d5f5741  14249 	.strz	"DEM_WAS_STARTED_SEC_ROM_CONST "
00009af0 535f53544152 
00009af6 5445445f5345 
00009afc 435f524f4d5f 
00009b02 434f4e535420 
00009b08 00 
00009b09 04            14250 	.byte	4
00009b0a 01            14251 	.byte	1
00009b0b 14            14252 	.byte	20
00009b0c 44454d5f5354  14253 	.strz	"DEM_STOP_SEC_ROM_CONST "
00009b12 4f505f534543 
00009b18 5f524f4d5f43 
00009b1e 4f4e53542000 

                                                                      Page 347
                                                              C:\Users\nhuliyap\AppData\Local\Temp\gh_00002581.s
00009b24 03            14254 	.byte	3
00009b25 15            14255 	.byte	21
00009b26 1d            14256 	.byte	29
00009b27 01            14257 	.byte	1
00009b28 06            14258 	.byte	6
00009b29 44454d5f4d45  14259 	.strz	"DEM_MEMMAP_ERROR "
00009b2f 4d4d41505f45 
00009b35 52524f522000 
00009b3b 01            14260 	.byte	1
00009b3c 47            14261 	.byte	71
00009b3d 4253575f5354  14262 	.strz	"BSW_STOP_SEC_CONST_UNSPECIFIED "
00009b43 4f505f534543 
00009b49 5f434f4e5354 
00009b4f 5f554e535045 
00009b55 434946494544 
00009b5b 2000 
00009b5d 03            14263 	.byte	3
00009b5e 48            14264 	.byte	72
00009b5f 1e            14265 	.byte	30
00009b60 01            14266 	.byte	1
00009b61 f405          14267 	.byte	244,5
00009b63 53544f505f53  14268 	.strz	"STOP_SEC_CONST "
00009b69 45435f434f4e 
00009b6f 53542000 
00009b73 03            14269 	.byte	3
00009b74 bb09          14270 	.byte	187,9
00009b76 1f            14271 	.byte	31
00009b77 04            14272 	.byte	4
00009b78 04            14273 	.byte	4
00009b79 04            14274 	.byte	4
00009b7a 01            14275 	.byte	1
00009b7b 20            14276 	.byte	32
00009b7c 44454d5f5354  14277 	.strz	"DEM_START_SEC_ROM_CODE "
00009b82 4152545f5345 
00009b88 435f524f4d5f 
00009b8e 434f44452000 
00009b94 03            14278 	.byte	3
00009b95 21            14279 	.byte	33
00009b96 1d            14280 	.byte	29
00009b97 01            14281 	.byte	1
00009b98 06            14282 	.byte	6
00009b99 44454d5f4d45  14283 	.strz	"DEM_MEMMAP_ERROR "
00009b9f 4d4d41505f45 
00009ba5 52524f522000 
00009bab 01            14284 	.byte	1
00009bac 51            14285 	.byte	81
00009bad 4253575f5354  14286 	.strz	"BSW_START_SEC_CODE "
00009bb3 4152545f5345 
00009bb9 435f434f4445 
00009bbf 2000 
00009bc1 03            14287 	.byte	3
00009bc2 52            14288 	.byte	82
00009bc3 1e            14289 	.byte	30
00009bc4 01            14290 	.byte	1
00009bc5 da08          14291 	.byte	218,8
00009bc7 53544152545f  14292 	.strz	"START_SEC_CODE "
00009bcd 5345435f434f 
00009bd3 44452000 
00009bd7 03            14293 	.byte	3
00009bd8 bb09          14294 	.byte	187,9
00009bda 1f            14295 	.byte	31

                                                                      Page 348
                                                              C:\Users\nhuliyap\AppData\Local\Temp\gh_00002581.s
00009bdb 01            14296 	.byte	1
00009bdc f307          14297 	.byte	243,7
00009bde 434f44455f53  14298 	.strz	"CODE_SEC_OPEN "
00009be4 45435f4f5045 
00009bea 4e2000 
00009bed 04            14299 	.byte	4
00009bee 04            14300 	.byte	4
00009bef 01            14301 	.byte	1
00009bf0 56            14302 	.byte	86
00009bf1 44454d5f5741  14303 	.strz	"DEM_WAS_STARTED_SEC_ROM_CODE "
00009bf7 535f53544152 
00009bfd 5445445f5345 
00009c03 435f524f4d5f 
00009c09 434f44452000 
00009c0f 04            14304 	.byte	4
00009c10 01            14305 	.byte	1
00009c11 39            14306 	.byte	57
00009c12 44454d5f5354  14307 	.strz	"DEM_STOP_SEC_ROM_CODE "
00009c18 4f505f534543 
00009c1e 5f524f4d5f43 
00009c24 4f44452000 
00009c29 03            14308 	.byte	3
00009c2a 3a            14309 	.byte	58
00009c2b 1d            14310 	.byte	29
00009c2c 01            14311 	.byte	1
00009c2d 06            14312 	.byte	6
00009c2e 44454d5f4d45  14313 	.strz	"DEM_MEMMAP_ERROR "
00009c34 4d4d41505f45 
00009c3a 52524f522000 
00009c40 01            14314 	.byte	1
00009c41 5e            14315 	.byte	94
00009c42 4253575f5354  14316 	.strz	"BSW_STOP_SEC_CODE "
00009c48 4f505f534543 
00009c4e 5f434f444520 
00009c54 00 
00009c55 03            14317 	.byte	3
00009c56 5f            14318 	.byte	95
00009c57 1e            14319 	.byte	30
00009c58 01            14320 	.byte	1
00009c59 de08          14321 	.byte	222,8
00009c5b 53544f505f53  14322 	.strz	"STOP_SEC_CODE "
00009c61 45435f434f44 
00009c67 452000 
00009c6a 03            14323 	.byte	3
00009c6b bb09          14324 	.byte	187,9
00009c6d 1f            14325 	.byte	31
00009c6e 04            14326 	.byte	4
00009c6f 04            14327 	.byte	4
00009c70 04            14328 	.byte	4
00009c71 04            14329 	.byte	4
00009c72 03            14330 	.byte	3
00009c73 0b            14331 	.byte	11
00009c74 8101          14332 	.byte	129,1
00009c76 01            14333 	.byte	1
00009c77 48            14334 	.byte	72
00009c78 44454d5f5354  14335 	.strz	"DEM_START_SEC_RAM_CLEARED "
00009c7e 4152545f5345 
00009c84 435f52414d5f 
00009c8a 434c45415245 
00009c90 442000 
00009c93 03            14336 	.byte	3

                                                                      Page 349
                                                              C:\Users\nhuliyap\AppData\Local\Temp\gh_00002581.s
00009c94 49            14337 	.byte	73
00009c95 1d            14338 	.byte	29
00009c96 01            14339 	.byte	1
00009c97 06            14340 	.byte	6
00009c98 44454d5f4d45  14341 	.strz	"DEM_MEMMAP_ERROR "
00009c9e 4d4d41505f45 
00009ca4 52524f522000 
00009caa 01            14342 	.byte	1
00009cab 0c            14343 	.byte	12
00009cac 4253575f5354  14344 	.strz	"BSW_START_SEC_VAR_CLEARED_UNSPECIFIED "
00009cb2 4152545f5345 
00009cb8 435f5641525f 
00009cbe 434c45415245 
00009cc4 445f554e5350 
00009cca 454349464945 
00009cd0 442000 
00009cd3 03            14345 	.byte	3
00009cd4 0d            14346 	.byte	13
00009cd5 1e            14347 	.byte	30
00009cd6 01            14348 	.byte	1
00009cd7 42            14349 	.byte	66
00009cd8 53544152545f  14350 	.strz	"START_SEC_VAR_CLEARED_UNSPECIFIED "
00009cde 5345435f5641 
00009ce4 525f434c4541 
00009cea 5245445f554e 
00009cf0 535045434946 
00009cf6 4945442000 
00009cfb 03            14351 	.byte	3
00009cfc bb09          14352 	.byte	187,9
00009cfe 1f            14353 	.byte	31
00009cff 01            14354 	.byte	1
00009d00 56            14355 	.byte	86
00009d01 53544152545f  14356 	.strz	"START_SEC_VAR_ZERO_INIT_UNSPECIFIED "
00009d07 5345435f5641 
00009d0d 525f5a45524f 
00009d13 5f494e49545f 
00009d19 554e53504543 
00009d1f 494649454420 
00009d25 00 
00009d26 01            14357 	.byte	1
00009d27 840a          14358 	.byte	132,10
00009d29 5641525f5345  14359 	.strz	"VAR_SEC_OPEN "
00009d2f 435f4f50454e 
00009d35 2000 
00009d37 04            14360 	.byte	4
00009d38 04            14361 	.byte	4
00009d39 01            14362 	.byte	1
00009d3a 11            14363 	.byte	17
00009d3b 44454d5f5741  14364 	.strz	"DEM_WAS_STARTED_SEC_RAM_CLEARED "
00009d41 535f53544152 
00009d47 5445445f5345 
00009d4d 435f52414d5f 
00009d53 434c45415245 
00009d59 442000 
00009d5c 04            14365 	.byte	4
00009d5d 01            14366 	.byte	1
00009d5e 4d            14367 	.byte	77
00009d5f 44454d5f5354  14368 	.strz	"DEM_STOP_SEC_RAM_CLEARED "
00009d65 4f505f534543 
00009d6b 5f52414d5f43 
00009d71 4c4541524544 

                                                                      Page 350
                                                              C:\Users\nhuliyap\AppData\Local\Temp\gh_00002581.s
00009d77 2000 
00009d79 03            14369 	.byte	3
00009d7a 4e            14370 	.byte	78
00009d7b 1d            14371 	.byte	29
00009d7c 01            14372 	.byte	1
00009d7d 06            14373 	.byte	6
00009d7e 44454d5f4d45  14374 	.strz	"DEM_MEMMAP_ERROR "
00009d84 4d4d41505f45 
00009d8a 52524f522000 
00009d90 01            14375 	.byte	1
00009d91 19            14376 	.byte	25
00009d92 4253575f5354  14377 	.strz	"BSW_STOP_SEC_VAR_CLEARED_UNSPECIFIED "
00009d98 4f505f534543 
00009d9e 5f5641525f43 
00009da4 4c4541524544 
00009daa 5f554e535045 
00009db0 434946494544 
00009db6 2000 
00009db8 03            14378 	.byte	3
00009db9 1a            14379 	.byte	26
00009dba 1e            14380 	.byte	30
00009dbb 01            14381 	.byte	1
00009dbc 46            14382 	.byte	70
00009dbd 53544f505f53  14383 	.strz	"STOP_SEC_VAR "
00009dc3 45435f564152 
00009dc9 2000 
00009dcb 03            14384 	.byte	3
00009dcc bb09          14385 	.byte	187,9
00009dce 1f            14386 	.byte	31
00009dcf 04            14387 	.byte	4
00009dd0 04            14388 	.byte	4
00009dd1 04            14389 	.byte	4
00009dd2 01            14390 	.byte	1
00009dd3 50            14391 	.byte	80
00009dd4 44454d5f5354  14392 	.strz	"DEM_START_SEC_RAM_INIT "
00009dda 4152545f5345 
00009de0 435f52414d5f 
00009de6 494e49542000 
00009dec 03            14393 	.byte	3
00009ded 51            14394 	.byte	81
00009dee 1d            14395 	.byte	29
00009def 01            14396 	.byte	1
00009df0 06            14397 	.byte	6
00009df1 44454d5f4d45  14398 	.strz	"DEM_MEMMAP_ERROR "
00009df7 4d4d41505f45 
00009dfd 52524f522000 
00009e03 01            14399 	.byte	1
00009e04 23            14400 	.byte	35
00009e05 4253575f5354  14401 	.strz	"BSW_START_SEC_VAR_INIT_UNSPECIFIED "
00009e0b 4152545f5345 
00009e11 435f5641525f 
00009e17 494e49545f55 
00009e1d 4e5350454349 
00009e23 464945442000 
00009e29 03            14402 	.byte	3
00009e2a 24            14403 	.byte	36
00009e2b 1e            14404 	.byte	30
00009e2c 01            14405 	.byte	1
00009e2d 8001          14406 	.byte	128,1
00009e2f 53544152545f  14407 	.strz	"START_SEC_VAR_INIT_UNSPECIFIED "
00009e35 5345435f5641 

                                                                      Page 351
                                                              C:\Users\nhuliyap\AppData\Local\Temp\gh_00002581.s
00009e3b 525f494e4954 
00009e41 5f554e535045 
00009e47 434946494544 
00009e4d 2000 
00009e4f 03            14408 	.byte	3
00009e50 bb09          14409 	.byte	187,9
00009e52 1f            14410 	.byte	31
00009e53 01            14411 	.byte	1
00009e54 a109          14412 	.byte	161,9
00009e56 5641525f5345  14413 	.strz	"VAR_SEC_OPEN "
00009e5c 435f4f50454e 
00009e62 2000 
00009e64 04            14414 	.byte	4
00009e65 04            14415 	.byte	4
00009e66 01            14416 	.byte	1
00009e67 28            14417 	.byte	40
00009e68 44454d5f5741  14418 	.strz	"DEM_WAS_STARTED_SEC_RAM_INIT "
00009e6e 535f53544152 
00009e74 5445445f5345 
00009e7a 435f52414d5f 
00009e80 494e49542000 
00009e86 04            14419 	.byte	4
00009e87 01            14420 	.byte	1
00009e88 57            14421 	.byte	87
00009e89 44454d5f5354  14422 	.strz	"DEM_STOP_SEC_RAM_INIT "
00009e8f 4f505f534543 
00009e95 5f52414d5f49 
00009e9b 4e49542000 
00009ea0 03            14423 	.byte	3
00009ea1 58            14424 	.byte	88
00009ea2 1d            14425 	.byte	29
00009ea3 01            14426 	.byte	1
00009ea4 06            14427 	.byte	6
00009ea5 44454d5f4d45  14428 	.strz	"DEM_MEMMAP_ERROR "
00009eab 4d4d41505f45 
00009eb1 52524f522000 
00009eb7 01            14429 	.byte	1
00009eb8 30            14430 	.byte	48
00009eb9 4253575f5354  14431 	.strz	"BSW_STOP_SEC_VAR_INIT_UNSPECIFIED "
00009ebf 4f505f534543 
00009ec5 5f5641525f49 
00009ecb 4e49545f554e 
00009ed1 535045434946 
00009ed7 4945442000 
00009edc 03            14432 	.byte	3
00009edd 31            14433 	.byte	49
00009ede 1e            14434 	.byte	30
00009edf 01            14435 	.byte	1
00009ee0 8401          14436 	.byte	132,1
00009ee2 53544f505f53  14437 	.strz	"STOP_SEC_VAR "
00009ee8 45435f564152 
00009eee 2000 
00009ef0 03            14438 	.byte	3
00009ef1 bb09          14439 	.byte	187,9
00009ef3 1f            14440 	.byte	31
00009ef4 04            14441 	.byte	4
00009ef5 04            14442 	.byte	4
00009ef6 04            14443 	.byte	4
00009ef7 01            14444 	.byte	1
00009ef8 5a            14445 	.byte	90
00009ef9 44454d5f5354  14446 	.strz	"DEM_START_SEC_ROM_CONST "

                                                                      Page 352
                                                              C:\Users\nhuliyap\AppData\Local\Temp\gh_00002581.s
00009eff 4152545f5345 
00009f05 435f524f4d5f 
00009f0b 434f4e535420 
00009f11 00 
00009f12 03            14447 	.byte	3
00009f13 5b            14448 	.byte	91
00009f14 1d            14449 	.byte	29
00009f15 01            14450 	.byte	1
00009f16 06            14451 	.byte	6
00009f17 44454d5f4d45  14452 	.strz	"DEM_MEMMAP_ERROR "
00009f1d 4d4d41505f45 
00009f23 52524f522000 
00009f29 01            14453 	.byte	1
00009f2a 3a            14454 	.byte	58
00009f2b 4253575f5354  14455 	.strz	"BSW_START_SEC_CONST_UNSPECIFIED "
00009f31 4152545f5345 
00009f37 435f434f4e53 
00009f3d 545f554e5350 
00009f43 454349464945 
00009f49 442000 
00009f4c 03            14456 	.byte	3
00009f4d 3b            14457 	.byte	59
00009f4e 1e            14458 	.byte	30
00009f4f 01            14459 	.byte	1
00009f50 f005          14460 	.byte	240,5
00009f52 53544152545f  14461 	.strz	"START_SEC_CONST_UNSPECIFIED "
00009f58 5345435f434f 
00009f5e 4e53545f554e 
00009f64 535045434946 
00009f6a 4945442000 
00009f6f 03            14462 	.byte	3
00009f70 bb09          14463 	.byte	187,9
00009f72 1f            14464 	.byte	31
00009f73 01            14465 	.byte	1
00009f74 b408          14466 	.byte	180,8
00009f76 434f4e53545f  14467 	.strz	"CONST_SEC_OPEN "
00009f7c 5345435f4f50 
00009f82 454e2000 
00009f86 04            14468 	.byte	4
00009f87 04            14469 	.byte	4
00009f88 01            14470 	.byte	1
00009f89 3f            14471 	.byte	63
00009f8a 44454d5f5741  14472 	.strz	"DEM_WAS_STARTED_SEC_ROM_CONST "
00009f90 535f53544152 
00009f96 5445445f5345 
00009f9c 435f524f4d5f 
00009fa2 434f4e535420 
00009fa8 00 
00009fa9 04            14473 	.byte	4
00009faa 01            14474 	.byte	1
00009fab 61            14475 	.byte	97
00009fac 44454d5f5354  14476 	.strz	"DEM_STOP_SEC_ROM_CONST "
00009fb2 4f505f534543 
00009fb8 5f524f4d5f43 
00009fbe 4f4e53542000 
00009fc4 03            14477 	.byte	3
00009fc5 62            14478 	.byte	98
00009fc6 1d            14479 	.byte	29
00009fc7 01            14480 	.byte	1
00009fc8 06            14481 	.byte	6
00009fc9 44454d5f4d45  14482 	.strz	"DEM_MEMMAP_ERROR "

                                                                      Page 353
                                                              C:\Users\nhuliyap\AppData\Local\Temp\gh_00002581.s
00009fcf 4d4d41505f45 
00009fd5 52524f522000 
00009fdb 01            14483 	.byte	1
00009fdc 47            14484 	.byte	71
00009fdd 4253575f5354  14485 	.strz	"BSW_STOP_SEC_CONST_UNSPECIFIED "
00009fe3 4f505f534543 
00009fe9 5f434f4e5354 
00009fef 5f554e535045 
00009ff5 434946494544 
00009ffb 2000 
00009ffd 03            14486 	.byte	3
00009ffe 48            14487 	.byte	72
00009fff 1e            14488 	.byte	30
0000a000 01            14489 	.byte	1
0000a001 f405          14490 	.byte	244,5
0000a003 53544f505f53  14491 	.strz	"STOP_SEC_CONST "
0000a009 45435f434f4e 
0000a00f 53542000 
0000a013 03            14492 	.byte	3
0000a014 bb09          14493 	.byte	187,9
0000a016 1f            14494 	.byte	31
0000a017 04            14495 	.byte	4
0000a018 04            14496 	.byte	4
0000a019 04            14497 	.byte	4
0000a01a 01            14498 	.byte	1
0000a01b 8002          14499 	.byte	128,2
0000a01d 44454d5f5354  14500 	.strz	"DEM_START_SEC_ROM_CODE "
0000a023 4152545f5345 
0000a029 435f524f4d5f 
0000a02f 434f44452000 
0000a035 03            14501 	.byte	3
0000a036 8102          14502 	.byte	129,2
0000a038 1d            14503 	.byte	29
0000a039 01            14504 	.byte	1
0000a03a 06            14505 	.byte	6
0000a03b 44454d5f4d45  14506 	.strz	"DEM_MEMMAP_ERROR "
0000a041 4d4d41505f45 
0000a047 52524f522000 
0000a04d 01            14507 	.byte	1
0000a04e 51            14508 	.byte	81
0000a04f 4253575f5354  14509 	.strz	"BSW_START_SEC_CODE "
0000a055 4152545f5345 
0000a05b 435f434f4445 
0000a061 2000 
0000a063 03            14510 	.byte	3
0000a064 52            14511 	.byte	82
0000a065 1e            14512 	.byte	30
0000a066 01            14513 	.byte	1
0000a067 da08          14514 	.byte	218,8
0000a069 53544152545f  14515 	.strz	"START_SEC_CODE "
0000a06f 5345435f434f 
0000a075 44452000 
0000a079 03            14516 	.byte	3
0000a07a bb09          14517 	.byte	187,9
0000a07c 1f            14518 	.byte	31
0000a07d 01            14519 	.byte	1
0000a07e f307          14520 	.byte	243,7
0000a080 434f44455f53  14521 	.strz	"CODE_SEC_OPEN "
0000a086 45435f4f5045 
0000a08c 4e2000 
0000a08f 04            14522 	.byte	4

                                                                      Page 354
                                                              C:\Users\nhuliyap\AppData\Local\Temp\gh_00002581.s
0000a090 04            14523 	.byte	4
0000a091 01            14524 	.byte	1
0000a092 56            14525 	.byte	86
0000a093 44454d5f5741  14526 	.strz	"DEM_WAS_STARTED_SEC_ROM_CODE "
0000a099 535f53544152 
0000a09f 5445445f5345 
0000a0a5 435f524f4d5f 
0000a0ab 434f44452000 
0000a0b1 04            14527 	.byte	4
0000a0b2 01            14528 	.byte	1
0000a0b3 9b02          14529 	.byte	155,2
0000a0b5 44454d5f5354  14530 	.strz	"DEM_STOP_SEC_ROM_CODE "
0000a0bb 4f505f534543 
0000a0c1 5f524f4d5f43 
0000a0c7 4f44452000 
0000a0cc 03            14531 	.byte	3
0000a0cd 9c02          14532 	.byte	156,2
0000a0cf 1d            14533 	.byte	29
0000a0d0 01            14534 	.byte	1
0000a0d1 06            14535 	.byte	6
0000a0d2 44454d5f4d45  14536 	.strz	"DEM_MEMMAP_ERROR "
0000a0d8 4d4d41505f45 
0000a0de 52524f522000 
0000a0e4 01            14537 	.byte	1
0000a0e5 5e            14538 	.byte	94
0000a0e6 4253575f5354  14539 	.strz	"BSW_STOP_SEC_CODE "
0000a0ec 4f505f534543 
0000a0f2 5f434f444520 
0000a0f8 00 
0000a0f9 03            14540 	.byte	3
0000a0fa 5f            14541 	.byte	95
0000a0fb 1e            14542 	.byte	30
0000a0fc 01            14543 	.byte	1
0000a0fd de08          14544 	.byte	222,8
0000a0ff 53544f505f53  14545 	.strz	"STOP_SEC_CODE "
0000a105 45435f434f44 
0000a10b 452000 
0000a10e 03            14546 	.byte	3
0000a10f bb09          14547 	.byte	187,9
0000a111 1f            14548 	.byte	31
0000a112 04            14549 	.byte	4
0000a113 04            14550 	.byte	4
0000a114 04            14551 	.byte	4
0000a115 04            14552 	.byte	4
0000a116 01            14553 	.byte	1
0000a117 0f            14554 	.byte	15
0000a118 44454d5f5354  14555 	.strz	"DEM_START_SEC_RAM_CLEARED "
0000a11e 4152545f5345 
0000a124 435f52414d5f 
0000a12a 434c45415245 
0000a130 442000 
0000a133 03            14556 	.byte	3
0000a134 10            14557 	.byte	16
0000a135 1d            14558 	.byte	29
0000a136 01            14559 	.byte	1
0000a137 06            14560 	.byte	6
0000a138 44454d5f4d45  14561 	.strz	"DEM_MEMMAP_ERROR "
0000a13e 4d4d41505f45 
0000a144 52524f522000 
0000a14a 01            14562 	.byte	1
0000a14b 0c            14563 	.byte	12

                                                                      Page 355
                                                              C:\Users\nhuliyap\AppData\Local\Temp\gh_00002581.s
0000a14c 4253575f5354  14564 	.strz	"BSW_START_SEC_VAR_CLEARED_UNSPECIFIED "
0000a152 4152545f5345 
0000a158 435f5641525f 
0000a15e 434c45415245 
0000a164 445f554e5350 
0000a16a 454349464945 
0000a170 442000 
0000a173 03            14565 	.byte	3
0000a174 0d            14566 	.byte	13
0000a175 1e            14567 	.byte	30
0000a176 01            14568 	.byte	1
0000a177 42            14569 	.byte	66
0000a178 53544152545f  14570 	.strz	"START_SEC_VAR_CLEARED_UNSPECIFIED "
0000a17e 5345435f5641 
0000a184 525f434c4541 
0000a18a 5245445f554e 
0000a190 535045434946 
0000a196 4945442000 
0000a19b 03            14571 	.byte	3
0000a19c bb09          14572 	.byte	187,9
0000a19e 1f            14573 	.byte	31
0000a19f 01            14574 	.byte	1
0000a1a0 56            14575 	.byte	86
0000a1a1 53544152545f  14576 	.strz	"START_SEC_VAR_ZERO_INIT_UNSPECIFIED "
0000a1a7 5345435f5641 
0000a1ad 525f5a45524f 
0000a1b3 5f494e49545f 
0000a1b9 554e53504543 
0000a1bf 494649454420 
0000a1c5 00 
0000a1c6 01            14577 	.byte	1
0000a1c7 840a          14578 	.byte	132,10
0000a1c9 5641525f5345  14579 	.strz	"VAR_SEC_OPEN "
0000a1cf 435f4f50454e 
0000a1d5 2000 
0000a1d7 04            14580 	.byte	4
0000a1d8 04            14581 	.byte	4
0000a1d9 01            14582 	.byte	1
0000a1da 11            14583 	.byte	17
0000a1db 44454d5f5741  14584 	.strz	"DEM_WAS_STARTED_SEC_RAM_CLEARED "
0000a1e1 535f53544152 
0000a1e7 5445445f5345 
0000a1ed 435f52414d5f 
0000a1f3 434c45415245 
0000a1f9 442000 
0000a1fc 04            14585 	.byte	4
0000a1fd 01            14586 	.byte	1
0000a1fe 13            14587 	.byte	19
0000a1ff 44454d5f5354  14588 	.strz	"DEM_STOP_SEC_RAM_CLEARED "
0000a205 4f505f534543 
0000a20b 5f52414d5f43 
0000a211 4c4541524544 
0000a217 2000 
0000a219 03            14589 	.byte	3
0000a21a 14            14590 	.byte	20
0000a21b 1d            14591 	.byte	29
0000a21c 01            14592 	.byte	1
0000a21d 06            14593 	.byte	6
0000a21e 44454d5f4d45  14594 	.strz	"DEM_MEMMAP_ERROR "
0000a224 4d4d41505f45 
0000a22a 52524f522000 

                                                                      Page 356
                                                              C:\Users\nhuliyap\AppData\Local\Temp\gh_00002581.s
0000a230 01            14595 	.byte	1
0000a231 19            14596 	.byte	25
0000a232 4253575f5354  14597 	.strz	"BSW_STOP_SEC_VAR_CLEARED_UNSPECIFIED "
0000a238 4f505f534543 
0000a23e 5f5641525f43 
0000a244 4c4541524544 
0000a24a 5f554e535045 
0000a250 434946494544 
0000a256 2000 
0000a258 03            14598 	.byte	3
0000a259 1a            14599 	.byte	26
0000a25a 1e            14600 	.byte	30
0000a25b 01            14601 	.byte	1
0000a25c 46            14602 	.byte	70
0000a25d 53544f505f53  14603 	.strz	"STOP_SEC_VAR "
0000a263 45435f564152 
0000a269 2000 
0000a26b 03            14604 	.byte	3
0000a26c bb09          14605 	.byte	187,9
0000a26e 1f            14606 	.byte	31
0000a26f 04            14607 	.byte	4
0000a270 04            14608 	.byte	4
0000a271 04            14609 	.byte	4
0000a272 01            14610 	.byte	1
0000a273 16            14611 	.byte	22
0000a274 44454d5f5354  14612 	.strz	"DEM_START_SEC_ROM_CODE "
0000a27a 4152545f5345 
0000a280 435f524f4d5f 
0000a286 434f44452000 
0000a28c 03            14613 	.byte	3
0000a28d 17            14614 	.byte	23
0000a28e 1d            14615 	.byte	29
0000a28f 01            14616 	.byte	1
0000a290 06            14617 	.byte	6
0000a291 44454d5f4d45  14618 	.strz	"DEM_MEMMAP_ERROR "
0000a297 4d4d41505f45 
0000a29d 52524f522000 
0000a2a3 01            14619 	.byte	1
0000a2a4 51            14620 	.byte	81
0000a2a5 4253575f5354  14621 	.strz	"BSW_START_SEC_CODE "
0000a2ab 4152545f5345 
0000a2b1 435f434f4445 
0000a2b7 2000 
0000a2b9 03            14622 	.byte	3
0000a2ba 52            14623 	.byte	82
0000a2bb 1e            14624 	.byte	30
0000a2bc 01            14625 	.byte	1
0000a2bd da08          14626 	.byte	218,8
0000a2bf 53544152545f  14627 	.strz	"START_SEC_CODE "
0000a2c5 5345435f434f 
0000a2cb 44452000 
0000a2cf 03            14628 	.byte	3
0000a2d0 bb09          14629 	.byte	187,9
0000a2d2 1f            14630 	.byte	31
0000a2d3 01            14631 	.byte	1
0000a2d4 f307          14632 	.byte	243,7
0000a2d6 434f44455f53  14633 	.strz	"CODE_SEC_OPEN "
0000a2dc 45435f4f5045 
0000a2e2 4e2000 
0000a2e5 04            14634 	.byte	4
0000a2e6 04            14635 	.byte	4

                                                                      Page 357
                                                              C:\Users\nhuliyap\AppData\Local\Temp\gh_00002581.s
0000a2e7 01            14636 	.byte	1
0000a2e8 56            14637 	.byte	86
0000a2e9 44454d5f5741  14638 	.strz	"DEM_WAS_STARTED_SEC_ROM_CODE "
0000a2ef 535f53544152 
0000a2f5 5445445f5345 
0000a2fb 435f524f4d5f 
0000a301 434f44452000 
0000a307 04            14639 	.byte	4
0000a308 01            14640 	.byte	1
0000a309 35            14641 	.byte	53
0000a30a 44454d5f5354  14642 	.strz	"DEM_STOP_SEC_ROM_CODE "
0000a310 4f505f534543 
0000a316 5f524f4d5f43 
0000a31c 4f44452000 
0000a321 03            14643 	.byte	3
0000a322 36            14644 	.byte	54
0000a323 1d            14645 	.byte	29
0000a324 01            14646 	.byte	1
0000a325 06            14647 	.byte	6
0000a326 44454d5f4d45  14648 	.strz	"DEM_MEMMAP_ERROR "
0000a32c 4d4d41505f45 
0000a332 52524f522000 
0000a338 01            14649 	.byte	1
0000a339 5e            14650 	.byte	94
0000a33a 4253575f5354  14651 	.strz	"BSW_STOP_SEC_CODE "
0000a340 4f505f534543 
0000a346 5f434f444520 
0000a34c 00 
0000a34d 03            14652 	.byte	3
0000a34e 5f            14653 	.byte	95
0000a34f 1e            14654 	.byte	30
0000a350 01            14655 	.byte	1
0000a351 de08          14656 	.byte	222,8
0000a353 53544f505f53  14657 	.strz	"STOP_SEC_CODE "
0000a359 45435f434f44 
0000a35f 452000 
0000a362 03            14658 	.byte	3
0000a363 bb09          14659 	.byte	187,9
0000a365 1f            14660 	.byte	31
0000a366 04            14661 	.byte	4
0000a367 04            14662 	.byte	4
0000a368 04            14663 	.byte	4
0000a369 01            14664 	.byte	1
0000a36a 39            14665 	.byte	57
0000a36b 44454d5f5354  14666 	.strz	"DEM_START_SEC_RAM_CLEARED "
0000a371 4152545f5345 
0000a377 435f52414d5f 
0000a37d 434c45415245 
0000a383 442000 
0000a386 03            14667 	.byte	3
0000a387 3a            14668 	.byte	58
0000a388 1d            14669 	.byte	29
0000a389 01            14670 	.byte	1
0000a38a 06            14671 	.byte	6
0000a38b 44454d5f4d45  14672 	.strz	"DEM_MEMMAP_ERROR "
0000a391 4d4d41505f45 
0000a397 52524f522000 
0000a39d 01            14673 	.byte	1
0000a39e 0c            14674 	.byte	12
0000a39f 4253575f5354  14675 	.strz	"BSW_START_SEC_VAR_CLEARED_UNSPECIFIED "
0000a3a5 4152545f5345 

                                                                      Page 358
                                                              C:\Users\nhuliyap\AppData\Local\Temp\gh_00002581.s
0000a3ab 435f5641525f 
0000a3b1 434c45415245 
0000a3b7 445f554e5350 
0000a3bd 454349464945 
0000a3c3 442000 
0000a3c6 03            14676 	.byte	3
0000a3c7 0d            14677 	.byte	13
0000a3c8 1e            14678 	.byte	30
0000a3c9 01            14679 	.byte	1
0000a3ca 42            14680 	.byte	66
0000a3cb 53544152545f  14681 	.strz	"START_SEC_VAR_CLEARED_UNSPECIFIED "
0000a3d1 5345435f5641 
0000a3d7 525f434c4541 
0000a3dd 5245445f554e 
0000a3e3 535045434946 
0000a3e9 4945442000 
0000a3ee 03            14682 	.byte	3
0000a3ef bb09          14683 	.byte	187,9
0000a3f1 1f            14684 	.byte	31
0000a3f2 01            14685 	.byte	1
0000a3f3 56            14686 	.byte	86
0000a3f4 53544152545f  14687 	.strz	"START_SEC_VAR_ZERO_INIT_UNSPECIFIED "
0000a3fa 5345435f5641 
0000a400 525f5a45524f 
0000a406 5f494e49545f 
0000a40c 554e53504543 
0000a412 494649454420 
0000a418 00 
0000a419 01            14688 	.byte	1
0000a41a 840a          14689 	.byte	132,10
0000a41c 5641525f5345  14690 	.strz	"VAR_SEC_OPEN "
0000a422 435f4f50454e 
0000a428 2000 
0000a42a 04            14691 	.byte	4
0000a42b 04            14692 	.byte	4
0000a42c 01            14693 	.byte	1
0000a42d 11            14694 	.byte	17
0000a42e 44454d5f5741  14695 	.strz	"DEM_WAS_STARTED_SEC_RAM_CLEARED "
0000a434 535f53544152 
0000a43a 5445445f5345 
0000a440 435f52414d5f 
0000a446 434c45415245 
0000a44c 442000 
0000a44f 04            14696 	.byte	4
0000a450 01            14697 	.byte	1
0000a451 3c            14698 	.byte	60
0000a452 44454d5f5354  14699 	.strz	"DEM_STOP_SEC_RAM_CLEARED "
0000a458 4f505f534543 
0000a45e 5f52414d5f43 
0000a464 4c4541524544 
0000a46a 2000 
0000a46c 03            14700 	.byte	3
0000a46d 3d            14701 	.byte	61
0000a46e 1d            14702 	.byte	29
0000a46f 01            14703 	.byte	1
0000a470 06            14704 	.byte	6
0000a471 44454d5f4d45  14705 	.strz	"DEM_MEMMAP_ERROR "
0000a477 4d4d41505f45 
0000a47d 52524f522000 
0000a483 01            14706 	.byte	1
0000a484 19            14707 	.byte	25

                                                                      Page 359
                                                              C:\Users\nhuliyap\AppData\Local\Temp\gh_00002581.s
0000a485 4253575f5354  14708 	.strz	"BSW_STOP_SEC_VAR_CLEARED_UNSPECIFIED "
0000a48b 4f505f534543 
0000a491 5f5641525f43 
0000a497 4c4541524544 
0000a49d 5f554e535045 
0000a4a3 434946494544 
0000a4a9 2000 
0000a4ab 03            14709 	.byte	3
0000a4ac 1a            14710 	.byte	26
0000a4ad 1e            14711 	.byte	30
0000a4ae 01            14712 	.byte	1
0000a4af 46            14713 	.byte	70
0000a4b0 53544f505f53  14714 	.strz	"STOP_SEC_VAR "
0000a4b6 45435f564152 
0000a4bc 2000 
0000a4be 03            14715 	.byte	3
0000a4bf bb09          14716 	.byte	187,9
0000a4c1 1f            14717 	.byte	31
0000a4c2 04            14718 	.byte	4
0000a4c3 04            14719 	.byte	4
0000a4c4 04            14720 	.byte	4
0000a4c5 01            14721 	.byte	1
0000a4c6 46            14722 	.byte	70
0000a4c7 44454d5f5354  14723 	.strz	"DEM_START_SEC_ROM_CODE "
0000a4cd 4152545f5345 
0000a4d3 435f524f4d5f 
0000a4d9 434f44452000 
0000a4df 03            14724 	.byte	3
0000a4e0 47            14725 	.byte	71
0000a4e1 1d            14726 	.byte	29
0000a4e2 01            14727 	.byte	1
0000a4e3 06            14728 	.byte	6
0000a4e4 44454d5f4d45  14729 	.strz	"DEM_MEMMAP_ERROR "
0000a4ea 4d4d41505f45 
0000a4f0 52524f522000 
0000a4f6 01            14730 	.byte	1
0000a4f7 51            14731 	.byte	81
0000a4f8 4253575f5354  14732 	.strz	"BSW_START_SEC_CODE "
0000a4fe 4152545f5345 
0000a504 435f434f4445 
0000a50a 2000 
0000a50c 03            14733 	.byte	3
0000a50d 52            14734 	.byte	82
0000a50e 1e            14735 	.byte	30
0000a50f 01            14736 	.byte	1
0000a510 da08          14737 	.byte	218,8
0000a512 53544152545f  14738 	.strz	"START_SEC_CODE "
0000a518 5345435f434f 
0000a51e 44452000 
0000a522 03            14739 	.byte	3
0000a523 bb09          14740 	.byte	187,9
0000a525 1f            14741 	.byte	31
0000a526 01            14742 	.byte	1
0000a527 f307          14743 	.byte	243,7
0000a529 434f44455f53  14744 	.strz	"CODE_SEC_OPEN "
0000a52f 45435f4f5045 
0000a535 4e2000 
0000a538 04            14745 	.byte	4
0000a539 04            14746 	.byte	4
0000a53a 01            14747 	.byte	1
0000a53b 56            14748 	.byte	86

                                                                      Page 360
                                                              C:\Users\nhuliyap\AppData\Local\Temp\gh_00002581.s
0000a53c 44454d5f5741  14749 	.strz	"DEM_WAS_STARTED_SEC_ROM_CODE "
0000a542 535f53544152 
0000a548 5445445f5345 
0000a54e 435f524f4d5f 
0000a554 434f44452000 
0000a55a 04            14750 	.byte	4
0000a55b 01            14751 	.byte	1
0000a55c 5b            14752 	.byte	91
0000a55d 44454d5f5354  14753 	.strz	"DEM_STOP_SEC_ROM_CODE "
0000a563 4f505f534543 
0000a569 5f524f4d5f43 
0000a56f 4f44452000 
0000a574 03            14754 	.byte	3
0000a575 5c            14755 	.byte	92
0000a576 1d            14756 	.byte	29
0000a577 01            14757 	.byte	1
0000a578 06            14758 	.byte	6
0000a579 44454d5f4d45  14759 	.strz	"DEM_MEMMAP_ERROR "
0000a57f 4d4d41505f45 
0000a585 52524f522000 
0000a58b 01            14760 	.byte	1
0000a58c 5e            14761 	.byte	94
0000a58d 4253575f5354  14762 	.strz	"BSW_STOP_SEC_CODE "
0000a593 4f505f534543 
0000a599 5f434f444520 
0000a59f 00 
0000a5a0 03            14763 	.byte	3
0000a5a1 5f            14764 	.byte	95
0000a5a2 1e            14765 	.byte	30
0000a5a3 01            14766 	.byte	1
0000a5a4 de08          14767 	.byte	222,8
0000a5a6 53544f505f53  14768 	.strz	"STOP_SEC_CODE "
0000a5ac 45435f434f44 
0000a5b2 452000 
0000a5b5 03            14769 	.byte	3
0000a5b6 bb09          14770 	.byte	187,9
0000a5b8 1f            14771 	.byte	31
0000a5b9 04            14772 	.byte	4
0000a5ba 04            14773 	.byte	4
0000a5bb 04            14774 	.byte	4
0000a5bc 01            14775 	.byte	1
0000a5bd 5e            14776 	.byte	94
0000a5be 44454d5f5354  14777 	.strz	"DEM_START_SEC_ROM_CODE "
0000a5c4 4152545f5345 
0000a5ca 435f524f4d5f 
0000a5d0 434f44452000 
0000a5d6 03            14778 	.byte	3
0000a5d7 5f            14779 	.byte	95
0000a5d8 1d            14780 	.byte	29
0000a5d9 01            14781 	.byte	1
0000a5da 06            14782 	.byte	6
0000a5db 44454d5f4d45  14783 	.strz	"DEM_MEMMAP_ERROR "
0000a5e1 4d4d41505f45 
0000a5e7 52524f522000 
0000a5ed 01            14784 	.byte	1
0000a5ee 51            14785 	.byte	81
0000a5ef 4253575f5354  14786 	.strz	"BSW_START_SEC_CODE "
0000a5f5 4152545f5345 
0000a5fb 435f434f4445 
0000a601 2000 
0000a603 03            14787 	.byte	3

                                                                      Page 361
                                                              C:\Users\nhuliyap\AppData\Local\Temp\gh_00002581.s
0000a604 52            14788 	.byte	82
0000a605 1e            14789 	.byte	30
0000a606 01            14790 	.byte	1
0000a607 da08          14791 	.byte	218,8
0000a609 53544152545f  14792 	.strz	"START_SEC_CODE "
0000a60f 5345435f434f 
0000a615 44452000 
0000a619 03            14793 	.byte	3
0000a61a bb09          14794 	.byte	187,9
0000a61c 1f            14795 	.byte	31
0000a61d 01            14796 	.byte	1
0000a61e f307          14797 	.byte	243,7
0000a620 434f44455f53  14798 	.strz	"CODE_SEC_OPEN "
0000a626 45435f4f5045 
0000a62c 4e2000 
0000a62f 04            14799 	.byte	4
0000a630 04            14800 	.byte	4
0000a631 01            14801 	.byte	1
0000a632 56            14802 	.byte	86
0000a633 44454d5f5741  14803 	.strz	"DEM_WAS_STARTED_SEC_ROM_CODE "
0000a639 535f53544152 
0000a63f 5445445f5345 
0000a645 435f524f4d5f 
0000a64b 434f44452000 
0000a651 04            14804 	.byte	4
0000a652 01            14805 	.byte	1
0000a653 9803          14806 	.byte	152,3
0000a655 44454d5f5354  14807 	.strz	"DEM_STOP_SEC_ROM_CODE "
0000a65b 4f505f534543 
0000a661 5f524f4d5f43 
0000a667 4f44452000 
0000a66c 03            14808 	.byte	3
0000a66d 9903          14809 	.byte	153,3
0000a66f 1d            14810 	.byte	29
0000a670 01            14811 	.byte	1
0000a671 06            14812 	.byte	6
0000a672 44454d5f4d45  14813 	.strz	"DEM_MEMMAP_ERROR "
0000a678 4d4d41505f45 
0000a67e 52524f522000 
0000a684 01            14814 	.byte	1
0000a685 5e            14815 	.byte	94
0000a686 4253575f5354  14816 	.strz	"BSW_STOP_SEC_CODE "
0000a68c 4f505f534543 
0000a692 5f434f444520 
0000a698 00 
0000a699 03            14817 	.byte	3
0000a69a 5f            14818 	.byte	95
0000a69b 1e            14819 	.byte	30
0000a69c 01            14820 	.byte	1
0000a69d de08          14821 	.byte	222,8
0000a69f 53544f505f53  14822 	.strz	"STOP_SEC_CODE "
0000a6a5 45435f434f44 
0000a6ab 452000 
0000a6ae 03            14823 	.byte	3
0000a6af bb09          14824 	.byte	187,9
0000a6b1 1f            14825 	.byte	31
0000a6b2 04            14826 	.byte	4
0000a6b3 04            14827 	.byte	4
0000a6b4 04            14828 	.byte	4
0000a6b5 01            14829 	.byte	1
0000a6b6 9d03          14830 	.byte	157,3

                                                                      Page 362
                                                              C:\Users\nhuliyap\AppData\Local\Temp\gh_00002581.s
0000a6b8 44454d5f5354  14831 	.strz	"DEM_START_SEC_RAM_CLEARED "
0000a6be 4152545f5345 
0000a6c4 435f52414d5f 
0000a6ca 434c45415245 
0000a6d0 442000 
0000a6d3 03            14832 	.byte	3
0000a6d4 9e03          14833 	.byte	158,3
0000a6d6 1d            14834 	.byte	29
0000a6d7 01            14835 	.byte	1
0000a6d8 06            14836 	.byte	6
0000a6d9 44454d5f4d45  14837 	.strz	"DEM_MEMMAP_ERROR "
0000a6df 4d4d41505f45 
0000a6e5 52524f522000 
0000a6eb 01            14838 	.byte	1
0000a6ec 0c            14839 	.byte	12
0000a6ed 4253575f5354  14840 	.strz	"BSW_START_SEC_VAR_CLEARED_UNSPECIFIED "
0000a6f3 4152545f5345 
0000a6f9 435f5641525f 
0000a6ff 434c45415245 
0000a705 445f554e5350 
0000a70b 454349464945 
0000a711 442000 
0000a714 03            14841 	.byte	3
0000a715 0d            14842 	.byte	13
0000a716 1e            14843 	.byte	30
0000a717 01            14844 	.byte	1
0000a718 42            14845 	.byte	66
0000a719 53544152545f  14846 	.strz	"START_SEC_VAR_CLEARED_UNSPECIFIED "
0000a71f 5345435f5641 
0000a725 525f434c4541 
0000a72b 5245445f554e 
0000a731 535045434946 
0000a737 4945442000 
0000a73c 03            14847 	.byte	3
0000a73d bb09          14848 	.byte	187,9
0000a73f 1f            14849 	.byte	31
0000a740 01            14850 	.byte	1
0000a741 56            14851 	.byte	86
0000a742 53544152545f  14852 	.strz	"START_SEC_VAR_ZERO_INIT_UNSPECIFIED "
0000a748 5345435f5641 
0000a74e 525f5a45524f 
0000a754 5f494e49545f 
0000a75a 554e53504543 
0000a760 494649454420 
0000a766 00 
0000a767 01            14853 	.byte	1
0000a768 840a          14854 	.byte	132,10
0000a76a 5641525f5345  14855 	.strz	"VAR_SEC_OPEN "
0000a770 435f4f50454e 
0000a776 2000 
0000a778 04            14856 	.byte	4
0000a779 04            14857 	.byte	4
0000a77a 01            14858 	.byte	1
0000a77b 11            14859 	.byte	17
0000a77c 44454d5f5741  14860 	.strz	"DEM_WAS_STARTED_SEC_RAM_CLEARED "
0000a782 535f53544152 
0000a788 5445445f5345 
0000a78e 435f52414d5f 
0000a794 434c45415245 
0000a79a 442000 
0000a79d 04            14861 	.byte	4

                                                                      Page 363
                                                              C:\Users\nhuliyap\AppData\Local\Temp\gh_00002581.s
0000a79e 01            14862 	.byte	1
0000a79f a603          14863 	.byte	166,3
0000a7a1 44454d5f5354  14864 	.strz	"DEM_STOP_SEC_RAM_CLEARED "
0000a7a7 4f505f534543 
0000a7ad 5f52414d5f43 
0000a7b3 4c4541524544 
0000a7b9 2000 
0000a7bb 03            14865 	.byte	3
0000a7bc a703          14866 	.byte	167,3
0000a7be 1d            14867 	.byte	29
0000a7bf 01            14868 	.byte	1
0000a7c0 06            14869 	.byte	6
0000a7c1 44454d5f4d45  14870 	.strz	"DEM_MEMMAP_ERROR "
0000a7c7 4d4d41505f45 
0000a7cd 52524f522000 
0000a7d3 01            14871 	.byte	1
0000a7d4 19            14872 	.byte	25
0000a7d5 4253575f5354  14873 	.strz	"BSW_STOP_SEC_VAR_CLEARED_UNSPECIFIED "
0000a7db 4f505f534543 
0000a7e1 5f5641525f43 
0000a7e7 4c4541524544 
0000a7ed 5f554e535045 
0000a7f3 434946494544 
0000a7f9 2000 
0000a7fb 03            14874 	.byte	3
0000a7fc 1a            14875 	.byte	26
0000a7fd 1e            14876 	.byte	30
0000a7fe 01            14877 	.byte	1
0000a7ff 46            14878 	.byte	70
0000a800 53544f505f53  14879 	.strz	"STOP_SEC_VAR "
0000a806 45435f564152 
0000a80c 2000 
0000a80e 03            14880 	.byte	3
0000a80f bb09          14881 	.byte	187,9
0000a811 1f            14882 	.byte	31
0000a812 04            14883 	.byte	4
0000a813 04            14884 	.byte	4
0000a814 04            14885 	.byte	4
0000a815 01            14886 	.byte	1
0000a816 a903          14887 	.byte	169,3
0000a818 44454d5f5354  14888 	.strz	"DEM_START_SEC_ROM_CODE "
0000a81e 4152545f5345 
0000a824 435f524f4d5f 
0000a82a 434f44452000 
0000a830 03            14889 	.byte	3
0000a831 aa03          14890 	.byte	170,3
0000a833 1d            14891 	.byte	29
0000a834 01            14892 	.byte	1
0000a835 06            14893 	.byte	6
0000a836 44454d5f4d45  14894 	.strz	"DEM_MEMMAP_ERROR "
0000a83c 4d4d41505f45 
0000a842 52524f522000 
0000a848 01            14895 	.byte	1
0000a849 51            14896 	.byte	81
0000a84a 4253575f5354  14897 	.strz	"BSW_START_SEC_CODE "
0000a850 4152545f5345 
0000a856 435f434f4445 
0000a85c 2000 
0000a85e 03            14898 	.byte	3
0000a85f 52            14899 	.byte	82
0000a860 1e            14900 	.byte	30

                                                                      Page 364
                                                              C:\Users\nhuliyap\AppData\Local\Temp\gh_00002581.s
0000a861 01            14901 	.byte	1
0000a862 da08          14902 	.byte	218,8
0000a864 53544152545f  14903 	.strz	"START_SEC_CODE "
0000a86a 5345435f434f 
0000a870 44452000 
0000a874 03            14904 	.byte	3
0000a875 bb09          14905 	.byte	187,9
0000a877 1f            14906 	.byte	31
0000a878 01            14907 	.byte	1
0000a879 f307          14908 	.byte	243,7
0000a87b 434f44455f53  14909 	.strz	"CODE_SEC_OPEN "
0000a881 45435f4f5045 
0000a887 4e2000 
0000a88a 04            14910 	.byte	4
0000a88b 04            14911 	.byte	4
0000a88c 01            14912 	.byte	1
0000a88d 56            14913 	.byte	86
0000a88e 44454d5f5741  14914 	.strz	"DEM_WAS_STARTED_SEC_ROM_CODE "
0000a894 535f53544152 
0000a89a 5445445f5345 
0000a8a0 435f524f4d5f 
0000a8a6 434f44452000 
0000a8ac 04            14915 	.byte	4
0000a8ad 01            14916 	.byte	1
0000a8ae bc04          14917 	.byte	188,4
0000a8b0 44454d5f5354  14918 	.strz	"DEM_STOP_SEC_ROM_CODE "
0000a8b6 4f505f534543 
0000a8bc 5f524f4d5f43 
0000a8c2 4f44452000 
0000a8c7 03            14919 	.byte	3
0000a8c8 bd04          14920 	.byte	189,4
0000a8ca 1d            14921 	.byte	29
0000a8cb 01            14922 	.byte	1
0000a8cc 06            14923 	.byte	6
0000a8cd 44454d5f4d45  14924 	.strz	"DEM_MEMMAP_ERROR "
0000a8d3 4d4d41505f45 
0000a8d9 52524f522000 
0000a8df 01            14925 	.byte	1
0000a8e0 5e            14926 	.byte	94
0000a8e1 4253575f5354  14927 	.strz	"BSW_STOP_SEC_CODE "
0000a8e7 4f505f534543 
0000a8ed 5f434f444520 
0000a8f3 00 
0000a8f4 03            14928 	.byte	3
0000a8f5 5f            14929 	.byte	95
0000a8f6 1e            14930 	.byte	30
0000a8f7 01            14931 	.byte	1
0000a8f8 de08          14932 	.byte	222,8
0000a8fa 53544f505f53  14933 	.strz	"STOP_SEC_CODE "
0000a900 45435f434f44 
0000a906 452000 
0000a909 03            14934 	.byte	3
0000a90a bb09          14935 	.byte	187,9
0000a90c 1f            14936 	.byte	31
0000a90d 04            14937 	.byte	4
0000a90e 04            14938 	.byte	4
0000a90f 04            14939 	.byte	4
0000a910 01            14940 	.byte	1
0000a911 bf04          14941 	.byte	191,4
0000a913 44454d5f5354  14942 	.strz	"DEM_START_SEC_ROM_CODE "
0000a919 4152545f5345 

                                                                      Page 365
                                                              C:\Users\nhuliyap\AppData\Local\Temp\gh_00002581.s
0000a91f 435f524f4d5f 
0000a925 434f44452000 
0000a92b 03            14943 	.byte	3
0000a92c c004          14944 	.byte	192,4
0000a92e 1d            14945 	.byte	29
0000a92f 01            14946 	.byte	1
0000a930 06            14947 	.byte	6
0000a931 44454d5f4d45  14948 	.strz	"DEM_MEMMAP_ERROR "
0000a937 4d4d41505f45 
0000a93d 52524f522000 
0000a943 01            14949 	.byte	1
0000a944 51            14950 	.byte	81
0000a945 4253575f5354  14951 	.strz	"BSW_START_SEC_CODE "
0000a94b 4152545f5345 
0000a951 435f434f4445 
0000a957 2000 
0000a959 03            14952 	.byte	3
0000a95a 52            14953 	.byte	82
0000a95b 1e            14954 	.byte	30
0000a95c 01            14955 	.byte	1
0000a95d da08          14956 	.byte	218,8
0000a95f 53544152545f  14957 	.strz	"START_SEC_CODE "
0000a965 5345435f434f 
0000a96b 44452000 
0000a96f 03            14958 	.byte	3
0000a970 bb09          14959 	.byte	187,9
0000a972 1f            14960 	.byte	31
0000a973 01            14961 	.byte	1
0000a974 f307          14962 	.byte	243,7
0000a976 434f44455f53  14963 	.strz	"CODE_SEC_OPEN "
0000a97c 45435f4f5045 
0000a982 4e2000 
0000a985 04            14964 	.byte	4
0000a986 04            14965 	.byte	4
0000a987 01            14966 	.byte	1
0000a988 56            14967 	.byte	86
0000a989 44454d5f5741  14968 	.strz	"DEM_WAS_STARTED_SEC_ROM_CODE "
0000a98f 535f53544152 
0000a995 5445445f5345 
0000a99b 435f524f4d5f 
0000a9a1 434f44452000 
0000a9a7 04            14969 	.byte	4
0000a9a8 01            14970 	.byte	1
0000a9a9 9e05          14971 	.byte	158,5
0000a9ab 44454d5f5354  14972 	.strz	"DEM_STOP_SEC_ROM_CODE "
0000a9b1 4f505f534543 
0000a9b7 5f524f4d5f43 
0000a9bd 4f44452000 
0000a9c2 03            14973 	.byte	3
0000a9c3 9f05          14974 	.byte	159,5
0000a9c5 1d            14975 	.byte	29
0000a9c6 01            14976 	.byte	1
0000a9c7 06            14977 	.byte	6
0000a9c8 44454d5f4d45  14978 	.strz	"DEM_MEMMAP_ERROR "
0000a9ce 4d4d41505f45 
0000a9d4 52524f522000 
0000a9da 01            14979 	.byte	1
0000a9db 5e            14980 	.byte	94
0000a9dc 4253575f5354  14981 	.strz	"BSW_STOP_SEC_CODE "
0000a9e2 4f505f534543 
0000a9e8 5f434f444520 

                                                                      Page 366
                                                              C:\Users\nhuliyap\AppData\Local\Temp\gh_00002581.s
0000a9ee 00 
0000a9ef 03            14982 	.byte	3
0000a9f0 5f            14983 	.byte	95
0000a9f1 1e            14984 	.byte	30
0000a9f2 01            14985 	.byte	1
0000a9f3 de08          14986 	.byte	222,8
0000a9f5 53544f505f53  14987 	.strz	"STOP_SEC_CODE "
0000a9fb 45435f434f44 
0000aa01 452000 
0000aa04 03            14988 	.byte	3
0000aa05 bb09          14989 	.byte	187,9
0000aa07 1f            14990 	.byte	31
0000aa08 04            14991 	.byte	4
0000aa09 04            14992 	.byte	4
0000aa0a 04            14993 	.byte	4
0000aa0b 04            14994 	.byte	4
0000aa0c 00            14995 	.byte	0
                       14996 	.section	.debug_abbrev
000001ad 00            14997 	.byte	0
                       14998 	.section	.debug_info
                       14999 .Ldw_end:
                       15000 .rh850_flags REGMODE32,DATA_ALIGN8,GP_FIX,EP_NONFIX,TP_FIX,REG2_RESERVE,G3K,GHS_MISALIGN,SDA_EXTRA_REGS_0
