                                                                      Page 1
                                                              C:\Users\nhuliyap\AppData\Local\Temp\gh_00006u41.s
Command Line: C:\ghs\comp_201517\ease850.exe -w -elf -b0 -I../source/common -I../source/ProjectCompiler -I../source/ProjectCfg -I../source/SwcApplTpms -I../source/SwcApplEcuM -I../source/SwcServiceBswM -I../source/SwcServiceEcuM -I../source/SwcServiceNvM -I../source/SwcServiceOs -I../source/SwcServiceStartUp -I../source/McalAdc -I../source/McalDio -I../source/McalGpt -I../source/McalMcu -I../source/McalWdg -I../source/wrappers -I../source/wrappers/McalAta -I../source/McalLin -I../source/McalCan -I../source/wrappers/OS -I../source/McalFls -I../source/EcuabFee -I../source/EcuabMemIf -I../source/wrappers/VStdLib -I../source/wrappers/Crc -I../source/wrappers/FBL_APPL -I../source/wrappers/NVM_MANAGER -I../source/wrappers/DEM_MANAGER -I../source/wrappers/RDC_MANAGER -I../source/wrappers/ENV_MANAGER -I../source/wrappers/SYS_MANAGER -I../source/wrappers/EcuabCanIf -I../source/EcuabCanTrcv -I../source/wrappers/SwcServiceCanSM -I../source/wrappers/SwcServiceCanTp -I../source/wrappers/SwcServiceCanTp_PreCompile -I../source/wrappers/SwcServiceCom -I../source/wrappers/SwcServiceComM -I../source/wrappers/SwcServiceDcm -I../source/wrappers/SwcServicePduR -I../source/wrappers/SwcServiceEcuM -I../source/wrappers/Bfx -I../source/wrappers/SwcServiceDem -I../source/SwcServiceCom -I../source/SwcServiceDet -I../source/SwcServiceFiM -I../source/SwcServicePduR -I../source/SwcServiceSchM -I../source/wrappers/LibAutosarDiag -I../source/wrappers/rba_BswSrv -IC:\ghs\comp_201517\lib\rh850 -cg_underscore -cpu=rh850g3k -no_v850_simd -rh850_fpsimd=none -nomacro -patch_dbo=C:\_ECU2\ECU_Rivian_A1\Target\repo_projects\pRealEcu\cR_R2023.09.15\make\output\objects\ProductionFlashInterface.dbo -source=ProductionFlashInterface.c -o output\objects\gh_00006u41.o -list=output\list\ProductionFlashInterface.lst C:\Users\nhuliyap\AppData\Local\Temp\gh_00006u41.s 
Original File: C:\Users\nhuliyap\AppData\Local\Temp\gh_00006u41.s
Source File: ProductionFlashInterface.c
Directory: C:\_ECU2\ECU_Rivian_A1\Target\repo_projects\pRealEcu\cR_R2023.09.15\make
Host OS: Windows
EASE: Copyright (C) 1983-2015 Green Hills Software.  All Rights Reserved.
Release: Compiler v2015.1.7
Build Directory: [Directory] BTOWORKER6:c:/build_2015_1_bto/2015-10-21.2100-2015_1_bto/win32-comp-ecom
Revision: [VCInfo] http://toolsvc/branches/release-branch-70-bto/src@544153 (built by build)
Revision Date: Thu Oct 22 07:50:13 2015

Release Date: Thu Oct 22 09:32:32 2015

                           1 --Driver Command: ccv850
                           2 --		../source/wrappers/NVM_MANAGER/ProductionFlashInterface.c
                           3 --		-cpu=rh850 -fhard -ignore_callt_state_in_interrupts -large_sda
                           4 --		-misalign_pack -nofarcalls -nofloatio -no_callt -Ogeneral
                           5 --		-Onounroll -prepare_dispose -registermode=32 -reserve_r2 -sda=0
                           6 --		-shorten_loads -Wshadow --brief_diagnostics --no_commons
                           7 --		--no_wrap_diagnostics --prototype_errors --short_enum -list -G
                           8 --		-dual_debug -dwarf -X5523 -lnk=-no_xda_modifications -D
                           9 --		NOT_READY_FOR_TESTING_OR_DEPLOYMENT -D IBTCM_SW_ANPASSUNGEN -D
                          10 --		BUILD_RIVIAN -c -inline_prologue -I../source/common
                          11 --		-I../source/ProjectCompiler -I../source/ProjectCfg
                          12 --		-I../source/SwcApplTpms -I../source/SwcApplEcuM
                          13 --		-I../source/SwcServiceBswM -I../source/SwcServiceEcuM
                          14 --		-I../source/SwcServiceNvM -I../source/SwcServiceOs
                          15 --		-I../source/SwcServiceStartUp -I../source/McalAdc
                          16 --		-I../source/McalDio -I../source/McalGpt -I../source/McalMcu
                          17 --		-I../source/McalWdg -I../source/wrappers
                          18 --		-I../source/wrappers/McalAta -I../source/McalLin
                          19 --		-I../source/McalCan -I../source/wrappers/OS -I../source/McalFls
                          20 --		-I../source/EcuabFee -I../source/EcuabMemIf
                          21 --		-I../source/wrappers/VStdLib -I../source/wrappers
                          22 --		-I../source/wrappers/Crc -I../source/wrappers/FBL_APPL
                          23 --		-I../source/wrappers/NVM_MANAGER -I../source/wrappers/DEM_MANAGER
                          24 --		-I../source/wrappers/RDC_MANAGER -I../source/wrappers/ENV_MANAGER
                          25 --		-I../source/wrappers/SYS_MANAGER -I../source/wrappers/EcuabCanIf
                          26 --		-I../source/EcuabCanTrcv -I../source/wrappers/SwcServiceCanSM
                          27 --		-I../source/wrappers/SwcServiceCanTp
                          28 --		-I../source/wrappers/SwcServiceCanTp_PreCompile
                          29 --		-I../source/wrappers/SwcServiceCom
                          30 --		-I../source/wrappers/SwcServiceComM
                          31 --		-I../source/wrappers/SwcServiceDcm
                          32 --		-I../source/wrappers/SwcServicePduR
                          33 --		-I../source/wrappers/SwcServiceEcuM -I../source/wrappers/Bfx
                          34 --		-I../source/wrappers/SwcServiceDem -I../source/SwcServiceCom
                          35 --		-I../source/SwcServiceDet -I../source/SwcServiceFiM
                          36 --		-I../source/SwcServicePduR -I../source/SwcServiceSchM
                          37 --		-I../source/wrappers/LibAutosarDiag
                          38 --		-I../source/wrappers/rba_BswSrv -object_dir=output/objects
                          39 --		-list_dir=output/list
                          40 --Source File:   ../source/wrappers/NVM_MANAGER/ProductionFlashInterface.c
                          41 --Directory:     
                          42 --		C:\_ECU2\ECU_Rivian_A1\Target\repo_projects\pRealEcu\cR_R2023.09.15\make
                          43 --Compile Date:  Fri Sep 15 15:30:14 2023
                          44 --Host OS:       Win32
                          45 --Version:       C-RH850 2015.1.7 RELEASE VERSION
                          46 --Release:       Compiler v2015.1.7
                          47 --Revision Date: Thu Oct 22 08:06:12 2015
                          48 --Release Date:  Thu Oct 22 09:34:32 2015
                          49 -- ecom  -g -w -OM
                          50 	.text

                                                                      Page 2
                                                              C:\Users\nhuliyap\AppData\Local\Temp\gh_00006u41.s
                          51 ..bof.C.3A.5C_ECU2.5CECU_Rivian_A1.5CTarget.5Crepo_projects.5CpRealEcu.5CcR_R2023.2E09.2E15.5Cmake.5Coutput.5Cobjects.5CProductionFlashInterface...43.3A.5C_ECU2.5CECU_Rivian_A1.5CTarget.5Crepo_projects.5CpRealEcu.5CcR_R2023.2E09.2E15.5Cmake..65045C66..0::
                          52 ..gh.beginasm.0:
                          53 	.type	..gh.beginasm.0,@object
                          54 	.size	..gh.beginasm.0,0
                          55 
                          56 
                          57 
                          58 
                          59 
                          60 
                          61 
                          62     .set  regframe, 21
                          63 
                          64 
                          65     .set  framesize, regframe*4
                          66 
                          67 ..gh.endasm.1:
                          68 	.type	..gh.endasm.1,@object
                          69 	.size	..gh.endasm.1,0
                          70 	.text
                          71 	.align	2
                          72 ..gh.f.f.1.e.2:
                          73 	.type	..gh.f.f.1.e.2,@object
                          74 	.size	..gh.f.f.1.e.2,0
                          75 	.global	_PRODFLASH__GetAddressOfMember..C.3A.5C_ECU2.5CECU_Rivian_A1.5CTarget.5Crepo_projects.5CpRealEcu.5CcR_R2023.2E09.2E15.5Cmake.5Coutput.5Cobjects.5CProductionFlashInterface.
                          76 _PRODFLASH__GetAddressOfMember..C.3A.5C_ECU2.5CECU_Rivian_A1.5CTarget.5Crepo_projects.5CpRealEcu.5CcR_R2023.2E09.2E15.5Cmake.5Coutput.5Cobjects.5CProductionFlashInterface.:
                          77 _PRODFLASH__GetAddressOfMember:
00000000 a600             78 	sxb	r6
                          79 --	    .bf
                          80 .LDW01:
00000002 0052             81 	mov	0,r10
00000004 0606deff         82 	addi	-34,r6,zero
00000008 e1076501*        83 	bl	.L2
0000000c 320600000000*    84 	mov	_DCM__UN_ProductionDataFlash,r18
00000012 c232             85 	shl	2,r6
00000014 e60600000000*    86 	jmp	.L242[r6]
                          87 .L242:
0000001a 80078800*        88 	jr	.L6
0000001e 80078800*        89 	jr	.L7
00000022 80078a00*        90 	jr	.L8
00000026 80078c00*        91 	jr	.L9
0000002a 80078e00*        92 	jr	.L10
0000002e 80079000*        93 	jr	.L11
00000032 80079200*        94 	jr	.L12
00000036 80079400*        95 	jr	.L13
0000003a 80079600*        96 	jr	.L14
0000003e 80079800*        97 	jr	.L15
00000042 80079a00*        98 	jr	.L16
00000046 80079c00*        99 	jr	.L17
0000004a 80079e00*       100 	jr	.L18
0000004e 8007a000*       101 	jr	.L19
00000052 8007a200*       102 	jr	.L20
00000056 8007a400*       103 	jr	.L21
0000005a 8007a600*       104 	jr	.L22
0000005e 8007a800*       105 	jr	.L23
00000062 8007aa00*       106 	jr	.L24
00000066 8007ac00*       107 	jr	.L25
0000006a 8007ae00*       108 	jr	.L26
0000006e 8007b000*       109 	jr	.L27
00000072 8007b200*       110 	jr	.L28
00000076 8007b400*       111 	jr	.L29

                                                                      Page 3
                                                              C:\Users\nhuliyap\AppData\Local\Temp\gh_00006u41.s
0000007a 8007b600*       112 	jr	.L30
0000007e 8007b800*       113 	jr	.L31
00000082 8007ba00*       114 	jr	.L32
00000086 8007bc00*       115 	jr	.L33
0000008a 8007be00*       116 	jr	.L34
0000008e 8007c000*       117 	jr	.L35
00000092 8007c200*       118 	jr	.L36
00000096 8007c400*       119 	jr	.L37
0000009a 8007c600*       120 	jr	.L38
0000009e 8007c800*       121 	jr	.L39
                         122 .L6:
                         123 --line189
                         124 ..lin.C.3A.5C_ECU2.5CECU_Rivian_A1.5CTarget.5Crepo_projects.5CpRealEcu.5CcR_R2023.2E09.2E15.5Cmake.5Coutput.5Cobjects.5CProductionFlashInterface.1::
                         125 .LDWlin1:
000000a2 1250            126 	mov	r18,r10
000000a4 7f00            127 	jmp	[lp]
                         128 .L7:
                         129 --line192
                         130 ..lin.C.3A.5C_ECU2.5CECU_Rivian_A1.5CTarget.5Crepo_projects.5CpRealEcu.5CcR_R2023.2E09.2E15.5Cmake.5Coutput.5Cobjects.5CProductionFlashInterface.2::
                         131 .LDWlin2:
000000a6 12561000        132 	addi	16,r18,r10
000000aa 7f00            133 	jmp	[lp]
                         134 .L8:
                         135 --line195
                         136 ..lin.C.3A.5C_ECU2.5CECU_Rivian_A1.5CTarget.5Crepo_projects.5CpRealEcu.5CcR_R2023.2E09.2E15.5Cmake.5Coutput.5Cobjects.5CProductionFlashInterface.3::
                         137 .LDWlin3:
000000ac 12561a00        138 	addi	26,r18,r10
000000b0 7f00            139 	jmp	[lp]
                         140 .L9:
                         141 --line198
                         142 ..lin.C.3A.5C_ECU2.5CECU_Rivian_A1.5CTarget.5Crepo_projects.5CpRealEcu.5CcR_R2023.2E09.2E15.5Cmake.5Coutput.5Cobjects.5CProductionFlashInterface.4::
                         143 .LDWlin4:
000000b2 12562400        144 	addi	36,r18,r10
000000b6 7f00            145 	jmp	[lp]
                         146 .L10:
                         147 --line201
                         148 ..lin.C.3A.5C_ECU2.5CECU_Rivian_A1.5CTarget.5Crepo_projects.5CpRealEcu.5CcR_R2023.2E09.2E15.5Cmake.5Coutput.5Cobjects.5CProductionFlashInterface.5::
                         149 .LDWlin5:
000000b8 12562700        150 	addi	39,r18,r10
000000bc 7f00            151 	jmp	[lp]
                         152 .L11:
                         153 --line204
                         154 ..lin.C.3A.5C_ECU2.5CECU_Rivian_A1.5CTarget.5Crepo_projects.5CpRealEcu.5CcR_R2023.2E09.2E15.5Cmake.5Coutput.5Cobjects.5CProductionFlashInterface.6::
                         155 .LDWlin6:
000000be 12562a00        156 	addi	42,r18,r10
000000c2 7f00            157 	jmp	[lp]
                         158 .L12:
                         159 --line207
                         160 ..lin.C.3A.5C_ECU2.5CECU_Rivian_A1.5CTarget.5Crepo_projects.5CpRealEcu.5CcR_R2023.2E09.2E15.5Cmake.5Coutput.5Cobjects.5CProductionFlashInterface.7::
                         161 .LDWlin7:
000000c4 12562d00        162 	addi	45,r18,r10
000000c8 7f00            163 	jmp	[lp]
                         164 .L13:
                         165 --line210
                         166 ..lin.C.3A.5C_ECU2.5CECU_Rivian_A1.5CTarget.5Crepo_projects.5CpRealEcu.5CcR_R2023.2E09.2E15.5Cmake.5Coutput.5Cobjects.5CProductionFlashInterface.8::
                         167 .LDWlin8:
000000ca 12563700        168 	addi	55,r18,r10
000000ce 7f00            169 	jmp	[lp]
                         170 .L14:
                         171 --line213
                         172 ..lin.C.3A.5C_ECU2.5CECU_Rivian_A1.5CTarget.5Crepo_projects.5CpRealEcu.5CcR_R2023.2E09.2E15.5Cmake.5Coutput.5Cobjects.5CProductionFlashInterface.9::

                                                                      Page 4
                                                              C:\Users\nhuliyap\AppData\Local\Temp\gh_00006u41.s
                         173 .LDWlin9:
000000d0 12564100        174 	addi	65,r18,r10
000000d4 7f00            175 	jmp	[lp]
                         176 .L15:
                         177 --line216
                         178 ..lin.C.3A.5C_ECU2.5CECU_Rivian_A1.5CTarget.5Crepo_projects.5CpRealEcu.5CcR_R2023.2E09.2E15.5Cmake.5Coutput.5Cobjects.5CProductionFlashInterface.10::
                         179 .LDWlin10:
000000d6 12564300        180 	addi	67,r18,r10
000000da 7f00            181 	jmp	[lp]
                         182 .L16:
                         183 --line219
                         184 ..lin.C.3A.5C_ECU2.5CECU_Rivian_A1.5CTarget.5Crepo_projects.5CpRealEcu.5CcR_R2023.2E09.2E15.5Cmake.5Coutput.5Cobjects.5CProductionFlashInterface.11::
                         185 .LDWlin11:
000000dc 12564900        186 	addi	73,r18,r10
000000e0 7f00            187 	jmp	[lp]
                         188 .L17:
                         189 --line222
                         190 ..lin.C.3A.5C_ECU2.5CECU_Rivian_A1.5CTarget.5Crepo_projects.5CpRealEcu.5CcR_R2023.2E09.2E15.5Cmake.5Coutput.5Cobjects.5CProductionFlashInterface.12::
                         191 .LDWlin12:
000000e2 12565200        192 	addi	82,r18,r10
000000e6 7f00            193 	jmp	[lp]
                         194 .L18:
                         195 --line225
                         196 ..lin.C.3A.5C_ECU2.5CECU_Rivian_A1.5CTarget.5Crepo_projects.5CpRealEcu.5CcR_R2023.2E09.2E15.5Cmake.5Coutput.5Cobjects.5CProductionFlashInterface.13::
                         197 .LDWlin13:
000000e8 12566600        198 	addi	102,r18,r10
000000ec 7f00            199 	jmp	[lp]
                         200 .L19:
                         201 --line228
                         202 ..lin.C.3A.5C_ECU2.5CECU_Rivian_A1.5CTarget.5Crepo_projects.5CpRealEcu.5CcR_R2023.2E09.2E15.5Cmake.5Coutput.5Cobjects.5CProductionFlashInterface.14::
                         203 .LDWlin14:
000000ee 12566900        204 	addi	105,r18,r10
000000f2 7f00            205 	jmp	[lp]
                         206 .L20:
                         207 --line231
                         208 ..lin.C.3A.5C_ECU2.5CECU_Rivian_A1.5CTarget.5Crepo_projects.5CpRealEcu.5CcR_R2023.2E09.2E15.5Cmake.5Coutput.5Cobjects.5CProductionFlashInterface.15::
                         209 .LDWlin15:
000000f4 12567d00        210 	addi	125,r18,r10
000000f8 7f00            211 	jmp	[lp]
                         212 .L21:
                         213 --line234
                         214 ..lin.C.3A.5C_ECU2.5CECU_Rivian_A1.5CTarget.5Crepo_projects.5CpRealEcu.5CcR_R2023.2E09.2E15.5Cmake.5Coutput.5Cobjects.5CProductionFlashInterface.16::
                         215 .LDWlin16:
000000fa 12568000        216 	addi	128,r18,r10
000000fe 7f00            217 	jmp	[lp]
                         218 .L22:
                         219 --line237
                         220 ..lin.C.3A.5C_ECU2.5CECU_Rivian_A1.5CTarget.5Crepo_projects.5CpRealEcu.5CcR_R2023.2E09.2E15.5Cmake.5Coutput.5Cobjects.5CProductionFlashInterface.17::
                         221 .LDWlin17:
00000100 12569100        222 	addi	145,r18,r10
00000104 7f00            223 	jmp	[lp]
                         224 .L23:
                         225 --line240
                         226 ..lin.C.3A.5C_ECU2.5CECU_Rivian_A1.5CTarget.5Crepo_projects.5CpRealEcu.5CcR_R2023.2E09.2E15.5Cmake.5Coutput.5Cobjects.5CProductionFlashInterface.18::
                         227 .LDWlin18:
00000106 12569200        228 	addi	146,r18,r10
0000010a 7f00            229 	jmp	[lp]
                         230 .L24:
                         231 --line243
                         232 ..lin.C.3A.5C_ECU2.5CECU_Rivian_A1.5CTarget.5Crepo_projects.5CpRealEcu.5CcR_R2023.2E09.2E15.5Cmake.5Coutput.5Cobjects.5CProductionFlashInterface.19::
                         233 .LDWlin19:

                                                                      Page 5
                                                              C:\Users\nhuliyap\AppData\Local\Temp\gh_00006u41.s
0000010c 12569300        234 	addi	147,r18,r10
00000110 7f00            235 	jmp	[lp]
                         236 .L25:
                         237 --line246
                         238 ..lin.C.3A.5C_ECU2.5CECU_Rivian_A1.5CTarget.5Crepo_projects.5CpRealEcu.5CcR_R2023.2E09.2E15.5Cmake.5Coutput.5Cobjects.5CProductionFlashInterface.20::
                         239 .LDWlin20:
00000112 12569500        240 	addi	149,r18,r10
00000116 7f00            241 	jmp	[lp]
                         242 .L26:
                         243 --line249
                         244 ..lin.C.3A.5C_ECU2.5CECU_Rivian_A1.5CTarget.5Crepo_projects.5CpRealEcu.5CcR_R2023.2E09.2E15.5Cmake.5Coutput.5Cobjects.5CProductionFlashInterface.21::
                         245 .LDWlin21:
00000118 12569600        246 	addi	150,r18,r10
0000011c 7f00            247 	jmp	[lp]
                         248 .L27:
                         249 --line252
                         250 ..lin.C.3A.5C_ECU2.5CECU_Rivian_A1.5CTarget.5Crepo_projects.5CpRealEcu.5CcR_R2023.2E09.2E15.5Cmake.5Coutput.5Cobjects.5CProductionFlashInterface.22::
                         251 .LDWlin22:
0000011e 12569700        252 	addi	151,r18,r10
00000122 7f00            253 	jmp	[lp]
                         254 .L28:
                         255 --line255
                         256 ..lin.C.3A.5C_ECU2.5CECU_Rivian_A1.5CTarget.5Crepo_projects.5CpRealEcu.5CcR_R2023.2E09.2E15.5Cmake.5Coutput.5Cobjects.5CProductionFlashInterface.23::
                         257 .LDWlin23:
00000124 12569900        258 	addi	153,r18,r10
00000128 7f00            259 	jmp	[lp]
                         260 .L29:
                         261 --line258
                         262 ..lin.C.3A.5C_ECU2.5CECU_Rivian_A1.5CTarget.5Crepo_projects.5CpRealEcu.5CcR_R2023.2E09.2E15.5Cmake.5Coutput.5Cobjects.5CProductionFlashInterface.24::
                         263 .LDWlin24:
0000012a 1256bc00        264 	addi	188,r18,r10
0000012e 7f00            265 	jmp	[lp]
                         266 .L30:
                         267 --line261
                         268 ..lin.C.3A.5C_ECU2.5CECU_Rivian_A1.5CTarget.5Crepo_projects.5CpRealEcu.5CcR_R2023.2E09.2E15.5Cmake.5Coutput.5Cobjects.5CProductionFlashInterface.25::
                         269 .LDWlin25:
00000130 1256ce00        270 	addi	206,r18,r10
00000134 7f00            271 	jmp	[lp]
                         272 .L31:
                         273 --line264
                         274 ..lin.C.3A.5C_ECU2.5CECU_Rivian_A1.5CTarget.5Crepo_projects.5CpRealEcu.5CcR_R2023.2E09.2E15.5Cmake.5Coutput.5Cobjects.5CProductionFlashInterface.26::
                         275 .LDWlin26:
00000136 1256f100        276 	addi	241,r18,r10
0000013a 7f00            277 	jmp	[lp]
                         278 .L32:
                         279 --line267
                         280 ..lin.C.3A.5C_ECU2.5CECU_Rivian_A1.5CTarget.5Crepo_projects.5CpRealEcu.5CcR_R2023.2E09.2E15.5Cmake.5Coutput.5Cobjects.5CProductionFlashInterface.27::
                         281 .LDWlin27:
0000013c 12560301        282 	addi	259,r18,r10
00000140 7f00            283 	jmp	[lp]
                         284 .L33:
                         285 --line270
                         286 ..lin.C.3A.5C_ECU2.5CECU_Rivian_A1.5CTarget.5Crepo_projects.5CpRealEcu.5CcR_R2023.2E09.2E15.5Cmake.5Coutput.5Cobjects.5CProductionFlashInterface.28::
                         287 .LDWlin28:
00000142 12561301        288 	addi	275,r18,r10
00000146 7f00            289 	jmp	[lp]
                         290 .L34:
                         291 --line273
                         292 ..lin.C.3A.5C_ECU2.5CECU_Rivian_A1.5CTarget.5Crepo_projects.5CpRealEcu.5CcR_R2023.2E09.2E15.5Cmake.5Coutput.5Cobjects.5CProductionFlashInterface.29::
                         293 .LDWlin29:
00000148 12561701        294 	addi	279,r18,r10

                                                                      Page 6
                                                              C:\Users\nhuliyap\AppData\Local\Temp\gh_00006u41.s
0000014c 7f00            295 	jmp	[lp]
                         296 .L35:
                         297 --line276
                         298 ..lin.C.3A.5C_ECU2.5CECU_Rivian_A1.5CTarget.5Crepo_projects.5CpRealEcu.5CcR_R2023.2E09.2E15.5Cmake.5Coutput.5Cobjects.5CProductionFlashInterface.30::
                         299 .LDWlin30:
0000014e 12561801        300 	addi	280,r18,r10
00000152 7f00            301 	jmp	[lp]
                         302 .L36:
                         303 --line279
                         304 ..lin.C.3A.5C_ECU2.5CECU_Rivian_A1.5CTarget.5Crepo_projects.5CpRealEcu.5CcR_R2023.2E09.2E15.5Cmake.5Coutput.5Cobjects.5CProductionFlashInterface.31::
                         305 .LDWlin31:
00000154 12564001        306 	addi	320,r18,r10
00000158 7f00            307 	jmp	[lp]
                         308 .L37:
                         309 --line282
                         310 ..lin.C.3A.5C_ECU2.5CECU_Rivian_A1.5CTarget.5Crepo_projects.5CpRealEcu.5CcR_R2023.2E09.2E15.5Cmake.5Coutput.5Cobjects.5CProductionFlashInterface.32::
                         311 .LDWlin32:
0000015a 12564201        312 	addi	322,r18,r10
0000015e 7f00            313 	jmp	[lp]
                         314 .L38:
                         315 --line285
                         316 ..lin.C.3A.5C_ECU2.5CECU_Rivian_A1.5CTarget.5Crepo_projects.5CpRealEcu.5CcR_R2023.2E09.2E15.5Cmake.5Coutput.5Cobjects.5CProductionFlashInterface.33::
                         317 .LDWlin33:
00000160 1256c007        318 	addi	1984,r18,r10
00000164 7f00            319 	jmp	[lp]
                         320 .L39:
                         321 --line288
                         322 ..lin.C.3A.5C_ECU2.5CECU_Rivian_A1.5CTarget.5Crepo_projects.5CpRealEcu.5CcR_R2023.2E09.2E15.5Cmake.5Coutput.5Cobjects.5CProductionFlashInterface.34::
                         323 .LDWlin34:
00000166 1256d007        324 	addi	2000,r18,r10
0000016a 7f00            325 	jmp	[lp]
                         326 .L2:
                         327 --	    .ef
                         328 .LDW11:
                         329 --line293
                         330 ..lin.C.3A.5C_ECU2.5CECU_Rivian_A1.5CTarget.5Crepo_projects.5CpRealEcu.5CcR_R2023.2E09.2E15.5Cmake.5Coutput.5Cobjects.5CProductionFlashInterface.35::
                         331 .LDWlin35:
0000016c 7f00            332 	jmp	[lp]
                         333 ___ghs_eofn_PRODFLASH__GetAddressOfMember:
                         334 	.type	_PRODFLASH__GetAddressOfMember,@function
                         335 	.size	_PRODFLASH__GetAddressOfMember,.-_PRODFLASH__GetAddressOfMember
                         336 	.type	_PRODFLASH__GetAddressOfMember..C.3A.5C_ECU2.5CECU_Rivian_A1.5CTarget.5Crepo_projects.5CpRealEcu.5CcR_R2023.2E09.2E15.5Cmake.5Coutput.5Cobjects.5CProductionFlashInterface.,@function
                         337 	.size	_PRODFLASH__GetAddressOfMember..C.3A.5C_ECU2.5CECU_Rivian_A1.5CTarget.5Crepo_projects.5CpRealEcu.5CcR_R2023.2E09.2E15.5Cmake.5Coutput.5Cobjects.5CProductionFlashInterface.,.-_PRODFLASH__GetAddressOfMember..C.3A.5C_ECU2.5CECU_Rivian_A1.5CTarget.5Crepo_projects.5CpRealEcu.5CcR_R2023.2E09.2E15.5Cmake.5Coutput.5Cobjects.5CProductionFlashInterface.
                         338 	.align	2
                         339 --_U32_AddressOfMember	r10	local
                         340 
                         341 --_EN_Member	r6	param
                         342 
                         343 	.section ".bss","awb"
                         344 .L240:
                         345 	.type	.L240,@object
                         346 	.size	.L240,0
                         347 	.section ".production_data","awb"
                         348 	.align	4
                         349 	.global	_DCM__UN_ProductionDataFlash..C.3A.5C_ECU2.5CECU_Rivian_A1.5CTarget.5Crepo_projects.5CpRealEcu.5CcR_R2023.2E09.2E15.5Cmake.5Coutput.5Cobjects.5CProductionFlashInterface.
                         350 _DCM__UN_ProductionDataFlash..C.3A.5C_ECU2.5CECU_Rivian_A1.5CTarget.5Crepo_projects.5CpRealEcu.5CcR_R2023.2E09.2E15.5Cmake.5Coutput.5Cobjects.5CProductionFlashInterface.:
00000000 000000000000    351 _DCM__UN_ProductionDataFlash:	.space	2048
00000006 000000000000 
0000000c 000000000000 
00000012 000000000000 
00000018 000000000000 

                                                                      Page 7
                                                              C:\Users\nhuliyap\AppData\Local\Temp\gh_00006u41.s
0000001e 000000000000 
00000024 000000000000 
0000002a 000000000000 
00000030 000000000000 
00000036 000000000000 
0000003c 000000000000 
00000042 000000000000 
00000048 000000000000 
0000004e 000000000000 
00000054 000000000000 
0000005a 000000000000 
00000060 000000000000 
00000066 000000000000 
0000006c 000000000000 
00000072 000000000000 
00000078 000000000000 
0000007e 000000000000 
00000084 000000000000 
0000008a 000000000000 
00000090 000000000000 
00000096 000000000000 
0000009c 000000000000 
000000a2 000000000000 
000000a8 000000000000 
000000ae 000000000000 
000000b4 000000000000 
000000ba 000000000000 
000000c0 000000000000 
000000c6 000000000000 
000000cc 000000000000 
000000d2 000000000000 
000000d8 000000000000 
000000de 000000000000 
000000e4 000000000000 
000000ea 000000000000 
000000f0 000000000000 
000000f6 000000000000 
000000fc 00000000 
                         352 	.type	_DCM__UN_ProductionDataFlash..C.3A.5C_ECU2.5CECU_Rivian_A1.5CTarget.5Crepo_projects.5CpRealEcu.5CcR_R2023.2E09.2E15.5Cmake.5Coutput.5Cobjects.5CProductionFlashInterface.,@object
                         353 	.size	_DCM__UN_ProductionDataFlash..C.3A.5C_ECU2.5CECU_Rivian_A1.5CTarget.5Crepo_projects.5CpRealEcu.5CcR_R2023.2E09.2E15.5Cmake.5Coutput.5Cobjects.5CProductionFlashInterface.,2048
                         354 	.type	_DCM__UN_ProductionDataFlash,@object
                         355 	.size	_DCM__UN_ProductionDataFlash,2048
                         356 	.data
                         357 	.ghsnote jtable,2097156,.L242,.L242,.L242,34
                         358 	.text
                         359 	.align	2
                         360 	.align	2
                         361 ..gh.f.f.1.e.3:
                         362 	.type	..gh.f.f.1.e.3,@object
                         363 	.size	..gh.f.f.1.e.3,0
                         364 	.global	_PRODFLASH__GetSizeOfMember..C.3A.5C_ECU2.5CECU_Rivian_A1.5CTarget.5Crepo_projects.5CpRealEcu.5CcR_R2023.2E09.2E15.5Cmake.5Coutput.5Cobjects.5CProductionFlashInterface.
                         365 _PRODFLASH__GetSizeOfMember..C.3A.5C_ECU2.5CECU_Rivian_A1.5CTarget.5Crepo_projects.5CpRealEcu.5CcR_R2023.2E09.2E15.5Cmake.5Coutput.5Cobjects.5CProductionFlashInterface.:
                         366 _PRODFLASH__GetSizeOfMember:
0000016e 06f0            367 	mov	r6,ep
00000170 be00            368 	sxb	ep
                         369 --	    .bf
                         370 .LDW21:
00000172 0052            371 	mov	0,r10
00000174 1e06deff        372 	addi	-34,ep,zero
00000178 f105*           373 	bl	.L589
                         374 --line170

                                                                      Page 8
                                                              C:\Users\nhuliyap\AppData\Local\Temp\gh_00006u41.s
                         375 ..lin.C.3A.5C_ECU2.5CECU_Rivian_A1.5CTarget.5Crepo_projects.5CpRealEcu.5CcR_R2023.2E09.2E15.5Cmake.5Coutput.5Cobjects.5CProductionFlashInterface.36::
                         376 .LDWlin36:
0000017a c1f2            377 	shl	1,ep
0000017c 330600000000*   378 	mov	.L841,r19
00000182 d3f1            379 	add	r19,ep
00000184 7050            380 	sld.hu	0[ep],r10
                         381 .L589:
                         382 --	    .ef
                         383 .LDW31:
                         384 --line179
                         385 ..lin.C.3A.5C_ECU2.5CECU_Rivian_A1.5CTarget.5Crepo_projects.5CpRealEcu.5CcR_R2023.2E09.2E15.5Cmake.5Coutput.5Cobjects.5CProductionFlashInterface.37::
                         386 .LDWlin37:
00000186 7f00            387 	jmp	[lp]
                         388 ___ghs_eofn_PRODFLASH__GetSizeOfMember:
                         389 	.type	_PRODFLASH__GetSizeOfMember,@function
                         390 	.size	_PRODFLASH__GetSizeOfMember,.-_PRODFLASH__GetSizeOfMember
                         391 	.type	_PRODFLASH__GetSizeOfMember..C.3A.5C_ECU2.5CECU_Rivian_A1.5CTarget.5Crepo_projects.5CpRealEcu.5CcR_R2023.2E09.2E15.5Cmake.5Coutput.5Cobjects.5CProductionFlashInterface.,@function
                         392 	.size	_PRODFLASH__GetSizeOfMember..C.3A.5C_ECU2.5CECU_Rivian_A1.5CTarget.5Crepo_projects.5CpRealEcu.5CcR_R2023.2E09.2E15.5Cmake.5Coutput.5Cobjects.5CProductionFlashInterface.,.-_PRODFLASH__GetSizeOfMember..C.3A.5C_ECU2.5CECU_Rivian_A1.5CTarget.5Crepo_projects.5CpRealEcu.5CcR_R2023.2E09.2E15.5Cmake.5Coutput.5Cobjects.5CProductionFlashInterface.
                         393 	.align	2
                         394 --_U16_SizeOfMember	r10	local
                         395 --.L819	.L841	static
                         396 
                         397 --_EN_Member	r6	param
                         398 
                         399 	.section ".bss","awb"
                         400 .L818:
                         401 	.type	.L818,@object
                         402 	.size	.L818,0
                         403 	.section ".rodata","a"
                         404 	.align	4
00000000 10000a00        405 .L841:	.byte	16,0,10,0
00000004 0a000300        406 	.byte	10,0,3,0
00000008 03000300        407 	.byte	3,0,3,0
0000000c 0a000a00        408 	.byte	10,0,10,0
00000010 02000600        409 	.byte	2,0,6,0
00000014 09001400        410 	.byte	9,0,20,0
00000018 03001400        411 	.byte	3,0,20,0
0000001c 03001100        412 	.byte	3,0,17,0
00000020 01000100        413 	.byte	1,0,1,0
00000024 02000100        414 	.byte	2,0,1,0
00000028 01000200        415 	.byte	1,0,2,0
0000002c 23001200        416 	.byte	35,0,18,0
00000030 23001200        417 	.byte	35,0,18,0
00000034 10000400        418 	.byte	16,0,4,0
00000038 01002800        419 	.byte	1,0,40,0
0000003c 02007e06        420 	.byte	2,0,126,6
00000040 10003000        421 	.byte	16,0,48,0
                         422 	.type	.L841,@object
                         423 	.size	.L841,68
                         424 	.data
                         425 	.text
                         426 	.align	2
                         427 	.align	2
                         428 ..gh.f.f.1.e.4:
                         429 	.type	..gh.f.f.1.e.4,@object
                         430 	.size	..gh.f.f.1.e.4,0
                         431 	.global	_PRODFLASH__GetStartBlockNumber..C.3A.5C_ECU2.5CECU_Rivian_A1.5CTarget.5Crepo_projects.5CpRealEcu.5CcR_R2023.2E09.2E15.5Cmake.5Coutput.5Cobjects.5CProductionFlashInterface.
                         432 _PRODFLASH__GetStartBlockNumber..C.3A.5C_ECU2.5CECU_Rivian_A1.5CTarget.5Crepo_projects.5CpRealEcu.5CcR_R2023.2E09.2E15.5Cmake.5Coutput.5Cobjects.5CProductionFlashInterface.:
                         433 _PRODFLASH__GetStartBlockNumber:
                         434 --	    .bf
                         435 .LDW41:

                                                                      Page 9
                                                              C:\Users\nhuliyap\AppData\Local\Temp\gh_00006u41.s
00000188 330600000000*   436 	mov	_DCM__UN_ProductionDataFlash,r19
0000018e b331            437 	sub	r19,r6
00000190 8632            438 	shr	6,r6
00000192 0650            439 	mov	r6,r10
00000194 8a00            440 	zxb	r10
                         441 --	    .ef
                         442 .LDW51:
                         443 --line297
                         444 ..lin.C.3A.5C_ECU2.5CECU_Rivian_A1.5CTarget.5Crepo_projects.5CpRealEcu.5CcR_R2023.2E09.2E15.5Cmake.5Coutput.5Cobjects.5CProductionFlashInterface.38::
                         445 .LDWlin38:
00000196 7f00            446 	jmp	[lp]
                         447 ___ghs_eofn_PRODFLASH__GetStartBlockNumber:
                         448 	.type	_PRODFLASH__GetStartBlockNumber,@function
                         449 	.size	_PRODFLASH__GetStartBlockNumber,.-_PRODFLASH__GetStartBlockNumber
                         450 	.type	_PRODFLASH__GetStartBlockNumber..C.3A.5C_ECU2.5CECU_Rivian_A1.5CTarget.5Crepo_projects.5CpRealEcu.5CcR_R2023.2E09.2E15.5Cmake.5Coutput.5Cobjects.5CProductionFlashInterface.,@function
                         451 	.size	_PRODFLASH__GetStartBlockNumber..C.3A.5C_ECU2.5CECU_Rivian_A1.5CTarget.5Crepo_projects.5CpRealEcu.5CcR_R2023.2E09.2E15.5Cmake.5Coutput.5Cobjects.5CProductionFlashInterface.,.-_PRODFLASH__GetStartBlockNumber..C.3A.5C_ECU2.5CECU_Rivian_A1.5CTarget.5Crepo_projects.5CpRealEcu.5CcR_R2023.2E09.2E15.5Cmake.5Coutput.5Cobjects.5CProductionFlashInterface.
                         452 	.align	2
                         453 
                         454 --_U32_AddressOfMember	r6	param
                         455 
                         456 	.section ".bss","awb"
                         457 .L900:
                         458 	.type	.L900,@object
                         459 	.size	.L900,0
                         460 	.data
                         461 	.text
                         462 	.align	2
                         463 	.align	2
                         464 ..gh.f.f.1.e.5:
                         465 	.type	..gh.f.f.1.e.5,@object
                         466 	.size	..gh.f.f.1.e.5,0
                         467 	.global	_PRODFLASH__GetEndBlockNumber..C.3A.5C_ECU2.5CECU_Rivian_A1.5CTarget.5Crepo_projects.5CpRealEcu.5CcR_R2023.2E09.2E15.5Cmake.5Coutput.5Cobjects.5CProductionFlashInterface.
                         468 _PRODFLASH__GetEndBlockNumber..C.3A.5C_ECU2.5CECU_Rivian_A1.5CTarget.5Crepo_projects.5CpRealEcu.5CcR_R2023.2E09.2E15.5Cmake.5Coutput.5Cobjects.5CProductionFlashInterface.:
                         469 _PRODFLASH__GetEndBlockNumber:
                         470 --	    .bf
                         471 .LDW61:
00000198 330600000000*   472 	mov	_DCM__UN_ProductionDataFlash,r19
0000019e b331            473 	sub	r19,r6
000001a0 c639            474 	add	r6,r7
000001a2 863a            475 	shr	6,r7
000001a4 0750            476 	mov	r7,r10
000001a6 8a00            477 	zxb	r10
                         478 --	    .ef
                         479 .LDW71:
                         480 --line307
                         481 ..lin.C.3A.5C_ECU2.5CECU_Rivian_A1.5CTarget.5Crepo_projects.5CpRealEcu.5CcR_R2023.2E09.2E15.5Cmake.5Coutput.5Cobjects.5CProductionFlashInterface.39::
                         482 .LDWlin39:
000001a8 7f00            483 	jmp	[lp]
                         484 ___ghs_eofn_PRODFLASH__GetEndBlockNumber:
                         485 	.type	_PRODFLASH__GetEndBlockNumber,@function
                         486 	.size	_PRODFLASH__GetEndBlockNumber,.-_PRODFLASH__GetEndBlockNumber
                         487 	.type	_PRODFLASH__GetEndBlockNumber..C.3A.5C_ECU2.5CECU_Rivian_A1.5CTarget.5Crepo_projects.5CpRealEcu.5CcR_R2023.2E09.2E15.5Cmake.5Coutput.5Cobjects.5CProductionFlashInterface.,@function
                         488 	.size	_PRODFLASH__GetEndBlockNumber..C.3A.5C_ECU2.5CECU_Rivian_A1.5CTarget.5Crepo_projects.5CpRealEcu.5CcR_R2023.2E09.2E15.5Cmake.5Coutput.5Cobjects.5CProductionFlashInterface.,.-_PRODFLASH__GetEndBlockNumber..C.3A.5C_ECU2.5CECU_Rivian_A1.5CTarget.5Crepo_projects.5CpRealEcu.5CcR_R2023.2E09.2E15.5Cmake.5Coutput.5Cobjects.5CProductionFlashInterface.
                         489 	.align	2
                         490 
                         491 --_U32_AddressOfMember	r6	param
                         492 --_U16_SizeOfMember	r7	param
                         493 
                         494 	.section ".bss","awb"
                         495 .L948:
                         496 	.type	.L948,@object

                                                                      Page 10
                                                              C:\Users\nhuliyap\AppData\Local\Temp\gh_00006u41.s
                         497 	.size	.L948,0
                         498 	.data
                         499 	.text
                         500 	.align	2
                         501 	.align	2
                         502 ..gh.f.f.1.e.6:
                         503 	.type	..gh.f.f.1.e.6,@object
                         504 	.size	..gh.f.f.1.e.6,0
                         505 	.global	_PRODFLASH__EraseFlashBlock..C.3A.5C_ECU2.5CECU_Rivian_A1.5CTarget.5Crepo_projects.5CpRealEcu.5CcR_R2023.2E09.2E15.5Cmake.5Coutput.5Cobjects.5CProductionFlashInterface.
                         506 _PRODFLASH__EraseFlashBlock..C.3A.5C_ECU2.5CECU_Rivian_A1.5CTarget.5Crepo_projects.5CpRealEcu.5CcR_R2023.2E09.2E15.5Cmake.5Coutput.5Cobjects.5CProductionFlashInterface.:
                         507 _PRODFLASH__EraseFlashBlock:
000001aa 88072300        508 	prepare	{r31},4,sp
000001ae 8600            509 	zxb	r6
                         510 --	    .bf
                         511 .LDW81:
000001b0 8003            512 	sst.b	zero,0[ep]
000001b2 0535            513 	sst.w	r6,8[ep]
000001b4 0192            514 	mov	1,r18
000001b6 8694            515 	sst.h	r18,12[ep]
000001b8 8e93            516 	sst.b	r18,14[ep]
000001ba 0330            517 	mov	sp,r6
                         518 	jarl	_R_FDL_Execute,lp
                         518 <EXPANSION BEGIN>
                         518 jarl22 _R_FDL_Execute , lp 
000001bc 80ff0000*       518 <EXPANSION END>
                         519 --line328
                         520 ..lin.C.3A.5C_ECU2.5CECU_Rivian_A1.5CTarget.5Crepo_projects.5CpRealEcu.5CcR_R2023.2E09.2E15.5Cmake.5Coutput.5Cobjects.5CProductionFlashInterface.40::
                         521 .LDWlin40:
000001c0 b505*           522 	br	.L968
                         523 .L970:
                         524 --line330
                         525 ..lin.C.3A.5C_ECU2.5CECU_Rivian_A1.5CTarget.5Crepo_projects.5CpRealEcu.5CcR_R2023.2E09.2E15.5Cmake.5Coutput.5Cobjects.5CProductionFlashInterface.41::
                         526 .LDWlin41:
                         527 	jarl	_R_FDL_Handler,lp
                         527 <EXPANSION BEGIN>
                         527 jarl22 _R_FDL_Handler , lp 
000001c2 80ff0000*       527 <EXPANSION END>
                         528 .L968:
                         529 --line328
                         530 ..lin.C.3A.5C_ECU2.5CECU_Rivian_A1.5CTarget.5Crepo_projects.5CpRealEcu.5CcR_R2023.2E09.2E15.5Cmake.5Coutput.5Cobjects.5CProductionFlashInterface.42::
                         531 .LDWlin42:
000001c6 039f0f00        532 	ld.b	15[sp],r19
000001ca 619a            533 	cmp	1,r19
000001cc b2fd*           534 	be	.L970
                         535 --line333
                         536 ..lin.C.3A.5C_ECU2.5CECU_Rivian_A1.5CTarget.5Crepo_projects.5CpRealEcu.5CcR_R2023.2E09.2E15.5Cmake.5Coutput.5Cobjects.5CProductionFlashInterface.43::
                         537 .LDWlin43:
000001ce 03970f00        538 	ld.b	15[sp],r18
                         539 --	    .ef
                         540 .LDW91:
000001d2 48063f00        541 	dispose	4,{r31},[lp]
                         542 ___ghs_eofn_PRODFLASH__EraseFlashBlock:
                         543 	.type	_PRODFLASH__EraseFlashBlock,@function
                         544 	.size	_PRODFLASH__EraseFlashBlock,.-_PRODFLASH__EraseFlashBlock
                         545 	.type	_PRODFLASH__EraseFlashBlock..C.3A.5C_ECU2.5CECU_Rivian_A1.5CTarget.5Crepo_projects.5CpRealEcu.5CcR_R2023.2E09.2E15.5Cmake.5Coutput.5Cobjects.5CProductionFlashInterface.,@function
                         546 	.size	_PRODFLASH__EraseFlashBlock..C.3A.5C_ECU2.5CECU_Rivian_A1.5CTarget.5Crepo_projects.5CpRealEcu.5CcR_R2023.2E09.2E15.5Cmake.5Coutput.5Cobjects.5CProductionFlashInterface.,.-_PRODFLASH__EraseFlashBlock..C.3A.5C_ECU2.5CECU_Rivian_A1.5CTarget.5Crepo_projects.5CpRealEcu.5CcR_R2023.2E09.2E15.5Cmake.5Coutput.5Cobjects.5CProductionFlashInterface.
                         547 	.align	2
                         548 --_S_FdlRequest	0[sp]	local
                         549 
                         550 --_U8_BlockNumber	r6	param
                         551 

                                                                      Page 11
                                                              C:\Users\nhuliyap\AppData\Local\Temp\gh_00006u41.s
                         552 	.section ".bss","awb"
                         553 .L1014:
                         554 	.type	.L1014,@object
                         555 	.size	.L1014,0
                         556 	.data
                         557 	.text
                         558 	.align	2
                         559 	.align	2
                         560 ..gh.f.f.1.e.7:
                         561 	.type	..gh.f.f.1.e.7,@object
                         562 	.size	..gh.f.f.1.e.7,0
                         563 	.global	_PRODFLASH__WriteFlashBlock..C.3A.5C_ECU2.5CECU_Rivian_A1.5CTarget.5Crepo_projects.5CpRealEcu.5CcR_R2023.2E09.2E15.5Cmake.5Coutput.5Cobjects.5CProductionFlashInterface.
                         564 _PRODFLASH__WriteFlashBlock..C.3A.5C_ECU2.5CECU_Rivian_A1.5CTarget.5Crepo_projects.5CpRealEcu.5CcR_R2023.2E09.2E15.5Cmake.5Coutput.5Cobjects.5CProductionFlashInterface.:
                         565 _PRODFLASH__WriteFlashBlock:
000001d6 88072300        566 	prepare	{r31},4,sp
000001da 8600            567 	zxb	r6
                         568 --	    .bf
                         569 .LDW02:
000001dc 019a            570 	mov	1,r19
000001de 809b            571 	sst.b	r19,0[ep]
000001e0 c632            572 	shl	6,r6
000001e2 0535            573 	sst.w	r6,8[ep]
000001e4 20364000        574 	movea	64,zero,r6
000001e8 8634            575 	sst.h	r6,12[ep]
000001ea 033d            576 	sst.w	r7,4[ep]
000001ec 8e9b            577 	sst.b	r19,14[ep]
000001ee 0330            578 	mov	sp,r6
                         579 	jarl	_R_FDL_Execute,lp
                         579 <EXPANSION BEGIN>
                         579 jarl22 _R_FDL_Execute , lp 
000001f0 80ff0000*       579 <EXPANSION END>
                         580 --line352
                         581 ..lin.C.3A.5C_ECU2.5CECU_Rivian_A1.5CTarget.5Crepo_projects.5CpRealEcu.5CcR_R2023.2E09.2E15.5Cmake.5Coutput.5Cobjects.5CProductionFlashInterface.44::
                         582 .LDWlin44:
000001f4 b505*           583 	br	.L1061
                         584 .L1063:
                         585 --line354
                         586 ..lin.C.3A.5C_ECU2.5CECU_Rivian_A1.5CTarget.5Crepo_projects.5CpRealEcu.5CcR_R2023.2E09.2E15.5Cmake.5Coutput.5Cobjects.5CProductionFlashInterface.45::
                         587 .LDWlin45:
                         588 	jarl	_R_FDL_Handler,lp
                         588 <EXPANSION BEGIN>
                         588 jarl22 _R_FDL_Handler , lp 
000001f6 80ff0000*       588 <EXPANSION END>
                         589 .L1061:
                         590 --line352
                         591 ..lin.C.3A.5C_ECU2.5CECU_Rivian_A1.5CTarget.5Crepo_projects.5CpRealEcu.5CcR_R2023.2E09.2E15.5Cmake.5Coutput.5Cobjects.5CProductionFlashInterface.46::
                         592 .LDWlin46:
000001fa 039f0f00        593 	ld.b	15[sp],r19
000001fe 619a            594 	cmp	1,r19
00000200 b2fd*           595 	be	.L1063
                         596 --line357
                         597 ..lin.C.3A.5C_ECU2.5CECU_Rivian_A1.5CTarget.5Crepo_projects.5CpRealEcu.5CcR_R2023.2E09.2E15.5Cmake.5Coutput.5Cobjects.5CProductionFlashInterface.47::
                         598 .LDWlin47:
00000202 03970f00        599 	ld.b	15[sp],r18
                         600 --	    .ef
                         601 .LDW12:
00000206 48063f00        602 	dispose	4,{r31},[lp]
                         603 ___ghs_eofn_PRODFLASH__WriteFlashBlock:
                         604 	.type	_PRODFLASH__WriteFlashBlock,@function
                         605 	.size	_PRODFLASH__WriteFlashBlock,.-_PRODFLASH__WriteFlashBlock
                         606 	.type	_PRODFLASH__WriteFlashBlock..C.3A.5C_ECU2.5CECU_Rivian_A1.5CTarget.5Crepo_projects.5CpRealEcu.5CcR_R2023.2E09.2E15.5Cmake.5Coutput.5Cobjects.5CProductionFlashInterface.,@function

                                                                      Page 12
                                                              C:\Users\nhuliyap\AppData\Local\Temp\gh_00006u41.s
                         607 	.size	_PRODFLASH__WriteFlashBlock..C.3A.5C_ECU2.5CECU_Rivian_A1.5CTarget.5Crepo_projects.5CpRealEcu.5CcR_R2023.2E09.2E15.5Cmake.5Coutput.5Cobjects.5CProductionFlashInterface.,.-_PRODFLASH__WriteFlashBlock..C.3A.5C_ECU2.5CECU_Rivian_A1.5CTarget.5Crepo_projects.5CpRealEcu.5CcR_R2023.2E09.2E15.5Cmake.5Coutput.5Cobjects.5CProductionFlashInterface.
                         608 	.align	2
                         609 --_S_FdlRequest	0[sp]	local
                         610 
                         611 --_U8_BlockNumber	r6	param
                         612 --_PU8_Data	r7	param
                         613 
                         614 	.section ".bss","awb"
                         615 .L1110:
                         616 	.type	.L1110,@object
                         617 	.size	.L1110,0
                         618 	.data
                         619 	.text
                         620 	.align	2
                         621 	.align	2
                         622 ..gh.f.f.1.e.8:
                         623 	.type	..gh.f.f.1.e.8,@object
                         624 	.size	..gh.f.f.1.e.8,0
                         625 	.global	_PRODFLASH__WriteProductionDataMember..C.3A.5C_ECU2.5CECU_Rivian_A1.5CTarget.5Crepo_projects.5CpRealEcu.5CcR_R2023.2E09.2E15.5Cmake.5Coutput.5Cobjects.5CProductionFlashInterface.
                         626 _PRODFLASH__WriteProductionDataMember..C.3A.5C_ECU2.5CECU_Rivian_A1.5CTarget.5Crepo_projects.5CpRealEcu.5CcR_R2023.2E09.2E15.5Cmake.5Coutput.5Cobjects.5CProductionFlashInterface.:
                         627 _PRODFLASH__WriteProductionDataMember:
0000020a a007e1f1        628 	prepare	{r23,r24,r25,r26,r27,r28,r29,r31},16
0000020e 08c8            629 	mov	r8,r25
00000210 a600            630 	sxb	r6
00000212 07b8            631 	mov	r7,r23
00000214 9900            632 	zxb	r25
                         633 --	    .bf
                         634 .LDW22:
00000216 19e0            635 	mov	r25,r28
00000218 06e8            636 	mov	r6,r29
                         637 	jarl	_PRODFLASH__GetAddressOfMember,lp
                         637 <EXPANSION BEGIN>
                         637 jarl22 _PRODFLASH__GetAddressOfMember , lp 
0000021a bfffe6fd*       637 <EXPANSION END>
0000021e 0ad8            638 	mov	r10,r27
                         639 --line27
                         640 ..lin.C.3A.5C_ECU2.5CECU_Rivian_A1.5CTarget.5Crepo_projects.5CpRealEcu.5CcR_R2023.2E09.2E15.5Cmake.5Coutput.5Cobjects.5CProductionFlashInterface.48::
                         641 .LDWlin48:
00000220 1d30            642 	mov	r29,r6
                         643 	jarl	_PRODFLASH__GetSizeOfMember,lp
                         643 <EXPANSION BEGIN>
                         643 jarl22 _PRODFLASH__GetSizeOfMember , lp 
00000222 bfff4cff*       643 <EXPANSION END>
00000226 0a38            644 	mov	r10,r7
                         645 --line29
                         646 ..lin.C.3A.5C_ECU2.5CECU_Rivian_A1.5CTarget.5Crepo_projects.5CpRealEcu.5CcR_R2023.2E09.2E15.5Cmake.5Coutput.5Cobjects.5CProductionFlashInterface.49::
                         647 .LDWlin49:
00000228 1b30            648 	mov	r27,r6
                         649 	jarl	_PRODFLASH__GetStartBlockNumber,lp
                         649 <EXPANSION BEGIN>
                         649 jarl22 _PRODFLASH__GetStartBlockNumber , lp 
0000022a bfff5eff*       649 <EXPANSION END>
0000022e 0ad0            650 	mov	r10,r26
                         651 --line31
                         652 ..lin.C.3A.5C_ECU2.5CECU_Rivian_A1.5CTarget.5Crepo_projects.5CpRealEcu.5CcR_R2023.2E09.2E15.5Cmake.5Coutput.5Cobjects.5CProductionFlashInterface.50::
                         653 .LDWlin50:
00000230 1b30            654 	mov	r27,r6
                         655 	jarl	_PRODFLASH__GetEndBlockNumber,lp
                         655 <EXPANSION BEGIN>
                         655 jarl22 _PRODFLASH__GetEndBlockNumber , lp 
00000232 bfff66ff*       655 <EXPANSION END>

                                                                      Page 13
                                                              C:\Users\nhuliyap\AppData\Local\Temp\gh_00006u41.s
00000236 0ac0            656 	mov	r10,r24
                         657 --line33
                         658 ..lin.C.3A.5C_ECU2.5CECU_Rivian_A1.5CTarget.5Crepo_projects.5CpRealEcu.5CcR_R2023.2E09.2E15.5Cmake.5Coutput.5Cobjects.5CProductionFlashInterface.51::
                         659 .LDWlin51:
00000238 1ae8            660 	mov	r26,r29
0000023a b535*           661 	br	.L1160
                         662 .L1159:
                         663 --	    .bs
                         664 .LDW32:
                         665 --line38
                         666 ..lin.C.3A.5C_ECU2.5CECU_Rivian_A1.5CTarget.5Crepo_projects.5CpRealEcu.5CcR_R2023.2E09.2E15.5Cmake.5Coutput.5Cobjects.5CProductionFlashInterface.52::
                         667 .LDWlin52:
0000023c 008a            668 	mov	0,r17
                         669 .L1163:
0000023e 1d80            670 	mov	r29,r16
00000240 c682            671 	shl	6,r16
00000242 2f0600000000*   672 	mov	_DCM__UN_ProductionDataFlash,r15
00000248 cf81            673 	add	r15,r16
0000024a 1170            674 	mov	r17,r14
0000024c d071            675 	add	r16,r14
0000024e 8e770100        676 	ld.bu	0[r14],r14
00000252 11f0            677 	mov	r17,ep
00000254 c3f1            678 	add	sp,ep
                         679 --line38
                         680 ..lin.C.3A.5C_ECU2.5CECU_Rivian_A1.5CTarget.5Crepo_projects.5CpRealEcu.5CcR_R2023.2E09.2E15.5Cmake.5Coutput.5Cobjects.5CProductionFlashInterface.53::
                         681 .LDWlin53:
00000256 418a            682 	add	1,r17
00000258 8073            683 	sst.b	r14,0[ep]
0000025a 1106c0ff        684 	addi	-64,r17,zero
0000025e 89f5*           685 	bnl	.L1163
                         686 --line43
                         687 ..lin.C.3A.5C_ECU2.5CECU_Rivian_A1.5CTarget.5Crepo_projects.5CpRealEcu.5CcR_R2023.2E09.2E15.5Cmake.5Coutput.5Cobjects.5CProductionFlashInterface.54::
                         688 .LDWlin54:
00000260 1d30            689 	mov	r29,r6
                         690 	jarl	_PRODFLASH__EraseFlashBlock,lp
                         690 <EXPANSION BEGIN>
                         690 jarl22 _PRODFLASH__EraseFlashBlock , lp 
00000262 bfff48ff*       690 <EXPANSION END>
                         691 --line45
                         692 ..lin.C.3A.5C_ECU2.5CECU_Rivian_A1.5CTarget.5Crepo_projects.5CpRealEcu.5CcR_R2023.2E09.2E15.5Cmake.5Coutput.5Cobjects.5CProductionFlashInterface.55::
                         693 .LDWlin55:
00000266 db6e3f00        694 	andi	63,r27,r13
0000026a fae9            695 	cmp	r26,r29
0000026c e06f1493        696 	cmovne	0,r13,r18
00000270 d50d*           697 	br	.L1167
                         698 .L1169:
                         699 --line58
                         700 ..lin.C.3A.5C_ECU2.5CECU_Rivian_A1.5CTarget.5Crepo_projects.5CpRealEcu.5CcR_R2023.2E09.2E15.5Cmake.5Coutput.5Cobjects.5CProductionFlashInterface.56::
                         701 .LDWlin56:
00000272 1978            702 	mov	r25,r15
00000274 bc79            703 	sub	r28,r15
00000276 d779            704 	add	r23,r15
00000278 8f5f0100        705 	ld.bu	0[r15],r11
0000027c 12f0            706 	mov	r18,ep
0000027e c3f1            707 	add	sp,ep
00000280 4192            708 	add	1,r18
00000282 5fe2            709 	add	-1,r28
00000284 805b            710 	sst.b	r11,0[ep]
00000286 9200            711 	zxb	r18
00000288 9c00            712 	zxb	r28
                         713 .L1167:

                                                                      Page 14
                                                              C:\Users\nhuliyap\AppData\Local\Temp\gh_00006u41.s
0000028a 1206c0ff        714 	addi	-64,r18,zero
0000028e b105*           715 	bl	.L1168
00000290 e0e1            716 	cmp	zero,r28
00000292 8af5*           717 	bne	.L1169
                         718 .L1168:
                         719 --line63
                         720 ..lin.C.3A.5C_ECU2.5CECU_Rivian_A1.5CTarget.5Crepo_projects.5CpRealEcu.5CcR_R2023.2E09.2E15.5Cmake.5Coutput.5Cobjects.5CProductionFlashInterface.57::
                         721 .LDWlin57:
00000294 1d30            722 	mov	r29,r6
00000296 0338            723 	mov	sp,r7
                         724 	jarl	_PRODFLASH__WriteFlashBlock,lp
                         724 <EXPANSION BEGIN>
                         724 jarl22 _PRODFLASH__WriteFlashBlock , lp 
00000298 bfff3eff*       724 <EXPANSION END>
                         725 --	    .es
                         726 .LDW42:
                         727 --line33
                         728 ..lin.C.3A.5C_ECU2.5CECU_Rivian_A1.5CTarget.5Crepo_projects.5CpRealEcu.5CcR_R2023.2E09.2E15.5Cmake.5Coutput.5Cobjects.5CProductionFlashInterface.58::
                         729 .LDWlin58:
0000029c 41ea            730 	add	1,r29
0000029e 9d00            731 	zxb	r29
                         732 .L1160:
000002a0 f8e9            733 	cmp	r24,r29
000002a2 d3cd*           734 	bnh	.L1159
                         735 --	    .ef
                         736 .LDW52:
                         737 --line65
                         738 ..lin.C.3A.5C_ECU2.5CECU_Rivian_A1.5CTarget.5Crepo_projects.5CpRealEcu.5CcR_R2023.2E09.2E15.5Cmake.5Coutput.5Cobjects.5CProductionFlashInterface.59::
                         739 .LDWlin59:
000002a4 6006fff1        740 	dispose	16,{r23,r24,r25,r26,r27,r28,r29,r31},[lp]
                         741 ___ghs_eofn_PRODFLASH__WriteProductionDataMember:
                         742 	.type	_PRODFLASH__WriteProductionDataMember,@function
                         743 	.size	_PRODFLASH__WriteProductionDataMember,.-_PRODFLASH__WriteProductionDataMember
                         744 	.type	_PRODFLASH__WriteProductionDataMember..C.3A.5C_ECU2.5CECU_Rivian_A1.5CTarget.5Crepo_projects.5CpRealEcu.5CcR_R2023.2E09.2E15.5Cmake.5Coutput.5Cobjects.5CProductionFlashInterface.,@function
                         745 	.size	_PRODFLASH__WriteProductionDataMember..C.3A.5C_ECU2.5CECU_Rivian_A1.5CTarget.5Crepo_projects.5CpRealEcu.5CcR_R2023.2E09.2E15.5Cmake.5Coutput.5Cobjects.5CProductionFlashInterface.,.-_PRODFLASH__WriteProductionDataMember..C.3A.5C_ECU2.5CECU_Rivian_A1.5CTarget.5Crepo_projects.5CpRealEcu.5CcR_R2023.2E09.2E15.5Cmake.5Coutput.5Cobjects.5CProductionFlashInterface.
                         746 	.align	2
                         747 --_AU8_FlashBlockBuffer	0[sp]	local
                         748 --_U32_AddressOfMember	r27	local
                         749 --_U16_SizeOfMember	r29	local
                         750 --_U8_StartBlockNumber	r26	local
                         751 --_U8_EndBlockNumber	r24	local
                         752 --_U8_BlockNumberCounter	r29	local
                         753 --_U8_BufferCounter	r17	local
                         754 --_U8_BytesToWrite	r28	local
                         755 --_U8_StartPositionOfWrite	r18	local
                         756 --_U8_CurrentPositionOfWrite	r18	local
                         757 
                         758 --_EN_Member	r29	param
                         759 --_PU8_Data	r23	param
                         760 --_U8_Length	r25	param
                         761 
                         762 	.section ".bss","awb"
                         763 .L1255:
                         764 	.type	.L1255,@object
                         765 	.size	.L1255,0
                         766 	.data
                         767 	.text
                         768 	.align	2
                         769 	.align	2
                         770 ..gh.f.f.1.e.9:
                         771 	.type	..gh.f.f.1.e.9,@object

                                                                      Page 15
                                                              C:\Users\nhuliyap\AppData\Local\Temp\gh_00006u41.s
                         772 	.size	..gh.f.f.1.e.9,0
                         773 	.global	_PRODFLASH_GetGenealogyBlockStartAddress
                         774 _PRODFLASH_GetGenealogyBlockStartAddress:
                         775 --	    .bf
                         776 .LDW62:
000002a8 2a0600000000*   777 	mov	_DCM__UN_ProductionDataFlash+146,r10
                         778 --	    .ef
                         779 .LDW72:
                         780 --line363
                         781 ..lin.C.3A.5C_ECU2.5CECU_Rivian_A1.5CTarget.5Crepo_projects.5CpRealEcu.5CcR_R2023.2E09.2E15.5Cmake.5Coutput.5Cobjects.5CProductionFlashInterface.60::
                         782 .LDWlin60:
000002ae 7f00            783 	jmp	[lp]
                         784 	.global	___ghs_eofn_PRODFLASH_GetGenealogyBlockStartAddress
                         785 ___ghs_eofn_PRODFLASH_GetGenealogyBlockStartAddress:
                         786 	.type	_PRODFLASH_GetGenealogyBlockStartAddress,@function
                         787 	.size	_PRODFLASH_GetGenealogyBlockStartAddress,.-_PRODFLASH_GetGenealogyBlockStartAddress
                         788 	.align	2
                         789 
                         790 	.section ".bss","awb"
                         791 .L1377:
                         792 	.type	.L1377,@object
                         793 	.size	.L1377,0
                         794 	.data
                         795 	.text
                         796 	.align	2
                         797 	.align	2
                         798 ..gh.f.f.1.e.10:
                         799 	.type	..gh.f.f.1.e.10,@object
                         800 	.size	..gh.f.f.1.e.10,0
                         801 	.global	_PRODFLASH_GetCustomerHwPartNumber
                         802 _PRODFLASH_GetCustomerHwPartNumber:
000002b0 80076100        803 	prepare	{r29,r31},0
000002b4 06e8            804 	mov	r6,r29
                         805 --	    .bf
                         806 .LDW82:
                         807 	jarl	_GPIO_GetFrequencySetting,lp
                         807 <EXPANSION BEGIN>
                         807 jarl22 _GPIO_GetFrequencySetting , lp 
000002b6 80ff0000*       807 <EXPANSION END>
                         808 --line368
                         809 ..lin.C.3A.5C_ECU2.5CECU_Rivian_A1.5CTarget.5Crepo_projects.5CpRealEcu.5CcR_R2023.2E09.2E15.5Cmake.5Coutput.5Cobjects.5CProductionFlashInterface.61::
                         810 .LDWlin61:
000002ba 310600000000*   811 	mov	_DCM__UN_ProductionDataFlash,r17
000002c0 6152            812 	cmp	1,r10
000002c2 ca05*           813 	bne	.L1397
                         814 --line376
                         815 ..lin.C.3A.5C_ECU2.5CECU_Rivian_A1.5CTarget.5Crepo_projects.5CpRealEcu.5CcR_R2023.2E09.2E15.5Cmake.5Coutput.5Cobjects.5CProductionFlashInterface.62::
                         816 .LDWlin62:
000002c4 117e1000        817 	addi	16,r17,r15
000002c8 b505*           818 	br	.L1399
                         819 .L1397:
                         820 --line380
                         821 ..lin.C.3A.5C_ECU2.5CECU_Rivian_A1.5CTarget.5Crepo_projects.5CpRealEcu.5CcR_R2023.2E09.2E15.5Cmake.5Coutput.5Cobjects.5CProductionFlashInterface.63::
                         822 .LDWlin63:
000002ca 117e1a00        823 	addi	26,r17,r15
                         824 .L1399:
000002ce 0092            825 	mov	0,r18
                         826 .L1402:
000002d0 1280            827 	mov	r18,r16
000002d2 cf81            828 	add	r15,r16
000002d4 90770100        829 	ld.bu	0[r16],r14

                                                                      Page 16
                                                              C:\Users\nhuliyap\AppData\Local\Temp\gh_00006u41.s
000002d8 12f0            830 	mov	r18,ep
000002da ddf1            831 	add	r29,ep
000002dc 4192            832 	add	1,r18
000002de 8073            833 	sst.b	r14,0[ep]
000002e0 6a92            834 	cmp	10,r18
000002e2 f1f5*           835 	bl	.L1402
                         836 --line388
                         837 ..lin.C.3A.5C_ECU2.5CECU_Rivian_A1.5CTarget.5Crepo_projects.5CpRealEcu.5CcR_R2023.2E09.2E15.5Cmake.5Coutput.5Cobjects.5CProductionFlashInterface.64::
                         838 .LDWlin64:
000002e4 0a52            839 	mov	10,r10
                         840 --	    .ef
                         841 .LDW92:
000002e6 40067f00        842 	dispose	0,{r29,r31},[lp]
                         843 	.global	___ghs_eofn_PRODFLASH_GetCustomerHwPartNumber
                         844 ___ghs_eofn_PRODFLASH_GetCustomerHwPartNumber:
                         845 	.type	_PRODFLASH_GetCustomerHwPartNumber,@function
                         846 	.size	_PRODFLASH_GetCustomerHwPartNumber,.-_PRODFLASH_GetCustomerHwPartNumber
                         847 	.align	2
                         848 --_ucCounter	r18	local
                         849 --_pHwPartNumber	r15	local
                         850 
                         851 --_ucData	r29	param
                         852 
                         853 	.section ".bss","awb"
                         854 .L1473:
                         855 	.type	.L1473,@object
                         856 	.size	.L1473,0
                         857 	.data
                         858 	.text
                         859 	.align	2
                         860 	.align	2
                         861 ..gh.f.f.1.e.11:
                         862 	.type	..gh.f.f.1.e.11,@object
                         863 	.size	..gh.f.f.1.e.11,0
                         864 	.global	_PRODFLASH_GetCustomerEcuPartNumber
                         865 _PRODFLASH_GetCustomerEcuPartNumber:
000002ea 80076100        866 	prepare	{r29,r31},0
000002ee 06e8            867 	mov	r6,r29
                         868 --	    .bf
                         869 .LDW03:
                         870 	jarl	_GPIO_GetFrequencySetting,lp
                         870 <EXPANSION BEGIN>
                         870 jarl22 _GPIO_GetFrequencySetting , lp 
000002f0 80ff0000*       870 <EXPANSION END>
                         871 --line392
                         872 ..lin.C.3A.5C_ECU2.5CECU_Rivian_A1.5CTarget.5Crepo_projects.5CpRealEcu.5CcR_R2023.2E09.2E15.5Cmake.5Coutput.5Cobjects.5CProductionFlashInterface.65::
                         873 .LDWlin65:
000002f4 310600000000*   874 	mov	_DCM__UN_ProductionDataFlash,r17
000002fa 6152            875 	cmp	1,r10
000002fc ca05*           876 	bne	.L1541
                         877 --line400
                         878 ..lin.C.3A.5C_ECU2.5CECU_Rivian_A1.5CTarget.5Crepo_projects.5CpRealEcu.5CcR_R2023.2E09.2E15.5Cmake.5Coutput.5Cobjects.5CProductionFlashInterface.66::
                         879 .LDWlin66:
000002fe 117e2d00        880 	addi	45,r17,r15
00000302 b505*           881 	br	.L1543
                         882 .L1541:
                         883 --line404
                         884 ..lin.C.3A.5C_ECU2.5CECU_Rivian_A1.5CTarget.5Crepo_projects.5CpRealEcu.5CcR_R2023.2E09.2E15.5Cmake.5Coutput.5Cobjects.5CProductionFlashInterface.67::
                         885 .LDWlin67:
00000304 117e3700        886 	addi	55,r17,r15
                         887 .L1543:

                                                                      Page 17
                                                              C:\Users\nhuliyap\AppData\Local\Temp\gh_00006u41.s
00000308 0092            888 	mov	0,r18
                         889 .L1546:
0000030a 1280            890 	mov	r18,r16
0000030c cf81            891 	add	r15,r16
0000030e 90770100        892 	ld.bu	0[r16],r14
00000312 12f0            893 	mov	r18,ep
00000314 ddf1            894 	add	r29,ep
00000316 4192            895 	add	1,r18
00000318 8073            896 	sst.b	r14,0[ep]
0000031a 6a92            897 	cmp	10,r18
0000031c f1f5*           898 	bl	.L1546
                         899 --line412
                         900 ..lin.C.3A.5C_ECU2.5CECU_Rivian_A1.5CTarget.5Crepo_projects.5CpRealEcu.5CcR_R2023.2E09.2E15.5Cmake.5Coutput.5Cobjects.5CProductionFlashInterface.68::
                         901 .LDWlin68:
0000031e 0a52            902 	mov	10,r10
                         903 --	    .ef
                         904 .LDW13:
00000320 40067f00        905 	dispose	0,{r29,r31},[lp]
                         906 	.global	___ghs_eofn_PRODFLASH_GetCustomerEcuPartNumber
                         907 ___ghs_eofn_PRODFLASH_GetCustomerEcuPartNumber:
                         908 	.type	_PRODFLASH_GetCustomerEcuPartNumber,@function
                         909 	.size	_PRODFLASH_GetCustomerEcuPartNumber,.-_PRODFLASH_GetCustomerEcuPartNumber
                         910 	.align	2
                         911 --_ucCounter	r18	local
                         912 --_pEcuPartNumber	r15	local
                         913 
                         914 --_ucData	r29	param
                         915 
                         916 	.section ".bss","awb"
                         917 .L1617:
                         918 	.type	.L1617,@object
                         919 	.size	.L1617,0
                         920 	.data
                         921 	.text
                         922 	.align	2
                         923 	.align	2
                         924 ..gh.f.f.1.e.12:
                         925 	.type	..gh.f.f.1.e.12,@object
                         926 	.size	..gh.f.f.1.e.12,0
                         927 	.global	_PRODFLASH_GetCustomerEcuSerialNumber
                         928 _PRODFLASH_GetCustomerEcuSerialNumber:
                         929 --	    .bf
                         930 .LDW23:
00000324 0092            931 	mov	0,r18
                         932 .L1687:
00000326 12f0            933 	mov	r18,ep
00000328 c6f1            934 	add	r6,ep
0000032a 1f8a            935 	mov	-1,r17
0000032c 4192            936 	add	1,r18
0000032e 808b            937 	sst.b	r17,0[ep]
00000330 6a92            938 	cmp	10,r18
00000332 a1fd*           939 	bl	.L1687
                         940 --line427
                         941 ..lin.C.3A.5C_ECU2.5CECU_Rivian_A1.5CTarget.5Crepo_projects.5CpRealEcu.5CcR_R2023.2E09.2E15.5Cmake.5Coutput.5Cobjects.5CProductionFlashInterface.69::
                         942 .LDWlin69:
00000334 20863000        943 	movea	48,zero,r16
00000338 46870a00        944 	st.b	r16,10[r6]
0000033c 0b92            945 	mov	11,r18
                         946 .L1690:
0000033e 409e0000*       947 	movhi	hi(_DCM__UN_ProductionDataFlash+73),zero,r19
00000342 d299            948 	add	r18,r19

                                                                      Page 18
                                                              C:\Users\nhuliyap\AppData\Local\Temp\gh_00006u41.s
00000344 93770100*       949 	ld.bu	lo(_DCM__UN_ProductionDataFlash+73)[r19],r14
00000348 12f0            950 	mov	r18,ep
0000034a c6f1            951 	add	r6,ep
                         952 --line429
                         953 ..lin.C.3A.5C_ECU2.5CECU_Rivian_A1.5CTarget.5Crepo_projects.5CpRealEcu.5CcR_R2023.2E09.2E15.5Cmake.5Coutput.5Cobjects.5CProductionFlashInterface.70::
                         954 .LDWlin70:
0000034c 4192            955 	add	1,r18
0000034e 8073            956 	sst.b	r14,0[ep]
00000350 1206ecff        957 	addi	-20,r18,zero
00000354 d9f5*           958 	bnl	.L1690
                         959 --line434
                         960 ..lin.C.3A.5C_ECU2.5CECU_Rivian_A1.5CTarget.5Crepo_projects.5CpRealEcu.5CcR_R2023.2E09.2E15.5Cmake.5Coutput.5Cobjects.5CProductionFlashInterface.71::
                         961 .LDWlin71:
00000356 0952            962 	mov	9,r10
                         963 --	    .ef
                         964 .LDW33:
00000358 7f00            965 	jmp	[lp]
                         966 	.global	___ghs_eofn_PRODFLASH_GetCustomerEcuSerialNumber
                         967 ___ghs_eofn_PRODFLASH_GetCustomerEcuSerialNumber:
                         968 	.type	_PRODFLASH_GetCustomerEcuSerialNumber,@function
                         969 	.size	_PRODFLASH_GetCustomerEcuSerialNumber,.-_PRODFLASH_GetCustomerEcuSerialNumber
                         970 	.align	2
                         971 --_ucCounter	r18	local
                         972 
                         973 --_ucData	r6	param
                         974 
                         975 	.section ".bss","awb"
                         976 .L1733:
                         977 	.type	.L1733,@object
                         978 	.size	.L1733,0
                         979 	.data
                         980 	.text
                         981 	.align	2
                         982 	.align	2
                         983 ..gh.f.f.1.e.13:
                         984 	.type	..gh.f.f.1.e.13,@object
                         985 	.size	..gh.f.f.1.e.13,0
                         986 	.global	_PRODFLASH_GetVin
                         987 _PRODFLASH_GetVin:
                         988 --	    .bf
                         989 .LDW43:
0000035a 0092            990 	mov	0,r18
                         991 .L1791:
0000035c 408e0000*       992 	movhi	hi(_DCM__UN_ProductionDataFlash+128),zero,r17
00000360 d289            993 	add	r18,r17
00000362 918f0100*       994 	ld.bu	lo(_DCM__UN_ProductionDataFlash+128)[r17],r17
00000366 12f0            995 	mov	r18,ep
00000368 c6f1            996 	add	r6,ep
                         997 --line444
                         998 ..lin.C.3A.5C_ECU2.5CECU_Rivian_A1.5CTarget.5Crepo_projects.5CpRealEcu.5CcR_R2023.2E09.2E15.5Cmake.5Coutput.5Cobjects.5CProductionFlashInterface.72::
                         999 .LDWlin72:
0000036a 4192           1000 	add	1,r18
0000036c 808b           1001 	sst.b	r17,0[ep]
0000036e 1206efff       1002 	addi	-17,r18,zero
00000372 d9f5*          1003 	bnl	.L1791
                        1004 --line449
                        1005 ..lin.C.3A.5C_ECU2.5CECU_Rivian_A1.5CTarget.5Crepo_projects.5CpRealEcu.5CcR_R2023.2E09.2E15.5Cmake.5Coutput.5Cobjects.5CProductionFlashInterface.73::
                        1006 .LDWlin73:
00000374 20561100       1007 	movea	17,zero,r10
                        1008 --	    .ef
                        1009 .LDW53:

                                                                      Page 19
                                                              C:\Users\nhuliyap\AppData\Local\Temp\gh_00006u41.s
00000378 7f00           1010 	jmp	[lp]
                        1011 	.global	___ghs_eofn_PRODFLASH_GetVin
                        1012 ___ghs_eofn_PRODFLASH_GetVin:
                        1013 	.type	_PRODFLASH_GetVin,@function
                        1014 	.size	_PRODFLASH_GetVin,.-_PRODFLASH_GetVin
                        1015 	.align	2
                        1016 --_ucCounter	r18	local
                        1017 
                        1018 --_ucData	r6	param
                        1019 
                        1020 	.section ".bss","awb"
                        1021 .L1830:
                        1022 	.type	.L1830,@object
                        1023 	.size	.L1830,0
                        1024 	.data
                        1025 	.text
                        1026 	.align	2
                        1027 	.align	2
                        1028 ..gh.f.f.1.e.14:
                        1029 	.type	..gh.f.f.1.e.14,@object
                        1030 	.size	..gh.f.f.1.e.14,0
                        1031 	.global	_PRODFLASH_GetEcuProgramFingerprintApplication
                        1032 _PRODFLASH_GetEcuProgramFingerprintApplication:
                        1033 --	    .bf
                        1034 .LDW63:
0000037a 0092           1035 	mov	0,r18
0000037c 2f0600000000*  1036 	mov	_DCM__UN_ProductionDataFlash,r15
                        1037 .L1873:
                        1038 --line460
                        1039 ..lin.C.3A.5C_ECU2.5CECU_Rivian_A1.5CTarget.5Crepo_projects.5CpRealEcu.5CcR_R2023.2E09.2E15.5Cmake.5Coutput.5Cobjects.5CProductionFlashInterface.74::
                        1040 .LDWlin74:
00000382 1288           1041 	mov	r18,r17
00000384 cf89           1042 	add	r15,r17
00000386 919f5300       1043 	ld.bu	82[r17],r19
0000038a 12f0           1044 	mov	r18,ep
0000038c c6f1           1045 	add	r6,ep
0000038e 4192           1046 	add	1,r18
00000390 809b           1047 	sst.b	r19,0[ep]
00000392 1206ecff       1048 	addi	-20,r18,zero
00000396 e9f5*          1049 	bnl	.L1873
00000398 950d*          1050 	br	.L1878
                        1051 .L1877:
                        1052 --line466
                        1053 ..lin.C.3A.5C_ECU2.5CECU_Rivian_A1.5CTarget.5Crepo_projects.5CpRealEcu.5CcR_R2023.2E09.2E15.5Cmake.5Coutput.5Cobjects.5CProductionFlashInterface.75::
                        1054 .LDWlin75:
0000039a 1280           1055 	mov	r18,r16
0000039c cf81           1056 	add	r15,r16
0000039e 908f6700       1057 	ld.bu	102[r16],r17
000003a2 12f0           1058 	mov	r18,ep
000003a4 c6f1           1059 	add	r6,ep
000003a6 4192           1060 	add	1,r18
000003a8 808b           1061 	sst.b	r17,0[ep]
                        1062 .L1878:
000003aa 1206e9ff       1063 	addi	-23,r18,zero
000003ae e9f5*          1064 	bnl	.L1877
                        1065 --line468
                        1066 ..lin.C.3A.5C_ECU2.5CECU_Rivian_A1.5CTarget.5Crepo_projects.5CpRealEcu.5CcR_R2023.2E09.2E15.5Cmake.5Coutput.5Cobjects.5CProductionFlashInterface.76::
                        1067 .LDWlin76:
000003b0 20561700       1068 	movea	23,zero,r10
                        1069 --	    .ef
                        1070 .LDW73:

                                                                      Page 20
                                                              C:\Users\nhuliyap\AppData\Local\Temp\gh_00006u41.s
000003b4 7f00           1071 	jmp	[lp]
                        1072 	.global	___ghs_eofn_PRODFLASH_GetEcuProgramFingerprintApplication
                        1073 ___ghs_eofn_PRODFLASH_GetEcuProgramFingerprintApplication:
                        1074 	.type	_PRODFLASH_GetEcuProgramFingerprintApplication,@function
                        1075 	.size	_PRODFLASH_GetEcuProgramFingerprintApplication,.-_PRODFLASH_GetEcuProgramFingerprintApplication
                        1076 	.align	2
                        1077 --_ucCounter	r18	local
                        1078 
                        1079 --_ucData	r6	param
                        1080 
                        1081 	.section ".bss","awb"
                        1082 .L1944:
                        1083 	.type	.L1944,@object
                        1084 	.size	.L1944,0
                        1085 	.data
                        1086 	.text
                        1087 	.align	2
                        1088 	.align	2
                        1089 ..gh.f.f.1.e.15:
                        1090 	.type	..gh.f.f.1.e.15,@object
                        1091 	.size	..gh.f.f.1.e.15,0
                        1092 	.global	_PRODFLASH_GetEcuProgramFingerprintBootloader
                        1093 _PRODFLASH_GetEcuProgramFingerprintBootloader:
                        1094 --	    .bf
                        1095 .LDW83:
000003b6 0092           1096 	mov	0,r18
000003b8 2f0600000000*  1097 	mov	_DCM__UN_ProductionDataFlash,r15
                        1098 .L2010:
                        1099 --line479
                        1100 ..lin.C.3A.5C_ECU2.5CECU_Rivian_A1.5CTarget.5Crepo_projects.5CpRealEcu.5CcR_R2023.2E09.2E15.5Cmake.5Coutput.5Cobjects.5CProductionFlashInterface.77::
                        1101 .LDWlin77:
000003be 1288           1102 	mov	r18,r17
000003c0 cf89           1103 	add	r15,r17
000003c2 b19f6900       1104 	ld.bu	105[r17],r19
000003c6 12f0           1105 	mov	r18,ep
000003c8 c6f1           1106 	add	r6,ep
000003ca 4192           1107 	add	1,r18
000003cc 809b           1108 	sst.b	r19,0[ep]
000003ce 1206ecff       1109 	addi	-20,r18,zero
000003d2 e9f5*          1110 	bnl	.L2010
000003d4 950d*          1111 	br	.L2015
                        1112 .L2014:
                        1113 --line485
                        1114 ..lin.C.3A.5C_ECU2.5CECU_Rivian_A1.5CTarget.5Crepo_projects.5CpRealEcu.5CcR_R2023.2E09.2E15.5Cmake.5Coutput.5Cobjects.5CProductionFlashInterface.78::
                        1115 .LDWlin78:
000003d6 1280           1116 	mov	r18,r16
000003d8 cf81           1117 	add	r15,r16
000003da b08f7d00       1118 	ld.bu	125[r16],r17
000003de 12f0           1119 	mov	r18,ep
000003e0 c6f1           1120 	add	r6,ep
000003e2 4192           1121 	add	1,r18
000003e4 808b           1122 	sst.b	r17,0[ep]
                        1123 .L2015:
000003e6 1206e9ff       1124 	addi	-23,r18,zero
000003ea e9f5*          1125 	bnl	.L2014
                        1126 --line487
                        1127 ..lin.C.3A.5C_ECU2.5CECU_Rivian_A1.5CTarget.5Crepo_projects.5CpRealEcu.5CcR_R2023.2E09.2E15.5Cmake.5Coutput.5Cobjects.5CProductionFlashInterface.79::
                        1128 .LDWlin79:
000003ec 20561700       1129 	movea	23,zero,r10
                        1130 --	    .ef
                        1131 .LDW93:

                                                                      Page 21
                                                              C:\Users\nhuliyap\AppData\Local\Temp\gh_00006u41.s
000003f0 7f00           1132 	jmp	[lp]
                        1133 	.global	___ghs_eofn_PRODFLASH_GetEcuProgramFingerprintBootloader
                        1134 ___ghs_eofn_PRODFLASH_GetEcuProgramFingerprintBootloader:
                        1135 	.type	_PRODFLASH_GetEcuProgramFingerprintBootloader,@function
                        1136 	.size	_PRODFLASH_GetEcuProgramFingerprintBootloader,.-_PRODFLASH_GetEcuProgramFingerprintBootloader
                        1137 	.align	2
                        1138 --_ucCounter	r18	local
                        1139 
                        1140 --_ucData	r6	param
                        1141 
                        1142 	.section ".bss","awb"
                        1143 .L2072:
                        1144 	.type	.L2072,@object
                        1145 	.size	.L2072,0
                        1146 	.data
                        1147 	.text
                        1148 	.align	2
                        1149 	.align	2
                        1150 ..gh.f.f.1.e.16:
                        1151 	.type	..gh.f.f.1.e.16,@object
                        1152 	.size	..gh.f.f.1.e.16,0
                        1153 	.global	_PRODFLASH_GetRivianEcuSerialNumber
                        1154 _PRODFLASH_GetRivianEcuSerialNumber:
                        1155 --	    .bf
                        1156 .LDW04:
000003f2 0092           1157 	mov	0,r18
                        1158 .L2138:
000003f4 408e0000*      1159 	movhi	hi(_DCM__UN_ProductionDataFlash+241),zero,r17
000003f8 d289           1160 	add	r18,r17
000003fa 918f0100*      1161 	ld.bu	lo(_DCM__UN_ProductionDataFlash+241)[r17],r17
000003fe 12f0           1162 	mov	r18,ep
00000400 c6f1           1163 	add	r6,ep
                        1164 --line497
                        1165 ..lin.C.3A.5C_ECU2.5CECU_Rivian_A1.5CTarget.5Crepo_projects.5CpRealEcu.5CcR_R2023.2E09.2E15.5Cmake.5Coutput.5Cobjects.5CProductionFlashInterface.80::
                        1166 .LDWlin80:
00000402 4192           1167 	add	1,r18
00000404 808b           1168 	sst.b	r17,0[ep]
00000406 1206eeff       1169 	addi	-18,r18,zero
0000040a d9f5*          1170 	bnl	.L2138
                        1171 --line502
                        1172 ..lin.C.3A.5C_ECU2.5CECU_Rivian_A1.5CTarget.5Crepo_projects.5CpRealEcu.5CcR_R2023.2E09.2E15.5Cmake.5Coutput.5Cobjects.5CProductionFlashInterface.81::
                        1173 .LDWlin81:
0000040c 20561200       1174 	movea	18,zero,r10
                        1175 --	    .ef
                        1176 .LDW14:
00000410 7f00           1177 	jmp	[lp]
                        1178 	.global	___ghs_eofn_PRODFLASH_GetRivianEcuSerialNumber
                        1179 ___ghs_eofn_PRODFLASH_GetRivianEcuSerialNumber:
                        1180 	.type	_PRODFLASH_GetRivianEcuSerialNumber,@function
                        1181 	.size	_PRODFLASH_GetRivianEcuSerialNumber,.-_PRODFLASH_GetRivianEcuSerialNumber
                        1182 	.align	2
                        1183 --_ucCounter	r18	local
                        1184 
                        1185 --_ucData	r6	param
                        1186 
                        1187 	.section ".bss","awb"
                        1188 .L2182:
                        1189 	.type	.L2182,@object
                        1190 	.size	.L2182,0
                        1191 	.data
                        1192 	.text

                                                                      Page 22
                                                              C:\Users\nhuliyap\AppData\Local\Temp\gh_00006u41.s
                        1193 	.align	2
                        1194 	.align	2
                        1195 ..gh.f.f.1.e.17:
                        1196 	.type	..gh.f.f.1.e.17,@object
                        1197 	.size	..gh.f.f.1.e.17,0
                        1198 	.global	_PRODFLASH_GetRivianBoardSerialNumber
                        1199 _PRODFLASH_GetRivianBoardSerialNumber:
                        1200 --	    .bf
                        1201 .LDW24:
00000412 0092           1202 	mov	0,r18
                        1203 .L2225:
00000414 408e0000*      1204 	movhi	hi(_DCM__UN_ProductionDataFlash+188),zero,r17
00000418 d289           1205 	add	r18,r17
0000041a 918f0100*      1206 	ld.bu	lo(_DCM__UN_ProductionDataFlash+188)[r17],r17
0000041e 12f0           1207 	mov	r18,ep
00000420 c6f1           1208 	add	r6,ep
                        1209 --line512
                        1210 ..lin.C.3A.5C_ECU2.5CECU_Rivian_A1.5CTarget.5Crepo_projects.5CpRealEcu.5CcR_R2023.2E09.2E15.5Cmake.5Coutput.5Cobjects.5CProductionFlashInterface.82::
                        1211 .LDWlin82:
00000422 4192           1212 	add	1,r18
00000424 808b           1213 	sst.b	r17,0[ep]
00000426 1206eeff       1214 	addi	-18,r18,zero
0000042a d9f5*          1215 	bnl	.L2225
                        1216 --line517
                        1217 ..lin.C.3A.5C_ECU2.5CECU_Rivian_A1.5CTarget.5Crepo_projects.5CpRealEcu.5CcR_R2023.2E09.2E15.5Cmake.5Coutput.5Cobjects.5CProductionFlashInterface.83::
                        1218 .LDWlin83:
0000042c 20561200       1219 	movea	18,zero,r10
                        1220 --	    .ef
                        1221 .LDW34:
00000430 7f00           1222 	jmp	[lp]
                        1223 	.global	___ghs_eofn_PRODFLASH_GetRivianBoardSerialNumber
                        1224 ___ghs_eofn_PRODFLASH_GetRivianBoardSerialNumber:
                        1225 	.type	_PRODFLASH_GetRivianBoardSerialNumber,@function
                        1226 	.size	_PRODFLASH_GetRivianBoardSerialNumber,.-_PRODFLASH_GetRivianBoardSerialNumber
                        1227 	.align	2
                        1228 --_ucCounter	r18	local
                        1229 
                        1230 --_ucData	r6	param
                        1231 
                        1232 	.section ".bss","awb"
                        1233 .L2278:
                        1234 	.type	.L2278,@object
                        1235 	.size	.L2278,0
                        1236 	.data
                        1237 	.text
                        1238 	.align	2
                        1239 	.align	2
                        1240 ..gh.f.f.1.e.18:
                        1241 	.type	..gh.f.f.1.e.18,@object
                        1242 	.size	..gh.f.f.1.e.18,0
                        1243 	.global	_PRODFLASH_GetRivianEcuPartNumber
                        1244 _PRODFLASH_GetRivianEcuPartNumber:
                        1245 --	    .bf
                        1246 .LDW44:
00000432 0092           1247 	mov	0,r18
                        1248 .L2321:
00000434 408e0000*      1249 	movhi	hi(_DCM__UN_ProductionDataFlash+206),zero,r17
00000438 d289           1250 	add	r18,r17
0000043a 918f0100*      1251 	ld.bu	lo(_DCM__UN_ProductionDataFlash+206)[r17],r17
0000043e 12f0           1252 	mov	r18,ep
00000440 c6f1           1253 	add	r6,ep

                                                                      Page 23
                                                              C:\Users\nhuliyap\AppData\Local\Temp\gh_00006u41.s
                        1254 --line527
                        1255 ..lin.C.3A.5C_ECU2.5CECU_Rivian_A1.5CTarget.5Crepo_projects.5CpRealEcu.5CcR_R2023.2E09.2E15.5Cmake.5Coutput.5Cobjects.5CProductionFlashInterface.84::
                        1256 .LDWlin84:
00000442 4192           1257 	add	1,r18
00000444 808b           1258 	sst.b	r17,0[ep]
00000446 1206ddff       1259 	addi	-35,r18,zero
0000044a d9f5*          1260 	bnl	.L2321
                        1261 --line532
                        1262 ..lin.C.3A.5C_ECU2.5CECU_Rivian_A1.5CTarget.5Crepo_projects.5CpRealEcu.5CcR_R2023.2E09.2E15.5Cmake.5Coutput.5Cobjects.5CProductionFlashInterface.85::
                        1263 .LDWlin85:
0000044c 20562300       1264 	movea	35,zero,r10
                        1265 --	    .ef
                        1266 .LDW54:
00000450 7f00           1267 	jmp	[lp]
                        1268 	.global	___ghs_eofn_PRODFLASH_GetRivianEcuPartNumber
                        1269 ___ghs_eofn_PRODFLASH_GetRivianEcuPartNumber:
                        1270 	.type	_PRODFLASH_GetRivianEcuPartNumber,@function
                        1271 	.size	_PRODFLASH_GetRivianEcuPartNumber,.-_PRODFLASH_GetRivianEcuPartNumber
                        1272 	.align	2
                        1273 --_ucCounter	r18	local
                        1274 
                        1275 --_ucData	r6	param
                        1276 
                        1277 	.section ".bss","awb"
                        1278 .L2374:
                        1279 	.type	.L2374,@object
                        1280 	.size	.L2374,0
                        1281 	.data
                        1282 	.text
                        1283 	.align	2
                        1284 	.align	2
                        1285 ..gh.f.f.1.e.19:
                        1286 	.type	..gh.f.f.1.e.19,@object
                        1287 	.size	..gh.f.f.1.e.19,0
                        1288 	.global	_PRODFLASH_GetRivianBoardPartNumber
                        1289 _PRODFLASH_GetRivianBoardPartNumber:
                        1290 --	    .bf
                        1291 .LDW64:
00000452 0092           1292 	mov	0,r18
                        1293 .L2417:
00000454 408e0000*      1294 	movhi	hi(_DCM__UN_ProductionDataFlash+153),zero,r17
00000458 d289           1295 	add	r18,r17
0000045a 918f0100*      1296 	ld.bu	lo(_DCM__UN_ProductionDataFlash+153)[r17],r17
0000045e 12f0           1297 	mov	r18,ep
00000460 c6f1           1298 	add	r6,ep
                        1299 --line542
                        1300 ..lin.C.3A.5C_ECU2.5CECU_Rivian_A1.5CTarget.5Crepo_projects.5CpRealEcu.5CcR_R2023.2E09.2E15.5Cmake.5Coutput.5Cobjects.5CProductionFlashInterface.86::
                        1301 .LDWlin86:
00000462 4192           1302 	add	1,r18
00000464 808b           1303 	sst.b	r17,0[ep]
00000466 1206ddff       1304 	addi	-35,r18,zero
0000046a d9f5*          1305 	bnl	.L2417
                        1306 --line547
                        1307 ..lin.C.3A.5C_ECU2.5CECU_Rivian_A1.5CTarget.5Crepo_projects.5CpRealEcu.5CcR_R2023.2E09.2E15.5Cmake.5Coutput.5Cobjects.5CProductionFlashInterface.87::
                        1308 .LDWlin87:
0000046c 20562300       1309 	movea	35,zero,r10
                        1310 --	    .ef
                        1311 .LDW74:
00000470 7f00           1312 	jmp	[lp]
                        1313 	.global	___ghs_eofn_PRODFLASH_GetRivianBoardPartNumber
                        1314 ___ghs_eofn_PRODFLASH_GetRivianBoardPartNumber:

                                                                      Page 24
                                                              C:\Users\nhuliyap\AppData\Local\Temp\gh_00006u41.s
                        1315 	.type	_PRODFLASH_GetRivianBoardPartNumber,@function
                        1316 	.size	_PRODFLASH_GetRivianBoardPartNumber,.-_PRODFLASH_GetRivianBoardPartNumber
                        1317 	.align	2
                        1318 --_ucCounter	r18	local
                        1319 
                        1320 --_ucData	r6	param
                        1321 
                        1322 	.section ".bss","awb"
                        1323 .L2470:
                        1324 	.type	.L2470,@object
                        1325 	.size	.L2470,0
                        1326 	.data
                        1327 	.text
                        1328 	.align	2
                        1329 	.align	2
                        1330 ..gh.f.f.1.e.20:
                        1331 	.type	..gh.f.f.1.e.20,@object
                        1332 	.size	..gh.f.f.1.e.20,0
                        1333 	.global	_PRODFLASH_GetManufacturingSupportMode
                        1334 _PRODFLASH_GetManufacturingSupportMode:
00000472 06f0           1335 	mov	r6,ep
                        1336 --	    .bf
                        1337 .LDW84:
00000474 40960000*      1338 	movhi	hi(_DCM__UN_ProductionDataFlash+145),zero,r18
00000478 92970100*      1339 	ld.bu	lo(_DCM__UN_ProductionDataFlash+145)[r18],r18
                        1340 --line562
                        1341 ..lin.C.3A.5C_ECU2.5CECU_Rivian_A1.5CTarget.5Crepo_projects.5CpRealEcu.5CcR_R2023.2E09.2E15.5Cmake.5Coutput.5Cobjects.5CProductionFlashInterface.88::
                        1342 .LDWlin88:
0000047c 0152           1343 	mov	1,r10
0000047e 8093           1344 	sst.b	r18,0[ep]
                        1345 --	    .ef
                        1346 .LDW94:
00000480 7f00           1347 	jmp	[lp]
                        1348 	.global	___ghs_eofn_PRODFLASH_GetManufacturingSupportMode
                        1349 ___ghs_eofn_PRODFLASH_GetManufacturingSupportMode:
                        1350 	.type	_PRODFLASH_GetManufacturingSupportMode,@function
                        1351 	.size	_PRODFLASH_GetManufacturingSupportMode,.-_PRODFLASH_GetManufacturingSupportMode
                        1352 	.align	2
                        1353 
                        1354 --_ucData	ep	param
                        1355 
                        1356 	.section ".bss","awb"
                        1357 .L2563:
                        1358 	.type	.L2563,@object
                        1359 	.size	.L2563,0
                        1360 	.data
                        1361 	.text
                        1362 	.align	2
                        1363 	.align	2
                        1364 ..gh.f.f.1.e.21:
                        1365 	.type	..gh.f.f.1.e.21,@object
                        1366 	.size	..gh.f.f.1.e.21,0
                        1367 	.global	_PRODFLASH_GetApplicationSignature
                        1368 _PRODFLASH_GetApplicationSignature:
                        1369 --	    .bf
                        1370 .LDW05:
00000482 0092           1371 	mov	0,r18
                        1372 .L2588:
00000484 408e0000*      1373 	movhi	hi(_DCM__UN_ProductionDataFlash+259),zero,r17
00000488 d289           1374 	add	r18,r17
0000048a 918f0100*      1375 	ld.bu	lo(_DCM__UN_ProductionDataFlash+259)[r17],r17

                                                                      Page 25
                                                              C:\Users\nhuliyap\AppData\Local\Temp\gh_00006u41.s
0000048e 12f0           1376 	mov	r18,ep
00000490 c6f1           1377 	add	r6,ep
                        1378 --line572
                        1379 ..lin.C.3A.5C_ECU2.5CECU_Rivian_A1.5CTarget.5Crepo_projects.5CpRealEcu.5CcR_R2023.2E09.2E15.5Cmake.5Coutput.5Cobjects.5CProductionFlashInterface.89::
                        1380 .LDWlin89:
00000492 4192           1381 	add	1,r18
00000494 808b           1382 	sst.b	r17,0[ep]
00000496 1206f0ff       1383 	addi	-16,r18,zero
0000049a d9f5*          1384 	bnl	.L2588
                        1385 --line577
                        1386 ..lin.C.3A.5C_ECU2.5CECU_Rivian_A1.5CTarget.5Crepo_projects.5CpRealEcu.5CcR_R2023.2E09.2E15.5Cmake.5Coutput.5Cobjects.5CProductionFlashInterface.90::
                        1387 .LDWlin90:
0000049c 20561000       1388 	movea	16,zero,r10
                        1389 --	    .ef
                        1390 .LDW15:
000004a0 7f00           1391 	jmp	[lp]
                        1392 	.global	___ghs_eofn_PRODFLASH_GetApplicationSignature
                        1393 ___ghs_eofn_PRODFLASH_GetApplicationSignature:
                        1394 	.type	_PRODFLASH_GetApplicationSignature,@function
                        1395 	.size	_PRODFLASH_GetApplicationSignature,.-_PRODFLASH_GetApplicationSignature
                        1396 	.align	2
                        1397 --_ucCounter	r18	local
                        1398 
                        1399 --_ucData	r6	param
                        1400 
                        1401 	.section ".bss","awb"
                        1402 .L2630:
                        1403 	.type	.L2630,@object
                        1404 	.size	.L2630,0
                        1405 	.data
                        1406 	.text
                        1407 	.align	2
                        1408 	.align	2
                        1409 ..gh.f.f.1.e.22:
                        1410 	.type	..gh.f.f.1.e.22,@object
                        1411 	.size	..gh.f.f.1.e.22,0
                        1412 	.global	_PRODFLASH_GetGenealogyCrc32
                        1413 _PRODFLASH_GetGenealogyCrc32:
                        1414 --	    .bf
                        1415 .LDW25:
000004a2 0092           1416 	mov	0,r18
                        1417 .L2673:
000004a4 408e0000*      1418 	movhi	hi(_DCM__UN_ProductionDataFlash+275),zero,r17
000004a8 d289           1419 	add	r18,r17
000004aa 918f0100*      1420 	ld.bu	lo(_DCM__UN_ProductionDataFlash+275)[r17],r17
000004ae 12f0           1421 	mov	r18,ep
000004b0 c6f1           1422 	add	r6,ep
                        1423 --line587
                        1424 ..lin.C.3A.5C_ECU2.5CECU_Rivian_A1.5CTarget.5Crepo_projects.5CpRealEcu.5CcR_R2023.2E09.2E15.5Cmake.5Coutput.5Cobjects.5CProductionFlashInterface.91::
                        1425 .LDWlin91:
000004b2 4192           1426 	add	1,r18
000004b4 808b           1427 	sst.b	r17,0[ep]
000004b6 6492           1428 	cmp	4,r18
000004b8 e1f5*          1429 	bl	.L2673
                        1430 --line592
                        1431 ..lin.C.3A.5C_ECU2.5CECU_Rivian_A1.5CTarget.5Crepo_projects.5CpRealEcu.5CcR_R2023.2E09.2E15.5Cmake.5Coutput.5Cobjects.5CProductionFlashInterface.92::
                        1432 .LDWlin92:
000004ba 0452           1433 	mov	4,r10
                        1434 --	    .ef
                        1435 .LDW35:
000004bc 7f00           1436 	jmp	[lp]

                                                                      Page 26
                                                              C:\Users\nhuliyap\AppData\Local\Temp\gh_00006u41.s
                        1437 	.global	___ghs_eofn_PRODFLASH_GetGenealogyCrc32
                        1438 ___ghs_eofn_PRODFLASH_GetGenealogyCrc32:
                        1439 	.type	_PRODFLASH_GetGenealogyCrc32,@function
                        1440 	.size	_PRODFLASH_GetGenealogyCrc32,.-_PRODFLASH_GetGenealogyCrc32
                        1441 	.align	2
                        1442 --_ucCounter	r18	local
                        1443 
                        1444 --_ucData	r6	param
                        1445 
                        1446 	.section ".bss","awb"
                        1447 .L2726:
                        1448 	.type	.L2726,@object
                        1449 	.size	.L2726,0
                        1450 	.data
                        1451 	.text
                        1452 	.align	2
                        1453 	.align	2
                        1454 ..gh.f.f.1.e.23:
                        1455 	.type	..gh.f.f.1.e.23,@object
                        1456 	.size	..gh.f.f.1.e.23,0
                        1457 	.global	_PRODFLASH_GetGenealogyVersion
                        1458 _PRODFLASH_GetGenealogyVersion:
000004be 06f0           1459 	mov	r6,ep
                        1460 --	    .bf
                        1461 .LDW45:
000004c0 40960000*      1462 	movhi	hi(_DCM__UN_ProductionDataFlash+146),zero,r18
000004c4 92970100*      1463 	ld.bu	lo(_DCM__UN_ProductionDataFlash+146)[r18],r18
                        1464 --line607
                        1465 ..lin.C.3A.5C_ECU2.5CECU_Rivian_A1.5CTarget.5Crepo_projects.5CpRealEcu.5CcR_R2023.2E09.2E15.5Cmake.5Coutput.5Cobjects.5CProductionFlashInterface.93::
                        1466 .LDWlin93:
000004c8 0152           1467 	mov	1,r10
000004ca 8093           1468 	sst.b	r18,0[ep]
                        1469 --	    .ef
                        1470 .LDW55:
000004cc 7f00           1471 	jmp	[lp]
                        1472 	.global	___ghs_eofn_PRODFLASH_GetGenealogyVersion
                        1473 ___ghs_eofn_PRODFLASH_GetGenealogyVersion:
                        1474 	.type	_PRODFLASH_GetGenealogyVersion,@function
                        1475 	.size	_PRODFLASH_GetGenealogyVersion,.-_PRODFLASH_GetGenealogyVersion
                        1476 	.align	2
                        1477 
                        1478 --_ucData	ep	param
                        1479 
                        1480 	.section ".bss","awb"
                        1481 .L2819:
                        1482 	.type	.L2819,@object
                        1483 	.size	.L2819,0
                        1484 	.data
                        1485 	.text
                        1486 	.align	2
                        1487 	.align	2
                        1488 ..gh.f.f.1.e.24:
                        1489 	.type	..gh.f.f.1.e.24,@object
                        1490 	.size	..gh.f.f.1.e.24,0
                        1491 	.global	_PRODFLASH_GetPcbaId
                        1492 _PRODFLASH_GetPcbaId:
000004ce 06f0           1493 	mov	r6,ep
                        1494 --	    .bf
                        1495 .LDW65:
000004d0 40960000*      1496 	movhi	hi(_DCM__UN_ProductionDataFlash+149),zero,r18
000004d4 92970100*      1497 	ld.bu	lo(_DCM__UN_ProductionDataFlash+149)[r18],r18

                                                                      Page 27
                                                              C:\Users\nhuliyap\AppData\Local\Temp\gh_00006u41.s
                        1498 --line622
                        1499 ..lin.C.3A.5C_ECU2.5CECU_Rivian_A1.5CTarget.5Crepo_projects.5CpRealEcu.5CcR_R2023.2E09.2E15.5Cmake.5Coutput.5Cobjects.5CProductionFlashInterface.94::
                        1500 .LDWlin94:
000004d8 0152           1501 	mov	1,r10
000004da 8093           1502 	sst.b	r18,0[ep]
                        1503 --	    .ef
                        1504 .LDW75:
000004dc 7f00           1505 	jmp	[lp]
                        1506 	.global	___ghs_eofn_PRODFLASH_GetPcbaId
                        1507 ___ghs_eofn_PRODFLASH_GetPcbaId:
                        1508 	.type	_PRODFLASH_GetPcbaId,@function
                        1509 	.size	_PRODFLASH_GetPcbaId,.-_PRODFLASH_GetPcbaId
                        1510 	.align	2
                        1511 
                        1512 --_ucData	ep	param
                        1513 
                        1514 	.section ".bss","awb"
                        1515 .L2883:
                        1516 	.type	.L2883,@object
                        1517 	.size	.L2883,0
                        1518 	.data
                        1519 	.text
                        1520 	.align	2
                        1521 	.align	2
                        1522 ..gh.f.f.1.e.25:
                        1523 	.type	..gh.f.f.1.e.25,@object
                        1524 	.size	..gh.f.f.1.e.25,0
                        1525 	.global	_PRODFLASH_GetAuxId
                        1526 _PRODFLASH_GetAuxId:
000004de 06f0           1527 	mov	r6,ep
                        1528 --	    .bf
                        1529 .LDW85:
000004e0 40960000*      1530 	movhi	hi(_DCM__UN_ProductionDataFlash+150),zero,r18
000004e4 92970100*      1531 	ld.bu	lo(_DCM__UN_ProductionDataFlash+150)[r18],r18
                        1532 --line637
                        1533 ..lin.C.3A.5C_ECU2.5CECU_Rivian_A1.5CTarget.5Crepo_projects.5CpRealEcu.5CcR_R2023.2E09.2E15.5Cmake.5Coutput.5Cobjects.5CProductionFlashInterface.95::
                        1534 .LDWlin95:
000004e8 0152           1535 	mov	1,r10
000004ea 8093           1536 	sst.b	r18,0[ep]
                        1537 --	    .ef
                        1538 .LDW95:
000004ec 7f00           1539 	jmp	[lp]
                        1540 	.global	___ghs_eofn_PRODFLASH_GetAuxId
                        1541 ___ghs_eofn_PRODFLASH_GetAuxId:
                        1542 	.type	_PRODFLASH_GetAuxId,@function
                        1543 	.size	_PRODFLASH_GetAuxId,.-_PRODFLASH_GetAuxId
                        1544 	.align	2
                        1545 
                        1546 --_ucData	ep	param
                        1547 
                        1548 	.section ".bss","awb"
                        1549 .L2947:
                        1550 	.type	.L2947,@object
                        1551 	.size	.L2947,0
                        1552 	.data
                        1553 	.text
                        1554 	.align	2
                        1555 	.align	2
                        1556 ..gh.f.f.1.e.26:
                        1557 	.type	..gh.f.f.1.e.26,@object
                        1558 	.size	..gh.f.f.1.e.26,0

                                                                      Page 28
                                                              C:\Users\nhuliyap\AppData\Local\Temp\gh_00006u41.s
                        1559 	.global	_PRODFLASH_GetComponentId
                        1560 _PRODFLASH_GetComponentId:
                        1561 --	    .bf
                        1562 .LDW06:
000004ee 0092           1563 	mov	0,r18
                        1564 .L2972:
000004f0 408e0000*      1565 	movhi	hi(_DCM__UN_ProductionDataFlash+147),zero,r17
000004f4 d289           1566 	add	r18,r17
000004f6 918f0100*      1567 	ld.bu	lo(_DCM__UN_ProductionDataFlash+147)[r17],r17
000004fa 12f0           1568 	mov	r18,ep
000004fc c6f1           1569 	add	r6,ep
                        1570 --line647
                        1571 ..lin.C.3A.5C_ECU2.5CECU_Rivian_A1.5CTarget.5Crepo_projects.5CpRealEcu.5CcR_R2023.2E09.2E15.5Cmake.5Coutput.5Cobjects.5CProductionFlashInterface.96::
                        1572 .LDWlin96:
000004fe 4192           1573 	add	1,r18
00000500 808b           1574 	sst.b	r17,0[ep]
00000502 6292           1575 	cmp	2,r18
00000504 e1f5*          1576 	bl	.L2972
                        1577 --line652
                        1578 ..lin.C.3A.5C_ECU2.5CECU_Rivian_A1.5CTarget.5Crepo_projects.5CpRealEcu.5CcR_R2023.2E09.2E15.5Cmake.5Coutput.5Cobjects.5CProductionFlashInterface.97::
                        1579 .LDWlin97:
00000506 0252           1580 	mov	2,r10
                        1581 --	    .ef
                        1582 .LDW16:
00000508 7f00           1583 	jmp	[lp]
                        1584 	.global	___ghs_eofn_PRODFLASH_GetComponentId
                        1585 ___ghs_eofn_PRODFLASH_GetComponentId:
                        1586 	.type	_PRODFLASH_GetComponentId,@function
                        1587 	.size	_PRODFLASH_GetComponentId,.-_PRODFLASH_GetComponentId
                        1588 	.align	2
                        1589 --_ucCounter	r18	local
                        1590 
                        1591 --_ucData	r6	param
                        1592 
                        1593 	.section ".bss","awb"
                        1594 .L3014:
                        1595 	.type	.L3014,@object
                        1596 	.size	.L3014,0
                        1597 	.data
                        1598 	.text
                        1599 	.align	2
                        1600 	.align	2
                        1601 ..gh.f.f.1.e.27:
                        1602 	.type	..gh.f.f.1.e.27,@object
                        1603 	.size	..gh.f.f.1.e.27,0
                        1604 	.global	_PRODFLASH_GetModeId
                        1605 _PRODFLASH_GetModeId:
                        1606 --	    .bf
                        1607 .LDW26:
0000050a 0092           1608 	mov	0,r18
                        1609 .L3057:
0000050c 408e0000*      1610 	movhi	hi(_DCM__UN_ProductionDataFlash+151),zero,r17
00000510 d289           1611 	add	r18,r17
00000512 918f0100*      1612 	ld.bu	lo(_DCM__UN_ProductionDataFlash+151)[r17],r17
00000516 12f0           1613 	mov	r18,ep
00000518 c6f1           1614 	add	r6,ep
                        1615 --line662
                        1616 ..lin.C.3A.5C_ECU2.5CECU_Rivian_A1.5CTarget.5Crepo_projects.5CpRealEcu.5CcR_R2023.2E09.2E15.5Cmake.5Coutput.5Cobjects.5CProductionFlashInterface.98::
                        1617 .LDWlin98:
0000051a 4192           1618 	add	1,r18
0000051c 808b           1619 	sst.b	r17,0[ep]

                                                                      Page 29
                                                              C:\Users\nhuliyap\AppData\Local\Temp\gh_00006u41.s
0000051e 6292           1620 	cmp	2,r18
00000520 e1f5*          1621 	bl	.L3057
                        1622 --line667
                        1623 ..lin.C.3A.5C_ECU2.5CECU_Rivian_A1.5CTarget.5Crepo_projects.5CpRealEcu.5CcR_R2023.2E09.2E15.5Cmake.5Coutput.5Cobjects.5CProductionFlashInterface.99::
                        1624 .LDWlin99:
00000522 0252           1625 	mov	2,r10
                        1626 --	    .ef
                        1627 .LDW36:
00000524 7f00           1628 	jmp	[lp]
                        1629 	.global	___ghs_eofn_PRODFLASH_GetModeId
                        1630 ___ghs_eofn_PRODFLASH_GetModeId:
                        1631 	.type	_PRODFLASH_GetModeId,@function
                        1632 	.size	_PRODFLASH_GetModeId,.-_PRODFLASH_GetModeId
                        1633 	.align	2
                        1634 --_ucCounter	r18	local
                        1635 
                        1636 --_ucData	r6	param
                        1637 
                        1638 	.section ".bss","awb"
                        1639 .L3110:
                        1640 	.type	.L3110,@object
                        1641 	.size	.L3110,0
                        1642 	.data
                        1643 	.text
                        1644 	.align	2
                        1645 	.align	2
                        1646 ..gh.f.f.1.e.28:
                        1647 	.type	..gh.f.f.1.e.28,@object
                        1648 	.size	..gh.f.f.1.e.28,0
                        1649 	.global	_PRODFLASH_GetEolCheckerByte
                        1650 _PRODFLASH_GetEolCheckerByte:
00000526 06f0           1651 	mov	r6,ep
                        1652 --	    .bf
                        1653 .LDW46:
00000528 40960000*      1654 	movhi	hi(_DCM__UN_ProductionDataFlash+279),zero,r18
0000052c 92970100*      1655 	ld.bu	lo(_DCM__UN_ProductionDataFlash+279)[r18],r18
                        1656 --line682
                        1657 ..lin.C.3A.5C_ECU2.5CECU_Rivian_A1.5CTarget.5Crepo_projects.5CpRealEcu.5CcR_R2023.2E09.2E15.5Cmake.5Coutput.5Cobjects.5CProductionFlashInterface.100::
                        1658 .LDWlin100:
00000530 0152           1659 	mov	1,r10
00000532 8093           1660 	sst.b	r18,0[ep]
                        1661 --	    .ef
                        1662 .LDW56:
00000534 7f00           1663 	jmp	[lp]
                        1664 	.global	___ghs_eofn_PRODFLASH_GetEolCheckerByte
                        1665 ___ghs_eofn_PRODFLASH_GetEolCheckerByte:
                        1666 	.type	_PRODFLASH_GetEolCheckerByte,@function
                        1667 	.size	_PRODFLASH_GetEolCheckerByte,.-_PRODFLASH_GetEolCheckerByte
                        1668 	.align	2
                        1669 
                        1670 --_ucData	ep	param
                        1671 
                        1672 	.section ".bss","awb"
                        1673 .L3203:
                        1674 	.type	.L3203,@object
                        1675 	.size	.L3203,0
                        1676 	.data
                        1677 	.text
                        1678 	.align	2
                        1679 	.align	2
                        1680 ..gh.f.f.1.e.29:

                                                                      Page 30
                                                              C:\Users\nhuliyap\AppData\Local\Temp\gh_00006u41.s
                        1681 	.type	..gh.f.f.1.e.29,@object
                        1682 	.size	..gh.f.f.1.e.29,0
                        1683 	.global	_PRODFLASH_PutRivianEcuPartNumber
                        1684 _PRODFLASH_PutRivianEcuPartNumber:
                        1685 --	    .bf
                        1686 .LDW66:
00000536 0638           1687 	mov	r6,r7
00000538 20361800       1688 	movea	24,zero,r6
0000053c 20462300       1689 	movea	35,zero,r8
00000540 bf07cafc*      1690 	jr	_PRODFLASH__WriteProductionDataMember
                        1691 --	    .ef
                        1692 .LDW76:
                        1693 	.global	___ghs_eofn_PRODFLASH_PutRivianEcuPartNumber
                        1694 ___ghs_eofn_PRODFLASH_PutRivianEcuPartNumber:
                        1695 	.type	_PRODFLASH_PutRivianEcuPartNumber,@function
                        1696 	.size	_PRODFLASH_PutRivianEcuPartNumber,.-_PRODFLASH_PutRivianEcuPartNumber
                        1697 	.align	2
                        1698 
                        1699 --_ucData	r6	param
                        1700 
                        1701 	.section ".bss","awb"
                        1702 .L3249:
                        1703 	.type	.L3249,@object
                        1704 	.size	.L3249,0
                        1705 	.data
                        1706 	.text
                        1707 	.align	2
                        1708 	.align	2
                        1709 ..gh.f.f.1.e.30:
                        1710 	.type	..gh.f.f.1.e.30,@object
                        1711 	.size	..gh.f.f.1.e.30,0
                        1712 	.global	_PRODFLASH_PutVin
                        1713 _PRODFLASH_PutVin:
                        1714 --	    .bf
                        1715 .LDW86:
00000544 0638           1716 	mov	r6,r7
00000546 0f32           1717 	mov	15,r6
00000548 20461100       1718 	movea	17,zero,r8
0000054c bf07befc*      1719 	jr	_PRODFLASH__WriteProductionDataMember
                        1720 --	    .ef
                        1721 .LDW96:
                        1722 	.global	___ghs_eofn_PRODFLASH_PutVin
                        1723 ___ghs_eofn_PRODFLASH_PutVin:
                        1724 	.type	_PRODFLASH_PutVin,@function
                        1725 	.size	_PRODFLASH_PutVin,.-_PRODFLASH_PutVin
                        1726 	.align	2
                        1727 
                        1728 --_ucData	r6	param
                        1729 
                        1730 	.section ".bss","awb"
                        1731 .L3297:
                        1732 	.type	.L3297,@object
                        1733 	.size	.L3297,0
                        1734 	.data
                        1735 	.text
                        1736 	.align	2
                        1737 	.align	2
                        1738 ..gh.f.f.1.e.31:
                        1739 	.type	..gh.f.f.1.e.31,@object
                        1740 	.size	..gh.f.f.1.e.31,0
                        1741 	.global	_PRODFLASH_PutManufacturingSupportMode

                                                                      Page 31
                                                              C:\Users\nhuliyap\AppData\Local\Temp\gh_00006u41.s
                        1742 _PRODFLASH_PutManufacturingSupportMode:
                        1743 --	    .bf
                        1744 .LDW07:
00000550 0638           1745 	mov	r6,r7
00000552 20361000       1746 	movea	16,zero,r6
00000556 0142           1747 	mov	1,r8
00000558 bf07b2fc*      1748 	jr	_PRODFLASH__WriteProductionDataMember
                        1749 --	    .ef
                        1750 .LDW17:
                        1751 	.global	___ghs_eofn_PRODFLASH_PutManufacturingSupportMode
                        1752 ___ghs_eofn_PRODFLASH_PutManufacturingSupportMode:
                        1753 	.type	_PRODFLASH_PutManufacturingSupportMode,@function
                        1754 	.size	_PRODFLASH_PutManufacturingSupportMode,.-_PRODFLASH_PutManufacturingSupportMode
                        1755 	.align	2
                        1756 
                        1757 --_ucData	r6	param
                        1758 
                        1759 	.section ".bss","awb"
                        1760 .L3345:
                        1761 	.type	.L3345,@object
                        1762 	.size	.L3345,0
                        1763 	.data
                        1764 	.text
                        1765 	.align	2
                        1766 	.align	2
                        1767 ..gh.f.f.1.e.32:
                        1768 	.type	..gh.f.f.1.e.32,@object
                        1769 	.size	..gh.f.f.1.e.32,0
                        1770 	.global	_PRODFLASH_PutEolCheckerByte
                        1771 _PRODFLASH_PutEolCheckerByte:
                        1772 --	    .bf
                        1773 .LDW27:
0000055c 0638           1774 	mov	r6,r7
0000055e 20361c00       1775 	movea	28,zero,r6
00000562 0142           1776 	mov	1,r8
00000564 bf07a6fc*      1777 	jr	_PRODFLASH__WriteProductionDataMember
                        1778 --	    .ef
                        1779 .LDW37:
                        1780 	.global	___ghs_eofn_PRODFLASH_PutEolCheckerByte
                        1781 ___ghs_eofn_PRODFLASH_PutEolCheckerByte:
                        1782 	.type	_PRODFLASH_PutEolCheckerByte,@function
                        1783 	.size	_PRODFLASH_PutEolCheckerByte,.-_PRODFLASH_PutEolCheckerByte
                        1784 	.align	2
                        1785 
                        1786 --_ucData	r6	param
                        1787 
                        1788 	.section ".bss","awb"
                        1789 .L3393:
                        1790 	.type	.L3393,@object
                        1791 	.size	.L3393,0
                        1792 	.data
                        1793 	.text
                        1794 	.align	2
                        1795 	.align	2
                        1796 ..gh.f.f.1.e.33:
                        1797 	.type	..gh.f.f.1.e.33,@object
                        1798 	.size	..gh.f.f.1.e.33,0
                        1799 	.global	_PRODFLASH_PutApplicationChecksum
                        1800 _PRODFLASH_PutApplicationChecksum:
                        1801 --	    .bf
                        1802 .LDW47:

                                                                      Page 32
                                                              C:\Users\nhuliyap\AppData\Local\Temp\gh_00006u41.s
00000568 0638           1803 	mov	r6,r7
0000056a 20361e00       1804 	movea	30,zero,r6
0000056e 0242           1805 	mov	2,r8
00000570 bf079afc*      1806 	jr	_PRODFLASH__WriteProductionDataMember
                        1807 --	    .ef
                        1808 .LDW57:
                        1809 	.global	___ghs_eofn_PRODFLASH_PutApplicationChecksum
                        1810 ___ghs_eofn_PRODFLASH_PutApplicationChecksum:
                        1811 	.type	_PRODFLASH_PutApplicationChecksum,@function
                        1812 	.size	_PRODFLASH_PutApplicationChecksum,.-_PRODFLASH_PutApplicationChecksum
                        1813 	.align	2
                        1814 
                        1815 --_ucData	r6	param
                        1816 
                        1817 	.section ".bss","awb"
                        1818 .L3441:
                        1819 	.type	.L3441,@object
                        1820 	.size	.L3441,0
                        1821 	.data
                        1822 	.text
                        1823 	.align	2
                        1824 --_DCM__UN_ProductionDataFlash	_DCM__UN_ProductionDataFlash	static
                        1825 
                        1826 	.data
                        1827 	.ghsnote version,17
                        1828 	.ghsnote tools,8195
                        1829 	.ghsnote options,144
                        1830 	.text
                        1831 	.align	2
                        1832 ..eof.C.3A.5C_ECU2.5CECU_Rivian_A1.5CTarget.5Crepo_projects.5CpRealEcu.5CcR_R2023.2E09.2E15.5Cmake.5Coutput.5Cobjects.5CProductionFlashInterface...43.3A.5C_ECU2.5CECU_Rivian_A1.5CTarget.5Crepo_projects.5CpRealEcu.5CcR_R2023.2E09.2E15.5Cmake..65045C66..0::
                        1833 	.section	.debug_info
                        1834 .Ldw_begin:
00000000 7d250000       1835 	.word	.Ldw_end-.Ldw_begin-4
00000004 0200           1836 	.byte	2,0
00000006 00000000*      1837 	.word	.Ldw_abbr_begin
0000000a 04             1838 	.byte	4
                        1839 	.section	.debug_abbrev
                        1840 .Ldw_abbr_begin:
                        1841 	.section	.debug_info
0000000b 01             1842 	.byte	1
0000000c 00000000*      1843 	.word	..bof.C.3A.5C_ECU2.5CECU_Rivian_A1.5CTarget.5Crepo_projects.5CpRealEcu.5CcR_R2023.2E09.2E15.5Cmake.5Coutput.5Cobjects.5CProductionFlashInterface...43.3A.5C_ECU2.5CECU_Rivian_A1.5CTarget.5Crepo_projects.5CpRealEcu.5CcR_R2023.2E09.2E15.5Cmake..65045C66..0
00000010 00000000*      1844 	.word	..eof.C.3A.5C_ECU2.5CECU_Rivian_A1.5CTarget.5Crepo_projects.5CpRealEcu.5CcR_R2023.2E09.2E15.5Cmake.5Coutput.5Cobjects.5CProductionFlashInterface...43.3A.5C_ECU2.5CECU_Rivian_A1.5CTarget.5Crepo_projects.5CpRealEcu.5CcR_R2023.2E09.2E15.5Cmake..65045C66..0
00000014 2e2e2f736f75   1845 	.strz	"../source/wrappers/NVM_MANAGER/ProductionFlashInterface.c"
0000001a 7263652f7772 
00000020 617070657273 
00000026 2f4e564d5f4d 
0000002c 414e41474552 
00000032 2f50726f6475 
00000038 6374696f6e46 
0000003e 6c617368496e 
00000044 746572666163 
0000004a 652e6300 
0000004e 433a5c5f4543   1846 	.strz	"C:\\_ECU2\\ECU_Rivian_A1\\Target\\repo_projects\\pRealEcu\\cR_R2023.09.15\\make"
00000054 55325c454355 
0000005a 5f5269766961 
00000060 6e5f41315c54 
00000066 61726765745c 
0000006c 7265706f5f70 
00000072 726f6a656374 
00000078 735c70526561 
0000007e 6c4563755c63 

                                                                      Page 33
                                                              C:\Users\nhuliyap\AppData\Local\Temp\gh_00006u41.s
00000084 525f52323032 
0000008a 332e30392e31 
00000090 355c6d616b65 
00000096 00 
00000097 474853204320   1847 	.strz	"GHS C 2015.1.7 [dual]"
0000009d 323031352e31 
000000a3 2e37205b6475 
000000a9 616c5d00 
000000ad 0100           1848 	.byte	1,0
000000af 00000000*      1849 	.word	.Ldw_line_begin
000000b3 00000000*      1850 	.word	.Ldw_macinfo_begin
000000b7 00             1851 	.byte	0
                        1852 
                        1853 	.section	.debug_abbrev
00000000 01             1854 	.byte	1
00000001 11             1855 	.byte	17
00000002 01             1856 	.byte	1
00000003 1101           1857 	.byte	17,1
00000005 1201           1858 	.byte	18,1
00000007 0308           1859 	.byte	3,8
00000009 1b08           1860 	.byte	27,8
0000000b 2508           1861 	.byte	37,8
0000000d 1305           1862 	.byte	19,5
0000000f 1006           1863 	.byte	16,6
00000011 4306           1864 	.byte	67,6
00000013 420b           1865 	.byte	66,11
00000015 0000           1866 	.byte	0,0
                        1867 
                        1868 	.section	.debug_line
                        1869 .Ldw_line_begin:
00000000 be0c0000       1870 	.word	.Ldw_line_end-.Ldw_line_begin-4
00000004 0200           1871 	.byte	2,0
00000006 00000000*      1872 	.word	.Ldw_lpro_end-.Ldw_lpro_begin
                        1873 .Ldw_lpro_begin:
0000000a 01             1874 	.byte	1
0000000b 00             1875 	.byte	0
0000000c 00             1876 	.byte	0
0000000d 04             1877 	.byte	4
0000000e 0a             1878 	.byte	10
0000000f 000101         1879 	.byte	0,1,1
00000012 010100         1880 	.byte	1,1,0
00000015 000001         1881 	.byte	0,0,1
00000018 00             1882 	.byte	0
00000019 2e2e2f736f75   1883 	.strz	"../source/wrappers/NVM_MANAGER/ProductionFlashInterface.c"
0000001f 7263652f7772 
00000025 617070657273 
0000002b 2f4e564d5f4d 
00000031 414e41474552 
00000037 2f50726f6475 
0000003d 6374696f6e46 
00000043 6c617368496e 
00000049 746572666163 
0000004f 652e6300 
00000053 000000         1884 	.byte	0,0,0
00000056 2e2e2f736f75   1885 	.strz	"../source/common/Std_Types.hpp"
0000005c 7263652f636f 
00000062 6d6d6f6e2f53 
00000068 74645f547970 
0000006e 65732e687070 
00000074 00 
00000075 000000         1886 	.byte	0,0,0

                                                                      Page 34
                                                              C:\Users\nhuliyap\AppData\Local\Temp\gh_00006u41.s
00000078 2e2e2f736f75   1887 	.strz	"../source/common/Platform_Types.hpp"
0000007e 7263652f636f 
00000084 6d6d6f6e2f50 
0000008a 6c6174666f72 
00000090 6d5f54797065 
00000096 732e68707000 
0000009c 000000         1888 	.byte	0,0,0
0000009f 2e2e2f736f75   1889 	.strz	"../source/common/Compiler.hpp"
000000a5 7263652f636f 
000000ab 6d6d6f6e2f43 
000000b1 6f6d70696c65 
000000b7 722e68707000 
000000bd 000000         1890 	.byte	0,0,0
000000c0 2e2e2f736f75   1891 	.strz	"../source/ProjectCompiler/Compiler_Cfg.hpp"
000000c6 7263652f5072 
000000cc 6f6a65637443 
000000d2 6f6d70696c65 
000000d8 722f436f6d70 
000000de 696c65725f43 
000000e4 66672e687070 
000000ea 00 
000000eb 000000         1892 	.byte	0,0,0
000000ee 2e2e2f736f75   1893 	.strz	"../source/ProjectCompiler/CompilerCfg_SwcServiceOs.hpp"
000000f4 7263652f5072 
000000fa 6f6a65637443 
00000100 6f6d70696c65 
00000106 722f436f6d70 
0000010c 696c65724366 
00000112 675f53776353 
00000118 657276696365 
0000011e 4f732e687070 
00000124 00 
00000125 000000         1894 	.byte	0,0,0
00000128 2e2e2f736f75   1895 	.strz	"../source/wrappers/NVM_MANAGER/ProductionFlashInterface.hpp"
0000012e 7263652f7772 
00000134 617070657273 
0000013a 2f4e564d5f4d 
00000140 414e41474552 
00000146 2f50726f6475 
0000014c 6374696f6e46 
00000152 6c617368496e 
00000158 746572666163 
0000015e 652e68707000 
00000164 000000         1896 	.byte	0,0,0
00000167 2e2e2f736f75   1897 	.strz	"../source/wrappers/NVM_MANAGER/ProductionFlashInterfaceX.hpp"
0000016d 7263652f7772 
00000173 617070657273 
00000179 2f4e564d5f4d 
0000017f 414e41474552 
00000185 2f50726f6475 
0000018b 6374696f6e46 
00000191 6c617368496e 
00000197 746572666163 
0000019d 65582e687070 
000001a3 00 
000001a4 000000         1898 	.byte	0,0,0
000001a7 2e2e2f736f75   1899 	.strz	"../source/McalMcu/types.hpp"
000001ad 7263652f4d63 
000001b3 616c4d63752f 
000001b9 74797065732e 
000001bf 68707000 

                                                                      Page 35
                                                              C:\Users\nhuliyap\AppData\Local\Temp\gh_00006u41.s
000001c3 000000         1900 	.byte	0,0,0
000001c6 2e2e2f736f75   1901 	.strz	"../source/McalFls/Fls.hpp"
000001cc 7263652f4d63 
000001d2 616c466c732f 
000001d8 466c732e6870 
000001de 7000 
000001e0 000000         1902 	.byte	0,0,0
000001e3 2e2e2f736f75   1903 	.strz	"../source/ProjectCfg/Fls_Cfg.hpp"
000001e9 7263652f5072 
000001ef 6f6a65637443 
000001f5 66672f466c73 
000001fb 5f4366672e68 
00000201 707000 
00000204 000000         1904 	.byte	0,0,0
00000207 2e2e2f736f75   1905 	.strz	"../source/EcuabMemIf/MemIf_Types.hpp"
0000020d 7263652f4563 
00000213 7561624d656d 
00000219 49662f4d656d 
0000021f 49665f547970 
00000225 65732e687070 
0000022b 00 
0000022c 000000         1906 	.byte	0,0,0
0000022f 2e2e2f736f75   1907 	.strz	"../source/McalFls/Fls_Types.hpp"
00000235 7263652f4d63 
0000023b 616c466c732f 
00000241 466c735f5479 
00000247 7065732e6870 
0000024d 7000 
0000024f 000000         1908 	.byte	0,0,0
00000252 2e2e2f736f75   1909 	.strz	"../source/McalFls/Fls_PBTypes.hpp"
00000258 7263652f4d63 
0000025e 616c466c732f 
00000264 466c735f5042 
0000026a 54797065732e 
00000270 68707000 
00000274 000000         1910 	.byte	0,0,0
00000277 2e2e2f736f75   1911 	.strz	"../source/ProjectCompiler/MemMap.hpp"
0000027d 7263652f5072 
00000283 6f6a65637443 
00000289 6f6d70696c65 
0000028f 722f4d656d4d 
00000295 61702e687070 
0000029b 00 
0000029c 000000         1912 	.byte	0,0,0
0000029f 2e2e2f736f75   1913 	.strz	"../source/ProjectCompiler/MemMap_Common.hpp"
000002a5 7263652f5072 
000002ab 6f6a65637443 
000002b1 6f6d70696c65 
000002b7 722f4d656d4d 
000002bd 61705f436f6d 
000002c3 6d6f6e2e6870 
000002c9 7000 
000002cb 000000         1914 	.byte	0,0,0
000002ce 2e2e2f736f75   1915 	.strz	"../source/McalFls/r_typedefs.hpp"
000002d4 7263652f4d63 
000002da 616c466c732f 
000002e0 725f74797065 
000002e6 646566732e68 
000002ec 707000 
000002ef 000000         1916 	.byte	0,0,0
000002f2 2e2e2f736f75   1917 	.strz	"../source/McalFls/r_fdl_types.hpp"

                                                                      Page 36
                                                              C:\Users\nhuliyap\AppData\Local\Temp\gh_00006u41.s
000002f8 7263652f4d63 
000002fe 616c466c732f 
00000304 725f66646c5f 
0000030a 74797065732e 
00000310 68707000 
00000314 000000         1918 	.byte	0,0,0
00000317 2e2e2f736f75   1919 	.strz	"../source/McalFls/fdl_descriptor.hpp"
0000031d 7263652f4d63 
00000323 616c466c732f 
00000329 66646c5f6465 
0000032f 736372697074 
00000335 6f722e687070 
0000033b 00 
0000033c 000000         1920 	.byte	0,0,0
0000033f 2e2e2f736f75   1921 	.strz	"../source/McalFls/r_fdl.hpp"
00000345 7263652f4d63 
0000034b 616c466c732f 
00000351 725f66646c2e 
00000357 68707000 
0000035b 000000         1922 	.byte	0,0,0
0000035e 2e2e2f736f75   1923 	.strz	"../source/ProjectCfg/CfgMcalFls_Fdl.hpp"
00000364 7263652f5072 
0000036a 6f6a65637443 
00000370 66672f436667 
00000376 4d63616c466c 
0000037c 735f46646c2e 
00000382 68707000 
00000386 000000         1924 	.byte	0,0,0
00000389 2e2e2f736f75   1925 	.strz	"../source/SwcServiceSchM/SchM_Fls.hpp"
0000038f 7263652f5377 
00000395 635365727669 
0000039b 63655363684d 
000003a1 2f5363684d5f 
000003a7 466c732e6870 
000003ad 7000 
000003af 000000         1926 	.byte	0,0,0
000003b2 2e2e2f736f75   1927 	.strz	"../source/wrappers/OS/Os.hpp"
000003b8 7263652f7772 
000003be 617070657273 
000003c4 2f4f532f4f73 
000003ca 2e68707000 
000003cf 000000         1928 	.byte	0,0,0
000003d2 2e2e2f736f75   1929 	.strz	"../source/SwcServiceOs/Types_SwcServiceOs.hpp"
000003d8 7263652f5377 
000003de 635365727669 
000003e4 63654f732f54 
000003ea 797065735f53 
000003f0 776353657276 
000003f6 6963654f732e 
000003fc 68707000 
00000400 000000         1930 	.byte	0,0,0
00000403 2e2e2f736f75   1931 	.strz	"../source/ProjectCompiler/Os_MemMap.hpp"
00000409 7263652f5072 
0000040f 6f6a65637443 
00000415 6f6d70696c65 
0000041b 722f4f735f4d 
00000421 656d4d61702e 
00000427 68707000 
0000042b 000000         1932 	.byte	0,0,0
0000042e 2e2e2f736f75   1933 	.strz	"../source/ProjectCfg/Os_Cfg.hpp"
00000434 7263652f5072 

                                                                      Page 37
                                                              C:\Users\nhuliyap\AppData\Local\Temp\gh_00006u41.s
0000043a 6f6a65637443 
00000440 66672f4f735f 
00000446 4366672e6870 
0000044c 7000 
0000044e 000000         1934 	.byte	0,0,0
00000451 2e2e2f736f75   1935 	.strz	"../source/McalDio/gpioX.hpp"
00000457 7263652f4d63 
0000045d 616c44696f2f 
00000463 6770696f582e 
00000469 68707000 
0000046d 000000         1936 	.byte	0,0,0
00000470 2e2e2f736f75   1937 	.strz	"../source/ProjectCfg/CfgMcalDio.hpp"
00000476 7263652f5072 
0000047c 6f6a65637443 
00000482 66672f436667 
00000488 4d63616c4469 
0000048e 6f2e68707000 
00000494 000000         1938 	.byte	0,0,0
00000497 2e2e2f736f75   1939 	.strz	"../source/McalDio/Types_McalDio.hpp"
0000049d 7263652f4d63 
000004a3 616c44696f2f 
000004a9 54797065735f 
000004af 4d63616c4469 
000004b5 6f2e68707000 
000004bb 000000         1940 	.byte	0,0,0
000004be 2e2e2f736f75   1941 	.strz	"../source/ProjectCfg/CfgSwcServiceOs.hpp"
000004c4 7263652f5072 
000004ca 6f6a65637443 
000004d0 66672f436667 
000004d6 537763536572 
000004dc 766963654f73 
000004e2 2e68707000 
000004e7 000000         1942 	.byte	0,0,0
000004ea 00             1943 	.byte	0
                        1944 .Ldw_lpro_end:
                        1945 	.section	.debug_macinfo
                        1946 .Ldw_macinfo_begin:
                        1947 	.section	.debug_frame
                        1948 .LDW_4cbe898:
00000000 00000000*      1949 	.word	.LDW_unq_2-.LDW_unq_1
                        1950 .LDW_unq_1:
00000004 ffffffff       1951 	.byte	255,255,255,255
00000008 01             1952 	.byte	1
00000009 00             1953 	.byte	0
0000000a 01             1954 	.byte	1
0000000b 01             1955 	.byte	1
0000000c 1f             1956 	.byte	31
0000000d 0c             1957 	.byte	12
0000000e 03             1958 	.byte	3
0000000f 00             1959 	.byte	0
00000010 07             1960 	.byte	7
00000011 00             1961 	.byte	0
00000012 07             1962 	.byte	7
00000013 01             1963 	.byte	1
00000014 07             1964 	.byte	7
00000015 02             1965 	.byte	2
00000016 07             1966 	.byte	7
00000017 03             1967 	.byte	3
00000018 07             1968 	.byte	7
00000019 04             1969 	.byte	4
0000001a 07             1970 	.byte	7

                                                                      Page 38
                                                              C:\Users\nhuliyap\AppData\Local\Temp\gh_00006u41.s
0000001b 05             1971 	.byte	5
0000001c 07             1972 	.byte	7
0000001d 06             1973 	.byte	6
0000001e 07             1974 	.byte	7
0000001f 07             1975 	.byte	7
00000020 07             1976 	.byte	7
00000021 08             1977 	.byte	8
00000022 07             1978 	.byte	7
00000023 09             1979 	.byte	9
00000024 07             1980 	.byte	7
00000025 0a             1981 	.byte	10
00000026 07             1982 	.byte	7
00000027 0b             1983 	.byte	11
00000028 07             1984 	.byte	7
00000029 0c             1985 	.byte	12
0000002a 07             1986 	.byte	7
0000002b 0d             1987 	.byte	13
0000002c 07             1988 	.byte	7
0000002d 0e             1989 	.byte	14
0000002e 07             1990 	.byte	7
0000002f 0f             1991 	.byte	15
00000030 07             1992 	.byte	7
00000031 10             1993 	.byte	16
00000032 07             1994 	.byte	7
00000033 11             1995 	.byte	17
00000034 07             1996 	.byte	7
00000035 12             1997 	.byte	18
00000036 07             1998 	.byte	7
00000037 13             1999 	.byte	19
00000038 08             2000 	.byte	8
00000039 14             2001 	.byte	20
0000003a 08             2002 	.byte	8
0000003b 15             2003 	.byte	21
0000003c 08             2004 	.byte	8
0000003d 16             2005 	.byte	22
0000003e 08             2006 	.byte	8
0000003f 17             2007 	.byte	23
00000040 08             2008 	.byte	8
00000041 18             2009 	.byte	24
00000042 08             2010 	.byte	8
00000043 19             2011 	.byte	25
00000044 08             2012 	.byte	8
00000045 1a             2013 	.byte	26
00000046 08             2014 	.byte	8
00000047 1b             2015 	.byte	27
00000048 08             2016 	.byte	8
00000049 1c             2017 	.byte	28
0000004a 08             2018 	.byte	8
0000004b 1d             2019 	.byte	29
0000004c 07             2020 	.byte	7
0000004d 1e             2021 	.byte	30
0000004e 08             2022 	.byte	8
0000004f 1f             2023 	.byte	31
00000050 07             2024 	.byte	7
00000051 20             2025 	.byte	32
00000052 07             2026 	.byte	7
00000053 21             2027 	.byte	33
00000054 07             2028 	.byte	7
00000055 22             2029 	.byte	34
00000056 07             2030 	.byte	7
00000057 23             2031 	.byte	35

                                                                      Page 39
                                                              C:\Users\nhuliyap\AppData\Local\Temp\gh_00006u41.s
00000058 07             2032 	.byte	7
00000059 24             2033 	.byte	36
0000005a 07             2034 	.byte	7
0000005b 25             2035 	.byte	37
0000005c 07             2036 	.byte	7
0000005d 26             2037 	.byte	38
0000005e 07             2038 	.byte	7
0000005f 27             2039 	.byte	39
00000060 07             2040 	.byte	7
00000061 28             2041 	.byte	40
00000062 07             2042 	.byte	7
00000063 29             2043 	.byte	41
00000064 07             2044 	.byte	7
00000065 2a             2045 	.byte	42
00000066 07             2046 	.byte	7
00000067 2b             2047 	.byte	43
00000068 07             2048 	.byte	7
00000069 2c             2049 	.byte	44
0000006a 07             2050 	.byte	7
0000006b 2d             2051 	.byte	45
0000006c 07             2052 	.byte	7
0000006d 2e             2053 	.byte	46
0000006e 07             2054 	.byte	7
0000006f 2f             2055 	.byte	47
00000070 07             2056 	.byte	7
00000071 30             2057 	.byte	48
00000072 07             2058 	.byte	7
00000073 31             2059 	.byte	49
00000074 07             2060 	.byte	7
00000075 32             2061 	.byte	50
00000076 07             2062 	.byte	7
00000077 33             2063 	.byte	51
00000078 07             2064 	.byte	7
00000079 34             2065 	.byte	52
0000007a 07             2066 	.byte	7
0000007b 35             2067 	.byte	53
0000007c 07             2068 	.byte	7
0000007d 36             2069 	.byte	54
0000007e 07             2070 	.byte	7
0000007f 37             2071 	.byte	55
00000080 07             2072 	.byte	7
00000081 38             2073 	.byte	56
00000082 07             2074 	.byte	7
00000083 39             2075 	.byte	57
00000084 07             2076 	.byte	7
00000085 3a             2077 	.byte	58
00000086 07             2078 	.byte	7
00000087 3b             2079 	.byte	59
00000088 07             2080 	.byte	7
00000089 3c             2081 	.byte	60
0000008a 07             2082 	.byte	7
0000008b 3d             2083 	.byte	61
0000008c 07             2084 	.byte	7
0000008d 3e             2085 	.byte	62
0000008e 07             2086 	.byte	7
0000008f 3f             2087 	.byte	63
                        2088 .LDW_unq_2:
                        2089 	.section	.debug_info
                        2090 .LDW_4056b40:
000000b8 25             2091 	.byte	37
000000b9 756e7369676e   2092 	.strz	"unsigned char"

                                                                      Page 40
                                                              C:\Users\nhuliyap\AppData\Local\Temp\gh_00006u41.s
000000bf 656420636861 
000000c5 7200 
000000c7 08             2093 	.byte	8
000000c8 01             2094 	.byte	1
                        2095 
                        2096 	.section	.debug_abbrev
00000017 25             2097 	.byte	37
00000018 24             2098 	.byte	36
00000019 00             2099 	.byte	0
0000001a 0308           2100 	.byte	3,8
0000001c 3e0b           2101 	.byte	62,11
0000001e 0b0b           2102 	.byte	11,11
00000020 0000           2103 	.byte	0,0
                        2104 
                        2105 	.section	.debug_info
                        2106 .LDW_406b9c8:
000000c9 29             2107 	.byte	41
000000ca 00000000*      2108 	.word	.LDW_406b970
                        2109 
                        2110 	.section	.debug_abbrev
00000022 29             2111 	.byte	41
00000023 26             2112 	.byte	38
00000024 00             2113 	.byte	0
00000025 4910           2114 	.byte	73,16
00000027 0000           2115 	.byte	0,0
                        2116 
                        2117 	.section	.debug_info
                        2118 .LDW_4057080:
000000ce 2f             2119 	.byte	47
000000cf 00000000*      2120 	.word	.LDW_406b9c8
                        2121 
                        2122 	.section	.debug_abbrev
00000029 2f             2123 	.byte	47
0000002a 0f             2124 	.byte	15
0000002b 00             2125 	.byte	0
0000002c 4910           2126 	.byte	73,16
0000002e 0000           2127 	.byte	0,0
                        2128 
                        2129 	.section	.debug_info
                        2130 .LDW_4057048:
000000d3 45             2131 	.byte	69
000000d4 01             2132 	.byte	1
                        2133 
                        2134 	.section	.debug_abbrev
00000030 45             2135 	.byte	69
00000031 15             2136 	.byte	21
00000032 01             2137 	.byte	1
00000033 270c           2138 	.byte	39,12
00000035 0000           2139 	.byte	0,0
                        2140 
                        2141 	.section	.debug_info
                        2142 .LDW_40518a8:
000000d5 12             2143 	.byte	18
000000d6 00000000*      2144 	.word	.LDW_406b918
000000da 00             2145 	.byte	0
                        2146 
                        2147 	.section	.debug_abbrev
00000037 12             2148 	.byte	18
00000038 05             2149 	.byte	5
00000039 00             2150 	.byte	0
0000003a 4910           2151 	.byte	73,16

                                                                      Page 41
                                                              C:\Users\nhuliyap\AppData\Local\Temp\gh_00006u41.s
0000003c 4b0c           2152 	.byte	75,12
0000003e 0000           2153 	.byte	0,0
                        2154 
                        2155 	.section	.debug_info
                        2156 .LDW_4051908:
000000db 12             2157 	.byte	18
000000dc 00000000*      2158 	.word	.LDW_4057080
000000e0 00             2159 	.byte	0
                        2160 
                        2161 .LDW_4051938:
000000e1 12             2162 	.byte	18
000000e2 00000000*      2163 	.word	.LDW_406b9c8
000000e6 00             2164 	.byte	0
                        2165 
000000e7 00             2166 	.byte	0
                        2167 
                        2168 .LDW_4056e50:
000000e8 25             2169 	.byte	37
000000e9 696e7400       2170 	.strz	"int"
000000ed 05             2171 	.byte	5
000000ee 04             2172 	.byte	4
                        2173 
                        2174 .LDW_4ba44a8:
000000ef 3a             2175 	.byte	58
000000f0 00             2176 	.byte	0
000000f1 40             2177 	.byte	64
000000f2 00000000*      2178 	.word	.LDW_406b970
                        2179 
                        2180 	.section	.debug_abbrev
00000040 3a             2181 	.byte	58
00000041 01             2182 	.byte	1
00000042 01             2183 	.byte	1
00000043 090b           2184 	.byte	9,11
00000045 0b0f           2185 	.byte	11,15
00000047 4910           2186 	.byte	73,16
00000049 0000           2187 	.byte	0,0
                        2188 
                        2189 	.section	.debug_info
000000f6 32             2190 	.byte	50
000000f7 00000000*      2191 	.word	.LDW_4056e50
000000fb 04             2192 	.byte	4
000000fc 00             2193 	.byte	0
000000fd 3f             2194 	.byte	63
                        2195 
                        2196 	.section	.debug_abbrev
0000004b 32             2197 	.byte	50
0000004c 21             2198 	.byte	33
0000004d 00             2199 	.byte	0
0000004e 4910           2200 	.byte	73,16
00000050 0b0f           2201 	.byte	11,15
00000052 220d           2202 	.byte	34,13
00000054 2f0d           2203 	.byte	47,13
00000056 0000           2204 	.byte	0,0
                        2205 
                        2206 	.section	.debug_info
000000fe 00             2207 	.byte	0
                        2208 
                        2209 .LDW_4056a98:
000000ff 25             2210 	.byte	37
00000100 756e7369676e   2211 	.strz	"unsigned long"
00000106 6564206c6f6e 

                                                                      Page 42
                                                              C:\Users\nhuliyap\AppData\Local\Temp\gh_00006u41.s
0000010c 6700 
0000010e 07             2212 	.byte	7
0000010f 04             2213 	.byte	4
                        2214 
                        2215 .LDW_4056c58:
00000110 25             2216 	.byte	37
00000111 756e7369676e   2217 	.strz	"unsigned short"
00000117 65642073686f 
0000011d 727400 
00000120 07             2218 	.byte	7
00000121 02             2219 	.byte	2
                        2220 
                        2221 .LDW_4056c90:
00000122 44             2222 	.byte	68
00000123 00000000*      2223 	.word	.LDW_4ba4638
00000127 01             2224 	.byte	1
                        2225 
                        2226 	.section	.debug_abbrev
00000058 44             2227 	.byte	68
00000059 15             2228 	.byte	21
0000005a 01             2229 	.byte	1
0000005b 4910           2230 	.byte	73,16
0000005d 270c           2231 	.byte	39,12
0000005f 0000           2232 	.byte	0,0
                        2233 
                        2234 	.section	.debug_info
                        2235 .LDW_40519f8:
00000128 12             2236 	.byte	18
00000129 00000000*      2237 	.word	.LDW_406b918
0000012d 00             2238 	.byte	0
                        2239 
0000012e 00             2240 	.byte	0
                        2241 
                        2242 .LDW_4056ad0:
0000012f 44             2243 	.byte	68
00000130 00000000*      2244 	.word	.LDW_4ba4588
00000134 01             2245 	.byte	1
                        2246 
                        2247 .LDW_4051998:
00000135 12             2248 	.byte	18
00000136 00000000*      2249 	.word	.LDW_406b918
0000013a 00             2250 	.byte	0
                        2251 
0000013b 00             2252 	.byte	0
                        2253 
                        2254 .LDW_4056d00:
0000013c 44             2255 	.byte	68
0000013d 00000000*      2256 	.word	.LDW_406b970
00000141 01             2257 	.byte	1
                        2258 
                        2259 .LDW_4c1ab18:
00000142 12             2260 	.byte	18
00000143 00000000*      2261 	.word	.LDW_4ba4588
00000147 00             2262 	.byte	0
                        2263 
00000148 00             2264 	.byte	0
                        2265 
                        2266 .LDW_4056cc8:
00000149 44             2267 	.byte	68
0000014a 00000000*      2268 	.word	.LDW_406b970
0000014e 01             2269 	.byte	1

                                                                      Page 43
                                                              C:\Users\nhuliyap\AppData\Local\Temp\gh_00006u41.s
                        2270 
                        2271 .LDW_4c1ab78:
0000014f 12             2272 	.byte	18
00000150 00000000*      2273 	.word	.LDW_4ba4588
00000154 00             2274 	.byte	0
                        2275 
                        2276 .LDW_4c1abd8:
00000155 12             2277 	.byte	18
00000156 00000000*      2278 	.word	.LDW_4ba4638
0000015a 00             2279 	.byte	0
                        2280 
0000015b 00             2281 	.byte	0
                        2282 
                        2283 .LDW_4056e88:
0000015c 45             2284 	.byte	69
0000015d 01             2285 	.byte	1
                        2286 
                        2287 .LDW_4c1aae8:
0000015e 12             2288 	.byte	18
0000015f 00000000*      2289 	.word	.LDW_406b970
00000163 00             2290 	.byte	0
                        2291 
00000164 00             2292 	.byte	0
                        2293 
                        2294 .LDW_4bc31d8:
00000165 2b             2295 	.byte	43
00000166 00000000*      2296 	.word	.LDW_4bc2f70
                        2297 
                        2298 	.section	.debug_abbrev
00000061 2b             2299 	.byte	43
00000062 35             2300 	.byte	53
00000063 00             2301 	.byte	0
00000064 4910           2302 	.byte	73,16
00000066 0000           2303 	.byte	0,0
                        2304 
                        2305 	.section	.debug_info
                        2306 .LDW_4056b08:
0000016a 2f             2307 	.byte	47
0000016b 00000000*      2308 	.word	.LDW_406b970
                        2309 
                        2310 .LDW_4056e18:
0000016f 45             2311 	.byte	69
00000170 01             2312 	.byte	1
                        2313 
                        2314 .LDW_4c1aa88:
00000171 12             2315 	.byte	18
00000172 00000000*      2316 	.word	.LDW_406b970
00000176 00             2317 	.byte	0
                        2318 
                        2319 .LDW_4c1aab8:
00000177 12             2320 	.byte	18
00000178 00000000*      2321 	.word	.LDW_4056b08
0000017c 00             2322 	.byte	0
                        2323 
0000017d 00             2324 	.byte	0
                        2325 
                        2326 .LDW_4056d38:
0000017e 44             2327 	.byte	68
0000017f 00000000*      2328 	.word	.LDW_4056b08
00000183 01             2329 	.byte	1
                        2330 

                                                                      Page 44
                                                              C:\Users\nhuliyap\AppData\Local\Temp\gh_00006u41.s
00000184 00             2331 	.byte	0
                        2332 
                        2333 .LDW_4056ec0:
00000185 44             2334 	.byte	68
00000186 00000000*      2335 	.word	.LDW_406b970
0000018a 01             2336 	.byte	1
                        2337 
                        2338 .LDW_4c1a548:
0000018b 12             2339 	.byte	18
0000018c 00000000*      2340 	.word	.LDW_4056b08
00000190 00             2341 	.byte	0
                        2342 
00000191 00             2343 	.byte	0
                        2344 
                        2345 .LDW_40570f0:
00000192 44             2346 	.byte	68
00000193 00000000*      2347 	.word	.LDW_406b970
00000197 01             2348 	.byte	1
                        2349 
                        2350 .LDW_4c1a9c8:
00000198 12             2351 	.byte	18
00000199 00000000*      2352 	.word	.LDW_4056b08
0000019d 00             2353 	.byte	0
                        2354 
0000019e 00             2355 	.byte	0
                        2356 
                        2357 .LDW_4056f30:
0000019f 44             2358 	.byte	68
000001a0 00000000*      2359 	.word	.LDW_406b970
000001a4 01             2360 	.byte	1
                        2361 
                        2362 .LDW_4c1a818:
000001a5 12             2363 	.byte	18
000001a6 00000000*      2364 	.word	.LDW_4056b08
000001aa 00             2365 	.byte	0
                        2366 
000001ab 00             2367 	.byte	0
                        2368 
                        2369 .LDW_4056f68:
000001ac 44             2370 	.byte	68
000001ad 00000000*      2371 	.word	.LDW_406b970
000001b1 01             2372 	.byte	1
                        2373 
                        2374 .LDW_4c1a758:
000001b2 12             2375 	.byte	18
000001b3 00000000*      2376 	.word	.LDW_4056b08
000001b7 00             2377 	.byte	0
                        2378 
000001b8 00             2379 	.byte	0
                        2380 
                        2381 .LDW_4056fd8:
000001b9 44             2382 	.byte	68
000001ba 00000000*      2383 	.word	.LDW_406b970
000001be 01             2384 	.byte	1
                        2385 
                        2386 .LDW_4c1a728:
000001bf 12             2387 	.byte	18
000001c0 00000000*      2388 	.word	.LDW_4056b08
000001c4 00             2389 	.byte	0
                        2390 
000001c5 00             2391 	.byte	0

                                                                      Page 45
                                                              C:\Users\nhuliyap\AppData\Local\Temp\gh_00006u41.s
                        2392 
                        2393 .LDW_4056b78:
000001c6 44             2394 	.byte	68
000001c7 00000000*      2395 	.word	.LDW_406b970
000001cb 01             2396 	.byte	1
                        2397 
                        2398 .LDW_4c1a968:
000001cc 12             2399 	.byte	18
000001cd 00000000*      2400 	.word	.LDW_4056b08
000001d1 00             2401 	.byte	0
                        2402 
000001d2 00             2403 	.byte	0
                        2404 
                        2405 .LDW_4056bb0:
000001d3 44             2406 	.byte	68
000001d4 00000000*      2407 	.word	.LDW_406b970
000001d8 01             2408 	.byte	1
                        2409 
                        2410 .LDW_4c1a9f8:
000001d9 12             2411 	.byte	18
000001da 00000000*      2412 	.word	.LDW_4056b08
000001de 00             2413 	.byte	0
                        2414 
000001df 00             2415 	.byte	0
                        2416 
                        2417 .LDW_4057128:
000001e0 44             2418 	.byte	68
000001e1 00000000*      2419 	.word	.LDW_406b970
000001e5 01             2420 	.byte	1
                        2421 
                        2422 .LDW_4c1aa28:
000001e6 12             2423 	.byte	18
000001e7 00000000*      2424 	.word	.LDW_4056b08
000001eb 00             2425 	.byte	0
                        2426 
000001ec 00             2427 	.byte	0
                        2428 
                        2429 .LDW_4057160:
000001ed 44             2430 	.byte	68
000001ee 00000000*      2431 	.word	.LDW_406b970
000001f2 01             2432 	.byte	1
                        2433 
                        2434 .LDW_4c1a848:
000001f3 12             2435 	.byte	18
000001f4 00000000*      2436 	.word	.LDW_4056b08
000001f8 00             2437 	.byte	0
                        2438 
000001f9 00             2439 	.byte	0
                        2440 
                        2441 .LDW_4057198:
000001fa 44             2442 	.byte	68
000001fb 00000000*      2443 	.word	.LDW_406b970
000001ff 01             2444 	.byte	1
                        2445 
                        2446 .LDW_4c1a458:
00000200 12             2447 	.byte	18
00000201 00000000*      2448 	.word	.LDW_4056b08
00000205 00             2449 	.byte	0
                        2450 
00000206 00             2451 	.byte	0
                        2452 

                                                                      Page 46
                                                              C:\Users\nhuliyap\AppData\Local\Temp\gh_00006u41.s
                        2453 .LDW_4d100b0:
00000207 44             2454 	.byte	68
00000208 00000000*      2455 	.word	.LDW_406b970
0000020c 01             2456 	.byte	1
                        2457 
                        2458 .LDW_4c1a6c8:
0000020d 12             2459 	.byte	18
0000020e 00000000*      2460 	.word	.LDW_4056b08
00000212 00             2461 	.byte	0
                        2462 
00000213 00             2463 	.byte	0
                        2464 
                        2465 .LDW_4d10078:
00000214 44             2466 	.byte	68
00000215 00000000*      2467 	.word	.LDW_406b970
00000219 01             2468 	.byte	1
                        2469 
                        2470 .LDW_4c1a878:
0000021a 12             2471 	.byte	18
0000021b 00000000*      2472 	.word	.LDW_4056b08
0000021f 00             2473 	.byte	0
                        2474 
00000220 00             2475 	.byte	0
                        2476 
                        2477 .LDW_4d10040:
00000221 44             2478 	.byte	68
00000222 00000000*      2479 	.word	.LDW_406b970
00000226 01             2480 	.byte	1
                        2481 
                        2482 .LDW_4c1a488:
00000227 12             2483 	.byte	18
00000228 00000000*      2484 	.word	.LDW_4056b08
0000022c 00             2485 	.byte	0
                        2486 
0000022d 00             2487 	.byte	0
                        2488 
                        2489 .LDW_4d0fc50:
0000022e 44             2490 	.byte	68
0000022f 00000000*      2491 	.word	.LDW_406b970
00000233 01             2492 	.byte	1
                        2493 
                        2494 .LDW_4c1a5d8:
00000234 12             2495 	.byte	18
00000235 00000000*      2496 	.word	.LDW_4056b08
00000239 00             2497 	.byte	0
                        2498 
0000023a 00             2499 	.byte	0
                        2500 
                        2501 .LDW_4d0fb38:
0000023b 44             2502 	.byte	68
0000023c 00000000*      2503 	.word	.LDW_406b970
00000240 01             2504 	.byte	1
                        2505 
                        2506 .LDW_4c1a668:
00000241 12             2507 	.byte	18
00000242 00000000*      2508 	.word	.LDW_4056b08
00000246 00             2509 	.byte	0
                        2510 
00000247 00             2511 	.byte	0
                        2512 
                        2513 .LDW_4d0fd68:

                                                                      Page 47
                                                              C:\Users\nhuliyap\AppData\Local\Temp\gh_00006u41.s
00000248 44             2514 	.byte	68
00000249 00000000*      2515 	.word	.LDW_406b970
0000024d 01             2516 	.byte	1
                        2517 
                        2518 .LDW_4d11270:
0000024e 12             2519 	.byte	18
0000024f 00000000*      2520 	.word	.LDW_4056b08
00000253 00             2521 	.byte	0
                        2522 
00000254 00             2523 	.byte	0
                        2524 
                        2525 .LDW_4d0fe80:
00000255 44             2526 	.byte	68
00000256 00000000*      2527 	.word	.LDW_406b970
0000025a 01             2528 	.byte	1
                        2529 
                        2530 .LDW_4d11630:
0000025b 12             2531 	.byte	18
0000025c 00000000*      2532 	.word	.LDW_4056b08
00000260 00             2533 	.byte	0
                        2534 
00000261 00             2535 	.byte	0
                        2536 
                        2537 .LDW_4d0fc18:
00000262 44             2538 	.byte	68
00000263 00000000*      2539 	.word	.LDW_406b970
00000267 01             2540 	.byte	1
                        2541 
                        2542 .LDW_4d112a0:
00000268 12             2543 	.byte	18
00000269 00000000*      2544 	.word	.LDW_4056b08
0000026d 00             2545 	.byte	0
                        2546 
0000026e 00             2547 	.byte	0
                        2548 
                        2549 .LDW_4d0fda0:
0000026f 44             2550 	.byte	68
00000270 00000000*      2551 	.word	.LDW_406b970
00000274 01             2552 	.byte	1
                        2553 
                        2554 .LDW_4d11420:
00000275 12             2555 	.byte	18
00000276 00000000*      2556 	.word	.LDW_4056b08
0000027a 00             2557 	.byte	0
                        2558 
0000027b 00             2559 	.byte	0
                        2560 
                        2561 .LDW_4d0fb70:
0000027c 45             2562 	.byte	69
0000027d 01             2563 	.byte	1
                        2564 
                        2565 .LDW_4d115a0:
0000027e 12             2566 	.byte	18
0000027f 00000000*      2567 	.word	.LDW_4057080
00000283 00             2568 	.byte	0
                        2569 
00000284 00             2570 	.byte	0
                        2571 
                        2572 .LDW_4d0fba8:
00000285 45             2573 	.byte	69
00000286 01             2574 	.byte	1

                                                                      Page 48
                                                              C:\Users\nhuliyap\AppData\Local\Temp\gh_00006u41.s
                        2575 
                        2576 .LDW_4d11450:
00000287 12             2577 	.byte	18
00000288 00000000*      2578 	.word	.LDW_4057080
0000028c 00             2579 	.byte	0
                        2580 
0000028d 00             2581 	.byte	0
                        2582 
                        2583 .LDW_4d0f978:
0000028e 45             2584 	.byte	69
0000028f 01             2585 	.byte	1
                        2586 
                        2587 .LDW_4d11540:
00000290 12             2588 	.byte	18
00000291 00000000*      2589 	.word	.LDW_4057080
00000295 00             2590 	.byte	0
                        2591 
00000296 00             2592 	.byte	0
                        2593 
                        2594 .LDW_4d0fbe0:
00000297 45             2595 	.byte	69
00000298 01             2596 	.byte	1
                        2597 
                        2598 .LDW_4d113c0:
00000299 12             2599 	.byte	18
0000029a 00000000*      2600 	.word	.LDW_4057080
0000029e 00             2601 	.byte	0
                        2602 
0000029f 00             2603 	.byte	0
                        2604 
                        2605 .LDW_4d0fc88:
000002a0 45             2606 	.byte	69
000002a1 01             2607 	.byte	1
                        2608 
                        2609 .LDW_4d11720:
000002a2 12             2610 	.byte	18
000002a3 00000000*      2611 	.word	.LDW_4057080
000002a7 00             2612 	.byte	0
                        2613 
000002a8 00             2614 	.byte	0
                        2615 
                        2616 .LDW_4d0feb8:
000002a9 25             2617 	.byte	37
000002aa 756e7369676e   2618 	.strz	"unsigned int"
000002b0 656420696e74 
000002b6 00 
000002b7 07             2619 	.byte	7
000002b8 04             2620 	.byte	4
                        2621 
                        2622 .LDW_4c1b0f0:
000002b9 3a             2623 	.byte	58
000002ba 00             2624 	.byte	0
000002bb 10             2625 	.byte	16
000002bc 00000000*      2626 	.word	.LDW_406b970
                        2627 
000002c0 32             2628 	.byte	50
000002c1 00000000*      2629 	.word	.LDW_4056e50
000002c5 04             2630 	.byte	4
000002c6 00             2631 	.byte	0
000002c7 0f             2632 	.byte	15
                        2633 

                                                                      Page 49
                                                              C:\Users\nhuliyap\AppData\Local\Temp\gh_00006u41.s
000002c8 00             2634 	.byte	0
                        2635 
                        2636 .LDW_4c1b178:
000002c9 3a             2637 	.byte	58
000002ca 00             2638 	.byte	0
000002cb 0a             2639 	.byte	10
000002cc 00000000*      2640 	.word	.LDW_406b970
                        2641 
000002d0 32             2642 	.byte	50
000002d1 00000000*      2643 	.word	.LDW_4056e50
000002d5 04             2644 	.byte	4
000002d6 00             2645 	.byte	0
000002d7 09             2646 	.byte	9
                        2647 
000002d8 00             2648 	.byte	0
                        2649 
                        2650 .LDW_4c1b200:
000002d9 3a             2651 	.byte	58
000002da 00             2652 	.byte	0
000002db 0a             2653 	.byte	10
000002dc 00000000*      2654 	.word	.LDW_406b970
                        2655 
000002e0 32             2656 	.byte	50
000002e1 00000000*      2657 	.word	.LDW_4056e50
000002e5 04             2658 	.byte	4
000002e6 00             2659 	.byte	0
000002e7 09             2660 	.byte	9
                        2661 
000002e8 00             2662 	.byte	0
                        2663 
                        2664 .LDW_4c1b288:
000002e9 3a             2665 	.byte	58
000002ea 00             2666 	.byte	0
000002eb 03             2667 	.byte	3
000002ec 00000000*      2668 	.word	.LDW_406b970
                        2669 
000002f0 32             2670 	.byte	50
000002f1 00000000*      2671 	.word	.LDW_4056e50
000002f5 04             2672 	.byte	4
000002f6 00             2673 	.byte	0
000002f7 02             2674 	.byte	2
                        2675 
000002f8 00             2676 	.byte	0
                        2677 
                        2678 .LDW_4c1b310:
000002f9 3a             2679 	.byte	58
000002fa 00             2680 	.byte	0
000002fb 03             2681 	.byte	3
000002fc 00000000*      2682 	.word	.LDW_406b970
                        2683 
00000300 32             2684 	.byte	50
00000301 00000000*      2685 	.word	.LDW_4056e50
00000305 04             2686 	.byte	4
00000306 00             2687 	.byte	0
00000307 02             2688 	.byte	2
                        2689 
00000308 00             2690 	.byte	0
                        2691 
                        2692 .LDW_4c1b398:
00000309 3a             2693 	.byte	58
0000030a 00             2694 	.byte	0

                                                                      Page 50
                                                              C:\Users\nhuliyap\AppData\Local\Temp\gh_00006u41.s
0000030b 03             2695 	.byte	3
0000030c 00000000*      2696 	.word	.LDW_406b970
                        2697 
00000310 32             2698 	.byte	50
00000311 00000000*      2699 	.word	.LDW_4056e50
00000315 04             2700 	.byte	4
00000316 00             2701 	.byte	0
00000317 02             2702 	.byte	2
                        2703 
00000318 00             2704 	.byte	0
                        2705 
                        2706 .LDW_4bc3438:
00000319 3a             2707 	.byte	58
0000031a 00             2708 	.byte	0
0000031b 0a             2709 	.byte	10
0000031c 00000000*      2710 	.word	.LDW_406b970
                        2711 
00000320 32             2712 	.byte	50
00000321 00000000*      2713 	.word	.LDW_4056e50
00000325 04             2714 	.byte	4
00000326 00             2715 	.byte	0
00000327 09             2716 	.byte	9
                        2717 
00000328 00             2718 	.byte	0
                        2719 
                        2720 .LDW_4bc34c0:
00000329 3a             2721 	.byte	58
0000032a 00             2722 	.byte	0
0000032b 0a             2723 	.byte	10
0000032c 00000000*      2724 	.word	.LDW_406b970
                        2725 
00000330 32             2726 	.byte	50
00000331 00000000*      2727 	.word	.LDW_4056e50
00000335 04             2728 	.byte	4
00000336 00             2729 	.byte	0
00000337 09             2730 	.byte	9
                        2731 
00000338 00             2732 	.byte	0
                        2733 
                        2734 .LDW_4bc3548:
00000339 3a             2735 	.byte	58
0000033a 00             2736 	.byte	0
0000033b 02             2737 	.byte	2
0000033c 00000000*      2738 	.word	.LDW_406b970
                        2739 
00000340 32             2740 	.byte	50
00000341 00000000*      2741 	.word	.LDW_4056e50
00000345 04             2742 	.byte	4
00000346 00             2743 	.byte	0
00000347 01             2744 	.byte	1
                        2745 
00000348 00             2746 	.byte	0
                        2747 
                        2748 .LDW_4bc35d0:
00000349 3a             2749 	.byte	58
0000034a 00             2750 	.byte	0
0000034b 06             2751 	.byte	6
0000034c 00000000*      2752 	.word	.LDW_406b970
                        2753 
00000350 32             2754 	.byte	50
00000351 00000000*      2755 	.word	.LDW_4056e50

                                                                      Page 51
                                                              C:\Users\nhuliyap\AppData\Local\Temp\gh_00006u41.s
00000355 04             2756 	.byte	4
00000356 00             2757 	.byte	0
00000357 05             2758 	.byte	5
                        2759 
00000358 00             2760 	.byte	0
                        2761 
                        2762 .LDW_4d22fb0:
00000359 3a             2763 	.byte	58
0000035a 00             2764 	.byte	0
0000035b 09             2765 	.byte	9
0000035c 00000000*      2766 	.word	.LDW_406b970
                        2767 
00000360 32             2768 	.byte	50
00000361 00000000*      2769 	.word	.LDW_4056e50
00000365 04             2770 	.byte	4
00000366 00             2771 	.byte	0
00000367 08             2772 	.byte	8
                        2773 
00000368 00             2774 	.byte	0
                        2775 
                        2776 .LDW_4d22510:
00000369 3a             2777 	.byte	58
0000036a 00             2778 	.byte	0
0000036b 14             2779 	.byte	20
0000036c 00000000*      2780 	.word	.LDW_406b970
                        2781 
00000370 32             2782 	.byte	50
00000371 00000000*      2783 	.word	.LDW_4056e50
00000375 04             2784 	.byte	4
00000376 00             2785 	.byte	0
00000377 13             2786 	.byte	19
                        2787 
00000378 00             2788 	.byte	0
                        2789 
                        2790 .LDW_4d22bf8:
00000379 3a             2791 	.byte	58
0000037a 00             2792 	.byte	0
0000037b 03             2793 	.byte	3
0000037c 00000000*      2794 	.word	.LDW_406b970
                        2795 
00000380 32             2796 	.byte	50
00000381 00000000*      2797 	.word	.LDW_4056e50
00000385 04             2798 	.byte	4
00000386 00             2799 	.byte	0
00000387 02             2800 	.byte	2
                        2801 
00000388 00             2802 	.byte	0
                        2803 
                        2804 .LDW_4d22400:
00000389 3a             2805 	.byte	58
0000038a 00             2806 	.byte	0
0000038b 14             2807 	.byte	20
0000038c 00000000*      2808 	.word	.LDW_406b970
                        2809 
00000390 32             2810 	.byte	50
00000391 00000000*      2811 	.word	.LDW_4056e50
00000395 04             2812 	.byte	4
00000396 00             2813 	.byte	0
00000397 13             2814 	.byte	19
                        2815 
00000398 00             2816 	.byte	0

                                                                      Page 52
                                                              C:\Users\nhuliyap\AppData\Local\Temp\gh_00006u41.s
                        2817 
                        2818 .LDW_4d22e18:
00000399 3a             2819 	.byte	58
0000039a 00             2820 	.byte	0
0000039b 03             2821 	.byte	3
0000039c 00000000*      2822 	.word	.LDW_406b970
                        2823 
000003a0 32             2824 	.byte	50
000003a1 00000000*      2825 	.word	.LDW_4056e50
000003a5 04             2826 	.byte	4
000003a6 00             2827 	.byte	0
000003a7 02             2828 	.byte	2
                        2829 
000003a8 00             2830 	.byte	0
                        2831 
                        2832 .LDW_4d22f28:
000003a9 3a             2833 	.byte	58
000003aa 00             2834 	.byte	0
000003ab 11             2835 	.byte	17
000003ac 00000000*      2836 	.word	.LDW_406b970
                        2837 
000003b0 32             2838 	.byte	50
000003b1 00000000*      2839 	.word	.LDW_4056e50
000003b5 04             2840 	.byte	4
000003b6 00             2841 	.byte	0
000003b7 10             2842 	.byte	16
                        2843 
000003b8 00             2844 	.byte	0
                        2845 
                        2846 .LDW_4d22620:
000003b9 3a             2847 	.byte	58
000003ba 00             2848 	.byte	0
000003bb 01             2849 	.byte	1
000003bc 00000000*      2850 	.word	.LDW_406b970
                        2851 
000003c0 32             2852 	.byte	50
000003c1 00000000*      2853 	.word	.LDW_4056e50
000003c5 04             2854 	.byte	4
000003c6 00             2855 	.byte	0
000003c7 00             2856 	.byte	0
                        2857 
000003c8 00             2858 	.byte	0
                        2859 
                        2860 .LDW_4d22268:
000003c9 3a             2861 	.byte	58
000003ca 00             2862 	.byte	0
000003cb 01             2863 	.byte	1
000003cc 00000000*      2864 	.word	.LDW_406b970
                        2865 
000003d0 32             2866 	.byte	50
000003d1 00000000*      2867 	.word	.LDW_4056e50
000003d5 04             2868 	.byte	4
000003d6 00             2869 	.byte	0
000003d7 00             2870 	.byte	0
                        2871 
000003d8 00             2872 	.byte	0
                        2873 
                        2874 .LDW_4d221e0:
000003d9 3a             2875 	.byte	58
000003da 00             2876 	.byte	0
000003db 02             2877 	.byte	2

                                                                      Page 53
                                                              C:\Users\nhuliyap\AppData\Local\Temp\gh_00006u41.s
000003dc 00000000*      2878 	.word	.LDW_406b970
                        2879 
000003e0 32             2880 	.byte	50
000003e1 00000000*      2881 	.word	.LDW_4056e50
000003e5 04             2882 	.byte	4
000003e6 00             2883 	.byte	0
000003e7 01             2884 	.byte	1
                        2885 
000003e8 00             2886 	.byte	0
                        2887 
                        2888 .LDW_4d229d8:
000003e9 3a             2889 	.byte	58
000003ea 00             2890 	.byte	0
000003eb 01             2891 	.byte	1
000003ec 00000000*      2892 	.word	.LDW_406b970
                        2893 
000003f0 32             2894 	.byte	50
000003f1 00000000*      2895 	.word	.LDW_4056e50
000003f5 04             2896 	.byte	4
000003f6 00             2897 	.byte	0
000003f7 00             2898 	.byte	0
                        2899 
000003f8 00             2900 	.byte	0
                        2901 
                        2902 .LDW_4d22b70:
000003f9 3a             2903 	.byte	58
000003fa 00             2904 	.byte	0
000003fb 01             2905 	.byte	1
000003fc 00000000*      2906 	.word	.LDW_406b970
                        2907 
00000400 32             2908 	.byte	50
00000401 00000000*      2909 	.word	.LDW_4056e50
00000405 04             2910 	.byte	4
00000406 00             2911 	.byte	0
00000407 00             2912 	.byte	0
                        2913 
00000408 00             2914 	.byte	0
                        2915 
                        2916 .LDW_4d22730:
00000409 3a             2917 	.byte	58
0000040a 00             2918 	.byte	0
0000040b 02             2919 	.byte	2
0000040c 00000000*      2920 	.word	.LDW_406b970
                        2921 
00000410 32             2922 	.byte	50
00000411 00000000*      2923 	.word	.LDW_4056e50
00000415 04             2924 	.byte	4
00000416 00             2925 	.byte	0
00000417 01             2926 	.byte	1
                        2927 
00000418 00             2928 	.byte	0
                        2929 
                        2930 .LDW_4d22a60:
00000419 3a             2931 	.byte	58
0000041a 00             2932 	.byte	0
0000041b 23             2933 	.byte	35
0000041c 00000000*      2934 	.word	.LDW_406b970
                        2935 
00000420 32             2936 	.byte	50
00000421 00000000*      2937 	.word	.LDW_4056e50
00000425 04             2938 	.byte	4

                                                                      Page 54
                                                              C:\Users\nhuliyap\AppData\Local\Temp\gh_00006u41.s
00000426 00             2939 	.byte	0
00000427 22             2940 	.byte	34
                        2941 
00000428 00             2942 	.byte	0
                        2943 
                        2944 .LDW_4d228c8:
00000429 3a             2945 	.byte	58
0000042a 00             2946 	.byte	0
0000042b 12             2947 	.byte	18
0000042c 00000000*      2948 	.word	.LDW_406b970
                        2949 
00000430 32             2950 	.byte	50
00000431 00000000*      2951 	.word	.LDW_4056e50
00000435 04             2952 	.byte	4
00000436 00             2953 	.byte	0
00000437 11             2954 	.byte	17
                        2955 
00000438 00             2956 	.byte	0
                        2957 
                        2958 .LDW_4d222f0:
00000439 3a             2959 	.byte	58
0000043a 00             2960 	.byte	0
0000043b 23             2961 	.byte	35
0000043c 00000000*      2962 	.word	.LDW_406b970
                        2963 
00000440 32             2964 	.byte	50
00000441 00000000*      2965 	.word	.LDW_4056e50
00000445 04             2966 	.byte	4
00000446 00             2967 	.byte	0
00000447 22             2968 	.byte	34
                        2969 
00000448 00             2970 	.byte	0
                        2971 
                        2972 .LDW_4d22ae8:
00000449 3a             2973 	.byte	58
0000044a 00             2974 	.byte	0
0000044b 12             2975 	.byte	18
0000044c 00000000*      2976 	.word	.LDW_406b970
                        2977 
00000450 32             2978 	.byte	50
00000451 00000000*      2979 	.word	.LDW_4056e50
00000455 04             2980 	.byte	4
00000456 00             2981 	.byte	0
00000457 11             2982 	.byte	17
                        2983 
00000458 00             2984 	.byte	0
                        2985 
                        2986 .LDW_4d22378:
00000459 3a             2987 	.byte	58
0000045a 00             2988 	.byte	0
0000045b 10             2989 	.byte	16
0000045c 00000000*      2990 	.word	.LDW_406b970
                        2991 
00000460 32             2992 	.byte	50
00000461 00000000*      2993 	.word	.LDW_4056e50
00000465 04             2994 	.byte	4
00000466 00             2995 	.byte	0
00000467 0f             2996 	.byte	15
                        2997 
00000468 00             2998 	.byte	0
                        2999 

                                                                      Page 55
                                                              C:\Users\nhuliyap\AppData\Local\Temp\gh_00006u41.s
                        3000 .LDW_4d22598:
00000469 3a             3001 	.byte	58
0000046a 00             3002 	.byte	0
0000046b 04             3003 	.byte	4
0000046c 00000000*      3004 	.word	.LDW_406b970
                        3005 
00000470 32             3006 	.byte	50
00000471 00000000*      3007 	.word	.LDW_4056e50
00000475 04             3008 	.byte	4
00000476 00             3009 	.byte	0
00000477 03             3010 	.byte	3
                        3011 
00000478 00             3012 	.byte	0
                        3013 
                        3014 .LDW_4d226a8:
00000479 3a             3015 	.byte	58
0000047a 00             3016 	.byte	0
0000047b 01             3017 	.byte	1
0000047c 00000000*      3018 	.word	.LDW_406b970
                        3019 
00000480 32             3020 	.byte	50
00000481 00000000*      3021 	.word	.LDW_4056e50
00000485 04             3022 	.byte	4
00000486 00             3023 	.byte	0
00000487 00             3024 	.byte	0
                        3025 
00000488 00             3026 	.byte	0
                        3027 
                        3028 .LDW_4d227b8:
00000489 3a             3029 	.byte	58
0000048a 00             3030 	.byte	0
0000048b 28             3031 	.byte	40
0000048c 00000000*      3032 	.word	.LDW_406b970
                        3033 
00000490 32             3034 	.byte	50
00000491 00000000*      3035 	.word	.LDW_4056e50
00000495 04             3036 	.byte	4
00000496 00             3037 	.byte	0
00000497 27             3038 	.byte	39
                        3039 
00000498 00             3040 	.byte	0
                        3041 
                        3042 .LDW_4d22c80:
00000499 3a             3043 	.byte	58
0000049a 00             3044 	.byte	0
0000049b 02             3045 	.byte	2
0000049c 00000000*      3046 	.word	.LDW_406b970
                        3047 
000004a0 32             3048 	.byte	50
000004a1 00000000*      3049 	.word	.LDW_4056e50
000004a5 04             3050 	.byte	4
000004a6 00             3051 	.byte	0
000004a7 01             3052 	.byte	1
                        3053 
000004a8 00             3054 	.byte	0
                        3055 
                        3056 .LDW_4d22488:
000004a9 3a             3057 	.byte	58
000004aa 00             3058 	.byte	0
000004ab fe0c           3059 	.byte	254,12
000004ad 00000000*      3060 	.word	.LDW_406b970

                                                                      Page 56
                                                              C:\Users\nhuliyap\AppData\Local\Temp\gh_00006u41.s
                        3061 
000004b1 32             3062 	.byte	50
000004b2 00000000*      3063 	.word	.LDW_4056e50
000004b6 04             3064 	.byte	4
000004b7 00             3065 	.byte	0
000004b8 fd0c           3066 	.byte	253,12
                        3067 
000004ba 00             3068 	.byte	0
                        3069 
                        3070 .LDW_4d22840:
000004bb 3a             3071 	.byte	58
000004bc 00             3072 	.byte	0
000004bd 10             3073 	.byte	16
000004be 00000000*      3074 	.word	.LDW_406b970
                        3075 
000004c2 32             3076 	.byte	50
000004c3 00000000*      3077 	.word	.LDW_4056e50
000004c7 04             3078 	.byte	4
000004c8 00             3079 	.byte	0
000004c9 0f             3080 	.byte	15
                        3081 
000004ca 00             3082 	.byte	0
                        3083 
                        3084 .LDW_4d23038:
000004cb 3a             3085 	.byte	58
000004cc 00             3086 	.byte	0
000004cd 30             3087 	.byte	48
000004ce 00000000*      3088 	.word	.LDW_406b970
                        3089 
000004d2 32             3090 	.byte	50
000004d3 00000000*      3091 	.word	.LDW_4056e50
000004d7 04             3092 	.byte	4
000004d8 00             3093 	.byte	0
000004d9 2f             3094 	.byte	47
                        3095 
000004da 00             3096 	.byte	0
                        3097 
                        3098 .LDW_4d22d08:
000004db 3a             3099 	.byte	58
000004dc 00             3100 	.byte	0
000004dd 8010           3101 	.byte	128,16
000004df 00000000*      3102 	.word	.LDW_406b970
                        3103 
000004e3 32             3104 	.byte	50
000004e4 00000000*      3105 	.word	.LDW_4056e50
000004e8 04             3106 	.byte	4
000004e9 00             3107 	.byte	0
000004ea ff0f           3108 	.byte	255,15
                        3109 
000004ec 00             3110 	.byte	0
                        3111 
                        3112 .LDW_4d384e0:
000004ed 2f             3113 	.byte	47
000004ee 00000000*      3114 	.word	.LDW_4bc3020
                        3115 
                        3116 .LDW_4d37e18:
000004f2 45             3117 	.byte	69
000004f3 01             3118 	.byte	1
                        3119 
                        3120 .LDW_4d32c20:
000004f4 12             3121 	.byte	18

                                                                      Page 57
                                                              C:\Users\nhuliyap\AppData\Local\Temp\gh_00006u41.s
000004f5 00000000*      3122 	.word	.LDW_4d384e0
000004f9 00             3123 	.byte	0
                        3124 
000004fa 00             3125 	.byte	0
                        3126 
                        3127 .LDW_4d38550:
000004fb 45             3128 	.byte	69
000004fc 01             3129 	.byte	1
                        3130 
000004fd 00             3131 	.byte	0
                        3132 
                        3133 .LDW_4d37be8:
000004fe 44             3134 	.byte	68
000004ff 00000000*      3135 	.word	.LDW_406b970
00000503 01             3136 	.byte	1
                        3137 
00000504 00             3138 	.byte	0
                        3139 
                        3140 .LDW_406b970:
00000505 28             3141 	.byte	40
00000506 75696e743800   3142 	.strz	"uint8"
0000050c 50             3143 	.byte	80
0000050d 4b             3144 	.byte	75
0000050e 03             3145 	.byte	3
0000050f 00000000*      3146 	.word	.LDW_4056b40
                        3147 
                        3148 	.section	.debug_abbrev
00000068 28             3149 	.byte	40
00000069 16             3150 	.byte	22
0000006a 00             3151 	.byte	0
0000006b 0308           3152 	.byte	3,8
0000006d 3b0f           3153 	.byte	59,15
0000006f 390f           3154 	.byte	57,15
00000071 3a0f           3155 	.byte	58,15
00000073 4910           3156 	.byte	73,16
00000075 0000           3157 	.byte	0,0
                        3158 
                        3159 	.section	.debug_info
                        3160 .LDW_4ba4638:
00000513 28             3161 	.byte	40
00000514 75696e743136   3162 	.strz	"uint16"
0000051a 00 
0000051b 52             3163 	.byte	82
0000051c 4a             3164 	.byte	74
0000051d 03             3165 	.byte	3
0000051e 00000000*      3166 	.word	.LDW_4056c58
                        3167 
                        3168 .LDW_4ba4588:
00000522 28             3169 	.byte	40
00000523 75696e743332   3170 	.strz	"uint32"
00000529 00 
0000052a 54             3171 	.byte	84
0000052b 4a             3172 	.byte	74
0000052c 03             3173 	.byte	3
0000052d 00000000*      3174 	.word	.LDW_4056a98
                        3175 
                        3176 .LDW_4d10568:
00000531 28             3177 	.byte	40
00000532 75696e743136   3178 	.strz	"uint16_t"
00000538 5f7400 
0000053b 16             3179 	.byte	22

                                                                      Page 58
                                                              C:\Users\nhuliyap\AppData\Local\Temp\gh_00006u41.s
0000053c 18             3180 	.byte	24
0000053d 09             3181 	.byte	9
0000053e 00000000*      3182 	.word	.LDW_4056c58
                        3183 
                        3184 .LDW_4d101f8:
00000542 28             3185 	.byte	40
00000543 75696e743332   3186 	.strz	"uint32_t"
00000549 5f7400 
0000054c 17             3187 	.byte	23
0000054d 18             3188 	.byte	24
0000054e 09             3189 	.byte	9
0000054f 00000000*      3190 	.word	.LDW_4056a98
                        3191 
                        3192 .LDW_4b805a8:
00000553 41             3193 	.byte	65
00000554 2e             3194 	.byte	46
00000555 09             3195 	.byte	9
00000556 07             3196 	.byte	7
00000557 8010           3197 	.byte	128,16
00000559 01             3198 	.byte	1
                        3199 
                        3200 	.section	.debug_abbrev
00000077 41             3201 	.byte	65
00000078 13             3202 	.byte	19
00000079 01             3203 	.byte	1
0000007a 3b0f           3204 	.byte	59,15
0000007c 390f           3205 	.byte	57,15
0000007e 3a0f           3206 	.byte	58,15
00000080 0b0f           3207 	.byte	11,15
00000082 320b           3208 	.byte	50,11
00000084 0000           3209 	.byte	0,0
                        3210 
                        3211 	.section	.debug_info
                        3212 .LDW_4cba1b0:
0000055a 23             3213 	.byte	35
0000055b 4155385f496e   3214 	.strz	"AU8_Index1_Reserved"
00000561 646578315f52 
00000567 657365727665 
0000056d 6400 
0000056f 2f             3215 	.byte	47
00000570 0a             3216 	.byte	10
00000571 07             3217 	.byte	7
00000572 00000000*      3218 	.word	.LDW_4c1b0f0
00000576 0223           3219 	.byte	2,35
00000578 00             3220 	.byte	0
00000579 01             3221 	.byte	1
                        3222 
                        3223 	.section	.debug_abbrev
00000086 23             3224 	.byte	35
00000087 0d             3225 	.byte	13
00000088 00             3226 	.byte	0
00000089 0308           3227 	.byte	3,8
0000008b 3b0f           3228 	.byte	59,15
0000008d 390f           3229 	.byte	57,15
0000008f 3a0f           3230 	.byte	58,15
00000091 4910           3231 	.byte	73,16
00000093 380a           3232 	.byte	56,10
00000095 320b           3233 	.byte	50,11
00000097 0000           3234 	.byte	0,0
                        3235 
                        3236 	.section	.debug_info

                                                                      Page 59
                                                              C:\Users\nhuliyap\AppData\Local\Temp\gh_00006u41.s
                        3237 .LDW_4cba090:
0000057a 23             3238 	.byte	35
0000057b 4155385f496e   3239 	.strz	"AU8_Index2_CustomerHwPartNumber433"
00000581 646578325f43 
00000587 7573746f6d65 
0000058d 724877506172 
00000593 744e756d6265 
00000599 7234333300 
0000059e 30             3240 	.byte	48
0000059f 0a             3241 	.byte	10
000005a0 07             3242 	.byte	7
000005a1 00000000*      3243 	.word	.LDW_4c1b178
000005a5 0223           3244 	.byte	2,35
000005a7 10             3245 	.byte	16
000005a8 01             3246 	.byte	1
                        3247 
                        3248 .LDW_4cb9aa8:
000005a9 23             3249 	.byte	35
000005aa 4155385f496e   3250 	.strz	"AU8_Index3_CustomerHwPartNumber315"
000005b0 646578335f43 
000005b6 7573746f6d65 
000005bc 724877506172 
000005c2 744e756d6265 
000005c8 7233313500 
000005cd 31             3251 	.byte	49
000005ce 0a             3252 	.byte	10
000005cf 07             3253 	.byte	7
000005d0 00000000*      3254 	.word	.LDW_4c1b200
000005d4 0223           3255 	.byte	2,35
000005d6 1a             3256 	.byte	26
000005d7 01             3257 	.byte	1
                        3258 
                        3259 .LDW_4cba120:
000005d8 23             3260 	.byte	35
000005d9 4155385f496e   3261 	.strz	"AU8_Index4_HufSpecificHw433"
000005df 646578345f48 
000005e5 756653706563 
000005eb 696669634877 
000005f1 34333300 
000005f5 32             3262 	.byte	50
000005f6 0a             3263 	.byte	10
000005f7 07             3264 	.byte	7
000005f8 00000000*      3265 	.word	.LDW_4c1b288
000005fc 0223           3266 	.byte	2,35
000005fe 24             3267 	.byte	36
000005ff 01             3268 	.byte	1
                        3269 
                        3270 .LDW_4cb9d30:
00000600 23             3271 	.byte	35
00000601 4155385f496e   3272 	.strz	"AU8_Index5_HufSpecificHw315"
00000607 646578355f48 
0000060d 756653706563 
00000613 696669634877 
00000619 33313500 
0000061d 33             3273 	.byte	51
0000061e 0a             3274 	.byte	10
0000061f 07             3275 	.byte	7
00000620 00000000*      3276 	.word	.LDW_4c1b310
00000624 0223           3277 	.byte	2,35
00000626 27             3278 	.byte	39
00000627 01             3279 	.byte	1

                                                                      Page 60
                                                              C:\Users\nhuliyap\AppData\Local\Temp\gh_00006u41.s
                        3280 
                        3281 .LDW_4cb9dc0:
00000628 23             3282 	.byte	35
00000629 4155385f496e   3283 	.strz	"AU8_Index6_HardwareVersionInfo"
0000062f 646578365f48 
00000635 617264776172 
0000063b 655665727369 
00000641 6f6e496e666f 
00000647 00 
00000648 34             3284 	.byte	52
00000649 0a             3285 	.byte	10
0000064a 07             3286 	.byte	7
0000064b 00000000*      3287 	.word	.LDW_4c1b398
0000064f 0223           3288 	.byte	2,35
00000651 2a             3289 	.byte	42
00000652 01             3290 	.byte	1
                        3291 
                        3292 .LDW_4cb9bc8:
00000653 23             3293 	.byte	35
00000654 4155385f496e   3294 	.strz	"AU8_Index7_CustomerPartNumber433"
0000065a 646578375f43 
00000660 7573746f6d65 
00000666 72506172744e 
0000066c 756d62657234 
00000672 333300 
00000675 35             3295 	.byte	53
00000676 0a             3296 	.byte	10
00000677 07             3297 	.byte	7
00000678 00000000*      3298 	.word	.LDW_4bc3438
0000067c 0223           3299 	.byte	2,35
0000067e 2d             3300 	.byte	45
0000067f 01             3301 	.byte	1
                        3302 
                        3303 .LDW_4cb9fb8:
00000680 23             3304 	.byte	35
00000681 4155385f496e   3305 	.strz	"AU8_Index8_CustomerPartNumber315"
00000687 646578385f43 
0000068d 7573746f6d65 
00000693 72506172744e 
00000699 756d62657233 
0000069f 313500 
000006a2 36             3306 	.byte	54
000006a3 0a             3307 	.byte	10
000006a4 07             3308 	.byte	7
000006a5 00000000*      3309 	.word	.LDW_4bc34c0
000006a9 0223           3310 	.byte	2,35
000006ab 37             3311 	.byte	55
000006ac 01             3312 	.byte	1
                        3313 
                        3314 .LDW_4cb9f70:
000006ad 23             3315 	.byte	35
000006ae 4155385f496e   3316 	.strz	"AU8_Index9_SupplierNumber"
000006b4 646578395f53 
000006ba 7570706c6965 
000006c0 724e756d6265 
000006c6 7200 
000006c8 37             3317 	.byte	55
000006c9 0a             3318 	.byte	10
000006ca 07             3319 	.byte	7
000006cb 00000000*      3320 	.word	.LDW_4bc3548
000006cf 0223           3321 	.byte	2,35

                                                                      Page 61
                                                              C:\Users\nhuliyap\AppData\Local\Temp\gh_00006u41.s
000006d1 41             3322 	.byte	65
000006d2 01             3323 	.byte	1
                        3324 
                        3325 .LDW_4cb9a18:
000006d3 23             3326 	.byte	35
000006d4 4155385f496e   3327 	.strz	"AU8_Index10_ProductionDay"
000006da 64657831305f 
000006e0 50726f647563 
000006e6 74696f6e4461 
000006ec 7900 
000006ee 38             3328 	.byte	56
000006ef 0a             3329 	.byte	10
000006f0 07             3330 	.byte	7
000006f1 00000000*      3331 	.word	.LDW_4bc35d0
000006f5 0223           3332 	.byte	2,35
000006f7 43             3333 	.byte	67
000006f8 01             3334 	.byte	1
                        3335 
                        3336 .LDW_4cb9f28:
000006f9 23             3337 	.byte	35
000006fa 4155385f496e   3338 	.strz	"AU8_Index11_CustomerECUSerialNumber"
00000700 64657831315f 
00000706 437573746f6d 
0000070c 657245435553 
00000712 657269616c4e 
00000718 756d62657200 
0000071e 39             3339 	.byte	57
0000071f 0a             3340 	.byte	10
00000720 07             3341 	.byte	7
00000721 00000000*      3342 	.word	.LDW_4d22fb0
00000725 0223           3343 	.byte	2,35
00000727 49             3344 	.byte	73
00000728 01             3345 	.byte	1
                        3346 
                        3347 .LDW_4cb9d78:
00000729 23             3348 	.byte	35
0000072a 4155385f496e   3349 	.strz	"AU8_Index12_RivianApplSwFpTesterSerialNo"
00000730 64657831325f 
00000736 52697669616e 
0000073c 4170706c5377 
00000742 467054657374 
00000748 657253657269 
0000074e 616c4e6f00 
00000753 3a             3350 	.byte	58
00000754 0a             3351 	.byte	10
00000755 07             3352 	.byte	7
00000756 00000000*      3353 	.word	.LDW_4d22510
0000075a 0223           3354 	.byte	2,35
0000075c 52             3355 	.byte	82
0000075d 01             3356 	.byte	1
                        3357 
                        3358 .LDW_4cba000:
0000075e 23             3359 	.byte	35
0000075f 4155385f496e   3360 	.strz	"AU8_Index13_RivianApplSwFpProgrammingDate"
00000765 64657831335f 
0000076b 52697669616e 
00000771 4170706c5377 
00000777 467050726f67 
0000077d 72616d6d696e 
00000783 674461746500 
00000789 3b             3361 	.byte	59

                                                                      Page 62
                                                              C:\Users\nhuliyap\AppData\Local\Temp\gh_00006u41.s
0000078a 0a             3362 	.byte	10
0000078b 07             3363 	.byte	7
0000078c 00000000*      3364 	.word	.LDW_4d22bf8
00000790 0223           3365 	.byte	2,35
00000792 66             3366 	.byte	102
00000793 01             3367 	.byte	1
                        3368 
                        3369 .LDW_4cb9ee0:
00000794 23             3370 	.byte	35
00000795 4155385f496e   3371 	.strz	"AU8_Index14_RivianBlFpTesterSerialNo"
0000079b 64657831345f 
000007a1 52697669616e 
000007a7 426c46705465 
000007ad 737465725365 
000007b3 7269616c4e6f 
000007b9 00 
000007ba 3c             3372 	.byte	60
000007bb 0a             3373 	.byte	10
000007bc 07             3374 	.byte	7
000007bd 00000000*      3375 	.word	.LDW_4d22400
000007c1 0223           3376 	.byte	2,35
000007c3 69             3377 	.byte	105
000007c4 01             3378 	.byte	1
                        3379 
                        3380 .LDW_4cb9af0:
000007c5 23             3381 	.byte	35
000007c6 4155385f496e   3382 	.strz	"AU8_Index15_RivianBlFpProgrammingDate"
000007cc 64657831355f 
000007d2 52697669616e 
000007d8 426c46705072 
000007de 6f6772616d6d 
000007e4 696e67446174 
000007ea 6500 
000007ec 3d             3383 	.byte	61
000007ed 0a             3384 	.byte	10
000007ee 07             3385 	.byte	7
000007ef 00000000*      3386 	.word	.LDW_4d22e18
000007f3 0223           3387 	.byte	2,35
000007f5 7d             3388 	.byte	125
000007f6 01             3389 	.byte	1
                        3390 
                        3391 .LDW_4cb9e98:
000007f7 23             3392 	.byte	35
000007f8 4155385f496e   3393 	.strz	"AU8_Index16_RivianVIN"
000007fe 64657831365f 
00000804 52697669616e 
0000080a 56494e00 
0000080e 3e             3394 	.byte	62
0000080f 0a             3395 	.byte	10
00000810 07             3396 	.byte	7
00000811 00000000*      3397 	.word	.LDW_4d22f28
00000815 0323           3398 	.byte	3,35
00000817 8001           3399 	.byte	128,1
00000819 01             3400 	.byte	1
                        3401 
                        3402 .LDW_4cb9c10:
0000081a 23             3403 	.byte	35
0000081b 4155385f496e   3404 	.strz	"AU8_Index17_RivianManufSuppMode"
00000821 64657831375f 
00000827 52697669616e 
0000082d 4d616e756653 

                                                                      Page 63
                                                              C:\Users\nhuliyap\AppData\Local\Temp\gh_00006u41.s
00000833 7570704d6f64 
00000839 6500 
0000083b 3f             3405 	.byte	63
0000083c 0a             3406 	.byte	10
0000083d 07             3407 	.byte	7
0000083e 00000000*      3408 	.word	.LDW_4d22620
00000842 0323           3409 	.byte	3,35
00000844 9101           3410 	.byte	145,1
00000846 01             3411 	.byte	1
                        3412 
                        3413 .LDW_4cb9ce8:
00000847 23             3414 	.byte	35
00000848 4155385f496e   3415 	.strz	"AU8_Index18_RivianGenealogyVersion"
0000084e 64657831385f 
00000854 52697669616e 
0000085a 47656e65616c 
00000860 6f6779566572 
00000866 73696f6e00 
0000086b 40             3416 	.byte	64
0000086c 0a             3417 	.byte	10
0000086d 07             3418 	.byte	7
0000086e 00000000*      3419 	.word	.LDW_4d22268
00000872 0323           3420 	.byte	3,35
00000874 9201           3421 	.byte	146,1
00000876 01             3422 	.byte	1
                        3423 
                        3424 .LDW_4cb9988:
00000877 23             3425 	.byte	35
00000878 4155385f496e   3426 	.strz	"AU8_Index19_RivianComponentId"
0000087e 64657831395f 
00000884 52697669616e 
0000088a 436f6d706f6e 
00000890 656e74496400 
00000896 41             3427 	.byte	65
00000897 0a             3428 	.byte	10
00000898 07             3429 	.byte	7
00000899 00000000*      3430 	.word	.LDW_4d221e0
0000089d 0323           3431 	.byte	3,35
0000089f 9301           3432 	.byte	147,1
000008a1 01             3433 	.byte	1
                        3434 
                        3435 .LDW_4cba048:
000008a2 23             3436 	.byte	35
000008a3 4155385f496e   3437 	.strz	"AU8_Index20_RivianPcbaId"
000008a9 64657832305f 
000008af 52697669616e 
000008b5 506362614964 
000008bb 00 
000008bc 42             3438 	.byte	66
000008bd 0a             3439 	.byte	10
000008be 07             3440 	.byte	7
000008bf 00000000*      3441 	.word	.LDW_4d229d8
000008c3 0323           3442 	.byte	3,35
000008c5 9501           3443 	.byte	149,1
000008c7 01             3444 	.byte	1
                        3445 
                        3446 .LDW_4cba168:
000008c8 23             3447 	.byte	35
000008c9 4155385f496e   3448 	.strz	"AU8_Index21_RivianAuxId"
000008cf 64657832315f 
000008d5 52697669616e 

                                                                      Page 64
                                                              C:\Users\nhuliyap\AppData\Local\Temp\gh_00006u41.s
000008db 417578496400 
000008e1 43             3449 	.byte	67
000008e2 0a             3450 	.byte	10
000008e3 07             3451 	.byte	7
000008e4 00000000*      3452 	.word	.LDW_4d22b70
000008e8 0323           3453 	.byte	3,35
000008ea 9601           3454 	.byte	150,1
000008ec 01             3455 	.byte	1
                        3456 
                        3457 .LDW_4cb99d0:
000008ed 23             3458 	.byte	35
000008ee 4155385f496e   3459 	.strz	"AU8_Index22_RivianModeId"
000008f4 64657832325f 
000008fa 52697669616e 
00000900 4d6f64654964 
00000906 00 
00000907 44             3460 	.byte	68
00000908 0a             3461 	.byte	10
00000909 07             3462 	.byte	7
0000090a 00000000*      3463 	.word	.LDW_4d22730
0000090e 0323           3464 	.byte	3,35
00000910 9701           3465 	.byte	151,1
00000912 01             3466 	.byte	1
                        3467 
                        3468 .LDW_4cba708:
00000913 23             3469 	.byte	35
00000914 4155385f496e   3470 	.strz	"AU8_Index23_RivianBoardPartNumber"
0000091a 64657832335f 
00000920 52697669616e 
00000926 426f61726450 
0000092c 6172744e756d 
00000932 62657200 
00000936 45             3471 	.byte	69
00000937 0a             3472 	.byte	10
00000938 07             3473 	.byte	7
00000939 00000000*      3474 	.word	.LDW_4d22a60
0000093d 0323           3475 	.byte	3,35
0000093f 9901           3476 	.byte	153,1
00000941 01             3477 	.byte	1
                        3478 
                        3479 .LDW_4cba240:
00000942 23             3480 	.byte	35
00000943 4155385f496e   3481 	.strz	"AU8_Index24_RivianBoardSerialNumber"
00000949 64657832345f 
0000094f 52697669616e 
00000955 426f61726453 
0000095b 657269616c4e 
00000961 756d62657200 
00000967 46             3482 	.byte	70
00000968 0a             3483 	.byte	10
00000969 07             3484 	.byte	7
0000096a 00000000*      3485 	.word	.LDW_4d228c8
0000096e 0323           3486 	.byte	3,35
00000970 bc01           3487 	.byte	188,1
00000972 01             3488 	.byte	1
                        3489 
                        3490 .LDW_4cba480:
00000973 23             3491 	.byte	35
00000974 4155385f496e   3492 	.strz	"AU8_Index25_RivianEcuPartNumber"
0000097a 64657832355f 
00000980 52697669616e 

                                                                      Page 65
                                                              C:\Users\nhuliyap\AppData\Local\Temp\gh_00006u41.s
00000986 456375506172 
0000098c 744e756d6265 
00000992 7200 
00000994 47             3493 	.byte	71
00000995 0a             3494 	.byte	10
00000996 07             3495 	.byte	7
00000997 00000000*      3496 	.word	.LDW_4d222f0
0000099b 0323           3497 	.byte	3,35
0000099d ce01           3498 	.byte	206,1
0000099f 01             3499 	.byte	1
                        3500 
                        3501 .LDW_4cba7e0:
000009a0 23             3502 	.byte	35
000009a1 4155385f496e   3503 	.strz	"AU8_Index26_RivianEcuSerialNumber"
000009a7 64657832365f 
000009ad 52697669616e 
000009b3 456375536572 
000009b9 69616c4e756d 
000009bf 62657200 
000009c3 48             3504 	.byte	72
000009c4 0a             3505 	.byte	10
000009c5 07             3506 	.byte	7
000009c6 00000000*      3507 	.word	.LDW_4d22ae8
000009ca 0323           3508 	.byte	3,35
000009cc f101           3509 	.byte	241,1
000009ce 01             3510 	.byte	1
                        3511 
                        3512 .LDW_4cba5e8:
000009cf 23             3513 	.byte	35
000009d0 4155385f496e   3514 	.strz	"AU8_Index27_RivianApplicationSignature"
000009d6 64657832375f 
000009dc 52697669616e 
000009e2 4170706c6963 
000009e8 6174696f6e53 
000009ee 69676e617475 
000009f4 726500 
000009f7 49             3515 	.byte	73
000009f8 0a             3516 	.byte	10
000009f9 07             3517 	.byte	7
000009fa 00000000*      3518 	.word	.LDW_4d22378
000009fe 0323           3519 	.byte	3,35
00000a00 8302           3520 	.byte	131,2
00000a02 01             3521 	.byte	1
                        3522 
                        3523 .LDW_4cba1f8:
00000a03 23             3524 	.byte	35
00000a04 4155385f496e   3525 	.strz	"AU8_Index28_RivianGenealogyCrc32"
00000a0a 64657832385f 
00000a10 52697669616e 
00000a16 47656e65616c 
00000a1c 6f6779437263 
00000a22 333200 
00000a25 4a             3526 	.byte	74
00000a26 0a             3527 	.byte	10
00000a27 07             3528 	.byte	7
00000a28 00000000*      3529 	.word	.LDW_4d22598
00000a2c 0323           3530 	.byte	3,35
00000a2e 9302           3531 	.byte	147,2
00000a30 01             3532 	.byte	1
                        3533 
                        3534 .LDW_4cba360:

                                                                      Page 66
                                                              C:\Users\nhuliyap\AppData\Local\Temp\gh_00006u41.s
00000a31 23             3535 	.byte	35
00000a32 4155385f496e   3536 	.strz	"AU8_Index29_BHSENSEolCheckerByte"
00000a38 64657832395f 
00000a3e 424853454e53 
00000a44 456f6c436865 
00000a4a 636b65724279 
00000a50 746500 
00000a53 4b             3537 	.byte	75
00000a54 0a             3538 	.byte	10
00000a55 07             3539 	.byte	7
00000a56 00000000*      3540 	.word	.LDW_4d226a8
00000a5a 0323           3541 	.byte	3,35
00000a5c 9702           3542 	.byte	151,2
00000a5e 01             3543 	.byte	1
                        3544 
                        3545 .LDW_4cba828:
00000a5f 23             3546 	.byte	35
00000a60 4155385f496e   3547 	.strz	"AU8_Index30_Reserved"
00000a66 64657833305f 
00000a6c 526573657276 
00000a72 656400 
00000a75 4c             3548 	.byte	76
00000a76 0a             3549 	.byte	10
00000a77 07             3550 	.byte	7
00000a78 00000000*      3551 	.word	.LDW_4d227b8
00000a7c 0323           3552 	.byte	3,35
00000a7e 9802           3553 	.byte	152,2
00000a80 01             3554 	.byte	1
                        3555 
                        3556 .LDW_4cba3a8:
00000a81 23             3557 	.byte	35
00000a82 4155385f496e   3558 	.strz	"AU8_Index31_ApplicationChecksum"
00000a88 64657833315f 
00000a8e 4170706c6963 
00000a94 6174696f6e43 
00000a9a 6865636b7375 
00000aa0 6d00 
00000aa2 4d             3559 	.byte	77
00000aa3 0a             3560 	.byte	10
00000aa4 07             3561 	.byte	7
00000aa5 00000000*      3562 	.word	.LDW_4d22c80
00000aa9 0323           3563 	.byte	3,35
00000aab c002           3564 	.byte	192,2
00000aad 01             3565 	.byte	1
                        3566 
                        3567 .LDW_4cba5a0:
00000aae 23             3568 	.byte	35
00000aaf 4155385f496e   3569 	.strz	"AU8_Index32_Reserved"
00000ab5 64657833325f 
00000abb 526573657276 
00000ac1 656400 
00000ac4 4e             3570 	.byte	78
00000ac5 0a             3571 	.byte	10
00000ac6 07             3572 	.byte	7
00000ac7 00000000*      3573 	.word	.LDW_4d22488
00000acb 0323           3574 	.byte	3,35
00000acd c202           3575 	.byte	194,2
00000acf 01             3576 	.byte	1
                        3577 
                        3578 .LDW_4cba630:
00000ad0 23             3579 	.byte	35

                                                                      Page 67
                                                              C:\Users\nhuliyap\AppData\Local\Temp\gh_00006u41.s
00000ad1 4155385f496e   3580 	.strz	"AU8_Index33_iTACSerialNumber"
00000ad7 64657833335f 
00000add 695441435365 
00000ae3 7269616c4e75 
00000ae9 6d62657200 
00000aee 4f             3581 	.byte	79
00000aef 0a             3582 	.byte	10
00000af0 07             3583 	.byte	7
00000af1 00000000*      3584 	.word	.LDW_4d22840
00000af5 0323           3585 	.byte	3,35
00000af7 c00f           3586 	.byte	192,15
00000af9 01             3587 	.byte	1
                        3588 
                        3589 .LDW_4cba750:
00000afa 23             3590 	.byte	35
00000afb 4155385f496e   3591 	.strz	"AU8_Index34_Reserved"
00000b01 64657833345f 
00000b07 526573657276 
00000b0d 656400 
00000b10 50             3592 	.byte	80
00000b11 0a             3593 	.byte	10
00000b12 07             3594 	.byte	7
00000b13 00000000*      3595 	.word	.LDW_4d23038
00000b17 0323           3596 	.byte	3,35
00000b19 d00f           3597 	.byte	208,15
00000b1b 01             3598 	.byte	1
                        3599 
00000b1c 00             3600 	.byte	0
                        3601 
                        3602 .LDW_4b80080:
00000b1d 43             3603 	.byte	67
00000b1e 2c             3604 	.byte	44
00000b1f 0e             3605 	.byte	14
00000b20 07             3606 	.byte	7
00000b21 8010           3607 	.byte	128,16
00000b23 01             3608 	.byte	1
                        3609 
                        3610 	.section	.debug_abbrev
00000099 43             3611 	.byte	67
0000009a 17             3612 	.byte	23
0000009b 01             3613 	.byte	1
0000009c 3b0f           3614 	.byte	59,15
0000009e 390f           3615 	.byte	57,15
000000a0 3a0f           3616 	.byte	58,15
000000a2 0b0f           3617 	.byte	11,15
000000a4 320b           3618 	.byte	50,11
000000a6 0000           3619 	.byte	0,0
                        3620 
                        3621 	.section	.debug_info
                        3622 .LDW_4cba510:
00000b24 23             3623 	.byte	35
00000b25 4155385f5072   3624 	.strz	"AU8_Production_Data_Array"
00000b2b 6f6475637469 
00000b31 6f6e5f446174 
00000b37 615f41727261 
00000b3d 7900 
00000b3f 2d             3625 	.byte	45
00000b40 09             3626 	.byte	9
00000b41 07             3627 	.byte	7
00000b42 00000000*      3628 	.word	.LDW_4d22d08
00000b46 0223           3629 	.byte	2,35

                                                                      Page 68
                                                              C:\Users\nhuliyap\AppData\Local\Temp\gh_00006u41.s
00000b48 00             3630 	.byte	0
00000b49 01             3631 	.byte	1
                        3632 
                        3633 .LDW_4cba288:
00000b4a 23             3634 	.byte	35
00000b4b 537472756374   3635 	.strz	"Struct_Split_Production_Data"
00000b51 5f53706c6974 
00000b57 5f50726f6475 
00000b5d 6374696f6e5f 
00000b63 4461746100 
00000b68 51             3636 	.byte	81
00000b69 04             3637 	.byte	4
00000b6a 07             3638 	.byte	7
00000b6b 00000000*      3639 	.word	.LDW_4b805a8
00000b6f 0223           3640 	.byte	2,35
00000b71 00             3641 	.byte	0
00000b72 01             3642 	.byte	1
                        3643 
00000b73 00             3644 	.byte	0
                        3645 
                        3646 .LDW_4b803f0:
00000b74 28             3647 	.byte	40
00000b75 44636d5f5f55   3648 	.strz	"Dcm__Union_ProductionData"
00000b7b 6e696f6e5f50 
00000b81 726f64756374 
00000b87 696f6e446174 
00000b8d 6100 
00000b8f 52             3649 	.byte	82
00000b90 02             3650 	.byte	2
00000b91 07             3651 	.byte	7
00000b92 00000000*      3652 	.word	.LDW_4b80080
                        3653 
                        3654 .LDW_4c1c380:
00000b96 2e             3655 	.byte	46
00000b97 00             3656 	.byte	0
00000b98 54             3657 	.byte	84
00000b99 0d             3658 	.byte	13
00000b9a 07             3659 	.byte	7
00000b9b 01             3660 	.byte	1
00000b9c 01             3661 	.byte	1
                        3662 
                        3663 	.section	.debug_abbrev
000000a8 2e             3664 	.byte	46
000000a9 04             3665 	.byte	4
000000aa 01             3666 	.byte	1
000000ab 0308           3667 	.byte	3,8
000000ad 3b0f           3668 	.byte	59,15
000000af 390f           3669 	.byte	57,15
000000b1 3a0f           3670 	.byte	58,15
000000b3 0b0f           3671 	.byte	11,15
000000b5 320b           3672 	.byte	50,11
000000b7 0000           3673 	.byte	0,0
                        3674 
                        3675 	.section	.debug_info
                        3676 .LDW_409de38:
00000b9d 2d             3677 	.byte	45
00000b9e 44434d5f5f45   3678 	.strz	"DCM__E_RESERVED_1"
00000ba4 5f5245534552 
00000baa 5645445f3100 
00000bb0 55             3679 	.byte	85
00000bb1 03             3680 	.byte	3

                                                                      Page 69
                                                              C:\Users\nhuliyap\AppData\Local\Temp\gh_00006u41.s
00000bb2 07             3681 	.byte	7
00000bb3 00             3682 	.byte	0
                        3683 
                        3684 	.section	.debug_abbrev
000000b9 2d             3685 	.byte	45
000000ba 28             3686 	.byte	40
000000bb 00             3687 	.byte	0
000000bc 0308           3688 	.byte	3,8
000000be 3b0f           3689 	.byte	59,15
000000c0 390f           3690 	.byte	57,15
000000c2 3a0f           3691 	.byte	58,15
000000c4 1c0d           3692 	.byte	28,13
000000c6 0000           3693 	.byte	0,0
                        3694 
                        3695 	.section	.debug_info
                        3696 .LDW_4c1c3d0:
00000bb4 2d             3697 	.byte	45
00000bb5 44434d5f5f45   3698 	.strz	"DCM__E_CUSTOMER_HW_PART_NUMBER_433"
00000bbb 5f435553544f 
00000bc1 4d45525f4857 
00000bc7 5f504152545f 
00000bcd 4e554d424552 
00000bd3 5f34333300 
00000bd8 56             3699 	.byte	86
00000bd9 07             3700 	.byte	7
00000bda 07             3701 	.byte	7
00000bdb 01             3702 	.byte	1
                        3703 
                        3704 .LDW_406b758:
00000bdc 2d             3705 	.byte	45
00000bdd 44434d5f5f45   3706 	.strz	"DCM__E_CUSTOMER_HW_PART_NUMBER_315"
00000be3 5f435553544f 
00000be9 4d45525f4857 
00000bef 5f504152545f 
00000bf5 4e554d424552 
00000bfb 5f33313500 
00000c00 57             3707 	.byte	87
00000c01 07             3708 	.byte	7
00000c02 07             3709 	.byte	7
00000c03 02             3710 	.byte	2
                        3711 
                        3712 .LDW_406b798:
00000c04 2d             3713 	.byte	45
00000c05 44434d5f5f45   3714 	.strz	"DCM__E_HUF_SPECIFIC_HW_NUMBER_433"
00000c0b 5f4855465f53 
00000c11 504543494649 
00000c17 435f48575f4e 
00000c1d 554d4245525f 
00000c23 34333300 
00000c27 58             3715 	.byte	88
00000c28 07             3716 	.byte	7
00000c29 07             3717 	.byte	7
00000c2a 03             3718 	.byte	3
                        3719 
                        3720 .LDW_406b7d8:
00000c2b 2d             3721 	.byte	45
00000c2c 44434d5f5f45   3722 	.strz	"DCM__E_HUF_SPECIFIC_HW_NUMBER_315"
00000c32 5f4855465f53 
00000c38 504543494649 
00000c3e 435f48575f4e 
00000c44 554d4245525f 

                                                                      Page 70
                                                              C:\Users\nhuliyap\AppData\Local\Temp\gh_00006u41.s
00000c4a 33313500 
00000c4e 59             3723 	.byte	89
00000c4f 07             3724 	.byte	7
00000c50 07             3725 	.byte	7
00000c51 04             3726 	.byte	4
                        3727 
                        3728 .LDW_406b818:
00000c52 2d             3729 	.byte	45
00000c53 44434d5f5f45   3730 	.strz	"DCM__E_HARDWARE_VERSION_INFO"
00000c59 5f4841524457 
00000c5f 4152455f5645 
00000c65 5253494f4e5f 
00000c6b 494e464f00 
00000c70 5a             3731 	.byte	90
00000c71 07             3732 	.byte	7
00000c72 07             3733 	.byte	7
00000c73 05             3734 	.byte	5
                        3735 
                        3736 .LDW_406b858:
00000c74 2d             3737 	.byte	45
00000c75 44434d5f5f45   3738 	.strz	"DCM__E_CUSTOMER_PART_NUMBER_433"
00000c7b 5f435553544f 
00000c81 4d45525f5041 
00000c87 52545f4e554d 
00000c8d 4245525f3433 
00000c93 3300 
00000c95 5b             3739 	.byte	91
00000c96 07             3740 	.byte	7
00000c97 07             3741 	.byte	7
00000c98 06             3742 	.byte	6
                        3743 
                        3744 .LDW_406b898:
00000c99 2d             3745 	.byte	45
00000c9a 44434d5f5f45   3746 	.strz	"DCM__E_CUSTOMER_PART_NUMBER_315"
00000ca0 5f435553544f 
00000ca6 4d45525f5041 
00000cac 52545f4e554d 
00000cb2 4245525f3331 
00000cb8 3500 
00000cba 5c             3747 	.byte	92
00000cbb 07             3748 	.byte	7
00000cbc 07             3749 	.byte	7
00000cbd 07             3750 	.byte	7
                        3751 
                        3752 .LDW_406b8d8:
00000cbe 2d             3753 	.byte	45
00000cbf 44434d5f5f45   3754 	.strz	"DCM__E_SUPPLIER_NUMBER"
00000cc5 5f535550504c 
00000ccb 4945525f4e55 
00000cd1 4d42455200 
00000cd6 5d             3755 	.byte	93
00000cd7 07             3756 	.byte	7
00000cd8 07             3757 	.byte	7
00000cd9 08             3758 	.byte	8
                        3759 
                        3760 .LDW_4ba4058:
00000cda 2d             3761 	.byte	45
00000cdb 44434d5f5f45   3762 	.strz	"DCM__E_PRODUCTION_DAY"
00000ce1 5f50524f4455 
00000ce7 4354494f4e5f 
00000ced 44415900 

                                                                      Page 71
                                                              C:\Users\nhuliyap\AppData\Local\Temp\gh_00006u41.s
00000cf1 5e             3763 	.byte	94
00000cf2 07             3764 	.byte	7
00000cf3 07             3765 	.byte	7
00000cf4 09             3766 	.byte	9
                        3767 
                        3768 .LDW_4ba4358:
00000cf5 2d             3769 	.byte	45
00000cf6 44434d5f5f45   3770 	.strz	"DCM__E_CUSTOMER_ECU_SERIAL_NUMBER"
00000cfc 5f435553544f 
00000d02 4d45525f4543 
00000d08 555f53455249 
00000d0e 414c5f4e554d 
00000d14 42455200 
00000d18 5f             3771 	.byte	95
00000d19 07             3772 	.byte	7
00000d1a 07             3773 	.byte	7
00000d1b 0a             3774 	.byte	10
                        3775 
                        3776 .LDW_4ba3fd8:
00000d1c 2d             3777 	.byte	45
00000d1d 44434d5f5f45   3778 	.strz	"DCM__E_RIVIAN_APPL_SWFP_TESTER_SERIAL_NO"
00000d23 5f5249564941 
00000d29 4e5f4150504c 
00000d2f 5f535746505f 
00000d35 544553544552 
00000d3b 5f5345524941 
00000d41 4c5f4e4f00 
00000d46 60             3779 	.byte	96
00000d47 07             3780 	.byte	7
00000d48 07             3781 	.byte	7
00000d49 0b             3782 	.byte	11
                        3783 
                        3784 .LDW_4ba3e58:
00000d4a 2d             3785 	.byte	45
00000d4b 44434d5f5f45   3786 	.strz	"DCM__E_RIVIAN_APPL_SWFP_PROGRAMMING_DATE"
00000d51 5f5249564941 
00000d57 4e5f4150504c 
00000d5d 5f535746505f 
00000d63 50524f475241 
00000d69 4d4d494e475f 
00000d6f 4441544500 
00000d74 61             3787 	.byte	97
00000d75 07             3788 	.byte	7
00000d76 07             3789 	.byte	7
00000d77 0c             3790 	.byte	12
                        3791 
                        3792 .LDW_4ba4298:
00000d78 2d             3793 	.byte	45
00000d79 44434d5f5f45   3794 	.strz	"DCM__E_RIVIAN_BL_SWFP_TESTER_SERIAL_NO"
00000d7f 5f5249564941 
00000d85 4e5f424c5f53 
00000d8b 5746505f5445 
00000d91 535445525f53 
00000d97 455249414c5f 
00000d9d 4e4f00 
00000da0 62             3795 	.byte	98
00000da1 07             3796 	.byte	7
00000da2 07             3797 	.byte	7
00000da3 0d             3798 	.byte	13
                        3799 
                        3800 .LDW_4ba4218:

                                                                      Page 72
                                                              C:\Users\nhuliyap\AppData\Local\Temp\gh_00006u41.s
00000da4 2d             3801 	.byte	45
00000da5 44434d5f5f45   3802 	.strz	"DCM__E_RIVIAN_BL_SWFP_PROGRAMMING_DATE"
00000dab 5f5249564941 
00000db1 4e5f424c5f53 
00000db7 5746505f5052 
00000dbd 4f4752414d4d 
00000dc3 494e475f4441 
00000dc9 544500 
00000dcc 63             3803 	.byte	99
00000dcd 07             3804 	.byte	7
00000dce 07             3805 	.byte	7
00000dcf 0e             3806 	.byte	14
                        3807 
                        3808 .LDW_4ba3e18:
00000dd0 2d             3809 	.byte	45
00000dd1 44434d5f5f45   3810 	.strz	"DCM__E_RIVIAN_VIN"
00000dd7 5f5249564941 
00000ddd 4e5f56494e00 
00000de3 64             3811 	.byte	100
00000de4 07             3812 	.byte	7
00000de5 07             3813 	.byte	7
00000de6 0f             3814 	.byte	15
                        3815 
                        3816 .LDW_4ba4398:
00000de7 2d             3817 	.byte	45
00000de8 44434d5f5f45   3818 	.strz	"DCM__E_RIVIAN_MANUF_SUPP_MODE"
00000dee 5f5249564941 
00000df4 4e5f4d414e55 
00000dfa 465f53555050 
00000e00 5f4d4f444500 
00000e06 65             3819 	.byte	101
00000e07 07             3820 	.byte	7
00000e08 07             3821 	.byte	7
00000e09 10             3822 	.byte	16
                        3823 
                        3824 .LDW_4ba4198:
00000e0a 2d             3825 	.byte	45
00000e0b 44434d5f5f45   3826 	.strz	"DCM__E_RIVIAN_GENEALOGY_VERSION"
00000e11 5f5249564941 
00000e17 4e5f47454e45 
00000e1d 414c4f47595f 
00000e23 56455253494f 
00000e29 4e00 
00000e2b 66             3827 	.byte	102
00000e2c 07             3828 	.byte	7
00000e2d 07             3829 	.byte	7
00000e2e 11             3830 	.byte	17
                        3831 
                        3832 .LDW_4ba3d58:
00000e2f 2d             3833 	.byte	45
00000e30 44434d5f5f45   3834 	.strz	"DCM__E_RIVIAN_COMPONENT_ID"
00000e36 5f5249564941 
00000e3c 4e5f434f4d50 
00000e42 4f4e454e545f 
00000e48 494400 
00000e4b 67             3835 	.byte	103
00000e4c 07             3836 	.byte	7
00000e4d 07             3837 	.byte	7
00000e4e 12             3838 	.byte	18
                        3839 
                        3840 .LDW_4ba3e98:

                                                                      Page 73
                                                              C:\Users\nhuliyap\AppData\Local\Temp\gh_00006u41.s
00000e4f 2d             3841 	.byte	45
00000e50 44434d5f5f45   3842 	.strz	"DCM__E_RIVIAN_PCBA_ID"
00000e56 5f5249564941 
00000e5c 4e5f50434241 
00000e62 5f494400 
00000e66 68             3843 	.byte	104
00000e67 07             3844 	.byte	7
00000e68 07             3845 	.byte	7
00000e69 13             3846 	.byte	19
                        3847 
                        3848 .LDW_4ba3c58:
00000e6a 2d             3849 	.byte	45
00000e6b 44434d5f5f45   3850 	.strz	"DCM__E_RIVIAN_AUX_ID"
00000e71 5f5249564941 
00000e77 4e5f4155585f 
00000e7d 494400 
00000e80 69             3851 	.byte	105
00000e81 07             3852 	.byte	7
00000e82 07             3853 	.byte	7
00000e83 14             3854 	.byte	20
                        3855 
                        3856 .LDW_4ba4258:
00000e84 2d             3857 	.byte	45
00000e85 44434d5f5f45   3858 	.strz	"DCM__E_RIVIAN_MODE_ID"
00000e8b 5f5249564941 
00000e91 4e5f4d4f4445 
00000e97 5f494400 
00000e9b 6a             3859 	.byte	106
00000e9c 07             3860 	.byte	7
00000e9d 07             3861 	.byte	7
00000e9e 15             3862 	.byte	21
                        3863 
                        3864 .LDW_4ba42d8:
00000e9f 2d             3865 	.byte	45
00000ea0 44434d5f5f45   3866 	.strz	"DCM__E_RIVIAN_BOARD_PART_NUMBER"
00000ea6 5f5249564941 
00000eac 4e5f424f4152 
00000eb2 445f50415254 
00000eb8 5f4e554d4245 
00000ebe 5200 
00000ec0 6b             3867 	.byte	107
00000ec1 07             3868 	.byte	7
00000ec2 07             3869 	.byte	7
00000ec3 16             3870 	.byte	22
                        3871 
                        3872 .LDW_4ba4018:
00000ec4 2d             3873 	.byte	45
00000ec5 44434d5f5f45   3874 	.strz	"DCM__E_RIVIAN_BOARD_SERIAL_NUMBER"
00000ecb 5f5249564941 
00000ed1 4e5f424f4152 
00000ed7 445f53455249 
00000edd 414c5f4e554d 
00000ee3 42455200 
00000ee7 6c             3875 	.byte	108
00000ee8 07             3876 	.byte	7
00000ee9 07             3877 	.byte	7
00000eea 17             3878 	.byte	23
                        3879 
                        3880 .LDW_4ba3d98:
00000eeb 2d             3881 	.byte	45
00000eec 44434d5f5f45   3882 	.strz	"DCM__E_RIVIAN_ECU_PART_NUMBER"

                                                                      Page 74
                                                              C:\Users\nhuliyap\AppData\Local\Temp\gh_00006u41.s
00000ef2 5f5249564941 
00000ef8 4e5f4543555f 
00000efe 504152545f4e 
00000f04 554d42455200 
00000f0a 6d             3883 	.byte	109
00000f0b 07             3884 	.byte	7
00000f0c 07             3885 	.byte	7
00000f0d 18             3886 	.byte	24
                        3887 
                        3888 .LDW_4ba4098:
00000f0e 2d             3889 	.byte	45
00000f0f 44434d5f5f45   3890 	.strz	"DCM__E_RIVIAN_ECU_SERIAL_NUMBER"
00000f15 5f5249564941 
00000f1b 4e5f4543555f 
00000f21 53455249414c 
00000f27 5f4e554d4245 
00000f2d 5200 
00000f2f 6e             3891 	.byte	110
00000f30 07             3892 	.byte	7
00000f31 07             3893 	.byte	7
00000f32 19             3894 	.byte	25
                        3895 
                        3896 .LDW_4ba41d8:
00000f33 2d             3897 	.byte	45
00000f34 44434d5f5f45   3898 	.strz	"DCM__E_RIVIAN_APPLICATION_SIGNATURE"
00000f3a 5f5249564941 
00000f40 4e5f4150504c 
00000f46 49434154494f 
00000f4c 4e5f5349474e 
00000f52 415455524500 
00000f58 6f             3899 	.byte	111
00000f59 07             3900 	.byte	7
00000f5a 07             3901 	.byte	7
00000f5b 1a             3902 	.byte	26
                        3903 
                        3904 .LDW_4ba3c98:
00000f5c 2d             3905 	.byte	45
00000f5d 44434d5f5f45   3906 	.strz	"DCM__E_RIVIAN_GENEALOGY_CRC32"
00000f63 5f5249564941 
00000f69 4e5f47454e45 
00000f6f 414c4f47595f 
00000f75 435243333200 
00000f7b 70             3907 	.byte	112
00000f7c 07             3908 	.byte	7
00000f7d 07             3909 	.byte	7
00000f7e 1b             3910 	.byte	27
                        3911 
                        3912 .LDW_4ba4318:
00000f7f 2d             3913 	.byte	45
00000f80 44434d5f5f45   3914 	.strz	"DCM__E_BHSENS_EOL_CHECKER_BYTE"
00000f86 5f424853454e 
00000f8c 535f454f4c5f 
00000f92 434845434b45 
00000f98 525f42595445 
00000f9e 00 
00000f9f 71             3915 	.byte	113
00000fa0 07             3916 	.byte	7
00000fa1 07             3917 	.byte	7
00000fa2 1c             3918 	.byte	28
                        3919 
                        3920 .LDW_4ba3c18:

                                                                      Page 75
                                                              C:\Users\nhuliyap\AppData\Local\Temp\gh_00006u41.s
00000fa3 2d             3921 	.byte	45
00000fa4 44434d5f5f45   3922 	.strz	"DCM__E_RESERVED_2"
00000faa 5f5245534552 
00000fb0 5645445f3200 
00000fb6 72             3923 	.byte	114
00000fb7 07             3924 	.byte	7
00000fb8 07             3925 	.byte	7
00000fb9 1d             3926 	.byte	29
                        3927 
                        3928 .LDW_4ba3cd8:
00000fba 2d             3929 	.byte	45
00000fbb 44434d5f5f45   3930 	.strz	"DCM__E_APPLICATION_CHECKSUM"
00000fc1 5f4150504c49 
00000fc7 434154494f4e 
00000fcd 5f434845434b 
00000fd3 53554d00 
00000fd7 73             3931 	.byte	115
00000fd8 07             3932 	.byte	7
00000fd9 07             3933 	.byte	7
00000fda 1e             3934 	.byte	30
                        3935 
                        3936 .LDW_4ba3dd8:
00000fdb 2d             3937 	.byte	45
00000fdc 44434d5f5f45   3938 	.strz	"DCM__E_RESERVED_3"
00000fe2 5f5245534552 
00000fe8 5645445f3300 
00000fee 74             3939 	.byte	116
00000fef 07             3940 	.byte	7
00000ff0 07             3941 	.byte	7
00000ff1 1f             3942 	.byte	31
                        3943 
                        3944 .LDW_4ba3ed8:
00000ff2 2d             3945 	.byte	45
00000ff3 44434d5f5f45   3946 	.strz	"DCM__E_ITAC_SERIAL_NUMBER"
00000ff9 5f495441435f 
00000fff 53455249414c 
00001005 5f4e554d4245 
0000100b 5200 
0000100d 75             3947 	.byte	117
0000100e 07             3948 	.byte	7
0000100f 07             3949 	.byte	7
00001010 20             3950 	.byte	32
                        3951 
                        3952 .LDW_4ba40d8:
00001011 2d             3953 	.byte	45
00001012 44434d5f5f45   3954 	.strz	"DCM__E_RESERVED_4"
00001018 5f5245534552 
0000101e 5645445f3400 
00001024 76             3955 	.byte	118
00001025 07             3956 	.byte	7
00001026 07             3957 	.byte	7
00001027 21             3958 	.byte	33
                        3959 
00001028 00             3960 	.byte	0
                        3961 
                        3962 .LDW_406b918:
00001029 28             3963 	.byte	40
0000102a 44636d5f5f45   3964 	.strz	"Dcm__Enum_ProductionDataMembers"
00001030 6e756d5f5072 
00001036 6f6475637469 
0000103c 6f6e44617461 

                                                                      Page 76
                                                              C:\Users\nhuliyap\AppData\Local\Temp\gh_00006u41.s
00001042 4d656d626572 
00001048 7300 
0000104a 77             3965 	.byte	119
0000104b 02             3966 	.byte	2
0000104c 07             3967 	.byte	7
0000104d 00000000*      3968 	.word	.LDW_4c1c380
                        3969 
                        3970 .LDW_4bc3838:
00001051 2e             3971 	.byte	46
00001052 525f46444c5f   3972 	.strz	"R_FDL_STATUS_T"
00001058 535441545553 
0000105e 5f5400 
00001061 1e             3973 	.byte	30
00001062 0e             3974 	.byte	14
00001063 12             3975 	.byte	18
00001064 01             3976 	.byte	1
00001065 01             3977 	.byte	1
                        3978 
                        3979 .LDW_4d23ca8:
00001066 2d             3980 	.byte	45
00001067 525f46444c5f   3981 	.strz	"R_FDL_OK"
0000106d 4f4b00 
00001070 20             3982 	.byte	32
00001071 05             3983 	.byte	5
00001072 12             3984 	.byte	18
00001073 00             3985 	.byte	0
                        3986 
                        3987 .LDW_4d23a28:
00001074 2d             3988 	.byte	45
00001075 525f46444c5f   3989 	.strz	"R_FDL_BUSY"
0000107b 4255535900 
00001080 21             3990 	.byte	33
00001081 08             3991 	.byte	8
00001082 12             3992 	.byte	18
00001083 01             3993 	.byte	1
                        3994 
                        3995 .LDW_4d23aa8:
00001084 2d             3996 	.byte	45
00001085 525f46444c5f   3997 	.strz	"R_FDL_SUSPENDED"
0000108b 53555350454e 
00001091 44454400 
00001095 22             3998 	.byte	34
00001096 08             3999 	.byte	8
00001097 12             4000 	.byte	18
00001098 02             4001 	.byte	2
                        4002 
                        4003 .LDW_4d23ae8:
00001099 2d             4004 	.byte	45
0000109a 525f46444c5f   4005 	.strz	"R_FDL_ERR_CONFIGURATION"
000010a0 4552525f434f 
000010a6 4e4649475552 
000010ac 4154494f4e00 
000010b2 23             4006 	.byte	35
000010b3 08             4007 	.byte	8
000010b4 12             4008 	.byte	18
000010b5 03             4009 	.byte	3
                        4010 
                        4011 .LDW_4d23ce8:
000010b6 2d             4012 	.byte	45
000010b7 525f46444c5f   4013 	.strz	"R_FDL_ERR_PARAMETER"
000010bd 4552525f5041 

                                                                      Page 77
                                                              C:\Users\nhuliyap\AppData\Local\Temp\gh_00006u41.s
000010c3 52414d455445 
000010c9 5200 
000010cb 24             4014 	.byte	36
000010cc 08             4015 	.byte	8
000010cd 12             4016 	.byte	18
000010ce 04             4017 	.byte	4
                        4018 
                        4019 .LDW_4d23d68:
000010cf 2d             4020 	.byte	45
000010d0 525f46444c5f   4021 	.strz	"R_FDL_ERR_PROTECTION"
000010d6 4552525f5052 
000010dc 4f5445435449 
000010e2 4f4e00 
000010e5 25             4022 	.byte	37
000010e6 08             4023 	.byte	8
000010e7 12             4024 	.byte	18
000010e8 05             4025 	.byte	5
                        4026 
                        4027 .LDW_4d23da8:
000010e9 2d             4028 	.byte	45
000010ea 525f46444c5f   4029 	.strz	"R_FDL_ERR_REJECTED"
000010f0 4552525f5245 
000010f6 4a4543544544 
000010fc 00 
000010fd 26             4030 	.byte	38
000010fe 08             4031 	.byte	8
000010ff 12             4032 	.byte	18
00001100 06             4033 	.byte	6
                        4034 
                        4035 .LDW_4d23de8:
00001101 2d             4036 	.byte	45
00001102 525f46444c5f   4037 	.strz	"R_FDL_ERR_WRITE"
00001108 4552525f5752 
0000110e 49544500 
00001112 27             4038 	.byte	39
00001113 08             4039 	.byte	8
00001114 12             4040 	.byte	18
00001115 07             4041 	.byte	7
                        4042 
                        4043 .LDW_4d23e68:
00001116 2d             4044 	.byte	45
00001117 525f46444c5f   4045 	.strz	"R_FDL_ERR_ERASE"
0000111d 4552525f4552 
00001123 41534500 
00001127 28             4046 	.byte	40
00001128 08             4047 	.byte	8
00001129 12             4048 	.byte	18
0000112a 08             4049 	.byte	8
                        4050 
                        4051 .LDW_4d23ea8:
0000112b 2d             4052 	.byte	45
0000112c 525f46444c5f   4053 	.strz	"R_FDL_ERR_BLANKCHECK"
00001132 4552525f424c 
00001138 414e4b434845 
0000113e 434b00 
00001141 29             4054 	.byte	41
00001142 08             4055 	.byte	8
00001143 12             4056 	.byte	18
00001144 09             4057 	.byte	9
                        4058 
                        4059 .LDW_4d23f28:

                                                                      Page 78
                                                              C:\Users\nhuliyap\AppData\Local\Temp\gh_00006u41.s
00001145 2d             4060 	.byte	45
00001146 525f46444c5f   4061 	.strz	"R_FDL_ERR_COMMAND"
0000114c 4552525f434f 
00001152 4d4d414e4400 
00001158 2a             4062 	.byte	42
00001159 08             4063 	.byte	8
0000115a 12             4064 	.byte	18
0000115b 0a             4065 	.byte	10
                        4066 
                        4067 .LDW_4d23ee8:
0000115c 2d             4068 	.byte	45
0000115d 525f46444c5f   4069 	.strz	"R_FDL_ERR_ECC_SED"
00001163 4552525f4543 
00001169 435f53454400 
0000116f 2b             4070 	.byte	43
00001170 08             4071 	.byte	8
00001171 12             4072 	.byte	18
00001172 0b             4073 	.byte	11
                        4074 
                        4075 .LDW_4d23fe8:
00001173 2d             4076 	.byte	45
00001174 525f46444c5f   4077 	.strz	"R_FDL_ERR_ECC_DED"
0000117a 4552525f4543 
00001180 435f44454400 
00001186 2c             4078 	.byte	44
00001187 08             4079 	.byte	8
00001188 12             4080 	.byte	18
00001189 0c             4081 	.byte	12
                        4082 
                        4083 .LDW_4d24068:
0000118a 2d             4084 	.byte	45
0000118b 525f46444c5f   4085 	.strz	"R_FDL_ERR_INTERNAL"
00001191 4552525f494e 
00001197 5445524e414c 
0000119d 00 
0000119e 2d             4086 	.byte	45
0000119f 08             4087 	.byte	8
000011a0 12             4088 	.byte	18
000011a1 0d             4089 	.byte	13
                        4090 
                        4091 .LDW_4d23528:
000011a2 2d             4092 	.byte	45
000011a3 525f46444c5f   4093 	.strz	"R_FDL_CANCELLED"
000011a9 43414e43454c 
000011af 4c454400 
000011b3 2e             4094 	.byte	46
000011b4 08             4095 	.byte	8
000011b5 12             4096 	.byte	18
000011b6 0e             4097 	.byte	14
                        4098 
000011b7 00             4099 	.byte	0
                        4100 
                        4101 .LDW_4b80658:
000011b8 28             4102 	.byte	40
000011b9 725f66646c5f   4103 	.strz	"r_fdl_status_t"
000011bf 737461747573 
000011c5 5f7400 
000011c8 2f             4104 	.byte	47
000011c9 02             4105 	.byte	2
000011ca 12             4106 	.byte	18
000011cb 00000000*      4107 	.word	.LDW_4bc3838

                                                                      Page 79
                                                              C:\Users\nhuliyap\AppData\Local\Temp\gh_00006u41.s
                        4108 
                        4109 .LDW_4bc3888:
000011cf 2e             4110 	.byte	46
000011d0 525f46444c5f   4111 	.strz	"R_FDL_ACCESS_TYPE_T"
000011d6 414343455353 
000011dc 5f545950455f 
000011e2 5400 
000011e4 31             4112 	.byte	49
000011e5 0e             4113 	.byte	14
000011e6 12             4114 	.byte	18
000011e7 01             4115 	.byte	1
000011e8 01             4116 	.byte	1
                        4117 
                        4118 .LDW_4d23228:
000011e9 2d             4119 	.byte	45
000011ea 525f46444c5f   4120 	.strz	"R_FDL_ACCESS_NONE"
000011f0 414343455353 
000011f6 5f4e4f4e4500 
000011fc 33             4121 	.byte	51
000011fd 05             4122 	.byte	5
000011fe 12             4123 	.byte	18
000011ff 00             4124 	.byte	0
                        4125 
                        4126 .LDW_4d236e8:
00001200 2d             4127 	.byte	45
00001201 525f46444c5f   4128 	.strz	"R_FDL_ACCESS_USER"
00001207 414343455353 
0000120d 5f5553455200 
00001213 34             4129 	.byte	52
00001214 08             4130 	.byte	8
00001215 12             4131 	.byte	18
00001216 01             4132 	.byte	1
                        4133 
                        4134 .LDW_4d23568:
00001217 2d             4135 	.byte	45
00001218 525f46444c5f   4136 	.strz	"R_FDL_ACCESS_EEL"
0000121e 414343455353 
00001224 5f45454c00 
00001229 35             4137 	.byte	53
0000122a 08             4138 	.byte	8
0000122b 12             4139 	.byte	18
0000122c 02             4140 	.byte	2
                        4141 
0000122d 00             4142 	.byte	0
                        4143 
                        4144 .LDW_4b80188:
0000122e 28             4145 	.byte	40
0000122f 725f66646c5f   4146 	.strz	"r_fdl_accessType_t"
00001235 616363657373 
0000123b 547970655f74 
00001241 00 
00001242 36             4147 	.byte	54
00001243 02             4148 	.byte	2
00001244 12             4149 	.byte	18
00001245 00000000*      4150 	.word	.LDW_4bc3888
                        4151 
                        4152 .LDW_4bc38d8:
00001249 2e             4153 	.byte	46
0000124a 525f46444c5f   4154 	.strz	"R_FDL_COMMAND_T"
00001250 434f4d4d414e 
00001256 445f5400 

                                                                      Page 80
                                                              C:\Users\nhuliyap\AppData\Local\Temp\gh_00006u41.s
0000125a 38             4155 	.byte	56
0000125b 0e             4156 	.byte	14
0000125c 12             4157 	.byte	18
0000125d 01             4158 	.byte	1
0000125e 01             4159 	.byte	1
                        4160 
                        4161 .LDW_4d23168:
0000125f 2d             4162 	.byte	45
00001260 525f46444c5f   4163 	.strz	"R_FDL_CMD_ERASE"
00001266 434d445f4552 
0000126c 41534500 
00001270 3a             4164 	.byte	58
00001271 05             4165 	.byte	5
00001272 12             4166 	.byte	18
00001273 00             4167 	.byte	0
                        4168 
                        4169 .LDW_4d234a8:
00001274 2d             4170 	.byte	45
00001275 525f46444c5f   4171 	.strz	"R_FDL_CMD_WRITE"
0000127b 434d445f5752 
00001281 49544500 
00001285 3b             4172 	.byte	59
00001286 08             4173 	.byte	8
00001287 12             4174 	.byte	18
00001288 01             4175 	.byte	1
                        4176 
                        4177 .LDW_4d235a8:
00001289 2d             4178 	.byte	45
0000128a 525f46444c5f   4179 	.strz	"R_FDL_CMD_BLANKCHECK"
00001290 434d445f424c 
00001296 414e4b434845 
0000129c 434b00 
0000129f 3c             4180 	.byte	60
000012a0 08             4181 	.byte	8
000012a1 12             4182 	.byte	18
000012a2 02             4183 	.byte	2
                        4184 
                        4185 .LDW_4d23928:
000012a3 2d             4186 	.byte	45
000012a4 525f46444c5f   4187 	.strz	"R_FDL_CMD_READ"
000012aa 434d445f5245 
000012b0 414400 
000012b3 3d             4188 	.byte	61
000012b4 08             4189 	.byte	8
000012b5 12             4190 	.byte	18
000012b6 03             4191 	.byte	3
                        4192 
                        4193 .LDW_4d23628:
000012b7 2d             4194 	.byte	45
000012b8 525f46444c5f   4195 	.strz	"R_FDL_CMD_PREPARE_ENV"
000012be 434d445f5052 
000012c4 45504152455f 
000012ca 454e5600 
000012ce 41             4196 	.byte	65
000012cf 05             4197 	.byte	5
000012d0 12             4198 	.byte	18
000012d1 05             4199 	.byte	5
                        4200 
000012d2 00             4201 	.byte	0
                        4202 
                        4203 .LDW_4b80290:

                                                                      Page 81
                                                              C:\Users\nhuliyap\AppData\Local\Temp\gh_00006u41.s
000012d3 28             4204 	.byte	40
000012d4 725f66646c5f   4205 	.strz	"r_fdl_command_t"
000012da 636f6d6d616e 
000012e0 645f7400 
000012e4 42             4206 	.byte	66
000012e5 02             4207 	.byte	2
000012e6 12             4208 	.byte	18
000012e7 00000000*      4209 	.word	.LDW_4bc38d8
                        4210 
                        4211 .LDW_4bc2f70:
000012eb 40             4212 	.byte	64
000012ec 525f46444c5f   4213 	.strz	"R_FDL_REQUEST_T"
000012f2 524551554553 
000012f8 545f5400 
000012fc 44             4214 	.byte	68
000012fd 19             4215 	.byte	25
000012fe 12             4216 	.byte	18
000012ff 10             4217 	.byte	16
00001300 01             4218 	.byte	1
                        4219 
                        4220 	.section	.debug_abbrev
000000c8 40             4221 	.byte	64
000000c9 13             4222 	.byte	19
000000ca 01             4223 	.byte	1
000000cb 0308           4224 	.byte	3,8
000000cd 3b0f           4225 	.byte	59,15
000000cf 390f           4226 	.byte	57,15
000000d1 3a0f           4227 	.byte	58,15
000000d3 0b0f           4228 	.byte	11,15
000000d5 320b           4229 	.byte	50,11
000000d7 0000           4230 	.byte	0,0
                        4231 
                        4232 	.section	.debug_info
                        4233 .LDW_4cba558:
00001301 23             4234 	.byte	35
00001302 636f6d6d616e   4235 	.strz	"command_enu"
00001308 645f656e7500 
0000130e 46             4236 	.byte	70
0000130f 19             4237 	.byte	25
00001310 12             4238 	.byte	18
00001311 00000000*      4239 	.word	.LDW_4b80290
00001315 0223           4240 	.byte	2,35
00001317 00             4241 	.byte	0
00001318 01             4242 	.byte	1
                        4243 
                        4244 .LDW_4cba318:
00001319 23             4245 	.byte	35
0000131a 627566416464   4246 	.strz	"bufAddr_u32"
00001320 725f75333200 
00001326 47             4247 	.byte	71
00001327 18             4248 	.byte	24
00001328 12             4249 	.byte	18
00001329 00000000*      4250 	.word	.LDW_4d101f8
0000132d 0223           4251 	.byte	2,35
0000132f 04             4252 	.byte	4
00001330 01             4253 	.byte	1
                        4254 
                        4255 .LDW_4cba678:
00001331 23             4256 	.byte	35
00001332 6964785f7533   4257 	.strz	"idx_u32"
00001338 3200 

                                                                      Page 82
                                                              C:\Users\nhuliyap\AppData\Local\Temp\gh_00006u41.s
0000133a 48             4258 	.byte	72
0000133b 18             4259 	.byte	24
0000133c 12             4260 	.byte	18
0000133d 00000000*      4261 	.word	.LDW_4d101f8
00001341 0223           4262 	.byte	2,35
00001343 08             4263 	.byte	8
00001344 01             4264 	.byte	1
                        4265 
                        4266 .LDW_4cba3f0:
00001345 23             4267 	.byte	35
00001346 636e745f7531   4268 	.strz	"cnt_u16"
0000134c 3600 
0000134e 49             4269 	.byte	73
0000134f 18             4270 	.byte	24
00001350 12             4271 	.byte	18
00001351 00000000*      4272 	.word	.LDW_4d10568
00001355 0223           4273 	.byte	2,35
00001357 0c             4274 	.byte	12
00001358 01             4275 	.byte	1
                        4276 
                        4277 .LDW_4cba4c8:
00001359 23             4278 	.byte	35
0000135a 616363657373   4279 	.strz	"accessType_enu"
00001360 547970655f65 
00001366 6e7500 
00001369 4a             4280 	.byte	74
0000136a 19             4281 	.byte	25
0000136b 12             4282 	.byte	18
0000136c 00000000*      4283 	.word	.LDW_4b80188
00001370 0223           4284 	.byte	2,35
00001372 0e             4285 	.byte	14
00001373 01             4286 	.byte	1
                        4287 
                        4288 .LDW_4cba6c0:
00001374 23             4289 	.byte	35
00001375 737461747573   4290 	.strz	"status_enu"
0000137b 5f656e7500 
00001380 4b             4291 	.byte	75
00001381 19             4292 	.byte	25
00001382 12             4293 	.byte	18
00001383 00000000*      4294 	.word	.LDW_4b80658
00001387 0223           4295 	.byte	2,35
00001389 0f             4296 	.byte	15
0000138a 01             4297 	.byte	1
                        4298 
0000138b 00             4299 	.byte	0
                        4300 
                        4301 .LDW_4bc3020:
0000138c 28             4302 	.byte	40
0000138d 725f66646c5f   4303 	.strz	"r_fdl_request_t"
00001393 726571756573 
00001399 745f7400 
0000139d 4c             4304 	.byte	76
0000139e 02             4305 	.byte	2
0000139f 12             4306 	.byte	18
000013a0 00000000*      4307 	.word	.LDW_4bc31d8
                        4308 
                        4309 .LDW_4d2ddc0:
000013a4 04             4310 	.byte	4
000013a5 44434d5f5f55   4311 	.strz	"DCM__UN_ProductionDataFlash"
000013ab 4e5f50726f64 

                                                                      Page 83
                                                              C:\Users\nhuliyap\AppData\Local\Temp\gh_00006u41.s
000013b1 756374696f6e 
000013b7 44617461466c 
000013bd 61736800 
000013c1 0b             4312 	.byte	11
000013c2 2e             4313 	.byte	46
000013c3 01             4314 	.byte	1
000013c4 00000000*      4315 	.word	.LDW_4b803f0
000013c8 00             4316 	.byte	0
000013c9 00             4317 	.byte	0
000013ca 0503           4318 	.byte	5,3
000013cc 00000000*      4319 	.word	_DCM__UN_ProductionDataFlash..C.3A.5C_ECU2.5CECU_Rivian_A1.5CTarget.5Crepo_projects.5CpRealEcu.5CcR_R2023.2E09.2E15.5Cmake.5Coutput.5Cobjects.5CProductionFlashInterface.
                        4320 
                        4321 	.section	.debug_abbrev
000000d9 04             4322 	.byte	4
000000da 34             4323 	.byte	52
000000db 00             4324 	.byte	0
000000dc 0308           4325 	.byte	3,8
000000de 3b0f           4326 	.byte	59,15
000000e0 390f           4327 	.byte	57,15
000000e2 3a0f           4328 	.byte	58,15
000000e4 4910           4329 	.byte	73,16
000000e6 3f0c           4330 	.byte	63,12
000000e8 3c0c           4331 	.byte	60,12
000000ea 020a           4332 	.byte	2,10
000000ec 0000           4333 	.byte	0,0
                        4334 
                        4335 	.section	.debug_info
                        4336 .LDW_4d36a28:
000013d0 15             4337 	.byte	21
000013d1 525f46444c5f   4338 	.strz	"R_FDL_Execute"
000013d7 457865637574 
000013dd 6500 
000013df 24             4339 	.byte	36
000013e0 23             4340 	.byte	35
000013e1 14             4341 	.byte	20
000013e2 01             4342 	.byte	1
000013e3 00             4343 	.byte	0
000013e4 01             4344 	.byte	1
000013e5 01             4345 	.byte	1
000013e6 00             4346 	.byte	0
000013e7 01             4347 	.byte	1
                        4348 
                        4349 	.section	.debug_abbrev
000000ee 15             4350 	.byte	21
000000ef 2e             4351 	.byte	46
000000f0 01             4352 	.byte	1
000000f1 0308           4353 	.byte	3,8
000000f3 3b0f           4354 	.byte	59,15
000000f5 390f           4355 	.byte	57,15
000000f7 3a0f           4356 	.byte	58,15
000000f9 3c0c           4357 	.byte	60,12
000000fb 200b           4358 	.byte	32,11
000000fd 3f0c           4359 	.byte	63,12
000000ff 320b           4360 	.byte	50,11
00000101 4c0b           4361 	.byte	76,11
00000103 270c           4362 	.byte	39,12
00000105 0000           4363 	.byte	0,0
                        4364 
                        4365 	.section	.debug_info
000013e8 00             4366 	.byte	0
                        4367 

                                                                      Page 84
                                                              C:\Users\nhuliyap\AppData\Local\Temp\gh_00006u41.s
                        4368 .LDW_4d37440:
000013e9 15             4369 	.byte	21
000013ea 525f46444c5f   4370 	.strz	"R_FDL_Handler"
000013f0 48616e646c65 
000013f6 7200 
000013f8 25             4371 	.byte	37
000013f9 23             4372 	.byte	35
000013fa 14             4373 	.byte	20
000013fb 01             4374 	.byte	1
000013fc 00             4375 	.byte	0
000013fd 01             4376 	.byte	1
000013fe 01             4377 	.byte	1
000013ff 00             4378 	.byte	0
00001400 01             4379 	.byte	1
                        4380 
00001401 00             4381 	.byte	0
                        4382 
                        4383 .LDW_4d38998:
00001402 16             4384 	.byte	22
00001403 4750494f5f47   4385 	.strz	"GPIO_GetFrequencySetting"
00001409 657446726571 
0000140f 75656e637953 
00001415 657474696e67 
0000141b 00 
0000141c 10             4386 	.byte	16
0000141d 11             4387 	.byte	17
0000141e 1b             4388 	.byte	27
0000141f 00000000*      4389 	.word	.LDW_406b970
00001423 01             4390 	.byte	1
00001424 00             4391 	.byte	0
00001425 01             4392 	.byte	1
00001426 01             4393 	.byte	1
00001427 00             4394 	.byte	0
00001428 01             4395 	.byte	1
                        4396 
                        4397 	.section	.debug_abbrev
00000107 16             4398 	.byte	22
00000108 2e             4399 	.byte	46
00000109 01             4400 	.byte	1
0000010a 0308           4401 	.byte	3,8
0000010c 3b0f           4402 	.byte	59,15
0000010e 390f           4403 	.byte	57,15
00000110 3a0f           4404 	.byte	58,15
00000112 4910           4405 	.byte	73,16
00000114 3c0c           4406 	.byte	60,12
00000116 200b           4407 	.byte	32,11
00000118 3f0c           4408 	.byte	63,12
0000011a 320b           4409 	.byte	50,11
0000011c 4c0b           4410 	.byte	76,11
0000011e 270c           4411 	.byte	39,12
00000120 0000           4412 	.byte	0,0
                        4413 
                        4414 	.section	.debug_info
00001429 00             4415 	.byte	0
                        4416 
                        4417 .LDW_406ba20:
0000142a 13             4418 	.byte	19
0000142b 50524f44464c   4419 	.strz	"PRODFLASH__WriteProductionDataMember"
00001431 4153485f5f57 
00001437 726974655072 
0000143d 6f6475637469 

                                                                      Page 85
                                                              C:\Users\nhuliyap\AppData\Local\Temp\gh_00006u41.s
00001443 6f6e44617461 
00001449 4d656d626572 
0000144f 00 
00001450 0e             4420 	.byte	14
00001451 0d             4421 	.byte	13
00001452 01             4422 	.byte	1
00001453 00000000*      4423 	.word	_PRODFLASH__WriteProductionDataMember..C.3A.5C_ECU2.5CECU_Rivian_A1.5CTarget.5Crepo_projects.5CpRealEcu.5CcR_R2023.2E09.2E15.5Cmake.5Coutput.5Cobjects.5CProductionFlashInterface.
00001457 00000000*      4424 	.word	___ghs_eofn_PRODFLASH__WriteProductionDataMember
0000145b 0153           4425 	.byte	1,83
0000145d 828080fc0b     4426 	.byte	130,128,128,252,11
00001462 20             4427 	.byte	32
00001463 03             4428 	.byte	3
00001464 e000           4429 	.byte	224,0
00001466 00             4430 	.byte	0
00001467 00             4431 	.byte	0
00001468 00             4432 	.byte	0
00001469 00             4433 	.byte	0
0000146a 01             4434 	.byte	1
0000146b 00             4435 	.byte	0
0000146c 01             4436 	.byte	1
                        4437 
                        4438 	.section	.debug_abbrev
00000122 13             4439 	.byte	19
00000123 2e             4440 	.byte	46
00000124 01             4441 	.byte	1
00000125 0308           4442 	.byte	3,8
00000127 3b0f           4443 	.byte	59,15
00000129 390f           4444 	.byte	57,15
0000012b 3a0f           4445 	.byte	58,15
0000012d 1101           4446 	.byte	17,1
0000012f 1201           4447 	.byte	18,1
00000131 400a           4448 	.byte	64,10
00000133 8341           4449 	.byte	131,65
00000135 0f             4450 	.byte	15
00000136 8741           4451 	.byte	135,65
00000138 0d             4452 	.byte	13
00000139 8541           4453 	.byte	133,65
0000013b 0f             4454 	.byte	15
0000013c 8641           4455 	.byte	134,65
0000013e 0d             4456 	.byte	13
0000013f 9241           4457 	.byte	146,65
00000141 0f             4458 	.byte	15
00000142 3c0c           4459 	.byte	60,12
00000144 200b           4460 	.byte	32,11
00000146 3f0c           4461 	.byte	63,12
00000148 320b           4462 	.byte	50,11
0000014a 4c0b           4463 	.byte	76,11
0000014c 270c           4464 	.byte	39,12
0000014e 0000           4465 	.byte	0,0
                        4466 
                        4467 	.section	.debug_frame
                        4468 .LDW_4c8f1c0:
00000090 00000000*      4469 	.word	.LDW_unq_4-.LDW_unq_3
                        4470 .LDW_unq_3:
00000094 00000000*      4471 	.word	.LDW_4cbe898
00000098 00000000*      4472 	.word	_PRODFLASH__WriteProductionDataMember..C.3A.5C_ECU2.5CECU_Rivian_A1.5CTarget.5Crepo_projects.5CpRealEcu.5CcR_R2023.2E09.2E15.5Cmake.5Coutput.5Cobjects.5CProductionFlashInterface.
0000009c 00000000*      4473 	.word	___ghs_eofn_PRODFLASH__WriteProductionDataMember-_PRODFLASH__WriteProductionDataMember..C.3A.5C_ECU2.5CECU_Rivian_A1.5CTarget.5Crepo_projects.5CpRealEcu.5CcR_R2023.2E09.2E15.5Cmake.5Coutput.5Cobjects.5CProductionFlashInterface.
000000a0 44             4474 	.byte	68
000000a1 9f             4475 	.byte	159
000000a2 30             4476 	.byte	48
000000a3 40             4477 	.byte	64

                                                                      Page 86
                                                              C:\Users\nhuliyap\AppData\Local\Temp\gh_00006u41.s
000000a4 9d             4478 	.byte	157
000000a5 34             4479 	.byte	52
000000a6 40             4480 	.byte	64
000000a7 9c             4481 	.byte	156
000000a8 38             4482 	.byte	56
000000a9 40             4483 	.byte	64
000000aa 9b             4484 	.byte	155
000000ab 3c             4485 	.byte	60
000000ac 40             4486 	.byte	64
000000ad 9a             4487 	.byte	154
000000ae 40             4488 	.byte	64
000000af 40             4489 	.byte	64
000000b0 99             4490 	.byte	153
000000b1 44             4491 	.byte	68
000000b2 40             4492 	.byte	64
000000b3 98             4493 	.byte	152
000000b4 48             4494 	.byte	72
000000b5 40             4495 	.byte	64
000000b6 97             4496 	.byte	151
000000b7 4c             4497 	.byte	76
000000b8 01             4498 	.byte	1
000000b9 00000000*      4499 	.word	.LDW52
000000bd 00             4500 	.byte	0
000000be 00             4501 	.byte	0
000000bf 00             4502 	.byte	0
                        4503 .LDW_unq_4:
                        4504 	.section	.debug_line
000004eb 000502         4505 	.byte	0,5,2
000004ee 00000000*      4506 	.word	_PRODFLASH__WriteProductionDataMember..C.3A.5C_ECU2.5CECU_Rivian_A1.5CTarget.5Crepo_projects.5CpRealEcu.5CcR_R2023.2E09.2E15.5Cmake.5Coutput.5Cobjects.5CProductionFlashInterface.
000004f2 03             4507 	.byte	3
000004f3 0e             4508 	.byte	14
000004f4 02             4509 	.byte	2
000004f5 00             4510 	.byte	0
000004f6 01             4511 	.byte	1
000004f7 06             4512 	.byte	6
000004f8 03             4513 	.byte	3
000004f9 08             4514 	.byte	8
000004fa 02             4515 	.byte	2
000004fb 0c             4516 	.byte	12
000004fc 01             4517 	.byte	1
000004fd 14             4518 	.byte	20
000004fe 000502         4519 	.byte	0,5,2
00000501 00000000*      4520 	.word	.LDWlin48
00000505 0c             4521 	.byte	12
00000506 000502         4522 	.byte	0,5,2
00000509 00000000*      4523 	.word	.LDWlin49
0000050d 0c             4524 	.byte	12
0000050e 000502         4525 	.byte	0,5,2
00000511 00000000*      4526 	.word	.LDWlin50
00000515 0c             4527 	.byte	12
00000516 000502         4528 	.byte	0,5,2
00000519 00000000*      4529 	.word	.LDWlin51
0000051d 0c             4530 	.byte	12
0000051e 02             4531 	.byte	2
0000051f 02             4532 	.byte	2
00000520 000502         4533 	.byte	0,5,2
00000523 00000000*      4534 	.word	.LDWlin52
00000527 03             4535 	.byte	3
00000528 05             4536 	.byte	5
00000529 02             4537 	.byte	2
0000052a 00             4538 	.byte	0

                                                                      Page 87
                                                              C:\Users\nhuliyap\AppData\Local\Temp\gh_00006u41.s
0000052b 01             4539 	.byte	1
0000052c 02             4540 	.byte	2
0000052d 02             4541 	.byte	2
0000052e 0c             4542 	.byte	12
0000052f 000502         4543 	.byte	0,5,2
00000532 00000000*      4544 	.word	.LDWlin53
00000536 03             4545 	.byte	3
00000537 7e             4546 	.byte	126
00000538 02             4547 	.byte	2
00000539 00             4548 	.byte	0
0000053a 01             4549 	.byte	1
0000053b 000502         4550 	.byte	0,5,2
0000053e 00000000*      4551 	.word	.LDWlin54
00000542 0d             4552 	.byte	13
00000543 0c             4553 	.byte	12
00000544 000502         4554 	.byte	0,5,2
00000547 00000000*      4555 	.word	.LDWlin55
0000054b 0c             4556 	.byte	12
0000054c 33             4557 	.byte	51
0000054d 0d             4558 	.byte	13
0000054e 0b             4559 	.byte	11
0000054f 0d             4560 	.byte	13
00000550 02             4561 	.byte	2
00000551 00             4562 	.byte	0
00000552 0d             4563 	.byte	13
00000553 000502         4564 	.byte	0,5,2
00000556 00000000*      4565 	.word	.LDWlin56
0000055a 0c             4566 	.byte	12
0000055b 43             4567 	.byte	67
0000055c 13             4568 	.byte	19
0000055d 03             4569 	.byte	3
0000055e 7c             4570 	.byte	124
0000055f 02             4571 	.byte	2
00000560 08             4572 	.byte	8
00000561 01             4573 	.byte	1
00000562 000502         4574 	.byte	0,5,2
00000565 00000000*      4575 	.word	.LDWlin57
00000569 03             4576 	.byte	3
0000056a 05             4577 	.byte	5
0000056b 02             4578 	.byte	2
0000056c 00             4579 	.byte	0
0000056d 01             4580 	.byte	1
0000056e 0c             4581 	.byte	12
0000056f 000502         4582 	.byte	0,5,2
00000572 00000000*      4583 	.word	.LDWlin58
00000576 03             4584 	.byte	3
00000577 62             4585 	.byte	98
00000578 02             4586 	.byte	2
00000579 00             4587 	.byte	0
0000057a 01             4588 	.byte	1
0000057b 000502         4589 	.byte	0,5,2
0000057e 00000000*      4590 	.word	.LDWlin59
00000582 03             4591 	.byte	3
00000583 1f             4592 	.byte	31
00000584 02             4593 	.byte	2
00000585 00             4594 	.byte	0
00000586 01             4595 	.byte	1
00000587 0b             4596 	.byte	11
00000588 02             4597 	.byte	2
00000589 04             4598 	.byte	4
0000058a 000101         4599 	.byte	0,1,1

                                                                      Page 88
                                                              C:\Users\nhuliyap\AppData\Local\Temp\gh_00006u41.s
                        4600 	.section	.debug_info
                        4601 .LDW_406bab8:
0000146d 0f             4602 	.byte	15
0000146e 454e5f4d656d   4603 	.strz	"EN_Member"
00001474 62657200 
00001478 0e             4604 	.byte	14
00001479 52             4605 	.byte	82
0000147a 01             4606 	.byte	1
0000147b 00000000*      4607 	.word	.LDW_406b918
0000147f 00             4608 	.byte	0
00001480 016d           4609 	.byte	1,109
                        4610 
                        4611 	.section	.debug_abbrev
00000150 0f             4612 	.byte	15
00000151 05             4613 	.byte	5
00000152 00             4614 	.byte	0
00000153 0308           4615 	.byte	3,8
00000155 3b0f           4616 	.byte	59,15
00000157 390f           4617 	.byte	57,15
00000159 3a0f           4618 	.byte	58,15
0000015b 4910           4619 	.byte	73,16
0000015d 4b0c           4620 	.byte	75,12
0000015f 020a           4621 	.byte	2,10
00000161 0000           4622 	.byte	0,0
                        4623 
                        4624 	.section	.debug_info
                        4625 .LDW_4ba43f8:
00001482 0f             4626 	.byte	15
00001483 5055385f4461   4627 	.strz	"PU8_Data"
00001489 746100 
0000148c 0e             4628 	.byte	14
0000148d 6a             4629 	.byte	106
0000148e 01             4630 	.byte	1
0000148f 00000000*      4631 	.word	.LDW_4057080
00001493 00             4632 	.byte	0
00001494 0167           4633 	.byte	1,103
                        4634 
                        4635 .LDW_4ba4450:
00001496 0f             4636 	.byte	15
00001497 55385f4c656e   4637 	.strz	"U8_Length"
0000149d 67746800 
000014a1 0e             4638 	.byte	14
000014a2 8001           4639 	.byte	128,1
000014a4 01             4640 	.byte	1
000014a5 00000000*      4641 	.word	.LDW_406b9c8
000014a9 00             4642 	.byte	0
000014aa 0169           4643 	.byte	1,105
                        4644 
                        4645 .LDW_40518d8:
000014ac 1d             4646 	.byte	29
000014ad 00000000*      4647 	.word	.LDW22
000014b1 00000000*      4648 	.word	.LDW52
                        4649 
                        4650 	.section	.debug_abbrev
00000163 1d             4651 	.byte	29
00000164 0b             4652 	.byte	11
00000165 01             4653 	.byte	1
00000166 1101           4654 	.byte	17,1
00000168 1201           4655 	.byte	18,1
0000016a 0000           4656 	.byte	0,0
                        4657 

                                                                      Page 89
                                                              C:\Users\nhuliyap\AppData\Local\Temp\gh_00006u41.s
                        4658 	.section	.debug_info
                        4659 .LDW_4ba4530:
000014b5 04             4660 	.byte	4
000014b6 4155385f466c   4661 	.strz	"AU8_FlashBlockBuffer"
000014bc 617368426c6f 
000014c2 636b42756666 
000014c8 657200 
000014cb 10             4662 	.byte	16
000014cc 09             4663 	.byte	9
000014cd 01             4664 	.byte	1
000014ce 00000000*      4665 	.word	.LDW_4ba44a8
000014d2 00             4666 	.byte	0
000014d3 00             4667 	.byte	0
000014d4 0273           4668 	.byte	2,115
000014d6 00             4669 	.byte	0
                        4670 
                        4671 .LDW_4ba45e0:
000014d7 04             4672 	.byte	4
000014d8 5533325f4164   4673 	.strz	"U32_AddressOfMember"
000014de 64726573734f 
000014e4 664d656d6265 
000014ea 7200 
000014ec 11             4674 	.byte	17
000014ed 0a             4675 	.byte	10
000014ee 01             4676 	.byte	1
000014ef 00000000*      4677 	.word	.LDW_4ba4588
000014f3 00             4678 	.byte	0
000014f4 00             4679 	.byte	0
000014f5 016b           4680 	.byte	1,107
                        4681 
                        4682 .LDW_4ba4690:
000014f7 04             4683 	.byte	4
000014f8 5531365f5369   4684 	.strz	"U16_SizeOfMember"
000014fe 7a654f664d65 
00001504 6d62657200 
00001509 12             4685 	.byte	18
0000150a 0a             4686 	.byte	10
0000150b 01             4687 	.byte	1
0000150c 00000000*      4688 	.word	.LDW_4ba4638
00001510 00             4689 	.byte	0
00001511 00             4690 	.byte	0
00001512 016d           4691 	.byte	1,109
                        4692 
                        4693 .LDW_4ba46e8:
00001514 04             4694 	.byte	4
00001515 55385f537461   4695 	.strz	"U8_StartBlockNumber"
0000151b 7274426c6f63 
00001521 6b4e756d6265 
00001527 7200 
00001529 13             4696 	.byte	19
0000152a 09             4697 	.byte	9
0000152b 01             4698 	.byte	1
0000152c 00000000*      4699 	.word	.LDW_406b970
00001530 00             4700 	.byte	0
00001531 00             4701 	.byte	0
00001532 016a           4702 	.byte	1,106
                        4703 
                        4704 .LDW_4ba4740:
00001534 04             4705 	.byte	4
00001535 55385f456e64   4706 	.strz	"U8_EndBlockNumber"
0000153b 426c6f636b4e 

                                                                      Page 90
                                                              C:\Users\nhuliyap\AppData\Local\Temp\gh_00006u41.s
00001541 756d62657200 
00001547 14             4707 	.byte	20
00001548 09             4708 	.byte	9
00001549 01             4709 	.byte	1
0000154a 00000000*      4710 	.word	.LDW_406b970
0000154e 00             4711 	.byte	0
0000154f 00             4712 	.byte	0
00001550 0168           4713 	.byte	1,104
                        4714 
                        4715 .LDW_4ba4798:
00001552 04             4716 	.byte	4
00001553 55385f426c6f   4717 	.strz	"U8_BlockNumberCounter"
00001559 636b4e756d62 
0000155f 6572436f756e 
00001565 74657200 
00001569 15             4718 	.byte	21
0000156a 09             4719 	.byte	9
0000156b 01             4720 	.byte	1
0000156c 00000000*      4721 	.word	.LDW_406b970
00001570 00             4722 	.byte	0
00001571 00             4723 	.byte	0
00001572 016d           4724 	.byte	1,109
                        4725 
                        4726 .LDW_4ba47f0:
00001574 04             4727 	.byte	4
00001575 55385f427566   4728 	.strz	"U8_BufferCounter"
0000157b 666572436f75 
00001581 6e74657200 
00001586 16             4729 	.byte	22
00001587 09             4730 	.byte	9
00001588 01             4731 	.byte	1
00001589 00000000*      4732 	.word	.LDW_406b970
0000158d 00             4733 	.byte	0
0000158e 00             4734 	.byte	0
0000158f 0161           4735 	.byte	1,97
                        4736 
                        4737 .LDW_4bc2db8:
00001591 04             4738 	.byte	4
00001592 55385f427974   4739 	.strz	"U8_BytesToWrite"
00001598 6573546f5772 
0000159e 69746500 
000015a2 17             4740 	.byte	23
000015a3 09             4741 	.byte	9
000015a4 01             4742 	.byte	1
000015a5 00000000*      4743 	.word	.LDW_406b970
000015a9 00             4744 	.byte	0
000015aa 00             4745 	.byte	0
000015ab 016c           4746 	.byte	1,108
                        4747 
                        4748 .LDW_4051968:
000015ad 1d             4749 	.byte	29
000015ae 00000000*      4750 	.word	.LDW32
000015b2 00000000*      4751 	.word	.LDW42
                        4752 
                        4753 .LDW_4bc3180:
000015b6 04             4754 	.byte	4
000015b7 55385f537461   4755 	.strz	"U8_StartPositionOfWrite"
000015bd 7274506f7369 
000015c3 74696f6e4f66 
000015c9 577269746500 
000015cf 23             4756 	.byte	35

                                                                      Page 91
                                                              C:\Users\nhuliyap\AppData\Local\Temp\gh_00006u41.s
000015d0 0a             4757 	.byte	10
000015d1 01             4758 	.byte	1
000015d2 00000000*      4759 	.word	.LDW_406b970
000015d6 00             4760 	.byte	0
000015d7 00             4761 	.byte	0
000015d8 0162           4762 	.byte	1,98
                        4763 
                        4764 .LDW_4bc2cb0:
000015da 04             4765 	.byte	4
000015db 55385f437572   4766 	.strz	"U8_CurrentPositionOfWrite"
000015e1 72656e74506f 
000015e7 736974696f6e 
000015ed 4f6657726974 
000015f3 6500 
000015f5 24             4767 	.byte	36
000015f6 0a             4768 	.byte	10
000015f7 01             4769 	.byte	1
000015f8 00000000*      4770 	.word	.LDW_406b970
000015fc 00             4771 	.byte	0
000015fd 00             4772 	.byte	0
000015fe 0162           4773 	.byte	1,98
                        4774 
00001600 00             4775 	.byte	0
                        4776 
00001601 00             4777 	.byte	0
                        4778 
00001602 00             4779 	.byte	0
                        4780 
                        4781 .LDW_4ba4848:
00001603 14             4782 	.byte	20
00001604 50524f44464c   4783 	.strz	"PRODFLASH__GetSizeOfMember"
0000160a 4153485f5f47 
00001610 657453697a65 
00001616 4f664d656d62 
0000161c 657200 
0000161f 43             4784 	.byte	67
00001620 0f             4785 	.byte	15
00001621 01             4786 	.byte	1
00001622 00000000*      4787 	.word	.LDW_4ba4638
00001626 00000000*      4788 	.word	_PRODFLASH__GetSizeOfMember..C.3A.5C_ECU2.5CECU_Rivian_A1.5CTarget.5Crepo_projects.5CpRealEcu.5CcR_R2023.2E09.2E15.5Cmake.5Coutput.5Cobjects.5CProductionFlashInterface.
0000162a 00000000*      4789 	.word	___ghs_eofn_PRODFLASH__GetSizeOfMember
0000162e 0153           4790 	.byte	1,83
00001630 02             4791 	.byte	2
00001631 00             4792 	.byte	0
00001632 02             4793 	.byte	2
00001633 00             4794 	.byte	0
00001634 00             4795 	.byte	0
00001635 00             4796 	.byte	0
00001636 00             4797 	.byte	0
00001637 00             4798 	.byte	0
00001638 01             4799 	.byte	1
00001639 00             4800 	.byte	0
0000163a 01             4801 	.byte	1
                        4802 
                        4803 	.section	.debug_abbrev
0000016c 14             4804 	.byte	20
0000016d 2e             4805 	.byte	46
0000016e 01             4806 	.byte	1
0000016f 0308           4807 	.byte	3,8
00000171 3b0f           4808 	.byte	59,15
00000173 390f           4809 	.byte	57,15

                                                                      Page 92
                                                              C:\Users\nhuliyap\AppData\Local\Temp\gh_00006u41.s
00000175 3a0f           4810 	.byte	58,15
00000177 4910           4811 	.byte	73,16
00000179 1101           4812 	.byte	17,1
0000017b 1201           4813 	.byte	18,1
0000017d 400a           4814 	.byte	64,10
0000017f 8341           4815 	.byte	131,65
00000181 0f             4816 	.byte	15
00000182 8741           4817 	.byte	135,65
00000184 0d             4818 	.byte	13
00000185 8541           4819 	.byte	133,65
00000187 0f             4820 	.byte	15
00000188 8641           4821 	.byte	134,65
0000018a 0d             4822 	.byte	13
0000018b 9241           4823 	.byte	146,65
0000018d 0f             4824 	.byte	15
0000018e 3c0c           4825 	.byte	60,12
00000190 200b           4826 	.byte	32,11
00000192 3f0c           4827 	.byte	63,12
00000194 320b           4828 	.byte	50,11
00000196 4c0b           4829 	.byte	76,11
00000198 270c           4830 	.byte	39,12
0000019a 0000           4831 	.byte	0,0
                        4832 
                        4833 	.section	.debug_frame
                        4834 .LDW_4d29258:
000000c0 00000000*      4835 	.word	.LDW_unq_6-.LDW_unq_5
                        4836 .LDW_unq_5:
000000c4 00000000*      4837 	.word	.LDW_4cbe898
000000c8 00000000*      4838 	.word	_PRODFLASH__GetSizeOfMember..C.3A.5C_ECU2.5CECU_Rivian_A1.5CTarget.5Crepo_projects.5CpRealEcu.5CcR_R2023.2E09.2E15.5Cmake.5Coutput.5Cobjects.5CProductionFlashInterface.
000000cc 00000000*      4839 	.word	___ghs_eofn_PRODFLASH__GetSizeOfMember-_PRODFLASH__GetSizeOfMember..C.3A.5C_ECU2.5CECU_Rivian_A1.5CTarget.5Crepo_projects.5CpRealEcu.5CcR_R2023.2E09.2E15.5Cmake.5Coutput.5Cobjects.5CProductionFlashInterface.
000000d0 01             4840 	.byte	1
000000d1 00000000*      4841 	.word	.LDW31
000000d5 00             4842 	.byte	0
000000d6 00             4843 	.byte	0
000000d7 00             4844 	.byte	0
                        4845 .LDW_unq_6:
                        4846 	.section	.debug_line
0000058d 000502         4847 	.byte	0,5,2
00000590 00000000*      4848 	.word	_PRODFLASH__GetSizeOfMember..C.3A.5C_ECU2.5CECU_Rivian_A1.5CTarget.5Crepo_projects.5CpRealEcu.5CcR_R2023.2E09.2E15.5Cmake.5Coutput.5Cobjects.5CProductionFlashInterface.
00000594 03             4849 	.byte	3
00000595 c300           4850 	.byte	195,0
00000597 02             4851 	.byte	2
00000598 00             4852 	.byte	0
00000599 01             4853 	.byte	1
0000059a 06             4854 	.byte	6
0000059b 1b             4855 	.byte	27
0000059c 14             4856 	.byte	20
0000059d 000502         4857 	.byte	0,5,2
000005a0 00000000*      4858 	.word	.LDWlin36
000005a4 03             4859 	.byte	3
000005a5 04             4860 	.byte	4
000005a6 02             4861 	.byte	2
000005a7 00             4862 	.byte	0
000005a8 01             4863 	.byte	1
000005a9 0d             4864 	.byte	13
000005aa 0d             4865 	.byte	13
000005ab 0d             4866 	.byte	13
000005ac 0d             4867 	.byte	13
000005ad 0d             4868 	.byte	13
000005ae 0d             4869 	.byte	13
000005af 06             4870 	.byte	6

                                                                      Page 93
                                                              C:\Users\nhuliyap\AppData\Local\Temp\gh_00006u41.s
000005b0 03             4871 	.byte	3
000005b1 70             4872 	.byte	112
000005b2 02             4873 	.byte	2
000005b3 00             4874 	.byte	0
000005b4 01             4875 	.byte	1
000005b5 0d             4876 	.byte	13
000005b6 03             4877 	.byte	3
000005b7 0c             4878 	.byte	12
000005b8 02             4879 	.byte	2
000005b9 00             4880 	.byte	0
000005ba 01             4881 	.byte	1
000005bb 06             4882 	.byte	6
000005bc 0d             4883 	.byte	13
000005bd 0b             4884 	.byte	11
000005be 0d             4885 	.byte	13
000005bf 0c             4886 	.byte	12
000005c0 0b             4887 	.byte	11
000005c1 0c             4888 	.byte	12
000005c2 0b             4889 	.byte	11
000005c3 0d             4890 	.byte	13
000005c4 0d             4891 	.byte	13
000005c5 06             4892 	.byte	6
000005c6 03             4893 	.byte	3
000005c7 7c             4894 	.byte	124
000005c8 02             4895 	.byte	2
000005c9 00             4896 	.byte	0
000005ca 01             4897 	.byte	1
000005cb 06             4898 	.byte	6
000005cc 03             4899 	.byte	3
000005cd 06             4900 	.byte	6
000005ce 02             4901 	.byte	2
000005cf 00             4902 	.byte	0
000005d0 01             4903 	.byte	1
000005d1 0b             4904 	.byte	11
000005d2 06             4905 	.byte	6
000005d3 03             4906 	.byte	3
000005d4 61             4907 	.byte	97
000005d5 02             4908 	.byte	2
000005d6 00             4909 	.byte	0
000005d7 01             4910 	.byte	1
000005d8 0d             4911 	.byte	13
000005d9 0d             4912 	.byte	13
000005da 03             4913 	.byte	3
000005db 15             4914 	.byte	21
000005dc 02             4915 	.byte	2
000005dd 00             4916 	.byte	0
000005de 01             4917 	.byte	1
000005df 06             4918 	.byte	6
000005e0 03             4919 	.byte	3
000005e1 06             4920 	.byte	6
000005e2 02             4921 	.byte	2
000005e3 00             4922 	.byte	0
000005e4 01             4923 	.byte	1
000005e5 0b             4924 	.byte	11
000005e6 0c             4925 	.byte	12
000005e7 0b             4926 	.byte	11
000005e8 0d             4927 	.byte	13
000005e9 0d             4928 	.byte	13
000005ea 0d             4929 	.byte	13
000005eb 0d             4930 	.byte	13
000005ec 0d             4931 	.byte	13

                                                                      Page 94
                                                              C:\Users\nhuliyap\AppData\Local\Temp\gh_00006u41.s
000005ed 0d             4932 	.byte	13
000005ee 0d             4933 	.byte	13
000005ef 0d             4934 	.byte	13
000005f0 06             4935 	.byte	6
000005f1 03             4936 	.byte	3
000005f2 7c             4937 	.byte	124
000005f3 02             4938 	.byte	2
000005f4 00             4939 	.byte	0
000005f5 01             4940 	.byte	1
000005f6 06             4941 	.byte	6
000005f7 03             4942 	.byte	3
000005f8 06             4943 	.byte	6
000005f9 02             4944 	.byte	2
000005fa 00             4945 	.byte	0
000005fb 01             4946 	.byte	1
000005fc 0b             4947 	.byte	11
000005fd 06             4948 	.byte	6
000005fe 03             4949 	.byte	3
000005ff 7c             4950 	.byte	124
00000600 02             4951 	.byte	2
00000601 00             4952 	.byte	0
00000602 01             4953 	.byte	1
00000603 06             4954 	.byte	6
00000604 03             4955 	.byte	3
00000605 06             4956 	.byte	6
00000606 02             4957 	.byte	2
00000607 00             4958 	.byte	0
00000608 01             4959 	.byte	1
00000609 0b             4960 	.byte	11
0000060a 0d             4961 	.byte	13
0000060b 0c             4962 	.byte	12
0000060c 0b             4963 	.byte	11
0000060d 06             4964 	.byte	6
0000060e 03             4965 	.byte	3
0000060f 5e             4966 	.byte	94
00000610 02             4967 	.byte	2
00000611 00             4968 	.byte	0
00000612 01             4969 	.byte	1
00000613 0d             4970 	.byte	13
00000614 03             4971 	.byte	3
00000615 06             4972 	.byte	6
00000616 02             4973 	.byte	2
00000617 00             4974 	.byte	0
00000618 01             4975 	.byte	1
00000619 0d             4976 	.byte	13
0000061a 06             4977 	.byte	6
0000061b 03             4978 	.byte	3
0000061c 18             4979 	.byte	24
0000061d 02             4980 	.byte	2
0000061e 00             4981 	.byte	0
0000061f 01             4982 	.byte	1
00000620 0b             4983 	.byte	11
00000621 0c             4984 	.byte	12
00000622 0b             4985 	.byte	11
00000623 06             4986 	.byte	6
00000624 03             4987 	.byte	3
00000625 40             4988 	.byte	64
00000626 02             4989 	.byte	2
00000627 00             4990 	.byte	0
00000628 01             4991 	.byte	1
00000629 03             4992 	.byte	3

                                                                      Page 95
                                                              C:\Users\nhuliyap\AppData\Local\Temp\gh_00006u41.s
0000062a 1e             4993 	.byte	30
0000062b 02             4994 	.byte	2
0000062c 00             4995 	.byte	0
0000062d 01             4996 	.byte	1
0000062e 03             4997 	.byte	3
0000062f 09             4998 	.byte	9
00000630 02             4999 	.byte	2
00000631 00             5000 	.byte	0
00000632 01             5001 	.byte	1
00000633 06             5002 	.byte	6
00000634 03             5003 	.byte	3
00000635 1b             5004 	.byte	27
00000636 02             5005 	.byte	2
00000637 00             5006 	.byte	0
00000638 01             5007 	.byte	1
00000639 0b             5008 	.byte	11
0000063a 0c             5009 	.byte	12
0000063b 0b             5010 	.byte	11
0000063c 06             5011 	.byte	6
0000063d 03             5012 	.byte	3
0000063e a27f           5013 	.byte	162,127
00000640 02             5014 	.byte	2
00000641 00             5015 	.byte	0
00000642 01             5016 	.byte	1
00000643 03             5017 	.byte	3
00000644 ce00           5018 	.byte	206,0
00000646 02             5019 	.byte	2
00000647 00             5020 	.byte	0
00000648 01             5021 	.byte	1
00000649 06             5022 	.byte	6
0000064a 03             5023 	.byte	3
0000064b 12             5024 	.byte	18
0000064c 02             5025 	.byte	2
0000064d 00             5026 	.byte	0
0000064e 01             5027 	.byte	1
0000064f 000502         5028 	.byte	0,5,2
00000652 00000000*      5029 	.word	.LDWlin37
00000656 0d             5030 	.byte	13
00000657 0b             5031 	.byte	11
00000658 0b             5032 	.byte	11
00000659 0b             5033 	.byte	11
0000065a 0b             5034 	.byte	11
0000065b 0c             5035 	.byte	12
0000065c 02             5036 	.byte	2
0000065d 02             5037 	.byte	2
0000065e 000101         5038 	.byte	0,1,1
                        5039 	.section	.debug_info
                        5040 .LDW_4bc2e10:
0000163b 0f             5041 	.byte	15
0000163c 454e5f4d656d   5042 	.strz	"EN_Member"
00001642 62657200 
00001646 43             5043 	.byte	67
00001647 4a             5044 	.byte	74
00001648 01             5045 	.byte	1
00001649 00000000*      5046 	.word	.LDW_406b918
0000164d 00             5047 	.byte	0
0000164e 0156           5048 	.byte	1,86
                        5049 
                        5050 .LDW_4051a28:
00001650 1d             5051 	.byte	29
00001651 00000000*      5052 	.word	.LDW21

                                                                      Page 96
                                                              C:\Users\nhuliyap\AppData\Local\Temp\gh_00006u41.s
00001655 00000000*      5053 	.word	.LDW31
                        5054 
                        5055 .LDW_4bc2c58:
00001659 04             5056 	.byte	4
0000165a 5531365f5369   5057 	.strz	"U16_SizeOfMember"
00001660 7a654f664d65 
00001666 6d62657200 
0000166b 45             5058 	.byte	69
0000166c 0a             5059 	.byte	10
0000166d 01             5060 	.byte	1
0000166e 00000000*      5061 	.word	.LDW_4ba4638
00001672 00             5062 	.byte	0
00001673 00             5063 	.byte	0
00001674 015a           5064 	.byte	1,90
                        5065 
00001676 00             5066 	.byte	0
                        5067 
00001677 00             5068 	.byte	0
                        5069 
                        5070 .LDW_4ba48e0:
00001678 14             5071 	.byte	20
00001679 50524f44464c   5072 	.strz	"PRODFLASH__GetAddressOfMember"
0000167f 4153485f5f47 
00001685 657441646472 
0000168b 6573734f664d 
00001691 656d62657200 
00001697 b601           5073 	.byte	182,1
00001699 0f             5074 	.byte	15
0000169a 01             5075 	.byte	1
0000169b 00000000*      5076 	.word	.LDW_4ba4588
0000169f 00000000*      5077 	.word	_PRODFLASH__GetAddressOfMember..C.3A.5C_ECU2.5CECU_Rivian_A1.5CTarget.5Crepo_projects.5CpRealEcu.5CcR_R2023.2E09.2E15.5Cmake.5Coutput.5Cobjects.5CProductionFlashInterface.
000016a3 00000000*      5078 	.word	___ghs_eofn_PRODFLASH__GetAddressOfMember
000016a7 0153           5079 	.byte	1,83
000016a9 02             5080 	.byte	2
000016aa 00             5081 	.byte	0
000016ab 02             5082 	.byte	2
000016ac 00             5083 	.byte	0
000016ad 00             5084 	.byte	0
000016ae 00             5085 	.byte	0
000016af 00             5086 	.byte	0
000016b0 00             5087 	.byte	0
000016b1 01             5088 	.byte	1
000016b2 00             5089 	.byte	0
000016b3 01             5090 	.byte	1
                        5091 
                        5092 	.section	.debug_frame
                        5093 .LDW_4d28e98:
000000d8 00000000*      5094 	.word	.LDW_unq_8-.LDW_unq_7
                        5095 .LDW_unq_7:
000000dc 00000000*      5096 	.word	.LDW_4cbe898
000000e0 00000000*      5097 	.word	_PRODFLASH__GetAddressOfMember..C.3A.5C_ECU2.5CECU_Rivian_A1.5CTarget.5Crepo_projects.5CpRealEcu.5CcR_R2023.2E09.2E15.5Cmake.5Coutput.5Cobjects.5CProductionFlashInterface.
000000e4 00000000*      5098 	.word	___ghs_eofn_PRODFLASH__GetAddressOfMember-_PRODFLASH__GetAddressOfMember..C.3A.5C_ECU2.5CECU_Rivian_A1.5CTarget.5Crepo_projects.5CpRealEcu.5CcR_R2023.2E09.2E15.5Cmake.5Coutput.5Cobjects.5CProductionFlashInterface.
000000e8 01             5099 	.byte	1
000000e9 00000000*      5100 	.word	.LDW11
000000ed 00             5101 	.byte	0
000000ee 00             5102 	.byte	0
000000ef 00             5103 	.byte	0
                        5104 .LDW_unq_8:
                        5105 	.section	.debug_line
00000661 000502         5106 	.byte	0,5,2
00000664 00000000*      5107 	.word	_PRODFLASH__GetAddressOfMember..C.3A.5C_ECU2.5CECU_Rivian_A1.5CTarget.5Crepo_projects.5CpRealEcu.5CcR_R2023.2E09.2E15.5Cmake.5Coutput.5Cobjects.5CProductionFlashInterface.

                                                                      Page 97
                                                              C:\Users\nhuliyap\AppData\Local\Temp\gh_00006u41.s
00000668 03             5108 	.byte	3
00000669 b601           5109 	.byte	182,1
0000066b 02             5110 	.byte	2
0000066c 00             5111 	.byte	0
0000066d 01             5112 	.byte	1
0000066e 06             5113 	.byte	6
0000066f 13             5114 	.byte	19
00000670 14             5115 	.byte	20
00000671 000502         5116 	.byte	0,5,2
00000674 00000000*      5117 	.word	.LDWlin1
00000678 0d             5118 	.byte	13
00000679 13             5119 	.byte	19
0000067a 000502         5120 	.byte	0,5,2
0000067d 00000000*      5121 	.word	.LDWlin2
00000681 0c             5122 	.byte	12
00000682 1b             5123 	.byte	27
00000683 000502         5124 	.byte	0,5,2
00000686 00000000*      5125 	.word	.LDWlin3
0000068a 0c             5126 	.byte	12
0000068b 1b             5127 	.byte	27
0000068c 000502         5128 	.byte	0,5,2
0000068f 00000000*      5129 	.word	.LDWlin4
00000693 0c             5130 	.byte	12
00000694 1b             5131 	.byte	27
00000695 000502         5132 	.byte	0,5,2
00000698 00000000*      5133 	.word	.LDWlin5
0000069c 0c             5134 	.byte	12
0000069d 1b             5135 	.byte	27
0000069e 000502         5136 	.byte	0,5,2
000006a1 00000000*      5137 	.word	.LDWlin6
000006a5 0c             5138 	.byte	12
000006a6 1b             5139 	.byte	27
000006a7 000502         5140 	.byte	0,5,2
000006aa 00000000*      5141 	.word	.LDWlin7
000006ae 0c             5142 	.byte	12
000006af 1b             5143 	.byte	27
000006b0 000502         5144 	.byte	0,5,2
000006b3 00000000*      5145 	.word	.LDWlin8
000006b7 0c             5146 	.byte	12
000006b8 1b             5147 	.byte	27
000006b9 000502         5148 	.byte	0,5,2
000006bc 00000000*      5149 	.word	.LDWlin9
000006c0 0c             5150 	.byte	12
000006c1 1b             5151 	.byte	27
000006c2 000502         5152 	.byte	0,5,2
000006c5 00000000*      5153 	.word	.LDWlin10
000006c9 0c             5154 	.byte	12
000006ca 1b             5155 	.byte	27
000006cb 000502         5156 	.byte	0,5,2
000006ce 00000000*      5157 	.word	.LDWlin11
000006d2 0c             5158 	.byte	12
000006d3 1b             5159 	.byte	27
000006d4 000502         5160 	.byte	0,5,2
000006d7 00000000*      5161 	.word	.LDWlin12
000006db 0c             5162 	.byte	12
000006dc 1b             5163 	.byte	27
000006dd 000502         5164 	.byte	0,5,2
000006e0 00000000*      5165 	.word	.LDWlin13
000006e4 0c             5166 	.byte	12
000006e5 1b             5167 	.byte	27
000006e6 000502         5168 	.byte	0,5,2

                                                                      Page 98
                                                              C:\Users\nhuliyap\AppData\Local\Temp\gh_00006u41.s
000006e9 00000000*      5169 	.word	.LDWlin14
000006ed 0c             5170 	.byte	12
000006ee 1b             5171 	.byte	27
000006ef 000502         5172 	.byte	0,5,2
000006f2 00000000*      5173 	.word	.LDWlin15
000006f6 0c             5174 	.byte	12
000006f7 1b             5175 	.byte	27
000006f8 000502         5176 	.byte	0,5,2
000006fb 00000000*      5177 	.word	.LDWlin16
000006ff 0c             5178 	.byte	12
00000700 1b             5179 	.byte	27
00000701 000502         5180 	.byte	0,5,2
00000704 00000000*      5181 	.word	.LDWlin17
00000708 0c             5182 	.byte	12
00000709 1b             5183 	.byte	27
0000070a 000502         5184 	.byte	0,5,2
0000070d 00000000*      5185 	.word	.LDWlin18
00000711 0c             5186 	.byte	12
00000712 1b             5187 	.byte	27
00000713 000502         5188 	.byte	0,5,2
00000716 00000000*      5189 	.word	.LDWlin19
0000071a 0c             5190 	.byte	12
0000071b 1b             5191 	.byte	27
0000071c 000502         5192 	.byte	0,5,2
0000071f 00000000*      5193 	.word	.LDWlin20
00000723 0c             5194 	.byte	12
00000724 1b             5195 	.byte	27
00000725 000502         5196 	.byte	0,5,2
00000728 00000000*      5197 	.word	.LDWlin21
0000072c 0c             5198 	.byte	12
0000072d 1b             5199 	.byte	27
0000072e 000502         5200 	.byte	0,5,2
00000731 00000000*      5201 	.word	.LDWlin22
00000735 0c             5202 	.byte	12
00000736 1b             5203 	.byte	27
00000737 000502         5204 	.byte	0,5,2
0000073a 00000000*      5205 	.word	.LDWlin23
0000073e 0c             5206 	.byte	12
0000073f 1b             5207 	.byte	27
00000740 000502         5208 	.byte	0,5,2
00000743 00000000*      5209 	.word	.LDWlin24
00000747 0c             5210 	.byte	12
00000748 1b             5211 	.byte	27
00000749 000502         5212 	.byte	0,5,2
0000074c 00000000*      5213 	.word	.LDWlin25
00000750 0c             5214 	.byte	12
00000751 1b             5215 	.byte	27
00000752 000502         5216 	.byte	0,5,2
00000755 00000000*      5217 	.word	.LDWlin26
00000759 0c             5218 	.byte	12
0000075a 1b             5219 	.byte	27
0000075b 000502         5220 	.byte	0,5,2
0000075e 00000000*      5221 	.word	.LDWlin27
00000762 0c             5222 	.byte	12
00000763 1b             5223 	.byte	27
00000764 000502         5224 	.byte	0,5,2
00000767 00000000*      5225 	.word	.LDWlin28
0000076b 0c             5226 	.byte	12
0000076c 1b             5227 	.byte	27
0000076d 000502         5228 	.byte	0,5,2
00000770 00000000*      5229 	.word	.LDWlin29

                                                                      Page 99
                                                              C:\Users\nhuliyap\AppData\Local\Temp\gh_00006u41.s
00000774 0c             5230 	.byte	12
00000775 1b             5231 	.byte	27
00000776 000502         5232 	.byte	0,5,2
00000779 00000000*      5233 	.word	.LDWlin30
0000077d 0c             5234 	.byte	12
0000077e 1b             5235 	.byte	27
0000077f 000502         5236 	.byte	0,5,2
00000782 00000000*      5237 	.word	.LDWlin31
00000786 0c             5238 	.byte	12
00000787 1b             5239 	.byte	27
00000788 000502         5240 	.byte	0,5,2
0000078b 00000000*      5241 	.word	.LDWlin32
0000078f 0c             5242 	.byte	12
00000790 1b             5243 	.byte	27
00000791 000502         5244 	.byte	0,5,2
00000794 00000000*      5245 	.word	.LDWlin33
00000798 0c             5246 	.byte	12
00000799 1b             5247 	.byte	27
0000079a 000502         5248 	.byte	0,5,2
0000079d 00000000*      5249 	.word	.LDWlin34
000007a1 0c             5250 	.byte	12
000007a2 1b             5251 	.byte	27
000007a3 000502         5252 	.byte	0,5,2
000007a6 00000000*      5253 	.word	.LDWlin35
000007aa 02             5254 	.byte	2
000007ab 00             5255 	.byte	0
000007ac 02             5256 	.byte	2
000007ad 00             5257 	.byte	0
000007ae 0b             5258 	.byte	11
000007af 0b             5259 	.byte	11
000007b0 0c             5260 	.byte	12
000007b1 02             5261 	.byte	2
000007b2 02             5262 	.byte	2
000007b3 000101         5263 	.byte	0,1,1
                        5264 	.section	.debug_info
                        5265 .LDW_4bc2d08:
000016b4 0f             5266 	.byte	15
000016b5 454e5f4d656d   5267 	.strz	"EN_Member"
000016bb 62657200 
000016bf b601           5268 	.byte	182,1
000016c1 4d             5269 	.byte	77
000016c2 01             5270 	.byte	1
000016c3 00000000*      5271 	.word	.LDW_406b918
000016c7 00             5272 	.byte	0
000016c8 0156           5273 	.byte	1,86
                        5274 
                        5275 .LDW_40519c8:
000016ca 1d             5276 	.byte	29
000016cb 00000000*      5277 	.word	.LDW01
000016cf 00000000*      5278 	.word	.LDW11
                        5279 
                        5280 .LDW_4bc30d0:
000016d3 04             5281 	.byte	4
000016d4 5533325f4164   5282 	.strz	"U32_AddressOfMember"
000016da 64726573734f 
000016e0 664d656d6265 
000016e6 7200 
000016e8 b801           5283 	.byte	184,1
000016ea 0a             5284 	.byte	10
000016eb 01             5285 	.byte	1
000016ec 00000000*      5286 	.word	.LDW_4ba4588

                                                                      Page 100
                                                              C:\Users\nhuliyap\AppData\Local\Temp\gh_00006u41.s
000016f0 00             5287 	.byte	0
000016f1 00             5288 	.byte	0
000016f2 015a           5289 	.byte	1,90
                        5290 
000016f4 00             5291 	.byte	0
                        5292 
000016f5 00             5293 	.byte	0
                        5294 
                        5295 .LDW_4ba4978:
000016f6 14             5296 	.byte	20
000016f7 50524f44464c   5297 	.strz	"PRODFLASH__GetStartBlockNumber"
000016fd 4153485f5f47 
00001703 657453746172 
00001709 74426c6f636b 
0000170f 4e756d626572 
00001715 00 
00001716 a802           5298 	.byte	168,2
00001718 0e             5299 	.byte	14
00001719 01             5300 	.byte	1
0000171a 00000000*      5301 	.word	.LDW_406b970
0000171e 00000000*      5302 	.word	_PRODFLASH__GetStartBlockNumber..C.3A.5C_ECU2.5CECU_Rivian_A1.5CTarget.5Crepo_projects.5CpRealEcu.5CcR_R2023.2E09.2E15.5Cmake.5Coutput.5Cobjects.5CProductionFlashInterface.
00001722 00000000*      5303 	.word	___ghs_eofn_PRODFLASH__GetStartBlockNumber
00001726 0153           5304 	.byte	1,83
00001728 02             5305 	.byte	2
00001729 00             5306 	.byte	0
0000172a 02             5307 	.byte	2
0000172b 00             5308 	.byte	0
0000172c 00             5309 	.byte	0
0000172d 00             5310 	.byte	0
0000172e 00             5311 	.byte	0
0000172f 00             5312 	.byte	0
00001730 01             5313 	.byte	1
00001731 00             5314 	.byte	0
00001732 01             5315 	.byte	1
                        5316 
                        5317 	.section	.debug_frame
                        5318 .LDW_4d28f98:
000000f0 00000000*      5319 	.word	.LDW_unq_a-.LDW_unq_9
                        5320 .LDW_unq_9:
000000f4 00000000*      5321 	.word	.LDW_4cbe898
000000f8 00000000*      5322 	.word	_PRODFLASH__GetStartBlockNumber..C.3A.5C_ECU2.5CECU_Rivian_A1.5CTarget.5Crepo_projects.5CpRealEcu.5CcR_R2023.2E09.2E15.5Cmake.5Coutput.5Cobjects.5CProductionFlashInterface.
000000fc 00000000*      5323 	.word	___ghs_eofn_PRODFLASH__GetStartBlockNumber-_PRODFLASH__GetStartBlockNumber..C.3A.5C_ECU2.5CECU_Rivian_A1.5CTarget.5Crepo_projects.5CpRealEcu.5CcR_R2023.2E09.2E15.5Cmake.5Coutput.5Cobjects.5CProductionFlashInterface.
00000100 01             5324 	.byte	1
00000101 00000000*      5325 	.word	.LDW51
00000105 00             5326 	.byte	0
00000106 00             5327 	.byte	0
00000107 00             5328 	.byte	0
                        5329 .LDW_unq_a:
                        5330 	.section	.debug_line
000007b6 000502         5331 	.byte	0,5,2
000007b9 00000000*      5332 	.word	_PRODFLASH__GetStartBlockNumber..C.3A.5C_ECU2.5CECU_Rivian_A1.5CTarget.5Crepo_projects.5CpRealEcu.5CcR_R2023.2E09.2E15.5Cmake.5Coutput.5Cobjects.5CProductionFlashInterface.
000007bd 06             5333 	.byte	6
000007be 03             5334 	.byte	3
000007bf ae02           5335 	.byte	174,2
000007c1 02             5336 	.byte	2
000007c2 00             5337 	.byte	0
000007c3 01             5338 	.byte	1
000007c4 06             5339 	.byte	6
000007c5 000502         5340 	.byte	0,5,2
000007c8 00000000*      5341 	.word	.LDWlin38
000007cc 02             5342 	.byte	2

                                                                      Page 101
                                                              C:\Users\nhuliyap\AppData\Local\Temp\gh_00006u41.s
000007cd 00             5343 	.byte	0
000007ce 02             5344 	.byte	2
000007cf 02             5345 	.byte	2
000007d0 000101         5346 	.byte	0,1,1
                        5347 	.section	.debug_info
                        5348 .LDW_4bc3128:
00001733 0f             5349 	.byte	15
00001734 5533325f4164   5350 	.strz	"U32_AddressOfMember"
0000173a 64726573734f 
00001740 664d656d6265 
00001746 7200 
00001748 a802           5351 	.byte	168,2
0000174a 34             5352 	.byte	52
0000174b 01             5353 	.byte	1
0000174c 00000000*      5354 	.word	.LDW_4ba4588
00001750 00             5355 	.byte	0
00001751 0156           5356 	.byte	1,86
                        5357 
                        5358 .LDW_4c1aba8:
00001753 1d             5359 	.byte	29
00001754 00000000*      5360 	.word	.LDW41
00001758 00000000*      5361 	.word	.LDW51
                        5362 
                        5363 .LDW_4bc2fc8:
0000175c 05             5364 	.byte	5
0000175d 55385f537461   5365 	.strz	"U8_StartBlockNumber"
00001763 7274426c6f63 
00001769 6b4e756d6265 
0000176f 7200 
00001771 aa02           5366 	.byte	170,2
00001773 09             5367 	.byte	9
00001774 01             5368 	.byte	1
00001775 00000000*      5369 	.word	.LDW_406b970
00001779 00             5370 	.byte	0
0000177a 00             5371 	.byte	0
                        5372 
                        5373 	.section	.debug_abbrev
0000019c 05             5374 	.byte	5
0000019d 34             5375 	.byte	52
0000019e 00             5376 	.byte	0
0000019f 0308           5377 	.byte	3,8
000001a1 3b0f           5378 	.byte	59,15
000001a3 390f           5379 	.byte	57,15
000001a5 3a0f           5380 	.byte	58,15
000001a7 4910           5381 	.byte	73,16
000001a9 3f0c           5382 	.byte	63,12
000001ab 3c0c           5383 	.byte	60,12
000001ad 0000           5384 	.byte	0,0
                        5385 
                        5386 	.section	.debug_info
                        5387 .LDW_4bc2d60:
0000177b 05             5388 	.byte	5
0000177c 5533325f5072   5389 	.strz	"U32_ProductionDataStartAddress"
00001782 6f6475637469 
00001788 6f6e44617461 
0000178e 537461727441 
00001794 646472657373 
0000179a 00 
0000179b ab02           5390 	.byte	171,2
0000179d 0a             5391 	.byte	10
0000179e 01             5392 	.byte	1

                                                                      Page 102
                                                              C:\Users\nhuliyap\AppData\Local\Temp\gh_00006u41.s
0000179f 00000000*      5393 	.word	.LDW_4ba4588
000017a3 00             5394 	.byte	0
000017a4 00             5395 	.byte	0
                        5396 
000017a5 00             5397 	.byte	0
                        5398 
000017a6 00             5399 	.byte	0
                        5400 
                        5401 .LDW_4ba4a10:
000017a7 14             5402 	.byte	20
000017a8 50524f44464c   5403 	.strz	"PRODFLASH__GetEndBlockNumber"
000017ae 4153485f5f47 
000017b4 6574456e6442 
000017ba 6c6f636b4e75 
000017c0 6d62657200 
000017c5 b202           5404 	.byte	178,2
000017c7 0e             5405 	.byte	14
000017c8 01             5406 	.byte	1
000017c9 00000000*      5407 	.word	.LDW_406b970
000017cd 00000000*      5408 	.word	_PRODFLASH__GetEndBlockNumber..C.3A.5C_ECU2.5CECU_Rivian_A1.5CTarget.5Crepo_projects.5CpRealEcu.5CcR_R2023.2E09.2E15.5Cmake.5Coutput.5Cobjects.5CProductionFlashInterface.
000017d1 00000000*      5409 	.word	___ghs_eofn_PRODFLASH__GetEndBlockNumber
000017d5 0153           5410 	.byte	1,83
000017d7 02             5411 	.byte	2
000017d8 00             5412 	.byte	0
000017d9 02             5413 	.byte	2
000017da 00             5414 	.byte	0
000017db 00             5415 	.byte	0
000017dc 00             5416 	.byte	0
000017dd 00             5417 	.byte	0
000017de 00             5418 	.byte	0
000017df 01             5419 	.byte	1
000017e0 00             5420 	.byte	0
000017e1 01             5421 	.byte	1
                        5422 
                        5423 	.section	.debug_frame
                        5424 .LDW_4d29458:
00000108 00000000*      5425 	.word	.LDW_unq_c-.LDW_unq_b
                        5426 .LDW_unq_b:
0000010c 00000000*      5427 	.word	.LDW_4cbe898
00000110 00000000*      5428 	.word	_PRODFLASH__GetEndBlockNumber..C.3A.5C_ECU2.5CECU_Rivian_A1.5CTarget.5Crepo_projects.5CpRealEcu.5CcR_R2023.2E09.2E15.5Cmake.5Coutput.5Cobjects.5CProductionFlashInterface.
00000114 00000000*      5429 	.word	___ghs_eofn_PRODFLASH__GetEndBlockNumber-_PRODFLASH__GetEndBlockNumber..C.3A.5C_ECU2.5CECU_Rivian_A1.5CTarget.5Crepo_projects.5CpRealEcu.5CcR_R2023.2E09.2E15.5Cmake.5Coutput.5Cobjects.5CProductionFlashInterface.
00000118 01             5430 	.byte	1
00000119 00000000*      5431 	.word	.LDW71
0000011d 00             5432 	.byte	0
0000011e 00             5433 	.byte	0
0000011f 00             5434 	.byte	0
                        5435 .LDW_unq_c:
                        5436 	.section	.debug_line
000007d3 000502         5437 	.byte	0,5,2
000007d6 00000000*      5438 	.word	_PRODFLASH__GetEndBlockNumber..C.3A.5C_ECU2.5CECU_Rivian_A1.5CTarget.5Crepo_projects.5CpRealEcu.5CcR_R2023.2E09.2E15.5Cmake.5Coutput.5Cobjects.5CProductionFlashInterface.
000007da 06             5439 	.byte	6
000007db 03             5440 	.byte	3
000007dc b802           5441 	.byte	184,2
000007de 02             5442 	.byte	2
000007df 00             5443 	.byte	0
000007e0 01             5444 	.byte	1
000007e1 06             5445 	.byte	6
000007e2 000502         5446 	.byte	0,5,2
000007e5 00000000*      5447 	.word	.LDWlin39
000007e9 02             5448 	.byte	2
000007ea 00             5449 	.byte	0

                                                                      Page 103
                                                              C:\Users\nhuliyap\AppData\Local\Temp\gh_00006u41.s
000007eb 02             5450 	.byte	2
000007ec 02             5451 	.byte	2
000007ed 000101         5452 	.byte	0,1,1
                        5453 	.section	.debug_info
                        5454 .LDW_4bc3230:
000017e2 0f             5455 	.byte	15
000017e3 5533325f4164   5456 	.strz	"U32_AddressOfMember"
000017e9 64726573734f 
000017ef 664d656d6265 
000017f5 7200 
000017f7 b202           5457 	.byte	178,2
000017f9 32             5458 	.byte	50
000017fa 01             5459 	.byte	1
000017fb 00000000*      5460 	.word	.LDW_4ba4588
000017ff 00             5461 	.byte	0
00001800 0156           5462 	.byte	1,86
                        5463 
                        5464 .LDW_4bc32e0:
00001802 0f             5465 	.byte	15
00001803 5531365f5369   5466 	.strz	"U16_SizeOfMember"
00001809 7a654f664d65 
0000180f 6d62657200 
00001814 b202           5467 	.byte	178,2
00001816 4e             5468 	.byte	78
00001817 01             5469 	.byte	1
00001818 00000000*      5470 	.word	.LDW_4ba4638
0000181c 00             5471 	.byte	0
0000181d 0157           5472 	.byte	1,87
                        5473 
                        5474 .LDW_4c1aa58:
0000181f 1d             5475 	.byte	29
00001820 00000000*      5476 	.word	.LDW61
00001824 00000000*      5477 	.word	.LDW71
                        5478 
                        5479 .LDW_4bc2e68:
00001828 05             5480 	.byte	5
00001829 55385f456e64   5481 	.strz	"U8_EndBlockNumber"
0000182f 426c6f636b4e 
00001835 756d62657200 
0000183b b402           5482 	.byte	180,2
0000183d 09             5483 	.byte	9
0000183e 01             5484 	.byte	1
0000183f 00000000*      5485 	.word	.LDW_406b970
00001843 00             5486 	.byte	0
00001844 00             5487 	.byte	0
                        5488 
                        5489 .LDW_4bc2ec0:
00001845 05             5490 	.byte	5
00001846 5533325f5072   5491 	.strz	"U32_ProductionDataStartAddress"
0000184c 6f6475637469 
00001852 6f6e44617461 
00001858 537461727441 
0000185e 646472657373 
00001864 00 
00001865 b502           5492 	.byte	181,2
00001867 0a             5493 	.byte	10
00001868 01             5494 	.byte	1
00001869 00000000*      5495 	.word	.LDW_4ba4588
0000186d 00             5496 	.byte	0
0000186e 00             5497 	.byte	0
                        5498 

                                                                      Page 104
                                                              C:\Users\nhuliyap\AppData\Local\Temp\gh_00006u41.s
0000186f 00             5499 	.byte	0
                        5500 
00001870 00             5501 	.byte	0
                        5502 
                        5503 .LDW_4ba4aa8:
00001871 13             5504 	.byte	19
00001872 50524f44464c   5505 	.strz	"PRODFLASH__EraseFlashBlock"
00001878 4153485f5f45 
0000187e 72617365466c 
00001884 617368426c6f 
0000188a 636b00 
0000188d bc02           5506 	.byte	188,2
0000188f 0d             5507 	.byte	13
00001890 01             5508 	.byte	1
00001891 00000000*      5509 	.word	_PRODFLASH__EraseFlashBlock..C.3A.5C_ECU2.5CECU_Rivian_A1.5CTarget.5Crepo_projects.5CpRealEcu.5CcR_R2023.2E09.2E15.5Cmake.5Coutput.5Cobjects.5CProductionFlashInterface.
00001895 00000000*      5510 	.word	___ghs_eofn_PRODFLASH__EraseFlashBlock
00001899 0153           5511 	.byte	1,83
0000189b 8280808008     5512 	.byte	130,128,128,128,8
000018a0 04             5513 	.byte	4
000018a1 03             5514 	.byte	3
000018a2 14             5515 	.byte	20
000018a3 00             5516 	.byte	0
000018a4 00             5517 	.byte	0
000018a5 00             5518 	.byte	0
000018a6 00             5519 	.byte	0
000018a7 01             5520 	.byte	1
000018a8 00             5521 	.byte	0
000018a9 01             5522 	.byte	1
                        5523 
                        5524 	.section	.debug_frame
                        5525 .LDW_4d29298:
00000120 00000000*      5526 	.word	.LDW_unq_e-.LDW_unq_d
                        5527 .LDW_unq_d:
00000124 00000000*      5528 	.word	.LDW_4cbe898
00000128 00000000*      5529 	.word	_PRODFLASH__EraseFlashBlock..C.3A.5C_ECU2.5CECU_Rivian_A1.5CTarget.5Crepo_projects.5CpRealEcu.5CcR_R2023.2E09.2E15.5Cmake.5Coutput.5Cobjects.5CProductionFlashInterface.
0000012c 00000000*      5530 	.word	___ghs_eofn_PRODFLASH__EraseFlashBlock-_PRODFLASH__EraseFlashBlock..C.3A.5C_ECU2.5CECU_Rivian_A1.5CTarget.5Crepo_projects.5CpRealEcu.5CcR_R2023.2E09.2E15.5Cmake.5Coutput.5Cobjects.5CProductionFlashInterface.
00000130 44             5531 	.byte	68
00000131 9f             5532 	.byte	159
00000132 0c             5533 	.byte	12
00000133 01             5534 	.byte	1
00000134 00000000*      5535 	.word	.LDW91
                        5536 .LDW_unq_e:
                        5537 	.section	.debug_line
000007f0 000502         5538 	.byte	0,5,2
000007f3 00000000*      5539 	.word	_PRODFLASH__EraseFlashBlock..C.3A.5C_ECU2.5CECU_Rivian_A1.5CTarget.5Crepo_projects.5CpRealEcu.5CcR_R2023.2E09.2E15.5Cmake.5Coutput.5Cobjects.5CProductionFlashInterface.
000007f7 03             5540 	.byte	3
000007f8 bc02           5541 	.byte	188,2
000007fa 02             5542 	.byte	2
000007fb 00             5543 	.byte	0
000007fc 01             5544 	.byte	1
000007fd 06             5545 	.byte	6
000007fe 03             5546 	.byte	3
000007ff 04             5547 	.byte	4
00000800 02             5548 	.byte	2
00000801 06             5549 	.byte	6
00000802 01             5550 	.byte	1
00000803 13             5551 	.byte	19
00000804 13             5552 	.byte	19
00000805 1b             5553 	.byte	27
00000806 14             5554 	.byte	20
00000807 000502         5555 	.byte	0,5,2

                                                                      Page 105
                                                              C:\Users\nhuliyap\AppData\Local\Temp\gh_00006u41.s
0000080a 00000000*      5556 	.word	.LDWlin40
0000080e 0c             5557 	.byte	12
0000080f 000502         5558 	.byte	0,5,2
00000812 00000000*      5559 	.word	.LDWlin41
00000816 0c             5560 	.byte	12
00000817 000502         5561 	.byte	0,5,2
0000081a 00000000*      5562 	.word	.LDWlin42
0000081e 03             5563 	.byte	3
0000081f 7e             5564 	.byte	126
00000820 02             5565 	.byte	2
00000821 00             5566 	.byte	0
00000822 01             5567 	.byte	1
00000823 000502         5568 	.byte	0,5,2
00000826 00000000*      5569 	.word	.LDWlin43
0000082a 0d             5570 	.byte	13
0000082b 0c             5571 	.byte	12
0000082c 1b             5572 	.byte	27
0000082d 0c             5573 	.byte	12
0000082e 02             5574 	.byte	2
0000082f 00             5575 	.byte	0
00000830 0b             5576 	.byte	11
00000831 02             5577 	.byte	2
00000832 04             5578 	.byte	4
00000833 000101         5579 	.byte	0,1,1
                        5580 	.section	.debug_info
                        5581 .LDW_4bc2f18:
000018aa 0f             5582 	.byte	15
000018ab 55385f426c6f   5583 	.strz	"U8_BlockNumber"
000018b1 636b4e756d62 
000018b7 657200 
000018ba bc02           5584 	.byte	188,2
000018bc 2e             5585 	.byte	46
000018bd 01             5586 	.byte	1
000018be 00000000*      5587 	.word	.LDW_406b970
000018c2 00             5588 	.byte	0
000018c3 0156           5589 	.byte	1,86
                        5590 
                        5591 .LDW_4c1ab48:
000018c5 1d             5592 	.byte	29
000018c6 00000000*      5593 	.word	.LDW81
000018ca 00000000*      5594 	.word	.LDW91
                        5595 
                        5596 .LDW_4bc3288:
000018ce 04             5597 	.byte	4
000018cf 535f46646c52   5598 	.strz	"S_FdlRequest"
000018d5 657175657374 
000018db 00 
000018dc bf02           5599 	.byte	191,2
000018de 13             5600 	.byte	19
000018df 01             5601 	.byte	1
000018e0 00000000*      5602 	.word	.LDW_4bc3020
000018e4 00             5603 	.byte	0
000018e5 00             5604 	.byte	0
000018e6 0273           5605 	.byte	2,115
000018e8 00             5606 	.byte	0
                        5607 
000018e9 00             5608 	.byte	0
                        5609 
000018ea 00             5610 	.byte	0
                        5611 
                        5612 .LDW_4ba4b40:

                                                                      Page 106
                                                              C:\Users\nhuliyap\AppData\Local\Temp\gh_00006u41.s
000018eb 13             5613 	.byte	19
000018ec 50524f44464c   5614 	.strz	"PRODFLASH__WriteFlashBlock"
000018f2 4153485f5f57 
000018f8 72697465466c 
000018fe 617368426c6f 
00001904 636b00 
00001907 d302           5615 	.byte	211,2
00001909 0d             5616 	.byte	13
0000190a 01             5617 	.byte	1
0000190b 00000000*      5618 	.word	_PRODFLASH__WriteFlashBlock..C.3A.5C_ECU2.5CECU_Rivian_A1.5CTarget.5Crepo_projects.5CpRealEcu.5CcR_R2023.2E09.2E15.5Cmake.5Coutput.5Cobjects.5CProductionFlashInterface.
0000190f 00000000*      5619 	.word	___ghs_eofn_PRODFLASH__WriteFlashBlock
00001913 0153           5620 	.byte	1,83
00001915 8280808008     5621 	.byte	130,128,128,128,8
0000191a 04             5622 	.byte	4
0000191b 03             5623 	.byte	3
0000191c 14             5624 	.byte	20
0000191d 00             5625 	.byte	0
0000191e 00             5626 	.byte	0
0000191f 00             5627 	.byte	0
00001920 00             5628 	.byte	0
00001921 01             5629 	.byte	1
00001922 00             5630 	.byte	0
00001923 01             5631 	.byte	1
                        5632 
                        5633 	.section	.debug_frame
                        5634 .LDW_4c8f440:
00000138 00000000*      5635 	.word	.LDW_unq_10-.LDW_unq_f
                        5636 .LDW_unq_f:
0000013c 00000000*      5637 	.word	.LDW_4cbe898
00000140 00000000*      5638 	.word	_PRODFLASH__WriteFlashBlock..C.3A.5C_ECU2.5CECU_Rivian_A1.5CTarget.5Crepo_projects.5CpRealEcu.5CcR_R2023.2E09.2E15.5Cmake.5Coutput.5Cobjects.5CProductionFlashInterface.
00000144 00000000*      5639 	.word	___ghs_eofn_PRODFLASH__WriteFlashBlock-_PRODFLASH__WriteFlashBlock..C.3A.5C_ECU2.5CECU_Rivian_A1.5CTarget.5Crepo_projects.5CpRealEcu.5CcR_R2023.2E09.2E15.5Cmake.5Coutput.5Cobjects.5CProductionFlashInterface.
00000148 44             5640 	.byte	68
00000149 9f             5641 	.byte	159
0000014a 0c             5642 	.byte	12
0000014b 01             5643 	.byte	1
0000014c 00000000*      5644 	.word	.LDW12
                        5645 .LDW_unq_10:
                        5646 	.section	.debug_line
00000836 000502         5647 	.byte	0,5,2
00000839 00000000*      5648 	.word	_PRODFLASH__WriteFlashBlock..C.3A.5C_ECU2.5CECU_Rivian_A1.5CTarget.5Crepo_projects.5CpRealEcu.5CcR_R2023.2E09.2E15.5Cmake.5Coutput.5Cobjects.5CProductionFlashInterface.
0000083d 03             5649 	.byte	3
0000083e d302           5650 	.byte	211,2
00000840 02             5651 	.byte	2
00000841 00             5652 	.byte	0
00000842 01             5653 	.byte	1
00000843 06             5654 	.byte	6
00000844 03             5655 	.byte	3
00000845 04             5656 	.byte	4
00000846 02             5657 	.byte	2
00000847 06             5658 	.byte	6
00000848 01             5659 	.byte	1
00000849 1b             5660 	.byte	27
0000084a 1b             5661 	.byte	27
0000084b 23             5662 	.byte	35
0000084c 13             5663 	.byte	19
0000084d 14             5664 	.byte	20
0000084e 000502         5665 	.byte	0,5,2
00000851 00000000*      5666 	.word	.LDWlin44
00000855 0c             5667 	.byte	12
00000856 000502         5668 	.byte	0,5,2
00000859 00000000*      5669 	.word	.LDWlin45

                                                                      Page 107
                                                              C:\Users\nhuliyap\AppData\Local\Temp\gh_00006u41.s
0000085d 0c             5670 	.byte	12
0000085e 000502         5671 	.byte	0,5,2
00000861 00000000*      5672 	.word	.LDWlin46
00000865 03             5673 	.byte	3
00000866 7e             5674 	.byte	126
00000867 02             5675 	.byte	2
00000868 00             5676 	.byte	0
00000869 01             5677 	.byte	1
0000086a 000502         5678 	.byte	0,5,2
0000086d 00000000*      5679 	.word	.LDWlin47
00000871 0d             5680 	.byte	13
00000872 0c             5681 	.byte	12
00000873 1b             5682 	.byte	27
00000874 0c             5683 	.byte	12
00000875 02             5684 	.byte	2
00000876 00             5685 	.byte	0
00000877 0b             5686 	.byte	11
00000878 02             5687 	.byte	2
00000879 04             5688 	.byte	4
0000087a 000101         5689 	.byte	0,1,1
                        5690 	.section	.debug_info
                        5691 .LDW_4bc3078:
00001924 0f             5692 	.byte	15
00001925 55385f426c6f   5693 	.strz	"U8_BlockNumber"
0000192b 636b4e756d62 
00001931 657200 
00001934 d302           5694 	.byte	211,2
00001936 2e             5695 	.byte	46
00001937 01             5696 	.byte	1
00001938 00000000*      5697 	.word	.LDW_406b970
0000193c 00             5698 	.byte	0
0000193d 0156           5699 	.byte	1,86
                        5700 
                        5701 .LDW_4bc3338:
0000193f 0f             5702 	.byte	15
00001940 5055385f4461   5703 	.strz	"PU8_Data"
00001946 746100 
00001949 d302           5704 	.byte	211,2
0000194b 45             5705 	.byte	69
0000194c 01             5706 	.byte	1
0000194d 00000000*      5707 	.word	.LDW_4056b08
00001951 00             5708 	.byte	0
00001952 0157           5709 	.byte	1,87
                        5710 
                        5711 .LDW_4c1a8d8:
00001954 1d             5712 	.byte	29
00001955 00000000*      5713 	.word	.LDW02
00001959 00000000*      5714 	.word	.LDW12
                        5715 
                        5716 .LDW_4bc3390:
0000195d 04             5717 	.byte	4
0000195e 535f46646c52   5718 	.strz	"S_FdlRequest"
00001964 657175657374 
0000196a 00 
0000196b d602           5719 	.byte	214,2
0000196d 13             5720 	.byte	19
0000196e 01             5721 	.byte	1
0000196f 00000000*      5722 	.word	.LDW_4bc3020
00001973 00             5723 	.byte	0
00001974 00             5724 	.byte	0
00001975 0273           5725 	.byte	2,115

                                                                      Page 108
                                                              C:\Users\nhuliyap\AppData\Local\Temp\gh_00006u41.s
00001977 00             5726 	.byte	0
                        5727 
00001978 00             5728 	.byte	0
                        5729 
00001979 00             5730 	.byte	0
                        5731 
                        5732 .LDW_4c1ac30:
0000197a 14             5733 	.byte	20
0000197b 50524f44464c   5734 	.strz	"PRODFLASH_GetGenealogyBlockStartAddress"
00001981 4153485f4765 
00001987 7447656e6561 
0000198d 6c6f6779426c 
00001993 6f636b537461 
00001999 727441646472 
0000199f 65737300 
000019a3 eb02           5735 	.byte	235,2
000019a5 08             5736 	.byte	8
000019a6 01             5737 	.byte	1
000019a7 00000000*      5738 	.word	.LDW_4056b08
000019ab 00000000*      5739 	.word	_PRODFLASH_GetGenealogyBlockStartAddress
000019af 00000000*      5740 	.word	___ghs_eofn_PRODFLASH_GetGenealogyBlockStartAddress
000019b3 0153           5741 	.byte	1,83
000019b5 02             5742 	.byte	2
000019b6 00             5743 	.byte	0
000019b7 02             5744 	.byte	2
000019b8 00             5745 	.byte	0
000019b9 00             5746 	.byte	0
000019ba 00             5747 	.byte	0
000019bb 00             5748 	.byte	0
000019bc 01             5749 	.byte	1
000019bd 01             5750 	.byte	1
000019be 00             5751 	.byte	0
000019bf 01             5752 	.byte	1
                        5753 
                        5754 	.section	.debug_frame
                        5755 .LDW_4c8f480:
00000150 00000000*      5756 	.word	.LDW_unq_12-.LDW_unq_11
                        5757 .LDW_unq_11:
00000154 00000000*      5758 	.word	.LDW_4cbe898
00000158 00000000*      5759 	.word	_PRODFLASH_GetGenealogyBlockStartAddress
0000015c 00000000*      5760 	.word	___ghs_eofn_PRODFLASH_GetGenealogyBlockStartAddress-_PRODFLASH_GetGenealogyBlockStartAddress
00000160 01             5761 	.byte	1
00000161 00000000*      5762 	.word	.LDW72
00000165 00             5763 	.byte	0
00000166 00             5764 	.byte	0
00000167 00             5765 	.byte	0
                        5766 .LDW_unq_12:
                        5767 	.section	.debug_line
0000087d 000502         5768 	.byte	0,5,2
00000880 00000000*      5769 	.word	_PRODFLASH_GetGenealogyBlockStartAddress
00000884 06             5770 	.byte	6
00000885 03             5771 	.byte	3
00000886 eb02           5772 	.byte	235,2
00000888 02             5773 	.byte	2
00000889 00             5774 	.byte	0
0000088a 01             5775 	.byte	1
0000088b 06             5776 	.byte	6
0000088c 000502         5777 	.byte	0,5,2
0000088f 00000000*      5778 	.word	.LDWlin60
00000893 02             5779 	.byte	2
00000894 00             5780 	.byte	0

                                                                      Page 109
                                                              C:\Users\nhuliyap\AppData\Local\Temp\gh_00006u41.s
00000895 02             5781 	.byte	2
00000896 02             5782 	.byte	2
00000897 000101         5783 	.byte	0,1,1
                        5784 	.section	.debug_info
                        5785 .LDW_4c1a8a8:
000019c0 1d             5786 	.byte	29
000019c1 00000000*      5787 	.word	.LDW62
000019c5 00000000*      5788 	.word	.LDW72
                        5789 
000019c9 00             5790 	.byte	0
                        5791 
000019ca 00             5792 	.byte	0
                        5793 
                        5794 .LDW_4c1acc8:
000019cb 14             5795 	.byte	20
000019cc 50524f44464c   5796 	.strz	"PRODFLASH_GetCustomerHwPartNumber"
000019d2 4153485f4765 
000019d8 74437573746f 
000019de 6d6572487750 
000019e4 6172744e756d 
000019ea 62657200 
000019ee ef02           5797 	.byte	239,2
000019f0 07             5798 	.byte	7
000019f1 01             5799 	.byte	1
000019f2 00000000*      5800 	.word	.LDW_406b970
000019f6 00000000*      5801 	.word	_PRODFLASH_GetCustomerHwPartNumber
000019fa 00000000*      5802 	.word	___ghs_eofn_PRODFLASH_GetCustomerHwPartNumber
000019fe 0153           5803 	.byte	1,83
00001a00 828080800a     5804 	.byte	130,128,128,128,10
00001a05 08             5805 	.byte	8
00001a06 03             5806 	.byte	3
00001a07 08             5807 	.byte	8
00001a08 00             5808 	.byte	0
00001a09 00             5809 	.byte	0
00001a0a 00             5810 	.byte	0
00001a0b 01             5811 	.byte	1
00001a0c 01             5812 	.byte	1
00001a0d 00             5813 	.byte	0
00001a0e 01             5814 	.byte	1
                        5815 
                        5816 	.section	.debug_frame
                        5817 .LDW_4c8ef40:
00000168 00000000*      5818 	.word	.LDW_unq_14-.LDW_unq_13
                        5819 .LDW_unq_13:
0000016c 00000000*      5820 	.word	.LDW_4cbe898
00000170 00000000*      5821 	.word	_PRODFLASH_GetCustomerHwPartNumber
00000174 00000000*      5822 	.word	___ghs_eofn_PRODFLASH_GetCustomerHwPartNumber-_PRODFLASH_GetCustomerHwPartNumber
00000178 44             5823 	.byte	68
00000179 9f             5824 	.byte	159
0000017a 00             5825 	.byte	0
0000017b 40             5826 	.byte	64
0000017c 9d             5827 	.byte	157
0000017d 04             5828 	.byte	4
0000017e 01             5829 	.byte	1
0000017f 00000000*      5830 	.word	.LDW92
00000183 00             5831 	.byte	0
                        5832 .LDW_unq_14:
                        5833 	.section	.debug_line
0000089a 000502         5834 	.byte	0,5,2
0000089d 00000000*      5835 	.word	_PRODFLASH_GetCustomerHwPartNumber
000008a1 03             5836 	.byte	3

                                                                      Page 110
                                                              C:\Users\nhuliyap\AppData\Local\Temp\gh_00006u41.s
000008a2 ef02           5837 	.byte	239,2
000008a4 02             5838 	.byte	2
000008a5 00             5839 	.byte	0
000008a6 01             5840 	.byte	1
000008a7 06             5841 	.byte	6
000008a8 03             5842 	.byte	3
000008a9 05             5843 	.byte	5
000008aa 02             5844 	.byte	2
000008ab 06             5845 	.byte	6
000008ac 01             5846 	.byte	1
000008ad 06             5847 	.byte	6
000008ae 000502         5848 	.byte	0,5,2
000008b1 00000000*      5849 	.word	.LDWlin61
000008b5 03             5850 	.byte	3
000008b6 06             5851 	.byte	6
000008b7 02             5852 	.byte	2
000008b8 00             5853 	.byte	0
000008b9 01             5854 	.byte	1
000008ba 03             5855 	.byte	3
000008bb 7c             5856 	.byte	124
000008bc 02             5857 	.byte	2
000008bd 00             5858 	.byte	0
000008be 01             5859 	.byte	1
000008bf 03             5860 	.byte	3
000008c0 7e             5861 	.byte	126
000008c1 02             5862 	.byte	2
000008c2 00             5863 	.byte	0
000008c3 01             5864 	.byte	1
000008c4 06             5865 	.byte	6
000008c5 000502         5866 	.byte	0,5,2
000008c8 00000000*      5867 	.word	.LDWlin62
000008cc 0d             5868 	.byte	13
000008cd 000502         5869 	.byte	0,5,2
000008d0 00000000*      5870 	.word	.LDWlin63
000008d4 03             5871 	.byte	3
000008d5 04             5872 	.byte	4
000008d6 02             5873 	.byte	2
000008d7 00             5874 	.byte	0
000008d8 01             5875 	.byte	1
000008d9 1b             5876 	.byte	27
000008da 02             5877 	.byte	2
000008db 00             5878 	.byte	0
000008dc 0c             5879 	.byte	12
000008dd 02             5880 	.byte	2
000008de 02             5881 	.byte	2
000008df 0c             5882 	.byte	12
000008e0 03             5883 	.byte	3
000008e1 7e             5884 	.byte	126
000008e2 02             5885 	.byte	2
000008e3 0c             5886 	.byte	12
000008e4 01             5887 	.byte	1
000008e5 000502         5888 	.byte	0,5,2
000008e8 00000000*      5889 	.word	.LDWlin64
000008ec 0d             5890 	.byte	13
000008ed 0c             5891 	.byte	12
000008ee 06             5892 	.byte	6
000008ef 02             5893 	.byte	2
000008f0 02             5894 	.byte	2
000008f1 02             5895 	.byte	2
000008f2 04             5896 	.byte	4
000008f3 000101         5897 	.byte	0,1,1

                                                                      Page 111
                                                              C:\Users\nhuliyap\AppData\Local\Temp\gh_00006u41.s
                        5898 	.section	.debug_info
                        5899 .LDW_4c7d478:
00001a0f 0f             5900 	.byte	15
00001a10 756344617461   5901 	.strz	"ucData"
00001a16 00 
00001a17 ef02           5902 	.byte	239,2
00001a19 30             5903 	.byte	48
00001a1a 01             5904 	.byte	1
00001a1b 00000000*      5905 	.word	.LDW_4056b08
00001a1f 00             5906 	.byte	0
00001a20 016d           5907 	.byte	1,109
                        5908 
                        5909 .LDW_4c1a998:
00001a22 1d             5910 	.byte	29
00001a23 00000000*      5911 	.word	.LDW82
00001a27 00000000*      5912 	.word	.LDW92
                        5913 
                        5914 .LDW_4c7d3c8:
00001a2b 04             5915 	.byte	4
00001a2c 7563436f756e   5916 	.strz	"ucCounter"
00001a32 74657200 
00001a36 f102           5917 	.byte	241,2
00001a38 09             5918 	.byte	9
00001a39 01             5919 	.byte	1
00001a3a 00000000*      5920 	.word	.LDW_406b970
00001a3e 00             5921 	.byte	0
00001a3f 00             5922 	.byte	0
00001a40 0162           5923 	.byte	1,98
                        5924 
                        5925 .LDW_4c7d4d0:
00001a42 04             5926 	.byte	4
00001a43 704877506172   5927 	.strz	"pHwPartNumber"
00001a49 744e756d6265 
00001a4f 7200 
00001a51 f202           5928 	.byte	242,2
00001a53 0a             5929 	.byte	10
00001a54 01             5930 	.byte	1
00001a55 00000000*      5931 	.word	.LDW_4056b08
00001a59 00             5932 	.byte	0
00001a5a 00             5933 	.byte	0
00001a5b 015f           5934 	.byte	1,95
                        5935 
                        5936 .LDW_4c7d6e0:
00001a5d 05             5937 	.byte	5
00001a5e 756353697a65   5938 	.strz	"ucSize"
00001a64 00 
00001a65 f302           5939 	.byte	243,2
00001a67 09             5940 	.byte	9
00001a68 01             5941 	.byte	1
00001a69 00000000*      5942 	.word	.LDW_406b970
00001a6d 00             5943 	.byte	0
00001a6e 00             5944 	.byte	0
                        5945 
00001a6f 00             5946 	.byte	0
                        5947 
00001a70 00             5948 	.byte	0
                        5949 
                        5950 .LDW_4c1ad60:
00001a71 14             5951 	.byte	20
00001a72 50524f44464c   5952 	.strz	"PRODFLASH_GetCustomerEcuPartNumber"
00001a78 4153485f4765 

                                                                      Page 112
                                                              C:\Users\nhuliyap\AppData\Local\Temp\gh_00006u41.s
00001a7e 74437573746f 
00001a84 6d6572456375 
00001a8a 506172744e75 
00001a90 6d62657200 
00001a95 8703           5953 	.byte	135,3
00001a97 07             5954 	.byte	7
00001a98 01             5955 	.byte	1
00001a99 00000000*      5956 	.word	.LDW_406b970
00001a9d 00000000*      5957 	.word	_PRODFLASH_GetCustomerEcuPartNumber
00001aa1 00000000*      5958 	.word	___ghs_eofn_PRODFLASH_GetCustomerEcuPartNumber
00001aa5 0153           5959 	.byte	1,83
00001aa7 828080800a     5960 	.byte	130,128,128,128,10
00001aac 08             5961 	.byte	8
00001aad 03             5962 	.byte	3
00001aae 08             5963 	.byte	8
00001aaf 00             5964 	.byte	0
00001ab0 00             5965 	.byte	0
00001ab1 00             5966 	.byte	0
00001ab2 01             5967 	.byte	1
00001ab3 01             5968 	.byte	1
00001ab4 00             5969 	.byte	0
00001ab5 01             5970 	.byte	1
                        5971 
                        5972 	.section	.debug_frame
                        5973 .LDW_4c8ee00:
00000184 00000000*      5974 	.word	.LDW_unq_16-.LDW_unq_15
                        5975 .LDW_unq_15:
00000188 00000000*      5976 	.word	.LDW_4cbe898
0000018c 00000000*      5977 	.word	_PRODFLASH_GetCustomerEcuPartNumber
00000190 00000000*      5978 	.word	___ghs_eofn_PRODFLASH_GetCustomerEcuPartNumber-_PRODFLASH_GetCustomerEcuPartNumber
00000194 44             5979 	.byte	68
00000195 9f             5980 	.byte	159
00000196 00             5981 	.byte	0
00000197 40             5982 	.byte	64
00000198 9d             5983 	.byte	157
00000199 04             5984 	.byte	4
0000019a 01             5985 	.byte	1
0000019b 00000000*      5986 	.word	.LDW13
0000019f 00             5987 	.byte	0
                        5988 .LDW_unq_16:
                        5989 	.section	.debug_line
000008f6 000502         5990 	.byte	0,5,2
000008f9 00000000*      5991 	.word	_PRODFLASH_GetCustomerEcuPartNumber
000008fd 03             5992 	.byte	3
000008fe 8703           5993 	.byte	135,3
00000900 02             5994 	.byte	2
00000901 00             5995 	.byte	0
00000902 01             5996 	.byte	1
00000903 06             5997 	.byte	6
00000904 03             5998 	.byte	3
00000905 05             5999 	.byte	5
00000906 02             6000 	.byte	2
00000907 06             6001 	.byte	6
00000908 01             6002 	.byte	1
00000909 06             6003 	.byte	6
0000090a 000502         6004 	.byte	0,5,2
0000090d 00000000*      6005 	.word	.LDWlin65
00000911 03             6006 	.byte	3
00000912 06             6007 	.byte	6
00000913 02             6008 	.byte	2
00000914 00             6009 	.byte	0

                                                                      Page 113
                                                              C:\Users\nhuliyap\AppData\Local\Temp\gh_00006u41.s
00000915 01             6010 	.byte	1
00000916 03             6011 	.byte	3
00000917 7c             6012 	.byte	124
00000918 02             6013 	.byte	2
00000919 00             6014 	.byte	0
0000091a 01             6015 	.byte	1
0000091b 03             6016 	.byte	3
0000091c 7e             6017 	.byte	126
0000091d 02             6018 	.byte	2
0000091e 00             6019 	.byte	0
0000091f 01             6020 	.byte	1
00000920 06             6021 	.byte	6
00000921 000502         6022 	.byte	0,5,2
00000924 00000000*      6023 	.word	.LDWlin66
00000928 0d             6024 	.byte	13
00000929 000502         6025 	.byte	0,5,2
0000092c 00000000*      6026 	.word	.LDWlin67
00000930 03             6027 	.byte	3
00000931 04             6028 	.byte	4
00000932 02             6029 	.byte	2
00000933 00             6030 	.byte	0
00000934 01             6031 	.byte	1
00000935 1b             6032 	.byte	27
00000936 02             6033 	.byte	2
00000937 00             6034 	.byte	0
00000938 0c             6035 	.byte	12
00000939 02             6036 	.byte	2
0000093a 02             6037 	.byte	2
0000093b 0c             6038 	.byte	12
0000093c 03             6039 	.byte	3
0000093d 7e             6040 	.byte	126
0000093e 02             6041 	.byte	2
0000093f 0c             6042 	.byte	12
00000940 01             6043 	.byte	1
00000941 000502         6044 	.byte	0,5,2
00000944 00000000*      6045 	.word	.LDWlin68
00000948 0d             6046 	.byte	13
00000949 0c             6047 	.byte	12
0000094a 06             6048 	.byte	6
0000094b 02             6049 	.byte	2
0000094c 02             6050 	.byte	2
0000094d 02             6051 	.byte	2
0000094e 04             6052 	.byte	4
0000094f 000101         6053 	.byte	0,1,1
                        6054 	.section	.debug_info
                        6055 .LDW_4c7d840:
00001ab6 0f             6056 	.byte	15
00001ab7 756344617461   6057 	.strz	"ucData"
00001abd 00 
00001abe 8703           6058 	.byte	135,3
00001ac0 31             6059 	.byte	49
00001ac1 01             6060 	.byte	1
00001ac2 00000000*      6061 	.word	.LDW_4056b08
00001ac6 00             6062 	.byte	0
00001ac7 016d           6063 	.byte	1,109
                        6064 
                        6065 .LDW_4c1a608:
00001ac9 1d             6066 	.byte	29
00001aca 00000000*      6067 	.word	.LDW03
00001ace 00000000*      6068 	.word	.LDW13
                        6069 

                                                                      Page 114
                                                              C:\Users\nhuliyap\AppData\Local\Temp\gh_00006u41.s
                        6070 .LDW_4c7d630:
00001ad2 04             6071 	.byte	4
00001ad3 7563436f756e   6072 	.strz	"ucCounter"
00001ad9 74657200 
00001add 8903           6073 	.byte	137,3
00001adf 09             6074 	.byte	9
00001ae0 01             6075 	.byte	1
00001ae1 00000000*      6076 	.word	.LDW_406b970
00001ae5 00             6077 	.byte	0
00001ae6 00             6078 	.byte	0
00001ae7 0162           6079 	.byte	1,98
                        6080 
                        6081 .LDW_4c7d528:
00001ae9 04             6082 	.byte	4
00001aea 704563755061   6083 	.strz	"pEcuPartNumber"
00001af0 72744e756d62 
00001af6 657200 
00001af9 8a03           6084 	.byte	138,3
00001afb 0a             6085 	.byte	10
00001afc 01             6086 	.byte	1
00001afd 00000000*      6087 	.word	.LDW_4056b08
00001b01 00             6088 	.byte	0
00001b02 00             6089 	.byte	0
00001b03 015f           6090 	.byte	1,95
                        6091 
                        6092 .LDW_4c7d688:
00001b05 05             6093 	.byte	5
00001b06 756353697a65   6094 	.strz	"ucSize"
00001b0c 00 
00001b0d 8b03           6095 	.byte	139,3
00001b0f 09             6096 	.byte	9
00001b10 01             6097 	.byte	1
00001b11 00000000*      6098 	.word	.LDW_406b970
00001b15 00             6099 	.byte	0
00001b16 00             6100 	.byte	0
                        6101 
00001b17 00             6102 	.byte	0
                        6103 
00001b18 00             6104 	.byte	0
                        6105 
                        6106 .LDW_4c1adf8:
00001b19 14             6107 	.byte	20
00001b1a 50524f44464c   6108 	.strz	"PRODFLASH_GetCustomerEcuSerialNumber"
00001b20 4153485f4765 
00001b26 74437573746f 
00001b2c 6d6572456375 
00001b32 53657269616c 
00001b38 4e756d626572 
00001b3e 00 
00001b3f 9f03           6109 	.byte	159,3
00001b41 07             6110 	.byte	7
00001b42 01             6111 	.byte	1
00001b43 00000000*      6112 	.word	.LDW_406b970
00001b47 00000000*      6113 	.word	_PRODFLASH_GetCustomerEcuSerialNumber
00001b4b 00000000*      6114 	.word	___ghs_eofn_PRODFLASH_GetCustomerEcuSerialNumber
00001b4f 0153           6115 	.byte	1,83
00001b51 02             6116 	.byte	2
00001b52 00             6117 	.byte	0
00001b53 02             6118 	.byte	2
00001b54 00             6119 	.byte	0
00001b55 00             6120 	.byte	0

                                                                      Page 115
                                                              C:\Users\nhuliyap\AppData\Local\Temp\gh_00006u41.s
00001b56 00             6121 	.byte	0
00001b57 00             6122 	.byte	0
00001b58 01             6123 	.byte	1
00001b59 01             6124 	.byte	1
00001b5a 00             6125 	.byte	0
00001b5b 01             6126 	.byte	1
                        6127 
                        6128 	.section	.debug_frame
                        6129 .LDW_4c8f2c0:
000001a0 00000000*      6130 	.word	.LDW_unq_18-.LDW_unq_17
                        6131 .LDW_unq_17:
000001a4 00000000*      6132 	.word	.LDW_4cbe898
000001a8 00000000*      6133 	.word	_PRODFLASH_GetCustomerEcuSerialNumber
000001ac 00000000*      6134 	.word	___ghs_eofn_PRODFLASH_GetCustomerEcuSerialNumber-_PRODFLASH_GetCustomerEcuSerialNumber
000001b0 01             6135 	.byte	1
000001b1 00000000*      6136 	.word	.LDW33
000001b5 00             6137 	.byte	0
000001b6 00             6138 	.byte	0
000001b7 00             6139 	.byte	0
                        6140 .LDW_unq_18:
                        6141 	.section	.debug_line
00000952 000502         6142 	.byte	0,5,2
00000955 00000000*      6143 	.word	_PRODFLASH_GetCustomerEcuSerialNumber
00000959 06             6144 	.byte	6
0000095a 03             6145 	.byte	3
0000095b a503           6146 	.byte	165,3
0000095d 02             6147 	.byte	2
0000095e 00             6148 	.byte	0
0000095f 01             6149 	.byte	1
00000960 02             6150 	.byte	2
00000961 02             6151 	.byte	2
00000962 0c             6152 	.byte	12
00000963 03             6153 	.byte	3
00000964 7e             6154 	.byte	126
00000965 02             6155 	.byte	2
00000966 06             6156 	.byte	6
00000967 01             6157 	.byte	1
00000968 000502         6158 	.byte	0,5,2
0000096b 00000000*      6159 	.word	.LDWlin69
0000096f 0d             6160 	.byte	13
00000970 0c             6161 	.byte	12
00000971 2c             6162 	.byte	44
00000972 02             6163 	.byte	2
00000973 02             6164 	.byte	2
00000974 0c             6165 	.byte	12
00000975 000502         6166 	.byte	0,5,2
00000978 00000000*      6167 	.word	.LDWlin70
0000097c 03             6168 	.byte	3
0000097d 7e             6169 	.byte	126
0000097e 02             6170 	.byte	2
0000097f 00             6171 	.byte	0
00000980 01             6172 	.byte	1
00000981 000502         6173 	.byte	0,5,2
00000984 00000000*      6174 	.word	.LDWlin71
00000988 0d             6175 	.byte	13
00000989 0c             6176 	.byte	12
0000098a 06             6177 	.byte	6
0000098b 02             6178 	.byte	2
0000098c 02             6179 	.byte	2
0000098d 02             6180 	.byte	2
0000098e 02             6181 	.byte	2

                                                                      Page 116
                                                              C:\Users\nhuliyap\AppData\Local\Temp\gh_00006u41.s
0000098f 000101         6182 	.byte	0,1,1
                        6183 	.section	.debug_info
                        6184 .LDW_4c7d580:
00001b5c 0f             6185 	.byte	15
00001b5d 756344617461   6186 	.strz	"ucData"
00001b63 00 
00001b64 9f03           6187 	.byte	159,3
00001b66 33             6188 	.byte	51
00001b67 01             6189 	.byte	1
00001b68 00000000*      6190 	.word	.LDW_4056b08
00001b6c 00             6191 	.byte	0
00001b6d 0156           6192 	.byte	1,86
                        6193 
                        6194 .LDW_4c1a938:
00001b6f 1d             6195 	.byte	29
00001b70 00000000*      6196 	.word	.LDW23
00001b74 00000000*      6197 	.word	.LDW33
                        6198 
                        6199 .LDW_4c7d5d8:
00001b78 04             6200 	.byte	4
00001b79 7563436f756e   6201 	.strz	"ucCounter"
00001b7f 74657200 
00001b83 a103           6202 	.byte	161,3
00001b85 09             6203 	.byte	9
00001b86 01             6204 	.byte	1
00001b87 00000000*      6205 	.word	.LDW_406b970
00001b8b 00             6206 	.byte	0
00001b8c 00             6207 	.byte	0
00001b8d 0162           6208 	.byte	1,98
                        6209 
                        6210 .LDW_4c7d790:
00001b8f 05             6211 	.byte	5
00001b90 756353697a65   6212 	.strz	"ucSize"
00001b96 00 
00001b97 a203           6213 	.byte	162,3
00001b99 09             6214 	.byte	9
00001b9a 01             6215 	.byte	1
00001b9b 00000000*      6216 	.word	.LDW_406b970
00001b9f 00             6217 	.byte	0
00001ba0 00             6218 	.byte	0
                        6219 
00001ba1 00             6220 	.byte	0
                        6221 
00001ba2 00             6222 	.byte	0
                        6223 
                        6224 .LDW_4c1ae90:
00001ba3 14             6225 	.byte	20
00001ba4 50524f44464c   6226 	.strz	"PRODFLASH_GetVin"
00001baa 4153485f4765 
00001bb0 7456696e00 
00001bb5 b503           6227 	.byte	181,3
00001bb7 07             6228 	.byte	7
00001bb8 01             6229 	.byte	1
00001bb9 00000000*      6230 	.word	.LDW_406b970
00001bbd 00000000*      6231 	.word	_PRODFLASH_GetVin
00001bc1 00000000*      6232 	.word	___ghs_eofn_PRODFLASH_GetVin
00001bc5 0153           6233 	.byte	1,83
00001bc7 02             6234 	.byte	2
00001bc8 00             6235 	.byte	0
00001bc9 02             6236 	.byte	2
00001bca 00             6237 	.byte	0

                                                                      Page 117
                                                              C:\Users\nhuliyap\AppData\Local\Temp\gh_00006u41.s
00001bcb 00             6238 	.byte	0
00001bcc 00             6239 	.byte	0
00001bcd 00             6240 	.byte	0
00001bce 01             6241 	.byte	1
00001bcf 01             6242 	.byte	1
00001bd0 00             6243 	.byte	0
00001bd1 01             6244 	.byte	1
                        6245 
                        6246 	.section	.debug_frame
                        6247 .LDW_4c8ee40:
000001b8 00000000*      6248 	.word	.LDW_unq_1a-.LDW_unq_19
                        6249 .LDW_unq_19:
000001bc 00000000*      6250 	.word	.LDW_4cbe898
000001c0 00000000*      6251 	.word	_PRODFLASH_GetVin
000001c4 00000000*      6252 	.word	___ghs_eofn_PRODFLASH_GetVin-_PRODFLASH_GetVin
000001c8 01             6253 	.byte	1
000001c9 00000000*      6254 	.word	.LDW53
000001cd 00             6255 	.byte	0
000001ce 00             6256 	.byte	0
000001cf 00             6257 	.byte	0
                        6258 .LDW_unq_1a:
                        6259 	.section	.debug_line
00000992 000502         6260 	.byte	0,5,2
00000995 00000000*      6261 	.word	_PRODFLASH_GetVin
00000999 06             6262 	.byte	6
0000099a 03             6263 	.byte	3
0000099b bb03           6264 	.byte	187,3
0000099d 02             6265 	.byte	2
0000099e 00             6266 	.byte	0
0000099f 01             6267 	.byte	1
000009a0 02             6268 	.byte	2
000009a1 02             6269 	.byte	2
000009a2 0c             6270 	.byte	12
000009a3 000502         6271 	.byte	0,5,2
000009a6 00000000*      6272 	.word	.LDWlin72
000009aa 03             6273 	.byte	3
000009ab 7e             6274 	.byte	126
000009ac 02             6275 	.byte	2
000009ad 00             6276 	.byte	0
000009ae 01             6277 	.byte	1
000009af 000502         6278 	.byte	0,5,2
000009b2 00000000*      6279 	.word	.LDWlin73
000009b6 0d             6280 	.byte	13
000009b7 0c             6281 	.byte	12
000009b8 06             6282 	.byte	6
000009b9 02             6283 	.byte	2
000009ba 04             6284 	.byte	4
000009bb 02             6285 	.byte	2
000009bc 02             6286 	.byte	2
000009bd 000101         6287 	.byte	0,1,1
                        6288 	.section	.debug_info
                        6289 .LDW_4c7d738:
00001bd2 0f             6290 	.byte	15
00001bd3 756344617461   6291 	.strz	"ucData"
00001bd9 00 
00001bda b503           6292 	.byte	181,3
00001bdc 1f             6293 	.byte	31
00001bdd 01             6294 	.byte	1
00001bde 00000000*      6295 	.word	.LDW_4056b08
00001be2 00             6296 	.byte	0
00001be3 0156           6297 	.byte	1,86

                                                                      Page 118
                                                              C:\Users\nhuliyap\AppData\Local\Temp\gh_00006u41.s
                        6298 
                        6299 .LDW_4c1a788:
00001be5 1d             6300 	.byte	29
00001be6 00000000*      6301 	.word	.LDW43
00001bea 00000000*      6302 	.word	.LDW53
                        6303 
                        6304 .LDW_4c7d7e8:
00001bee 04             6305 	.byte	4
00001bef 7563436f756e   6306 	.strz	"ucCounter"
00001bf5 74657200 
00001bf9 b703           6307 	.byte	183,3
00001bfb 09             6308 	.byte	9
00001bfc 01             6309 	.byte	1
00001bfd 00000000*      6310 	.word	.LDW_406b970
00001c01 00             6311 	.byte	0
00001c02 00             6312 	.byte	0
00001c03 0162           6313 	.byte	1,98
                        6314 
                        6315 .LDW_4c7d420:
00001c05 05             6316 	.byte	5
00001c06 756353697a65   6317 	.strz	"ucSize"
00001c0c 00 
00001c0d b803           6318 	.byte	184,3
00001c0f 09             6319 	.byte	9
00001c10 01             6320 	.byte	1
00001c11 00000000*      6321 	.word	.LDW_406b970
00001c15 00             6322 	.byte	0
00001c16 00             6323 	.byte	0
                        6324 
00001c17 00             6325 	.byte	0
                        6326 
00001c18 00             6327 	.byte	0
                        6328 
                        6329 .LDW_4c1af28:
00001c19 14             6330 	.byte	20
00001c1a 50524f44464c   6331 	.strz	"PRODFLASH_GetEcuProgramFingerprintApplication"
00001c20 4153485f4765 
00001c26 744563755072 
00001c2c 6f6772616d46 
00001c32 696e67657270 
00001c38 72696e744170 
00001c3e 706c69636174 
00001c44 696f6e00 
00001c48 c403           6332 	.byte	196,3
00001c4a 07             6333 	.byte	7
00001c4b 01             6334 	.byte	1
00001c4c 00000000*      6335 	.word	.LDW_406b970
00001c50 00000000*      6336 	.word	_PRODFLASH_GetEcuProgramFingerprintApplication
00001c54 00000000*      6337 	.word	___ghs_eofn_PRODFLASH_GetEcuProgramFingerprintApplication
00001c58 0153           6338 	.byte	1,83
00001c5a 02             6339 	.byte	2
00001c5b 00             6340 	.byte	0
00001c5c 02             6341 	.byte	2
00001c5d 00             6342 	.byte	0
00001c5e 00             6343 	.byte	0
00001c5f 00             6344 	.byte	0
00001c60 00             6345 	.byte	0
00001c61 01             6346 	.byte	1
00001c62 01             6347 	.byte	1
00001c63 00             6348 	.byte	0
00001c64 01             6349 	.byte	1

                                                                      Page 119
                                                              C:\Users\nhuliyap\AppData\Local\Temp\gh_00006u41.s
                        6350 
                        6351 	.section	.debug_frame
                        6352 .LDW_4c8f100:
000001d0 00000000*      6353 	.word	.LDW_unq_1c-.LDW_unq_1b
                        6354 .LDW_unq_1b:
000001d4 00000000*      6355 	.word	.LDW_4cbe898
000001d8 00000000*      6356 	.word	_PRODFLASH_GetEcuProgramFingerprintApplication
000001dc 00000000*      6357 	.word	___ghs_eofn_PRODFLASH_GetEcuProgramFingerprintApplication-_PRODFLASH_GetEcuProgramFingerprintApplication
000001e0 01             6358 	.byte	1
000001e1 00000000*      6359 	.word	.LDW73
000001e5 00             6360 	.byte	0
000001e6 00             6361 	.byte	0
000001e7 00             6362 	.byte	0
                        6363 .LDW_unq_1c:
                        6364 	.section	.debug_line
000009c0 000502         6365 	.byte	0,5,2
000009c3 00000000*      6366 	.word	_PRODFLASH_GetEcuProgramFingerprintApplication
000009c7 06             6367 	.byte	6
000009c8 03             6368 	.byte	3
000009c9 c903           6369 	.byte	201,3
000009cb 02             6370 	.byte	2
000009cc 00             6371 	.byte	0
000009cd 01             6372 	.byte	1
000009ce 02             6373 	.byte	2
000009cf 02             6374 	.byte	2
000009d0 000502         6375 	.byte	0,5,2
000009d3 00000000*      6376 	.word	.LDWlin74
000009d7 0c             6377 	.byte	12
000009d8 03             6378 	.byte	3
000009d9 7e             6379 	.byte	126
000009da 02             6380 	.byte	2
000009db 0c             6381 	.byte	12
000009dc 01             6382 	.byte	1
000009dd 2d             6383 	.byte	45
000009de 0d             6384 	.byte	13
000009df 000502         6385 	.byte	0,5,2
000009e2 00000000*      6386 	.word	.LDWlin75
000009e6 0c             6387 	.byte	12
000009e7 03             6388 	.byte	3
000009e8 7e             6389 	.byte	126
000009e9 02             6390 	.byte	2
000009ea 0c             6391 	.byte	12
000009eb 01             6392 	.byte	1
000009ec 000502         6393 	.byte	0,5,2
000009ef 00000000*      6394 	.word	.LDWlin76
000009f3 0d             6395 	.byte	13
000009f4 0b             6396 	.byte	11
000009f5 06             6397 	.byte	6
000009f6 02             6398 	.byte	2
000009f7 04             6399 	.byte	4
000009f8 02             6400 	.byte	2
000009f9 02             6401 	.byte	2
000009fa 000101         6402 	.byte	0,1,1
                        6403 	.section	.debug_info
                        6404 .LDW_4c7d318:
00001c65 0f             6405 	.byte	15
00001c66 756344617461   6406 	.strz	"ucData"
00001c6c 00 
00001c6d c403           6407 	.byte	196,3
00001c6f 3c             6408 	.byte	60
00001c70 01             6409 	.byte	1

                                                                      Page 120
                                                              C:\Users\nhuliyap\AppData\Local\Temp\gh_00006u41.s
00001c71 00000000*      6410 	.word	.LDW_4056b08
00001c75 00             6411 	.byte	0
00001c76 0156           6412 	.byte	1,86
                        6413 
                        6414 .LDW_4c1a7b8:
00001c78 1d             6415 	.byte	29
00001c79 00000000*      6416 	.word	.LDW63
00001c7d 00000000*      6417 	.word	.LDW73
                        6418 
                        6419 .LDW_4c7d058:
00001c81 04             6420 	.byte	4
00001c82 7563436f756e   6421 	.strz	"ucCounter"
00001c88 74657200 
00001c8c c603           6422 	.byte	198,3
00001c8e 09             6423 	.byte	9
00001c8f 01             6424 	.byte	1
00001c90 00000000*      6425 	.word	.LDW_406b970
00001c94 00             6426 	.byte	0
00001c95 00             6427 	.byte	0
00001c96 0162           6428 	.byte	1,98
                        6429 
                        6430 .LDW_4c7c9d0:
00001c98 05             6431 	.byte	5
00001c99 756353697a65   6432 	.strz	"ucSize"
00001c9f 00 
00001ca0 c703           6433 	.byte	199,3
00001ca2 09             6434 	.byte	9
00001ca3 01             6435 	.byte	1
00001ca4 00000000*      6436 	.word	.LDW_406b970
00001ca8 00             6437 	.byte	0
00001ca9 00             6438 	.byte	0
                        6439 
00001caa 00             6440 	.byte	0
                        6441 
00001cab 00             6442 	.byte	0
                        6443 
                        6444 .LDW_4c1afc0:
00001cac 14             6445 	.byte	20
00001cad 50524f44464c   6446 	.strz	"PRODFLASH_GetEcuProgramFingerprintBootloader"
00001cb3 4153485f4765 
00001cb9 744563755072 
00001cbf 6f6772616d46 
00001cc5 696e67657270 
00001ccb 72696e74426f 
00001cd1 6f746c6f6164 
00001cd7 657200 
00001cda d703           6447 	.byte	215,3
00001cdc 07             6448 	.byte	7
00001cdd 01             6449 	.byte	1
00001cde 00000000*      6450 	.word	.LDW_406b970
00001ce2 00000000*      6451 	.word	_PRODFLASH_GetEcuProgramFingerprintBootloader
00001ce6 00000000*      6452 	.word	___ghs_eofn_PRODFLASH_GetEcuProgramFingerprintBootloader
00001cea 0153           6453 	.byte	1,83
00001cec 02             6454 	.byte	2
00001ced 00             6455 	.byte	0
00001cee 02             6456 	.byte	2
00001cef 00             6457 	.byte	0
00001cf0 00             6458 	.byte	0
00001cf1 00             6459 	.byte	0
00001cf2 00             6460 	.byte	0
00001cf3 01             6461 	.byte	1

                                                                      Page 121
                                                              C:\Users\nhuliyap\AppData\Local\Temp\gh_00006u41.s
00001cf4 01             6462 	.byte	1
00001cf5 00             6463 	.byte	0
00001cf6 01             6464 	.byte	1
                        6465 
                        6466 	.section	.debug_frame
                        6467 .LDW_4c8fac0:
000001e8 00000000*      6468 	.word	.LDW_unq_1e-.LDW_unq_1d
                        6469 .LDW_unq_1d:
000001ec 00000000*      6470 	.word	.LDW_4cbe898
000001f0 00000000*      6471 	.word	_PRODFLASH_GetEcuProgramFingerprintBootloader
000001f4 00000000*      6472 	.word	___ghs_eofn_PRODFLASH_GetEcuProgramFingerprintBootloader-_PRODFLASH_GetEcuProgramFingerprintBootloader
000001f8 01             6473 	.byte	1
000001f9 00000000*      6474 	.word	.LDW93
000001fd 00             6475 	.byte	0
000001fe 00             6476 	.byte	0
000001ff 00             6477 	.byte	0
                        6478 .LDW_unq_1e:
                        6479 	.section	.debug_line
000009fd 000502         6480 	.byte	0,5,2
00000a00 00000000*      6481 	.word	_PRODFLASH_GetEcuProgramFingerprintBootloader
00000a04 06             6482 	.byte	6
00000a05 03             6483 	.byte	3
00000a06 dc03           6484 	.byte	220,3
00000a08 02             6485 	.byte	2
00000a09 00             6486 	.byte	0
00000a0a 01             6487 	.byte	1
00000a0b 02             6488 	.byte	2
00000a0c 02             6489 	.byte	2
00000a0d 000502         6490 	.byte	0,5,2
00000a10 00000000*      6491 	.word	.LDWlin77
00000a14 0c             6492 	.byte	12
00000a15 03             6493 	.byte	3
00000a16 7e             6494 	.byte	126
00000a17 02             6495 	.byte	2
00000a18 0c             6496 	.byte	12
00000a19 01             6497 	.byte	1
00000a1a 2d             6498 	.byte	45
00000a1b 0d             6499 	.byte	13
00000a1c 000502         6500 	.byte	0,5,2
00000a1f 00000000*      6501 	.word	.LDWlin78
00000a23 0c             6502 	.byte	12
00000a24 03             6503 	.byte	3
00000a25 7e             6504 	.byte	126
00000a26 02             6505 	.byte	2
00000a27 0c             6506 	.byte	12
00000a28 01             6507 	.byte	1
00000a29 000502         6508 	.byte	0,5,2
00000a2c 00000000*      6509 	.word	.LDWlin79
00000a30 0d             6510 	.byte	13
00000a31 0b             6511 	.byte	11
00000a32 06             6512 	.byte	6
00000a33 02             6513 	.byte	2
00000a34 04             6514 	.byte	4
00000a35 02             6515 	.byte	2
00000a36 02             6516 	.byte	2
00000a37 000101         6517 	.byte	0,1,1
                        6518 	.section	.debug_info
                        6519 .LDW_4c7cad8:
00001cf7 0f             6520 	.byte	15
00001cf8 756344617461   6521 	.strz	"ucData"
00001cfe 00 

                                                                      Page 122
                                                              C:\Users\nhuliyap\AppData\Local\Temp\gh_00006u41.s
00001cff d703           6522 	.byte	215,3
00001d01 3b             6523 	.byte	59
00001d02 01             6524 	.byte	1
00001d03 00000000*      6525 	.word	.LDW_4056b08
00001d07 00             6526 	.byte	0
00001d08 0156           6527 	.byte	1,86
                        6528 
                        6529 .LDW_4c1a4e8:
00001d0a 1d             6530 	.byte	29
00001d0b 00000000*      6531 	.word	.LDW83
00001d0f 00000000*      6532 	.word	.LDW93
                        6533 
                        6534 .LDW_4c7cdf0:
00001d13 04             6535 	.byte	4
00001d14 7563436f756e   6536 	.strz	"ucCounter"
00001d1a 74657200 
00001d1e d903           6537 	.byte	217,3
00001d20 09             6538 	.byte	9
00001d21 01             6539 	.byte	1
00001d22 00000000*      6540 	.word	.LDW_406b970
00001d26 00             6541 	.byte	0
00001d27 00             6542 	.byte	0
00001d28 0162           6543 	.byte	1,98
                        6544 
                        6545 .LDW_4c7d210:
00001d2a 05             6546 	.byte	5
00001d2b 756353697a65   6547 	.strz	"ucSize"
00001d31 00 
00001d32 da03           6548 	.byte	218,3
00001d34 09             6549 	.byte	9
00001d35 01             6550 	.byte	1
00001d36 00000000*      6551 	.word	.LDW_406b970
00001d3a 00             6552 	.byte	0
00001d3b 00             6553 	.byte	0
                        6554 
00001d3c 00             6555 	.byte	0
                        6556 
00001d3d 00             6557 	.byte	0
                        6558 
                        6559 .LDW_4c1b058:
00001d3e 14             6560 	.byte	20
00001d3f 50524f44464c   6561 	.strz	"PRODFLASH_GetRivianEcuSerialNumber"
00001d45 4153485f4765 
00001d4b 745269766961 
00001d51 6e4563755365 
00001d57 7269616c4e75 
00001d5d 6d62657200 
00001d62 ea03           6562 	.byte	234,3
00001d64 07             6563 	.byte	7
00001d65 01             6564 	.byte	1
00001d66 00000000*      6565 	.word	.LDW_406b970
00001d6a 00000000*      6566 	.word	_PRODFLASH_GetRivianEcuSerialNumber
00001d6e 00000000*      6567 	.word	___ghs_eofn_PRODFLASH_GetRivianEcuSerialNumber
00001d72 0153           6568 	.byte	1,83
00001d74 02             6569 	.byte	2
00001d75 00             6570 	.byte	0
00001d76 02             6571 	.byte	2
00001d77 00             6572 	.byte	0
00001d78 00             6573 	.byte	0
00001d79 00             6574 	.byte	0
00001d7a 00             6575 	.byte	0

                                                                      Page 123
                                                              C:\Users\nhuliyap\AppData\Local\Temp\gh_00006u41.s
00001d7b 01             6576 	.byte	1
00001d7c 01             6577 	.byte	1
00001d7d 00             6578 	.byte	0
00001d7e 01             6579 	.byte	1
                        6580 
                        6581 	.section	.debug_frame
                        6582 .LDW_4c8f740:
00000200 00000000*      6583 	.word	.LDW_unq_20-.LDW_unq_1f
                        6584 .LDW_unq_1f:
00000204 00000000*      6585 	.word	.LDW_4cbe898
00000208 00000000*      6586 	.word	_PRODFLASH_GetRivianEcuSerialNumber
0000020c 00000000*      6587 	.word	___ghs_eofn_PRODFLASH_GetRivianEcuSerialNumber-_PRODFLASH_GetRivianEcuSerialNumber
00000210 01             6588 	.byte	1
00000211 00000000*      6589 	.word	.LDW14
00000215 00             6590 	.byte	0
00000216 00             6591 	.byte	0
00000217 00             6592 	.byte	0
                        6593 .LDW_unq_20:
                        6594 	.section	.debug_line
00000a3a 000502         6595 	.byte	0,5,2
00000a3d 00000000*      6596 	.word	_PRODFLASH_GetRivianEcuSerialNumber
00000a41 06             6597 	.byte	6
00000a42 03             6598 	.byte	3
00000a43 f003           6599 	.byte	240,3
00000a45 02             6600 	.byte	2
00000a46 00             6601 	.byte	0
00000a47 01             6602 	.byte	1
00000a48 02             6603 	.byte	2
00000a49 02             6604 	.byte	2
00000a4a 0c             6605 	.byte	12
00000a4b 000502         6606 	.byte	0,5,2
00000a4e 00000000*      6607 	.word	.LDWlin80
00000a52 03             6608 	.byte	3
00000a53 7e             6609 	.byte	126
00000a54 02             6610 	.byte	2
00000a55 00             6611 	.byte	0
00000a56 01             6612 	.byte	1
00000a57 000502         6613 	.byte	0,5,2
00000a5a 00000000*      6614 	.word	.LDWlin81
00000a5e 0d             6615 	.byte	13
00000a5f 0c             6616 	.byte	12
00000a60 06             6617 	.byte	6
00000a61 02             6618 	.byte	2
00000a62 04             6619 	.byte	4
00000a63 02             6620 	.byte	2
00000a64 02             6621 	.byte	2
00000a65 000101         6622 	.byte	0,1,1
                        6623 	.section	.debug_info
                        6624 .LDW_4c7d108:
00001d7f 0f             6625 	.byte	15
00001d80 756344617461   6626 	.strz	"ucData"
00001d86 00 
00001d87 ea03           6627 	.byte	234,3
00001d89 31             6628 	.byte	49
00001d8a 01             6629 	.byte	1
00001d8b 00000000*      6630 	.word	.LDW_4056b08
00001d8f 00             6631 	.byte	0
00001d90 0156           6632 	.byte	1,86
                        6633 
                        6634 .LDW_4c1a7e8:
00001d92 1d             6635 	.byte	29

                                                                      Page 124
                                                              C:\Users\nhuliyap\AppData\Local\Temp\gh_00006u41.s
00001d93 00000000*      6636 	.word	.LDW04
00001d97 00000000*      6637 	.word	.LDW14
                        6638 
                        6639 .LDW_4c7d268:
00001d9b 04             6640 	.byte	4
00001d9c 7563436f756e   6641 	.strz	"ucCounter"
00001da2 74657200 
00001da6 ec03           6642 	.byte	236,3
00001da8 09             6643 	.byte	9
00001da9 01             6644 	.byte	1
00001daa 00000000*      6645 	.word	.LDW_406b970
00001dae 00             6646 	.byte	0
00001daf 00             6647 	.byte	0
00001db0 0162           6648 	.byte	1,98
                        6649 
                        6650 .LDW_4c7d370:
00001db2 05             6651 	.byte	5
00001db3 756353697a65   6652 	.strz	"ucSize"
00001db9 00 
00001dba ed03           6653 	.byte	237,3
00001dbc 09             6654 	.byte	9
00001dbd 01             6655 	.byte	1
00001dbe 00000000*      6656 	.word	.LDW_406b970
00001dc2 00             6657 	.byte	0
00001dc3 00             6658 	.byte	0
                        6659 
00001dc4 00             6660 	.byte	0
                        6661 
00001dc5 00             6662 	.byte	0
                        6663 
                        6664 .LDW_4d0edf0:
00001dc6 14             6665 	.byte	20
00001dc7 50524f44464c   6666 	.strz	"PRODFLASH_GetRivianBoardSerialNumber"
00001dcd 4153485f4765 
00001dd3 745269766961 
00001dd9 6e426f617264 
00001ddf 53657269616c 
00001de5 4e756d626572 
00001deb 00 
00001dec f903           6667 	.byte	249,3
00001dee 07             6668 	.byte	7
00001def 01             6669 	.byte	1
00001df0 00000000*      6670 	.word	.LDW_406b970
00001df4 00000000*      6671 	.word	_PRODFLASH_GetRivianBoardSerialNumber
00001df8 00000000*      6672 	.word	___ghs_eofn_PRODFLASH_GetRivianBoardSerialNumber
00001dfc 0153           6673 	.byte	1,83
00001dfe 02             6674 	.byte	2
00001dff 00             6675 	.byte	0
00001e00 02             6676 	.byte	2
00001e01 00             6677 	.byte	0
00001e02 00             6678 	.byte	0
00001e03 00             6679 	.byte	0
00001e04 00             6680 	.byte	0
00001e05 01             6681 	.byte	1
00001e06 01             6682 	.byte	1
00001e07 00             6683 	.byte	0
00001e08 01             6684 	.byte	1
                        6685 
                        6686 	.section	.debug_frame
                        6687 .LDW_4c8f780:
00000218 00000000*      6688 	.word	.LDW_unq_22-.LDW_unq_21

                                                                      Page 125
                                                              C:\Users\nhuliyap\AppData\Local\Temp\gh_00006u41.s
                        6689 .LDW_unq_21:
0000021c 00000000*      6690 	.word	.LDW_4cbe898
00000220 00000000*      6691 	.word	_PRODFLASH_GetRivianBoardSerialNumber
00000224 00000000*      6692 	.word	___ghs_eofn_PRODFLASH_GetRivianBoardSerialNumber-_PRODFLASH_GetRivianBoardSerialNumber
00000228 01             6693 	.byte	1
00000229 00000000*      6694 	.word	.LDW34
0000022d 00             6695 	.byte	0
0000022e 00             6696 	.byte	0
0000022f 00             6697 	.byte	0
                        6698 .LDW_unq_22:
                        6699 	.section	.debug_line
00000a68 000502         6700 	.byte	0,5,2
00000a6b 00000000*      6701 	.word	_PRODFLASH_GetRivianBoardSerialNumber
00000a6f 06             6702 	.byte	6
00000a70 03             6703 	.byte	3
00000a71 ff03           6704 	.byte	255,3
00000a73 02             6705 	.byte	2
00000a74 00             6706 	.byte	0
00000a75 01             6707 	.byte	1
00000a76 02             6708 	.byte	2
00000a77 02             6709 	.byte	2
00000a78 0c             6710 	.byte	12
00000a79 000502         6711 	.byte	0,5,2
00000a7c 00000000*      6712 	.word	.LDWlin82
00000a80 03             6713 	.byte	3
00000a81 7e             6714 	.byte	126
00000a82 02             6715 	.byte	2
00000a83 00             6716 	.byte	0
00000a84 01             6717 	.byte	1
00000a85 000502         6718 	.byte	0,5,2
00000a88 00000000*      6719 	.word	.LDWlin83
00000a8c 0d             6720 	.byte	13
00000a8d 0c             6721 	.byte	12
00000a8e 06             6722 	.byte	6
00000a8f 02             6723 	.byte	2
00000a90 04             6724 	.byte	4
00000a91 02             6725 	.byte	2
00000a92 02             6726 	.byte	2
00000a93 000101         6727 	.byte	0,1,1
                        6728 	.section	.debug_info
                        6729 .LDW_4c7c8c8:
00001e09 0f             6730 	.byte	15
00001e0a 756344617461   6731 	.strz	"ucData"
00001e10 00 
00001e11 f903           6732 	.byte	249,3
00001e13 33             6733 	.byte	51
00001e14 01             6734 	.byte	1
00001e15 00000000*      6735 	.word	.LDW_4056b08
00001e19 00             6736 	.byte	0
00001e1a 0156           6737 	.byte	1,86
                        6738 
                        6739 .LDW_4c1a5a8:
00001e1c 1d             6740 	.byte	29
00001e1d 00000000*      6741 	.word	.LDW24
00001e21 00000000*      6742 	.word	.LDW34
                        6743 
                        6744 .LDW_4c7d2c0:
00001e25 04             6745 	.byte	4
00001e26 7563436f756e   6746 	.strz	"ucCounter"
00001e2c 74657200 
00001e30 fb03           6747 	.byte	251,3

                                                                      Page 126
                                                              C:\Users\nhuliyap\AppData\Local\Temp\gh_00006u41.s
00001e32 09             6748 	.byte	9
00001e33 01             6749 	.byte	1
00001e34 00000000*      6750 	.word	.LDW_406b970
00001e38 00             6751 	.byte	0
00001e39 00             6752 	.byte	0
00001e3a 0162           6753 	.byte	1,98
                        6754 
                        6755 .LDW_4c7cef8:
00001e3c 05             6756 	.byte	5
00001e3d 756353697a65   6757 	.strz	"ucSize"
00001e43 00 
00001e44 fc03           6758 	.byte	252,3
00001e46 09             6759 	.byte	9
00001e47 01             6760 	.byte	1
00001e48 00000000*      6761 	.word	.LDW_406b970
00001e4c 00             6762 	.byte	0
00001e4d 00             6763 	.byte	0
                        6764 
00001e4e 00             6765 	.byte	0
                        6766 
00001e4f 00             6767 	.byte	0
                        6768 
                        6769 .LDW_4d0ee88:
00001e50 14             6770 	.byte	20
00001e51 50524f44464c   6771 	.strz	"PRODFLASH_GetRivianEcuPartNumber"
00001e57 4153485f4765 
00001e5d 745269766961 
00001e63 6e4563755061 
00001e69 72744e756d62 
00001e6f 657200 
00001e72 8804           6772 	.byte	136,4
00001e74 07             6773 	.byte	7
00001e75 01             6774 	.byte	1
00001e76 00000000*      6775 	.word	.LDW_406b970
00001e7a 00000000*      6776 	.word	_PRODFLASH_GetRivianEcuPartNumber
00001e7e 00000000*      6777 	.word	___ghs_eofn_PRODFLASH_GetRivianEcuPartNumber
00001e82 0153           6778 	.byte	1,83
00001e84 02             6779 	.byte	2
00001e85 00             6780 	.byte	0
00001e86 02             6781 	.byte	2
00001e87 00             6782 	.byte	0
00001e88 00             6783 	.byte	0
00001e89 00             6784 	.byte	0
00001e8a 00             6785 	.byte	0
00001e8b 01             6786 	.byte	1
00001e8c 01             6787 	.byte	1
00001e8d 00             6788 	.byte	0
00001e8e 01             6789 	.byte	1
                        6790 
                        6791 	.section	.debug_frame
                        6792 .LDW_4c8fb40:
00000230 00000000*      6793 	.word	.LDW_unq_24-.LDW_unq_23
                        6794 .LDW_unq_23:
00000234 00000000*      6795 	.word	.LDW_4cbe898
00000238 00000000*      6796 	.word	_PRODFLASH_GetRivianEcuPartNumber
0000023c 00000000*      6797 	.word	___ghs_eofn_PRODFLASH_GetRivianEcuPartNumber-_PRODFLASH_GetRivianEcuPartNumber
00000240 01             6798 	.byte	1
00000241 00000000*      6799 	.word	.LDW54
00000245 00             6800 	.byte	0
00000246 00             6801 	.byte	0
00000247 00             6802 	.byte	0

                                                                      Page 127
                                                              C:\Users\nhuliyap\AppData\Local\Temp\gh_00006u41.s
                        6803 .LDW_unq_24:
                        6804 	.section	.debug_line
00000a96 000502         6805 	.byte	0,5,2
00000a99 00000000*      6806 	.word	_PRODFLASH_GetRivianEcuPartNumber
00000a9d 06             6807 	.byte	6
00000a9e 03             6808 	.byte	3
00000a9f 8e04           6809 	.byte	142,4
00000aa1 02             6810 	.byte	2
00000aa2 00             6811 	.byte	0
00000aa3 01             6812 	.byte	1
00000aa4 02             6813 	.byte	2
00000aa5 02             6814 	.byte	2
00000aa6 0c             6815 	.byte	12
00000aa7 000502         6816 	.byte	0,5,2
00000aaa 00000000*      6817 	.word	.LDWlin84
00000aae 03             6818 	.byte	3
00000aaf 7e             6819 	.byte	126
00000ab0 02             6820 	.byte	2
00000ab1 00             6821 	.byte	0
00000ab2 01             6822 	.byte	1
00000ab3 000502         6823 	.byte	0,5,2
00000ab6 00000000*      6824 	.word	.LDWlin85
00000aba 0d             6825 	.byte	13
00000abb 0c             6826 	.byte	12
00000abc 06             6827 	.byte	6
00000abd 02             6828 	.byte	2
00000abe 04             6829 	.byte	4
00000abf 02             6830 	.byte	2
00000ac0 02             6831 	.byte	2
00000ac1 000101         6832 	.byte	0,1,1
                        6833 	.section	.debug_info
                        6834 .LDW_4c7ca80:
00001e8f 0f             6835 	.byte	15
00001e90 756344617461   6836 	.strz	"ucData"
00001e96 00 
00001e97 8804           6837 	.byte	136,4
00001e99 2f             6838 	.byte	47
00001e9a 01             6839 	.byte	1
00001e9b 00000000*      6840 	.word	.LDW_4056b08
00001e9f 00             6841 	.byte	0
00001ea0 0156           6842 	.byte	1,86
                        6843 
                        6844 .LDW_4c1a698:
00001ea2 1d             6845 	.byte	29
00001ea3 00000000*      6846 	.word	.LDW44
00001ea7 00000000*      6847 	.word	.LDW54
                        6848 
                        6849 .LDW_4c7c920:
00001eab 04             6850 	.byte	4
00001eac 7563436f756e   6851 	.strz	"ucCounter"
00001eb2 74657200 
00001eb6 8a04           6852 	.byte	138,4
00001eb8 09             6853 	.byte	9
00001eb9 01             6854 	.byte	1
00001eba 00000000*      6855 	.word	.LDW_406b970
00001ebe 00             6856 	.byte	0
00001ebf 00             6857 	.byte	0
00001ec0 0162           6858 	.byte	1,98
                        6859 
                        6860 .LDW_4c7cc38:
00001ec2 05             6861 	.byte	5

                                                                      Page 128
                                                              C:\Users\nhuliyap\AppData\Local\Temp\gh_00006u41.s
00001ec3 756353697a65   6862 	.strz	"ucSize"
00001ec9 00 
00001eca 8b04           6863 	.byte	139,4
00001ecc 09             6864 	.byte	9
00001ecd 01             6865 	.byte	1
00001ece 00000000*      6866 	.word	.LDW_406b970
00001ed2 00             6867 	.byte	0
00001ed3 00             6868 	.byte	0
                        6869 
00001ed4 00             6870 	.byte	0
                        6871 
00001ed5 00             6872 	.byte	0
                        6873 
                        6874 .LDW_4d0ef20:
00001ed6 14             6875 	.byte	20
00001ed7 50524f44464c   6876 	.strz	"PRODFLASH_GetRivianBoardPartNumber"
00001edd 4153485f4765 
00001ee3 745269766961 
00001ee9 6e426f617264 
00001eef 506172744e75 
00001ef5 6d62657200 
00001efa 9704           6877 	.byte	151,4
00001efc 07             6878 	.byte	7
00001efd 01             6879 	.byte	1
00001efe 00000000*      6880 	.word	.LDW_406b970
00001f02 00000000*      6881 	.word	_PRODFLASH_GetRivianBoardPartNumber
00001f06 00000000*      6882 	.word	___ghs_eofn_PRODFLASH_GetRivianBoardPartNumber
00001f0a 0153           6883 	.byte	1,83
00001f0c 02             6884 	.byte	2
00001f0d 00             6885 	.byte	0
00001f0e 02             6886 	.byte	2
00001f0f 00             6887 	.byte	0
00001f10 00             6888 	.byte	0
00001f11 00             6889 	.byte	0
00001f12 00             6890 	.byte	0
00001f13 01             6891 	.byte	1
00001f14 01             6892 	.byte	1
00001f15 00             6893 	.byte	0
00001f16 01             6894 	.byte	1
                        6895 
                        6896 	.section	.debug_frame
                        6897 .LDW_4c8f840:
00000248 00000000*      6898 	.word	.LDW_unq_26-.LDW_unq_25
                        6899 .LDW_unq_25:
0000024c 00000000*      6900 	.word	.LDW_4cbe898
00000250 00000000*      6901 	.word	_PRODFLASH_GetRivianBoardPartNumber
00000254 00000000*      6902 	.word	___ghs_eofn_PRODFLASH_GetRivianBoardPartNumber-_PRODFLASH_GetRivianBoardPartNumber
00000258 01             6903 	.byte	1
00000259 00000000*      6904 	.word	.LDW74
0000025d 00             6905 	.byte	0
0000025e 00             6906 	.byte	0
0000025f 00             6907 	.byte	0
                        6908 .LDW_unq_26:
                        6909 	.section	.debug_line
00000ac4 000502         6910 	.byte	0,5,2
00000ac7 00000000*      6911 	.word	_PRODFLASH_GetRivianBoardPartNumber
00000acb 06             6912 	.byte	6
00000acc 03             6913 	.byte	3
00000acd 9d04           6914 	.byte	157,4
00000acf 02             6915 	.byte	2
00000ad0 00             6916 	.byte	0

                                                                      Page 129
                                                              C:\Users\nhuliyap\AppData\Local\Temp\gh_00006u41.s
00000ad1 01             6917 	.byte	1
00000ad2 02             6918 	.byte	2
00000ad3 02             6919 	.byte	2
00000ad4 0c             6920 	.byte	12
00000ad5 000502         6921 	.byte	0,5,2
00000ad8 00000000*      6922 	.word	.LDWlin86
00000adc 03             6923 	.byte	3
00000add 7e             6924 	.byte	126
00000ade 02             6925 	.byte	2
00000adf 00             6926 	.byte	0
00000ae0 01             6927 	.byte	1
00000ae1 000502         6928 	.byte	0,5,2
00000ae4 00000000*      6929 	.word	.LDWlin87
00000ae8 0d             6930 	.byte	13
00000ae9 0c             6931 	.byte	12
00000aea 06             6932 	.byte	6
00000aeb 02             6933 	.byte	2
00000aec 04             6934 	.byte	4
00000aed 02             6935 	.byte	2
00000aee 02             6936 	.byte	2
00000aef 000101         6937 	.byte	0,1,1
                        6938 	.section	.debug_info
                        6939 .LDW_4c7cd40:
00001f17 0f             6940 	.byte	15
00001f18 756344617461   6941 	.strz	"ucData"
00001f1e 00 
00001f1f 9704           6942 	.byte	151,4
00001f21 31             6943 	.byte	49
00001f22 01             6944 	.byte	1
00001f23 00000000*      6945 	.word	.LDW_4056b08
00001f27 00             6946 	.byte	0
00001f28 0156           6947 	.byte	1,86
                        6948 
                        6949 .LDW_4c1a6f8:
00001f2a 1d             6950 	.byte	29
00001f2b 00000000*      6951 	.word	.LDW64
00001f2f 00000000*      6952 	.word	.LDW74
                        6953 
                        6954 .LDW_4c7c978:
00001f33 04             6955 	.byte	4
00001f34 7563436f756e   6956 	.strz	"ucCounter"
00001f3a 74657200 
00001f3e 9904           6957 	.byte	153,4
00001f40 09             6958 	.byte	9
00001f41 01             6959 	.byte	1
00001f42 00000000*      6960 	.word	.LDW_406b970
00001f46 00             6961 	.byte	0
00001f47 00             6962 	.byte	0
00001f48 0162           6963 	.byte	1,98
                        6964 
                        6965 .LDW_4c7cd98:
00001f4a 05             6966 	.byte	5
00001f4b 756353697a65   6967 	.strz	"ucSize"
00001f51 00 
00001f52 9a04           6968 	.byte	154,4
00001f54 09             6969 	.byte	9
00001f55 01             6970 	.byte	1
00001f56 00000000*      6971 	.word	.LDW_406b970
00001f5a 00             6972 	.byte	0
00001f5b 00             6973 	.byte	0
                        6974 

                                                                      Page 130
                                                              C:\Users\nhuliyap\AppData\Local\Temp\gh_00006u41.s
00001f5c 00             6975 	.byte	0
                        6976 
00001f5d 00             6977 	.byte	0
                        6978 
                        6979 .LDW_4d0f5a8:
00001f5e 14             6980 	.byte	20
00001f5f 50524f44464c   6981 	.strz	"PRODFLASH_GetManufacturingSupportMode"
00001f65 4153485f4765 
00001f6b 744d616e7566 
00001f71 616374757269 
00001f77 6e6753757070 
00001f7d 6f72744d6f64 
00001f83 6500 
00001f85 a604           6982 	.byte	166,4
00001f87 07             6983 	.byte	7
00001f88 01             6984 	.byte	1
00001f89 00000000*      6985 	.word	.LDW_406b970
00001f8d 00000000*      6986 	.word	_PRODFLASH_GetManufacturingSupportMode
00001f91 00000000*      6987 	.word	___ghs_eofn_PRODFLASH_GetManufacturingSupportMode
00001f95 0153           6988 	.byte	1,83
00001f97 02             6989 	.byte	2
00001f98 00             6990 	.byte	0
00001f99 02             6991 	.byte	2
00001f9a 00             6992 	.byte	0
00001f9b 00             6993 	.byte	0
00001f9c 00             6994 	.byte	0
00001f9d 00             6995 	.byte	0
00001f9e 01             6996 	.byte	1
00001f9f 01             6997 	.byte	1
00001fa0 00             6998 	.byte	0
00001fa1 01             6999 	.byte	1
                        7000 
                        7001 	.section	.debug_frame
                        7002 .LDW_4c8fc40:
00000260 00000000*      7003 	.word	.LDW_unq_28-.LDW_unq_27
                        7004 .LDW_unq_27:
00000264 00000000*      7005 	.word	.LDW_4cbe898
00000268 00000000*      7006 	.word	_PRODFLASH_GetManufacturingSupportMode
0000026c 00000000*      7007 	.word	___ghs_eofn_PRODFLASH_GetManufacturingSupportMode-_PRODFLASH_GetManufacturingSupportMode
00000270 01             7008 	.byte	1
00000271 00000000*      7009 	.word	.LDW94
00000275 00             7010 	.byte	0
00000276 00             7011 	.byte	0
00000277 00             7012 	.byte	0
                        7013 .LDW_unq_28:
                        7014 	.section	.debug_line
00000af2 000502         7015 	.byte	0,5,2
00000af5 00000000*      7016 	.word	_PRODFLASH_GetManufacturingSupportMode
00000af9 03             7017 	.byte	3
00000afa a604           7018 	.byte	166,4
00000afc 02             7019 	.byte	2
00000afd 00             7020 	.byte	0
00000afe 01             7021 	.byte	1
00000aff 06             7022 	.byte	6
00000b00 03             7023 	.byte	3
00000b01 06             7024 	.byte	6
00000b02 02             7025 	.byte	2
00000b03 02             7026 	.byte	2
00000b04 01             7027 	.byte	1
00000b05 0c             7028 	.byte	12
00000b06 000502         7029 	.byte	0,5,2

                                                                      Page 131
                                                              C:\Users\nhuliyap\AppData\Local\Temp\gh_00006u41.s
00000b09 00000000*      7030 	.word	.LDWlin88
00000b0d 0b             7031 	.byte	11
00000b0e 0c             7032 	.byte	12
00000b0f 06             7033 	.byte	6
00000b10 02             7034 	.byte	2
00000b11 04             7035 	.byte	4
00000b12 02             7036 	.byte	2
00000b13 02             7037 	.byte	2
00000b14 000101         7038 	.byte	0,1,1
                        7039 	.section	.debug_info
                        7040 .LDW_4c7ca28:
00001fa2 0f             7041 	.byte	15
00001fa3 756344617461   7042 	.strz	"ucData"
00001fa9 00 
00001faa a604           7043 	.byte	166,4
00001fac 34             7044 	.byte	52
00001fad 01             7045 	.byte	1
00001fae 00000000*      7046 	.word	.LDW_4056b08
00001fb2 00             7047 	.byte	0
00001fb3 016e           7048 	.byte	1,110
                        7049 
                        7050 .LDW_4c1a578:
00001fb5 1d             7051 	.byte	29
00001fb6 00000000*      7052 	.word	.LDW84
00001fba 00000000*      7053 	.word	.LDW94
                        7054 
                        7055 .LDW_4c7ce48:
00001fbe 05             7056 	.byte	5
00001fbf 7563436f756e   7057 	.strz	"ucCounter"
00001fc5 74657200 
00001fc9 a804           7058 	.byte	168,4
00001fcb 09             7059 	.byte	9
00001fcc 01             7060 	.byte	1
00001fcd 00000000*      7061 	.word	.LDW_406b970
00001fd1 00             7062 	.byte	0
00001fd2 00             7063 	.byte	0
                        7064 
                        7065 .LDW_4c7cc90:
00001fd3 05             7066 	.byte	5
00001fd4 756353697a65   7067 	.strz	"ucSize"
00001fda 00 
00001fdb a904           7068 	.byte	169,4
00001fdd 09             7069 	.byte	9
00001fde 01             7070 	.byte	1
00001fdf 00000000*      7071 	.word	.LDW_406b970
00001fe3 00             7072 	.byte	0
00001fe4 00             7073 	.byte	0
                        7074 
00001fe5 00             7075 	.byte	0
                        7076 
00001fe6 00             7077 	.byte	0
                        7078 
                        7079 .LDW_4d0f0e8:
00001fe7 14             7080 	.byte	20
00001fe8 50524f44464c   7081 	.strz	"PRODFLASH_GetApplicationSignature"
00001fee 4153485f4765 
00001ff4 744170706c69 
00001ffa 636174696f6e 
00002000 5369676e6174 
00002006 75726500 
0000200a b504           7082 	.byte	181,4

                                                                      Page 132
                                                              C:\Users\nhuliyap\AppData\Local\Temp\gh_00006u41.s
0000200c 07             7083 	.byte	7
0000200d 01             7084 	.byte	1
0000200e 00000000*      7085 	.word	.LDW_406b970
00002012 00000000*      7086 	.word	_PRODFLASH_GetApplicationSignature
00002016 00000000*      7087 	.word	___ghs_eofn_PRODFLASH_GetApplicationSignature
0000201a 0153           7088 	.byte	1,83
0000201c 02             7089 	.byte	2
0000201d 00             7090 	.byte	0
0000201e 02             7091 	.byte	2
0000201f 00             7092 	.byte	0
00002020 00             7093 	.byte	0
00002021 00             7094 	.byte	0
00002022 00             7095 	.byte	0
00002023 01             7096 	.byte	1
00002024 01             7097 	.byte	1
00002025 00             7098 	.byte	0
00002026 01             7099 	.byte	1
                        7100 
                        7101 	.section	.debug_frame
                        7102 .LDW_4c8f680:
00000278 00000000*      7103 	.word	.LDW_unq_2a-.LDW_unq_29
                        7104 .LDW_unq_29:
0000027c 00000000*      7105 	.word	.LDW_4cbe898
00000280 00000000*      7106 	.word	_PRODFLASH_GetApplicationSignature
00000284 00000000*      7107 	.word	___ghs_eofn_PRODFLASH_GetApplicationSignature-_PRODFLASH_GetApplicationSignature
00000288 01             7108 	.byte	1
00000289 00000000*      7109 	.word	.LDW15
0000028d 00             7110 	.byte	0
0000028e 00             7111 	.byte	0
0000028f 00             7112 	.byte	0
                        7113 .LDW_unq_2a:
                        7114 	.section	.debug_line
00000b17 000502         7115 	.byte	0,5,2
00000b1a 00000000*      7116 	.word	_PRODFLASH_GetApplicationSignature
00000b1e 06             7117 	.byte	6
00000b1f 03             7118 	.byte	3
00000b20 bb04           7119 	.byte	187,4
00000b22 02             7120 	.byte	2
00000b23 00             7121 	.byte	0
00000b24 01             7122 	.byte	1
00000b25 02             7123 	.byte	2
00000b26 02             7124 	.byte	2
00000b27 0c             7125 	.byte	12
00000b28 000502         7126 	.byte	0,5,2
00000b2b 00000000*      7127 	.word	.LDWlin89
00000b2f 03             7128 	.byte	3
00000b30 7e             7129 	.byte	126
00000b31 02             7130 	.byte	2
00000b32 00             7131 	.byte	0
00000b33 01             7132 	.byte	1
00000b34 000502         7133 	.byte	0,5,2
00000b37 00000000*      7134 	.word	.LDWlin90
00000b3b 0d             7135 	.byte	13
00000b3c 0c             7136 	.byte	12
00000b3d 06             7137 	.byte	6
00000b3e 02             7138 	.byte	2
00000b3f 04             7139 	.byte	4
00000b40 02             7140 	.byte	2
00000b41 02             7141 	.byte	2
00000b42 000101         7142 	.byte	0,1,1
                        7143 	.section	.debug_info

                                                                      Page 133
                                                              C:\Users\nhuliyap\AppData\Local\Temp\gh_00006u41.s
                        7144 .LDW_4c7cb30:
00002027 0f             7145 	.byte	15
00002028 756344617461   7146 	.strz	"ucData"
0000202e 00 
0000202f b504           7147 	.byte	181,4
00002031 30             7148 	.byte	48
00002032 01             7149 	.byte	1
00002033 00000000*      7150 	.word	.LDW_4056b08
00002037 00             7151 	.byte	0
00002038 0156           7152 	.byte	1,86
                        7153 
                        7154 .LDW_4c1a638:
0000203a 1d             7155 	.byte	29
0000203b 00000000*      7156 	.word	.LDW05
0000203f 00000000*      7157 	.word	.LDW15
                        7158 
                        7159 .LDW_4c7cb88:
00002043 04             7160 	.byte	4
00002044 7563436f756e   7161 	.strz	"ucCounter"
0000204a 74657200 
0000204e b704           7162 	.byte	183,4
00002050 09             7163 	.byte	9
00002051 01             7164 	.byte	1
00002052 00000000*      7165 	.word	.LDW_406b970
00002056 00             7166 	.byte	0
00002057 00             7167 	.byte	0
00002058 0162           7168 	.byte	1,98
                        7169 
                        7170 .LDW_4c7cea0:
0000205a 05             7171 	.byte	5
0000205b 756353697a65   7172 	.strz	"ucSize"
00002061 00 
00002062 b804           7173 	.byte	184,4
00002064 09             7174 	.byte	9
00002065 01             7175 	.byte	1
00002066 00000000*      7176 	.word	.LDW_406b970
0000206a 00             7177 	.byte	0
0000206b 00             7178 	.byte	0
                        7179 
0000206c 00             7180 	.byte	0
                        7181 
0000206d 00             7182 	.byte	0
                        7183 
                        7184 .LDW_4d0e930:
0000206e 14             7185 	.byte	20
0000206f 50524f44464c   7186 	.strz	"PRODFLASH_GetGenealogyCrc32"
00002075 4153485f4765 
0000207b 7447656e6561 
00002081 6c6f67794372 
00002087 63333200 
0000208b c404           7187 	.byte	196,4
0000208d 07             7188 	.byte	7
0000208e 01             7189 	.byte	1
0000208f 00000000*      7190 	.word	.LDW_406b970
00002093 00000000*      7191 	.word	_PRODFLASH_GetGenealogyCrc32
00002097 00000000*      7192 	.word	___ghs_eofn_PRODFLASH_GetGenealogyCrc32
0000209b 0153           7193 	.byte	1,83
0000209d 02             7194 	.byte	2
0000209e 00             7195 	.byte	0
0000209f 02             7196 	.byte	2
000020a0 00             7197 	.byte	0

                                                                      Page 134
                                                              C:\Users\nhuliyap\AppData\Local\Temp\gh_00006u41.s
000020a1 00             7198 	.byte	0
000020a2 00             7199 	.byte	0
000020a3 00             7200 	.byte	0
000020a4 01             7201 	.byte	1
000020a5 01             7202 	.byte	1
000020a6 00             7203 	.byte	0
000020a7 01             7204 	.byte	1
                        7205 
                        7206 	.section	.debug_frame
                        7207 .LDW_4dde938:
00000290 00000000*      7208 	.word	.LDW_unq_2c-.LDW_unq_2b
                        7209 .LDW_unq_2b:
00000294 00000000*      7210 	.word	.LDW_4cbe898
00000298 00000000*      7211 	.word	_PRODFLASH_GetGenealogyCrc32
0000029c 00000000*      7212 	.word	___ghs_eofn_PRODFLASH_GetGenealogyCrc32-_PRODFLASH_GetGenealogyCrc32
000002a0 01             7213 	.byte	1
000002a1 00000000*      7214 	.word	.LDW35
000002a5 00             7215 	.byte	0
000002a6 00             7216 	.byte	0
000002a7 00             7217 	.byte	0
                        7218 .LDW_unq_2c:
                        7219 	.section	.debug_line
00000b45 000502         7220 	.byte	0,5,2
00000b48 00000000*      7221 	.word	_PRODFLASH_GetGenealogyCrc32
00000b4c 06             7222 	.byte	6
00000b4d 03             7223 	.byte	3
00000b4e ca04           7224 	.byte	202,4
00000b50 02             7225 	.byte	2
00000b51 00             7226 	.byte	0
00000b52 01             7227 	.byte	1
00000b53 02             7228 	.byte	2
00000b54 02             7229 	.byte	2
00000b55 0c             7230 	.byte	12
00000b56 000502         7231 	.byte	0,5,2
00000b59 00000000*      7232 	.word	.LDWlin91
00000b5d 03             7233 	.byte	3
00000b5e 7e             7234 	.byte	126
00000b5f 02             7235 	.byte	2
00000b60 00             7236 	.byte	0
00000b61 01             7237 	.byte	1
00000b62 000502         7238 	.byte	0,5,2
00000b65 00000000*      7239 	.word	.LDWlin92
00000b69 0d             7240 	.byte	13
00000b6a 0c             7241 	.byte	12
00000b6b 06             7242 	.byte	6
00000b6c 02             7243 	.byte	2
00000b6d 02             7244 	.byte	2
00000b6e 02             7245 	.byte	2
00000b6f 02             7246 	.byte	2
00000b70 000101         7247 	.byte	0,1,1
                        7248 	.section	.debug_info
                        7249 .LDW_4c7d0b0:
000020a8 0f             7250 	.byte	15
000020a9 756344617461   7251 	.strz	"ucData"
000020af 00 
000020b0 c404           7252 	.byte	196,4
000020b2 2a             7253 	.byte	42
000020b3 01             7254 	.byte	1
000020b4 00000000*      7255 	.word	.LDW_4056b08
000020b8 00             7256 	.byte	0
000020b9 0156           7257 	.byte	1,86

                                                                      Page 135
                                                              C:\Users\nhuliyap\AppData\Local\Temp\gh_00006u41.s
                        7258 
                        7259 .LDW_4c1a4b8:
000020bb 1d             7260 	.byte	29
000020bc 00000000*      7261 	.word	.LDW25
000020c0 00000000*      7262 	.word	.LDW35
                        7263 
                        7264 .LDW_4c7cf50:
000020c4 04             7265 	.byte	4
000020c5 7563436f756e   7266 	.strz	"ucCounter"
000020cb 74657200 
000020cf c604           7267 	.byte	198,4
000020d1 09             7268 	.byte	9
000020d2 01             7269 	.byte	1
000020d3 00000000*      7270 	.word	.LDW_406b970
000020d7 00             7271 	.byte	0
000020d8 00             7272 	.byte	0
000020d9 0162           7273 	.byte	1,98
                        7274 
                        7275 .LDW_4c7cce8:
000020db 05             7276 	.byte	5
000020dc 756353697a65   7277 	.strz	"ucSize"
000020e2 00 
000020e3 c704           7278 	.byte	199,4
000020e5 09             7279 	.byte	9
000020e6 01             7280 	.byte	1
000020e7 00000000*      7281 	.word	.LDW_406b970
000020eb 00             7282 	.byte	0
000020ec 00             7283 	.byte	0
                        7284 
000020ed 00             7285 	.byte	0
                        7286 
000020ee 00             7287 	.byte	0
                        7288 
                        7289 .LDW_4d0f180:
000020ef 14             7290 	.byte	20
000020f0 50524f44464c   7291 	.strz	"PRODFLASH_GetGenealogyVersion"
000020f6 4153485f4765 
000020fc 7447656e6561 
00002102 6c6f67795665 
00002108 7273696f6e00 
0000210e d304           7292 	.byte	211,4
00002110 07             7293 	.byte	7
00002111 01             7294 	.byte	1
00002112 00000000*      7295 	.word	.LDW_406b970
00002116 00000000*      7296 	.word	_PRODFLASH_GetGenealogyVersion
0000211a 00000000*      7297 	.word	___ghs_eofn_PRODFLASH_GetGenealogyVersion
0000211e 0153           7298 	.byte	1,83
00002120 02             7299 	.byte	2
00002121 00             7300 	.byte	0
00002122 02             7301 	.byte	2
00002123 00             7302 	.byte	0
00002124 00             7303 	.byte	0
00002125 00             7304 	.byte	0
00002126 00             7305 	.byte	0
00002127 01             7306 	.byte	1
00002128 01             7307 	.byte	1
00002129 00             7308 	.byte	0
0000212a 01             7309 	.byte	1
                        7310 
                        7311 	.section	.debug_frame
                        7312 .LDW_4dde6b8:

                                                                      Page 136
                                                              C:\Users\nhuliyap\AppData\Local\Temp\gh_00006u41.s
000002a8 00000000*      7313 	.word	.LDW_unq_2e-.LDW_unq_2d
                        7314 .LDW_unq_2d:
000002ac 00000000*      7315 	.word	.LDW_4cbe898
000002b0 00000000*      7316 	.word	_PRODFLASH_GetGenealogyVersion
000002b4 00000000*      7317 	.word	___ghs_eofn_PRODFLASH_GetGenealogyVersion-_PRODFLASH_GetGenealogyVersion
000002b8 01             7318 	.byte	1
000002b9 00000000*      7319 	.word	.LDW55
000002bd 00             7320 	.byte	0
000002be 00             7321 	.byte	0
000002bf 00             7322 	.byte	0
                        7323 .LDW_unq_2e:
                        7324 	.section	.debug_line
00000b73 000502         7325 	.byte	0,5,2
00000b76 00000000*      7326 	.word	_PRODFLASH_GetGenealogyVersion
00000b7a 03             7327 	.byte	3
00000b7b d304           7328 	.byte	211,4
00000b7d 02             7329 	.byte	2
00000b7e 00             7330 	.byte	0
00000b7f 01             7331 	.byte	1
00000b80 06             7332 	.byte	6
00000b81 03             7333 	.byte	3
00000b82 06             7334 	.byte	6
00000b83 02             7335 	.byte	2
00000b84 02             7336 	.byte	2
00000b85 01             7337 	.byte	1
00000b86 0c             7338 	.byte	12
00000b87 000502         7339 	.byte	0,5,2
00000b8a 00000000*      7340 	.word	.LDWlin93
00000b8e 0b             7341 	.byte	11
00000b8f 0c             7342 	.byte	12
00000b90 06             7343 	.byte	6
00000b91 02             7344 	.byte	2
00000b92 04             7345 	.byte	4
00000b93 02             7346 	.byte	2
00000b94 02             7347 	.byte	2
00000b95 000101         7348 	.byte	0,1,1
                        7349 	.section	.debug_info
                        7350 .LDW_4c7cbe0:
0000212b 0f             7351 	.byte	15
0000212c 756344617461   7352 	.strz	"ucData"
00002132 00 
00002133 d304           7353 	.byte	211,4
00002135 2c             7354 	.byte	44
00002136 01             7355 	.byte	1
00002137 00000000*      7356 	.word	.LDW_4056b08
0000213b 00             7357 	.byte	0
0000213c 016e           7358 	.byte	1,110
                        7359 
                        7360 .LDW_4c1a518:
0000213e 1d             7361 	.byte	29
0000213f 00000000*      7362 	.word	.LDW45
00002143 00000000*      7363 	.word	.LDW55
                        7364 
                        7365 .LDW_4c7d160:
00002147 05             7366 	.byte	5
00002148 7563436f756e   7367 	.strz	"ucCounter"
0000214e 74657200 
00002152 d504           7368 	.byte	213,4
00002154 09             7369 	.byte	9
00002155 01             7370 	.byte	1
00002156 00000000*      7371 	.word	.LDW_406b970

                                                                      Page 137
                                                              C:\Users\nhuliyap\AppData\Local\Temp\gh_00006u41.s
0000215a 00             7372 	.byte	0
0000215b 00             7373 	.byte	0
                        7374 
                        7375 .LDW_4c7cfa8:
0000215c 05             7376 	.byte	5
0000215d 756353697a65   7377 	.strz	"ucSize"
00002163 00 
00002164 d604           7378 	.byte	214,4
00002166 09             7379 	.byte	9
00002167 01             7380 	.byte	1
00002168 00000000*      7381 	.word	.LDW_406b970
0000216c 00             7382 	.byte	0
0000216d 00             7383 	.byte	0
                        7384 
0000216e 00             7385 	.byte	0
                        7386 
0000216f 00             7387 	.byte	0
                        7388 
                        7389 .LDW_4d0f6d8:
00002170 14             7390 	.byte	20
00002171 50524f44464c   7391 	.strz	"PRODFLASH_GetPcbaId"
00002177 4153485f4765 
0000217d 745063626149 
00002183 6400 
00002185 e204           7392 	.byte	226,4
00002187 07             7393 	.byte	7
00002188 01             7394 	.byte	1
00002189 00000000*      7395 	.word	.LDW_406b970
0000218d 00000000*      7396 	.word	_PRODFLASH_GetPcbaId
00002191 00000000*      7397 	.word	___ghs_eofn_PRODFLASH_GetPcbaId
00002195 0153           7398 	.byte	1,83
00002197 02             7399 	.byte	2
00002198 00             7400 	.byte	0
00002199 02             7401 	.byte	2
0000219a 00             7402 	.byte	0
0000219b 00             7403 	.byte	0
0000219c 00             7404 	.byte	0
0000219d 00             7405 	.byte	0
0000219e 01             7406 	.byte	1
0000219f 01             7407 	.byte	1
000021a0 00             7408 	.byte	0
000021a1 01             7409 	.byte	1
                        7410 
                        7411 	.section	.debug_frame
                        7412 .LDW_4dde978:
000002c0 00000000*      7413 	.word	.LDW_unq_30-.LDW_unq_2f
                        7414 .LDW_unq_2f:
000002c4 00000000*      7415 	.word	.LDW_4cbe898
000002c8 00000000*      7416 	.word	_PRODFLASH_GetPcbaId
000002cc 00000000*      7417 	.word	___ghs_eofn_PRODFLASH_GetPcbaId-_PRODFLASH_GetPcbaId
000002d0 01             7418 	.byte	1
000002d1 00000000*      7419 	.word	.LDW75
000002d5 00             7420 	.byte	0
000002d6 00             7421 	.byte	0
000002d7 00             7422 	.byte	0
                        7423 .LDW_unq_30:
                        7424 	.section	.debug_line
00000b98 000502         7425 	.byte	0,5,2
00000b9b 00000000*      7426 	.word	_PRODFLASH_GetPcbaId
00000b9f 03             7427 	.byte	3
00000ba0 e204           7428 	.byte	226,4

                                                                      Page 138
                                                              C:\Users\nhuliyap\AppData\Local\Temp\gh_00006u41.s
00000ba2 02             7429 	.byte	2
00000ba3 00             7430 	.byte	0
00000ba4 01             7431 	.byte	1
00000ba5 06             7432 	.byte	6
00000ba6 03             7433 	.byte	3
00000ba7 06             7434 	.byte	6
00000ba8 02             7435 	.byte	2
00000ba9 02             7436 	.byte	2
00000baa 01             7437 	.byte	1
00000bab 0c             7438 	.byte	12
00000bac 000502         7439 	.byte	0,5,2
00000baf 00000000*      7440 	.word	.LDWlin94
00000bb3 0b             7441 	.byte	11
00000bb4 0c             7442 	.byte	12
00000bb5 06             7443 	.byte	6
00000bb6 02             7444 	.byte	2
00000bb7 04             7445 	.byte	4
00000bb8 02             7446 	.byte	2
00000bb9 02             7447 	.byte	2
00000bba 000101         7448 	.byte	0,1,1
                        7449 	.section	.debug_info
                        7450 .LDW_4c7d000:
000021a2 0f             7451 	.byte	15
000021a3 756344617461   7452 	.strz	"ucData"
000021a9 00 
000021aa e204           7453 	.byte	226,4
000021ac 22             7454 	.byte	34
000021ad 01             7455 	.byte	1
000021ae 00000000*      7456 	.word	.LDW_4056b08
000021b2 00             7457 	.byte	0
000021b3 016e           7458 	.byte	1,110
                        7459 
                        7460 .LDW_4c1a908:
000021b5 1d             7461 	.byte	29
000021b6 00000000*      7462 	.word	.LDW65
000021ba 00000000*      7463 	.word	.LDW75
                        7464 
                        7465 .LDW_4c7d1b8:
000021be 05             7466 	.byte	5
000021bf 7563436f756e   7467 	.strz	"ucCounter"
000021c5 74657200 
000021c9 e404           7468 	.byte	228,4
000021cb 09             7469 	.byte	9
000021cc 01             7470 	.byte	1
000021cd 00000000*      7471 	.word	.LDW_406b970
000021d1 00             7472 	.byte	0
000021d2 00             7473 	.byte	0
                        7474 
                        7475 .LDW_4d10eb0:
000021d3 05             7476 	.byte	5
000021d4 756353697a65   7477 	.strz	"ucSize"
000021da 00 
000021db e504           7478 	.byte	229,4
000021dd 09             7479 	.byte	9
000021de 01             7480 	.byte	1
000021df 00000000*      7481 	.word	.LDW_406b970
000021e3 00             7482 	.byte	0
000021e4 00             7483 	.byte	0
                        7484 
000021e5 00             7485 	.byte	0
                        7486 

                                                                      Page 139
                                                              C:\Users\nhuliyap\AppData\Local\Temp\gh_00006u41.s
000021e6 00             7487 	.byte	0
                        7488 
                        7489 .LDW_4d0e9c8:
000021e7 14             7490 	.byte	20
000021e8 50524f44464c   7491 	.strz	"PRODFLASH_GetAuxId"
000021ee 4153485f4765 
000021f4 744175784964 
000021fa 00 
000021fb f104           7492 	.byte	241,4
000021fd 07             7493 	.byte	7
000021fe 01             7494 	.byte	1
000021ff 00000000*      7495 	.word	.LDW_406b970
00002203 00000000*      7496 	.word	_PRODFLASH_GetAuxId
00002207 00000000*      7497 	.word	___ghs_eofn_PRODFLASH_GetAuxId
0000220b 0153           7498 	.byte	1,83
0000220d 02             7499 	.byte	2
0000220e 00             7500 	.byte	0
0000220f 02             7501 	.byte	2
00002210 00             7502 	.byte	0
00002211 00             7503 	.byte	0
00002212 00             7504 	.byte	0
00002213 00             7505 	.byte	0
00002214 01             7506 	.byte	1
00002215 01             7507 	.byte	1
00002216 00             7508 	.byte	0
00002217 01             7509 	.byte	1
                        7510 
                        7511 	.section	.debug_frame
                        7512 .LDW_4dded38:
000002d8 00000000*      7513 	.word	.LDW_unq_32-.LDW_unq_31
                        7514 .LDW_unq_31:
000002dc 00000000*      7515 	.word	.LDW_4cbe898
000002e0 00000000*      7516 	.word	_PRODFLASH_GetAuxId
000002e4 00000000*      7517 	.word	___ghs_eofn_PRODFLASH_GetAuxId-_PRODFLASH_GetAuxId
000002e8 01             7518 	.byte	1
000002e9 00000000*      7519 	.word	.LDW95
000002ed 00             7520 	.byte	0
000002ee 00             7521 	.byte	0
000002ef 00             7522 	.byte	0
                        7523 .LDW_unq_32:
                        7524 	.section	.debug_line
00000bbd 000502         7525 	.byte	0,5,2
00000bc0 00000000*      7526 	.word	_PRODFLASH_GetAuxId
00000bc4 03             7527 	.byte	3
00000bc5 f104           7528 	.byte	241,4
00000bc7 02             7529 	.byte	2
00000bc8 00             7530 	.byte	0
00000bc9 01             7531 	.byte	1
00000bca 06             7532 	.byte	6
00000bcb 03             7533 	.byte	3
00000bcc 06             7534 	.byte	6
00000bcd 02             7535 	.byte	2
00000bce 02             7536 	.byte	2
00000bcf 01             7537 	.byte	1
00000bd0 0c             7538 	.byte	12
00000bd1 000502         7539 	.byte	0,5,2
00000bd4 00000000*      7540 	.word	.LDWlin95
00000bd8 0b             7541 	.byte	11
00000bd9 0c             7542 	.byte	12
00000bda 06             7543 	.byte	6
00000bdb 02             7544 	.byte	2

                                                                      Page 140
                                                              C:\Users\nhuliyap\AppData\Local\Temp\gh_00006u41.s
00000bdc 04             7545 	.byte	4
00000bdd 02             7546 	.byte	2
00000bde 02             7547 	.byte	2
00000bdf 000101         7548 	.byte	0,1,1
                        7549 	.section	.debug_info
                        7550 .LDW_4d10da8:
00002218 0f             7551 	.byte	15
00002219 756344617461   7552 	.strz	"ucData"
0000221f 00 
00002220 f104           7553 	.byte	241,4
00002222 21             7554 	.byte	33
00002223 01             7555 	.byte	1
00002224 00000000*      7556 	.word	.LDW_4056b08
00002228 00             7557 	.byte	0
00002229 016e           7558 	.byte	1,110
                        7559 
                        7560 .LDW_4d116c0:
0000222b 1d             7561 	.byte	29
0000222c 00000000*      7562 	.word	.LDW85
00002230 00000000*      7563 	.word	.LDW95
                        7564 
                        7565 .LDW_4d10cf8:
00002234 05             7566 	.byte	5
00002235 7563436f756e   7567 	.strz	"ucCounter"
0000223b 74657200 
0000223f f304           7568 	.byte	243,4
00002241 09             7569 	.byte	9
00002242 01             7570 	.byte	1
00002243 00000000*      7571 	.word	.LDW_406b970
00002247 00             7572 	.byte	0
00002248 00             7573 	.byte	0
                        7574 
                        7575 .LDW_4d11010:
00002249 05             7576 	.byte	5
0000224a 756353697a65   7577 	.strz	"ucSize"
00002250 00 
00002251 f404           7578 	.byte	244,4
00002253 09             7579 	.byte	9
00002254 01             7580 	.byte	1
00002255 00000000*      7581 	.word	.LDW_406b970
00002259 00             7582 	.byte	0
0000225a 00             7583 	.byte	0
                        7584 
0000225b 00             7585 	.byte	0
                        7586 
0000225c 00             7587 	.byte	0
                        7588 
                        7589 .LDW_4d0ea60:
0000225d 14             7590 	.byte	20
0000225e 50524f44464c   7591 	.strz	"PRODFLASH_GetComponentId"
00002264 4153485f4765 
0000226a 74436f6d706f 
00002270 6e656e744964 
00002276 00 
00002277 8005           7592 	.byte	128,5
00002279 07             7593 	.byte	7
0000227a 01             7594 	.byte	1
0000227b 00000000*      7595 	.word	.LDW_406b970
0000227f 00000000*      7596 	.word	_PRODFLASH_GetComponentId
00002283 00000000*      7597 	.word	___ghs_eofn_PRODFLASH_GetComponentId
00002287 0153           7598 	.byte	1,83

                                                                      Page 141
                                                              C:\Users\nhuliyap\AppData\Local\Temp\gh_00006u41.s
00002289 02             7599 	.byte	2
0000228a 00             7600 	.byte	0
0000228b 02             7601 	.byte	2
0000228c 00             7602 	.byte	0
0000228d 00             7603 	.byte	0
0000228e 00             7604 	.byte	0
0000228f 00             7605 	.byte	0
00002290 01             7606 	.byte	1
00002291 01             7607 	.byte	1
00002292 00             7608 	.byte	0
00002293 01             7609 	.byte	1
                        7610 
                        7611 	.section	.debug_frame
                        7612 .LDW_4dde6f8:
000002f0 00000000*      7613 	.word	.LDW_unq_34-.LDW_unq_33
                        7614 .LDW_unq_33:
000002f4 00000000*      7615 	.word	.LDW_4cbe898
000002f8 00000000*      7616 	.word	_PRODFLASH_GetComponentId
000002fc 00000000*      7617 	.word	___ghs_eofn_PRODFLASH_GetComponentId-_PRODFLASH_GetComponentId
00000300 01             7618 	.byte	1
00000301 00000000*      7619 	.word	.LDW16
00000305 00             7620 	.byte	0
00000306 00             7621 	.byte	0
00000307 00             7622 	.byte	0
                        7623 .LDW_unq_34:
                        7624 	.section	.debug_line
00000be2 000502         7625 	.byte	0,5,2
00000be5 00000000*      7626 	.word	_PRODFLASH_GetComponentId
00000be9 06             7627 	.byte	6
00000bea 03             7628 	.byte	3
00000beb 8605           7629 	.byte	134,5
00000bed 02             7630 	.byte	2
00000bee 00             7631 	.byte	0
00000bef 01             7632 	.byte	1
00000bf0 02             7633 	.byte	2
00000bf1 02             7634 	.byte	2
00000bf2 0c             7635 	.byte	12
00000bf3 000502         7636 	.byte	0,5,2
00000bf6 00000000*      7637 	.word	.LDWlin96
00000bfa 03             7638 	.byte	3
00000bfb 7e             7639 	.byte	126
00000bfc 02             7640 	.byte	2
00000bfd 00             7641 	.byte	0
00000bfe 01             7642 	.byte	1
00000bff 000502         7643 	.byte	0,5,2
00000c02 00000000*      7644 	.word	.LDWlin97
00000c06 0d             7645 	.byte	13
00000c07 0c             7646 	.byte	12
00000c08 06             7647 	.byte	6
00000c09 02             7648 	.byte	2
00000c0a 02             7649 	.byte	2
00000c0b 02             7650 	.byte	2
00000c0c 02             7651 	.byte	2
00000c0d 000101         7652 	.byte	0,1,1
                        7653 	.section	.debug_info
                        7654 .LDW_4d11068:
00002294 0f             7655 	.byte	15
00002295 756344617461   7656 	.strz	"ucData"
0000229b 00 
0000229c 8005           7657 	.byte	128,5
0000229e 27             7658 	.byte	39

                                                                      Page 142
                                                              C:\Users\nhuliyap\AppData\Local\Temp\gh_00006u41.s
0000229f 01             7659 	.byte	1
000022a0 00000000*      7660 	.word	.LDW_4056b08
000022a4 00             7661 	.byte	0
000022a5 0156           7662 	.byte	1,86
                        7663 
                        7664 .LDW_4d11690:
000022a7 1d             7665 	.byte	29
000022a8 00000000*      7666 	.word	.LDW06
000022ac 00000000*      7667 	.word	.LDW16
                        7668 
                        7669 .LDW_4d10e00:
000022b0 04             7670 	.byte	4
000022b1 7563436f756e   7671 	.strz	"ucCounter"
000022b7 74657200 
000022bb 8205           7672 	.byte	130,5
000022bd 09             7673 	.byte	9
000022be 01             7674 	.byte	1
000022bf 00000000*      7675 	.word	.LDW_406b970
000022c3 00             7676 	.byte	0
000022c4 00             7677 	.byte	0
000022c5 0162           7678 	.byte	1,98
                        7679 
                        7680 .LDW_4d10e58:
000022c7 05             7681 	.byte	5
000022c8 756353697a65   7682 	.strz	"ucSize"
000022ce 00 
000022cf 8305           7683 	.byte	131,5
000022d1 09             7684 	.byte	9
000022d2 01             7685 	.byte	1
000022d3 00000000*      7686 	.word	.LDW_406b970
000022d7 00             7687 	.byte	0
000022d8 00             7688 	.byte	0
                        7689 
000022d9 00             7690 	.byte	0
                        7691 
000022da 00             7692 	.byte	0
                        7693 
                        7694 .LDW_4d0efb8:
000022db 14             7695 	.byte	20
000022dc 50524f44464c   7696 	.strz	"PRODFLASH_GetModeId"
000022e2 4153485f4765 
000022e8 744d6f646549 
000022ee 6400 
000022f0 8f05           7697 	.byte	143,5
000022f2 07             7698 	.byte	7
000022f3 01             7699 	.byte	1
000022f4 00000000*      7700 	.word	.LDW_406b970
000022f8 00000000*      7701 	.word	_PRODFLASH_GetModeId
000022fc 00000000*      7702 	.word	___ghs_eofn_PRODFLASH_GetModeId
00002300 0153           7703 	.byte	1,83
00002302 02             7704 	.byte	2
00002303 00             7705 	.byte	0
00002304 02             7706 	.byte	2
00002305 00             7707 	.byte	0
00002306 00             7708 	.byte	0
00002307 00             7709 	.byte	0
00002308 00             7710 	.byte	0
00002309 01             7711 	.byte	1
0000230a 01             7712 	.byte	1
0000230b 00             7713 	.byte	0
0000230c 01             7714 	.byte	1

                                                                      Page 143
                                                              C:\Users\nhuliyap\AppData\Local\Temp\gh_00006u41.s
                        7715 
                        7716 	.section	.debug_frame
                        7717 .LDW_4dde7b8:
00000308 00000000*      7718 	.word	.LDW_unq_36-.LDW_unq_35
                        7719 .LDW_unq_35:
0000030c 00000000*      7720 	.word	.LDW_4cbe898
00000310 00000000*      7721 	.word	_PRODFLASH_GetModeId
00000314 00000000*      7722 	.word	___ghs_eofn_PRODFLASH_GetModeId-_PRODFLASH_GetModeId
00000318 01             7723 	.byte	1
00000319 00000000*      7724 	.word	.LDW36
0000031d 00             7725 	.byte	0
0000031e 00             7726 	.byte	0
0000031f 00             7727 	.byte	0
                        7728 .LDW_unq_36:
                        7729 	.section	.debug_line
00000c10 000502         7730 	.byte	0,5,2
00000c13 00000000*      7731 	.word	_PRODFLASH_GetModeId
00000c17 06             7732 	.byte	6
00000c18 03             7733 	.byte	3
00000c19 9505           7734 	.byte	149,5
00000c1b 02             7735 	.byte	2
00000c1c 00             7736 	.byte	0
00000c1d 01             7737 	.byte	1
00000c1e 02             7738 	.byte	2
00000c1f 02             7739 	.byte	2
00000c20 0c             7740 	.byte	12
00000c21 000502         7741 	.byte	0,5,2
00000c24 00000000*      7742 	.word	.LDWlin98
00000c28 03             7743 	.byte	3
00000c29 7e             7744 	.byte	126
00000c2a 02             7745 	.byte	2
00000c2b 00             7746 	.byte	0
00000c2c 01             7747 	.byte	1
00000c2d 000502         7748 	.byte	0,5,2
00000c30 00000000*      7749 	.word	.LDWlin99
00000c34 0d             7750 	.byte	13
00000c35 0c             7751 	.byte	12
00000c36 06             7752 	.byte	6
00000c37 02             7753 	.byte	2
00000c38 02             7754 	.byte	2
00000c39 02             7755 	.byte	2
00000c3a 02             7756 	.byte	2
00000c3b 000101         7757 	.byte	0,1,1
                        7758 	.section	.debug_info
                        7759 .LDW_4d10f08:
0000230d 0f             7760 	.byte	15
0000230e 756344617461   7761 	.strz	"ucData"
00002314 00 
00002315 8f05           7762 	.byte	143,5
00002317 22             7763 	.byte	34
00002318 01             7764 	.byte	1
00002319 00000000*      7765 	.word	.LDW_4056b08
0000231d 00             7766 	.byte	0
0000231e 0156           7767 	.byte	1,86
                        7768 
                        7769 .LDW_4d112d0:
00002320 1d             7770 	.byte	29
00002321 00000000*      7771 	.word	.LDW26
00002325 00000000*      7772 	.word	.LDW36
                        7773 
                        7774 .LDW_4d110c0:

                                                                      Page 144
                                                              C:\Users\nhuliyap\AppData\Local\Temp\gh_00006u41.s
00002329 04             7775 	.byte	4
0000232a 7563436f756e   7776 	.strz	"ucCounter"
00002330 74657200 
00002334 9105           7777 	.byte	145,5
00002336 09             7778 	.byte	9
00002337 01             7779 	.byte	1
00002338 00000000*      7780 	.word	.LDW_406b970
0000233c 00             7781 	.byte	0
0000233d 00             7782 	.byte	0
0000233e 0162           7783 	.byte	1,98
                        7784 
                        7785 .LDW_4d10f60:
00002340 05             7786 	.byte	5
00002341 756353697a65   7787 	.strz	"ucSize"
00002347 00 
00002348 9205           7788 	.byte	146,5
0000234a 09             7789 	.byte	9
0000234b 01             7790 	.byte	1
0000234c 00000000*      7791 	.word	.LDW_406b970
00002350 00             7792 	.byte	0
00002351 00             7793 	.byte	0
                        7794 
00002352 00             7795 	.byte	0
                        7796 
00002353 00             7797 	.byte	0
                        7798 
                        7799 .LDW_4d0f2b0:
00002354 14             7800 	.byte	20
00002355 50524f44464c   7801 	.strz	"PRODFLASH_GetEolCheckerByte"
0000235b 4153485f4765 
00002361 74456f6c4368 
00002367 65636b657242 
0000236d 79746500 
00002371 9e05           7802 	.byte	158,5
00002373 07             7803 	.byte	7
00002374 01             7804 	.byte	1
00002375 00000000*      7805 	.word	.LDW_406b970
00002379 00000000*      7806 	.word	_PRODFLASH_GetEolCheckerByte
0000237d 00000000*      7807 	.word	___ghs_eofn_PRODFLASH_GetEolCheckerByte
00002381 0153           7808 	.byte	1,83
00002383 02             7809 	.byte	2
00002384 00             7810 	.byte	0
00002385 02             7811 	.byte	2
00002386 00             7812 	.byte	0
00002387 00             7813 	.byte	0
00002388 00             7814 	.byte	0
00002389 00             7815 	.byte	0
0000238a 01             7816 	.byte	1
0000238b 01             7817 	.byte	1
0000238c 00             7818 	.byte	0
0000238d 01             7819 	.byte	1
                        7820 
                        7821 	.section	.debug_frame
                        7822 .LDW_4dde8b8:
00000320 00000000*      7823 	.word	.LDW_unq_38-.LDW_unq_37
                        7824 .LDW_unq_37:
00000324 00000000*      7825 	.word	.LDW_4cbe898
00000328 00000000*      7826 	.word	_PRODFLASH_GetEolCheckerByte
0000032c 00000000*      7827 	.word	___ghs_eofn_PRODFLASH_GetEolCheckerByte-_PRODFLASH_GetEolCheckerByte
00000330 01             7828 	.byte	1
00000331 00000000*      7829 	.word	.LDW56

                                                                      Page 145
                                                              C:\Users\nhuliyap\AppData\Local\Temp\gh_00006u41.s
00000335 00             7830 	.byte	0
00000336 00             7831 	.byte	0
00000337 00             7832 	.byte	0
                        7833 .LDW_unq_38:
                        7834 	.section	.debug_line
00000c3e 000502         7835 	.byte	0,5,2
00000c41 00000000*      7836 	.word	_PRODFLASH_GetEolCheckerByte
00000c45 03             7837 	.byte	3
00000c46 9e05           7838 	.byte	158,5
00000c48 02             7839 	.byte	2
00000c49 00             7840 	.byte	0
00000c4a 01             7841 	.byte	1
00000c4b 06             7842 	.byte	6
00000c4c 03             7843 	.byte	3
00000c4d 06             7844 	.byte	6
00000c4e 02             7845 	.byte	2
00000c4f 02             7846 	.byte	2
00000c50 01             7847 	.byte	1
00000c51 0c             7848 	.byte	12
00000c52 000502         7849 	.byte	0,5,2
00000c55 00000000*      7850 	.word	.LDWlin100
00000c59 0b             7851 	.byte	11
00000c5a 0c             7852 	.byte	12
00000c5b 06             7853 	.byte	6
00000c5c 02             7854 	.byte	2
00000c5d 04             7855 	.byte	4
00000c5e 02             7856 	.byte	2
00000c5f 02             7857 	.byte	2
00000c60 000101         7858 	.byte	0,1,1
                        7859 	.section	.debug_info
                        7860 .LDW_4d10ca0:
0000238e 0f             7861 	.byte	15
0000238f 756344617461   7862 	.strz	"ucData"
00002395 00 
00002396 9e05           7863 	.byte	158,5
00002398 2a             7864 	.byte	42
00002399 01             7865 	.byte	1
0000239a 00000000*      7866 	.word	.LDW_4056b08
0000239e 00             7867 	.byte	0
0000239f 016e           7868 	.byte	1,110
                        7869 
                        7870 .LDW_4d11480:
000023a1 1d             7871 	.byte	29
000023a2 00000000*      7872 	.word	.LDW46
000023a6 00000000*      7873 	.word	.LDW56
                        7874 
                        7875 .LDW_4d10c48:
000023aa 05             7876 	.byte	5
000023ab 7563436f756e   7877 	.strz	"ucCounter"
000023b1 74657200 
000023b5 a005           7878 	.byte	160,5
000023b7 09             7879 	.byte	9
000023b8 01             7880 	.byte	1
000023b9 00000000*      7881 	.word	.LDW_406b970
000023bd 00             7882 	.byte	0
000023be 00             7883 	.byte	0
                        7884 
                        7885 .LDW_4d10d50:
000023bf 05             7886 	.byte	5
000023c0 756353697a65   7887 	.strz	"ucSize"
000023c6 00 

                                                                      Page 146
                                                              C:\Users\nhuliyap\AppData\Local\Temp\gh_00006u41.s
000023c7 a105           7888 	.byte	161,5
000023c9 09             7889 	.byte	9
000023ca 01             7890 	.byte	1
000023cb 00000000*      7891 	.word	.LDW_406b970
000023cf 00             7892 	.byte	0
000023d0 00             7893 	.byte	0
                        7894 
000023d1 00             7895 	.byte	0
                        7896 
000023d2 00             7897 	.byte	0
                        7898 
                        7899 .LDW_4d0eb90:
000023d3 13             7900 	.byte	19
000023d4 50524f44464c   7901 	.strz	"PRODFLASH_PutRivianEcuPartNumber"
000023da 4153485f5075 
000023e0 745269766961 
000023e6 6e4563755061 
000023ec 72744e756d62 
000023f2 657200 
000023f5 ad05           7902 	.byte	173,5
000023f7 06             7903 	.byte	6
000023f8 01             7904 	.byte	1
000023f9 00000000*      7905 	.word	_PRODFLASH_PutRivianEcuPartNumber
000023fd 00000000*      7906 	.word	___ghs_eofn_PRODFLASH_PutRivianEcuPartNumber
00002401 0153           7907 	.byte	1,83
00002403 02             7908 	.byte	2
00002404 00             7909 	.byte	0
00002405 02             7910 	.byte	2
00002406 00             7911 	.byte	0
00002407 00             7912 	.byte	0
00002408 00             7913 	.byte	0
00002409 00             7914 	.byte	0
0000240a 01             7915 	.byte	1
0000240b 01             7916 	.byte	1
0000240c 00             7917 	.byte	0
0000240d 01             7918 	.byte	1
                        7919 
                        7920 	.section	.debug_frame
                        7921 .LDW_4ddebb8:
00000338 00000000*      7922 	.word	.LDW_unq_3a-.LDW_unq_39
                        7923 .LDW_unq_39:
0000033c 00000000*      7924 	.word	.LDW_4cbe898
00000340 00000000*      7925 	.word	_PRODFLASH_PutRivianEcuPartNumber
00000344 00000000*      7926 	.word	___ghs_eofn_PRODFLASH_PutRivianEcuPartNumber-_PRODFLASH_PutRivianEcuPartNumber
00000348 01             7927 	.byte	1
00000349 00000000*      7928 	.word	.LDW76
0000034d 00             7929 	.byte	0
0000034e 00             7930 	.byte	0
0000034f 00             7931 	.byte	0
                        7932 .LDW_unq_3a:
                        7933 	.section	.debug_line
00000c63 000502         7934 	.byte	0,5,2
00000c66 00000000*      7935 	.word	_PRODFLASH_PutRivianEcuPartNumber
00000c6a 06             7936 	.byte	6
00000c6b 03             7937 	.byte	3
00000c6c ae05           7938 	.byte	174,5
00000c6e 02             7939 	.byte	2
00000c6f 00             7940 	.byte	0
00000c70 01             7941 	.byte	1
00000c71 02             7942 	.byte	2
00000c72 0e             7943 	.byte	14

                                                                      Page 147
                                                              C:\Users\nhuliyap\AppData\Local\Temp\gh_00006u41.s
00000c73 000101         7944 	.byte	0,1,1
                        7945 	.section	.debug_info
                        7946 .LDW_4d10fb8:
0000240e 0f             7947 	.byte	15
0000240f 756344617461   7948 	.strz	"ucData"
00002415 00 
00002416 ad05           7949 	.byte	173,5
00002418 34             7950 	.byte	52
00002419 01             7951 	.byte	1
0000241a 00000000*      7952 	.word	.LDW_4057080
0000241e 00             7953 	.byte	0
0000241f 0156           7954 	.byte	1,86
                        7955 
                        7956 .LDW_4d11210:
00002421 1d             7957 	.byte	29
00002422 00000000*      7958 	.word	.LDW66
00002426 00000000*      7959 	.word	.LDW76
                        7960 
0000242a 00             7961 	.byte	0
                        7962 
0000242b 00             7963 	.byte	0
                        7964 
                        7965 .LDW_4d0eaf8:
0000242c 13             7966 	.byte	19
0000242d 50524f44464c   7967 	.strz	"PRODFLASH_PutVin"
00002433 4153485f5075 
00002439 7456696e00 
0000243e b205           7968 	.byte	178,5
00002440 06             7969 	.byte	6
00002441 01             7970 	.byte	1
00002442 00000000*      7971 	.word	_PRODFLASH_PutVin
00002446 00000000*      7972 	.word	___ghs_eofn_PRODFLASH_PutVin
0000244a 0153           7973 	.byte	1,83
0000244c 02             7974 	.byte	2
0000244d 00             7975 	.byte	0
0000244e 02             7976 	.byte	2
0000244f 00             7977 	.byte	0
00002450 00             7978 	.byte	0
00002451 00             7979 	.byte	0
00002452 00             7980 	.byte	0
00002453 01             7981 	.byte	1
00002454 01             7982 	.byte	1
00002455 00             7983 	.byte	0
00002456 01             7984 	.byte	1
                        7985 
                        7986 	.section	.debug_frame
                        7987 .LDW_4ddde38:
00000350 00000000*      7988 	.word	.LDW_unq_3c-.LDW_unq_3b
                        7989 .LDW_unq_3b:
00000354 00000000*      7990 	.word	.LDW_4cbe898
00000358 00000000*      7991 	.word	_PRODFLASH_PutVin
0000035c 00000000*      7992 	.word	___ghs_eofn_PRODFLASH_PutVin-_PRODFLASH_PutVin
00000360 01             7993 	.byte	1
00000361 00000000*      7994 	.word	.LDW96
00000365 00             7995 	.byte	0
00000366 00             7996 	.byte	0
00000367 00             7997 	.byte	0
                        7998 .LDW_unq_3c:
                        7999 	.section	.debug_line
00000c76 000502         8000 	.byte	0,5,2
00000c79 00000000*      8001 	.word	_PRODFLASH_PutVin

                                                                      Page 148
                                                              C:\Users\nhuliyap\AppData\Local\Temp\gh_00006u41.s
00000c7d 06             8002 	.byte	6
00000c7e 03             8003 	.byte	3
00000c7f b305           8004 	.byte	179,5
00000c81 02             8005 	.byte	2
00000c82 00             8006 	.byte	0
00000c83 01             8007 	.byte	1
00000c84 02             8008 	.byte	2
00000c85 0c             8009 	.byte	12
00000c86 000101         8010 	.byte	0,1,1
                        8011 	.section	.debug_info
                        8012 .LDW_4d10670:
00002457 0f             8013 	.byte	15
00002458 756344617461   8014 	.strz	"ucData"
0000245e 00 
0000245f b205           8015 	.byte	178,5
00002461 24             8016 	.byte	36
00002462 01             8017 	.byte	1
00002463 00000000*      8018 	.word	.LDW_4057080
00002467 00             8019 	.byte	0
00002468 0156           8020 	.byte	1,86
                        8021 
                        8022 .LDW_4d11570:
0000246a 1d             8023 	.byte	29
0000246b 00000000*      8024 	.word	.LDW86
0000246f 00000000*      8025 	.word	.LDW96
                        8026 
00002473 00             8027 	.byte	0
                        8028 
00002474 00             8029 	.byte	0
                        8030 
                        8031 .LDW_4d0ec28:
00002475 13             8032 	.byte	19
00002476 50524f44464c   8033 	.strz	"PRODFLASH_PutManufacturingSupportMode"
0000247c 4153485f5075 
00002482 744d616e7566 
00002488 616374757269 
0000248e 6e6753757070 
00002494 6f72744d6f64 
0000249a 6500 
0000249c b705           8034 	.byte	183,5
0000249e 06             8035 	.byte	6
0000249f 01             8036 	.byte	1
000024a0 00000000*      8037 	.word	_PRODFLASH_PutManufacturingSupportMode
000024a4 00000000*      8038 	.word	___ghs_eofn_PRODFLASH_PutManufacturingSupportMode
000024a8 0153           8039 	.byte	1,83
000024aa 02             8040 	.byte	2
000024ab 00             8041 	.byte	0
000024ac 02             8042 	.byte	2
000024ad 00             8043 	.byte	0
000024ae 00             8044 	.byte	0
000024af 00             8045 	.byte	0
000024b0 00             8046 	.byte	0
000024b1 01             8047 	.byte	1
000024b2 01             8048 	.byte	1
000024b3 00             8049 	.byte	0
000024b4 01             8050 	.byte	1
                        8051 
                        8052 	.section	.debug_frame
                        8053 .LDW_4dde278:
00000368 00000000*      8054 	.word	.LDW_unq_3e-.LDW_unq_3d
                        8055 .LDW_unq_3d:

                                                                      Page 149
                                                              C:\Users\nhuliyap\AppData\Local\Temp\gh_00006u41.s
0000036c 00000000*      8056 	.word	.LDW_4cbe898
00000370 00000000*      8057 	.word	_PRODFLASH_PutManufacturingSupportMode
00000374 00000000*      8058 	.word	___ghs_eofn_PRODFLASH_PutManufacturingSupportMode-_PRODFLASH_PutManufacturingSupportMode
00000378 01             8059 	.byte	1
00000379 00000000*      8060 	.word	.LDW17
0000037d 00             8061 	.byte	0
0000037e 00             8062 	.byte	0
0000037f 00             8063 	.byte	0
                        8064 .LDW_unq_3e:
                        8065 	.section	.debug_line
00000c89 000502         8066 	.byte	0,5,2
00000c8c 00000000*      8067 	.word	_PRODFLASH_PutManufacturingSupportMode
00000c90 06             8068 	.byte	6
00000c91 03             8069 	.byte	3
00000c92 b805           8070 	.byte	184,5
00000c94 02             8071 	.byte	2
00000c95 00             8072 	.byte	0
00000c96 01             8073 	.byte	1
00000c97 02             8074 	.byte	2
00000c98 0c             8075 	.byte	12
00000c99 000101         8076 	.byte	0,1,1
                        8077 	.section	.debug_info
                        8078 .LDW_4d10988:
000024b5 0f             8079 	.byte	15
000024b6 756344617461   8080 	.strz	"ucData"
000024bc 00 
000024bd b705           8081 	.byte	183,5
000024bf 39             8082 	.byte	57
000024c0 01             8083 	.byte	1
000024c1 00000000*      8084 	.word	.LDW_4057080
000024c5 00             8085 	.byte	0
000024c6 0156           8086 	.byte	1,86
                        8087 
                        8088 .LDW_4d115d0:
000024c8 1d             8089 	.byte	29
000024c9 00000000*      8090 	.word	.LDW07
000024cd 00000000*      8091 	.word	.LDW17
                        8092 
000024d1 00             8093 	.byte	0
                        8094 
000024d2 00             8095 	.byte	0
                        8096 
                        8097 .LDW_4d0ecc0:
000024d3 13             8098 	.byte	19
000024d4 50524f44464c   8099 	.strz	"PRODFLASH_PutEolCheckerByte"
000024da 4153485f5075 
000024e0 74456f6c4368 
000024e6 65636b657242 
000024ec 79746500 
000024f0 bc05           8100 	.byte	188,5
000024f2 06             8101 	.byte	6
000024f3 01             8102 	.byte	1
000024f4 00000000*      8103 	.word	_PRODFLASH_PutEolCheckerByte
000024f8 00000000*      8104 	.word	___ghs_eofn_PRODFLASH_PutEolCheckerByte
000024fc 0153           8105 	.byte	1,83
000024fe 02             8106 	.byte	2
000024ff 00             8107 	.byte	0
00002500 02             8108 	.byte	2
00002501 00             8109 	.byte	0
00002502 00             8110 	.byte	0
00002503 00             8111 	.byte	0

                                                                      Page 150
                                                              C:\Users\nhuliyap\AppData\Local\Temp\gh_00006u41.s
00002504 00             8112 	.byte	0
00002505 01             8113 	.byte	1
00002506 01             8114 	.byte	1
00002507 00             8115 	.byte	0
00002508 01             8116 	.byte	1
                        8117 
                        8118 	.section	.debug_frame
                        8119 .LDW_4dde478:
00000380 00000000*      8120 	.word	.LDW_unq_40-.LDW_unq_3f
                        8121 .LDW_unq_3f:
00000384 00000000*      8122 	.word	.LDW_4cbe898
00000388 00000000*      8123 	.word	_PRODFLASH_PutEolCheckerByte
0000038c 00000000*      8124 	.word	___ghs_eofn_PRODFLASH_PutEolCheckerByte-_PRODFLASH_PutEolCheckerByte
00000390 01             8125 	.byte	1
00000391 00000000*      8126 	.word	.LDW37
00000395 00             8127 	.byte	0
00000396 00             8128 	.byte	0
00000397 00             8129 	.byte	0
                        8130 .LDW_unq_40:
                        8131 	.section	.debug_line
00000c9c 000502         8132 	.byte	0,5,2
00000c9f 00000000*      8133 	.word	_PRODFLASH_PutEolCheckerByte
00000ca3 06             8134 	.byte	6
00000ca4 03             8135 	.byte	3
00000ca5 bd05           8136 	.byte	189,5
00000ca7 02             8137 	.byte	2
00000ca8 00             8138 	.byte	0
00000ca9 01             8139 	.byte	1
00000caa 02             8140 	.byte	2
00000cab 0c             8141 	.byte	12
00000cac 000101         8142 	.byte	0,1,1
                        8143 	.section	.debug_info
                        8144 .LDW_4d10358:
00002509 0f             8145 	.byte	15
0000250a 756344617461   8146 	.strz	"ucData"
00002510 00 
00002511 bc05           8147 	.byte	188,5
00002513 2f             8148 	.byte	47
00002514 01             8149 	.byte	1
00002515 00000000*      8150 	.word	.LDW_4057080
00002519 00             8151 	.byte	0
0000251a 0156           8152 	.byte	1,86
                        8153 
                        8154 .LDW_4d111e0:
0000251c 1d             8155 	.byte	29
0000251d 00000000*      8156 	.word	.LDW27
00002521 00000000*      8157 	.word	.LDW37
                        8158 
00002525 00             8159 	.byte	0
                        8160 
00002526 00             8161 	.byte	0
                        8162 
                        8163 .LDW_4d0f640:
00002527 13             8164 	.byte	19
00002528 50524f44464c   8165 	.strz	"PRODFLASH_PutApplicationChecksum"
0000252e 4153485f5075 
00002534 744170706c69 
0000253a 636174696f6e 
00002540 436865636b73 
00002546 756d00 
00002549 c105           8166 	.byte	193,5

                                                                      Page 151
                                                              C:\Users\nhuliyap\AppData\Local\Temp\gh_00006u41.s
0000254b 06             8167 	.byte	6
0000254c 01             8168 	.byte	1
0000254d 00000000*      8169 	.word	_PRODFLASH_PutApplicationChecksum
00002551 00000000*      8170 	.word	___ghs_eofn_PRODFLASH_PutApplicationChecksum
00002555 0153           8171 	.byte	1,83
00002557 02             8172 	.byte	2
00002558 00             8173 	.byte	0
00002559 02             8174 	.byte	2
0000255a 00             8175 	.byte	0
0000255b 00             8176 	.byte	0
0000255c 00             8177 	.byte	0
0000255d 00             8178 	.byte	0
0000255e 01             8179 	.byte	1
0000255f 01             8180 	.byte	1
00002560 00             8181 	.byte	0
00002561 01             8182 	.byte	1
                        8183 
                        8184 	.section	.debug_frame
                        8185 .LDW_4dde038:
00000398 00000000*      8186 	.word	.LDW_unq_42-.LDW_unq_41
                        8187 .LDW_unq_41:
0000039c 00000000*      8188 	.word	.LDW_4cbe898
000003a0 00000000*      8189 	.word	_PRODFLASH_PutApplicationChecksum
000003a4 00000000*      8190 	.word	___ghs_eofn_PRODFLASH_PutApplicationChecksum-_PRODFLASH_PutApplicationChecksum
000003a8 01             8191 	.byte	1
000003a9 00000000*      8192 	.word	.LDW57
000003ad 00             8193 	.byte	0
000003ae 00             8194 	.byte	0
000003af 00             8195 	.byte	0
                        8196 .LDW_unq_42:
                        8197 	.section	.debug_line
00000caf 000502         8198 	.byte	0,5,2
00000cb2 00000000*      8199 	.word	_PRODFLASH_PutApplicationChecksum
00000cb6 06             8200 	.byte	6
00000cb7 03             8201 	.byte	3
00000cb8 c205           8202 	.byte	194,5
00000cba 02             8203 	.byte	2
00000cbb 00             8204 	.byte	0
00000cbc 01             8205 	.byte	1
00000cbd 02             8206 	.byte	2
00000cbe 0c             8207 	.byte	12
00000cbf 000101         8208 	.byte	0,1,1
                        8209 	.section	.debug_info
                        8210 .LDW_4d10460:
00002562 0f             8211 	.byte	15
00002563 756344617461   8212 	.strz	"ucData"
00002569 00 
0000256a c105           8213 	.byte	193,5
0000256c 34             8214 	.byte	52
0000256d 01             8215 	.byte	1
0000256e 00000000*      8216 	.word	.LDW_4057080
00002572 00             8217 	.byte	0
00002573 0156           8218 	.byte	1,86
                        8219 
                        8220 .LDW_4d114b0:
00002575 1d             8221 	.byte	29
00002576 00000000*      8222 	.word	.LDW47
0000257a 00000000*      8223 	.word	.LDW57
                        8224 
0000257e 00             8225 	.byte	0
                        8226 

                                                                      Page 152
                                                              C:\Users\nhuliyap\AppData\Local\Temp\gh_00006u41.s
0000257f 00             8227 	.byte	0
                        8228 
00002580 00             8229 	.byte	0
                        8230 
                        8231 	.section	.debug_line
                        8232 .Ldw_line_end:
                        8233 	.section	.debug_macinfo
00000000 01             8234 	.byte	1
00000001 00             8235 	.byte	0
00000002 5f5f4748535f   8236 	.strz	"__GHS_VERSION_NUMBER 201517"
00000008 56455253494f 
0000000e 4e5f4e554d42 
00000014 455220323031 
0000001a 35313700 
0000001e 01             8237 	.byte	1
0000001f 00             8238 	.byte	0
00000020 5f5f6768735f   8239 	.strz	"__ghs__ 1"
00000026 5f203100 
0000002a 01             8240 	.byte	1
0000002b 00             8241 	.byte	0
0000002c 5f5f56383030   8242 	.strz	"__V800_registermode 32"
00000032 5f7265676973 
00000038 7465726d6f64 
0000003e 6520333200 
00000043 01             8243 	.byte	1
00000044 00             8244 	.byte	0
00000045 5f5f4c4c4f4e   8245 	.strz	"__LLONG_BIT 64"
0000004b 475f42495420 
00000051 363400 
00000054 03             8246 	.byte	3
00000055 00             8247 	.byte	0
00000056 01             8248 	.byte	1
00000057 03             8249 	.byte	3
00000058 01             8250 	.byte	1
00000059 02             8251 	.byte	2
0000005a 01             8252 	.byte	1
0000005b 02             8253 	.byte	2
0000005c 5354445f5459   8254 	.strz	"STD_TYPES_H "
00000062 5045535f4820 
00000068 00 
00000069 03             8255 	.byte	3
0000006a 1c             8256 	.byte	28
0000006b 03             8257 	.byte	3
0000006c 04             8258 	.byte	4
0000006d 03             8259 	.byte	3
0000006e 1d             8260 	.byte	29
0000006f 04             8261 	.byte	4
00000070 03             8262 	.byte	3
00000071 1b             8263 	.byte	27
00000072 05             8264 	.byte	5
00000073 03             8265 	.byte	3
00000074 54             8266 	.byte	84
00000075 06             8267 	.byte	6
00000076 01             8268 	.byte	1
00000077 32             8269 	.byte	50
00000078 4f535f434f4e   8270 	.strz	"OS_CONST "
0000007e 53542000 
00000082 01             8271 	.byte	1
00000083 35             8272 	.byte	53
00000084 4f535f415050   8273 	.strz	"OS_APPL_CODE "
0000008a 4c5f434f4445 

                                                                      Page 153
                                                              C:\Users\nhuliyap\AppData\Local\Temp\gh_00006u41.s
00000090 2000 
00000092 04             8274 	.byte	4
00000093 04             8275 	.byte	4
00000094 01             8276 	.byte	1
00000095 33             8277 	.byte	51
00000096 4c4f43414c5f   8278 	.strz	"LOCAL_INLINE static inline"
0000009c 494e4c494e45 
000000a2 207374617469 
000000a8 6320696e6c69 
000000ae 6e6500 
000000b1 01             8279 	.byte	1
000000b2 34             8280 	.byte	52
000000b3 46554e432872   8281 	.strz	"FUNC(rettype,memclass) rettype"
000000b9 657474797065 
000000bf 2c6d656d636c 
000000c5 617373292072 
000000cb 657474797065 
000000d1 00 
000000d2 01             8282 	.byte	1
000000d3 37             8283 	.byte	55
000000d4 503256415228   8284 	.strz	"P2VAR(ptrtype,memclass,ptrclass) ptrtype*"
000000da 707472747970 
000000e0 652c6d656d63 
000000e6 6c6173732c70 
000000ec 7472636c6173 
000000f2 732920707472 
000000f8 747970652a00 
000000fe 01             8285 	.byte	1
000000ff 38             8286 	.byte	56
00000100 5032434f4e53   8287 	.strz	"P2CONST(ptrtype,memclass,ptrclass) const ptrtype*"
00000106 542870747274 
0000010c 7970652c6d65 
00000112 6d636c617373 
00000118 2c707472636c 
0000011e 617373292063 
00000124 6f6e73742070 
0000012a 747274797065 
00000130 2a00 
00000132 01             8288 	.byte	1
00000133 39             8289 	.byte	57
00000134 434f4e535450   8290 	.strz	"CONSTP2VAR(ptrtype,memclass,ptrclass) ptrtype *const"
0000013a 325641522870 
00000140 747274797065 
00000146 2c6d656d636c 
0000014c 6173732c7074 
00000152 72636c617373 
00000158 292070747274 
0000015e 797065202a63 
00000164 6f6e737400 
00000169 01             8291 	.byte	1
0000016a 3a             8292 	.byte	58
0000016b 434f4e535450   8293 	.strz	"CONSTP2CONST(ptrtype,memclass,ptrclass) const ptrtype *const"
00000171 32434f4e5354 
00000177 287074727479 
0000017d 70652c6d656d 
00000183 636c6173732c 
00000189 707472636c61 
0000018f 73732920636f 
00000195 6e7374207074 
0000019b 727479706520 
000001a1 2a636f6e7374 

                                                                      Page 154
                                                              C:\Users\nhuliyap\AppData\Local\Temp\gh_00006u41.s
000001a7 00 
000001a8 01             8294 	.byte	1
000001a9 3b             8295 	.byte	59
000001aa 503246554e43   8296 	.strz	"P2FUNC(rettype,ptrclass,fctname) rettype (*fctname)"
000001b0 287265747479 
000001b6 70652c707472 
000001bc 636c6173732c 
000001c2 6663746e616d 
000001c8 652920726574 
000001ce 747970652028 
000001d4 2a6663746e61 
000001da 6d652900 
000001de 01             8297 	.byte	1
000001df 3d             8298 	.byte	61
000001e0 434f4e535428   8299 	.strz	"CONST(type,memclass) const type"
000001e6 747970652c6d 
000001ec 656d636c6173 
000001f2 732920636f6e 
000001f8 737420747970 
000001fe 6500 
00000200 01             8300 	.byte	1
00000201 3e             8301 	.byte	62
00000202 564152287661   8302 	.strz	"VAR(vartype,memclass) vartype"
00000208 72747970652c 
0000020e 6d656d636c61 
00000214 737329207661 
0000021a 727479706500 
00000220 04             8303 	.byte	4
00000221 01             8304 	.byte	1
00000222 3c             8305 	.byte	60
00000223 5354445f4f4e   8306 	.strz	"STD_ON 1u"
00000229 20317500 
0000022d 01             8307 	.byte	1
0000022e 3d             8308 	.byte	61
0000022f 5354445f4f46   8309 	.strz	"STD_OFF 0u"
00000235 4620307500 
0000023a 01             8310 	.byte	1
0000023b 4a             8311 	.byte	74
0000023c 535441545553   8312 	.strz	"STATUSTYPEDEFINED "
00000242 545950454445 
00000248 46494e454420 
0000024e 00 
0000024f 04             8313 	.byte	4
00000250 03             8314 	.byte	3
00000251 03             8315 	.byte	3
00000252 07             8316 	.byte	7
00000253 03             8317 	.byte	3
00000254 04             8318 	.byte	4
00000255 08             8319 	.byte	8
00000256 03             8320 	.byte	3
00000257 04             8321 	.byte	4
00000258 09             8322 	.byte	9
00000259 04             8323 	.byte	4
0000025a 04             8324 	.byte	4
0000025b 01             8325 	.byte	1
0000025c 06             8326 	.byte	6
0000025d 44434d5f5f50   8327 	.strz	"DCM__PRODUCTION_DATA_FLASH_SIZE (2048U)"
00000263 524f44554354 
00000269 494f4e5f4441 
0000026f 54415f464c41 
00000275 53485f53495a 

                                                                      Page 155
                                                              C:\Users\nhuliyap\AppData\Local\Temp\gh_00006u41.s
0000027b 452028323034 
00000281 38552900 
00000285 01             8328 	.byte	1
00000286 07             8329 	.byte	7
00000287 44434d5f5f50   8330 	.strz	"DCM__PRODUCTION_DATA_FLASH_BLOCK_SIZE (64U)"
0000028d 524f44554354 
00000293 494f4e5f4441 
00000299 54415f464c41 
0000029f 53485f424c4f 
000002a5 434b5f53495a 
000002ab 452028363455 
000002b1 2900 
000002b3 01             8331 	.byte	1
000002b4 08             8332 	.byte	8
000002b5 44434d5f5f50   8333 	.strz	"DCM__PRODUCTION_DATA_INDEX_1_SIZE (16U)"
000002bb 524f44554354 
000002c1 494f4e5f4441 
000002c7 54415f494e44 
000002cd 45585f315f53 
000002d3 495a45202831 
000002d9 36552900 
000002dd 01             8334 	.byte	1
000002de 09             8335 	.byte	9
000002df 44434d5f5f50   8336 	.strz	"DCM__PRODUCTION_DATA_INDEX_2_SIZE (10U)"
000002e5 524f44554354 
000002eb 494f4e5f4441 
000002f1 54415f494e44 
000002f7 45585f325f53 
000002fd 495a45202831 
00000303 30552900 
00000307 01             8337 	.byte	1
00000308 0a             8338 	.byte	10
00000309 44434d5f5f50   8339 	.strz	"DCM__PRODUCTION_DATA_INDEX_3_SIZE (10U)"
0000030f 524f44554354 
00000315 494f4e5f4441 
0000031b 54415f494e44 
00000321 45585f335f53 
00000327 495a45202831 
0000032d 30552900 
00000331 01             8340 	.byte	1
00000332 0b             8341 	.byte	11
00000333 44434d5f5f50   8342 	.strz	"DCM__PRODUCTION_DATA_INDEX_4_SIZE (3U)"
00000339 524f44554354 
0000033f 494f4e5f4441 
00000345 54415f494e44 
0000034b 45585f345f53 
00000351 495a45202833 
00000357 552900 
0000035a 01             8343 	.byte	1
0000035b 0c             8344 	.byte	12
0000035c 44434d5f5f50   8345 	.strz	"DCM__PRODUCTION_DATA_INDEX_5_SIZE (3U)"
00000362 524f44554354 
00000368 494f4e5f4441 
0000036e 54415f494e44 
00000374 45585f355f53 
0000037a 495a45202833 
00000380 552900 
00000383 01             8346 	.byte	1
00000384 0d             8347 	.byte	13
00000385 44434d5f5f50   8348 	.strz	"DCM__PRODUCTION_DATA_INDEX_6_SIZE (3U)"
0000038b 524f44554354 

                                                                      Page 156
                                                              C:\Users\nhuliyap\AppData\Local\Temp\gh_00006u41.s
00000391 494f4e5f4441 
00000397 54415f494e44 
0000039d 45585f365f53 
000003a3 495a45202833 
000003a9 552900 
000003ac 01             8349 	.byte	1
000003ad 0e             8350 	.byte	14
000003ae 44434d5f5f50   8351 	.strz	"DCM__PRODUCTION_DATA_INDEX_7_SIZE (10U)"
000003b4 524f44554354 
000003ba 494f4e5f4441 
000003c0 54415f494e44 
000003c6 45585f375f53 
000003cc 495a45202831 
000003d2 30552900 
000003d6 01             8352 	.byte	1
000003d7 0f             8353 	.byte	15
000003d8 44434d5f5f50   8354 	.strz	"DCM__PRODUCTION_DATA_INDEX_8_SIZE (10U)"
000003de 524f44554354 
000003e4 494f4e5f4441 
000003ea 54415f494e44 
000003f0 45585f385f53 
000003f6 495a45202831 
000003fc 30552900 
00000400 01             8355 	.byte	1
00000401 10             8356 	.byte	16
00000402 44434d5f5f50   8357 	.strz	"DCM__PRODUCTION_DATA_INDEX_9_SIZE (2U)"
00000408 524f44554354 
0000040e 494f4e5f4441 
00000414 54415f494e44 
0000041a 45585f395f53 
00000420 495a45202832 
00000426 552900 
00000429 01             8358 	.byte	1
0000042a 11             8359 	.byte	17
0000042b 44434d5f5f50   8360 	.strz	"DCM__PRODUCTION_DATA_INDEX_10_SIZE (6U)"
00000431 524f44554354 
00000437 494f4e5f4441 
0000043d 54415f494e44 
00000443 45585f31305f 
00000449 53495a452028 
0000044f 36552900 
00000453 01             8361 	.byte	1
00000454 12             8362 	.byte	18
00000455 44434d5f5f50   8363 	.strz	"DCM__PRODUCTION_DATA_INDEX_11_SIZE (9U)"
0000045b 524f44554354 
00000461 494f4e5f4441 
00000467 54415f494e44 
0000046d 45585f31315f 
00000473 53495a452028 
00000479 39552900 
0000047d 01             8364 	.byte	1
0000047e 13             8365 	.byte	19
0000047f 44434d5f5f50   8366 	.strz	"DCM__PRODUCTION_DATA_INDEX_12_SIZE (20U)"
00000485 524f44554354 
0000048b 494f4e5f4441 
00000491 54415f494e44 
00000497 45585f31325f 
0000049d 53495a452028 
000004a3 3230552900 
000004a8 01             8367 	.byte	1
000004a9 14             8368 	.byte	20

                                                                      Page 157
                                                              C:\Users\nhuliyap\AppData\Local\Temp\gh_00006u41.s
000004aa 44434d5f5f50   8369 	.strz	"DCM__PRODUCTION_DATA_INDEX_13_SIZE (3U)"
000004b0 524f44554354 
000004b6 494f4e5f4441 
000004bc 54415f494e44 
000004c2 45585f31335f 
000004c8 53495a452028 
000004ce 33552900 
000004d2 01             8370 	.byte	1
000004d3 15             8371 	.byte	21
000004d4 44434d5f5f50   8372 	.strz	"DCM__PRODUCTION_DATA_INDEX_14_SIZE (20U)"
000004da 524f44554354 
000004e0 494f4e5f4441 
000004e6 54415f494e44 
000004ec 45585f31345f 
000004f2 53495a452028 
000004f8 3230552900 
000004fd 01             8373 	.byte	1
000004fe 16             8374 	.byte	22
000004ff 44434d5f5f50   8375 	.strz	"DCM__PRODUCTION_DATA_INDEX_15_SIZE (3U)"
00000505 524f44554354 
0000050b 494f4e5f4441 
00000511 54415f494e44 
00000517 45585f31355f 
0000051d 53495a452028 
00000523 33552900 
00000527 01             8376 	.byte	1
00000528 17             8377 	.byte	23
00000529 44434d5f5f50   8378 	.strz	"DCM__PRODUCTION_DATA_INDEX_16_SIZE (17U)"
0000052f 524f44554354 
00000535 494f4e5f4441 
0000053b 54415f494e44 
00000541 45585f31365f 
00000547 53495a452028 
0000054d 3137552900 
00000552 01             8379 	.byte	1
00000553 18             8380 	.byte	24
00000554 44434d5f5f50   8381 	.strz	"DCM__PRODUCTION_DATA_INDEX_17_SIZE (1U)"
0000055a 524f44554354 
00000560 494f4e5f4441 
00000566 54415f494e44 
0000056c 45585f31375f 
00000572 53495a452028 
00000578 31552900 
0000057c 01             8382 	.byte	1
0000057d 19             8383 	.byte	25
0000057e 44434d5f5f50   8384 	.strz	"DCM__PRODUCTION_DATA_INDEX_18_SIZE (1U)"
00000584 524f44554354 
0000058a 494f4e5f4441 
00000590 54415f494e44 
00000596 45585f31385f 
0000059c 53495a452028 
000005a2 31552900 
000005a6 01             8385 	.byte	1
000005a7 1a             8386 	.byte	26
000005a8 44434d5f5f50   8387 	.strz	"DCM__PRODUCTION_DATA_INDEX_19_SIZE (2U)"
000005ae 524f44554354 
000005b4 494f4e5f4441 
000005ba 54415f494e44 
000005c0 45585f31395f 
000005c6 53495a452028 
000005cc 32552900 

                                                                      Page 158
                                                              C:\Users\nhuliyap\AppData\Local\Temp\gh_00006u41.s
000005d0 01             8388 	.byte	1
000005d1 1b             8389 	.byte	27
000005d2 44434d5f5f50   8390 	.strz	"DCM__PRODUCTION_DATA_INDEX_20_SIZE (1U)"
000005d8 524f44554354 
000005de 494f4e5f4441 
000005e4 54415f494e44 
000005ea 45585f32305f 
000005f0 53495a452028 
000005f6 31552900 
000005fa 01             8391 	.byte	1
000005fb 1c             8392 	.byte	28
000005fc 44434d5f5f50   8393 	.strz	"DCM__PRODUCTION_DATA_INDEX_21_SIZE (1U)"
00000602 524f44554354 
00000608 494f4e5f4441 
0000060e 54415f494e44 
00000614 45585f32315f 
0000061a 53495a452028 
00000620 31552900 
00000624 01             8394 	.byte	1
00000625 1d             8395 	.byte	29
00000626 44434d5f5f50   8396 	.strz	"DCM__PRODUCTION_DATA_INDEX_22_SIZE (2U)"
0000062c 524f44554354 
00000632 494f4e5f4441 
00000638 54415f494e44 
0000063e 45585f32325f 
00000644 53495a452028 
0000064a 32552900 
0000064e 01             8397 	.byte	1
0000064f 1e             8398 	.byte	30
00000650 44434d5f5f50   8399 	.strz	"DCM__PRODUCTION_DATA_INDEX_23_SIZE (35U)"
00000656 524f44554354 
0000065c 494f4e5f4441 
00000662 54415f494e44 
00000668 45585f32335f 
0000066e 53495a452028 
00000674 3335552900 
00000679 01             8400 	.byte	1
0000067a 1f             8401 	.byte	31
0000067b 44434d5f5f50   8402 	.strz	"DCM__PRODUCTION_DATA_INDEX_24_SIZE (18U)"
00000681 524f44554354 
00000687 494f4e5f4441 
0000068d 54415f494e44 
00000693 45585f32345f 
00000699 53495a452028 
0000069f 3138552900 
000006a4 01             8403 	.byte	1
000006a5 20             8404 	.byte	32
000006a6 44434d5f5f50   8405 	.strz	"DCM__PRODUCTION_DATA_INDEX_25_SIZE (35U)"
000006ac 524f44554354 
000006b2 494f4e5f4441 
000006b8 54415f494e44 
000006be 45585f32355f 
000006c4 53495a452028 
000006ca 3335552900 
000006cf 01             8406 	.byte	1
000006d0 21             8407 	.byte	33
000006d1 44434d5f5f50   8408 	.strz	"DCM__PRODUCTION_DATA_INDEX_26_SIZE (18U)"
000006d7 524f44554354 
000006dd 494f4e5f4441 
000006e3 54415f494e44 
000006e9 45585f32365f 

                                                                      Page 159
                                                              C:\Users\nhuliyap\AppData\Local\Temp\gh_00006u41.s
000006ef 53495a452028 
000006f5 3138552900 
000006fa 01             8409 	.byte	1
000006fb 22             8410 	.byte	34
000006fc 44434d5f5f50   8411 	.strz	"DCM__PRODUCTION_DATA_INDEX_27_SIZE (16U)"
00000702 524f44554354 
00000708 494f4e5f4441 
0000070e 54415f494e44 
00000714 45585f32375f 
0000071a 53495a452028 
00000720 3136552900 
00000725 01             8412 	.byte	1
00000726 23             8413 	.byte	35
00000727 44434d5f5f50   8414 	.strz	"DCM__PRODUCTION_DATA_INDEX_28_SIZE (4U)"
0000072d 524f44554354 
00000733 494f4e5f4441 
00000739 54415f494e44 
0000073f 45585f32385f 
00000745 53495a452028 
0000074b 34552900 
0000074f 01             8415 	.byte	1
00000750 24             8416 	.byte	36
00000751 44434d5f5f50   8417 	.strz	"DCM__PRODUCTION_DATA_INDEX_29_SIZE (1U)"
00000757 524f44554354 
0000075d 494f4e5f4441 
00000763 54415f494e44 
00000769 45585f32395f 
0000076f 53495a452028 
00000775 31552900 
00000779 01             8418 	.byte	1
0000077a 25             8419 	.byte	37
0000077b 44434d5f5f50   8420 	.strz	"DCM__PRODUCTION_DATA_INDEX_30_SIZE (40)"
00000781 524f44554354 
00000787 494f4e5f4441 
0000078d 54415f494e44 
00000793 45585f33305f 
00000799 53495a452028 
0000079f 34302900 
000007a3 01             8421 	.byte	1
000007a4 26             8422 	.byte	38
000007a5 44434d5f5f50   8423 	.strz	"DCM__PRODUCTION_DATA_INDEX_31_SIZE (2U)"
000007ab 524f44554354 
000007b1 494f4e5f4441 
000007b7 54415f494e44 
000007bd 45585f33315f 
000007c3 53495a452028 
000007c9 32552900 
000007cd 01             8424 	.byte	1
000007ce 27             8425 	.byte	39
000007cf 44434d5f5f50   8426 	.strz	"DCM__PRODUCTION_DATA_INDEX_32_SIZE (1662)"
000007d5 524f44554354 
000007db 494f4e5f4441 
000007e1 54415f494e44 
000007e7 45585f33325f 
000007ed 53495a452028 
000007f3 313636322900 
000007f9 01             8427 	.byte	1
000007fa 28             8428 	.byte	40
000007fb 44434d5f5f50   8429 	.strz	"DCM__PRODUCTION_DATA_INDEX_33_SIZE (16U)"
00000801 524f44554354 
00000807 494f4e5f4441 

                                                                      Page 160
                                                              C:\Users\nhuliyap\AppData\Local\Temp\gh_00006u41.s
0000080d 54415f494e44 
00000813 45585f33335f 
00000819 53495a452028 
0000081f 3136552900 
00000824 01             8430 	.byte	1
00000825 29             8431 	.byte	41
00000826 44434d5f5f50   8432 	.strz	"DCM__PRODUCTION_DATA_INDEX_34_SIZE (48U)"
0000082c 524f44554354 
00000832 494f4e5f4441 
00000838 54415f494e44 
0000083e 45585f33345f 
00000844 53495a452028 
0000084a 3438552900 
0000084f 01             8433 	.byte	1
00000850 2a             8434 	.byte	42
00000851 50524f445f44   8435 	.strz	"PROD_DATA __attribute__ ((section (\".production_data\")))"
00000857 415441205f5f 
0000085d 617474726962 
00000863 7574655f5f20 
00000869 282873656374 
0000086f 696f6e202822 
00000875 2e70726f6475 
0000087b 6374696f6e5f 
00000881 646174612229 
00000887 292900 
0000088a 04             8436 	.byte	4
0000088b 03             8437 	.byte	3
0000088c 04             8438 	.byte	4
0000088d 0a             8439 	.byte	10
0000088e 01             8440 	.byte	1
0000088f 04             8441 	.byte	4
00000890 464c535f4152   8442 	.strz	"FLS_AR_FOUR_ZERO_THREE 403"
00000896 5f464f55525f 
0000089c 5a45524f5f54 
000008a2 485245452034 
000008a8 303300 
000008ab 01             8443 	.byte	1
000008ac 05             8444 	.byte	5
000008ad 464c535f4152   8445 	.strz	"FLS_AR_THREE_TWO_TWO 322"
000008b3 5f5448524545 
000008b9 5f54574f5f54 
000008bf 574f20333232 
000008c5 00 
000008c6 01             8446 	.byte	1
000008c7 06             8447 	.byte	6
000008c8 464c535f4152   8448 	.strz	"FLS_AR_HIGHER_VERSION FLS_AR_FOUR_ZERO_THREE"
000008ce 5f4849474845 
000008d4 525f56455253 
000008da 494f4e20464c 
000008e0 535f41525f46 
000008e6 4f55525f5a45 
000008ec 524f5f544852 
000008f2 454500 
000008f5 01             8449 	.byte	1
000008f6 07             8450 	.byte	7
000008f7 464c535f4152   8451 	.strz	"FLS_AR_LOWER_VERSION FLS_AR_THREE_TWO_TWO"
000008fd 5f4c4f574552 
00000903 5f5645525349 
00000909 4f4e20464c53 
0000090f 5f41525f5448 
00000915 5245455f5457 

                                                                      Page 161
                                                              C:\Users\nhuliyap\AppData\Local\Temp\gh_00006u41.s
0000091b 4f5f54574f00 
00000921 03             8452 	.byte	3
00000922 09             8453 	.byte	9
00000923 0b             8454 	.byte	11
00000924 03             8455 	.byte	3
00000925 04             8456 	.byte	4
00000926 0c             8457 	.byte	12
00000927 04             8458 	.byte	4
00000928 01             8459 	.byte	1
00000929 13             8460 	.byte	19
0000092a 464c535f4152   8461 	.strz	"FLS_AR_VERSION FLS_AR_LOWER_VERSION"
00000930 5f5645525349 
00000936 4f4e20464c53 
0000093c 5f41525f4c4f 
00000942 5745525f5645 
00000948 5253494f4e00 
0000094e 01             8462 	.byte	1
0000094f 14             8463 	.byte	20
00000950 464c535f464c   8464 	.strz	"FLS_FLASH_ACCESS FLS_DATAFLASH_ACCESS"
00000956 4153485f4143 
0000095c 434553532046 
00000962 4c535f444154 
00000968 41464c415348 
0000096e 5f4143434553 
00000974 5300 
00000976 01             8465 	.byte	1
00000977 15             8466 	.byte	21
00000978 464c535f4445   8467 	.strz	"FLS_DEV_ERROR_DETECT STD_OFF"
0000097e 565f4552524f 
00000984 525f44455445 
0000098a 435420535444 
00000990 5f4f464600 
00000995 01             8468 	.byte	1
00000996 16             8469 	.byte	22
00000997 464c535f5645   8470 	.strz	"FLS_VERSION_INFO_API STD_OFF"
0000099d 5253494f4e5f 
000009a3 494e464f5f41 
000009a9 504920535444 
000009af 5f4f464600 
000009b4 01             8471 	.byte	1
000009b5 17             8472 	.byte	23
000009b6 464c535f4341   8473 	.strz	"FLS_CANCEL_API STD_ON"
000009bc 4e43454c5f41 
000009c2 504920535444 
000009c8 5f4f4e00 
000009cc 01             8474 	.byte	1
000009cd 18             8475 	.byte	24
000009ce 464c535f434f   8476 	.strz	"FLS_COMPARE_API STD_ON"
000009d4 4d504152455f 
000009da 415049205354 
000009e0 445f4f4e00 
000009e5 01             8477 	.byte	1
000009e6 19             8478 	.byte	25
000009e7 464c535f5345   8479 	.strz	"FLS_SET_MODE_API STD_OFF"
000009ed 545f4d4f4445 
000009f3 5f4150492053 
000009f9 54445f4f4646 
000009ff 00 
00000a00 01             8480 	.byte	1
00000a01 1a             8481 	.byte	26
00000a02 464c535f4745   8482 	.strz	"FLS_GET_STATUS_API STD_ON"

                                                                      Page 162
                                                              C:\Users\nhuliyap\AppData\Local\Temp\gh_00006u41.s
00000a08 545f53544154 
00000a0e 55535f415049 
00000a14 205354445f4f 
00000a1a 4e00 
00000a1c 01             8483 	.byte	1
00000a1d 1b             8484 	.byte	27
00000a1e 464c535f4745   8485 	.strz	"FLS_GET_JOB_RESULT_API STD_ON"
00000a24 545f4a4f425f 
00000a2a 524553554c54 
00000a30 5f4150492053 
00000a36 54445f4f4e00 
00000a3c 01             8486 	.byte	1
00000a3d 1d             8487 	.byte	29
00000a3e 464c535f4352   8488 	.strz	"FLS_CRITICAL_SECTION_PROTECTION STD_ON"
00000a44 49544943414c 
00000a4a 5f5345435449 
00000a50 4f4e5f50524f 
00000a56 54454354494f 
00000a5c 4e205354445f 
00000a62 4f4e00 
00000a65 01             8489 	.byte	1
00000a66 21             8490 	.byte	33
00000a67 464c535f5449   8491 	.strz	"FLS_TIMEOUT_MONITORING STD_OFF"
00000a6d 4d454f55545f 
00000a73 4d4f4e49544f 
00000a79 52494e472053 
00000a7f 54445f4f4646 
00000a85 00 
00000a86 01             8492 	.byte	1
00000a87 22             8493 	.byte	34
00000a88 464c535f424c   8494 	.strz	"FLS_BLANKCHECK_API STD_ON"
00000a8e 414e4b434845 
00000a94 434b5f415049 
00000a9a 205354445f4f 
00000aa0 4e00 
00000aa2 01             8495 	.byte	1
00000aa3 23             8496 	.byte	35
00000aa4 464c535f5245   8497 	.strz	"FLS_READIMMEDIATE_API STD_OFF"
00000aaa 4144494d4d45 
00000ab0 44494154455f 
00000ab6 415049205354 
00000abc 445f4f464600 
00000ac2 01             8498 	.byte	1
00000ac3 24             8499 	.byte	36
00000ac4 464c535f494e   8500 	.strz	"FLS_INTERRUPT_MODE STD_OFF"
00000aca 544552525550 
00000ad0 545f4d4f4445 
00000ad6 205354445f4f 
00000adc 464600 
00000adf 01             8501 	.byte	1
00000ae0 26             8502 	.byte	38
00000ae1 464c535f5355   8503 	.strz	"FLS_SUSPEND_API STD_OFF"
00000ae7 5350454e445f 
00000aed 415049205354 
00000af3 445f4f464600 
00000af9 01             8504 	.byte	1
00000afa 27             8505 	.byte	39
00000afb 464c535f5245   8506 	.strz	"FLS_RESUME_API STD_OFF"
00000b01 53554d455f41 
00000b07 504920535444 
00000b0d 5f4f464600 

                                                                      Page 163
                                                              C:\Users\nhuliyap\AppData\Local\Temp\gh_00006u41.s
00000b12 01             8507 	.byte	1
00000b13 2f             8508 	.byte	47
00000b14 464c535f4648   8509 	.strz	"FLS_FHVE_REGS NOT_SUPPORTED"
00000b1a 56455f524547 
00000b20 53204e4f545f 
00000b26 535550504f52 
00000b2c 54454400 
00000b30 01             8510 	.byte	1
00000b31 30             8511 	.byte	48
00000b32 464c535f464c   8512 	.strz	"FLS_FLMD_REGS SUPPORTED"
00000b38 4d445f524547 
00000b3e 532053555050 
00000b44 4f5254454400 
00000b4a 04             8513 	.byte	4
00000b4b 03             8514 	.byte	3
00000b4c 0a             8515 	.byte	10
00000b4d 0d             8516 	.byte	13
00000b4e 03             8517 	.byte	3
00000b4f 04             8518 	.byte	4
00000b50 0e             8519 	.byte	14
00000b51 01             8520 	.byte	1
00000b52 2a             8521 	.byte	42
00000b53 535550504f52   8522 	.strz	"SUPPORTED 0"
00000b59 544544203000 
00000b5f 01             8523 	.byte	1
00000b60 2b             8524 	.byte	43
00000b61 4e4f545f5355   8525 	.strz	"NOT_SUPPORTED 1"
00000b67 50504f525445 
00000b6d 44203100 
00000b71 01             8526 	.byte	1
00000b72 40             8527 	.byte	64
00000b73 464c535f4441   8528 	.strz	"FLS_DATAFLASH_ACCESS 0"
00000b79 5441464c4153 
00000b7f 485f41434345 
00000b85 5353203000 
00000b8a 01             8529 	.byte	1
00000b8b 41             8530 	.byte	65
00000b8c 464c535f434f   8531 	.strz	"FLS_CODEFLASH_ACCESS 1"
00000b92 4445464c4153 
00000b98 485f41434345 
00000b9e 5353203100 
00000ba3 01             8532 	.byte	1
00000ba4 42             8533 	.byte	66
00000ba5 464c535f4346   8534 	.strz	"FLS_CFDF_ACCESS 2"
00000bab 44465f414343 
00000bb1 455353203200 
00000bb7 01             8535 	.byte	1
00000bb8 6b             8536 	.byte	107
00000bb9 464c535f5354   8537 	.strz	"FLS_START_SEC_BUFFER_CODE "
00000bbf 4152545f5345 
00000bc5 435f42554646 
00000bcb 45525f434f44 
00000bd1 452000 
00000bd4 03             8538 	.byte	3
00000bd5 6c             8539 	.byte	108
00000bd6 0f             8540 	.byte	15
00000bd7 01             8541 	.byte	1
00000bd8 02             8542 	.byte	2
00000bd9 4d454d4d4150   8543 	.strz	"MEMMAP_VENDOR_ID (30u)"
00000bdf 5f56454e444f 
00000be5 525f49442028 

                                                                      Page 164
                                                              C:\Users\nhuliyap\AppData\Local\Temp\gh_00006u41.s
00000beb 3330752900 
00000bf0 01             8544 	.byte	1
00000bf1 08             8545 	.byte	8
00000bf2 4d454d4d4150   8546 	.strz	"MEMMAP_AR_RELEASE_MAJOR_VERSION (4u)"
00000bf8 5f41525f5245 
00000bfe 4c454153455f 
00000c04 4d414a4f525f 
00000c0a 56455253494f 
00000c10 4e2028347529 
00000c16 00 
00000c17 01             8547 	.byte	1
00000c18 09             8548 	.byte	9
00000c19 4d454d4d4150   8549 	.strz	"MEMMAP_AR_RELEASE_MINOR_VERSION (0u)"
00000c1f 5f41525f5245 
00000c25 4c454153455f 
00000c2b 4d494e4f525f 
00000c31 56455253494f 
00000c37 4e2028307529 
00000c3d 00 
00000c3e 01             8550 	.byte	1
00000c3f 0a             8551 	.byte	10
00000c40 4d454d4d4150   8552 	.strz	"MEMMAP_AR_RELEASE_REVISION_VERSION (3u)"
00000c46 5f41525f5245 
00000c4c 4c454153455f 
00000c52 524556495349 
00000c58 4f4e5f564552 
00000c5e 53494f4e2028 
00000c64 33752900 
00000c68 01             8553 	.byte	1
00000c69 10             8554 	.byte	16
00000c6a 4d454d5f4152   8555 	.strz	"MEM_AR_RELEASE_MAJOR_VERSION MEMMAP_AR_RELEASE_MAJOR_VERSION"
00000c70 5f52454c4541 
00000c76 53455f4d414a 
00000c7c 4f525f564552 
00000c82 53494f4e204d 
00000c88 454d4d41505f 
00000c8e 41525f52454c 
00000c94 454153455f4d 
00000c9a 414a4f525f56 
00000ca0 455253494f4e 
00000ca6 00 
00000ca7 01             8556 	.byte	1
00000ca8 11             8557 	.byte	17
00000ca9 4d454d5f4152   8558 	.strz	"MEM_AR_RELEASE_MINOR_VERSION MEMMAP_AR_RELEASE_MINOR_VERSION"
00000caf 5f52454c4541 
00000cb5 53455f4d494e 
00000cbb 4f525f564552 
00000cc1 53494f4e204d 
00000cc7 454d4d41505f 
00000ccd 41525f52454c 
00000cd3 454153455f4d 
00000cd9 494e4f525f56 
00000cdf 455253494f4e 
00000ce5 00 
00000ce6 01             8559 	.byte	1
00000ce7 12             8560 	.byte	18
00000ce8 4d454d5f4152   8561 	.strz	"MEM_AR_RELEASE_PATCH_VERSION MEMMAP_AR_RELEASE_REVISION_VERSION"
00000cee 5f52454c4541 
00000cf4 53455f504154 
00000cfa 43485f564552 
00000d00 53494f4e204d 

                                                                      Page 165
                                                              C:\Users\nhuliyap\AppData\Local\Temp\gh_00006u41.s
00000d06 454d4d41505f 
00000d0c 41525f52454c 
00000d12 454153455f52 
00000d18 45564953494f 
00000d1e 4e5f56455253 
00000d24 494f4e00 
00000d28 01             8562 	.byte	1
00000d29 18             8563 	.byte	24
00000d2a 4d454d4d4150   8564 	.strz	"MEMMAP_SW_MAJOR_VERSION (1u)"
00000d30 5f53575f4d41 
00000d36 4a4f525f5645 
00000d3c 5253494f4e20 
00000d42 2831752900 
00000d47 01             8565 	.byte	1
00000d48 19             8566 	.byte	25
00000d49 4d454d4d4150   8567 	.strz	"MEMMAP_SW_MINOR_VERSION (11u)"
00000d4f 5f53575f4d49 
00000d55 4e4f525f5645 
00000d5b 5253494f4e20 
00000d61 283131752900 
00000d67 01             8568 	.byte	1
00000d68 1a             8569 	.byte	26
00000d69 4d454d4d4150   8570 	.strz	"MEMMAP_SW_PATCH_VERSION (0u)"
00000d6f 5f53575f5041 
00000d75 5443485f5645 
00000d7b 5253494f4e20 
00000d81 2830752900 
00000d86 01             8571 	.byte	1
00000d87 20             8572 	.byte	32
00000d88 4d454d5f5357   8573 	.strz	"MEM_SW_MAJOR_VERSION MEMMAP_SW_MAJOR_VERSION"
00000d8e 5f4d414a4f52 
00000d94 5f5645525349 
00000d9a 4f4e204d454d 
00000da0 4d41505f5357 
00000da6 5f4d414a4f52 
00000dac 5f5645525349 
00000db2 4f4e00 
00000db5 01             8574 	.byte	1
00000db6 21             8575 	.byte	33
00000db7 4d454d5f5357   8576 	.strz	"MEM_SW_MINOR_VERSION MEMMAP_SW_MINOR_VERSION"
00000dbd 5f4d494e4f52 
00000dc3 5f5645525349 
00000dc9 4f4e204d454d 
00000dcf 4d41505f5357 
00000dd5 5f4d494e4f52 
00000ddb 5f5645525349 
00000de1 4f4e00 
00000de4 01             8577 	.byte	1
00000de5 22             8578 	.byte	34
00000de6 4d454d5f5357   8579 	.strz	"MEM_SW_PATCH_VERSION MEMMAP_SW_PATCH_VERSION"
00000dec 5f5041544348 
00000df2 5f5645525349 
00000df8 4f4e204d454d 
00000dfe 4d41505f5357 
00000e04 5f5041544348 
00000e0a 5f5645525349 
00000e10 4f4e00 
00000e13 01             8580 	.byte	1
00000e14 24             8581 	.byte	36
00000e15 4d454d4d4150   8582 	.strz	"MEMMAP_ERROR "
00000e1b 5f4552524f52 

                                                                      Page 166
                                                              C:\Users\nhuliyap\AppData\Local\Temp\gh_00006u41.s
00000e21 2000 
00000e23 01             8583 	.byte	1
00000e24 9502           8584 	.byte	149,2
00000e26 53544152545f   8585 	.strz	"START_SEC_CODE "
00000e2c 5345435f434f 
00000e32 44452000 
00000e36 03             8586 	.byte	3
00000e37 f403           8587 	.byte	244,3
00000e39 10             8588 	.byte	16
00000e3a 01             8589 	.byte	1
00000e3b f307           8590 	.byte	243,7
00000e3d 434f44455f53   8591 	.strz	"CODE_SEC_OPEN "
00000e43 45435f4f5045 
00000e49 4e2000 
00000e4c 04             8592 	.byte	4
00000e4d 04             8593 	.byte	4
00000e4e 01             8594 	.byte	1
00000e4f 70             8595 	.byte	112
00000e50 464c535f5354   8596 	.strz	"FLS_STOP_SEC_BUFFER_CODE "
00000e56 4f505f534543 
00000e5c 5f4255464645 
00000e62 525f434f4445 
00000e68 2000 
00000e6a 03             8597 	.byte	3
00000e6b 71             8598 	.byte	113
00000e6c 0f             8599 	.byte	15
00000e6d 01             8600 	.byte	1
00000e6e 02             8601 	.byte	2
00000e6f 4d454d4d4150   8602 	.strz	"MEMMAP_VENDOR_ID (30u)"
00000e75 5f56454e444f 
00000e7b 525f49442028 
00000e81 3330752900 
00000e86 01             8603 	.byte	1
00000e87 08             8604 	.byte	8
00000e88 4d454d4d4150   8605 	.strz	"MEMMAP_AR_RELEASE_MAJOR_VERSION (4u)"
00000e8e 5f41525f5245 
00000e94 4c454153455f 
00000e9a 4d414a4f525f 
00000ea0 56455253494f 
00000ea6 4e2028347529 
00000eac 00 
00000ead 01             8606 	.byte	1
00000eae 09             8607 	.byte	9
00000eaf 4d454d4d4150   8608 	.strz	"MEMMAP_AR_RELEASE_MINOR_VERSION (0u)"
00000eb5 5f41525f5245 
00000ebb 4c454153455f 
00000ec1 4d494e4f525f 
00000ec7 56455253494f 
00000ecd 4e2028307529 
00000ed3 00 
00000ed4 01             8609 	.byte	1
00000ed5 0a             8610 	.byte	10
00000ed6 4d454d4d4150   8611 	.strz	"MEMMAP_AR_RELEASE_REVISION_VERSION (3u)"
00000edc 5f41525f5245 
00000ee2 4c454153455f 
00000ee8 524556495349 
00000eee 4f4e5f564552 
00000ef4 53494f4e2028 
00000efa 33752900 
00000efe 01             8612 	.byte	1
00000eff 10             8613 	.byte	16

                                                                      Page 167
                                                              C:\Users\nhuliyap\AppData\Local\Temp\gh_00006u41.s
00000f00 4d454d5f4152   8614 	.strz	"MEM_AR_RELEASE_MAJOR_VERSION MEMMAP_AR_RELEASE_MAJOR_VERSION"
00000f06 5f52454c4541 
00000f0c 53455f4d414a 
00000f12 4f525f564552 
00000f18 53494f4e204d 
00000f1e 454d4d41505f 
00000f24 41525f52454c 
00000f2a 454153455f4d 
00000f30 414a4f525f56 
00000f36 455253494f4e 
00000f3c 00 
00000f3d 01             8615 	.byte	1
00000f3e 11             8616 	.byte	17
00000f3f 4d454d5f4152   8617 	.strz	"MEM_AR_RELEASE_MINOR_VERSION MEMMAP_AR_RELEASE_MINOR_VERSION"
00000f45 5f52454c4541 
00000f4b 53455f4d494e 
00000f51 4f525f564552 
00000f57 53494f4e204d 
00000f5d 454d4d41505f 
00000f63 41525f52454c 
00000f69 454153455f4d 
00000f6f 494e4f525f56 
00000f75 455253494f4e 
00000f7b 00 
00000f7c 01             8618 	.byte	1
00000f7d 12             8619 	.byte	18
00000f7e 4d454d5f4152   8620 	.strz	"MEM_AR_RELEASE_PATCH_VERSION MEMMAP_AR_RELEASE_REVISION_VERSION"
00000f84 5f52454c4541 
00000f8a 53455f504154 
00000f90 43485f564552 
00000f96 53494f4e204d 
00000f9c 454d4d41505f 
00000fa2 41525f52454c 
00000fa8 454153455f52 
00000fae 45564953494f 
00000fb4 4e5f56455253 
00000fba 494f4e00 
00000fbe 01             8621 	.byte	1
00000fbf 18             8622 	.byte	24
00000fc0 4d454d4d4150   8623 	.strz	"MEMMAP_SW_MAJOR_VERSION (1u)"
00000fc6 5f53575f4d41 
00000fcc 4a4f525f5645 
00000fd2 5253494f4e20 
00000fd8 2831752900 
00000fdd 01             8624 	.byte	1
00000fde 19             8625 	.byte	25
00000fdf 4d454d4d4150   8626 	.strz	"MEMMAP_SW_MINOR_VERSION (11u)"
00000fe5 5f53575f4d49 
00000feb 4e4f525f5645 
00000ff1 5253494f4e20 
00000ff7 283131752900 
00000ffd 01             8627 	.byte	1
00000ffe 1a             8628 	.byte	26
00000fff 4d454d4d4150   8629 	.strz	"MEMMAP_SW_PATCH_VERSION (0u)"
00001005 5f53575f5041 
0000100b 5443485f5645 
00001011 5253494f4e20 
00001017 2830752900 
0000101c 01             8630 	.byte	1
0000101d 20             8631 	.byte	32
0000101e 4d454d5f5357   8632 	.strz	"MEM_SW_MAJOR_VERSION MEMMAP_SW_MAJOR_VERSION"

                                                                      Page 168
                                                              C:\Users\nhuliyap\AppData\Local\Temp\gh_00006u41.s
00001024 5f4d414a4f52 
0000102a 5f5645525349 
00001030 4f4e204d454d 
00001036 4d41505f5357 
0000103c 5f4d414a4f52 
00001042 5f5645525349 
00001048 4f4e00 
0000104b 01             8633 	.byte	1
0000104c 21             8634 	.byte	33
0000104d 4d454d5f5357   8635 	.strz	"MEM_SW_MINOR_VERSION MEMMAP_SW_MINOR_VERSION"
00001053 5f4d494e4f52 
00001059 5f5645525349 
0000105f 4f4e204d454d 
00001065 4d41505f5357 
0000106b 5f4d494e4f52 
00001071 5f5645525349 
00001077 4f4e00 
0000107a 01             8636 	.byte	1
0000107b 22             8637 	.byte	34
0000107c 4d454d5f5357   8638 	.strz	"MEM_SW_PATCH_VERSION MEMMAP_SW_PATCH_VERSION"
00001082 5f5041544348 
00001088 5f5645525349 
0000108e 4f4e204d454d 
00001094 4d41505f5357 
0000109a 5f5041544348 
000010a0 5f5645525349 
000010a6 4f4e00 
000010a9 01             8639 	.byte	1
000010aa 24             8640 	.byte	36
000010ab 4d454d4d4150   8641 	.strz	"MEMMAP_ERROR "
000010b1 5f4552524f52 
000010b7 2000 
000010b9 01             8642 	.byte	1
000010ba 9902           8643 	.byte	153,2
000010bc 53544f505f53   8644 	.strz	"STOP_SEC_CODE "
000010c2 45435f434f44 
000010c8 452000 
000010cb 03             8645 	.byte	3
000010cc f403           8646 	.byte	244,3
000010ce 10             8647 	.byte	16
000010cf 04             8648 	.byte	4
000010d0 04             8649 	.byte	4
000010d1 04             8650 	.byte	4
000010d2 03             8651 	.byte	3
000010d3 05             8652 	.byte	5
000010d4 11             8653 	.byte	17
000010d5 04             8654 	.byte	4
000010d6 03             8655 	.byte	3
000010d7 08             8656 	.byte	8
000010d8 12             8657 	.byte	18
000010d9 01             8658 	.byte	1
000010da 0a             8659 	.byte	10
000010db 525f46444c5f   8660 	.strz	"R_FDL_TYPES_H "
000010e1 54595045535f 
000010e7 482000 
000010ea 04             8661 	.byte	4
000010eb 04             8662 	.byte	4
000010ec 03             8663 	.byte	3
000010ed 14             8664 	.byte	20
000010ee 13             8665 	.byte	19
000010ef 04             8666 	.byte	4

                                                                      Page 169
                                                              C:\Users\nhuliyap\AppData\Local\Temp\gh_00006u41.s
000010f0 01             8667 	.byte	1
000010f1 4a             8668 	.byte	74
000010f2 464c535f5354   8669 	.strz	"FLS_START_SEC_PUBLIC_CODE "
000010f8 4152545f5345 
000010fe 435f5055424c 
00001104 49435f434f44 
0000110a 452000 
0000110d 03             8670 	.byte	3
0000110e 4b             8671 	.byte	75
0000110f 0f             8672 	.byte	15
00001110 01             8673 	.byte	1
00001111 02             8674 	.byte	2
00001112 4d454d4d4150   8675 	.strz	"MEMMAP_VENDOR_ID (30u)"
00001118 5f56454e444f 
0000111e 525f49442028 
00001124 3330752900 
00001129 01             8676 	.byte	1
0000112a 08             8677 	.byte	8
0000112b 4d454d4d4150   8678 	.strz	"MEMMAP_AR_RELEASE_MAJOR_VERSION (4u)"
00001131 5f41525f5245 
00001137 4c454153455f 
0000113d 4d414a4f525f 
00001143 56455253494f 
00001149 4e2028347529 
0000114f 00 
00001150 01             8679 	.byte	1
00001151 09             8680 	.byte	9
00001152 4d454d4d4150   8681 	.strz	"MEMMAP_AR_RELEASE_MINOR_VERSION (0u)"
00001158 5f41525f5245 
0000115e 4c454153455f 
00001164 4d494e4f525f 
0000116a 56455253494f 
00001170 4e2028307529 
00001176 00 
00001177 01             8682 	.byte	1
00001178 0a             8683 	.byte	10
00001179 4d454d4d4150   8684 	.strz	"MEMMAP_AR_RELEASE_REVISION_VERSION (3u)"
0000117f 5f41525f5245 
00001185 4c454153455f 
0000118b 524556495349 
00001191 4f4e5f564552 
00001197 53494f4e2028 
0000119d 33752900 
000011a1 01             8685 	.byte	1
000011a2 10             8686 	.byte	16
000011a3 4d454d5f4152   8687 	.strz	"MEM_AR_RELEASE_MAJOR_VERSION MEMMAP_AR_RELEASE_MAJOR_VERSION"
000011a9 5f52454c4541 
000011af 53455f4d414a 
000011b5 4f525f564552 
000011bb 53494f4e204d 
000011c1 454d4d41505f 
000011c7 41525f52454c 
000011cd 454153455f4d 
000011d3 414a4f525f56 
000011d9 455253494f4e 
000011df 00 
000011e0 01             8688 	.byte	1
000011e1 11             8689 	.byte	17
000011e2 4d454d5f4152   8690 	.strz	"MEM_AR_RELEASE_MINOR_VERSION MEMMAP_AR_RELEASE_MINOR_VERSION"
000011e8 5f52454c4541 
000011ee 53455f4d494e 

                                                                      Page 170
                                                              C:\Users\nhuliyap\AppData\Local\Temp\gh_00006u41.s
000011f4 4f525f564552 
000011fa 53494f4e204d 
00001200 454d4d41505f 
00001206 41525f52454c 
0000120c 454153455f4d 
00001212 494e4f525f56 
00001218 455253494f4e 
0000121e 00 
0000121f 01             8691 	.byte	1
00001220 12             8692 	.byte	18
00001221 4d454d5f4152   8693 	.strz	"MEM_AR_RELEASE_PATCH_VERSION MEMMAP_AR_RELEASE_REVISION_VERSION"
00001227 5f52454c4541 
0000122d 53455f504154 
00001233 43485f564552 
00001239 53494f4e204d 
0000123f 454d4d41505f 
00001245 41525f52454c 
0000124b 454153455f52 
00001251 45564953494f 
00001257 4e5f56455253 
0000125d 494f4e00 
00001261 01             8694 	.byte	1
00001262 18             8695 	.byte	24
00001263 4d454d4d4150   8696 	.strz	"MEMMAP_SW_MAJOR_VERSION (1u)"
00001269 5f53575f4d41 
0000126f 4a4f525f5645 
00001275 5253494f4e20 
0000127b 2831752900 
00001280 01             8697 	.byte	1
00001281 19             8698 	.byte	25
00001282 4d454d4d4150   8699 	.strz	"MEMMAP_SW_MINOR_VERSION (11u)"
00001288 5f53575f4d49 
0000128e 4e4f525f5645 
00001294 5253494f4e20 
0000129a 283131752900 
000012a0 01             8700 	.byte	1
000012a1 1a             8701 	.byte	26
000012a2 4d454d4d4150   8702 	.strz	"MEMMAP_SW_PATCH_VERSION (0u)"
000012a8 5f53575f5041 
000012ae 5443485f5645 
000012b4 5253494f4e20 
000012ba 2830752900 
000012bf 01             8703 	.byte	1
000012c0 20             8704 	.byte	32
000012c1 4d454d5f5357   8705 	.strz	"MEM_SW_MAJOR_VERSION MEMMAP_SW_MAJOR_VERSION"
000012c7 5f4d414a4f52 
000012cd 5f5645525349 
000012d3 4f4e204d454d 
000012d9 4d41505f5357 
000012df 5f4d414a4f52 
000012e5 5f5645525349 
000012eb 4f4e00 
000012ee 01             8706 	.byte	1
000012ef 21             8707 	.byte	33
000012f0 4d454d5f5357   8708 	.strz	"MEM_SW_MINOR_VERSION MEMMAP_SW_MINOR_VERSION"
000012f6 5f4d494e4f52 
000012fc 5f5645525349 
00001302 4f4e204d454d 
00001308 4d41505f5357 
0000130e 5f4d494e4f52 
00001314 5f5645525349 

                                                                      Page 171
                                                              C:\Users\nhuliyap\AppData\Local\Temp\gh_00006u41.s
0000131a 4f4e00 
0000131d 01             8709 	.byte	1
0000131e 22             8710 	.byte	34
0000131f 4d454d5f5357   8711 	.strz	"MEM_SW_PATCH_VERSION MEMMAP_SW_PATCH_VERSION"
00001325 5f5041544348 
0000132b 5f5645525349 
00001331 4f4e204d454d 
00001337 4d41505f5357 
0000133d 5f5041544348 
00001343 5f5645525349 
00001349 4f4e00 
0000134c 01             8712 	.byte	1
0000134d 24             8713 	.byte	36
0000134e 4d454d4d4150   8714 	.strz	"MEMMAP_ERROR "
00001354 5f4552524f52 
0000135a 2000 
0000135c 01             8715 	.byte	1
0000135d f101           8716 	.byte	241,1
0000135f 53544152545f   8717 	.strz	"START_SEC_CODE "
00001365 5345435f434f 
0000136b 44452000 
0000136f 03             8718 	.byte	3
00001370 f403           8719 	.byte	244,3
00001372 10             8720 	.byte	16
00001373 01             8721 	.byte	1
00001374 f307           8722 	.byte	243,7
00001376 434f44455f53   8723 	.strz	"CODE_SEC_OPEN "
0000137c 45435f4f5045 
00001382 4e2000 
00001385 04             8724 	.byte	4
00001386 04             8725 	.byte	4
00001387 01             8726 	.byte	1
00001388 a501           8727 	.byte	165,1
0000138a 464c535f5354   8728 	.strz	"FLS_STOP_SEC_PUBLIC_CODE "
00001390 4f505f534543 
00001396 5f5055424c49 
0000139c 435f434f4445 
000013a2 2000 
000013a4 03             8729 	.byte	3
000013a5 a601           8730 	.byte	166,1
000013a7 0f             8731 	.byte	15
000013a8 01             8732 	.byte	1
000013a9 02             8733 	.byte	2
000013aa 4d454d4d4150   8734 	.strz	"MEMMAP_VENDOR_ID (30u)"
000013b0 5f56454e444f 
000013b6 525f49442028 
000013bc 3330752900 
000013c1 01             8735 	.byte	1
000013c2 08             8736 	.byte	8
000013c3 4d454d4d4150   8737 	.strz	"MEMMAP_AR_RELEASE_MAJOR_VERSION (4u)"
000013c9 5f41525f5245 
000013cf 4c454153455f 
000013d5 4d414a4f525f 
000013db 56455253494f 
000013e1 4e2028347529 
000013e7 00 
000013e8 01             8738 	.byte	1
000013e9 09             8739 	.byte	9
000013ea 4d454d4d4150   8740 	.strz	"MEMMAP_AR_RELEASE_MINOR_VERSION (0u)"
000013f0 5f41525f5245 
000013f6 4c454153455f 

                                                                      Page 172
                                                              C:\Users\nhuliyap\AppData\Local\Temp\gh_00006u41.s
000013fc 4d494e4f525f 
00001402 56455253494f 
00001408 4e2028307529 
0000140e 00 
0000140f 01             8741 	.byte	1
00001410 0a             8742 	.byte	10
00001411 4d454d4d4150   8743 	.strz	"MEMMAP_AR_RELEASE_REVISION_VERSION (3u)"
00001417 5f41525f5245 
0000141d 4c454153455f 
00001423 524556495349 
00001429 4f4e5f564552 
0000142f 53494f4e2028 
00001435 33752900 
00001439 01             8744 	.byte	1
0000143a 10             8745 	.byte	16
0000143b 4d454d5f4152   8746 	.strz	"MEM_AR_RELEASE_MAJOR_VERSION MEMMAP_AR_RELEASE_MAJOR_VERSION"
00001441 5f52454c4541 
00001447 53455f4d414a 
0000144d 4f525f564552 
00001453 53494f4e204d 
00001459 454d4d41505f 
0000145f 41525f52454c 
00001465 454153455f4d 
0000146b 414a4f525f56 
00001471 455253494f4e 
00001477 00 
00001478 01             8747 	.byte	1
00001479 11             8748 	.byte	17
0000147a 4d454d5f4152   8749 	.strz	"MEM_AR_RELEASE_MINOR_VERSION MEMMAP_AR_RELEASE_MINOR_VERSION"
00001480 5f52454c4541 
00001486 53455f4d494e 
0000148c 4f525f564552 
00001492 53494f4e204d 
00001498 454d4d41505f 
0000149e 41525f52454c 
000014a4 454153455f4d 
000014aa 494e4f525f56 
000014b0 455253494f4e 
000014b6 00 
000014b7 01             8750 	.byte	1
000014b8 12             8751 	.byte	18
000014b9 4d454d5f4152   8752 	.strz	"MEM_AR_RELEASE_PATCH_VERSION MEMMAP_AR_RELEASE_REVISION_VERSION"
000014bf 5f52454c4541 
000014c5 53455f504154 
000014cb 43485f564552 
000014d1 53494f4e204d 
000014d7 454d4d41505f 
000014dd 41525f52454c 
000014e3 454153455f52 
000014e9 45564953494f 
000014ef 4e5f56455253 
000014f5 494f4e00 
000014f9 01             8753 	.byte	1
000014fa 18             8754 	.byte	24
000014fb 4d454d4d4150   8755 	.strz	"MEMMAP_SW_MAJOR_VERSION (1u)"
00001501 5f53575f4d41 
00001507 4a4f525f5645 
0000150d 5253494f4e20 
00001513 2831752900 
00001518 01             8756 	.byte	1
00001519 19             8757 	.byte	25

                                                                      Page 173
                                                              C:\Users\nhuliyap\AppData\Local\Temp\gh_00006u41.s
0000151a 4d454d4d4150   8758 	.strz	"MEMMAP_SW_MINOR_VERSION (11u)"
00001520 5f53575f4d49 
00001526 4e4f525f5645 
0000152c 5253494f4e20 
00001532 283131752900 
00001538 01             8759 	.byte	1
00001539 1a             8760 	.byte	26
0000153a 4d454d4d4150   8761 	.strz	"MEMMAP_SW_PATCH_VERSION (0u)"
00001540 5f53575f5041 
00001546 5443485f5645 
0000154c 5253494f4e20 
00001552 2830752900 
00001557 01             8762 	.byte	1
00001558 20             8763 	.byte	32
00001559 4d454d5f5357   8764 	.strz	"MEM_SW_MAJOR_VERSION MEMMAP_SW_MAJOR_VERSION"
0000155f 5f4d414a4f52 
00001565 5f5645525349 
0000156b 4f4e204d454d 
00001571 4d41505f5357 
00001577 5f4d414a4f52 
0000157d 5f5645525349 
00001583 4f4e00 
00001586 01             8765 	.byte	1
00001587 21             8766 	.byte	33
00001588 4d454d5f5357   8767 	.strz	"MEM_SW_MINOR_VERSION MEMMAP_SW_MINOR_VERSION"
0000158e 5f4d494e4f52 
00001594 5f5645525349 
0000159a 4f4e204d454d 
000015a0 4d41505f5357 
000015a6 5f4d494e4f52 
000015ac 5f5645525349 
000015b2 4f4e00 
000015b5 01             8768 	.byte	1
000015b6 22             8769 	.byte	34
000015b7 4d454d5f5357   8770 	.strz	"MEM_SW_PATCH_VERSION MEMMAP_SW_PATCH_VERSION"
000015bd 5f5041544348 
000015c3 5f5645525349 
000015c9 4f4e204d454d 
000015cf 4d41505f5357 
000015d5 5f5041544348 
000015db 5f5645525349 
000015e1 4f4e00 
000015e4 01             8771 	.byte	1
000015e5 24             8772 	.byte	36
000015e6 4d454d4d4150   8773 	.strz	"MEMMAP_ERROR "
000015ec 5f4552524f52 
000015f2 2000 
000015f4 01             8774 	.byte	1
000015f5 f501           8775 	.byte	245,1
000015f7 53544f505f53   8776 	.strz	"STOP_SEC_CODE "
000015fd 45435f434f44 
00001603 452000 
00001606 03             8777 	.byte	3
00001607 f403           8778 	.byte	244,3
00001609 10             8779 	.byte	16
0000160a 04             8780 	.byte	4
0000160b 04             8781 	.byte	4
0000160c 01             8782 	.byte	1
0000160d a801           8783 	.byte	168,1
0000160f 464c535f5354   8784 	.strz	"FLS_START_SEC_DBTOC_DATA_UNSPECIFIED "
00001615 4152545f5345 

                                                                      Page 174
                                                              C:\Users\nhuliyap\AppData\Local\Temp\gh_00006u41.s
0000161b 435f4442544f 
00001621 435f44415441 
00001627 5f554e535045 
0000162d 434946494544 
00001633 2000 
00001635 03             8785 	.byte	3
00001636 a901           8786 	.byte	169,1
00001638 0f             8787 	.byte	15
00001639 01             8788 	.byte	1
0000163a 02             8789 	.byte	2
0000163b 4d454d4d4150   8790 	.strz	"MEMMAP_VENDOR_ID (30u)"
00001641 5f56454e444f 
00001647 525f49442028 
0000164d 3330752900 
00001652 01             8791 	.byte	1
00001653 08             8792 	.byte	8
00001654 4d454d4d4150   8793 	.strz	"MEMMAP_AR_RELEASE_MAJOR_VERSION (4u)"
0000165a 5f41525f5245 
00001660 4c454153455f 
00001666 4d414a4f525f 
0000166c 56455253494f 
00001672 4e2028347529 
00001678 00 
00001679 01             8794 	.byte	1
0000167a 09             8795 	.byte	9
0000167b 4d454d4d4150   8796 	.strz	"MEMMAP_AR_RELEASE_MINOR_VERSION (0u)"
00001681 5f41525f5245 
00001687 4c454153455f 
0000168d 4d494e4f525f 
00001693 56455253494f 
00001699 4e2028307529 
0000169f 00 
000016a0 01             8797 	.byte	1
000016a1 0a             8798 	.byte	10
000016a2 4d454d4d4150   8799 	.strz	"MEMMAP_AR_RELEASE_REVISION_VERSION (3u)"
000016a8 5f41525f5245 
000016ae 4c454153455f 
000016b4 524556495349 
000016ba 4f4e5f564552 
000016c0 53494f4e2028 
000016c6 33752900 
000016ca 01             8800 	.byte	1
000016cb 10             8801 	.byte	16
000016cc 4d454d5f4152   8802 	.strz	"MEM_AR_RELEASE_MAJOR_VERSION MEMMAP_AR_RELEASE_MAJOR_VERSION"
000016d2 5f52454c4541 
000016d8 53455f4d414a 
000016de 4f525f564552 
000016e4 53494f4e204d 
000016ea 454d4d41505f 
000016f0 41525f52454c 
000016f6 454153455f4d 
000016fc 414a4f525f56 
00001702 455253494f4e 
00001708 00 
00001709 01             8803 	.byte	1
0000170a 11             8804 	.byte	17
0000170b 4d454d5f4152   8805 	.strz	"MEM_AR_RELEASE_MINOR_VERSION MEMMAP_AR_RELEASE_MINOR_VERSION"
00001711 5f52454c4541 
00001717 53455f4d494e 
0000171d 4f525f564552 
00001723 53494f4e204d 

                                                                      Page 175
                                                              C:\Users\nhuliyap\AppData\Local\Temp\gh_00006u41.s
00001729 454d4d41505f 
0000172f 41525f52454c 
00001735 454153455f4d 
0000173b 494e4f525f56 
00001741 455253494f4e 
00001747 00 
00001748 01             8806 	.byte	1
00001749 12             8807 	.byte	18
0000174a 4d454d5f4152   8808 	.strz	"MEM_AR_RELEASE_PATCH_VERSION MEMMAP_AR_RELEASE_REVISION_VERSION"
00001750 5f52454c4541 
00001756 53455f504154 
0000175c 43485f564552 
00001762 53494f4e204d 
00001768 454d4d41505f 
0000176e 41525f52454c 
00001774 454153455f52 
0000177a 45564953494f 
00001780 4e5f56455253 
00001786 494f4e00 
0000178a 01             8809 	.byte	1
0000178b 18             8810 	.byte	24
0000178c 4d454d4d4150   8811 	.strz	"MEMMAP_SW_MAJOR_VERSION (1u)"
00001792 5f53575f4d41 
00001798 4a4f525f5645 
0000179e 5253494f4e20 
000017a4 2831752900 
000017a9 01             8812 	.byte	1
000017aa 19             8813 	.byte	25
000017ab 4d454d4d4150   8814 	.strz	"MEMMAP_SW_MINOR_VERSION (11u)"
000017b1 5f53575f4d49 
000017b7 4e4f525f5645 
000017bd 5253494f4e20 
000017c3 283131752900 
000017c9 01             8815 	.byte	1
000017ca 1a             8816 	.byte	26
000017cb 4d454d4d4150   8817 	.strz	"MEMMAP_SW_PATCH_VERSION (0u)"
000017d1 5f53575f5041 
000017d7 5443485f5645 
000017dd 5253494f4e20 
000017e3 2830752900 
000017e8 01             8818 	.byte	1
000017e9 20             8819 	.byte	32
000017ea 4d454d5f5357   8820 	.strz	"MEM_SW_MAJOR_VERSION MEMMAP_SW_MAJOR_VERSION"
000017f0 5f4d414a4f52 
000017f6 5f5645525349 
000017fc 4f4e204d454d 
00001802 4d41505f5357 
00001808 5f4d414a4f52 
0000180e 5f5645525349 
00001814 4f4e00 
00001817 01             8821 	.byte	1
00001818 21             8822 	.byte	33
00001819 4d454d5f5357   8823 	.strz	"MEM_SW_MINOR_VERSION MEMMAP_SW_MINOR_VERSION"
0000181f 5f4d494e4f52 
00001825 5f5645525349 
0000182b 4f4e204d454d 
00001831 4d41505f5357 
00001837 5f4d494e4f52 
0000183d 5f5645525349 
00001843 4f4e00 
00001846 01             8824 	.byte	1

                                                                      Page 176
                                                              C:\Users\nhuliyap\AppData\Local\Temp\gh_00006u41.s
00001847 22             8825 	.byte	34
00001848 4d454d5f5357   8826 	.strz	"MEM_SW_PATCH_VERSION MEMMAP_SW_PATCH_VERSION"
0000184e 5f5041544348 
00001854 5f5645525349 
0000185a 4f4e204d454d 
00001860 4d41505f5357 
00001866 5f5041544348 
0000186c 5f5645525349 
00001872 4f4e00 
00001875 01             8827 	.byte	1
00001876 24             8828 	.byte	36
00001877 4d454d4d4150   8829 	.strz	"MEMMAP_ERROR "
0000187d 5f4552524f52 
00001883 2000 
00001885 01             8830 	.byte	1
00001886 dd02           8831 	.byte	221,2
00001888 53544152545f   8832 	.strz	"START_SEC_CONST_UNSPECIFIED "
0000188e 5345435f434f 
00001894 4e53545f554e 
0000189a 535045434946 
000018a0 4945442000 
000018a5 03             8833 	.byte	3
000018a6 f403           8834 	.byte	244,3
000018a8 10             8835 	.byte	16
000018a9 01             8836 	.byte	1
000018aa b408           8837 	.byte	180,8
000018ac 434f4e53545f   8838 	.strz	"CONST_SEC_OPEN "
000018b2 5345435f4f50 
000018b8 454e2000 
000018bc 04             8839 	.byte	4
000018bd 04             8840 	.byte	4
000018be 01             8841 	.byte	1
000018bf ab01           8842 	.byte	171,1
000018c1 464c535f5354   8843 	.strz	"FLS_STOP_SEC_DBTOC_DATA_UNSPECIFIED "
000018c7 4f505f534543 
000018cd 5f4442544f43 
000018d3 5f444154415f 
000018d9 554e53504543 
000018df 494649454420 
000018e5 00 
000018e6 03             8844 	.byte	3
000018e7 ac01           8845 	.byte	172,1
000018e9 0f             8846 	.byte	15
000018ea 01             8847 	.byte	1
000018eb 24             8848 	.byte	36
000018ec 4d454d4d4150   8849 	.strz	"MEMMAP_ERROR "
000018f2 5f4552524f52 
000018f8 2000 
000018fa 01             8850 	.byte	1
000018fb e102           8851 	.byte	225,2
000018fd 53544f505f53   8852 	.strz	"STOP_SEC_CONST "
00001903 45435f434f4e 
00001909 53542000 
0000190d 03             8853 	.byte	3
0000190e f403           8854 	.byte	244,3
00001910 10             8855 	.byte	16
00001911 04             8856 	.byte	4
00001912 04             8857 	.byte	4
00001913 04             8858 	.byte	4
00001914 03             8859 	.byte	3
00001915 05             8860 	.byte	5

                                                                      Page 177
                                                              C:\Users\nhuliyap\AppData\Local\Temp\gh_00006u41.s
00001916 14             8861 	.byte	20
00001917 03             8862 	.byte	3
00001918 1a             8863 	.byte	26
00001919 15             8864 	.byte	21
0000191a 03             8865 	.byte	3
0000191b 24             8866 	.byte	36
0000191c 16             8867 	.byte	22
0000191d 03             8868 	.byte	3
0000191e 06             8869 	.byte	6
0000191f 17             8870 	.byte	23
00001920 03             8871 	.byte	3
00001921 15             8872 	.byte	21
00001922 18             8873 	.byte	24
00001923 04             8874 	.byte	4
00001924 01             8875 	.byte	1
00001925 e401           8876 	.byte	228,1
00001927 4f535f535441   8877 	.strz	"OS_START_SEC_CODE_LIB "
0000192d 52545f534543 
00001933 5f434f44455f 
00001939 4c49422000 
0000193e 03             8878 	.byte	3
0000193f e501           8879 	.byte	229,1
00001941 19             8880 	.byte	25
00001942 04             8881 	.byte	4
00001943 01             8882 	.byte	1
00001944 ea01           8883 	.byte	234,1
00001946 4f535f53544f   8884 	.strz	"OS_STOP_SEC_CODE_LIB "
0000194c 505f5345435f 
00001952 434f44455f4c 
00001958 49422000 
0000195c 03             8885 	.byte	3
0000195d eb01           8886 	.byte	235,1
0000195f 19             8887 	.byte	25
00001960 04             8888 	.byte	4
00001961 01             8889 	.byte	1
00001962 ee01           8890 	.byte	238,1
00001964 4f535f564f4c   8891 	.strz	"OS_VOLATILE volatile"
0000196a 4154494c4520 
00001970 766f6c617469 
00001976 6c6500 
00001979 01             8892 	.byte	1
0000197a a003           8893 	.byte	160,3
0000197c 4465636c6172   8894 	.strz	"DeclareISR(x) "
00001982 654953522878 
00001988 292000 
0000198b 01             8895 	.byte	1
0000198c c803           8896 	.byte	200,3
0000198e 4465636c6172   8897 	.strz	"DeclareTask(x) "
00001994 655461736b28 
0000199a 78292000 
0000199e 01             8898 	.byte	1
0000199f ee03           8899 	.byte	238,3
000019a1 4465636c6172   8900 	.strz	"DeclareAlarm(x) "
000019a7 65416c61726d 
000019ad 2878292000 
000019b2 01             8901 	.byte	1
000019b3 9104           8902 	.byte	145,4
000019b5 4465636c6172   8903 	.strz	"DeclareCounter(x) "
000019bb 65436f756e74 
000019c1 657228782920 
000019c7 00 

                                                                      Page 178
                                                              C:\Users\nhuliyap\AppData\Local\Temp\gh_00006u41.s
000019c8 01             8904 	.byte	1
000019c9 a206           8905 	.byte	162,6
000019cb 4f535f535441   8906 	.strz	"OS_START_SEC_OS_CBK_TRACECOMMDATAREADY_CODE "
000019d1 52545f534543 
000019d7 5f4f535f4342 
000019dd 4b5f54524143 
000019e3 45434f4d4d44 
000019e9 415441524541 
000019ef 44595f434f44 
000019f5 452000 
000019f8 03             8907 	.byte	3
000019f9 a306           8908 	.byte	163,6
000019fb 19             8909 	.byte	25
000019fc 04             8910 	.byte	4
000019fd 01             8911 	.byte	1
000019fe a506           8912 	.byte	165,6
00001a00 4f535f53544f   8913 	.strz	"OS_STOP_SEC_OS_CBK_TRACECOMMDATAREADY_CODE "
00001a06 505f5345435f 
00001a0c 4f535f43424b 
00001a12 5f5452414345 
00001a18 434f4d4d4441 
00001a1e 544152454144 
00001a24 595f434f4445 
00001a2a 2000 
00001a2c 03             8914 	.byte	3
00001a2d a606           8915 	.byte	166,6
00001a2f 19             8916 	.byte	25
00001a30 04             8917 	.byte	4
00001a31 01             8918 	.byte	1
00001a32 a806           8919 	.byte	168,6
00001a34 4f535f535441   8920 	.strz	"OS_START_SEC_OS_CBK_TRACECOMMINITTARGET_CODE "
00001a3a 52545f534543 
00001a40 5f4f535f4342 
00001a46 4b5f54524143 
00001a4c 45434f4d4d49 
00001a52 4e4954544152 
00001a58 4745545f434f 
00001a5e 44452000 
00001a62 03             8921 	.byte	3
00001a63 a906           8922 	.byte	169,6
00001a65 19             8923 	.byte	25
00001a66 04             8924 	.byte	4
00001a67 01             8925 	.byte	1
00001a68 ab06           8926 	.byte	171,6
00001a6a 4f535f53544f   8927 	.strz	"OS_STOP_SEC_OS_CBK_TRACECOMMINITTARGET_CODE "
00001a70 505f5345435f 
00001a76 4f535f43424b 
00001a7c 5f5452414345 
00001a82 434f4d4d494e 
00001a88 495454415247 
00001a8e 45545f434f44 
00001a94 452000 
00001a97 03             8928 	.byte	3
00001a98 ac06           8929 	.byte	172,6
00001a9a 19             8930 	.byte	25
00001a9b 04             8931 	.byte	4
00001a9c 01             8932 	.byte	1
00001a9d ae06           8933 	.byte	174,6
00001a9f 4f535f535441   8934 	.strz	"OS_START_SEC_OS_CBK_TRACECOMMTXBYTE_CODE "
00001aa5 52545f534543 
00001aab 5f4f535f4342 

                                                                      Page 179
                                                              C:\Users\nhuliyap\AppData\Local\Temp\gh_00006u41.s
00001ab1 4b5f54524143 
00001ab7 45434f4d4d54 
00001abd 58425954455f 
00001ac3 434f44452000 
00001ac9 03             8935 	.byte	3
00001aca af06           8936 	.byte	175,6
00001acc 19             8937 	.byte	25
00001acd 04             8938 	.byte	4
00001ace 01             8939 	.byte	1
00001acf b106           8940 	.byte	177,6
00001ad1 4f535f53544f   8941 	.strz	"OS_STOP_SEC_OS_CBK_TRACECOMMTXBYTE_CODE "
00001ad7 505f5345435f 
00001add 4f535f43424b 
00001ae3 5f5452414345 
00001ae9 434f4d4d5458 
00001aef 425954455f43 
00001af5 4f44452000 
00001afa 03             8942 	.byte	3
00001afb b206           8943 	.byte	178,6
00001afd 19             8944 	.byte	25
00001afe 04             8945 	.byte	4
00001aff 01             8946 	.byte	1
00001b00 b406           8947 	.byte	180,6
00001b02 4f535f535441   8948 	.strz	"OS_START_SEC_OS_CBK_TRACECOMMTXEND_CODE "
00001b08 52545f534543 
00001b0e 5f4f535f4342 
00001b14 4b5f54524143 
00001b1a 45434f4d4d54 
00001b20 58454e445f43 
00001b26 4f44452000 
00001b2b 03             8949 	.byte	3
00001b2c b506           8950 	.byte	181,6
00001b2e 19             8951 	.byte	25
00001b2f 04             8952 	.byte	4
00001b30 01             8953 	.byte	1
00001b31 b706           8954 	.byte	183,6
00001b33 4f535f53544f   8955 	.strz	"OS_STOP_SEC_OS_CBK_TRACECOMMTXEND_CODE "
00001b39 505f5345435f 
00001b3f 4f535f43424b 
00001b45 5f5452414345 
00001b4b 434f4d4d5458 
00001b51 454e445f434f 
00001b57 44452000 
00001b5b 03             8956 	.byte	3
00001b5c b806           8957 	.byte	184,6
00001b5e 19             8958 	.byte	25
00001b5f 04             8959 	.byte	4
00001b60 01             8960 	.byte	1
00001b61 ba06           8961 	.byte	186,6
00001b63 4f535f535441   8962 	.strz	"OS_START_SEC_OS_CBK_TRACECOMMTXREADY_CODE "
00001b69 52545f534543 
00001b6f 5f4f535f4342 
00001b75 4b5f54524143 
00001b7b 45434f4d4d54 
00001b81 585245414459 
00001b87 5f434f444520 
00001b8d 00 
00001b8e 03             8963 	.byte	3
00001b8f bb06           8964 	.byte	187,6
00001b91 19             8965 	.byte	25
00001b92 04             8966 	.byte	4

                                                                      Page 180
                                                              C:\Users\nhuliyap\AppData\Local\Temp\gh_00006u41.s
00001b93 01             8967 	.byte	1
00001b94 bd06           8968 	.byte	189,6
00001b96 4f535f53544f   8969 	.strz	"OS_STOP_SEC_OS_CBK_TRACECOMMTXREADY_CODE "
00001b9c 505f5345435f 
00001ba2 4f535f43424b 
00001ba8 5f5452414345 
00001bae 434f4d4d5458 
00001bb4 52454144595f 
00001bba 434f44452000 
00001bc0 03             8970 	.byte	3
00001bc1 be06           8971 	.byte	190,6
00001bc3 19             8972 	.byte	25
00001bc4 04             8973 	.byte	4
00001bc5 01             8974 	.byte	1
00001bc6 c006           8975 	.byte	192,6
00001bc8 4f535f535441   8976 	.strz	"OS_START_SEC_OS_CBK_TRACECOMMTXSTART_CODE "
00001bce 52545f534543 
00001bd4 5f4f535f4342 
00001bda 4b5f54524143 
00001be0 45434f4d4d54 
00001be6 585354415254 
00001bec 5f434f444520 
00001bf2 00 
00001bf3 03             8977 	.byte	3
00001bf4 c106           8978 	.byte	193,6
00001bf6 19             8979 	.byte	25
00001bf7 04             8980 	.byte	4
00001bf8 01             8981 	.byte	1
00001bf9 c306           8982 	.byte	195,6
00001bfb 4f535f53544f   8983 	.strz	"OS_STOP_SEC_OS_CBK_TRACECOMMTXSTART_CODE "
00001c01 505f5345435f 
00001c07 4f535f43424b 
00001c0d 5f5452414345 
00001c13 434f4d4d5458 
00001c19 53544152545f 
00001c1f 434f44452000 
00001c25 03             8984 	.byte	3
00001c26 c406           8985 	.byte	196,6
00001c28 19             8986 	.byte	25
00001c29 04             8987 	.byte	4
00001c2a 01             8988 	.byte	1
00001c2b c606           8989 	.byte	198,6
00001c2d 4f535f535441   8990 	.strz	"OS_START_SEC_CODE_LIB "
00001c33 52545f534543 
00001c39 5f434f44455f 
00001c3f 4c49422000 
00001c44 03             8991 	.byte	3
00001c45 c706           8992 	.byte	199,6
00001c47 19             8993 	.byte	25
00001c48 04             8994 	.byte	4
00001c49 01             8995 	.byte	1
00001c4a 9307           8996 	.byte	147,7
00001c4c 4f535f53544f   8997 	.strz	"OS_STOP_SEC_CODE_LIB "
00001c52 505f5345435f 
00001c58 434f44455f4c 
00001c5e 49422000 
00001c62 03             8998 	.byte	3
00001c63 9407           8999 	.byte	148,7
00001c65 19             9000 	.byte	25
00001c66 04             9001 	.byte	4
00001c67 01             9002 	.byte	1

                                                                      Page 181
                                                              C:\Users\nhuliyap\AppData\Local\Temp\gh_00006u41.s
00001c68 9607           9003 	.byte	150,7
00001c6a 4f535f535441   9004 	.strz	"OS_START_SEC_CONST_FAST_UNSPECIFIED "
00001c70 52545f534543 
00001c76 5f434f4e5354 
00001c7c 5f464153545f 
00001c82 554e53504543 
00001c88 494649454420 
00001c8e 00 
00001c8f 03             9005 	.byte	3
00001c90 9707           9006 	.byte	151,7
00001c92 19             9007 	.byte	25
00001c93 04             9008 	.byte	4
00001c94 01             9009 	.byte	1
00001c95 9f07           9010 	.byte	159,7
00001c97 4f535f53544f   9011 	.strz	"OS_STOP_SEC_CONST_FAST_UNSPECIFIED "
00001c9d 505f5345435f 
00001ca3 434f4e53545f 
00001ca9 464153545f55 
00001caf 4e5350454349 
00001cb5 464945442000 
00001cbb 03             9012 	.byte	3
00001cbc a007           9013 	.byte	160,7
00001cbe 19             9014 	.byte	25
00001cbf 04             9015 	.byte	4
00001cc0 01             9016 	.byte	1
00001cc1 a207           9017 	.byte	162,7
00001cc3 4f535f535441   9018 	.strz	"OS_START_SEC_CONST_UNSPECIFIED "
00001cc9 52545f534543 
00001ccf 5f434f4e5354 
00001cd5 5f554e535045 
00001cdb 434946494544 
00001ce1 2000 
00001ce3 03             9019 	.byte	3
00001ce4 a307           9020 	.byte	163,7
00001ce6 19             9021 	.byte	25
00001ce7 04             9022 	.byte	4
00001ce8 01             9023 	.byte	1
00001ce9 a507           9024 	.byte	165,7
00001ceb 4f535f53544f   9025 	.strz	"OS_STOP_SEC_CONST_UNSPECIFIED "
00001cf1 505f5345435f 
00001cf7 434f4e53545f 
00001cfd 554e53504543 
00001d03 494649454420 
00001d09 00 
00001d0a 03             9026 	.byte	3
00001d0b a607           9027 	.byte	166,7
00001d0d 19             9028 	.byte	25
00001d0e 04             9029 	.byte	4
00001d0f 01             9030 	.byte	1
00001d10 a807           9031 	.byte	168,7
00001d12 4f535f535441   9032 	.strz	"OS_START_SEC_ERRORHOOK_CODE "
00001d18 52545f534543 
00001d1e 5f4552524f52 
00001d24 484f4f4b5f43 
00001d2a 4f44452000 
00001d2f 03             9033 	.byte	3
00001d30 a907           9034 	.byte	169,7
00001d32 19             9035 	.byte	25
00001d33 04             9036 	.byte	4
00001d34 01             9037 	.byte	1
00001d35 ab07           9038 	.byte	171,7

                                                                      Page 182
                                                              C:\Users\nhuliyap\AppData\Local\Temp\gh_00006u41.s
00001d37 4f535f53544f   9039 	.strz	"OS_STOP_SEC_ERRORHOOK_CODE "
00001d3d 505f5345435f 
00001d43 4552524f5248 
00001d49 4f4f4b5f434f 
00001d4f 44452000 
00001d53 03             9040 	.byte	3
00001d54 ac07           9041 	.byte	172,7
00001d56 19             9042 	.byte	25
00001d57 04             9043 	.byte	4
00001d58 01             9044 	.byte	1
00001d59 ae07           9045 	.byte	174,7
00001d5b 4f535f535441   9046 	.strz	"OS_START_SEC_OS_CBK_CHECKMEMORYACCESS_CODE "
00001d61 52545f534543 
00001d67 5f4f535f4342 
00001d6d 4b5f43484543 
00001d73 4b4d454d4f52 
00001d79 594143434553 
00001d7f 535f434f4445 
00001d85 2000 
00001d87 03             9047 	.byte	3
00001d88 af07           9048 	.byte	175,7
00001d8a 19             9049 	.byte	25
00001d8b 04             9050 	.byte	4
00001d8c 01             9051 	.byte	1
00001d8d b107           9052 	.byte	177,7
00001d8f 4f535f53544f   9053 	.strz	"OS_STOP_SEC_OS_CBK_CHECKMEMORYACCESS_CODE "
00001d95 505f5345435f 
00001d9b 4f535f43424b 
00001da1 5f434845434b 
00001da7 4d454d4f5259 
00001dad 414343455353 
00001db3 5f434f444520 
00001db9 00 
00001dba 03             9054 	.byte	3
00001dbb b207           9055 	.byte	178,7
00001dbd 19             9056 	.byte	25
00001dbe 04             9057 	.byte	4
00001dbf 01             9058 	.byte	1
00001dc0 b407           9059 	.byte	180,7
00001dc2 4f535f535441   9060 	.strz	"OS_START_SEC_OS_CBK_CHECKSTACKDEPTH_CODE "
00001dc8 52545f534543 
00001dce 5f4f535f4342 
00001dd4 4b5f43484543 
00001dda 4b535441434b 
00001de0 44455054485f 
00001de6 434f44452000 
00001dec 03             9061 	.byte	3
00001ded b507           9062 	.byte	181,7
00001def 19             9063 	.byte	25
00001df0 04             9064 	.byte	4
00001df1 01             9065 	.byte	1
00001df2 b707           9066 	.byte	183,7
00001df4 4f535f53544f   9067 	.strz	"OS_STOP_SEC_OS_CBK_CHECKSTACKDEPTH_CODE "
00001dfa 505f5345435f 
00001e00 4f535f43424b 
00001e06 5f434845434b 
00001e0c 535441434b44 
00001e12 455054485f43 
00001e18 4f44452000 
00001e1d 03             9068 	.byte	3
00001e1e b807           9069 	.byte	184,7

                                                                      Page 183
                                                              C:\Users\nhuliyap\AppData\Local\Temp\gh_00006u41.s
00001e20 19             9070 	.byte	25
00001e21 04             9071 	.byte	4
00001e22 01             9072 	.byte	1
00001e23 ba07           9073 	.byte	186,7
00001e25 4f535f535441   9074 	.strz	"OS_START_SEC_OS_CBK_GETSTOPWATCH_CODE "
00001e2b 52545f534543 
00001e31 5f4f535f4342 
00001e37 4b5f47455453 
00001e3d 544f50574154 
00001e43 43485f434f44 
00001e49 452000 
00001e4c 03             9075 	.byte	3
00001e4d bb07           9076 	.byte	187,7
00001e4f 19             9077 	.byte	25
00001e50 04             9078 	.byte	4
00001e51 01             9079 	.byte	1
00001e52 bf07           9080 	.byte	191,7
00001e54 4f535f53544f   9081 	.strz	"OS_STOP_SEC_OS_CBK_GETSTOPWATCH_CODE "
00001e5a 505f5345435f 
00001e60 4f535f43424b 
00001e66 5f4745545354 
00001e6c 4f5057415443 
00001e72 485f434f4445 
00001e78 2000 
00001e7a 03             9082 	.byte	3
00001e7b c007           9083 	.byte	192,7
00001e7d 19             9084 	.byte	25
00001e7e 04             9085 	.byte	4
00001e7f 01             9086 	.byte	1
00001e80 c207           9087 	.byte	194,7
00001e82 4f535f535441   9088 	.strz	"OS_START_SEC_OS_CBK_IDLE_CODE "
00001e88 52545f534543 
00001e8e 5f4f535f4342 
00001e94 4b5f49444c45 
00001e9a 5f434f444520 
00001ea0 00 
00001ea1 03             9089 	.byte	3
00001ea2 c307           9090 	.byte	195,7
00001ea4 19             9091 	.byte	25
00001ea5 04             9092 	.byte	4
00001ea6 01             9093 	.byte	1
00001ea7 c507           9094 	.byte	197,7
00001ea9 4f535f53544f   9095 	.strz	"OS_STOP_SEC_OS_CBK_IDLE_CODE "
00001eaf 505f5345435f 
00001eb5 4f535f43424b 
00001ebb 5f49444c455f 
00001ec1 434f44452000 
00001ec7 03             9096 	.byte	3
00001ec8 c607           9097 	.byte	198,7
00001eca 19             9098 	.byte	25
00001ecb 04             9099 	.byte	4
00001ecc 01             9100 	.byte	1
00001ecd c807           9101 	.byte	200,7
00001ecf 4f535f535441   9102 	.strz	"OS_START_SEC_OS_CBK_INSHUTDOWN_CODE "
00001ed5 52545f534543 
00001edb 5f4f535f4342 
00001ee1 4b5f494e5348 
00001ee7 5554444f574e 
00001eed 5f434f444520 
00001ef3 00 
00001ef4 03             9103 	.byte	3

                                                                      Page 184
                                                              C:\Users\nhuliyap\AppData\Local\Temp\gh_00006u41.s
00001ef5 c907           9104 	.byte	201,7
00001ef7 19             9105 	.byte	25
00001ef8 04             9106 	.byte	4
00001ef9 01             9107 	.byte	1
00001efa cb07           9108 	.byte	203,7
00001efc 4f535f53544f   9109 	.strz	"OS_STOP_SEC_OS_CBK_INSHUTDOWN_CODE "
00001f02 505f5345435f 
00001f08 4f535f43424b 
00001f0e 5f494e534855 
00001f14 54444f574e5f 
00001f1a 434f44452000 
00001f20 03             9110 	.byte	3
00001f21 cc07           9111 	.byte	204,7
00001f23 19             9112 	.byte	25
00001f24 04             9113 	.byte	4
00001f25 01             9114 	.byte	1
00001f26 ce07           9115 	.byte	206,7
00001f28 4f535f535441   9116 	.strz	"OS_START_SEC_OS_CBK_STACKOVERRUNHOOK_CODE "
00001f2e 52545f534543 
00001f34 5f4f535f4342 
00001f3a 4b5f53544143 
00001f40 4b4f56455252 
00001f46 554e484f4f4b 
00001f4c 5f434f444520 
00001f52 00 
00001f53 03             9117 	.byte	3
00001f54 cf07           9118 	.byte	207,7
00001f56 19             9119 	.byte	25
00001f57 04             9120 	.byte	4
00001f58 01             9121 	.byte	1
00001f59 d107           9122 	.byte	209,7
00001f5b 4f535f53544f   9123 	.strz	"OS_STOP_SEC_OS_CBK_STACKOVERRUNHOOK_CODE "
00001f61 505f5345435f 
00001f67 4f535f43424b 
00001f6d 5f535441434b 
00001f73 4f5645525255 
00001f79 4e484f4f4b5f 
00001f7f 434f44452000 
00001f85 03             9124 	.byte	3
00001f86 d207           9125 	.byte	210,7
00001f88 19             9126 	.byte	25
00001f89 04             9127 	.byte	4
00001f8a 01             9128 	.byte	1
00001f8b d407           9129 	.byte	212,7
00001f8d 4f535f535441   9130 	.strz	"OS_START_SEC_OS_CBK_TIMEOVERRUNHOOK_CODE "
00001f93 52545f534543 
00001f99 5f4f535f4342 
00001f9f 4b5f54494d45 
00001fa5 4f5645525255 
00001fab 4e484f4f4b5f 
00001fb1 434f44452000 
00001fb7 03             9131 	.byte	3
00001fb8 d507           9132 	.byte	213,7
00001fba 19             9133 	.byte	25
00001fbb 04             9134 	.byte	4
00001fbc 01             9135 	.byte	1
00001fbd d707           9136 	.byte	215,7
00001fbf 4f535f53544f   9137 	.strz	"OS_STOP_SEC_OS_CBK_TIMEOVERRUNHOOK_CODE "
00001fc5 505f5345435f 
00001fcb 4f535f43424b 
00001fd1 5f54494d454f 

                                                                      Page 185
                                                              C:\Users\nhuliyap\AppData\Local\Temp\gh_00006u41.s
00001fd7 56455252554e 
00001fdd 484f4f4b5f43 
00001fe3 4f44452000 
00001fe8 03             9138 	.byte	3
00001fe9 d807           9139 	.byte	216,7
00001feb 19             9140 	.byte	25
00001fec 04             9141 	.byte	4
00001fed 01             9142 	.byte	1
00001fee da07           9143 	.byte	218,7
00001ff0 4f535f535441   9144 	.strz	"OS_START_SEC_POSTTASKHOOK_CODE "
00001ff6 52545f534543 
00001ffc 5f504f535454 
00002002 41534b484f4f 
00002008 4b5f434f4445 
0000200e 2000 
00002010 03             9145 	.byte	3
00002011 db07           9146 	.byte	219,7
00002013 19             9147 	.byte	25
00002014 04             9148 	.byte	4
00002015 01             9149 	.byte	1
00002016 dd07           9150 	.byte	221,7
00002018 4f535f53544f   9151 	.strz	"OS_STOP_SEC_POSTTASKHOOK_CODE "
0000201e 505f5345435f 
00002024 504f53545441 
0000202a 534b484f4f4b 
00002030 5f434f444520 
00002036 00 
00002037 03             9152 	.byte	3
00002038 de07           9153 	.byte	222,7
0000203a 19             9154 	.byte	25
0000203b 04             9155 	.byte	4
0000203c 01             9156 	.byte	1
0000203d e007           9157 	.byte	224,7
0000203f 4f535f535441   9158 	.strz	"OS_START_SEC_PRETASKHOOK_CODE "
00002045 52545f534543 
0000204b 5f5052455441 
00002051 534b484f4f4b 
00002057 5f434f444520 
0000205d 00 
0000205e 03             9159 	.byte	3
0000205f e107           9160 	.byte	225,7
00002061 19             9161 	.byte	25
00002062 04             9162 	.byte	4
00002063 01             9163 	.byte	1
00002064 e307           9164 	.byte	227,7
00002066 4f535f53544f   9165 	.strz	"OS_STOP_SEC_PRETASKHOOK_CODE "
0000206c 505f5345435f 
00002072 505245544153 
00002078 4b484f4f4b5f 
0000207e 434f44452000 
00002084 03             9166 	.byte	3
00002085 e407           9167 	.byte	228,7
00002087 19             9168 	.byte	25
00002088 04             9169 	.byte	4
00002089 01             9170 	.byte	1
0000208a e607           9171 	.byte	230,7
0000208c 4f535f535441   9172 	.strz	"OS_START_SEC_PROTECTIONHOOK_CODE "
00002092 52545f534543 
00002098 5f50524f5445 
0000209e 4354494f4e48 
000020a4 4f4f4b5f434f 

                                                                      Page 186
                                                              C:\Users\nhuliyap\AppData\Local\Temp\gh_00006u41.s
000020aa 44452000 
000020ae 03             9173 	.byte	3
000020af e707           9174 	.byte	231,7
000020b1 19             9175 	.byte	25
000020b2 04             9176 	.byte	4
000020b3 01             9177 	.byte	1
000020b4 e907           9178 	.byte	233,7
000020b6 4f535f53544f   9179 	.strz	"OS_STOP_SEC_PROTECTIONHOOK_CODE "
000020bc 505f5345435f 
000020c2 50524f544543 
000020c8 54494f4e484f 
000020ce 4f4b5f434f44 
000020d4 452000 
000020d7 03             9180 	.byte	3
000020d8 ea07           9181 	.byte	234,7
000020da 19             9182 	.byte	25
000020db 04             9183 	.byte	4
000020dc 01             9184 	.byte	1
000020dd ec07           9185 	.byte	236,7
000020df 4f535f535441   9186 	.strz	"OS_START_SEC_SHUTDOWNHOOK_CODE "
000020e5 52545f534543 
000020eb 5f5348555444 
000020f1 4f574e484f4f 
000020f7 4b5f434f4445 
000020fd 2000 
000020ff 03             9187 	.byte	3
00002100 ed07           9188 	.byte	237,7
00002102 19             9189 	.byte	25
00002103 04             9190 	.byte	4
00002104 01             9191 	.byte	1
00002105 ef07           9192 	.byte	239,7
00002107 4f535f53544f   9193 	.strz	"OS_STOP_SEC_SHUTDOWNHOOK_CODE "
0000210d 505f5345435f 
00002113 53485554444f 
00002119 574e484f4f4b 
0000211f 5f434f444520 
00002125 00 
00002126 03             9194 	.byte	3
00002127 f007           9195 	.byte	240,7
00002129 19             9196 	.byte	25
0000212a 04             9197 	.byte	4
0000212b 01             9198 	.byte	1
0000212c f207           9199 	.byte	242,7
0000212e 4f535f535441   9200 	.strz	"OS_START_SEC_STARTUPHOOK_CODE "
00002134 52545f534543 
0000213a 5f5354415254 
00002140 5550484f4f4b 
00002146 5f434f444520 
0000214c 00 
0000214d 03             9201 	.byte	3
0000214e f307           9202 	.byte	243,7
00002150 19             9203 	.byte	25
00002151 04             9204 	.byte	4
00002152 01             9205 	.byte	1
00002153 f507           9206 	.byte	245,7
00002155 4f535f53544f   9207 	.strz	"OS_STOP_SEC_STARTUPHOOK_CODE "
0000215b 505f5345435f 
00002161 535441525455 
00002167 50484f4f4b5f 
0000216d 434f44452000 
00002173 03             9208 	.byte	3

                                                                      Page 187
                                                              C:\Users\nhuliyap\AppData\Local\Temp\gh_00006u41.s
00002174 f607           9209 	.byte	246,7
00002176 19             9210 	.byte	25
00002177 04             9211 	.byte	4
00002178 01             9212 	.byte	1
00002179 f807           9213 	.byte	248,7
0000217b 4f535f535441   9214 	.strz	"OS_START_SEC_VAR_CLEARED_UNSPECIFIED "
00002181 52545f534543 
00002187 5f5641525f43 
0000218d 4c4541524544 
00002193 5f554e535045 
00002199 434946494544 
0000219f 2000 
000021a1 03             9215 	.byte	3
000021a2 f907           9216 	.byte	249,7
000021a4 19             9217 	.byte	25
000021a5 04             9218 	.byte	4
000021a6 01             9219 	.byte	1
000021a7 ff07           9220 	.byte	255,7
000021a9 4f535f53544f   9221 	.strz	"OS_STOP_SEC_VAR_CLEARED_UNSPECIFIED "
000021af 505f5345435f 
000021b5 5641525f434c 
000021bb 45415245445f 
000021c1 554e53504543 
000021c7 494649454420 
000021cd 00 
000021ce 03             9222 	.byte	3
000021cf 8008           9223 	.byte	128,8
000021d1 19             9224 	.byte	25
000021d2 04             9225 	.byte	4
000021d3 01             9226 	.byte	1
000021d4 8208           9227 	.byte	130,8
000021d6 4f535f535441   9228 	.strz	"OS_START_SEC_VAR_NO_INIT_UNSPECIFIED "
000021dc 52545f534543 
000021e2 5f5641525f4e 
000021e8 4f5f494e4954 
000021ee 5f554e535045 
000021f4 434946494544 
000021fa 2000 
000021fc 03             9229 	.byte	3
000021fd 8308           9230 	.byte	131,8
000021ff 19             9231 	.byte	25
00002200 04             9232 	.byte	4
00002201 01             9233 	.byte	1
00002202 9308           9234 	.byte	147,8
00002204 4f535f53544f   9235 	.strz	"OS_STOP_SEC_VAR_NO_INIT_UNSPECIFIED "
0000220a 505f5345435f 
00002210 5641525f4e4f 
00002216 5f494e49545f 
0000221c 554e53504543 
00002222 494649454420 
00002228 00 
00002229 03             9236 	.byte	3
0000222a 9408           9237 	.byte	148,8
0000222c 19             9238 	.byte	25
0000222d 04             9239 	.byte	4
0000222e 03             9240 	.byte	3
0000222f 9608           9241 	.byte	150,8
00002231 1a             9242 	.byte	26
00002232 01             9243 	.byte	1
00002233 2e             9244 	.byte	46
00002234 4f535f535441   9245 	.strz	"OS_START_SEC_CODE_LIB "

                                                                      Page 188
                                                              C:\Users\nhuliyap\AppData\Local\Temp\gh_00006u41.s
0000223a 52545f534543 
00002240 5f434f44455f 
00002246 4c49422000 
0000224b 03             9246 	.byte	3
0000224c 2f             9247 	.byte	47
0000224d 19             9248 	.byte	25
0000224e 04             9249 	.byte	4
0000224f 01             9250 	.byte	1
00002250 47             9251 	.byte	71
00002251 4f535f53544f   9252 	.strz	"OS_STOP_SEC_CODE_LIB "
00002257 505f5345435f 
0000225d 434f44455f4c 
00002263 49422000 
00002267 03             9253 	.byte	3
00002268 48             9254 	.byte	72
00002269 19             9255 	.byte	25
0000226a 04             9256 	.byte	4
0000226b 01             9257 	.byte	1
0000226c 4a             9258 	.byte	74
0000226d 4f535f535441   9259 	.strz	"OS_START_SEC_ERRORHOOK_HUFTPMS_CODE "
00002273 52545f534543 
00002279 5f4552524f52 
0000227f 484f4f4b5f48 
00002285 554654504d53 
0000228b 5f434f444520 
00002291 00 
00002292 03             9260 	.byte	3
00002293 4b             9261 	.byte	75
00002294 19             9262 	.byte	25
00002295 04             9263 	.byte	4
00002296 01             9264 	.byte	1
00002297 4f             9265 	.byte	79
00002298 4f535f53544f   9266 	.strz	"OS_STOP_SEC_ERRORHOOK_HUFTPMS_CODE "
0000229e 505f5345435f 
000022a4 4552524f5248 
000022aa 4f4f4b5f4855 
000022b0 4654504d535f 
000022b6 434f44452000 
000022bc 03             9267 	.byte	3
000022bd 50             9268 	.byte	80
000022be 19             9269 	.byte	25
000022bf 04             9270 	.byte	4
000022c0 01             9271 	.byte	1
000022c1 52             9272 	.byte	82
000022c2 4f535f535441   9273 	.strz	"OS_START_SEC_OS_CBK_ALARM_CB_ALARM10MS_CODE "
000022c8 52545f534543 
000022ce 5f4f535f4342 
000022d4 4b5f414c4152 
000022da 4d5f43425f41 
000022e0 4c41524d3130 
000022e6 4d535f434f44 
000022ec 452000 
000022ef 03             9274 	.byte	3
000022f0 53             9275 	.byte	83
000022f1 19             9276 	.byte	25
000022f2 04             9277 	.byte	4
000022f3 01             9278 	.byte	1
000022f4 57             9279 	.byte	87
000022f5 4f535f53544f   9280 	.strz	"OS_STOP_SEC_OS_CBK_ALARM_CB_ALARM10MS_CODE "
000022fb 505f5345435f 
00002301 4f535f43424b 

                                                                      Page 189
                                                              C:\Users\nhuliyap\AppData\Local\Temp\gh_00006u41.s
00002307 5f414c41524d 
0000230d 5f43425f414c 
00002313 41524d31304d 
00002319 535f434f4445 
0000231f 2000 
00002321 03             9281 	.byte	3
00002322 58             9282 	.byte	88
00002323 19             9283 	.byte	25
00002324 04             9284 	.byte	4
00002325 01             9285 	.byte	1
00002326 5a             9286 	.byte	90
00002327 4f535f535441   9287 	.strz	"OS_START_SEC_OS_CBK_ALARM_CB_ALARM200MS_CODE "
0000232d 52545f534543 
00002333 5f4f535f4342 
00002339 4b5f414c4152 
0000233f 4d5f43425f41 
00002345 4c41524d3230 
0000234b 304d535f434f 
00002351 44452000 
00002355 03             9288 	.byte	3
00002356 5b             9289 	.byte	91
00002357 19             9290 	.byte	25
00002358 04             9291 	.byte	4
00002359 01             9292 	.byte	1
0000235a 5f             9293 	.byte	95
0000235b 4f535f53544f   9294 	.strz	"OS_STOP_SEC_OS_CBK_ALARM_CB_ALARM200MS_CODE "
00002361 505f5345435f 
00002367 4f535f43424b 
0000236d 5f414c41524d 
00002373 5f43425f414c 
00002379 41524d323030 
0000237f 4d535f434f44 
00002385 452000 
00002388 03             9295 	.byte	3
00002389 60             9296 	.byte	96
0000238a 19             9297 	.byte	25
0000238b 04             9298 	.byte	4
0000238c 01             9299 	.byte	1
0000238d 62             9300 	.byte	98
0000238e 4f535f535441   9301 	.strz	"OS_START_SEC_OS_CBK_ALARM_CB_ALARM50MS_CODE "
00002394 52545f534543 
0000239a 5f4f535f4342 
000023a0 4b5f414c4152 
000023a6 4d5f43425f41 
000023ac 4c41524d3530 
000023b2 4d535f434f44 
000023b8 452000 
000023bb 03             9302 	.byte	3
000023bc 63             9303 	.byte	99
000023bd 19             9304 	.byte	25
000023be 04             9305 	.byte	4
000023bf 01             9306 	.byte	1
000023c0 67             9307 	.byte	103
000023c1 4f535f53544f   9308 	.strz	"OS_STOP_SEC_OS_CBK_ALARM_CB_ALARM50MS_CODE "
000023c7 505f5345435f 
000023cd 4f535f43424b 
000023d3 5f414c41524d 
000023d9 5f43425f414c 
000023df 41524d35304d 
000023e5 535f434f4445 
000023eb 2000 

                                                                      Page 190
                                                              C:\Users\nhuliyap\AppData\Local\Temp\gh_00006u41.s
000023ed 03             9309 	.byte	3
000023ee 68             9310 	.byte	104
000023ef 19             9311 	.byte	25
000023f0 04             9312 	.byte	4
000023f1 01             9313 	.byte	1
000023f2 6a             9314 	.byte	106
000023f3 4f535f535441   9315 	.strz	"OS_START_SEC_OS_CBK_ALARM_CB_ALARMONESECOND_CODE "
000023f9 52545f534543 
000023ff 5f4f535f4342 
00002405 4b5f414c4152 
0000240b 4d5f43425f41 
00002411 4c41524d4f4e 
00002417 455345434f4e 
0000241d 445f434f4445 
00002423 2000 
00002425 03             9316 	.byte	3
00002426 6b             9317 	.byte	107
00002427 19             9318 	.byte	25
00002428 04             9319 	.byte	4
00002429 01             9320 	.byte	1
0000242a 6f             9321 	.byte	111
0000242b 4f535f53544f   9322 	.strz	"OS_STOP_SEC_OS_CBK_ALARM_CB_ALARMONESECOND_CODE "
00002431 505f5345435f 
00002437 4f535f43424b 
0000243d 5f414c41524d 
00002443 5f43425f414c 
00002449 41524d4f4e45 
0000244f 5345434f4e44 
00002455 5f434f444520 
0000245b 00 
0000245c 03             9323 	.byte	3
0000245d 70             9324 	.byte	112
0000245e 19             9325 	.byte	25
0000245f 04             9326 	.byte	4
00002460 01             9327 	.byte	1
00002461 72             9328 	.byte	114
00002462 4f535f535441   9329 	.strz	"OS_START_SEC_SHUTDOWNHOOK_HUFTPMS_CODE "
00002468 52545f534543 
0000246e 5f5348555444 
00002474 4f574e484f4f 
0000247a 4b5f48554654 
00002480 504d535f434f 
00002486 44452000 
0000248a 03             9330 	.byte	3
0000248b 73             9331 	.byte	115
0000248c 19             9332 	.byte	25
0000248d 04             9333 	.byte	4
0000248e 01             9334 	.byte	1
0000248f 77             9335 	.byte	119
00002490 4f535f53544f   9336 	.strz	"OS_STOP_SEC_SHUTDOWNHOOK_HUFTPMS_CODE "
00002496 505f5345435f 
0000249c 53485554444f 
000024a2 574e484f4f4b 
000024a8 5f4855465450 
000024ae 4d535f434f44 
000024b4 452000 
000024b7 03             9337 	.byte	3
000024b8 78             9338 	.byte	120
000024b9 19             9339 	.byte	25
000024ba 04             9340 	.byte	4
000024bb 01             9341 	.byte	1

                                                                      Page 191
                                                              C:\Users\nhuliyap\AppData\Local\Temp\gh_00006u41.s
000024bc 7a             9342 	.byte	122
000024bd 4f535f535441   9343 	.strz	"OS_START_SEC_STARTUPHOOK_HUFTPMS_CODE "
000024c3 52545f534543 
000024c9 5f5354415254 
000024cf 5550484f4f4b 
000024d5 5f4855465450 
000024db 4d535f434f44 
000024e1 452000 
000024e4 03             9344 	.byte	3
000024e5 7b             9345 	.byte	123
000024e6 19             9346 	.byte	25
000024e7 04             9347 	.byte	4
000024e8 01             9348 	.byte	1
000024e9 7f             9349 	.byte	127
000024ea 4f535f53544f   9350 	.strz	"OS_STOP_SEC_STARTUPHOOK_HUFTPMS_CODE "
000024f0 505f5345435f 
000024f6 535441525455 
000024fc 50484f4f4b5f 
00002502 48554654504d 
00002508 535f434f4445 
0000250e 2000 
00002510 03             9351 	.byte	3
00002511 8001           9352 	.byte	128,1
00002513 19             9353 	.byte	25
00002514 04             9354 	.byte	4
00002515 04             9355 	.byte	4
00002516 04             9356 	.byte	4
00002517 04             9357 	.byte	4
00002518 04             9358 	.byte	4
00002519 03             9359 	.byte	3
0000251a 1b             9360 	.byte	27
0000251b 12             9361 	.byte	18
0000251c 04             9362 	.byte	4
0000251d 01             9363 	.byte	1
0000251e 20             9364 	.byte	32
0000251f 525f46444c5f   9365 	.strz	"R_FDL_EXTERN extern"
00002525 45585445524e 
0000252b 206578746572 
00002531 6e00 
00002533 04             9366 	.byte	4
00002534 03             9367 	.byte	3
00002535 06             9368 	.byte	6
00002536 1b             9369 	.byte	27
00002537 03             9370 	.byte	3
00002538 04             9371 	.byte	4
00002539 1c             9372 	.byte	28
0000253a 03             9373 	.byte	3
0000253b 1b             9374 	.byte	27
0000253c 1d             9375 	.byte	29
0000253d 04             9376 	.byte	4
0000253e 04             9377 	.byte	4
0000253f 03             9378 	.byte	3
00002540 05             9379 	.byte	5
00002541 1e             9380 	.byte	30
00002542 04             9381 	.byte	4
00002543 01             9382 	.byte	1
00002544 07             9383 	.byte	7
00002545 634652455155   9384 	.strz	"cFREQUENCY_433 1"
0000254b 454e43595f34 
00002551 3333203100 
00002556 04             9385 	.byte	4

                                                                      Page 192
                                                              C:\Users\nhuliyap\AppData\Local\Temp\gh_00006u41.s
00002557 04             9386 	.byte	4
00002558 00             9387 	.byte	0
                        9388 	.section	.debug_abbrev
000001af 00             9389 	.byte	0
                        9390 	.section	.debug_info
                        9391 .Ldw_end:
                        9392 .rh850_flags REGMODE32,DATA_ALIGN8,GP_FIX,EP_NONFIX,TP_FIX,REG2_RESERVE,G3K,GHS_MISALIGN,SDA_EXTRA_REGS_0
