                                                                      Page 1
                                                              C:\Users\nhuliyap\AppData\Local\Temp\gh_00009081.s
Command Line: C:\ghs\comp_201517\ease850.exe -w -elf -b0 -I../source/common -I../source/ProjectCompiler -I../source/ProjectCfg -I../source/SwcApplTpms -I../source/SwcApplEcuM -I../source/SwcServiceBswM -I../source/SwcServiceEcuM -I../source/SwcServiceNvM -I../source/SwcServiceOs -I../source/SwcServiceStartUp -I../source/McalAdc -I../source/McalDio -I../source/McalGpt -I../source/McalMcu -I../source/McalWdg -I../source/wrappers -I../source/wrappers/McalAta -I../source/McalLin -I../source/McalCan -I../source/wrappers/OS -I../source/McalFls -I../source/EcuabFee -I../source/EcuabMemIf -I../source/wrappers/VStdLib -I../source/wrappers/Crc -I../source/wrappers/FBL_APPL -I../source/wrappers/NVM_MANAGER -I../source/wrappers/DEM_MANAGER -I../source/wrappers/RDC_MANAGER -I../source/wrappers/ENV_MANAGER -I../source/wrappers/SYS_MANAGER -I../source/wrappers/EcuabCanIf -I../source/EcuabCanTrcv -I../source/wrappers/SwcServiceCanSM -I../source/wrappers/SwcServiceCanTp -I../source/wrappers/SwcServiceCanTp_PreCompile -I../source/wrappers/SwcServiceCom -I../source/wrappers/SwcServiceComM -I../source/wrappers/SwcServiceDcm -I../source/wrappers/SwcServicePduR -I../source/wrappers/SwcServiceEcuM -I../source/wrappers/Bfx -I../source/wrappers/SwcServiceDem -I../source/SwcServiceCom -I../source/SwcServiceDet -I../source/SwcServiceFiM -I../source/SwcServicePduR -I../source/SwcServiceSchM -I../source/wrappers/LibAutosarDiag -I../source/wrappers/rba_BswSrv -IC:\ghs\comp_201517\lib\rh850 -cg_underscore -cpu=rh850g3k -no_v850_simd -rh850_fpsimd=none -nomacro -patch_dbo=C:\_ECU2\ECU_Rivian_A1\Target\repo_projects\pRealEcu\cR_R2023.09.15\make\output\objects\sha2.dbo -source=sha2.c -o output\objects\gh_00009081.o -list=output\list\sha2.lst C:\Users\nhuliyap\AppData\Local\Temp\gh_00009081.s 
Original File: C:\Users\nhuliyap\AppData\Local\Temp\gh_00009081.s
Source File: sha2.c
Directory: C:\_ECU2\ECU_Rivian_A1\Target\repo_projects\pRealEcu\cR_R2023.09.15\make
Host OS: Windows
EASE: Copyright (C) 1983-2015 Green Hills Software.  All Rights Reserved.
Release: Compiler v2015.1.7
Build Directory: [Directory] BTOWORKER6:c:/build_2015_1_bto/2015-10-21.2100-2015_1_bto/win32-comp-ecom
Revision: [VCInfo] http://toolsvc/branches/release-branch-70-bto/src@544153 (built by build)
Revision Date: Thu Oct 22 07:50:13 2015

Release Date: Thu Oct 22 09:32:32 2015

                           1 --Driver Command: ccv850 ../source/wrappers/FBL_APPL/sha2.c -cpu=rh850 -fhard
                           2 --		-ignore_callt_state_in_interrupts -large_sda -misalign_pack
                           3 --		-nofarcalls -nofloatio -no_callt -Ogeneral -Onounroll
                           4 --		-prepare_dispose -registermode=32 -reserve_r2 -sda=0
                           5 --		-shorten_loads -Wshadow --brief_diagnostics --no_commons
                           6 --		--no_wrap_diagnostics --prototype_errors --short_enum -list -G
                           7 --		-dual_debug -dwarf -X5523 -lnk=-no_xda_modifications -D
                           8 --		NOT_READY_FOR_TESTING_OR_DEPLOYMENT -D IBTCM_SW_ANPASSUNGEN -D
                           9 --		BUILD_RIVIAN -c -inline_prologue -I../source/common
                          10 --		-I../source/ProjectCompiler -I../source/ProjectCfg
                          11 --		-I../source/SwcApplTpms -I../source/SwcApplEcuM
                          12 --		-I../source/SwcServiceBswM -I../source/SwcServiceEcuM
                          13 --		-I../source/SwcServiceNvM -I../source/SwcServiceOs
                          14 --		-I../source/SwcServiceStartUp -I../source/McalAdc
                          15 --		-I../source/McalDio -I../source/McalGpt -I../source/McalMcu
                          16 --		-I../source/McalWdg -I../source/wrappers
                          17 --		-I../source/wrappers/McalAta -I../source/McalLin
                          18 --		-I../source/McalCan -I../source/wrappers/OS -I../source/McalFls
                          19 --		-I../source/EcuabFee -I../source/EcuabMemIf
                          20 --		-I../source/wrappers/VStdLib -I../source/wrappers
                          21 --		-I../source/wrappers/Crc -I../source/wrappers/FBL_APPL
                          22 --		-I../source/wrappers/NVM_MANAGER -I../source/wrappers/DEM_MANAGER
                          23 --		-I../source/wrappers/RDC_MANAGER -I../source/wrappers/ENV_MANAGER
                          24 --		-I../source/wrappers/SYS_MANAGER -I../source/wrappers/EcuabCanIf
                          25 --		-I../source/EcuabCanTrcv -I../source/wrappers/SwcServiceCanSM
                          26 --		-I../source/wrappers/SwcServiceCanTp
                          27 --		-I../source/wrappers/SwcServiceCanTp_PreCompile
                          28 --		-I../source/wrappers/SwcServiceCom
                          29 --		-I../source/wrappers/SwcServiceComM
                          30 --		-I../source/wrappers/SwcServiceDcm
                          31 --		-I../source/wrappers/SwcServicePduR
                          32 --		-I../source/wrappers/SwcServiceEcuM -I../source/wrappers/Bfx
                          33 --		-I../source/wrappers/SwcServiceDem -I../source/SwcServiceCom
                          34 --		-I../source/SwcServiceDet -I../source/SwcServiceFiM
                          35 --		-I../source/SwcServicePduR -I../source/SwcServiceSchM
                          36 --		-I../source/wrappers/LibAutosarDiag
                          37 --		-I../source/wrappers/rba_BswSrv -object_dir=output/objects
                          38 --		-list_dir=output/list
                          39 --Source File:   ../source/wrappers/FBL_APPL/sha2.c
                          40 --Directory:     
                          41 --		C:\_ECU2\ECU_Rivian_A1\Target\repo_projects\pRealEcu\cR_R2023.09.15\make
                          42 --Compile Date:  Fri Sep 15 15:30:26 2023
                          43 --Host OS:       Win32
                          44 --Version:       C-RH850 2015.1.7 RELEASE VERSION
                          45 --Release:       Compiler v2015.1.7
                          46 --Revision Date: Thu Oct 22 08:06:12 2015
                          47 --Release Date:  Thu Oct 22 09:34:32 2015
                          48 -- ecom  -g -w -OM
                          49 	.text
                          50 ..bof.C.3A.5C_ECU2.5CECU_Rivian_A1.5CTarget.5Crepo_projects.5CpRealEcu.5CcR_R2023.2E09.2E15.5Cmake.5Coutput.5Cobjects.5Csha2...43.3A.5C_ECU2.5CECU_Rivian_A1.5CTarget.5Crepo_projects.5CpRealEcu.5CcR_R2023.2E09.2E15.5Cmake..65045C72..0::

                                                                      Page 2
                                                              C:\Users\nhuliyap\AppData\Local\Temp\gh_00009081.s
                          51 	.align	2
                          52 ..gh.f.f.1.e.0:
                          53 	.type	..gh.f.f.1.e.0,@object
                          54 	.size	..gh.f.f.1.e.0,0
                          55 	.global	_sha256_transf
                          56 _sha256_transf:
00000000 be07c110         57 	prepare	{r27,r28,r29},31
00000004 031e5cff         58 	addi	-164,sp,sp
00000008 06e8             59 	mov	r6,r29
0000000a 07e0             60 	mov	r7,r28
0000000c 08d8             61 	mov	r8,r27
                          62 --	    .bf
                          63 .LDW01:
0000000e 000a             64 	mov	0,r1
00000010 80073401*        65 	br	.L7
                          66 .L6:
                          67 --line187
                          68 ..lin.C.3A.5C_ECU2.5CECU_Rivian_A1.5CTarget.5Crepo_projects.5CpRealEcu.5CcR_R2023.2E09.2E15.5Cmake.5Coutput.5Cobjects.5Csha2.1::
                          69 .LDWlin1:
00000014 0150             70 	mov	r1,r10
00000016 c652             71 	shl	6,r10
00000018 dc51             72 	add	r28,r10
0000001a 0092             73 	mov	0,r18
                          74 .L10:
0000001c 12f0             75 	mov	r18,ep
0000001e c2f2             76 	shl	2,ep
00000020 1e58             77 	mov	ep,r11
00000022 caf1             78 	add	r10,ep
00000024 6240             79 	sld.bu	2[ep],r8
00000026 6398             80 	sld.bu	3[ep],r19
00000028 6138             81 	sld.bu	1[ep],r7
0000002a 6030             82 	sld.bu	0[ep],r6
0000002c c842             83 	shl	8,r8
0000002e 1341             84 	or	r19,r8
00000030 d03a             85 	shl	16,r7
00000032 0839             86 	or	r8,r7
00000034 d832             87 	shl	24,r6
00000036 c359             88 	add	sp,r11
00000038 0731             89 	or	r7,r6
0000003a 4192             90 	add	1,r18
0000003c 6b372100         91 	st.w	r6,32[r11]
00000040 1206f0ff         92 	addi	-16,r18,zero
00000044 c6ed*            93 	blt	.L10
                          94 --line194
                          95 ..lin.C.3A.5C_ECU2.5CECU_Rivian_A1.5CTarget.5Crepo_projects.5CpRealEcu.5CcR_R2023.2E09.2E15.5Cmake.5Coutput.5Cobjects.5Csha2.2::
                          96 .LDWlin2:
00000046 20961000         97 	movea	16,zero,r18
                          98 .L13:
0000004a 12f0             99 	mov	r18,ep
0000004c c2f2            100 	shl	2,ep
0000004e c3f1            101 	add	sp,ep
00000050 0c7d            102 	sld.w	24[ep],r15
00000052 024d            103 	sld.w	4[ep],r9
00000054 3e8fe5ff        104 	ld.w	-28[ep],r17
00000058 3e3fe1ff        105 	ld.w	-32[ep],r7
0000005c ef7fc480        106 	rotl	15,r15,r16
00000060 ed7fc450        107 	rotl	13,r15,r10
00000064 3051            108 	xor	r16,r10
00000066 8a7a            109 	shr	10,r15
00000068 2a79            110 	xor	r10,r15
0000006a cf49            111 	add	r15,r9

                                                                      Page 3
                                                              C:\Users\nhuliyap\AppData\Local\Temp\gh_00009081.s
0000006c f98fc478        112 	rotl	25,r17,r15
00000070 ee8fc440        113 	rotl	14,r17,r8
00000074 2f41            114 	xor	r15,r8
00000076 838a            115 	shr	3,r17
00000078 2889            116 	xor	r8,r17
0000007a c989            117 	add	r9,r17
0000007c d139            118 	add	r17,r7
0000007e 4192            119 	add	1,r18
00000080 113d            120 	sst.w	r7,32[ep]
00000082 1206c0ff        121 	addi	-64,r18,zero
00000086 a6e5*           122 	blt	.L13
                         123 --line198
                         124 ..lin.C.3A.5C_ECU2.5CECU_Rivian_A1.5CTarget.5Crepo_projects.5CpRealEcu.5CcR_R2023.2E09.2E15.5Cmake.5Coutput.5Cobjects.5Csha2.3::
                         125 .LDWlin3:
00000088 0092            126 	mov	0,r18
                         127 .L16:
0000008a 1260            128 	mov	r18,r12
0000008c c262            129 	shl	2,r12
0000008e 03f0            130 	mov	sp,ep
00000090 ccf1            131 	add	r12,ep
00000092 dd61            132 	add	r29,r12
00000094 2c778900        133 	ld.w	136[r12],r14
00000098 4192            134 	add	1,r18
0000009a 6892            135 	cmp	8,r18
0000009c 0175            136 	sst.w	r14,0[ep]
0000009e e6f5*           137 	blt	.L16
                         138 --line202
                         139 ..lin.C.3A.5C_ECU2.5CECU_Rivian_A1.5CTarget.5Crepo_projects.5CpRealEcu.5CcR_R2023.2E09.2E15.5Cmake.5Coutput.5Cobjects.5Csha2.4::
                         140 .LDWlin4:
000000a0 0092            141 	mov	0,r18
                         142 .L19:
000000a2 03f0            143 	mov	sp,ep
000000a4 086d            144 	sld.w	16[ep],r13
000000a6 0a3d            145 	sld.w	20[ep],r7
000000a8 0c45            146 	sld.w	24[ep],r8
000000aa 1258            147 	mov	r18,r11
000000ac 0e55            148 	sld.w	28[ep],r10
000000ae c25a            149 	shl	2,r11
000000b0 3e0600000000*   150 	mov	_sha256_k,ep
000000b6 fa6fc460        151 	rotl	26,r13,r12
000000ba f56fc430        152 	rotl	21,r13,r6
000000be cbf1            153 	add	r11,ep
000000c0 2c31            154 	xor	r12,r6
000000c2 e76fc498        155 	rotl	7,r13,r19
000000c6 0788            156 	mov	r7,r17
000000c8 2d70            157 	not	r13,r14
000000ca 0085            158 	sld.w	0[ep],r16
000000cc 2699            159 	xor	r6,r19
000000ce 4d89            160 	and	r13,r17
000000d0 4871            161 	and	r8,r14
000000d2 ca99            162 	add	r10,r19
000000d4 3171            163 	xor	r17,r14
000000d6 c359            164 	add	sp,r11
000000d8 d371            165 	add	r19,r14
000000da 2b7f2100        166 	ld.w	32[r11],r15
000000de ce81            167 	add	r14,r16
                         168 --line205
                         169 ..lin.C.3A.5C_ECU2.5CECU_Rivian_A1.5CTarget.5Crepo_projects.5CpRealEcu.5CcR_R2023.2E09.2E15.5Cmake.5Coutput.5Cobjects.5Csha2.5::
                         170 .LDWlin5:
000000e0 03f0            171 	mov	sp,ep
000000e2 0475            172 	sld.w	8[ep],r14

                                                                      Page 4
                                                              C:\Users\nhuliyap\AppData\Local\Temp\gh_00009081.s
000000e4 004d            173 	sld.w	0[ep],r9
000000e6 0265            174 	sld.w	4[ep],r12
000000e8 d079            175 	add	r16,r15
000000ea 0e88            176 	mov	r14,r17
000000ec 0f45            177 	sst.w	r8,28[ep]
000000ee fe4fc430        178 	rotl	30,r9,r6
000000f2 f34fc458        179 	rotl	19,r9,r11
000000f6 2c89            180 	xor	r12,r17
000000f8 0e80            181 	mov	r14,r16
000000fa 0645            182 	sld.w	12[ep],r8
000000fc 2659            183 	xor	r6,r11
000000fe ea4fc450        184 	rotl	10,r9,r10
00000102 4989            185 	and	r9,r17
00000104 4c81            186 	and	r12,r16
00000106 2b51            187 	xor	r11,r10
00000108 3181            188 	xor	r17,r16
0000010a ca81            189 	add	r10,r16
0000010c cf41            190 	add	r15,r8
0000010e cf81            191 	add	r15,r16
00000110 4192            192 	add	1,r18
00000112 0d3d            193 	sst.w	r7,24[ep]
00000114 0b6d            194 	sst.w	r13,20[ep]
00000116 0945            195 	sst.w	r8,16[ep]
00000118 0775            196 	sst.w	r14,12[ep]
0000011a 0565            197 	sst.w	r12,8[ep]
0000011c 034d            198 	sst.w	r9,4[ep]
0000011e 0185            199 	sst.w	r16,0[ep]
00000120 1206c0ff        200 	addi	-64,r18,zero
00000124 f6bd*           201 	blt	.L19
                         202 --line216
                         203 ..lin.C.3A.5C_ECU2.5CECU_Rivian_A1.5CTarget.5Crepo_projects.5CpRealEcu.5CcR_R2023.2E09.2E15.5Cmake.5Coutput.5Cobjects.5Csha2.6::
                         204 .LDWlin6:
00000126 0092            205 	mov	0,r18
                         206 .L22:
00000128 12f0            207 	mov	r18,ep
0000012a c2f2            208 	shl	2,ep
0000012c 0338            209 	mov	sp,r7
0000012e de39            210 	add	ep,r7
00000130 ddf1            211 	add	r29,ep
00000132 4435            212 	sld.w	136[ep],r6
00000134 278f0100        213 	ld.w	0[r7],r17
00000138 4192            214 	add	1,r18
0000013a d131            215 	add	r17,r6
0000013c 4535            216 	sst.w	r6,136[ep]
0000013e 6892            217 	cmp	8,r18
00000140 c6f5*           218 	blt	.L22
                         219 --line186
                         220 ..lin.C.3A.5C_ECU2.5CECU_Rivian_A1.5CTarget.5Crepo_projects.5CpRealEcu.5CcR_R2023.2E09.2E15.5Cmake.5Coutput.5Cobjects.5Csha2.7::
                         221 .LDWlin7:
00000142 410a            222 	add	1,r1
                         223 .L7:
00000144 fb09            224 	cmp	r27,r1
00000146 f607cffe*       225 	blt	.L6
                         226 --	    .ef
                         227 .LDW11:
                         228 --line286
                         229 ..lin.C.3A.5C_ECU2.5CECU_Rivian_A1.5CTarget.5Crepo_projects.5CpRealEcu.5CcR_R2023.2E09.2E15.5Cmake.5Coutput.5Cobjects.5Csha2.8::
                         230 .LDWlin8:
0000014a 031ea400        231 	addi	164,sp,sp
0000014e 7e06df10        232 	dispose	31,{r27,r28,r29},[lp]
                         233 	.global	___ghs_eofn_sha256_transf

                                                                      Page 5
                                                              C:\Users\nhuliyap\AppData\Local\Temp\gh_00009081.s
                         234 ___ghs_eofn_sha256_transf:
                         235 	.type	_sha256_transf,@function
                         236 	.size	_sha256_transf,.-_sha256_transf
                         237 	.align	2
                         238 --_w	32[sp]	local
                         239 --_wv	0[sp]	local
                         240 --_t1	r15	local
                         241 --_sub_block	r10	local
                         242 --_i	r1	local
                         243 --_j	r18	local
                         244 
                         245 --_ctx	r29	param
                         246 --_message	r28	param
                         247 --_block_nb	r27	param
                         248 
                         249 	.section ".bss","awb"
                         250 .L124:
                         251 	.type	.L124,@object
                         252 	.size	.L124,0
                         253 	.data
                         254 	.text
                         255 	.align	2
                         256 	.align	2
                         257 ..gh.f.f.1.e.1:
                         258 	.type	..gh.f.f.1.e.1,@object
                         259 	.size	..gh.f.f.1.e.1,0
                         260 	.global	_sha256_init
                         261 _sha256_init:
                         262 --	    .bf
                         263 .LDW21:
00000152 008a            264 	mov	0,r17
                         265 .L260:
00000154 1190            266 	mov	r17,r18
00000156 c292            267 	shl	2,r18
00000158 12f0            268 	mov	r18,ep
0000015a 409e0000*       269 	movhi	hi(_sha256_h0),zero,r19
0000015e d391            270 	add	r19,r18
00000160 32970100*       271 	ld.w	lo(_sha256_h0)[r18],r18
00000164 c6f1            272 	add	r6,ep
                         273 --line301
                         274 ..lin.C.3A.5C_ECU2.5CECU_Rivian_A1.5CTarget.5Crepo_projects.5CpRealEcu.5CcR_R2023.2E09.2E15.5Cmake.5Coutput.5Cobjects.5Csha2.9::
                         275 .LDWlin9:
00000166 418a            276 	add	1,r17
00000168 688a            277 	cmp	8,r17
0000016a 4595            278 	sst.w	r18,136[ep]
0000016c c6f5*           279 	blt	.L260
                         280 --line311
                         281 ..lin.C.3A.5C_ECU2.5CECU_Rivian_A1.5CTarget.5Crepo_projects.5CpRealEcu.5CcR_R2023.2E09.2E15.5Cmake.5Coutput.5Cobjects.5Csha2.10::
                         282 .LDWlin10:
0000016e 06f0            283 	mov	r6,ep
00000170 0305            284 	sst.w	zero,4[ep]
00000172 0105            285 	sst.w	zero,0[ep]
                         286 --	    .ef
                         287 .LDW31:
00000174 7f00            288 	jmp	[lp]
                         289 	.global	___ghs_eofn_sha256_init
                         290 ___ghs_eofn_sha256_init:
                         291 	.type	_sha256_init,@function
                         292 	.size	_sha256_init,.-_sha256_init
                         293 	.align	2
                         294 --_i	r17	local

                                                                      Page 6
                                                              C:\Users\nhuliyap\AppData\Local\Temp\gh_00009081.s
                         295 
                         296 --_ctx	r6	param
                         297 
                         298 	.section ".bss","awb"
                         299 .L299:
                         300 	.type	.L299,@object
                         301 	.size	.L299,0
                         302 	.data
                         303 	.text
                         304 	.align	2
                         305 	.align	2
                         306 ..gh.f.f.1.e.2:
                         307 	.type	..gh.f.f.1.e.2,@object
                         308 	.size	..gh.f.f.1.e.2,0
                         309 	.global	_sha256_update
                         310 _sha256_update:
00000176 8007e1f0        311 	prepare	{r24,r25,r26,r27,r28,r29,r31},0
0000017a 06e8            312 	mov	r6,r29
0000017c 07c8            313 	mov	r7,r25
0000017e 08e0            314 	mov	r8,r28
                         315 --	    .bf
                         316 .LDW41:
00000180 26770500        317 	ld.w	4[r6],r14
00000184 208e4000        318 	movea	64,zero,r17
00000188 ae89            319 	sub	r14,r17
0000018a e889            320 	cmp	r8,r17
0000018c e88f32d3        321 	cmovnl	r8,r17,r26
00000190 4832            322 	add	8,r6
00000192 ce31            323 	add	r14,r6
00000194 1a40            324 	mov	r26,r8
                         325 	jarl	_memcpy,lp
                         325 <EXPANSION BEGIN>
                         325 jarl22 _memcpy , lp 
00000196 80ff0000*       325 <EXPANSION END>
                         326 --line327
                         327 ..lin.C.3A.5C_ECU2.5CECU_Rivian_A1.5CTarget.5Crepo_projects.5CpRealEcu.5CcR_R2023.2E09.2E15.5Cmake.5Coutput.5Cobjects.5Csha2.11::
                         328 .LDWlin11:
0000019a 3d970500        329 	ld.w	4[r29],r18
0000019e dc91            330 	add	r28,r18
000001a0 1206c0ff        331 	addi	-64,r18,zero
000001a4 d105*           332 	bl	.L337
                         333 --line328
                         334 ..lin.C.3A.5C_ECU2.5CECU_Rivian_A1.5CTarget.5Crepo_projects.5CpRealEcu.5CcR_R2023.2E09.2E15.5Cmake.5Coutput.5Cobjects.5Csha2.12::
                         335 .LDWlin12:
000001a6 7d970500        336 	st.w	r18,4[r29]
000001aa 4006fff0        337 	dispose	0,{r24,r25,r26,r27,r28,r29,r31},[lp]
                         338 .L337:
                         339 --line332
                         340 ..lin.C.3A.5C_ECU2.5CECU_Rivian_A1.5CTarget.5Crepo_projects.5CpRealEcu.5CcR_R2023.2E09.2E15.5Cmake.5Coutput.5Cobjects.5Csha2.13::
                         341 .LDWlin13:
000001ae bae1            342 	sub	r26,r28
000001b0 1cd8            343 	mov	r28,r27
000001b2 86da            344 	shr	6,r27
000001b4 dac9            345 	add	r26,r25
000001b6 1d30            346 	mov	r29,r6
000001b8 1d3e0800        347 	addi	8,r29,r7
000001bc 0142            348 	mov	1,r8
                         349 	jarl	_sha256_transf,lp
                         349 <EXPANSION BEGIN>
                         349 jarl22 _sha256_transf , lp 
000001be bfff42fe*       349 <EXPANSION END>

                                                                      Page 7
                                                              C:\Users\nhuliyap\AppData\Local\Temp\gh_00009081.s
                         350 --line338
                         351 ..lin.C.3A.5C_ECU2.5CECU_Rivian_A1.5CTarget.5Crepo_projects.5CpRealEcu.5CcR_R2023.2E09.2E15.5Cmake.5Coutput.5Cobjects.5Csha2.14::
                         352 .LDWlin14:
000001c2 1d30            353 	mov	r29,r6
000001c4 1938            354 	mov	r25,r7
000001c6 1b40            355 	mov	r27,r8
                         356 	jarl	_sha256_transf,lp
                         356 <EXPANSION BEGIN>
                         356 jarl22 _sha256_transf , lp 
000001c8 bfff38fe*       356 <EXPANSION END>
                         357 --line342
                         358 ..lin.C.3A.5C_ECU2.5CECU_Rivian_A1.5CTarget.5Crepo_projects.5CpRealEcu.5CcR_R2023.2E09.2E15.5Cmake.5Coutput.5Cobjects.5Csha2.15::
                         359 .LDWlin15:
000001cc 1b38            360 	mov	r27,r7
000001ce dcd63f00        361 	andi	63,r28,r26
000001d2 c63a            362 	shl	6,r7
000001d4 1d360800        363 	addi	8,r29,r6
000001d8 d939            364 	add	r25,r7
000001da 1a40            365 	mov	r26,r8
                         366 	jarl	_memcpy,lp
                         366 <EXPANSION BEGIN>
                         366 jarl22 _memcpy , lp 
000001dc 80ff0000*       366 <EXPANSION END>
                         367 --line345
                         368 ..lin.C.3A.5C_ECU2.5CECU_Rivian_A1.5CTarget.5Crepo_projects.5CpRealEcu.5CcR_R2023.2E09.2E15.5Cmake.5Coutput.5Cobjects.5Csha2.16::
                         369 .LDWlin16:
000001e0 1df0            370 	mov	r29,ep
000001e2 007d            371 	sld.w	0[ep],r15
000001e4 1b860100        372 	addi	1,r27,r16
000001e8 c682            373 	shl	6,r16
000001ea 03d5            374 	sst.w	r26,4[ep]
000001ec d079            375 	add	r16,r15
000001ee 017d            376 	sst.w	r15,0[ep]
                         377 --	    .ef
                         378 .LDW51:
000001f0 4006fff0        379 	dispose	0,{r24,r25,r26,r27,r28,r29,r31},[lp]
                         380 	.global	___ghs_eofn_sha256_update
                         381 ___ghs_eofn_sha256_update:
                         382 	.type	_sha256_update,@function
                         383 	.size	_sha256_update,.-_sha256_update
                         384 	.align	2
                         385 --_block_nb	r27	local
                         386 --_rem_len	r26	local
                         387 --_shifted_message	r25	local
                         388 
                         389 --_ctx	r29	param
                         390 --_message	r24	param
                         391 --_len	r28	param
                         392 
                         393 	.section ".bss","awb"
                         394 .L379:
                         395 	.type	.L379,@object
                         396 	.size	.L379,0
                         397 	.data
                         398 	.text
                         399 	.align	2
                         400 	.align	2
                         401 ..gh.f.f.1.e.3:
                         402 	.type	..gh.f.f.1.e.3,@object
                         403 	.size	..gh.f.f.1.e.3,0
                         404 	.global	_sha256_final

                                                                      Page 8
                                                              C:\Users\nhuliyap\AppData\Local\Temp\gh_00009081.s
                         405 _sha256_final:
000001f4 8007e1f0        406 	prepare	{r24,r25,r26,r27,r28,r29,r31},0
000001f8 06d8            407 	mov	r6,r27
000001fa 07c0            408 	mov	r7,r24
                         409 --	    .bf
                         410 .LDW61:
000001fc 06f0            411 	mov	r6,ep
000001fe 0285            412 	sld.w	4[ep],r16
00000200 00ed            413 	sld.w	0[ep],r29
00000202 d04e3f00        414 	andi	63,r16,r9
00000206 0906c8ff        415 	addi	-56,r9,zero
0000020a e1570000        416 	setfl	r10
0000020e 0ace0100        417 	addi	1,r10,r25
00000212 19e0            418 	mov	r25,r28
00000214 c6e2            419 	shl	6,r28
00000216 06d60800        420 	addi	8,r6,r26
0000021a d0e9            421 	add	r16,r29
0000021c 1030            422 	mov	r16,r6
0000021e 1c38            423 	mov	r28,r7
00000220 c3ea            424 	shl	3,r29
00000222 da31            425 	add	r26,r6
00000224 b039            426 	sub	r16,r7
                         427 	jarl	___gh_memclr,lp
                         427 <EXPANSION BEGIN>
                         427 jarl22 ___gh_memclr , lp 
00000226 80ff0000*       427 <EXPANSION END>
                         428 --line366
                         429 ..lin.C.3A.5C_ECU2.5CECU_Rivian_A1.5CTarget.5Crepo_projects.5CpRealEcu.5CcR_R2023.2E09.2E15.5Cmake.5Coutput.5Cobjects.5Csha2.17::
                         430 .LDWlin17:
0000022a 3bf70500        431 	ld.w	4[r27],ep
0000022e 20468000        432 	movea	128,zero,r8
00000232 dae1            433 	add	r26,r28
00000234 1d78            434 	mov	r29,r15
00000236 daf1            435 	add	r26,ep
00000238 8043            436 	sst.b	r8,0[ep]
0000023a 3cf6fcff        437 	movea	-4,r28,ep
0000023e 83eb            438 	sst.b	r29,3[ep]
00000240 1d70            439 	mov	r29,r14
00000242 887a            440 	shr	8,r15
00000244 9072            441 	shr	16,r14
00000246 98ea            442 	shr	24,r29
00000248 1a38            443 	mov	r26,r7
0000024a 827b            444 	sst.b	r15,2[ep]
0000024c 8173            445 	sst.b	r14,1[ep]
0000024e 80eb            446 	sst.b	r29,0[ep]
00000250 1b30            447 	mov	r27,r6
00000252 1940            448 	mov	r25,r8
                         449 	jarl	_sha256_transf,lp
                         449 <EXPANSION BEGIN>
                         449 jarl22 _sha256_transf , lp 
00000254 bfffacfd*       449 <EXPANSION END>
                         450 --line372
                         451 ..lin.C.3A.5C_ECU2.5CECU_Rivian_A1.5CTarget.5Crepo_projects.5CpRealEcu.5CcR_R2023.2E09.2E15.5Cmake.5Coutput.5Cobjects.5Csha2.18::
                         452 .LDWlin18:
00000258 008a            453 	mov	0,r17
                         454 .L425:
0000025a 11f0            455 	mov	r17,ep
0000025c c2f2            456 	shl	2,ep
0000025e 1e90            457 	mov	ep,r18
00000260 db91            458 	add	r27,r18
00000262 323f8900        459 	ld.w	136[r18],r7

                                                                      Page 9
                                                              C:\Users\nhuliyap\AppData\Local\Temp\gh_00009081.s
00000266 d8f1            460 	add	r24,ep
00000268 418a            461 	add	1,r17
0000026a 833b            462 	sst.b	r7,3[ep]
0000026c 326f8900        463 	ld.w	136[r18],r13
00000270 886a            464 	shr	8,r13
00000272 826b            465 	sst.b	r13,2[ep]
00000274 32678900        466 	ld.w	136[r18],r12
00000278 9062            467 	shr	16,r12
0000027a 8163            468 	sst.b	r12,1[ep]
0000027c 325f8900        469 	ld.w	136[r18],r11
00000280 985a            470 	shr	24,r11
00000282 805b            471 	sst.b	r11,0[ep]
00000284 688a            472 	cmp	8,r17
00000286 a6ed*           473 	blt	.L425
                         474 --	    .ef
                         475 .LDW71:
                         476 --line385
                         477 ..lin.C.3A.5C_ECU2.5CECU_Rivian_A1.5CTarget.5Crepo_projects.5CpRealEcu.5CcR_R2023.2E09.2E15.5Cmake.5Coutput.5Cobjects.5Csha2.19::
                         478 .LDWlin19:
00000288 4006fff0        479 	dispose	0,{r24,r25,r26,r27,r28,r29,r31},[lp]
                         480 	.global	___ghs_eofn_sha256_final
                         481 ___ghs_eofn_sha256_final:
                         482 	.type	_sha256_final,@function
                         483 	.size	_sha256_final,.-_sha256_final
                         484 	.align	2
                         485 --_block_nb	r25	local
                         486 --_len_b	r29	local
                         487 --_i	r17	local
                         488 
                         489 --_ctx	r27	param
                         490 --_digest	r24	param
                         491 
                         492 	.section ".bss","awb"
                         493 .L458:
                         494 	.type	.L458,@object
                         495 	.size	.L458,0
                         496 	.data
                         497 	.text
                         498 	.align	2
                         499 	.align	2
                         500 ..gh.f.f.1.e.4:
                         501 	.type	..gh.f.f.1.e.4,@object
                         502 	.size	..gh.f.f.1.e.4,0
                         503 	.global	_sha256
                         504 _sha256:
0000028c be076110        505 	prepare	{r27,r29,r31},31
00000290 031ed0ff        506 	addi	-48,sp,sp
00000294 06e8            507 	mov	r6,r29
00000296 08d8            508 	mov	r8,r27
                         509 --	    .bf
                         510 .LDW81:
00000298 0330            511 	mov	sp,r6
                         512 	jarl	_sha256_init,lp
                         512 <EXPANSION BEGIN>
                         512 jarl22 _sha256_init , lp 
0000029a bfffb8fe*       512 <EXPANSION END>
                         513 --line293
                         514 ..lin.C.3A.5C_ECU2.5CECU_Rivian_A1.5CTarget.5Crepo_projects.5CpRealEcu.5CcR_R2023.2E09.2E15.5Cmake.5Coutput.5Cobjects.5Csha2.20::
                         515 .LDWlin20:
0000029e 0740            516 	mov	r7,r8
000002a0 1d38            517 	mov	r29,r7

                                                                      Page 10
                                                              C:\Users\nhuliyap\AppData\Local\Temp\gh_00009081.s
                         518 	jarl	_sha256_update,lp
                         518 <EXPANSION BEGIN>
                         518 jarl22 _sha256_update , lp 
000002a2 bfffd4fe*       518 <EXPANSION END>
                         519 --line294
                         520 ..lin.C.3A.5C_ECU2.5CECU_Rivian_A1.5CTarget.5Crepo_projects.5CpRealEcu.5CcR_R2023.2E09.2E15.5Cmake.5Coutput.5Cobjects.5Csha2.21::
                         521 .LDWlin21:
000002a6 1b38            522 	mov	r27,r7
000002a8 0330            523 	mov	sp,r6
                         524 	jarl	_sha256_final,lp
                         524 <EXPANSION BEGIN>
                         524 jarl22 _sha256_final , lp 
000002aa bfff4aff*       524 <EXPANSION END>
                         525 --	    .ef
                         526 .LDW91:
                         527 --line295
                         528 ..lin.C.3A.5C_ECU2.5CECU_Rivian_A1.5CTarget.5Crepo_projects.5CpRealEcu.5CcR_R2023.2E09.2E15.5Cmake.5Coutput.5Cobjects.5Csha2.22::
                         529 .LDWlin22:
000002ae 031e3000        530 	addi	48,sp,sp
000002b2 7e067f10        531 	dispose	31,{r27,r29,r31},[lp]
                         532 	.global	___ghs_eofn_sha256
                         533 ___ghs_eofn_sha256:
                         534 	.type	_sha256,@function
                         535 	.size	_sha256,.-_sha256
                         536 	.align	2
                         537 --_ctx	0[sp]	local
                         538 
                         539 --_message	r29	param
                         540 --_len	r28	param
                         541 --_digest	r27	param
                         542 
                         543 	.section ".bss","awb"
                         544 .L513:
                         545 	.type	.L513,@object
                         546 	.size	.L513,0
                         547 	.data
                         548 	.text
                         549 	.align	2
                         550 	.align	2
                         551 ..gh.f.f.1.e.5:
                         552 	.type	..gh.f.f.1.e.5,@object
                         553 	.size	..gh.f.f.1.e.5,0
                         554 	.global	_sha512_transf
                         555 _sha512_transf:
000002b6 be07e1ff        556 	prepare	{r20,r21,r22,r23,r24,r25,r26,r27,r28,r29,r31},31
000002ba 031eacfd        557 	addi	-596,sp,sp
000002be 03f0            558 	mov	sp,ep
000002c0 06c0            559 	mov	r6,r24
000002c2 013d            560 	sst.w	r7,0[ep]
000002c4 0345            561 	sst.w	r8,4[ep]
                         562 --	    .bf
                         563 .LDW02:
000002c6 00ca            564 	mov	0,r25
000002c8 8007fc02*       565 	br	.L536
                         566 .L535:
                         567 --line397
                         568 ..lin.C.3A.5C_ECU2.5CECU_Rivian_A1.5CTarget.5Crepo_projects.5CpRealEcu.5CcR_R2023.2E09.2E15.5Cmake.5Coutput.5Cobjects.5Csha2.23::
                         569 .LDWlin23:
000002cc 235f0100        570 	ld.w	0[sp],r11
000002d0 1978            571 	mov	r25,r15
000002d2 c77a            572 	shl	7,r15

                                                                      Page 11
                                                              C:\Users\nhuliyap\AppData\Local\Temp\gh_00009081.s
000002d4 000a            573 	mov	0,r1
000002d6 cb79            574 	add	r11,r15
                         575 .L539:
000002d8 01f0            576 	mov	r1,ep
000002da c3f2            577 	shl	3,ep
000002dc 23ee5000        578 	movea	80,sp,r29
000002e0 dee9            579 	add	ep,r29
000002e2 cff1            580 	add	r15,ep
000002e4 6298            581 	sld.bu	2[ep],r19
000002e6 6338            582 	sld.bu	3[ep],r7
000002e8 6658            583 	sld.bu	6[ep],r11
000002ea 6740            584 	sld.bu	7[ep],r8
000002ec c89a            585 	shl	8,r19
000002ee 0799            586 	or	r7,r19
000002f0 6138            587 	sld.bu	1[ep],r7
000002f2 c85a            588 	shl	8,r11
000002f4 0859            589 	or	r8,r11
000002f6 6590            590 	sld.bu	5[ep],r18
000002f8 d03a            591 	shl	16,r7
000002fa 1339            592 	or	r19,r7
000002fc 6440            593 	sld.bu	4[ep],r8
000002fe 6098            594 	sld.bu	0[ep],r19
00000300 d092            595 	shl	16,r18
00000302 0b91            596 	or	r11,r18
00000304 d842            597 	shl	24,r8
00000306 d89a            598 	shl	24,r19
00000308 0891            599 	or	r8,r18
0000030a 0799            600 	or	r7,r19
0000030c 410a            601 	add	1,r1
0000030e bd070f900000    602 	st.dw	r18,0[r29]
00000314 0106f0ff        603 	addi	-16,r1,zero
00000318 86e5*           604 	blt	.L539
                         605 --line404
                         606 ..lin.C.3A.5C_ECU2.5CECU_Rivian_A1.5CTarget.5Crepo_projects.5CpRealEcu.5CcR_R2023.2E09.2E15.5Cmake.5Coutput.5Cobjects.5Csha2.24::
                         607 .LDWlin24:
0000031a 200e1000        608 	movea	16,zero,r1
                         609 .L542:
0000031e 0130            610 	mov	r1,r6
00000320 c332            611 	shl	3,r6
00000322 034e4000        612 	addi	64,sp,r9
00000326 c649            613 	add	r6,r9
00000328 a90709500000    614 	ld.dw	0[r9],r10
0000032e 0346d8ff        615 	addi	-40,sp,r8
00000332 c641            616 	add	r6,r8
00000334 a80709900000    617 	ld.dw	0[r8],r18
0000033a 0a78            618 	mov	r10,r15
0000033c 0b80            619 	mov	r11,r16
0000033e 937a            620 	shr	19,r15
00000340 cd82            621 	shl	13,r16
00000342 0f81            622 	or	r15,r16
00000344 0b78            623 	mov	r11,r15
00000346 0a88            624 	mov	r10,r17
00000348 937a            625 	shr	19,r15
0000034a cd8a            626 	shl	13,r17
0000034c 0f89            627 	or	r15,r17
0000034e 0bd0            628 	mov	r11,r26
00000350 0a40            629 	mov	r10,r8
00000352 9dd2            630 	shr	29,r26
00000354 0a78            631 	mov	r10,r15
00000356 c342            632 	shl	3,r8
00000358 0b60            633 	mov	r11,r12

                                                                      Page 12
                                                              C:\Users\nhuliyap\AppData\Local\Temp\gh_00009081.s
0000035a 233e5000        634 	movea	80,sp,r7
0000035e 1a41            635 	or	r26,r8
00000360 8652            636 	shr	6,r10
00000362 da62            637 	shl	26,r12
00000364 3041            638 	xor	r16,r8
00000366 0a61            639 	or	r10,r12
00000368 076ec8ff        640 	addi	-56,r7,r13
0000036c 0b70            641 	mov	r11,r14
0000036e 2861            642 	xor	r8,r12
00000370 c669            643 	add	r6,r13
00000372 c372            644 	shl	3,r14
00000374 9d7a            645 	shr	29,r15
00000376 ad0709400000    646 	ld.dw	0[r13],r8
0000037c 0e79            647 	or	r14,r15
0000037e 06e8            648 	mov	r6,r29
00000380 3179            649 	xor	r17,r15
00000382 865a            650 	shr	6,r11
00000384 c7e9            651 	add	r7,r29
00000386 2f59            652 	xor	r15,r11
00000388 cc41            653 	add	r12,r8
0000038a eb4fa28b        654 	adfl	r11,r9,r17
0000038e 1368            655 	mov	r19,r13
00000390 1248            656 	mov	r18,r9
00000392 816a            657 	shr	1,r13
00000394 df4a            658 	shl	31,r9
00000396 0d49            659 	or	r13,r9
00000398 1260            660 	mov	r18,r12
0000039a 1370            661 	mov	r19,r14
0000039c 1368            662 	mov	r19,r13
0000039e 1278            663 	mov	r18,r15
000003a0 8162            664 	shr	1,r12
000003a2 df72            665 	shl	31,r14
000003a4 886a            666 	shr	8,r13
000003a6 d87a            667 	shl	24,r15
000003a8 0c71            668 	or	r12,r14
000003aa 0d79            669 	or	r13,r15
000003ac 1258            670 	mov	r18,r11
000003ae 1360            671 	mov	r19,r12
000003b0 2979            672 	xor	r9,r15
000003b2 885a            673 	shr	8,r11
000003b4 d862            674 	shl	24,r12
000003b6 1348            675 	mov	r19,r9
000003b8 0b61            676 	or	r11,r12
000003ba 8792            677 	shr	7,r18
000003bc d94a            678 	shl	25,r9
000003be 2e61            679 	xor	r14,r12
000003c0 1249            680 	or	r18,r9
000003c2 879a            681 	shr	7,r19
000003c4 2c49            682 	xor	r12,r9
000003c6 2f99            683 	xor	r15,r19
000003c8 c849            684 	add	r8,r9
000003ca f19fa27b        685 	adfl	r17,r19,r15
000003ce 078680ff        686 	addi	-128,r7,r16
000003d2 d031            687 	add	r16,r6
000003d4 a60709500000    688 	ld.dw	0[r6],r10
000003da 00da            689 	mov	0,r27
000003dc 0a60            690 	mov	r10,r12
000003de c961            691 	add	r9,r12
000003e0 ef5fa26b        692 	adfl	r15,r11,r13
                         693 --line404
                         694 ..lin.C.3A.5C_ECU2.5CECU_Rivian_A1.5CTarget.5Crepo_projects.5CpRealEcu.5CcR_R2023.2E09.2E15.5Cmake.5Coutput.5Cobjects.5Csha2.25::

                                                                      Page 13
                                                              C:\Users\nhuliyap\AppData\Local\Temp\gh_00009081.s
                         695 .LDWlin25:
000003e4 410a            696 	add	1,r1
000003e6 bd070f600000    697 	st.dw	r12,0[r29]
000003ec 0106b0ff        698 	addi	-80,r1,zero
000003f0 f695*           699 	blt	.L542
                         700 --line408
                         701 ..lin.C.3A.5C_ECU2.5CECU_Rivian_A1.5CTarget.5Crepo_projects.5CpRealEcu.5CcR_R2023.2E09.2E15.5Cmake.5Coutput.5Cobjects.5Csha2.26::
                         702 .LDWlin26:
000003f2 1b08            703 	mov	r27,r1
                         704 .L545:
000003f4 0168            705 	mov	r1,r13
000003f6 c36a            706 	shl	3,r13
000003f8 23561000        707 	movea	16,sp,r10
000003fc cd51            708 	add	r13,r10
000003fe 187e0801        709 	addi	264,r24,r15
00000402 cf69            710 	add	r15,r13
00000404 ad0709700000    711 	ld.dw	0[r13],r14
                         712 --line408
                         713 ..lin.C.3A.5C_ECU2.5CECU_Rivian_A1.5CTarget.5Crepo_projects.5CpRealEcu.5CcR_R2023.2E09.2E15.5Cmake.5Coutput.5Cobjects.5Csha2.27::
                         714 .LDWlin27:
0000040a 410a            715 	add	1,r1
0000040c 680a            716 	cmp	8,r1
0000040e aa070f700000    717 	st.dw	r14,0[r10]
00000414 86f5*           718 	blt	.L545
                         719 --line412
                         720 ..lin.C.3A.5C_ECU2.5CECU_Rivian_A1.5CTarget.5Crepo_projects.5CpRealEcu.5CcR_R2023.2E09.2E15.5Cmake.5Coutput.5Cobjects.5Csha2.28::
                         721 .LDWlin28:
00000416 1b08            722 	mov	r27,r1
                         723 .L548:
00000418 a30709630000    724 	ld.dw	48[sp],r12
0000041e a30789440000    725 	ld.dw	72[sp],r8
00000424 01e8            726 	mov	r1,r29
00000426 a30789a30000    727 	ld.dw	56[sp],r20
0000042c 0c38            728 	mov	r12,r7
0000042e 0d70            729 	mov	r13,r14
00000430 0c30            730 	mov	r12,r6
00000432 0d80            731 	mov	r13,r16
00000434 8e3a            732 	shr	14,r7
00000436 d272            733 	shl	18,r14
00000438 0d98            734 	mov	r13,r19
0000043a 0c78            735 	mov	r12,r15
0000043c 9232            736 	shr	18,r6
0000043e ce82            737 	shl	14,r16
00000440 0771            738 	or	r7,r14
00000442 8e9a            739 	shr	14,r19
00000444 d27a            740 	shl	18,r15
00000446 1031            741 	or	r16,r6
00000448 1379            742 	or	r19,r15
0000044a 0d88            743 	mov	r13,r17
0000044c 0c38            744 	mov	r12,r7
0000044e 2671            745 	xor	r6,r14
00000450 928a            746 	shr	18,r17
00000452 ce3a            747 	shl	14,r7
00000454 0d50            748 	mov	r13,r10
00000456 0d90            749 	mov	r13,r18
00000458 0c98            750 	mov	r12,r19
0000045a 0c30            751 	mov	r12,r6
0000045c 1139            752 	or	r17,r7
0000045e 8952            753 	shr	9,r10
00000460 d792            754 	shl	23,r18
00000462 899a            755 	shr	9,r19

                                                                      Page 14
                                                              C:\Users\nhuliyap\AppData\Local\Temp\gh_00009081.s
00000464 d732            756 	shl	23,r6
00000466 2f39            757 	xor	r15,r7
00000468 1299            758 	or	r18,r19
0000046a 0651            759 	or	r6,r10
0000046c c3ea            760 	shl	3,r29
0000046e 2e51            761 	xor	r14,r10
00000470 2799            762 	xor	r7,r19
00000472 a30709b40000    763 	ld.dw	64[sp],r22
00000478 c851            764 	add	r8,r10
0000047a e99fa25b        765 	adfl	r9,r19,r11
0000047e 1480            766 	mov	r20,r16
00000480 1588            767 	mov	r21,r17
00000482 2c40            768 	not	r12,r8
00000484 2d38            769 	not	r13,r7
00000486 4c81            770 	and	r12,r16
00000488 4d89            771 	and	r13,r17
0000048a 5641            772 	and	r22,r8
0000048c 5739            773 	and	r23,r7
0000048e 3041            774 	xor	r16,r8
00000490 3139            775 	xor	r17,r7
00000492 ca41            776 	add	r10,r8
00000494 eb3fa24b        777 	adfl	r11,r7,r9
00000498 310600000000*   778 	mov	_sha512_k,r17
0000049e dd89            779 	add	r29,r17
000004a0 b10709900000    780 	ld.dw	0[r17],r18
                         781 --line415
                         782 ..lin.C.3A.5C_ECU2.5CECU_Rivian_A1.5CTarget.5Crepo_projects.5CpRealEcu.5CcR_R2023.2E09.2E15.5Cmake.5Coutput.5Cobjects.5Csha2.29::
                         783 .LDWlin29:
000004a6 a30789d10000    784 	ld.dw	24[sp],r26
000004ac 1230            785 	mov	r18,r6
000004ae c831            786 	add	r8,r6
000004b0 e99fa23b        787 	adfl	r9,r19,r7
000004b4 234e5000        788 	movea	80,sp,r9
000004b8 c9e9            789 	add	r9,r29
000004ba bd0709900000    790 	ld.dw	0[r29],r18
000004c0 a30709410000    791 	ld.dw	16[sp],r8
000004c6 a30709e20000    792 	ld.dw	32[sp],r28
000004cc 03f0            793 	mov	sp,ep
000004ce c691            794 	add	r6,r18
000004d0 e79fa2fb        795 	adfl	r7,r19,lp
000004d4 0880            796 	mov	r8,r16
000004d6 0970            797 	mov	r9,r14
000004d8 0978            798 	mov	r9,r15
000004da 0888            799 	mov	r8,r17
000004dc 9c82            800 	shr	28,r16
000004de c472            801 	shl	4,r14
000004e0 9c7a            802 	shr	28,r15
000004e2 c48a            803 	shl	4,r17
000004e4 0e81            804 	or	r14,r16
000004e6 0f89            805 	or	r15,r17
000004e8 a3078f800000    806 	st.dw	r16,8[sp]
000004ee 045d            807 	sld.w	8[ep],r11
000004f0 0950            808 	mov	r9,r10
000004f2 0830            809 	mov	r8,r6
000004f4 8252            810 	shr	2,r10
000004f6 de32            811 	shl	30,r6
000004f8 0a31            812 	or	r10,r6
000004fa 2b31            813 	xor	r11,r6
000004fc 065d            814 	sld.w	12[ep],r11
000004fe 0978            815 	mov	r9,r15
00000500 0888            816 	mov	r8,r17

                                                                      Page 15
                                                              C:\Users\nhuliyap\AppData\Local\Temp\gh_00009081.s
00000502 de7a            817 	shl	30,r15
00000504 828a            818 	shr	2,r17
00000506 0f89            819 	or	r15,r17
00000508 3159            820 	xor	r17,r11
0000050a 0980            821 	mov	r9,r16
0000050c 0950            822 	mov	r9,r10
0000050e 0888            823 	mov	r8,r17
00000510 0870            824 	mov	r8,r14
00000512 8782            825 	shr	7,r16
00000514 d952            826 	shl	25,r10
00000516 878a            827 	shr	7,r17
00000518 d972            828 	shl	25,r14
0000051a 0a89            829 	or	r10,r17
0000051c 0e81            830 	or	r14,r16
0000051e 2b89            831 	xor	r11,r17
00000520 1c70            832 	mov	r28,r14
00000522 1d78            833 	mov	r29,r15
00000524 3a71            834 	xor	r26,r14
00000526 3b79            835 	xor	r27,r15
00000528 1c50            836 	mov	r28,r10
0000052a 1d58            837 	mov	r29,r11
0000052c 4871            838 	and	r8,r14
0000052e 4979            839 	and	r9,r15
00000530 5a51            840 	and	r26,r10
00000532 5b59            841 	and	r27,r11
00000534 2e51            842 	xor	r14,r10
00000536 2f59            843 	xor	r15,r11
                         844 --line419
                         845 ..lin.C.3A.5C_ECU2.5CECU_Rivian_A1.5CTarget.5Crepo_projects.5CpRealEcu.5CcR_R2023.2E09.2E15.5Cmake.5Coutput.5Cobjects.5Csha2.30::
                         846 .LDWlin30:
00000538 a30789720000    847 	ld.dw	40[sp],r14
0000053e 2681            848 	xor	r6,r16
00000540 d051            849 	add	r16,r10
00000542 f15fa23b        850 	adfl	r17,r11,r7
00000546 1280            851 	mov	r18,r16
00000548 ce81            852 	add	r14,r16
0000054a efffa28b        853 	adfl	r15,lp,r17
                         854 --line423
                         855 ..lin.C.3A.5C_ECU2.5CECU_Rivian_A1.5CTarget.5Crepo_projects.5CpRealEcu.5CcR_R2023.2E09.2E15.5Cmake.5Coutput.5Cobjects.5Csha2.31::
                         856 .LDWlin31:
0000054e 0a70            857 	mov	r10,r14
00000550 d271            858 	add	r18,r14
00000552 ff3fa27b        859 	adfl	lp,r7,r15
00000556 410a            860 	add	1,r1
00000558 a3078fb40000    861 	st.dw	r22,72[sp]
                         862 --line417
                         863 ..lin.C.3A.5C_ECU2.5CECU_Rivian_A1.5CTarget.5Crepo_projects.5CpRealEcu.5CcR_R2023.2E09.2E15.5Cmake.5Coutput.5Cobjects.5Csha2.32::
                         864 .LDWlin32:
0000055e a3070fa40000    865 	st.dw	r20,64[sp]
                         866 --line418
                         867 ..lin.C.3A.5C_ECU2.5CECU_Rivian_A1.5CTarget.5Crepo_projects.5CpRealEcu.5CcR_R2023.2E09.2E15.5Cmake.5Coutput.5Cobjects.5Csha2.33::
                         868 .LDWlin33:
00000564 a3078f630000    869 	st.dw	r12,56[sp]
0000056a a3070f830000    870 	st.dw	r16,48[sp]
                         871 --line420
                         872 ..lin.C.3A.5C_ECU2.5CECU_Rivian_A1.5CTarget.5Crepo_projects.5CpRealEcu.5CcR_R2023.2E09.2E15.5Cmake.5Coutput.5Cobjects.5Csha2.34::
                         873 .LDWlin34:
00000570 a3078fe20000    874 	st.dw	r28,40[sp]
                         875 --line421
                         876 ..lin.C.3A.5C_ECU2.5CECU_Rivian_A1.5CTarget.5Crepo_projects.5CpRealEcu.5CcR_R2023.2E09.2E15.5Cmake.5Coutput.5Cobjects.5Csha2.35::
                         877 .LDWlin35:

                                                                      Page 16
                                                              C:\Users\nhuliyap\AppData\Local\Temp\gh_00009081.s
00000576 a3070fd20000    878 	st.dw	r26,32[sp]
                         879 --line422
                         880 ..lin.C.3A.5C_ECU2.5CECU_Rivian_A1.5CTarget.5Crepo_projects.5CpRealEcu.5CcR_R2023.2E09.2E15.5Cmake.5Coutput.5Cobjects.5Csha2.36::
                         881 .LDWlin36:
0000057c a3078f410000    882 	st.dw	r8,24[sp]
00000582 a3070f710000    883 	st.dw	r14,16[sp]
00000588 0106b0ff        884 	addi	-80,r1,zero
0000058c f6078dfe*       885 	blt	.L548
                         886 --line426
                         887 ..lin.C.3A.5C_ECU2.5CECU_Rivian_A1.5CTarget.5Crepo_projects.5CpRealEcu.5CcR_R2023.2E09.2E15.5Cmake.5Coutput.5Cobjects.5Csha2.37::
                         888 .LDWlin37:
00000590 000a            889 	mov	0,r1
                         890 .L551:
00000592 0168            891 	mov	r1,r13
00000594 c36a            892 	shl	3,r13
00000596 189e0801        893 	addi	264,r24,r19
0000059a cd99            894 	add	r13,r19
0000059c 23361000        895 	movea	16,sp,r6
000005a0 c669            896 	add	r6,r13
000005a2 ad0709400000    897 	ld.dw	0[r13],r8
000005a8 b30709500000    898 	ld.dw	0[r19],r10
000005ae 0860            899 	mov	r8,r12
000005b0 ca61            900 	add	r10,r12
000005b2 eb4fa26b        901 	adfl	r11,r9,r13
                         902 --line426
                         903 ..lin.C.3A.5C_ECU2.5CECU_Rivian_A1.5CTarget.5Crepo_projects.5CpRealEcu.5CcR_R2023.2E09.2E15.5Cmake.5Coutput.5Cobjects.5Csha2.38::
                         904 .LDWlin38:
000005b6 410a            905 	add	1,r1
000005b8 b3070f600000    906 	st.dw	r12,0[r19]
000005be 680a            907 	cmp	8,r1
000005c0 96ed*           908 	blt	.L551
                         909 --line396
                         910 ..lin.C.3A.5C_ECU2.5CECU_Rivian_A1.5CTarget.5Crepo_projects.5CpRealEcu.5CcR_R2023.2E09.2E15.5Cmake.5Coutput.5Cobjects.5Csha2.39::
                         911 .LDWlin39:
000005c2 41ca            912 	add	1,r25
                         913 .L536:
000005c4 235f0500        914 	ld.w	4[sp],r11
000005c8 ebc9            915 	cmp	r11,r25
000005ca f60703fd*       916 	blt	.L535
                         917 --	    .ef
                         918 .LDW12:
                         919 --line480
                         920 ..lin.C.3A.5C_ECU2.5CECU_Rivian_A1.5CTarget.5Crepo_projects.5CpRealEcu.5CcR_R2023.2E09.2E15.5Cmake.5Coutput.5Cobjects.5Csha2.40::
                         921 .LDWlin40:
000005ce 031e5402        922 	addi	596,sp,sp
000005d2 7e06ffff        923 	dispose	31,{r20,r21,r22,r23,r24,r25,r26,r27,r28,r29,r31},[lp]
                         924 	.global	___ghs_eofn_sha512_transf
                         925 ___ghs_eofn_sha512_transf:
                         926 	.type	_sha512_transf,@function
                         927 	.size	_sha512_transf,.-_sha512_transf
                         928 	.align	2
                         929 --_w	80[sp]	local
                         930 --_wv	16[sp]	local
                         931 --_t1	r16	local
                         932 --_t2	r14	local
                         933 --_sub_block	r15	local
                         934 --_i	r25	local
                         935 --_j	r1	local
                         936 
                         937 --_ctx	r24	param
                         938 --_message	0[sp]	param

                                                                      Page 17
                                                              C:\Users\nhuliyap\AppData\Local\Temp\gh_00009081.s
                         939 --_block_nb	4[sp]	param
                         940 
                         941 	.section ".bss","awb"
                         942 .L652:
                         943 	.type	.L652,@object
                         944 	.size	.L652,0
                         945 	.data
                         946 	.text
                         947 	.align	2
                         948 	.align	2
                         949 ..gh.f.f.1.e.6:
                         950 	.type	..gh.f.f.1.e.6,@object
                         951 	.size	..gh.f.f.1.e.6,0
                         952 	.global	_sha512_init
                         953 _sha512_init:
000005d6 06f0            954 	mov	r6,ep
                         955 --	    .bf
                         956 .LDW22:
000005d8 008a            957 	mov	0,r17
                         958 .L788:
000005da 1190            959 	mov	r17,r18
000005dc c392            960 	shl	3,r18
000005de 06860801        961 	addi	264,r6,r16
000005e2 d281            962 	add	r18,r16
000005e4 2f0600000000*   963 	mov	_sha512_h0,r15
000005ea cf91            964 	add	r15,r18
000005ec b20709700000    965 	ld.dw	0[r18],r14
                         966 --line496
                         967 ..lin.C.3A.5C_ECU2.5CECU_Rivian_A1.5CTarget.5Crepo_projects.5CpRealEcu.5CcR_R2023.2E09.2E15.5Cmake.5Coutput.5Cobjects.5Csha2.41::
                         968 .LDWlin41:
000005f2 418a            969 	add	1,r17
000005f4 688a            970 	cmp	8,r17
000005f6 b0070f700000    971 	st.dw	r14,0[r16]
000005fc f6ed*           972 	blt	.L788
                         973 --line506
                         974 ..lin.C.3A.5C_ECU2.5CECU_Rivian_A1.5CTarget.5Crepo_projects.5CpRealEcu.5CcR_R2023.2E09.2E15.5Cmake.5Coutput.5Cobjects.5Csha2.42::
                         975 .LDWlin42:
000005fe 0305            976 	sst.w	zero,4[ep]
00000600 0105            977 	sst.w	zero,0[ep]
                         978 --	    .ef
                         979 .LDW32:
00000602 7f00            980 	jmp	[lp]
                         981 	.global	___ghs_eofn_sha512_init
                         982 ___ghs_eofn_sha512_init:
                         983 	.type	_sha512_init,@function
                         984 	.size	_sha512_init,.-_sha512_init
                         985 	.align	2
                         986 --_i	r17	local
                         987 
                         988 --_ctx	ep	param
                         989 
                         990 	.section ".bss","awb"
                         991 .L827:
                         992 	.type	.L827,@object
                         993 	.size	.L827,0
                         994 	.data
                         995 	.text
                         996 	.align	2
                         997 	.align	2
                         998 ..gh.f.f.1.e.7:
                         999 	.type	..gh.f.f.1.e.7,@object

                                                                      Page 18
                                                              C:\Users\nhuliyap\AppData\Local\Temp\gh_00009081.s
                        1000 	.size	..gh.f.f.1.e.7,0
                        1001 	.global	_sha512_update
                        1002 _sha512_update:
00000604 8007e1f0       1003 	prepare	{r24,r25,r26,r27,r28,r29,r31},0
00000608 06e8           1004 	mov	r6,r29
0000060a 07c8           1005 	mov	r7,r25
0000060c 08e0           1006 	mov	r8,r28
                        1007 --	    .bf
                        1008 .LDW42:
0000060e 26770500       1009 	ld.w	4[r6],r14
00000612 208e8000       1010 	movea	128,zero,r17
00000616 ae89           1011 	sub	r14,r17
00000618 e889           1012 	cmp	r8,r17
0000061a e88f32d3       1013 	cmovnl	r8,r17,r26
0000061e 4832           1014 	add	8,r6
00000620 ce31           1015 	add	r14,r6
00000622 1a40           1016 	mov	r26,r8
                        1017 	jarl	_memcpy,lp
                        1017 <EXPANSION BEGIN>
                        1017 jarl22 _memcpy , lp 
00000624 80ff0000*      1017 <EXPANSION END>
                        1018 --line522
                        1019 ..lin.C.3A.5C_ECU2.5CECU_Rivian_A1.5CTarget.5Crepo_projects.5CpRealEcu.5CcR_R2023.2E09.2E15.5Cmake.5Coutput.5Cobjects.5Csha2.43::
                        1020 .LDWlin43:
00000628 3d970500       1021 	ld.w	4[r29],r18
0000062c dc91           1022 	add	r28,r18
0000062e 120680ff       1023 	addi	-128,r18,zero
00000632 d105*          1024 	bl	.L865
                        1025 --line523
                        1026 ..lin.C.3A.5C_ECU2.5CECU_Rivian_A1.5CTarget.5Crepo_projects.5CpRealEcu.5CcR_R2023.2E09.2E15.5Cmake.5Coutput.5Cobjects.5Csha2.44::
                        1027 .LDWlin44:
00000634 7d970500       1028 	st.w	r18,4[r29]
00000638 4006fff0       1029 	dispose	0,{r24,r25,r26,r27,r28,r29,r31},[lp]
                        1030 .L865:
                        1031 --line527
                        1032 ..lin.C.3A.5C_ECU2.5CECU_Rivian_A1.5CTarget.5Crepo_projects.5CpRealEcu.5CcR_R2023.2E09.2E15.5Cmake.5Coutput.5Cobjects.5Csha2.45::
                        1033 .LDWlin45:
0000063c bae1           1034 	sub	r26,r28
0000063e 1cd8           1035 	mov	r28,r27
00000640 87da           1036 	shr	7,r27
00000642 dac9           1037 	add	r26,r25
00000644 1d30           1038 	mov	r29,r6
00000646 1d3e0800       1039 	addi	8,r29,r7
0000064a 0142           1040 	mov	1,r8
                        1041 	jarl	_sha512_transf,lp
                        1041 <EXPANSION BEGIN>
                        1041 jarl22 _sha512_transf , lp 
0000064c bfff6afc*      1041 <EXPANSION END>
                        1042 --line533
                        1043 ..lin.C.3A.5C_ECU2.5CECU_Rivian_A1.5CTarget.5Crepo_projects.5CpRealEcu.5CcR_R2023.2E09.2E15.5Cmake.5Coutput.5Cobjects.5Csha2.46::
                        1044 .LDWlin46:
00000650 1d30           1045 	mov	r29,r6
00000652 1938           1046 	mov	r25,r7
00000654 1b40           1047 	mov	r27,r8
                        1048 	jarl	_sha512_transf,lp
                        1048 <EXPANSION BEGIN>
                        1048 jarl22 _sha512_transf , lp 
00000656 bfff60fc*      1048 <EXPANSION END>
                        1049 --line537
                        1050 ..lin.C.3A.5C_ECU2.5CECU_Rivian_A1.5CTarget.5Crepo_projects.5CpRealEcu.5CcR_R2023.2E09.2E15.5Cmake.5Coutput.5Cobjects.5Csha2.47::
                        1051 .LDWlin47:

                                                                      Page 19
                                                              C:\Users\nhuliyap\AppData\Local\Temp\gh_00009081.s
0000065a 1b38           1052 	mov	r27,r7
0000065c dcd67f00       1053 	andi	127,r28,r26
00000660 c73a           1054 	shl	7,r7
00000662 1d360800       1055 	addi	8,r29,r6
00000666 d939           1056 	add	r25,r7
00000668 1a40           1057 	mov	r26,r8
                        1058 	jarl	_memcpy,lp
                        1058 <EXPANSION BEGIN>
                        1058 jarl22 _memcpy , lp 
0000066a 80ff0000*      1058 <EXPANSION END>
                        1059 --line540
                        1060 ..lin.C.3A.5C_ECU2.5CECU_Rivian_A1.5CTarget.5Crepo_projects.5CpRealEcu.5CcR_R2023.2E09.2E15.5Cmake.5Coutput.5Cobjects.5Csha2.48::
                        1061 .LDWlin48:
0000066e 1df0           1062 	mov	r29,ep
00000670 007d           1063 	sld.w	0[ep],r15
00000672 1b860100       1064 	addi	1,r27,r16
00000676 c782           1065 	shl	7,r16
00000678 03d5           1066 	sst.w	r26,4[ep]
0000067a d079           1067 	add	r16,r15
0000067c 017d           1068 	sst.w	r15,0[ep]
                        1069 --	    .ef
                        1070 .LDW52:
0000067e 4006fff0       1071 	dispose	0,{r24,r25,r26,r27,r28,r29,r31},[lp]
                        1072 	.global	___ghs_eofn_sha512_update
                        1073 ___ghs_eofn_sha512_update:
                        1074 	.type	_sha512_update,@function
                        1075 	.size	_sha512_update,.-_sha512_update
                        1076 	.align	2
                        1077 --_block_nb	r27	local
                        1078 --_rem_len	r26	local
                        1079 --_shifted_message	r25	local
                        1080 
                        1081 --_ctx	r29	param
                        1082 --_message	r24	param
                        1083 --_len	r28	param
                        1084 
                        1085 	.section ".bss","awb"
                        1086 .L907:
                        1087 	.type	.L907,@object
                        1088 	.size	.L907,0
                        1089 	.data
                        1090 	.text
                        1091 	.align	2
                        1092 	.align	2
                        1093 ..gh.f.f.1.e.8:
                        1094 	.type	..gh.f.f.1.e.8,@object
                        1095 	.size	..gh.f.f.1.e.8,0
                        1096 	.global	_sha512_final
                        1097 _sha512_final:
00000682 8007e1f0       1098 	prepare	{r24,r25,r26,r27,r28,r29,r31},0
00000686 06d8           1099 	mov	r6,r27
00000688 07c0           1100 	mov	r7,r24
                        1101 --	    .bf
                        1102 .LDW62:
0000068a 06f0           1103 	mov	r6,ep
0000068c 0255           1104 	sld.w	4[ep],r10
0000068e 00ed           1105 	sld.w	0[ep],r29
00000690 ca667f00       1106 	andi	127,r10,r12
00000694 0c0690ff       1107 	addi	-112,r12,zero
00000698 e16f0000       1108 	setfl	r13
0000069c 0dce0100       1109 	addi	1,r13,r25

                                                                      Page 20
                                                              C:\Users\nhuliyap\AppData\Local\Temp\gh_00009081.s
000006a0 19e0           1110 	mov	r25,r28
000006a2 c7e2           1111 	shl	7,r28
000006a4 06d60800       1112 	addi	8,r6,r26
000006a8 cae9           1113 	add	r10,r29
000006aa 0a30           1114 	mov	r10,r6
000006ac 1c38           1115 	mov	r28,r7
000006ae c3ea           1116 	shl	3,r29
000006b0 da31           1117 	add	r26,r6
000006b2 aa39           1118 	sub	r10,r7
                        1119 	jarl	___gh_memclr,lp
                        1119 <EXPANSION BEGIN>
                        1119 jarl22 ___gh_memclr , lp 
000006b4 80ff0000*      1119 <EXPANSION END>
                        1120 --line561
                        1121 ..lin.C.3A.5C_ECU2.5CECU_Rivian_A1.5CTarget.5Crepo_projects.5CpRealEcu.5CcR_R2023.2E09.2E15.5Cmake.5Coutput.5Cobjects.5Csha2.49::
                        1122 .LDWlin49:
000006b8 3bf70500       1123 	ld.w	4[r27],ep
000006bc 205e8000       1124 	movea	128,zero,r11
000006c0 dae1           1125 	add	r26,r28
000006c2 1d40           1126 	mov	r29,r8
000006c4 daf1           1127 	add	r26,ep
000006c6 805b           1128 	sst.b	r11,0[ep]
000006c8 3cf6fcff       1129 	movea	-4,r28,ep
000006cc 83eb           1130 	sst.b	r29,3[ep]
000006ce 1d48           1131 	mov	r29,r9
000006d0 9042           1132 	shr	16,r8
000006d2 884a           1133 	shr	8,r9
000006d4 8143           1134 	sst.b	r8,1[ep]
000006d6 98ea           1135 	shr	24,r29
000006d8 1a38           1136 	mov	r26,r7
000006da 824b           1137 	sst.b	r9,2[ep]
000006dc 80eb           1138 	sst.b	r29,0[ep]
000006de 1b30           1139 	mov	r27,r6
000006e0 1940           1140 	mov	r25,r8
                        1141 	jarl	_sha512_transf,lp
                        1141 <EXPANSION BEGIN>
                        1141 jarl22 _sha512_transf , lp 
000006e2 bfffd4fb*      1141 <EXPANSION END>
                        1142 --line567
                        1143 ..lin.C.3A.5C_ECU2.5CECU_Rivian_A1.5CTarget.5Crepo_projects.5CpRealEcu.5CcR_R2023.2E09.2E15.5Cmake.5Coutput.5Cobjects.5Csha2.50::
                        1144 .LDWlin50:
000006e6 005a           1145 	mov	0,r11
                        1146 .L953:
000006e8 0bf0           1147 	mov	r11,ep
000006ea c3f2           1148 	shl	3,ep
000006ec 1b960801       1149 	addi	264,r27,r18
000006f0 de91           1150 	add	ep,r18
000006f2 b20709400000   1151 	ld.dw	0[r18],r8
000006f8 d8f1           1152 	add	r24,ep
                        1153 --line567
                        1154 ..lin.C.3A.5C_ECU2.5CECU_Rivian_A1.5CTarget.5Crepo_projects.5CpRealEcu.5CcR_R2023.2E09.2E15.5Cmake.5Coutput.5Cobjects.5Csha2.51::
                        1155 .LDWlin51:
000006fa 415a           1156 	add	1,r11
000006fc 8743           1157 	sst.b	r8,7[ep]
000006fe b20709800000   1158 	ld.dw	0[r18],r16
00000704 8882           1159 	shr	8,r16
00000706 8683           1160 	sst.b	r16,6[ep]
00000708 b20709700000   1161 	ld.dw	0[r18],r14
0000070e 9072           1162 	shr	16,r14
00000710 8573           1163 	sst.b	r14,5[ep]
00000712 b20709600000   1164 	ld.dw	0[r18],r12

                                                                      Page 21
                                                              C:\Users\nhuliyap\AppData\Local\Temp\gh_00009081.s
00000718 9862           1165 	shr	24,r12
0000071a 8463           1166 	sst.b	r12,4[ep]
0000071c b20709300000   1167 	ld.dw	0[r18],r6
00000722 833b           1168 	sst.b	r7,3[ep]
00000724 b20709300000   1169 	ld.dw	0[r18],r6
0000072a 883a           1170 	shr	8,r7
0000072c 823b           1171 	sst.b	r7,2[ep]
0000072e b20709800000   1172 	ld.dw	0[r18],r16
00000734 908a           1173 	shr	16,r17
00000736 818b           1174 	sst.b	r17,1[ep]
00000738 b20709700000   1175 	ld.dw	0[r18],r14
0000073e 987a           1176 	shr	24,r15
00000740 807b           1177 	sst.b	r15,0[ep]
00000742 685a           1178 	cmp	8,r11
00000744 a6d5*          1179 	blt	.L953
                        1180 --	    .ef
                        1181 .LDW72:
                        1182 --line580
                        1183 ..lin.C.3A.5C_ECU2.5CECU_Rivian_A1.5CTarget.5Crepo_projects.5CpRealEcu.5CcR_R2023.2E09.2E15.5Cmake.5Coutput.5Cobjects.5Csha2.52::
                        1184 .LDWlin52:
00000746 4006fff0       1185 	dispose	0,{r24,r25,r26,r27,r28,r29,r31},[lp]
                        1186 	.global	___ghs_eofn_sha512_final
                        1187 ___ghs_eofn_sha512_final:
                        1188 	.type	_sha512_final,@function
                        1189 	.size	_sha512_final,.-_sha512_final
                        1190 	.align	2
                        1191 --_block_nb	r25	local
                        1192 --_len_b	r29	local
                        1193 --_i	r11	local
                        1194 
                        1195 --_ctx	r27	param
                        1196 --_digest	r24	param
                        1197 
                        1198 	.section ".bss","awb"
                        1199 .L986:
                        1200 	.type	.L986,@object
                        1201 	.size	.L986,0
                        1202 	.data
                        1203 	.text
                        1204 	.align	2
                        1205 	.align	2
                        1206 ..gh.f.f.1.e.9:
                        1207 	.type	..gh.f.f.1.e.9,@object
                        1208 	.size	..gh.f.f.1.e.9,0
                        1209 	.global	_sha512
                        1210 _sha512:
0000074a be076110       1211 	prepare	{r27,r29,r31},31
0000074e 031e30ff       1212 	addi	-208,sp,sp
00000752 06e8           1213 	mov	r6,r29
00000754 08d8           1214 	mov	r8,r27
                        1215 --	    .bf
                        1216 .LDW82:
00000756 0330           1217 	mov	sp,r6
                        1218 	jarl	_sha512_init,lp
                        1218 <EXPANSION BEGIN>
                        1218 jarl22 _sha512_init , lp 
00000758 bfff7efe*      1218 <EXPANSION END>
                        1219 --line488
                        1220 ..lin.C.3A.5C_ECU2.5CECU_Rivian_A1.5CTarget.5Crepo_projects.5CpRealEcu.5CcR_R2023.2E09.2E15.5Cmake.5Coutput.5Cobjects.5Csha2.53::
                        1221 .LDWlin53:
0000075c 0740           1222 	mov	r7,r8

                                                                      Page 22
                                                              C:\Users\nhuliyap\AppData\Local\Temp\gh_00009081.s
0000075e 1d38           1223 	mov	r29,r7
                        1224 	jarl	_sha512_update,lp
                        1224 <EXPANSION BEGIN>
                        1224 jarl22 _sha512_update , lp 
00000760 bfffa4fe*      1224 <EXPANSION END>
                        1225 --line489
                        1226 ..lin.C.3A.5C_ECU2.5CECU_Rivian_A1.5CTarget.5Crepo_projects.5CpRealEcu.5CcR_R2023.2E09.2E15.5Cmake.5Coutput.5Cobjects.5Csha2.54::
                        1227 .LDWlin54:
00000764 1b38           1228 	mov	r27,r7
00000766 0330           1229 	mov	sp,r6
                        1230 	jarl	_sha512_final,lp
                        1230 <EXPANSION BEGIN>
                        1230 jarl22 _sha512_final , lp 
00000768 bfff1aff*      1230 <EXPANSION END>
                        1231 --	    .ef
                        1232 .LDW92:
                        1233 --line490
                        1234 ..lin.C.3A.5C_ECU2.5CECU_Rivian_A1.5CTarget.5Crepo_projects.5CpRealEcu.5CcR_R2023.2E09.2E15.5Cmake.5Coutput.5Cobjects.5Csha2.55::
                        1235 .LDWlin55:
0000076c 031ed000       1236 	addi	208,sp,sp
00000770 7e067f10       1237 	dispose	31,{r27,r29,r31},[lp]
                        1238 	.global	___ghs_eofn_sha512
                        1239 ___ghs_eofn_sha512:
                        1240 	.type	_sha512,@function
                        1241 	.size	_sha512,.-_sha512
                        1242 	.align	2
                        1243 --_ctx	0[sp]	local
                        1244 
                        1245 --_message	r29	param
                        1246 --_len	r28	param
                        1247 --_digest	r27	param
                        1248 
                        1249 	.section ".bss","awb"
                        1250 .L1041:
                        1251 	.type	.L1041,@object
                        1252 	.size	.L1041,0
                        1253 	.data
                        1254 	.text
                        1255 	.align	2
                        1256 	.align	2
                        1257 ..gh.f.f.1.e.10:
                        1258 	.type	..gh.f.f.1.e.10,@object
                        1259 	.size	..gh.f.f.1.e.10,0
                        1260 	.global	_sha384_init
                        1261 _sha384_init:
00000774 06f0           1262 	mov	r6,ep
                        1263 --	    .bf
                        1264 .LDW03:
00000776 008a           1265 	mov	0,r17
                        1266 .L1063:
00000778 1190           1267 	mov	r17,r18
0000077a c392           1268 	shl	3,r18
0000077c 06860801       1269 	addi	264,r6,r16
00000780 d281           1270 	add	r18,r16
00000782 2f0600000000*  1271 	mov	_sha384_h0,r15
00000788 cf91           1272 	add	r15,r18
0000078a b20709700000   1273 	ld.dw	0[r18],r14
                        1274 --line596
                        1275 ..lin.C.3A.5C_ECU2.5CECU_Rivian_A1.5CTarget.5Crepo_projects.5CpRealEcu.5CcR_R2023.2E09.2E15.5Cmake.5Coutput.5Cobjects.5Csha2.56::
                        1276 .LDWlin56:
00000790 418a           1277 	add	1,r17

                                                                      Page 23
                                                              C:\Users\nhuliyap\AppData\Local\Temp\gh_00009081.s
00000792 688a           1278 	cmp	8,r17
00000794 b0070f700000   1279 	st.dw	r14,0[r16]
0000079a f6ed*          1280 	blt	.L1063
                        1281 --line606
                        1282 ..lin.C.3A.5C_ECU2.5CECU_Rivian_A1.5CTarget.5Crepo_projects.5CpRealEcu.5CcR_R2023.2E09.2E15.5Cmake.5Coutput.5Cobjects.5Csha2.57::
                        1283 .LDWlin57:
0000079c 0305           1284 	sst.w	zero,4[ep]
0000079e 0105           1285 	sst.w	zero,0[ep]
                        1286 --	    .ef
                        1287 .LDW13:
000007a0 7f00           1288 	jmp	[lp]
                        1289 	.global	___ghs_eofn_sha384_init
                        1290 ___ghs_eofn_sha384_init:
                        1291 	.type	_sha384_init,@function
                        1292 	.size	_sha384_init,.-_sha384_init
                        1293 	.align	2
                        1294 --_i	r17	local
                        1295 
                        1296 --_ctx	ep	param
                        1297 
                        1298 	.section ".bss","awb"
                        1299 .L1099:
                        1300 	.type	.L1099,@object
                        1301 	.size	.L1099,0
                        1302 	.data
                        1303 	.text
                        1304 	.align	2
                        1305 	.align	2
                        1306 ..gh.f.f.1.e.11:
                        1307 	.type	..gh.f.f.1.e.11,@object
                        1308 	.size	..gh.f.f.1.e.11,0
                        1309 	.global	_sha384_update
                        1310 _sha384_update:
000007a2 8007e1f0       1311 	prepare	{r24,r25,r26,r27,r28,r29,r31},0
000007a6 06e8           1312 	mov	r6,r29
000007a8 07c8           1313 	mov	r7,r25
000007aa 08e0           1314 	mov	r8,r28
                        1315 --	    .bf
                        1316 .LDW23:
000007ac 26770500       1317 	ld.w	4[r6],r14
000007b0 208e8000       1318 	movea	128,zero,r17
000007b4 ae89           1319 	sub	r14,r17
000007b6 e889           1320 	cmp	r8,r17
000007b8 e88f32d3       1321 	cmovnl	r8,r17,r26
000007bc 4832           1322 	add	8,r6
000007be ce31           1323 	add	r14,r6
000007c0 1a40           1324 	mov	r26,r8
                        1325 	jarl	_memcpy,lp
                        1325 <EXPANSION BEGIN>
                        1325 jarl22 _memcpy , lp 
000007c2 80ff0000*      1325 <EXPANSION END>
                        1326 --line622
                        1327 ..lin.C.3A.5C_ECU2.5CECU_Rivian_A1.5CTarget.5Crepo_projects.5CpRealEcu.5CcR_R2023.2E09.2E15.5Cmake.5Coutput.5Cobjects.5Csha2.58::
                        1328 .LDWlin58:
000007c6 3d970500       1329 	ld.w	4[r29],r18
000007ca dc91           1330 	add	r28,r18
000007cc 120680ff       1331 	addi	-128,r18,zero
000007d0 d105*          1332 	bl	.L1137
                        1333 --line623
                        1334 ..lin.C.3A.5C_ECU2.5CECU_Rivian_A1.5CTarget.5Crepo_projects.5CpRealEcu.5CcR_R2023.2E09.2E15.5Cmake.5Coutput.5Cobjects.5Csha2.59::
                        1335 .LDWlin59:

                                                                      Page 24
                                                              C:\Users\nhuliyap\AppData\Local\Temp\gh_00009081.s
000007d2 7d970500       1336 	st.w	r18,4[r29]
000007d6 4006fff0       1337 	dispose	0,{r24,r25,r26,r27,r28,r29,r31},[lp]
                        1338 .L1137:
                        1339 --line627
                        1340 ..lin.C.3A.5C_ECU2.5CECU_Rivian_A1.5CTarget.5Crepo_projects.5CpRealEcu.5CcR_R2023.2E09.2E15.5Cmake.5Coutput.5Cobjects.5Csha2.60::
                        1341 .LDWlin60:
000007da bae1           1342 	sub	r26,r28
000007dc 1cd8           1343 	mov	r28,r27
000007de 87da           1344 	shr	7,r27
000007e0 dac9           1345 	add	r26,r25
000007e2 1d30           1346 	mov	r29,r6
000007e4 1d3e0800       1347 	addi	8,r29,r7
000007e8 0142           1348 	mov	1,r8
                        1349 	jarl	_sha512_transf,lp
                        1349 <EXPANSION BEGIN>
                        1349 jarl22 _sha512_transf , lp 
000007ea bfffccfa*      1349 <EXPANSION END>
                        1350 --line633
                        1351 ..lin.C.3A.5C_ECU2.5CECU_Rivian_A1.5CTarget.5Crepo_projects.5CpRealEcu.5CcR_R2023.2E09.2E15.5Cmake.5Coutput.5Cobjects.5Csha2.61::
                        1352 .LDWlin61:
000007ee 1d30           1353 	mov	r29,r6
000007f0 1938           1354 	mov	r25,r7
000007f2 1b40           1355 	mov	r27,r8
                        1356 	jarl	_sha512_transf,lp
                        1356 <EXPANSION BEGIN>
                        1356 jarl22 _sha512_transf , lp 
000007f4 bfffc2fa*      1356 <EXPANSION END>
                        1357 --line637
                        1358 ..lin.C.3A.5C_ECU2.5CECU_Rivian_A1.5CTarget.5Crepo_projects.5CpRealEcu.5CcR_R2023.2E09.2E15.5Cmake.5Coutput.5Cobjects.5Csha2.62::
                        1359 .LDWlin62:
000007f8 1b38           1360 	mov	r27,r7
000007fa dcd67f00       1361 	andi	127,r28,r26
000007fe c73a           1362 	shl	7,r7
00000800 1d360800       1363 	addi	8,r29,r6
00000804 d939           1364 	add	r25,r7
00000806 1a40           1365 	mov	r26,r8
                        1366 	jarl	_memcpy,lp
                        1366 <EXPANSION BEGIN>
                        1366 jarl22 _memcpy , lp 
00000808 80ff0000*      1366 <EXPANSION END>
                        1367 --line640
                        1368 ..lin.C.3A.5C_ECU2.5CECU_Rivian_A1.5CTarget.5Crepo_projects.5CpRealEcu.5CcR_R2023.2E09.2E15.5Cmake.5Coutput.5Cobjects.5Csha2.63::
                        1369 .LDWlin63:
0000080c 1df0           1370 	mov	r29,ep
0000080e 007d           1371 	sld.w	0[ep],r15
00000810 1b860100       1372 	addi	1,r27,r16
00000814 c782           1373 	shl	7,r16
00000816 03d5           1374 	sst.w	r26,4[ep]
00000818 d079           1375 	add	r16,r15
0000081a 017d           1376 	sst.w	r15,0[ep]
                        1377 --	    .ef
                        1378 .LDW33:
0000081c 4006fff0       1379 	dispose	0,{r24,r25,r26,r27,r28,r29,r31},[lp]
                        1380 	.global	___ghs_eofn_sha384_update
                        1381 ___ghs_eofn_sha384_update:
                        1382 	.type	_sha384_update,@function
                        1383 	.size	_sha384_update,.-_sha384_update
                        1384 	.align	2
                        1385 --_block_nb	r27	local
                        1386 --_rem_len	r26	local
                        1387 --_shifted_message	r25	local

                                                                      Page 25
                                                              C:\Users\nhuliyap\AppData\Local\Temp\gh_00009081.s
                        1388 
                        1389 --_ctx	r29	param
                        1390 --_message	r24	param
                        1391 --_len	r28	param
                        1392 
                        1393 	.section ".bss","awb"
                        1394 .L1179:
                        1395 	.type	.L1179,@object
                        1396 	.size	.L1179,0
                        1397 	.data
                        1398 	.text
                        1399 	.align	2
                        1400 	.align	2
                        1401 ..gh.f.f.1.e.12:
                        1402 	.type	..gh.f.f.1.e.12,@object
                        1403 	.size	..gh.f.f.1.e.12,0
                        1404 	.global	_sha384_final
                        1405 _sha384_final:
00000820 8007e1f0       1406 	prepare	{r24,r25,r26,r27,r28,r29,r31},0
00000824 06d8           1407 	mov	r6,r27
00000826 07c0           1408 	mov	r7,r24
                        1409 --	    .bf
                        1410 .LDW43:
00000828 06f0           1411 	mov	r6,ep
0000082a 0255           1412 	sld.w	4[ep],r10
0000082c 00ed           1413 	sld.w	0[ep],r29
0000082e ca667f00       1414 	andi	127,r10,r12
00000832 0c0690ff       1415 	addi	-112,r12,zero
00000836 e16f0000       1416 	setfl	r13
0000083a 0dce0100       1417 	addi	1,r13,r25
0000083e 19e0           1418 	mov	r25,r28
00000840 c7e2           1419 	shl	7,r28
00000842 06d60800       1420 	addi	8,r6,r26
00000846 cae9           1421 	add	r10,r29
00000848 0a30           1422 	mov	r10,r6
0000084a 1c38           1423 	mov	r28,r7
0000084c c3ea           1424 	shl	3,r29
0000084e da31           1425 	add	r26,r6
00000850 aa39           1426 	sub	r10,r7
                        1427 	jarl	___gh_memclr,lp
                        1427 <EXPANSION BEGIN>
                        1427 jarl22 ___gh_memclr , lp 
00000852 80ff0000*      1427 <EXPANSION END>
                        1428 --line661
                        1429 ..lin.C.3A.5C_ECU2.5CECU_Rivian_A1.5CTarget.5Crepo_projects.5CpRealEcu.5CcR_R2023.2E09.2E15.5Cmake.5Coutput.5Cobjects.5Csha2.64::
                        1430 .LDWlin64:
00000856 3bf70500       1431 	ld.w	4[r27],ep
0000085a 205e8000       1432 	movea	128,zero,r11
0000085e dae1           1433 	add	r26,r28
00000860 1d40           1434 	mov	r29,r8
00000862 daf1           1435 	add	r26,ep
00000864 805b           1436 	sst.b	r11,0[ep]
00000866 3cf6fcff       1437 	movea	-4,r28,ep
0000086a 83eb           1438 	sst.b	r29,3[ep]
0000086c 1d48           1439 	mov	r29,r9
0000086e 9042           1440 	shr	16,r8
00000870 884a           1441 	shr	8,r9
00000872 8143           1442 	sst.b	r8,1[ep]
00000874 98ea           1443 	shr	24,r29
00000876 1a38           1444 	mov	r26,r7
00000878 824b           1445 	sst.b	r9,2[ep]

                                                                      Page 26
                                                              C:\Users\nhuliyap\AppData\Local\Temp\gh_00009081.s
0000087a 80eb           1446 	sst.b	r29,0[ep]
0000087c 1b30           1447 	mov	r27,r6
0000087e 1940           1448 	mov	r25,r8
                        1449 	jarl	_sha512_transf,lp
                        1449 <EXPANSION BEGIN>
                        1449 jarl22 _sha512_transf , lp 
00000880 bfff36fa*      1449 <EXPANSION END>
                        1450 --line667
                        1451 ..lin.C.3A.5C_ECU2.5CECU_Rivian_A1.5CTarget.5Crepo_projects.5CpRealEcu.5CcR_R2023.2E09.2E15.5Cmake.5Coutput.5Cobjects.5Csha2.65::
                        1452 .LDWlin65:
00000884 005a           1453 	mov	0,r11
                        1454 .L1225:
00000886 0bf0           1455 	mov	r11,ep
00000888 c3f2           1456 	shl	3,ep
0000088a 1b960801       1457 	addi	264,r27,r18
0000088e de91           1458 	add	ep,r18
00000890 b20709400000   1459 	ld.dw	0[r18],r8
00000896 d8f1           1460 	add	r24,ep
                        1461 --line667
                        1462 ..lin.C.3A.5C_ECU2.5CECU_Rivian_A1.5CTarget.5Crepo_projects.5CpRealEcu.5CcR_R2023.2E09.2E15.5Cmake.5Coutput.5Cobjects.5Csha2.66::
                        1463 .LDWlin66:
00000898 415a           1464 	add	1,r11
0000089a 8743           1465 	sst.b	r8,7[ep]
0000089c b20709800000   1466 	ld.dw	0[r18],r16
000008a2 8882           1467 	shr	8,r16
000008a4 8683           1468 	sst.b	r16,6[ep]
000008a6 b20709700000   1469 	ld.dw	0[r18],r14
000008ac 9072           1470 	shr	16,r14
000008ae 8573           1471 	sst.b	r14,5[ep]
000008b0 b20709600000   1472 	ld.dw	0[r18],r12
000008b6 9862           1473 	shr	24,r12
000008b8 8463           1474 	sst.b	r12,4[ep]
000008ba b20709300000   1475 	ld.dw	0[r18],r6
000008c0 833b           1476 	sst.b	r7,3[ep]
000008c2 b20709300000   1477 	ld.dw	0[r18],r6
000008c8 883a           1478 	shr	8,r7
000008ca 823b           1479 	sst.b	r7,2[ep]
000008cc b20709800000   1480 	ld.dw	0[r18],r16
000008d2 908a           1481 	shr	16,r17
000008d4 818b           1482 	sst.b	r17,1[ep]
000008d6 b20709700000   1483 	ld.dw	0[r18],r14
000008dc 987a           1484 	shr	24,r15
000008de 807b           1485 	sst.b	r15,0[ep]
000008e0 665a           1486 	cmp	6,r11
000008e2 a6d5*          1487 	blt	.L1225
                        1488 --	    .ef
                        1489 .LDW53:
                        1490 --line678
                        1491 ..lin.C.3A.5C_ECU2.5CECU_Rivian_A1.5CTarget.5Crepo_projects.5CpRealEcu.5CcR_R2023.2E09.2E15.5Cmake.5Coutput.5Cobjects.5Csha2.67::
                        1492 .LDWlin67:
000008e4 4006fff0       1493 	dispose	0,{r24,r25,r26,r27,r28,r29,r31},[lp]
                        1494 	.global	___ghs_eofn_sha384_final
                        1495 ___ghs_eofn_sha384_final:
                        1496 	.type	_sha384_final,@function
                        1497 	.size	_sha384_final,.-_sha384_final
                        1498 	.align	2
                        1499 --_block_nb	r25	local
                        1500 --_len_b	r29	local
                        1501 --_i	r11	local
                        1502 
                        1503 --_ctx	r27	param

                                                                      Page 27
                                                              C:\Users\nhuliyap\AppData\Local\Temp\gh_00009081.s
                        1504 --_digest	r24	param
                        1505 
                        1506 	.section ".bss","awb"
                        1507 .L1258:
                        1508 	.type	.L1258,@object
                        1509 	.size	.L1258,0
                        1510 	.data
                        1511 	.text
                        1512 	.align	2
                        1513 	.align	2
                        1514 ..gh.f.f.1.e.13:
                        1515 	.type	..gh.f.f.1.e.13,@object
                        1516 	.size	..gh.f.f.1.e.13,0
                        1517 	.global	_sha384
                        1518 _sha384:
000008e8 be076110       1519 	prepare	{r27,r29,r31},31
000008ec 031e30ff       1520 	addi	-208,sp,sp
000008f0 06e8           1521 	mov	r6,r29
000008f2 08d8           1522 	mov	r8,r27
                        1523 --	    .bf
                        1524 .LDW63:
000008f4 0330           1525 	mov	sp,r6
                        1526 	jarl	_sha384_init,lp
                        1526 <EXPANSION BEGIN>
                        1526 jarl22 _sha384_init , lp 
000008f6 bfff7efe*      1526 <EXPANSION END>
                        1527 --line588
                        1528 ..lin.C.3A.5C_ECU2.5CECU_Rivian_A1.5CTarget.5Crepo_projects.5CpRealEcu.5CcR_R2023.2E09.2E15.5Cmake.5Coutput.5Cobjects.5Csha2.68::
                        1529 .LDWlin68:
000008fa 0740           1530 	mov	r7,r8
000008fc 1d38           1531 	mov	r29,r7
                        1532 	jarl	_sha384_update,lp
                        1532 <EXPANSION BEGIN>
                        1532 jarl22 _sha384_update , lp 
000008fe bfffa4fe*      1532 <EXPANSION END>
                        1533 --line589
                        1534 ..lin.C.3A.5C_ECU2.5CECU_Rivian_A1.5CTarget.5Crepo_projects.5CpRealEcu.5CcR_R2023.2E09.2E15.5Cmake.5Coutput.5Cobjects.5Csha2.69::
                        1535 .LDWlin69:
00000902 1b38           1536 	mov	r27,r7
00000904 0330           1537 	mov	sp,r6
                        1538 	jarl	_sha384_final,lp
                        1538 <EXPANSION BEGIN>
                        1538 jarl22 _sha384_final , lp 
00000906 bfff1aff*      1538 <EXPANSION END>
                        1539 --	    .ef
                        1540 .LDW73:
                        1541 --line590
                        1542 ..lin.C.3A.5C_ECU2.5CECU_Rivian_A1.5CTarget.5Crepo_projects.5CpRealEcu.5CcR_R2023.2E09.2E15.5Cmake.5Coutput.5Cobjects.5Csha2.70::
                        1543 .LDWlin70:
0000090a 031ed000       1544 	addi	208,sp,sp
0000090e 7e067f10       1545 	dispose	31,{r27,r29,r31},[lp]
                        1546 	.global	___ghs_eofn_sha384
                        1547 ___ghs_eofn_sha384:
                        1548 	.type	_sha384,@function
                        1549 	.size	_sha384,.-_sha384
                        1550 	.align	2
                        1551 --_ctx	0[sp]	local
                        1552 
                        1553 --_message	r29	param
                        1554 --_len	r28	param
                        1555 --_digest	r27	param

                                                                      Page 28
                                                              C:\Users\nhuliyap\AppData\Local\Temp\gh_00009081.s
                        1556 
                        1557 	.section ".bss","awb"
                        1558 .L1313:
                        1559 	.type	.L1313,@object
                        1560 	.size	.L1313,0
                        1561 	.data
                        1562 	.text
                        1563 	.align	2
                        1564 	.align	2
                        1565 ..gh.f.f.1.e.14:
                        1566 	.type	..gh.f.f.1.e.14,@object
                        1567 	.size	..gh.f.f.1.e.14,0
                        1568 	.global	_sha224_init
                        1569 _sha224_init:
                        1570 --	    .bf
                        1571 .LDW83:
00000912 008a           1572 	mov	0,r17
                        1573 .L1335:
00000914 1190           1574 	mov	r17,r18
00000916 c292           1575 	shl	2,r18
00000918 12f0           1576 	mov	r18,ep
0000091a 409e0000*      1577 	movhi	hi(_sha224_h0),zero,r19
0000091e d391           1578 	add	r19,r18
00000920 32970100*      1579 	ld.w	lo(_sha224_h0)[r18],r18
00000924 c6f1           1580 	add	r6,ep
                        1581 --line694
                        1582 ..lin.C.3A.5C_ECU2.5CECU_Rivian_A1.5CTarget.5Crepo_projects.5CpRealEcu.5CcR_R2023.2E09.2E15.5Cmake.5Coutput.5Cobjects.5Csha2.71::
                        1583 .LDWlin71:
00000926 418a           1584 	add	1,r17
00000928 688a           1585 	cmp	8,r17
0000092a 4595           1586 	sst.w	r18,136[ep]
0000092c c6f5*          1587 	blt	.L1335
                        1588 --line704
                        1589 ..lin.C.3A.5C_ECU2.5CECU_Rivian_A1.5CTarget.5Crepo_projects.5CpRealEcu.5CcR_R2023.2E09.2E15.5Cmake.5Coutput.5Cobjects.5Csha2.72::
                        1590 .LDWlin72:
0000092e 06f0           1591 	mov	r6,ep
00000930 0305           1592 	sst.w	zero,4[ep]
00000932 0105           1593 	sst.w	zero,0[ep]
                        1594 --	    .ef
                        1595 .LDW93:
00000934 7f00           1596 	jmp	[lp]
                        1597 	.global	___ghs_eofn_sha224_init
                        1598 ___ghs_eofn_sha224_init:
                        1599 	.type	_sha224_init,@function
                        1600 	.size	_sha224_init,.-_sha224_init
                        1601 	.align	2
                        1602 --_i	r17	local
                        1603 
                        1604 --_ctx	r6	param
                        1605 
                        1606 	.section ".bss","awb"
                        1607 .L1371:
                        1608 	.type	.L1371,@object
                        1609 	.size	.L1371,0
                        1610 	.data
                        1611 	.text
                        1612 	.align	2
                        1613 	.align	2
                        1614 ..gh.f.f.1.e.15:
                        1615 	.type	..gh.f.f.1.e.15,@object
                        1616 	.size	..gh.f.f.1.e.15,0

                                                                      Page 29
                                                              C:\Users\nhuliyap\AppData\Local\Temp\gh_00009081.s
                        1617 	.global	_sha224_update
                        1618 _sha224_update:
00000936 8007e1f0       1619 	prepare	{r24,r25,r26,r27,r28,r29,r31},0
0000093a 06e8           1620 	mov	r6,r29
0000093c 07c8           1621 	mov	r7,r25
0000093e 08e0           1622 	mov	r8,r28
                        1623 --	    .bf
                        1624 .LDW04:
00000940 26770500       1625 	ld.w	4[r6],r14
00000944 208e4000       1626 	movea	64,zero,r17
00000948 ae89           1627 	sub	r14,r17
0000094a e889           1628 	cmp	r8,r17
0000094c e88f32d3       1629 	cmovnl	r8,r17,r26
00000950 4832           1630 	add	8,r6
00000952 ce31           1631 	add	r14,r6
00000954 1a40           1632 	mov	r26,r8
                        1633 	jarl	_memcpy,lp
                        1633 <EXPANSION BEGIN>
                        1633 jarl22 _memcpy , lp 
00000956 80ff0000*      1633 <EXPANSION END>
                        1634 --line720
                        1635 ..lin.C.3A.5C_ECU2.5CECU_Rivian_A1.5CTarget.5Crepo_projects.5CpRealEcu.5CcR_R2023.2E09.2E15.5Cmake.5Coutput.5Cobjects.5Csha2.73::
                        1636 .LDWlin73:
0000095a 3d970500       1637 	ld.w	4[r29],r18
0000095e dc91           1638 	add	r28,r18
00000960 1206c0ff       1639 	addi	-64,r18,zero
00000964 d105*          1640 	bl	.L1409
                        1641 --line721
                        1642 ..lin.C.3A.5C_ECU2.5CECU_Rivian_A1.5CTarget.5Crepo_projects.5CpRealEcu.5CcR_R2023.2E09.2E15.5Cmake.5Coutput.5Cobjects.5Csha2.74::
                        1643 .LDWlin74:
00000966 7d970500       1644 	st.w	r18,4[r29]
0000096a 4006fff0       1645 	dispose	0,{r24,r25,r26,r27,r28,r29,r31},[lp]
                        1646 .L1409:
                        1647 --line725
                        1648 ..lin.C.3A.5C_ECU2.5CECU_Rivian_A1.5CTarget.5Crepo_projects.5CpRealEcu.5CcR_R2023.2E09.2E15.5Cmake.5Coutput.5Cobjects.5Csha2.75::
                        1649 .LDWlin75:
0000096e bae1           1650 	sub	r26,r28
00000970 1cd8           1651 	mov	r28,r27
00000972 86da           1652 	shr	6,r27
00000974 dac9           1653 	add	r26,r25
00000976 1d30           1654 	mov	r29,r6
00000978 1d3e0800       1655 	addi	8,r29,r7
0000097c 0142           1656 	mov	1,r8
                        1657 	jarl	_sha256_transf,lp
                        1657 <EXPANSION BEGIN>
                        1657 jarl22 _sha256_transf , lp 
0000097e bfff82f6*      1657 <EXPANSION END>
                        1658 --line731
                        1659 ..lin.C.3A.5C_ECU2.5CECU_Rivian_A1.5CTarget.5Crepo_projects.5CpRealEcu.5CcR_R2023.2E09.2E15.5Cmake.5Coutput.5Cobjects.5Csha2.76::
                        1660 .LDWlin76:
00000982 1d30           1661 	mov	r29,r6
00000984 1938           1662 	mov	r25,r7
00000986 1b40           1663 	mov	r27,r8
                        1664 	jarl	_sha256_transf,lp
                        1664 <EXPANSION BEGIN>
                        1664 jarl22 _sha256_transf , lp 
00000988 bfff78f6*      1664 <EXPANSION END>
                        1665 --line735
                        1666 ..lin.C.3A.5C_ECU2.5CECU_Rivian_A1.5CTarget.5Crepo_projects.5CpRealEcu.5CcR_R2023.2E09.2E15.5Cmake.5Coutput.5Cobjects.5Csha2.77::
                        1667 .LDWlin77:
0000098c 1b38           1668 	mov	r27,r7

                                                                      Page 30
                                                              C:\Users\nhuliyap\AppData\Local\Temp\gh_00009081.s
0000098e dcd63f00       1669 	andi	63,r28,r26
00000992 c63a           1670 	shl	6,r7
00000994 1d360800       1671 	addi	8,r29,r6
00000998 d939           1672 	add	r25,r7
0000099a 1a40           1673 	mov	r26,r8
                        1674 	jarl	_memcpy,lp
                        1674 <EXPANSION BEGIN>
                        1674 jarl22 _memcpy , lp 
0000099c 80ff0000*      1674 <EXPANSION END>
                        1675 --line738
                        1676 ..lin.C.3A.5C_ECU2.5CECU_Rivian_A1.5CTarget.5Crepo_projects.5CpRealEcu.5CcR_R2023.2E09.2E15.5Cmake.5Coutput.5Cobjects.5Csha2.78::
                        1677 .LDWlin78:
000009a0 1df0           1678 	mov	r29,ep
000009a2 007d           1679 	sld.w	0[ep],r15
000009a4 1b860100       1680 	addi	1,r27,r16
000009a8 c682           1681 	shl	6,r16
000009aa 03d5           1682 	sst.w	r26,4[ep]
000009ac d079           1683 	add	r16,r15
000009ae 017d           1684 	sst.w	r15,0[ep]
                        1685 --	    .ef
                        1686 .LDW14:
000009b0 4006fff0       1687 	dispose	0,{r24,r25,r26,r27,r28,r29,r31},[lp]
                        1688 	.global	___ghs_eofn_sha224_update
                        1689 ___ghs_eofn_sha224_update:
                        1690 	.type	_sha224_update,@function
                        1691 	.size	_sha224_update,.-_sha224_update
                        1692 	.align	2
                        1693 --_block_nb	r27	local
                        1694 --_rem_len	r26	local
                        1695 --_shifted_message	r25	local
                        1696 
                        1697 --_ctx	r29	param
                        1698 --_message	r24	param
                        1699 --_len	r28	param
                        1700 
                        1701 	.section ".bss","awb"
                        1702 .L1451:
                        1703 	.type	.L1451,@object
                        1704 	.size	.L1451,0
                        1705 	.data
                        1706 	.text
                        1707 	.align	2
                        1708 	.align	2
                        1709 ..gh.f.f.1.e.16:
                        1710 	.type	..gh.f.f.1.e.16,@object
                        1711 	.size	..gh.f.f.1.e.16,0
                        1712 	.global	_sha224_final
                        1713 _sha224_final:
000009b4 8007e1f0       1714 	prepare	{r24,r25,r26,r27,r28,r29,r31},0
000009b8 06d8           1715 	mov	r6,r27
000009ba 07c0           1716 	mov	r7,r24
                        1717 --	    .bf
                        1718 .LDW24:
000009bc 06f0           1719 	mov	r6,ep
000009be 0285           1720 	sld.w	4[ep],r16
000009c0 00ed           1721 	sld.w	0[ep],r29
000009c2 d04e3f00       1722 	andi	63,r16,r9
000009c6 0906c8ff       1723 	addi	-56,r9,zero
000009ca e1570000       1724 	setfl	r10
000009ce 0ace0100       1725 	addi	1,r10,r25
000009d2 19e0           1726 	mov	r25,r28

                                                                      Page 31
                                                              C:\Users\nhuliyap\AppData\Local\Temp\gh_00009081.s
000009d4 c6e2           1727 	shl	6,r28
000009d6 06d60800       1728 	addi	8,r6,r26
000009da d0e9           1729 	add	r16,r29
000009dc 1030           1730 	mov	r16,r6
000009de 1c38           1731 	mov	r28,r7
000009e0 c3ea           1732 	shl	3,r29
000009e2 da31           1733 	add	r26,r6
000009e4 b039           1734 	sub	r16,r7
                        1735 	jarl	___gh_memclr,lp
                        1735 <EXPANSION BEGIN>
                        1735 jarl22 ___gh_memclr , lp 
000009e6 80ff0000*      1735 <EXPANSION END>
                        1736 --line759
                        1737 ..lin.C.3A.5C_ECU2.5CECU_Rivian_A1.5CTarget.5Crepo_projects.5CpRealEcu.5CcR_R2023.2E09.2E15.5Cmake.5Coutput.5Cobjects.5Csha2.79::
                        1738 .LDWlin79:
000009ea 3bf70500       1739 	ld.w	4[r27],ep
000009ee 20468000       1740 	movea	128,zero,r8
000009f2 dae1           1741 	add	r26,r28
000009f4 1d78           1742 	mov	r29,r15
000009f6 daf1           1743 	add	r26,ep
000009f8 8043           1744 	sst.b	r8,0[ep]
000009fa 3cf6fcff       1745 	movea	-4,r28,ep
000009fe 83eb           1746 	sst.b	r29,3[ep]
00000a00 1d70           1747 	mov	r29,r14
00000a02 887a           1748 	shr	8,r15
00000a04 9072           1749 	shr	16,r14
00000a06 98ea           1750 	shr	24,r29
00000a08 1a38           1751 	mov	r26,r7
00000a0a 827b           1752 	sst.b	r15,2[ep]
00000a0c 8173           1753 	sst.b	r14,1[ep]
00000a0e 80eb           1754 	sst.b	r29,0[ep]
00000a10 1b30           1755 	mov	r27,r6
00000a12 1940           1756 	mov	r25,r8
                        1757 	jarl	_sha256_transf,lp
                        1757 <EXPANSION BEGIN>
                        1757 jarl22 _sha256_transf , lp 
00000a14 bfffecf5*      1757 <EXPANSION END>
                        1758 --line765
                        1759 ..lin.C.3A.5C_ECU2.5CECU_Rivian_A1.5CTarget.5Crepo_projects.5CpRealEcu.5CcR_R2023.2E09.2E15.5Cmake.5Coutput.5Cobjects.5Csha2.80::
                        1760 .LDWlin80:
00000a18 008a           1761 	mov	0,r17
                        1762 .L1497:
00000a1a 11f0           1763 	mov	r17,ep
00000a1c c2f2           1764 	shl	2,ep
00000a1e 1e90           1765 	mov	ep,r18
00000a20 db91           1766 	add	r27,r18
00000a22 323f8900       1767 	ld.w	136[r18],r7
00000a26 d8f1           1768 	add	r24,ep
00000a28 418a           1769 	add	1,r17
00000a2a 833b           1770 	sst.b	r7,3[ep]
00000a2c 326f8900       1771 	ld.w	136[r18],r13
00000a30 886a           1772 	shr	8,r13
00000a32 826b           1773 	sst.b	r13,2[ep]
00000a34 32678900       1774 	ld.w	136[r18],r12
00000a38 9062           1775 	shr	16,r12
00000a3a 8163           1776 	sst.b	r12,1[ep]
00000a3c 325f8900       1777 	ld.w	136[r18],r11
00000a40 985a           1778 	shr	24,r11
00000a42 805b           1779 	sst.b	r11,0[ep]
00000a44 678a           1780 	cmp	7,r17
00000a46 a6ed*          1781 	blt	.L1497

                                                                      Page 32
                                                              C:\Users\nhuliyap\AppData\Local\Temp\gh_00009081.s
                        1782 --	    .ef
                        1783 .LDW34:
                        1784 --line777
                        1785 ..lin.C.3A.5C_ECU2.5CECU_Rivian_A1.5CTarget.5Crepo_projects.5CpRealEcu.5CcR_R2023.2E09.2E15.5Cmake.5Coutput.5Cobjects.5Csha2.81::
                        1786 .LDWlin81:
00000a48 4006fff0       1787 	dispose	0,{r24,r25,r26,r27,r28,r29,r31},[lp]
                        1788 	.global	___ghs_eofn_sha224_final
                        1789 ___ghs_eofn_sha224_final:
                        1790 	.type	_sha224_final,@function
                        1791 	.size	_sha224_final,.-_sha224_final
                        1792 	.align	2
                        1793 --_block_nb	r25	local
                        1794 --_len_b	r29	local
                        1795 --_i	r17	local
                        1796 
                        1797 --_ctx	r27	param
                        1798 --_digest	r24	param
                        1799 
                        1800 	.section ".bss","awb"
                        1801 .L1530:
                        1802 	.type	.L1530,@object
                        1803 	.size	.L1530,0
                        1804 	.data
                        1805 	.text
                        1806 	.align	2
                        1807 	.align	2
                        1808 ..gh.f.f.1.e.17:
                        1809 	.type	..gh.f.f.1.e.17,@object
                        1810 	.size	..gh.f.f.1.e.17,0
                        1811 	.global	_sha224
                        1812 _sha224:
00000a4c be076110       1813 	prepare	{r27,r29,r31},31
00000a50 031ed0ff       1814 	addi	-48,sp,sp
00000a54 06e8           1815 	mov	r6,r29
00000a56 08d8           1816 	mov	r8,r27
                        1817 --	    .bf
                        1818 .LDW44:
00000a58 0330           1819 	mov	sp,r6
                        1820 	jarl	_sha224_init,lp
                        1820 <EXPANSION BEGIN>
                        1820 jarl22 _sha224_init , lp 
00000a5a bfffb8fe*      1820 <EXPANSION END>
                        1821 --line686
                        1822 ..lin.C.3A.5C_ECU2.5CECU_Rivian_A1.5CTarget.5Crepo_projects.5CpRealEcu.5CcR_R2023.2E09.2E15.5Cmake.5Coutput.5Cobjects.5Csha2.82::
                        1823 .LDWlin82:
00000a5e 0740           1824 	mov	r7,r8
00000a60 1d38           1825 	mov	r29,r7
                        1826 	jarl	_sha224_update,lp
                        1826 <EXPANSION BEGIN>
                        1826 jarl22 _sha224_update , lp 
00000a62 bfffd4fe*      1826 <EXPANSION END>
                        1827 --line687
                        1828 ..lin.C.3A.5C_ECU2.5CECU_Rivian_A1.5CTarget.5Crepo_projects.5CpRealEcu.5CcR_R2023.2E09.2E15.5Cmake.5Coutput.5Cobjects.5Csha2.83::
                        1829 .LDWlin83:
00000a66 1b38           1830 	mov	r27,r7
00000a68 0330           1831 	mov	sp,r6
                        1832 	jarl	_sha224_final,lp
                        1832 <EXPANSION BEGIN>
                        1832 jarl22 _sha224_final , lp 
00000a6a bfff4aff*      1832 <EXPANSION END>
                        1833 --	    .ef

                                                                      Page 33
                                                              C:\Users\nhuliyap\AppData\Local\Temp\gh_00009081.s
                        1834 .LDW54:
                        1835 --line688
                        1836 ..lin.C.3A.5C_ECU2.5CECU_Rivian_A1.5CTarget.5Crepo_projects.5CpRealEcu.5CcR_R2023.2E09.2E15.5Cmake.5Coutput.5Cobjects.5Csha2.84::
                        1837 .LDWlin84:
00000a6e 031e3000       1838 	addi	48,sp,sp
00000a72 7e067f10       1839 	dispose	31,{r27,r29,r31},[lp]
                        1840 	.global	___ghs_eofn_sha224
                        1841 ___ghs_eofn_sha224:
                        1842 	.type	_sha224,@function
                        1843 	.size	_sha224,.-_sha224
                        1844 	.align	2
                        1845 --_ctx	0[sp]	local
                        1846 
                        1847 --_message	r29	param
                        1848 --_len	r28	param
                        1849 --_digest	r27	param
                        1850 
                        1851 	.section ".bss","awb"
                        1852 .L1585:
                        1853 	.type	.L1585,@object
                        1854 	.size	.L1585,0
                        1855 	.data
                        1856 	.text
                        1857 	.align	2
                        1858 
                        1859 	.data
                        1860 	.align	8
                        1861 	.global	_sha224_h0
00000000 d89e05c1       1862 _sha224_h0:	.byte	216,158,5,193
00000004 07d57c36       1863 	.byte	7,213,124,54
00000008 17dd7030       1864 	.byte	23,221,112,48
0000000c 39590ef7       1865 	.byte	57,89,14,247
00000010 310bc0ff       1866 	.byte	49,11,192,255
00000014 11155868       1867 	.byte	17,21,88,104
00000018 a78ff964       1868 	.byte	167,143,249,100
0000001c a44ffabe       1869 	.byte	164,79,250,190
                        1870 	.type	_sha224_h0,@object
                        1871 	.size	_sha224_h0,32
                        1872 	.global	_sha256_h0
00000020 67e6096a       1873 _sha256_h0:	.byte	103,230,9,106
00000024 85ae67bb       1874 	.byte	133,174,103,187
00000028 72f36e3c       1875 	.byte	114,243,110,60
0000002c 3af54fa5       1876 	.byte	58,245,79,165
00000030 7f520e51       1877 	.byte	127,82,14,81
00000034 8c68059b       1878 	.byte	140,104,5,155
00000038 abd9831f       1879 	.byte	171,217,131,31
0000003c 19cde05b       1880 	.byte	25,205,224,91
                        1881 	.type	_sha256_h0,@object
                        1882 	.size	_sha256_h0,32
                        1883 	.global	_sha384_h0
00000040 d89e05c1       1884 _sha384_h0:	.byte	216,158,5,193
00000044 5d9dbbcb       1885 	.byte	93,157,187,203
00000048 07d57c36       1886 	.byte	7,213,124,54
0000004c 2a299a62       1887 	.byte	42,41,154,98
00000050 17dd7030       1888 	.byte	23,221,112,48
00000054 5a015991       1889 	.byte	90,1,89,145
00000058 39590ef7       1890 	.byte	57,89,14,247
0000005c d8ec2f15       1891 	.byte	216,236,47,21
00000060 310bc0ff       1892 	.byte	49,11,192,255
00000064 67263367       1893 	.byte	103,38,51,103
00000068 11155868       1894 	.byte	17,21,88,104

                                                                      Page 34
                                                              C:\Users\nhuliyap\AppData\Local\Temp\gh_00009081.s
0000006c 874ab48e       1895 	.byte	135,74,180,142
00000070 a78ff964       1896 	.byte	167,143,249,100
00000074 0d2e0cdb       1897 	.byte	13,46,12,219
00000078 a44ffabe       1898 	.byte	164,79,250,190
0000007c 1d48b547       1899 	.byte	29,72,181,71
                        1900 	.type	_sha384_h0,@object
                        1901 	.size	_sha384_h0,64
                        1902 	.global	_sha512_h0
00000080 08c9bcf3       1903 _sha512_h0:	.byte	8,201,188,243
00000084 67e6096a       1904 	.byte	103,230,9,106
00000088 3ba7ca84       1905 	.byte	59,167,202,132
0000008c 85ae67bb       1906 	.byte	133,174,103,187
00000090 2bf894fe       1907 	.byte	43,248,148,254
00000094 72f36e3c       1908 	.byte	114,243,110,60
00000098 f1361d5f       1909 	.byte	241,54,29,95
0000009c 3af54fa5       1910 	.byte	58,245,79,165
000000a0 d182e6ad       1911 	.byte	209,130,230,173
000000a4 7f520e51       1912 	.byte	127,82,14,81
000000a8 1f6c3e2b       1913 	.byte	31,108,62,43
000000ac 8c68059b       1914 	.byte	140,104,5,155
000000b0 6bbd41fb       1915 	.byte	107,189,65,251
000000b4 abd9831f       1916 	.byte	171,217,131,31
000000b8 79217e13       1917 	.byte	121,33,126,19
000000bc 19cde05b       1918 	.byte	25,205,224,91
                        1919 	.type	_sha512_h0,@object
                        1920 	.size	_sha512_h0,64
                        1921 	.global	_sha256_k
000000c0 982f8a42       1922 _sha256_k:	.byte	152,47,138,66
000000c4 91443771       1923 	.byte	145,68,55,113
000000c8 cffbc0b5       1924 	.byte	207,251,192,181
000000cc a5dbb5e9       1925 	.byte	165,219,181,233
000000d0 5bc25639       1926 	.byte	91,194,86,57
000000d4 f111f159       1927 	.byte	241,17,241,89
000000d8 a4823f92       1928 	.byte	164,130,63,146
000000dc d55e1cab       1929 	.byte	213,94,28,171
000000e0 98aa07d8       1930 	.byte	152,170,7,216
000000e4 015b8312       1931 	.byte	1,91,131,18
000000e8 be853124       1932 	.byte	190,133,49,36
000000ec c37d0c55       1933 	.byte	195,125,12,85
000000f0 745dbe72       1934 	.byte	116,93,190,114
000000f4 feb1de80       1935 	.byte	254,177,222,128
000000f8 a706dc9b       1936 	.byte	167,6,220,155
000000fc 74f19bc1       1937 	.byte	116,241,155,193
00000100 c1699be4       1938 	.byte	193,105,155,228
00000104 8647beef       1939 	.byte	134,71,190,239
00000108 c69dc10f       1940 	.byte	198,157,193,15
0000010c cca10c24       1941 	.byte	204,161,12,36
00000110 6f2ce92d       1942 	.byte	111,44,233,45
00000114 aa84744a       1943 	.byte	170,132,116,74
00000118 dca9b05c       1944 	.byte	220,169,176,92
0000011c da88f976       1945 	.byte	218,136,249,118
00000120 52513e98       1946 	.byte	82,81,62,152
00000124 6dc631a8       1947 	.byte	109,198,49,168
00000128 c82703b0       1948 	.byte	200,39,3,176
0000012c c77f59bf       1949 	.byte	199,127,89,191
00000130 f30be0c6       1950 	.byte	243,11,224,198
00000134 4791a7d5       1951 	.byte	71,145,167,213
00000138 5163ca06       1952 	.byte	81,99,202,6
0000013c 67292914       1953 	.byte	103,41,41,20
00000140 850ab727       1954 	.byte	133,10,183,39
00000144 38211b2e       1955 	.byte	56,33,27,46

                                                                      Page 35
                                                              C:\Users\nhuliyap\AppData\Local\Temp\gh_00009081.s
00000148 fc6d2c4d       1956 	.byte	252,109,44,77
0000014c 130d3853       1957 	.byte	19,13,56,83
00000150 54730a65       1958 	.byte	84,115,10,101
00000154 bb0a6a76       1959 	.byte	187,10,106,118
00000158 2ec9c281       1960 	.byte	46,201,194,129
0000015c 852c7292       1961 	.byte	133,44,114,146
00000160 a1e8bfa2       1962 	.byte	161,232,191,162
00000164 4b661aa8       1963 	.byte	75,102,26,168
00000168 708b4bc2       1964 	.byte	112,139,75,194
0000016c a3516cc7       1965 	.byte	163,81,108,199
00000170 19e892d1       1966 	.byte	25,232,146,209
00000174 240699d6       1967 	.byte	36,6,153,214
00000178 85350ef4       1968 	.byte	133,53,14,244
0000017c 70a06a10       1969 	.byte	112,160,106,16
00000180 16c1a419       1970 	.byte	22,193,164,25
00000184 086c371e       1971 	.byte	8,108,55,30
00000188 4c774827       1972 	.byte	76,119,72,39
0000018c b5bcb034       1973 	.byte	181,188,176,52
00000190 b30c1c39       1974 	.byte	179,12,28,57
00000194 4aaad84e       1975 	.byte	74,170,216,78
00000198 4fca9c5b       1976 	.byte	79,202,156,91
0000019c f36f2e68       1977 	.byte	243,111,46,104
000001a0 ee828f74       1978 	.byte	238,130,143,116
000001a4 6f63a578       1979 	.byte	111,99,165,120
000001a8 1478c884       1980 	.byte	20,120,200,132
000001ac 0802c78c       1981 	.byte	8,2,199,140
000001b0 faffbe90       1982 	.byte	250,255,190,144
000001b4 eb6c50a4       1983 	.byte	235,108,80,164
000001b8 f7a3f9be       1984 	.byte	247,163,249,190
000001bc f27871c6       1985 	.byte	242,120,113,198
                        1986 	.type	_sha256_k,@object
                        1987 	.size	_sha256_k,256
                        1988 	.global	_sha512_k
000001c0 22ae28d7       1989 _sha512_k:	.byte	34,174,40,215
000001c4 982f8a42       1990 	.byte	152,47,138,66
000001c8 cd65ef23       1991 	.byte	205,101,239,35
000001cc 91443771       1992 	.byte	145,68,55,113
000001d0 2f3b4dec       1993 	.byte	47,59,77,236
000001d4 cffbc0b5       1994 	.byte	207,251,192,181
000001d8 bcdb8981       1995 	.byte	188,219,137,129
000001dc a5dbb5e9       1996 	.byte	165,219,181,233
000001e0 38b548f3       1997 	.byte	56,181,72,243
000001e4 5bc25639       1998 	.byte	91,194,86,57
000001e8 19d005b6       1999 	.byte	25,208,5,182
000001ec f111f159       2000 	.byte	241,17,241,89
000001f0 9b4f19af       2001 	.byte	155,79,25,175
000001f4 a4823f92       2002 	.byte	164,130,63,146
000001f8 18816dda       2003 	.byte	24,129,109,218
000001fc d55e1cab       2004 	.byte	213,94,28,171
00000200 420203a3       2005 	.byte	66,2,3,163
00000204 98aa07d8       2006 	.byte	152,170,7,216
00000208 be6f7045       2007 	.byte	190,111,112,69
0000020c 015b8312       2008 	.byte	1,91,131,18
00000210 8cb2e44e       2009 	.byte	140,178,228,78
00000214 be853124       2010 	.byte	190,133,49,36
00000218 e2b4ffd5       2011 	.byte	226,180,255,213
0000021c c37d0c55       2012 	.byte	195,125,12,85
00000220 6f897bf2       2013 	.byte	111,137,123,242
00000224 745dbe72       2014 	.byte	116,93,190,114
00000228 b196163b       2015 	.byte	177,150,22,59
0000022c feb1de80       2016 	.byte	254,177,222,128

                                                                      Page 36
                                                              C:\Users\nhuliyap\AppData\Local\Temp\gh_00009081.s
00000230 3512c725       2017 	.byte	53,18,199,37
00000234 a706dc9b       2018 	.byte	167,6,220,155
00000238 942669cf       2019 	.byte	148,38,105,207
0000023c 74f19bc1       2020 	.byte	116,241,155,193
00000240 d24af19e       2021 	.byte	210,74,241,158
00000244 c1699be4       2022 	.byte	193,105,155,228
00000248 e3254f38       2023 	.byte	227,37,79,56
0000024c 8647beef       2024 	.byte	134,71,190,239
00000250 b5d58c8b       2025 	.byte	181,213,140,139
00000254 c69dc10f       2026 	.byte	198,157,193,15
00000258 659cac77       2027 	.byte	101,156,172,119
0000025c cca10c24       2028 	.byte	204,161,12,36
00000260 75022b59       2029 	.byte	117,2,43,89
00000264 6f2ce92d       2030 	.byte	111,44,233,45
00000268 83e4a66e       2031 	.byte	131,228,166,110
0000026c aa84744a       2032 	.byte	170,132,116,74
00000270 d4fb41bd       2033 	.byte	212,251,65,189
00000274 dca9b05c       2034 	.byte	220,169,176,92
00000278 b5531183       2035 	.byte	181,83,17,131
0000027c da88f976       2036 	.byte	218,136,249,118
00000280 abdf66ee       2037 	.byte	171,223,102,238
00000284 52513e98       2038 	.byte	82,81,62,152
00000288 1032b42d       2039 	.byte	16,50,180,45
0000028c 6dc631a8       2040 	.byte	109,198,49,168
00000290 3f21fb98       2041 	.byte	63,33,251,152
00000294 c82703b0       2042 	.byte	200,39,3,176
00000298 e40eefbe       2043 	.byte	228,14,239,190
0000029c c77f59bf       2044 	.byte	199,127,89,191
000002a0 c28fa83d       2045 	.byte	194,143,168,61
000002a4 f30be0c6       2046 	.byte	243,11,224,198
000002a8 25a70a93       2047 	.byte	37,167,10,147
000002ac 4791a7d5       2048 	.byte	71,145,167,213
000002b0 6f8203e0       2049 	.byte	111,130,3,224
000002b4 5163ca06       2050 	.byte	81,99,202,6
000002b8 706e0e0a       2051 	.byte	112,110,14,10
000002bc 67292914       2052 	.byte	103,41,41,20
000002c0 fc2fd246       2053 	.byte	252,47,210,70
000002c4 850ab727       2054 	.byte	133,10,183,39
000002c8 26c9265c       2055 	.byte	38,201,38,92
000002cc 38211b2e       2056 	.byte	56,33,27,46
000002d0 ed2ac45a       2057 	.byte	237,42,196,90
000002d4 fc6d2c4d       2058 	.byte	252,109,44,77
000002d8 dfb3959d       2059 	.byte	223,179,149,157
000002dc 130d3853       2060 	.byte	19,13,56,83
000002e0 de63af8b       2061 	.byte	222,99,175,139
000002e4 54730a65       2062 	.byte	84,115,10,101
000002e8 a8b2773c       2063 	.byte	168,178,119,60
000002ec bb0a6a76       2064 	.byte	187,10,106,118
000002f0 e6aeed47       2065 	.byte	230,174,237,71
000002f4 2ec9c281       2066 	.byte	46,201,194,129
000002f8 3b358214       2067 	.byte	59,53,130,20
000002fc 852c7292       2068 	.byte	133,44,114,146
00000300 6403f14c       2069 	.byte	100,3,241,76
00000304 a1e8bfa2       2070 	.byte	161,232,191,162
00000308 013042bc       2071 	.byte	1,48,66,188
0000030c 4b661aa8       2072 	.byte	75,102,26,168
00000310 9197f8d0       2073 	.byte	145,151,248,208
00000314 708b4bc2       2074 	.byte	112,139,75,194
00000318 30be5406       2075 	.byte	48,190,84,6
0000031c a3516cc7       2076 	.byte	163,81,108,199
00000320 1852efd6       2077 	.byte	24,82,239,214

                                                                      Page 37
                                                              C:\Users\nhuliyap\AppData\Local\Temp\gh_00009081.s
00000324 19e892d1       2078 	.byte	25,232,146,209
00000328 10a96555       2079 	.byte	16,169,101,85
0000032c 240699d6       2080 	.byte	36,6,153,214
00000330 2a207157       2081 	.byte	42,32,113,87
00000334 85350ef4       2082 	.byte	133,53,14,244
00000338 b8d1bb32       2083 	.byte	184,209,187,50
0000033c 70a06a10       2084 	.byte	112,160,106,16
00000340 c8d0d2b8       2085 	.byte	200,208,210,184
00000344 16c1a419       2086 	.byte	22,193,164,25
00000348 53ab4151       2087 	.byte	83,171,65,81
0000034c 086c371e       2088 	.byte	8,108,55,30
00000350 99eb8edf       2089 	.byte	153,235,142,223
00000354 4c774827       2090 	.byte	76,119,72,39
00000358 a8489be1       2091 	.byte	168,72,155,225
0000035c b5bcb034       2092 	.byte	181,188,176,52
00000360 635ac9c5       2093 	.byte	99,90,201,197
00000364 b30c1c39       2094 	.byte	179,12,28,57
00000368 cb8a41e3       2095 	.byte	203,138,65,227
0000036c 4aaad84e       2096 	.byte	74,170,216,78
00000370 73e36377       2097 	.byte	115,227,99,119
00000374 4fca9c5b       2098 	.byte	79,202,156,91
00000378 a3b8b2d6       2099 	.byte	163,184,178,214
0000037c f36f2e68       2100 	.byte	243,111,46,104
00000380 fcb2ef5d       2101 	.byte	252,178,239,93
00000384 ee828f74       2102 	.byte	238,130,143,116
00000388 602f1743       2103 	.byte	96,47,23,67
0000038c 6f63a578       2104 	.byte	111,99,165,120
00000390 72abf0a1       2105 	.byte	114,171,240,161
00000394 1478c884       2106 	.byte	20,120,200,132
00000398 ec39641a       2107 	.byte	236,57,100,26
0000039c 0802c78c       2108 	.byte	8,2,199,140
000003a0 281e6323       2109 	.byte	40,30,99,35
000003a4 faffbe90       2110 	.byte	250,255,190,144
000003a8 e9bd82de       2111 	.byte	233,189,130,222
000003ac eb6c50a4       2112 	.byte	235,108,80,164
000003b0 1579c6b2       2113 	.byte	21,121,198,178
000003b4 f7a3f9be       2114 	.byte	247,163,249,190
000003b8 2b5372e3       2115 	.byte	43,83,114,227
000003bc f27871c6       2116 	.byte	242,120,113,198
000003c0 9c6126ea       2117 	.byte	156,97,38,234
000003c4 ce3e27ca       2118 	.byte	206,62,39,202
000003c8 07c2c021       2119 	.byte	7,194,192,33
000003cc c7b886d1       2120 	.byte	199,184,134,209
000003d0 1eebe0cd       2121 	.byte	30,235,224,205
000003d4 d67ddaea       2122 	.byte	214,125,218,234
000003d8 78d16eee       2123 	.byte	120,209,110,238
000003dc 7f4f7df5       2124 	.byte	127,79,125,245
000003e0 ba6f1772       2125 	.byte	186,111,23,114
000003e4 aa67f006       2126 	.byte	170,103,240,6
000003e8 a698c8a2       2127 	.byte	166,152,200,162
000003ec c57d630a       2128 	.byte	197,125,99,10
000003f0 ae0df9be       2129 	.byte	174,13,249,190
000003f4 04983f11       2130 	.byte	4,152,63,17
000003f8 1b471c13       2131 	.byte	27,71,28,19
000003fc 350b711b       2132 	.byte	53,11,113,27
00000400 847d0423       2133 	.byte	132,125,4,35
00000404 f577db28       2134 	.byte	245,119,219,40
00000408 9324c740       2135 	.byte	147,36,199,64
0000040c 7babca32       2136 	.byte	123,171,202,50
00000410 bcbec915       2137 	.byte	188,190,201,21
00000414 0abe9e3c       2138 	.byte	10,190,158,60

                                                                      Page 38
                                                              C:\Users\nhuliyap\AppData\Local\Temp\gh_00009081.s
00000418 4c0d109c       2139 	.byte	76,13,16,156
0000041c c4671d43       2140 	.byte	196,103,29,67
00000420 b6423ecb       2141 	.byte	182,66,62,203
00000424 bed4c54c       2142 	.byte	190,212,197,76
00000428 2a7e65fc       2143 	.byte	42,126,101,252
0000042c 9c297f59       2144 	.byte	156,41,127,89
00000430 ecfad63a       2145 	.byte	236,250,214,58
00000434 ab6fcb5f       2146 	.byte	171,111,203,95
00000438 1758474a       2147 	.byte	23,88,71,74
0000043c 8c19446c       2148 	.byte	140,25,68,108
                        2149 	.type	_sha512_k,@object
                        2150 	.size	_sha512_k,640
                        2151 	.ghsnote version,17
                        2152 	.ghsnote tools,3
                        2153 	.ghsnote options,144
                        2154 	.text
                        2155 	.align	2
                        2156 ..eof.C.3A.5C_ECU2.5CECU_Rivian_A1.5CTarget.5Crepo_projects.5CpRealEcu.5CcR_R2023.2E09.2E15.5Cmake.5Coutput.5Cobjects.5Csha2...43.3A.5C_ECU2.5CECU_Rivian_A1.5CTarget.5Crepo_projects.5CpRealEcu.5CcR_R2023.2E09.2E15.5Cmake..65045C72..0::
                        2157 	.section	.debug_info
                        2158 .Ldw_begin:
00000000 3c100000       2159 	.word	.Ldw_end-.Ldw_begin-4
00000004 0200           2160 	.byte	2,0
00000006 00000000*      2161 	.word	.Ldw_abbr_begin
0000000a 04             2162 	.byte	4
                        2163 	.section	.debug_abbrev
                        2164 .Ldw_abbr_begin:
                        2165 	.section	.debug_info
0000000b 01             2166 	.byte	1
0000000c 00000000*      2167 	.word	..bof.C.3A.5C_ECU2.5CECU_Rivian_A1.5CTarget.5Crepo_projects.5CpRealEcu.5CcR_R2023.2E09.2E15.5Cmake.5Coutput.5Cobjects.5Csha2...43.3A.5C_ECU2.5CECU_Rivian_A1.5CTarget.5Crepo_projects.5CpRealEcu.5CcR_R2023.2E09.2E15.5Cmake..65045C72..0
00000010 00000000*      2168 	.word	..eof.C.3A.5C_ECU2.5CECU_Rivian_A1.5CTarget.5Crepo_projects.5CpRealEcu.5CcR_R2023.2E09.2E15.5Cmake.5Coutput.5Cobjects.5Csha2...43.3A.5C_ECU2.5CECU_Rivian_A1.5CTarget.5Crepo_projects.5CpRealEcu.5CcR_R2023.2E09.2E15.5Cmake..65045C72..0
00000014 2e2e2f736f75   2169 	.strz	"../source/wrappers/FBL_APPL/sha2.c"
0000001a 7263652f7772 
00000020 617070657273 
00000026 2f46424c5f41 
0000002c 50504c2f7368 
00000032 61322e6300 
00000037 433a5c5f4543   2170 	.strz	"C:\\_ECU2\\ECU_Rivian_A1\\Target\\repo_projects\\pRealEcu\\cR_R2023.09.15\\make"
0000003d 55325c454355 
00000043 5f5269766961 
00000049 6e5f41315c54 
0000004f 61726765745c 
00000055 7265706f5f70 
0000005b 726f6a656374 
00000061 735c70526561 
00000067 6c4563755c63 
0000006d 525f52323032 
00000073 332e30392e31 
00000079 355c6d616b65 
0000007f 00 
00000080 474853204320   2171 	.strz	"GHS C 2015.1.7 [dual]"
00000086 323031352e31 
0000008c 2e37205b6475 
00000092 616c5d00 
00000096 0100           2172 	.byte	1,0
00000098 00000000*      2173 	.word	.Ldw_line_begin
0000009c 00000000*      2174 	.word	.Ldw_macinfo_begin
000000a0 00             2175 	.byte	0
                        2176 
                        2177 	.section	.debug_abbrev
00000000 01             2178 	.byte	1
00000001 11             2179 	.byte	17

                                                                      Page 39
                                                              C:\Users\nhuliyap\AppData\Local\Temp\gh_00009081.s
00000002 01             2180 	.byte	1
00000003 1101           2181 	.byte	17,1
00000005 1201           2182 	.byte	18,1
00000007 0308           2183 	.byte	3,8
00000009 1b08           2184 	.byte	27,8
0000000b 2508           2185 	.byte	37,8
0000000d 1305           2186 	.byte	19,5
0000000f 1006           2187 	.byte	16,6
00000011 4306           2188 	.byte	67,6
00000013 420b           2189 	.byte	66,11
00000015 0000           2190 	.byte	0,0
                        2191 
                        2192 	.section	.debug_line
                        2193 .Ldw_line_begin:
00000000 87070000       2194 	.word	.Ldw_line_end-.Ldw_line_begin-4
00000004 0200           2195 	.byte	2,0
00000006 00000000*      2196 	.word	.Ldw_lpro_end-.Ldw_lpro_begin
                        2197 .Ldw_lpro_begin:
0000000a 01             2198 	.byte	1
0000000b 00             2199 	.byte	0
0000000c 00             2200 	.byte	0
0000000d 04             2201 	.byte	4
0000000e 0a             2202 	.byte	10
0000000f 000101         2203 	.byte	0,1,1
00000012 010100         2204 	.byte	1,1,0
00000015 000001         2205 	.byte	0,0,1
00000018 00             2206 	.byte	0
00000019 2e2e2f736f75   2207 	.strz	"../source/wrappers/FBL_APPL/sha2.c"
0000001f 7263652f7772 
00000025 617070657273 
0000002b 2f46424c5f41 
00000031 50504c2f7368 
00000037 61322e6300 
0000003c 000000         2208 	.byte	0,0,0
0000003f 2e2e2f736f75   2209 	.strz	"../source/common/Std_Types.hpp"
00000045 7263652f636f 
0000004b 6d6d6f6e2f53 
00000051 74645f547970 
00000057 65732e687070 
0000005d 00 
0000005e 000000         2210 	.byte	0,0,0
00000061 2e2e2f736f75   2211 	.strz	"../source/common/Platform_Types.hpp"
00000067 7263652f636f 
0000006d 6d6d6f6e2f50 
00000073 6c6174666f72 
00000079 6d5f54797065 
0000007f 732e68707000 
00000085 000000         2212 	.byte	0,0,0
00000088 2e2e2f736f75   2213 	.strz	"../source/common/Compiler.hpp"
0000008e 7263652f636f 
00000094 6d6d6f6e2f43 
0000009a 6f6d70696c65 
000000a0 722e68707000 
000000a6 000000         2214 	.byte	0,0,0
000000a9 2e2e2f736f75   2215 	.strz	"../source/ProjectCompiler/Compiler_Cfg.hpp"
000000af 7263652f5072 
000000b5 6f6a65637443 
000000bb 6f6d70696c65 
000000c1 722f436f6d70 
000000c7 696c65725f43 
000000cd 66672e687070 

                                                                      Page 40
                                                              C:\Users\nhuliyap\AppData\Local\Temp\gh_00009081.s
000000d3 00 
000000d4 000000         2216 	.byte	0,0,0
000000d7 2e2e2f736f75   2217 	.strz	"../source/ProjectCompiler/CompilerCfg_SwcServiceOs.hpp"
000000dd 7263652f5072 
000000e3 6f6a65637443 
000000e9 6f6d70696c65 
000000ef 722f436f6d70 
000000f5 696c65724366 
000000fb 675f53776353 
00000101 657276696365 
00000107 4f732e687070 
0000010d 00 
0000010e 000000         2218 	.byte	0,0,0
00000111 433a5c676873   2219 	.strz	"C:\\ghs\\comp_201517\\ansi\\string.h"
00000117 5c636f6d705f 
0000011d 323031353137 
00000123 5c616e73695c 
00000129 737472696e67 
0000012f 2e6800 
00000132 000000         2220 	.byte	0,0,0
00000135 433a5c676873   2221 	.strz	"C:\\ghs\\comp_201517\\ansi\\ghs_null.h"
0000013b 5c636f6d705f 
00000141 323031353137 
00000147 5c616e73695c 
0000014d 6768735f6e75 
00000153 6c6c2e6800 
00000158 000000         2222 	.byte	0,0,0
0000015b 433a5c676873   2223 	.strz	"C:\\ghs\\comp_201517\\ansi\\ghs_mem.h"
00000161 5c636f6d705f 
00000167 323031353137 
0000016d 5c616e73695c 
00000173 6768735f6d65 
00000179 6d2e6800 
0000017d 000000         2224 	.byte	0,0,0
00000180 433a5c676873   2225 	.strz	"C:\\ghs\\comp_201517\\ansi\\ghs_str.h"
00000186 5c636f6d705f 
0000018c 323031353137 
00000192 5c616e73695c 
00000198 6768735f7374 
0000019e 722e6800 
000001a2 000000         2226 	.byte	0,0,0
000001a5 2e2e2f736f75   2227 	.strz	"../source/wrappers/FBL_APPL/sha2.hpp"
000001ab 7263652f7772 
000001b1 617070657273 
000001b7 2f46424c5f41 
000001bd 50504c2f7368 
000001c3 61322e687070 
000001c9 00 
000001ca 000000         2228 	.byte	0,0,0
000001cd 2e2e2f736f75   2229 	.strz	"../source/McalMcu/types.hpp"
000001d3 7263652f4d63 
000001d9 616c4d63752f 
000001df 74797065732e 
000001e5 68707000 
000001e9 000000         2230 	.byte	0,0,0
000001ec 00             2231 	.byte	0
                        2232 .Ldw_lpro_end:
                        2233 	.section	.debug_macinfo
                        2234 .Ldw_macinfo_begin:
                        2235 	.section	.debug_frame
                        2236 .LDW_4b0a048:

                                                                      Page 41
                                                              C:\Users\nhuliyap\AppData\Local\Temp\gh_00009081.s
00000000 00000000*      2237 	.word	.LDW_unq_2-.LDW_unq_1
                        2238 .LDW_unq_1:
00000004 ffffffff       2239 	.byte	255,255,255,255
00000008 01             2240 	.byte	1
00000009 00             2241 	.byte	0
0000000a 01             2242 	.byte	1
0000000b 01             2243 	.byte	1
0000000c 1f             2244 	.byte	31
0000000d 0c             2245 	.byte	12
0000000e 03             2246 	.byte	3
0000000f 00             2247 	.byte	0
00000010 07             2248 	.byte	7
00000011 00             2249 	.byte	0
00000012 07             2250 	.byte	7
00000013 01             2251 	.byte	1
00000014 07             2252 	.byte	7
00000015 02             2253 	.byte	2
00000016 07             2254 	.byte	7
00000017 03             2255 	.byte	3
00000018 07             2256 	.byte	7
00000019 04             2257 	.byte	4
0000001a 07             2258 	.byte	7
0000001b 05             2259 	.byte	5
0000001c 07             2260 	.byte	7
0000001d 06             2261 	.byte	6
0000001e 07             2262 	.byte	7
0000001f 07             2263 	.byte	7
00000020 07             2264 	.byte	7
00000021 08             2265 	.byte	8
00000022 07             2266 	.byte	7
00000023 09             2267 	.byte	9
00000024 07             2268 	.byte	7
00000025 0a             2269 	.byte	10
00000026 07             2270 	.byte	7
00000027 0b             2271 	.byte	11
00000028 07             2272 	.byte	7
00000029 0c             2273 	.byte	12
0000002a 07             2274 	.byte	7
0000002b 0d             2275 	.byte	13
0000002c 07             2276 	.byte	7
0000002d 0e             2277 	.byte	14
0000002e 07             2278 	.byte	7
0000002f 0f             2279 	.byte	15
00000030 07             2280 	.byte	7
00000031 10             2281 	.byte	16
00000032 07             2282 	.byte	7
00000033 11             2283 	.byte	17
00000034 07             2284 	.byte	7
00000035 12             2285 	.byte	18
00000036 07             2286 	.byte	7
00000037 13             2287 	.byte	19
00000038 08             2288 	.byte	8
00000039 14             2289 	.byte	20
0000003a 08             2290 	.byte	8
0000003b 15             2291 	.byte	21
0000003c 08             2292 	.byte	8
0000003d 16             2293 	.byte	22
0000003e 08             2294 	.byte	8
0000003f 17             2295 	.byte	23
00000040 08             2296 	.byte	8
00000041 18             2297 	.byte	24

                                                                      Page 42
                                                              C:\Users\nhuliyap\AppData\Local\Temp\gh_00009081.s
00000042 08             2298 	.byte	8
00000043 19             2299 	.byte	25
00000044 08             2300 	.byte	8
00000045 1a             2301 	.byte	26
00000046 08             2302 	.byte	8
00000047 1b             2303 	.byte	27
00000048 08             2304 	.byte	8
00000049 1c             2305 	.byte	28
0000004a 08             2306 	.byte	8
0000004b 1d             2307 	.byte	29
0000004c 07             2308 	.byte	7
0000004d 1e             2309 	.byte	30
0000004e 08             2310 	.byte	8
0000004f 1f             2311 	.byte	31
00000050 07             2312 	.byte	7
00000051 20             2313 	.byte	32
00000052 07             2314 	.byte	7
00000053 21             2315 	.byte	33
00000054 07             2316 	.byte	7
00000055 22             2317 	.byte	34
00000056 07             2318 	.byte	7
00000057 23             2319 	.byte	35
00000058 07             2320 	.byte	7
00000059 24             2321 	.byte	36
0000005a 07             2322 	.byte	7
0000005b 25             2323 	.byte	37
0000005c 07             2324 	.byte	7
0000005d 26             2325 	.byte	38
0000005e 07             2326 	.byte	7
0000005f 27             2327 	.byte	39
00000060 07             2328 	.byte	7
00000061 28             2329 	.byte	40
00000062 07             2330 	.byte	7
00000063 29             2331 	.byte	41
00000064 07             2332 	.byte	7
00000065 2a             2333 	.byte	42
00000066 07             2334 	.byte	7
00000067 2b             2335 	.byte	43
00000068 07             2336 	.byte	7
00000069 2c             2337 	.byte	44
0000006a 07             2338 	.byte	7
0000006b 2d             2339 	.byte	45
0000006c 07             2340 	.byte	7
0000006d 2e             2341 	.byte	46
0000006e 07             2342 	.byte	7
0000006f 2f             2343 	.byte	47
00000070 07             2344 	.byte	7
00000071 30             2345 	.byte	48
00000072 07             2346 	.byte	7
00000073 31             2347 	.byte	49
00000074 07             2348 	.byte	7
00000075 32             2349 	.byte	50
00000076 07             2350 	.byte	7
00000077 33             2351 	.byte	51
00000078 07             2352 	.byte	7
00000079 34             2353 	.byte	52
0000007a 07             2354 	.byte	7
0000007b 35             2355 	.byte	53
0000007c 07             2356 	.byte	7
0000007d 36             2357 	.byte	54
0000007e 07             2358 	.byte	7

                                                                      Page 43
                                                              C:\Users\nhuliyap\AppData\Local\Temp\gh_00009081.s
0000007f 37             2359 	.byte	55
00000080 07             2360 	.byte	7
00000081 38             2361 	.byte	56
00000082 07             2362 	.byte	7
00000083 39             2363 	.byte	57
00000084 07             2364 	.byte	7
00000085 3a             2365 	.byte	58
00000086 07             2366 	.byte	7
00000087 3b             2367 	.byte	59
00000088 07             2368 	.byte	7
00000089 3c             2369 	.byte	60
0000008a 07             2370 	.byte	7
0000008b 3d             2371 	.byte	61
0000008c 07             2372 	.byte	7
0000008d 3e             2373 	.byte	62
0000008e 07             2374 	.byte	7
0000008f 3f             2375 	.byte	63
                        2376 .LDW_unq_2:
                        2377 	.section	.debug_info
                        2378 .LDW_3fc6c18:
000000a1 25             2379 	.byte	37
000000a2 766f69642a00   2380 	.strz	"void*"
000000a8 01             2381 	.byte	1
000000a9 04             2382 	.byte	4
                        2383 
                        2384 	.section	.debug_abbrev
00000017 25             2385 	.byte	37
00000018 24             2386 	.byte	36
00000019 00             2387 	.byte	0
0000001a 0308           2388 	.byte	3,8
0000001c 3e0b           2389 	.byte	62,11
0000001e 0b0b           2390 	.byte	11,11
00000020 0000           2391 	.byte	0,0
                        2392 
                        2393 	.section	.debug_info
                        2394 .LDW_400eed0:
000000aa 2a             2395 	.byte	42
                        2396 
                        2397 	.section	.debug_abbrev
00000022 2a             2398 	.byte	42
00000023 26             2399 	.byte	38
00000024 00             2400 	.byte	0
00000025 0000           2401 	.byte	0,0
                        2402 
                        2403 	.section	.debug_info
                        2404 .LDW_3fc6d68:
000000ab 2f             2405 	.byte	47
000000ac 00000000*      2406 	.word	.LDW_400eed0
                        2407 
                        2408 	.section	.debug_abbrev
00000027 2f             2409 	.byte	47
00000028 0f             2410 	.byte	15
00000029 00             2411 	.byte	0
0000002a 4910           2412 	.byte	73,16
0000002c 0000           2413 	.byte	0,0
                        2414 
                        2415 	.section	.debug_info
                        2416 .LDW_3fc6c50:
000000b0 25             2417 	.byte	37
000000b1 696e7400       2418 	.strz	"int"
000000b5 05             2419 	.byte	5

                                                                      Page 44
                                                              C:\Users\nhuliyap\AppData\Local\Temp\gh_00009081.s
000000b6 04             2420 	.byte	4
                        2421 
                        2422 .LDW_3fc6c88:
000000b7 25             2423 	.byte	37
000000b8 756e7369676e   2424 	.strz	"unsigned int"
000000be 656420696e74 
000000c4 00 
000000c5 07             2425 	.byte	7
000000c6 04             2426 	.byte	4
                        2427 
                        2428 .LDW_3fc6ac8:
000000c7 25             2429 	.byte	37
000000c8 756e7369676e   2430 	.strz	"unsigned char"
000000ce 656420636861 
000000d4 7200 
000000d6 08             2431 	.byte	8
000000d7 01             2432 	.byte	1
                        2433 
                        2434 .LDW_4aeb5f0:
000000d8 29             2435 	.byte	41
000000d9 00000000*      2436 	.word	.LDW_3fc6ac8
                        2437 
                        2438 	.section	.debug_abbrev
0000002e 29             2439 	.byte	41
0000002f 26             2440 	.byte	38
00000030 00             2441 	.byte	0
00000031 4910           2442 	.byte	73,16
00000033 0000           2443 	.byte	0,0
                        2444 
                        2445 	.section	.debug_info
                        2446 .LDW_3fc69e8:
000000dd 2f             2447 	.byte	47
000000de 00000000*      2448 	.word	.LDW_4aeb5f0
                        2449 
                        2450 .LDW_3fc6a20:
000000e2 2f             2451 	.byte	47
000000e3 00000000*      2452 	.word	.LDW_4af0030
                        2453 
                        2454 .LDW_3fc6e48:
000000e7 45             2455 	.byte	69
000000e8 01             2456 	.byte	1
                        2457 
                        2458 	.section	.debug_abbrev
00000035 45             2459 	.byte	69
00000036 15             2460 	.byte	21
00000037 01             2461 	.byte	1
00000038 270c           2462 	.byte	39,12
0000003a 0000           2463 	.byte	0,0
                        2464 
                        2465 	.section	.debug_info
                        2466 .LDW_4aef4f8:
000000e9 12             2467 	.byte	18
000000ea 00000000*      2468 	.word	.LDW_3fc6a20
000000ee 00             2469 	.byte	0
                        2470 
                        2471 	.section	.debug_abbrev
0000003c 12             2472 	.byte	18
0000003d 05             2473 	.byte	5
0000003e 00             2474 	.byte	0
0000003f 4910           2475 	.byte	73,16
00000041 4b0c           2476 	.byte	75,12

                                                                      Page 45
                                                              C:\Users\nhuliyap\AppData\Local\Temp\gh_00009081.s
00000043 0000           2477 	.byte	0,0
                        2478 
                        2479 	.section	.debug_info
                        2480 .LDW_4aef558:
000000ef 12             2481 	.byte	18
000000f0 00000000*      2482 	.word	.LDW_3fc69e8
000000f4 00             2483 	.byte	0
                        2484 
                        2485 .LDW_4aef6d8:
000000f5 12             2486 	.byte	18
000000f6 00000000*      2487 	.word	.LDW_3fc6c88
000000fa 00             2488 	.byte	0
                        2489 
000000fb 00             2490 	.byte	0
                        2491 
                        2492 .LDW_3fc6a58:
000000fc 25             2493 	.byte	37
000000fd 756e7369676e   2494 	.strz	"unsigned long"
00000103 6564206c6f6e 
00000109 6700 
0000010b 07             2495 	.byte	7
0000010c 04             2496 	.byte	4
                        2497 
                        2498 .LDW_400cf18:
0000010d 3a             2499 	.byte	58
0000010e 00             2500 	.byte	0
0000010f 8002           2501 	.byte	128,2
00000111 00000000*      2502 	.word	.LDW_4af0660
                        2503 
                        2504 	.section	.debug_abbrev
00000045 3a             2505 	.byte	58
00000046 01             2506 	.byte	1
00000047 01             2507 	.byte	1
00000048 090b           2508 	.byte	9,11
0000004a 0b0f           2509 	.byte	11,15
0000004c 4910           2510 	.byte	73,16
0000004e 0000           2511 	.byte	0,0
                        2512 
                        2513 	.section	.debug_info
00000115 32             2514 	.byte	50
00000116 00000000*      2515 	.word	.LDW_3fc6c50
0000011a 04             2516 	.byte	4
0000011b 00             2517 	.byte	0
0000011c 3f             2518 	.byte	63
                        2519 
                        2520 	.section	.debug_abbrev
00000050 32             2521 	.byte	50
00000051 21             2522 	.byte	33
00000052 00             2523 	.byte	0
00000053 4910           2524 	.byte	73,16
00000055 0b0f           2525 	.byte	11,15
00000057 220d           2526 	.byte	34,13
00000059 2f0d           2527 	.byte	47,13
0000005b 0000           2528 	.byte	0,0
                        2529 
                        2530 	.section	.debug_info
0000011d 00             2531 	.byte	0
                        2532 
                        2533 .LDW_400cfa0:
0000011e 3a             2534 	.byte	58
0000011f 00             2535 	.byte	0

                                                                      Page 46
                                                              C:\Users\nhuliyap\AppData\Local\Temp\gh_00009081.s
00000120 20             2536 	.byte	32
00000121 00000000*      2537 	.word	.LDW_4af0660
                        2538 
00000125 32             2539 	.byte	50
00000126 00000000*      2540 	.word	.LDW_3fc6c50
0000012a 04             2541 	.byte	4
0000012b 00             2542 	.byte	0
0000012c 07             2543 	.byte	7
                        2544 
0000012d 00             2545 	.byte	0
                        2546 
                        2547 .LDW_3fc6b38:
0000012e 2f             2548 	.byte	47
0000012f 00000000*      2549 	.word	.LDW_3fc6ac8
                        2550 
                        2551 .LDW_3fc6a90:
00000133 45             2552 	.byte	69
00000134 01             2553 	.byte	1
                        2554 
                        2555 .LDW_4aef108:
00000135 12             2556 	.byte	18
00000136 00000000*      2557 	.word	.LDW_3fc69e8
0000013a 00             2558 	.byte	0
                        2559 
                        2560 .LDW_4aef138:
0000013b 12             2561 	.byte	18
0000013c 00000000*      2562 	.word	.LDW_3fc6c88
00000140 00             2563 	.byte	0
                        2564 
                        2565 .LDW_4aef2e8:
00000141 12             2566 	.byte	18
00000142 00000000*      2567 	.word	.LDW_3fc6b38
00000146 00             2568 	.byte	0
                        2569 
00000147 00             2570 	.byte	0
                        2571 
                        2572 .LDW_3fc6b70:
00000148 45             2573 	.byte	69
00000149 01             2574 	.byte	1
                        2575 
                        2576 .LDW_4aef798:
0000014a 12             2577 	.byte	18
0000014b 00000000*      2578 	.word	.LDW_3fc6a20
0000014f 00             2579 	.byte	0
                        2580 
00000150 00             2581 	.byte	0
                        2582 
                        2583 .LDW_3fc6ba8:
00000151 45             2584 	.byte	69
00000152 01             2585 	.byte	1
                        2586 
                        2587 .LDW_4aef738:
00000153 12             2588 	.byte	18
00000154 00000000*      2589 	.word	.LDW_3fc6a20
00000158 00             2590 	.byte	0
                        2591 
                        2592 .LDW_4aef858:
00000159 12             2593 	.byte	18
0000015a 00000000*      2594 	.word	.LDW_3fc69e8
0000015e 00             2595 	.byte	0
                        2596 

                                                                      Page 47
                                                              C:\Users\nhuliyap\AppData\Local\Temp\gh_00009081.s
                        2597 .LDW_4aef888:
0000015f 12             2598 	.byte	18
00000160 00000000*      2599 	.word	.LDW_3fc6c88
00000164 00             2600 	.byte	0
                        2601 
00000165 00             2602 	.byte	0
                        2603 
                        2604 .LDW_3fc7158:
00000166 45             2605 	.byte	69
00000167 01             2606 	.byte	1
                        2607 
                        2608 .LDW_4aef828:
00000168 12             2609 	.byte	18
00000169 00000000*      2610 	.word	.LDW_3fc6a20
0000016d 00             2611 	.byte	0
                        2612 
                        2613 .LDW_4aef768:
0000016e 12             2614 	.byte	18
0000016f 00000000*      2615 	.word	.LDW_3fc6b38
00000173 00             2616 	.byte	0
                        2617 
00000174 00             2618 	.byte	0
                        2619 
                        2620 .LDW_3fc7120:
00000175 2f             2621 	.byte	47
00000176 00000000*      2622 	.word	.LDW_4ac5930
                        2623 
                        2624 .LDW_3fc70e8:
0000017a 45             2625 	.byte	69
0000017b 01             2626 	.byte	1
                        2627 
                        2628 .LDW_4b2fa48:
0000017c 12             2629 	.byte	18
0000017d 00000000*      2630 	.word	.LDW_3fc7120
00000181 00             2631 	.byte	0
                        2632 
                        2633 .LDW_4b2fc58:
00000182 12             2634 	.byte	18
00000183 00000000*      2635 	.word	.LDW_3fc69e8
00000187 00             2636 	.byte	0
                        2637 
                        2638 .LDW_4b2faa8:
00000188 12             2639 	.byte	18
00000189 00000000*      2640 	.word	.LDW_3fc6c88
0000018d 00             2641 	.byte	0
                        2642 
0000018e 00             2643 	.byte	0
                        2644 
                        2645 .LDW_400d530:
0000018f 25             2646 	.byte	37
00000190 756e7369676e   2647 	.strz	"unsigned long long"
00000196 6564206c6f6e 
0000019c 67206c6f6e67 
000001a2 00 
000001a3 07             2648 	.byte	7
000001a4 08             2649 	.byte	8
                        2650 
                        2651 .LDW_400d9f8:
000001a5 3a             2652 	.byte	58
000001a6 00             2653 	.byte	0
000001a7 8005           2654 	.byte	128,5

                                                                      Page 48
                                                              C:\Users\nhuliyap\AppData\Local\Temp\gh_00009081.s
000001a9 00000000*      2655 	.word	.LDW_4ac5460
                        2656 
000001ad 32             2657 	.byte	50
000001ae 00000000*      2658 	.word	.LDW_3fc6c50
000001b2 04             2659 	.byte	4
000001b3 00             2660 	.byte	0
000001b4 cf00           2661 	.byte	207,0
                        2662 
000001b6 00             2663 	.byte	0
                        2664 
                        2665 .LDW_400da80:
000001b7 3a             2666 	.byte	58
000001b8 00             2667 	.byte	0
000001b9 40             2668 	.byte	64
000001ba 00000000*      2669 	.word	.LDW_4ac5460
                        2670 
000001be 32             2671 	.byte	50
000001bf 00000000*      2672 	.word	.LDW_3fc6c50
000001c3 04             2673 	.byte	4
000001c4 00             2674 	.byte	0
000001c5 07             2675 	.byte	7
                        2676 
000001c6 00             2677 	.byte	0
                        2678 
                        2679 .LDW_400d648:
000001c7 45             2680 	.byte	69
000001c8 01             2681 	.byte	1
                        2682 
                        2683 .LDW_4b2fb38:
000001c9 12             2684 	.byte	18
000001ca 00000000*      2685 	.word	.LDW_3fc69e8
000001ce 00             2686 	.byte	0
                        2687 
                        2688 .LDW_4b2fb98:
000001cf 12             2689 	.byte	18
000001d0 00000000*      2690 	.word	.LDW_3fc6c88
000001d4 00             2691 	.byte	0
                        2692 
                        2693 .LDW_4b2fc88:
000001d5 12             2694 	.byte	18
000001d6 00000000*      2695 	.word	.LDW_3fc6b38
000001da 00             2696 	.byte	0
                        2697 
000001db 00             2698 	.byte	0
                        2699 
                        2700 .LDW_400d4c0:
000001dc 45             2701 	.byte	69
000001dd 01             2702 	.byte	1
                        2703 
                        2704 .LDW_4b2fb68:
000001de 12             2705 	.byte	18
000001df 00000000*      2706 	.word	.LDW_3fc7120
000001e3 00             2707 	.byte	0
                        2708 
000001e4 00             2709 	.byte	0
                        2710 
                        2711 .LDW_400d5d8:
000001e5 45             2712 	.byte	69
000001e6 01             2713 	.byte	1
                        2714 
                        2715 .LDW_4b2fc28:

                                                                      Page 49
                                                              C:\Users\nhuliyap\AppData\Local\Temp\gh_00009081.s
000001e7 12             2716 	.byte	18
000001e8 00000000*      2717 	.word	.LDW_3fc7120
000001ec 00             2718 	.byte	0
                        2719 
                        2720 .LDW_4b2fcb8:
000001ed 12             2721 	.byte	18
000001ee 00000000*      2722 	.word	.LDW_3fc69e8
000001f2 00             2723 	.byte	0
                        2724 
                        2725 .LDW_4b2f988:
000001f3 12             2726 	.byte	18
000001f4 00000000*      2727 	.word	.LDW_3fc6c88
000001f8 00             2728 	.byte	0
                        2729 
000001f9 00             2730 	.byte	0
                        2731 
                        2732 .LDW_400d798:
000001fa 45             2733 	.byte	69
000001fb 01             2734 	.byte	1
                        2735 
                        2736 .LDW_4b2fd18:
000001fc 12             2737 	.byte	18
000001fd 00000000*      2738 	.word	.LDW_3fc7120
00000201 00             2739 	.byte	0
                        2740 
                        2741 .LDW_4b2f9b8:
00000202 12             2742 	.byte	18
00000203 00000000*      2743 	.word	.LDW_3fc6b38
00000207 00             2744 	.byte	0
                        2745 
00000208 00             2746 	.byte	0
                        2747 
                        2748 .LDW_400d2c8:
00000209 45             2749 	.byte	69
0000020a 01             2750 	.byte	1
                        2751 
                        2752 .LDW_4b2fa18:
0000020b 12             2753 	.byte	18
0000020c 00000000*      2754 	.word	.LDW_3fc69e8
00000210 00             2755 	.byte	0
                        2756 
                        2757 .LDW_4b2fa78:
00000211 12             2758 	.byte	18
00000212 00000000*      2759 	.word	.LDW_3fc6c88
00000216 00             2760 	.byte	0
                        2761 
                        2762 .LDW_4b2f358:
00000217 12             2763 	.byte	18
00000218 00000000*      2764 	.word	.LDW_3fc6b38
0000021c 00             2765 	.byte	0
                        2766 
0000021d 00             2767 	.byte	0
                        2768 
                        2769 .LDW_400d5a0:
0000021e 2f             2770 	.byte	47
0000021f 00000000*      2771 	.word	.LDW_4b436f0
                        2772 
                        2773 .LDW_400d300:
00000223 45             2774 	.byte	69
00000224 01             2775 	.byte	1
                        2776 

                                                                      Page 50
                                                              C:\Users\nhuliyap\AppData\Local\Temp\gh_00009081.s
                        2777 .LDW_4b2f2c8:
00000225 12             2778 	.byte	18
00000226 00000000*      2779 	.word	.LDW_400d5a0
0000022a 00             2780 	.byte	0
                        2781 
0000022b 00             2782 	.byte	0
                        2783 
                        2784 .LDW_400d878:
0000022c 45             2785 	.byte	69
0000022d 01             2786 	.byte	1
                        2787 
                        2788 .LDW_4b2eff8:
0000022e 12             2789 	.byte	18
0000022f 00000000*      2790 	.word	.LDW_400d5a0
00000233 00             2791 	.byte	0
                        2792 
                        2793 .LDW_4b2ef08:
00000234 12             2794 	.byte	18
00000235 00000000*      2795 	.word	.LDW_3fc69e8
00000239 00             2796 	.byte	0
                        2797 
                        2798 .LDW_4b2f1a8:
0000023a 12             2799 	.byte	18
0000023b 00000000*      2800 	.word	.LDW_3fc6c88
0000023f 00             2801 	.byte	0
                        2802 
00000240 00             2803 	.byte	0
                        2804 
                        2805 .LDW_400d290:
00000241 45             2806 	.byte	69
00000242 01             2807 	.byte	1
                        2808 
                        2809 .LDW_4b2f298:
00000243 12             2810 	.byte	18
00000244 00000000*      2811 	.word	.LDW_400d5a0
00000248 00             2812 	.byte	0
                        2813 
                        2814 .LDW_4b2eed8:
00000249 12             2815 	.byte	18
0000024a 00000000*      2816 	.word	.LDW_3fc6b38
0000024e 00             2817 	.byte	0
                        2818 
0000024f 00             2819 	.byte	0
                        2820 
                        2821 .LDW_400d7d0:
00000250 45             2822 	.byte	69
00000251 01             2823 	.byte	1
                        2824 
                        2825 .LDW_4b2f178:
00000252 12             2826 	.byte	18
00000253 00000000*      2827 	.word	.LDW_3fc69e8
00000257 00             2828 	.byte	0
                        2829 
                        2830 .LDW_4b2f1d8:
00000258 12             2831 	.byte	18
00000259 00000000*      2832 	.word	.LDW_3fc6c88
0000025d 00             2833 	.byte	0
                        2834 
                        2835 .LDW_4b2ef38:
0000025e 12             2836 	.byte	18
0000025f 00000000*      2837 	.word	.LDW_3fc6b38

                                                                      Page 51
                                                              C:\Users\nhuliyap\AppData\Local\Temp\gh_00009081.s
00000263 00             2838 	.byte	0
                        2839 
00000264 00             2840 	.byte	0
                        2841 
                        2842 .LDW_400d760:
00000265 2f             2843 	.byte	47
00000266 00000000*      2844 	.word	.LDW_4b43380
                        2845 
                        2846 .LDW_400d338:
0000026a 45             2847 	.byte	69
0000026b 01             2848 	.byte	1
                        2849 
                        2850 .LDW_4b2edb8:
0000026c 12             2851 	.byte	18
0000026d 00000000*      2852 	.word	.LDW_400d760
00000271 00             2853 	.byte	0
                        2854 
00000272 00             2855 	.byte	0
                        2856 
                        2857 .LDW_400d808:
00000273 45             2858 	.byte	69
00000274 01             2859 	.byte	1
                        2860 
                        2861 .LDW_4b2f328:
00000275 12             2862 	.byte	18
00000276 00000000*      2863 	.word	.LDW_400d760
0000027a 00             2864 	.byte	0
                        2865 
                        2866 .LDW_4b2ed88:
0000027b 12             2867 	.byte	18
0000027c 00000000*      2868 	.word	.LDW_3fc69e8
00000280 00             2869 	.byte	0
                        2870 
                        2871 .LDW_4b2f238:
00000281 12             2872 	.byte	18
00000282 00000000*      2873 	.word	.LDW_3fc6c88
00000286 00             2874 	.byte	0
                        2875 
00000287 00             2876 	.byte	0
                        2877 
                        2878 .LDW_400d6b8:
00000288 45             2879 	.byte	69
00000289 01             2880 	.byte	1
                        2881 
                        2882 .LDW_4b2ee18:
0000028a 12             2883 	.byte	18
0000028b 00000000*      2884 	.word	.LDW_400d760
0000028f 00             2885 	.byte	0
                        2886 
                        2887 .LDW_4b2efc8:
00000290 12             2888 	.byte	18
00000291 00000000*      2889 	.word	.LDW_3fc6b38
00000295 00             2890 	.byte	0
                        2891 
00000296 00             2892 	.byte	0
                        2893 
                        2894 .LDW_400dba0:
00000297 3a             2895 	.byte	58
00000298 00             2896 	.byte	0
00000299 8001           2897 	.byte	128,1
0000029b 00000000*      2898 	.word	.LDW_3fc6ac8

                                                                      Page 52
                                                              C:\Users\nhuliyap\AppData\Local\Temp\gh_00009081.s
                        2899 
0000029f 32             2900 	.byte	50
000002a0 00000000*      2901 	.word	.LDW_3fc6c50
000002a4 04             2902 	.byte	4
000002a5 00             2903 	.byte	0
000002a6 ff00           2904 	.byte	255,0
                        2905 
000002a8 00             2906 	.byte	0
                        2907 
                        2908 .LDW_400dc28:
000002a9 3a             2909 	.byte	58
000002aa 00             2910 	.byte	0
000002ab 20             2911 	.byte	32
000002ac 00000000*      2912 	.word	.LDW_4af0660
                        2913 
000002b0 32             2914 	.byte	50
000002b1 00000000*      2915 	.word	.LDW_3fc6c50
000002b5 04             2916 	.byte	4
000002b6 00             2917 	.byte	0
000002b7 07             2918 	.byte	7
                        2919 
000002b8 00             2920 	.byte	0
                        2921 
                        2922 .LDW_400dcb0:
000002b9 3a             2923 	.byte	58
000002ba 00             2924 	.byte	0
000002bb 8002           2925 	.byte	128,2
000002bd 00000000*      2926 	.word	.LDW_3fc6ac8
                        2927 
000002c1 32             2928 	.byte	50
000002c2 00000000*      2929 	.word	.LDW_3fc6c50
000002c6 04             2930 	.byte	4
000002c7 00             2931 	.byte	0
000002c8 ff01           2932 	.byte	255,1
                        2933 
000002ca 00             2934 	.byte	0
                        2935 
                        2936 .LDW_400dd38:
000002cb 3a             2937 	.byte	58
000002cc 00             2938 	.byte	0
000002cd 40             2939 	.byte	64
000002ce 00000000*      2940 	.word	.LDW_4ac5460
                        2941 
000002d2 32             2942 	.byte	50
000002d3 00000000*      2943 	.word	.LDW_3fc6c50
000002d7 04             2944 	.byte	4
000002d8 00             2945 	.byte	0
000002d9 07             2946 	.byte	7
                        2947 
000002da 00             2948 	.byte	0
                        2949 
                        2950 .LDW_400ddc0:
000002db 3a             2951 	.byte	58
000002dc 00             2952 	.byte	0
000002dd 20             2953 	.byte	32
000002de 00000000*      2954 	.word	.LDW_4af0660
                        2955 
000002e2 32             2956 	.byte	50
000002e3 00000000*      2957 	.word	.LDW_3fc6c50
000002e7 04             2958 	.byte	4
000002e8 00             2959 	.byte	0

                                                                      Page 53
                                                              C:\Users\nhuliyap\AppData\Local\Temp\gh_00009081.s
000002e9 07             2960 	.byte	7
                        2961 
000002ea 00             2962 	.byte	0
                        2963 
                        2964 .LDW_4b5d1a0:
000002eb 3a             2965 	.byte	58
000002ec 00             2966 	.byte	0
000002ed 20             2967 	.byte	32
000002ee 00000000*      2968 	.word	.LDW_4af0660
                        2969 
000002f2 32             2970 	.byte	50
000002f3 00000000*      2971 	.word	.LDW_3fc6c50
000002f7 04             2972 	.byte	4
000002f8 00             2973 	.byte	0
000002f9 07             2974 	.byte	7
                        2975 
000002fa 00             2976 	.byte	0
                        2977 
                        2978 .LDW_4b5d228:
000002fb 3a             2979 	.byte	58
000002fc 00             2980 	.byte	0
000002fd 40             2981 	.byte	64
000002fe 00000000*      2982 	.word	.LDW_4ac5460
                        2983 
00000302 32             2984 	.byte	50
00000303 00000000*      2985 	.word	.LDW_3fc6c50
00000307 04             2986 	.byte	4
00000308 00             2987 	.byte	0
00000309 07             2988 	.byte	7
                        2989 
0000030a 00             2990 	.byte	0
                        2991 
                        2992 .LDW_4b5d2b0:
0000030b 3a             2993 	.byte	58
0000030c 00             2994 	.byte	0
0000030d 40             2995 	.byte	64
0000030e 00000000*      2996 	.word	.LDW_4ac5460
                        2997 
00000312 32             2998 	.byte	50
00000313 00000000*      2999 	.word	.LDW_3fc6c50
00000317 04             3000 	.byte	4
00000318 00             3001 	.byte	0
00000319 07             3002 	.byte	7
                        3003 
0000031a 00             3004 	.byte	0
                        3005 
                        3006 .LDW_4b5d338:
0000031b 3a             3007 	.byte	58
0000031c 00             3008 	.byte	0
0000031d 8002           3009 	.byte	128,2
0000031f 00000000*      3010 	.word	.LDW_4af0660
                        3011 
00000323 32             3012 	.byte	50
00000324 00000000*      3013 	.word	.LDW_3fc6c50
00000328 04             3014 	.byte	4
00000329 00             3015 	.byte	0
0000032a 3f             3016 	.byte	63
                        3017 
0000032b 00             3018 	.byte	0
                        3019 
                        3020 .LDW_4b5d580:

                                                                      Page 54
                                                              C:\Users\nhuliyap\AppData\Local\Temp\gh_00009081.s
0000032c 3a             3021 	.byte	58
0000032d 00             3022 	.byte	0
0000032e 8005           3023 	.byte	128,5
00000330 00000000*      3024 	.word	.LDW_4ac5460
                        3025 
00000334 32             3026 	.byte	50
00000335 00000000*      3027 	.word	.LDW_3fc6c50
00000339 04             3028 	.byte	4
0000033a 00             3029 	.byte	0
0000033b cf00           3030 	.byte	207,0
                        3031 
0000033d 00             3032 	.byte	0
                        3033 
                        3034 .LDW_400d3e0:
0000033e 44             3035 	.byte	68
0000033f 00000000*      3036 	.word	.LDW_3fc6c18
00000343 01             3037 	.byte	1
                        3038 
                        3039 	.section	.debug_abbrev
0000005d 44             3040 	.byte	68
0000005e 15             3041 	.byte	21
0000005f 01             3042 	.byte	1
00000060 4910           3043 	.byte	73,16
00000062 270c           3044 	.byte	39,12
00000064 0000           3045 	.byte	0,0
                        3046 
                        3047 	.section	.debug_info
                        3048 .LDW_4b2f508:
00000344 12             3049 	.byte	18
00000345 00000000*      3050 	.word	.LDW_3fc6c18
00000349 00             3051 	.byte	0
                        3052 
                        3053 .LDW_4b2f748:
0000034a 12             3054 	.byte	18
0000034b 00000000*      3055 	.word	.LDW_3fc6d68
0000034f 00             3056 	.byte	0
                        3057 
                        3058 .LDW_4b2f718:
00000350 12             3059 	.byte	18
00000351 00000000*      3060 	.word	.LDW_400ef28
00000355 00             3061 	.byte	0
                        3062 
00000356 00             3063 	.byte	0
                        3064 
                        3065 .LDW_400d728:
00000357 44             3066 	.byte	68
00000358 00000000*      3067 	.word	.LDW_3fc6c18
0000035c 01             3068 	.byte	1
                        3069 
                        3070 .LDW_4b2f808:
0000035d 12             3071 	.byte	18
0000035e 00000000*      3072 	.word	.LDW_3fc6c18
00000362 00             3073 	.byte	0
                        3074 
                        3075 .LDW_4b2f898:
00000363 12             3076 	.byte	18
00000364 00000000*      3077 	.word	.LDW_3fc6c50
00000368 00             3078 	.byte	0
                        3079 
                        3080 .LDW_4b2f8c8:
00000369 12             3081 	.byte	18

                                                                      Page 55
                                                              C:\Users\nhuliyap\AppData\Local\Temp\gh_00009081.s
0000036a 00000000*      3082 	.word	.LDW_400ef28
0000036e 00             3083 	.byte	0
                        3084 
0000036f 00             3085 	.byte	0
                        3086 
                        3087 .LDW_4aa0ef0:
00000370 28             3088 	.byte	40
00000371 75696e743800   3089 	.strz	"uint8"
00000377 50             3090 	.byte	80
00000378 4b             3091 	.byte	75
00000379 03             3092 	.byte	3
0000037a 00000000*      3093 	.word	.LDW_3fc6ac8
                        3094 
                        3095 	.section	.debug_abbrev
00000066 28             3096 	.byte	40
00000067 16             3097 	.byte	22
00000068 00             3098 	.byte	0
00000069 0308           3099 	.byte	3,8
0000006b 3b0f           3100 	.byte	59,15
0000006d 390f           3101 	.byte	57,15
0000006f 3a0f           3102 	.byte	58,15
00000071 4910           3103 	.byte	73,16
00000073 0000           3104 	.byte	0,0
                        3105 
                        3106 	.section	.debug_info
                        3107 .LDW_4af0660:
0000037e 28             3108 	.byte	40
0000037f 75696e743332   3109 	.strz	"uint32"
00000385 00 
00000386 54             3110 	.byte	84
00000387 4a             3111 	.byte	74
00000388 03             3112 	.byte	3
00000389 00000000*      3113 	.word	.LDW_3fc6a58
                        3114 
                        3115 .LDW_4ac5460:
0000038d 28             3116 	.byte	40
0000038e 75696e743634   3117 	.strz	"uint64"
00000394 00 
00000395 60             3118 	.byte	96
00000396 4a             3119 	.byte	74
00000397 03             3120 	.byte	3
00000398 00000000*      3121 	.word	.LDW_400d530
                        3122 
                        3123 .LDW_400ef28:
0000039c 28             3124 	.byte	40
0000039d 73697a655f74   3125 	.strz	"size_t"
000003a3 00 
000003a4 31             3126 	.byte	49
000003a5 1b             3127 	.byte	27
000003a6 08             3128 	.byte	8
000003a7 00000000*      3129 	.word	.LDW_3fc6c88
                        3130 
                        3131 .LDW_4aeff28:
000003ab 41             3132 	.byte	65
000003ac 1d             3133 	.byte	29
000003ad 0f             3134 	.byte	15
000003ae 0b             3135 	.byte	11
000003af a801           3136 	.byte	168,1
000003b1 01             3137 	.byte	1
                        3138 
                        3139 	.section	.debug_abbrev

                                                                      Page 56
                                                              C:\Users\nhuliyap\AppData\Local\Temp\gh_00009081.s
00000075 41             3140 	.byte	65
00000076 13             3141 	.byte	19
00000077 01             3142 	.byte	1
00000078 3b0f           3143 	.byte	59,15
0000007a 390f           3144 	.byte	57,15
0000007c 3a0f           3145 	.byte	58,15
0000007e 0b0f           3146 	.byte	11,15
00000080 320b           3147 	.byte	50,11
00000082 0000           3148 	.byte	0,0
                        3149 
                        3150 	.section	.debug_info
                        3151 .LDW_4ac30e8:
000003b2 23             3152 	.byte	35
000003b3 746f745f6c65   3153 	.strz	"tot_len"
000003b9 6e00 
000003bb 1e             3154 	.byte	30
000003bc 12             3155 	.byte	18
000003bd 0b             3156 	.byte	11
000003be 00000000*      3157 	.word	.LDW_3fc6c88
000003c2 0223           3158 	.byte	2,35
000003c4 00             3159 	.byte	0
000003c5 01             3160 	.byte	1
                        3161 
                        3162 	.section	.debug_abbrev
00000084 23             3163 	.byte	35
00000085 0d             3164 	.byte	13
00000086 00             3165 	.byte	0
00000087 0308           3166 	.byte	3,8
00000089 3b0f           3167 	.byte	59,15
0000008b 390f           3168 	.byte	57,15
0000008d 3a0f           3169 	.byte	58,15
0000008f 4910           3170 	.byte	73,16
00000091 380a           3171 	.byte	56,10
00000093 320b           3172 	.byte	50,11
00000095 0000           3173 	.byte	0,0
                        3174 
                        3175 	.section	.debug_info
                        3176 .LDW_4ac3298:
000003c6 23             3177 	.byte	35
000003c7 6c656e00       3178 	.strz	"len"
000003cb 1f             3179 	.byte	31
000003cc 12             3180 	.byte	18
000003cd 0b             3181 	.byte	11
000003ce 00000000*      3182 	.word	.LDW_3fc6c88
000003d2 0223           3183 	.byte	2,35
000003d4 04             3184 	.byte	4
000003d5 01             3185 	.byte	1
                        3186 
                        3187 .LDW_4ac35b0:
000003d6 23             3188 	.byte	35
000003d7 626c6f636b00   3189 	.strz	"block"
000003dd 20             3190 	.byte	32
000003de 13             3191 	.byte	19
000003df 0b             3192 	.byte	11
000003e0 00000000*      3193 	.word	.LDW_400dba0
000003e4 0223           3194 	.byte	2,35
000003e6 08             3195 	.byte	8
000003e7 01             3196 	.byte	1
                        3197 
                        3198 .LDW_4ac32e0:
000003e8 23             3199 	.byte	35

                                                                      Page 57
                                                              C:\Users\nhuliyap\AppData\Local\Temp\gh_00009081.s
000003e9 6800           3200 	.strz	"h"
000003eb 21             3201 	.byte	33
000003ec 0c             3202 	.byte	12
000003ed 0b             3203 	.byte	11
000003ee 00000000*      3204 	.word	.LDW_400dc28
000003f2 0323           3205 	.byte	3,35
000003f4 8801           3206 	.byte	136,1
000003f6 01             3207 	.byte	1
                        3208 
000003f7 00             3209 	.byte	0
                        3210 
                        3211 .LDW_4af0030:
000003f8 28             3212 	.byte	40
000003f9 736861323536   3213 	.strz	"sha256_ctx"
000003ff 5f63747800 
00000404 22             3214 	.byte	34
00000405 02             3215 	.byte	2
00000406 0b             3216 	.byte	11
00000407 00000000*      3217 	.word	.LDW_4aeff28
                        3218 
                        3219 .LDW_4ac51f8:
0000040b 41             3220 	.byte	65
0000040c 24             3221 	.byte	36
0000040d 0f             3222 	.byte	15
0000040e 0b             3223 	.byte	11
0000040f c802           3224 	.byte	200,2
00000411 01             3225 	.byte	1
                        3226 
                        3227 .LDW_4ac3448:
00000412 23             3228 	.byte	35
00000413 746f745f6c65   3229 	.strz	"tot_len"
00000419 6e00 
0000041b 25             3230 	.byte	37
0000041c 12             3231 	.byte	18
0000041d 0b             3232 	.byte	11
0000041e 00000000*      3233 	.word	.LDW_3fc6c88
00000422 0223           3234 	.byte	2,35
00000424 00             3235 	.byte	0
00000425 01             3236 	.byte	1
                        3237 
                        3238 .LDW_4b58948:
00000426 23             3239 	.byte	35
00000427 6c656e00       3240 	.strz	"len"
0000042b 26             3241 	.byte	38
0000042c 12             3242 	.byte	18
0000042d 0b             3243 	.byte	11
0000042e 00000000*      3244 	.word	.LDW_3fc6c88
00000432 0223           3245 	.byte	2,35
00000434 04             3246 	.byte	4
00000435 01             3247 	.byte	1
                        3248 
                        3249 .LDW_4b58ca8:
00000436 23             3250 	.byte	35
00000437 626c6f636b00   3251 	.strz	"block"
0000043d 27             3252 	.byte	39
0000043e 13             3253 	.byte	19
0000043f 0b             3254 	.byte	11
00000440 00000000*      3255 	.word	.LDW_400dcb0
00000444 0223           3256 	.byte	2,35
00000446 08             3257 	.byte	8
00000447 01             3258 	.byte	1

                                                                      Page 58
                                                              C:\Users\nhuliyap\AppData\Local\Temp\gh_00009081.s
                        3259 
                        3260 .LDW_4b58708:
00000448 23             3261 	.byte	35
00000449 6800           3262 	.strz	"h"
0000044b 28             3263 	.byte	40
0000044c 0c             3264 	.byte	12
0000044d 0b             3265 	.byte	11
0000044e 00000000*      3266 	.word	.LDW_400dd38
00000452 0323           3267 	.byte	3,35
00000454 8802           3268 	.byte	136,2
00000456 01             3269 	.byte	1
                        3270 
00000457 00             3271 	.byte	0
                        3272 
                        3273 .LDW_4ac5930:
00000458 28             3274 	.byte	40
00000459 736861353132   3275 	.strz	"sha512_ctx"
0000045f 5f63747800 
00000464 29             3276 	.byte	41
00000465 02             3277 	.byte	2
00000466 0b             3278 	.byte	11
00000467 00000000*      3279 	.word	.LDW_4ac51f8
                        3280 
                        3281 .LDW_4b436f0:
0000046b 28             3282 	.byte	40
0000046c 736861333834   3283 	.strz	"sha384_ctx"
00000472 5f63747800 
00000477 2b             3284 	.byte	43
00000478 14             3285 	.byte	20
00000479 0b             3286 	.byte	11
0000047a 00000000*      3287 	.word	.LDW_4ac5930
                        3288 
                        3289 .LDW_4b43380:
0000047e 28             3290 	.byte	40
0000047f 736861323234   3291 	.strz	"sha224_ctx"
00000485 5f63747800 
0000048a 2c             3292 	.byte	44
0000048b 14             3293 	.byte	20
0000048c 0b             3294 	.byte	11
0000048d 00000000*      3295 	.word	.LDW_4af0030
                        3296 
                        3297 .LDW_4aa0340:
00000491 04             3298 	.byte	4
00000492 736861323234   3299 	.strz	"sha224_h0"
00000498 5f683000 
0000049c 5d             3300 	.byte	93
0000049d 08             3301 	.byte	8
0000049e 01             3302 	.byte	1
0000049f 00000000*      3303 	.word	.LDW_400ddc0
000004a3 01             3304 	.byte	1
000004a4 00             3305 	.byte	0
000004a5 0503           3306 	.byte	5,3
000004a7 00000000*      3307 	.word	_sha224_h0
                        3308 
                        3309 	.section	.debug_abbrev
00000097 04             3310 	.byte	4
00000098 34             3311 	.byte	52
00000099 00             3312 	.byte	0
0000009a 0308           3313 	.byte	3,8
0000009c 3b0f           3314 	.byte	59,15
0000009e 390f           3315 	.byte	57,15

                                                                      Page 59
                                                              C:\Users\nhuliyap\AppData\Local\Temp\gh_00009081.s
000000a0 3a0f           3316 	.byte	58,15
000000a2 4910           3317 	.byte	73,16
000000a4 3f0c           3318 	.byte	63,12
000000a6 3c0c           3319 	.byte	60,12
000000a8 020a           3320 	.byte	2,10
000000aa 0000           3321 	.byte	0,0
                        3322 
                        3323 	.section	.debug_info
                        3324 .LDW_4aa0ad0:
000004ab 04             3325 	.byte	4
000004ac 736861323536   3326 	.strz	"sha256_h0"
000004b2 5f683000 
000004b6 61             3327 	.byte	97
000004b7 08             3328 	.byte	8
000004b8 01             3329 	.byte	1
000004b9 00000000*      3330 	.word	.LDW_4b5d1a0
000004bd 01             3331 	.byte	1
000004be 00             3332 	.byte	0
000004bf 0503           3333 	.byte	5,3
000004c1 00000000*      3334 	.word	_sha256_h0
                        3335 
                        3336 .LDW_4aa0080:
000004c5 04             3337 	.byte	4
000004c6 736861333834   3338 	.strz	"sha384_h0"
000004cc 5f683000 
000004d0 65             3339 	.byte	101
000004d1 08             3340 	.byte	8
000004d2 01             3341 	.byte	1
000004d3 00000000*      3342 	.word	.LDW_4b5d228
000004d7 01             3343 	.byte	1
000004d8 00             3344 	.byte	0
000004d9 0503           3345 	.byte	5,3
000004db 00000000*      3346 	.word	_sha384_h0
                        3347 
                        3348 .LDW_4aa0550:
000004df 04             3349 	.byte	4
000004e0 736861353132   3350 	.strz	"sha512_h0"
000004e6 5f683000 
000004ea 6b             3351 	.byte	107
000004eb 08             3352 	.byte	8
000004ec 01             3353 	.byte	1
000004ed 00000000*      3354 	.word	.LDW_4b5d2b0
000004f1 01             3355 	.byte	1
000004f2 00             3356 	.byte	0
000004f3 0503           3357 	.byte	5,3
000004f5 00000000*      3358 	.word	_sha512_h0
                        3359 
                        3360 .LDW_4aa0a20:
000004f9 04             3361 	.byte	4
000004fa 736861323536   3362 	.strz	"sha256_k"
00000500 5f6b00 
00000503 71             3363 	.byte	113
00000504 08             3364 	.byte	8
00000505 01             3365 	.byte	1
00000506 00000000*      3366 	.word	.LDW_4b5d338
0000050a 01             3367 	.byte	1
0000050b 00             3368 	.byte	0
0000050c 0503           3369 	.byte	5,3
0000050e 00000000*      3370 	.word	_sha256_k
                        3371 
                        3372 .LDW_4aa0188:

                                                                      Page 60
                                                              C:\Users\nhuliyap\AppData\Local\Temp\gh_00009081.s
00000512 04             3373 	.byte	4
00000513 736861353132   3374 	.strz	"sha512_k"
00000519 5f6b00 
0000051c 8301           3375 	.byte	131,1
0000051e 08             3376 	.byte	8
0000051f 01             3377 	.byte	1
00000520 00000000*      3378 	.word	.LDW_4b5d580
00000524 01             3379 	.byte	1
00000525 00             3380 	.byte	0
00000526 0503           3381 	.byte	5,3
00000528 00000000*      3382 	.word	_sha512_k
                        3383 
                        3384 .LDW_4b42680:
0000052c 16             3385 	.byte	22
0000052d 6d656d637079   3386 	.strz	"memcpy"
00000533 00 
00000534 4c             3387 	.byte	76
00000535 07             3388 	.byte	7
00000536 07             3389 	.byte	7
00000537 00000000*      3390 	.word	.LDW_3fc6c18
0000053b 01             3391 	.byte	1
0000053c 00             3392 	.byte	0
0000053d 01             3393 	.byte	1
0000053e 01             3394 	.byte	1
0000053f 00             3395 	.byte	0
00000540 01             3396 	.byte	1
                        3397 
                        3398 	.section	.debug_abbrev
000000ac 16             3399 	.byte	22
000000ad 2e             3400 	.byte	46
000000ae 01             3401 	.byte	1
000000af 0308           3402 	.byte	3,8
000000b1 3b0f           3403 	.byte	59,15
000000b3 390f           3404 	.byte	57,15
000000b5 3a0f           3405 	.byte	58,15
000000b7 4910           3406 	.byte	73,16
000000b9 3c0c           3407 	.byte	60,12
000000bb 200b           3408 	.byte	32,11
000000bd 3f0c           3409 	.byte	63,12
000000bf 320b           3410 	.byte	50,11
000000c1 4c0b           3411 	.byte	76,11
000000c3 270c           3412 	.byte	39,12
000000c5 0000           3413 	.byte	0,0
                        3414 
                        3415 	.section	.debug_info
00000541 00             3416 	.byte	0
                        3417 
                        3418 .LDW_4b42b40:
00000542 16             3419 	.byte	22
00000543 6d656d736574   3420 	.strz	"memset"
00000549 00 
0000054a 4d             3421 	.byte	77
0000054b 07             3422 	.byte	7
0000054c 07             3423 	.byte	7
0000054d 00000000*      3424 	.word	.LDW_3fc6c18
00000551 01             3425 	.byte	1
00000552 00             3426 	.byte	0
00000553 01             3427 	.byte	1
00000554 01             3428 	.byte	1
00000555 00             3429 	.byte	0
00000556 01             3430 	.byte	1

                                                                      Page 61
                                                              C:\Users\nhuliyap\AppData\Local\Temp\gh_00009081.s
                        3431 
00000557 00             3432 	.byte	0
                        3433 
                        3434 .LDW_400ce80:
00000558 13             3435 	.byte	19
00000559 736861323536   3436 	.strz	"sha256_transf"
0000055f 5f7472616e73 
00000565 6600 
00000567 ad01           3437 	.byte	173,1
00000569 06             3438 	.byte	6
0000056a 01             3439 	.byte	1
0000056b 00000000*      3440 	.word	_sha256_transf
0000056f 00000000*      3441 	.word	___ghs_eofn_sha256_transf
00000573 0153           3442 	.byte	1,83
00000575 828080c003     3443 	.byte	130,128,128,192,3
0000057a 0c             3444 	.byte	12
0000057b 03             3445 	.byte	3
0000057c ac02           3446 	.byte	172,2
0000057e 00             3447 	.byte	0
0000057f 00             3448 	.byte	0
00000580 00             3449 	.byte	0
00000581 01             3450 	.byte	1
00000582 01             3451 	.byte	1
00000583 00             3452 	.byte	0
00000584 01             3453 	.byte	1
                        3454 
                        3455 	.section	.debug_abbrev
000000c7 13             3456 	.byte	19
000000c8 2e             3457 	.byte	46
000000c9 01             3458 	.byte	1
000000ca 0308           3459 	.byte	3,8
000000cc 3b0f           3460 	.byte	59,15
000000ce 390f           3461 	.byte	57,15
000000d0 3a0f           3462 	.byte	58,15
000000d2 1101           3463 	.byte	17,1
000000d4 1201           3464 	.byte	18,1
000000d6 400a           3465 	.byte	64,10
000000d8 8341           3466 	.byte	131,65
000000da 0f             3467 	.byte	15
000000db 8741           3468 	.byte	135,65
000000dd 0d             3469 	.byte	13
000000de 8541           3470 	.byte	133,65
000000e0 0f             3471 	.byte	15
000000e1 8641           3472 	.byte	134,65
000000e3 0d             3473 	.byte	13
000000e4 9241           3474 	.byte	146,65
000000e6 0f             3475 	.byte	15
000000e7 3c0c           3476 	.byte	60,12
000000e9 200b           3477 	.byte	32,11
000000eb 3f0c           3478 	.byte	63,12
000000ed 320b           3479 	.byte	50,11
000000ef 4c0b           3480 	.byte	76,11
000000f1 270c           3481 	.byte	39,12
000000f3 0000           3482 	.byte	0,0
                        3483 
                        3484 	.section	.debug_frame
                        3485 .LDW_4c3d850:
00000090 00000000*      3486 	.word	.LDW_unq_4-.LDW_unq_3
                        3487 .LDW_unq_3:
00000094 00000000*      3488 	.word	.LDW_4b0a048
00000098 00000000*      3489 	.word	_sha256_transf

                                                                      Page 62
                                                              C:\Users\nhuliyap\AppData\Local\Temp\gh_00009081.s
0000009c 00000000*      3490 	.word	___ghs_eofn_sha256_transf-_sha256_transf
000000a0 44             3491 	.byte	68
000000a1 9d             3492 	.byte	157
000000a2 5d             3493 	.byte	93
000000a3 40             3494 	.byte	64
000000a4 9c             3495 	.byte	156
000000a5 61             3496 	.byte	97
000000a6 40             3497 	.byte	64
000000a7 9b             3498 	.byte	155
000000a8 65             3499 	.byte	101
000000a9 01             3500 	.byte	1
000000aa 00000000*      3501 	.word	.LDW11
000000ae 00             3502 	.byte	0
000000af 00             3503 	.byte	0
                        3504 .LDW_unq_4:
                        3505 	.section	.debug_line
000001ed 000502         3506 	.byte	0,5,2
000001f0 00000000*      3507 	.word	_sha256_transf
000001f4 03             3508 	.byte	3
000001f5 ae01           3509 	.byte	174,1
000001f7 02             3510 	.byte	2
000001f8 00             3511 	.byte	0
000001f9 01             3512 	.byte	1
000001fa 06             3513 	.byte	6
000001fb 03             3514 	.byte	3
000001fc 0b             3515 	.byte	11
000001fd 02             3516 	.byte	2
000001fe 0e             3517 	.byte	14
000001ff 01             3518 	.byte	1
00000200 02             3519 	.byte	2
00000201 02             3520 	.byte	2
00000202 000502         3521 	.byte	0,5,2
00000205 00000000*      3522 	.word	.LDWlin1
00000209 0b             3523 	.byte	11
0000020a 25             3524 	.byte	37
0000020b 02             3525 	.byte	2
0000020c 02             3526 	.byte	2
0000020d 0b             3527 	.byte	11
0000020e 03             3528 	.byte	3
0000020f 7f             3529 	.byte	127
00000210 02             3530 	.byte	2
00000211 1e             3531 	.byte	30
00000212 01             3532 	.byte	1
00000213 000502         3533 	.byte	0,5,2
00000216 00000000*      3534 	.word	.LDWlin2
0000021a 0c             3535 	.byte	12
0000021b 0c             3536 	.byte	12
0000021c 02             3537 	.byte	2
0000021d 04             3538 	.byte	4
0000021e 0b             3539 	.byte	11
0000021f 03             3540 	.byte	3
00000220 7f             3541 	.byte	127
00000221 02             3542 	.byte	2
00000222 34             3543 	.byte	52
00000223 01             3544 	.byte	1
00000224 000502         3545 	.byte	0,5,2
00000227 00000000*      3546 	.word	.LDWlin3
0000022b 0c             3547 	.byte	12
0000022c 0c             3548 	.byte	12
0000022d 02             3549 	.byte	2
0000022e 02             3550 	.byte	2

                                                                      Page 63
                                                              C:\Users\nhuliyap\AppData\Local\Temp\gh_00009081.s
0000022f 0b             3551 	.byte	11
00000230 03             3552 	.byte	3
00000231 7f             3553 	.byte	127
00000232 02             3554 	.byte	2
00000233 0e             3555 	.byte	14
00000234 01             3556 	.byte	1
00000235 000502         3557 	.byte	0,5,2
00000238 00000000*      3558 	.word	.LDWlin4
0000023c 0c             3559 	.byte	12
0000023d 0c             3560 	.byte	12
0000023e 02             3561 	.byte	2
0000023f 02             3562 	.byte	2
00000240 0b             3563 	.byte	11
00000241 000502         3564 	.byte	0,5,2
00000244 00000000*      3565 	.word	.LDWlin5
00000248 0c             3566 	.byte	12
00000249 3b             3567 	.byte	59
0000024a 45             3568 	.byte	69
0000024b 03             3569 	.byte	3
0000024c 04             3570 	.byte	4
0000024d 02             3571 	.byte	2
0000024e 14             3572 	.byte	20
0000024f 01             3573 	.byte	1
00000250 03             3574 	.byte	3
00000251 75             3575 	.byte	117
00000252 02             3576 	.byte	2
00000253 02             3577 	.byte	2
00000254 01             3578 	.byte	1
00000255 03             3579 	.byte	3
00000256 05             3580 	.byte	5
00000257 02             3581 	.byte	2
00000258 02             3582 	.byte	2
00000259 01             3583 	.byte	1
0000025a 13             3584 	.byte	19
0000025b 1c             3585 	.byte	28
0000025c 13             3586 	.byte	19
0000025d 13             3587 	.byte	19
0000025e 000502         3588 	.byte	0,5,2
00000261 00000000*      3589 	.word	.LDWlin6
00000265 0c             3590 	.byte	12
00000266 0c             3591 	.byte	12
00000267 02             3592 	.byte	2
00000268 02             3593 	.byte	2
00000269 0b             3594 	.byte	11
0000026a 03             3595 	.byte	3
0000026b 7f             3596 	.byte	127
0000026c 02             3597 	.byte	2
0000026d 10             3598 	.byte	16
0000026e 01             3599 	.byte	1
0000026f 000502         3600 	.byte	0,5,2
00000272 00000000*      3601 	.word	.LDWlin7
00000276 0c             3602 	.byte	12
00000277 03             3603 	.byte	3
00000278 60             3604 	.byte	96
00000279 02             3605 	.byte	2
0000027a 00             3606 	.byte	0
0000027b 01             3607 	.byte	1
0000027c 000502         3608 	.byte	0,5,2
0000027f 00000000*      3609 	.word	.LDWlin8
00000283 03             3610 	.byte	3
00000284 e300           3611 	.byte	227,0

                                                                      Page 64
                                                              C:\Users\nhuliyap\AppData\Local\Temp\gh_00009081.s
00000286 02             3612 	.byte	2
00000287 00             3613 	.byte	0
00000288 01             3614 	.byte	1
00000289 0b             3615 	.byte	11
0000028a 02             3616 	.byte	2
0000028b 08             3617 	.byte	8
0000028c 000101         3618 	.byte	0,1,1
                        3619 	.section	.debug_info
                        3620 .LDW_4af03a0:
00000585 0f             3621 	.byte	15
00000586 63747800       3622 	.strz	"ctx"
0000058a ad01           3623 	.byte	173,1
0000058c 20             3624 	.byte	32
0000058d 01             3625 	.byte	1
0000058e 00000000*      3626 	.word	.LDW_3fc6a20
00000592 00             3627 	.byte	0
00000593 016d           3628 	.byte	1,109
                        3629 
                        3630 	.section	.debug_abbrev
000000f5 0f             3631 	.byte	15
000000f6 05             3632 	.byte	5
000000f7 00             3633 	.byte	0
000000f8 0308           3634 	.byte	3,8
000000fa 3b0f           3635 	.byte	59,15
000000fc 390f           3636 	.byte	57,15
000000fe 3a0f           3637 	.byte	58,15
00000100 4910           3638 	.byte	73,16
00000102 4b0c           3639 	.byte	75,12
00000104 020a           3640 	.byte	2,10
00000106 0000           3641 	.byte	0,0
                        3642 
                        3643 	.section	.debug_info
                        3644 .LDW_4af05b0:
00000595 0f             3645 	.byte	15
00000596 6d6573736167   3646 	.strz	"message"
0000059c 6500 
0000059e ad01           3647 	.byte	173,1
000005a0 3a             3648 	.byte	58
000005a1 01             3649 	.byte	1
000005a2 00000000*      3650 	.word	.LDW_3fc69e8
000005a6 00             3651 	.byte	0
000005a7 016c           3652 	.byte	1,108
                        3653 
                        3654 .LDW_4af0558:
000005a9 0f             3655 	.byte	15
000005aa 626c6f636b5f   3656 	.strz	"block_nb"
000005b0 6e6200 
000005b3 ae01           3657 	.byte	174,1
000005b5 21             3658 	.byte	33
000005b6 01             3659 	.byte	1
000005b7 00000000*      3660 	.word	.LDW_3fc6c88
000005bb 00             3661 	.byte	0
000005bc 016b           3662 	.byte	1,107
                        3663 
                        3664 .LDW_4aef5b8:
000005be 1d             3665 	.byte	29
000005bf 00000000*      3666 	.word	.LDW01
000005c3 00000000*      3667 	.word	.LDW11
                        3668 
                        3669 	.section	.debug_abbrev
00000108 1d             3670 	.byte	29

                                                                      Page 65
                                                              C:\Users\nhuliyap\AppData\Local\Temp\gh_00009081.s
00000109 0b             3671 	.byte	11
0000010a 01             3672 	.byte	1
0000010b 1101           3673 	.byte	17,1
0000010d 1201           3674 	.byte	18,1
0000010f 0000           3675 	.byte	0,0
                        3676 
                        3677 	.section	.debug_info
                        3678 .LDW_4af0920:
000005c7 04             3679 	.byte	4
000005c8 7700           3680 	.strz	"w"
000005ca b001           3681 	.byte	176,1
000005cc 0c             3682 	.byte	12
000005cd 01             3683 	.byte	1
000005ce 00000000*      3684 	.word	.LDW_400cf18
000005d2 00             3685 	.byte	0
000005d3 00             3686 	.byte	0
000005d4 0273           3687 	.byte	2,115
000005d6 20             3688 	.byte	32
                        3689 
                        3690 .LDW_4af08c8:
000005d7 04             3691 	.byte	4
000005d8 777600         3692 	.strz	"wv"
000005db b101           3693 	.byte	177,1
000005dd 0c             3694 	.byte	12
000005de 01             3695 	.byte	1
000005df 00000000*      3696 	.word	.LDW_400cfa0
000005e3 00             3697 	.byte	0
000005e4 00             3698 	.byte	0
000005e5 0273           3699 	.byte	2,115
000005e7 00             3700 	.byte	0
                        3701 
                        3702 .LDW_4af0500:
000005e8 04             3703 	.byte	4
000005e9 743100         3704 	.strz	"t1"
000005ec b201           3705 	.byte	178,1
000005ee 0c             3706 	.byte	12
000005ef 01             3707 	.byte	1
000005f0 00000000*      3708 	.word	.LDW_4af0660
000005f4 00             3709 	.byte	0
000005f5 00             3710 	.byte	0
000005f6 015f           3711 	.byte	1,95
                        3712 
                        3713 .LDW_4af0608:
000005f8 05             3714 	.byte	5
000005f9 743200         3715 	.strz	"t2"
000005fc b201           3716 	.byte	178,1
000005fe 10             3717 	.byte	16
000005ff 01             3718 	.byte	1
00000600 00000000*      3719 	.word	.LDW_4af0660
00000604 00             3720 	.byte	0
00000605 00             3721 	.byte	0
                        3722 
                        3723 	.section	.debug_abbrev
00000111 05             3724 	.byte	5
00000112 34             3725 	.byte	52
00000113 00             3726 	.byte	0
00000114 0308           3727 	.byte	3,8
00000116 3b0f           3728 	.byte	59,15
00000118 390f           3729 	.byte	57,15
0000011a 3a0f           3730 	.byte	58,15
0000011c 4910           3731 	.byte	73,16

                                                                      Page 66
                                                              C:\Users\nhuliyap\AppData\Local\Temp\gh_00009081.s
0000011e 3f0c           3732 	.byte	63,12
00000120 3c0c           3733 	.byte	60,12
00000122 0000           3734 	.byte	0,0
                        3735 
                        3736 	.section	.debug_info
                        3737 .LDW_4af06b8:
00000606 04             3738 	.byte	4
00000607 7375625f626c   3739 	.strz	"sub_block"
0000060d 6f636b00 
00000611 b301           3740 	.byte	179,1
00000613 1a             3741 	.byte	26
00000614 01             3742 	.byte	1
00000615 00000000*      3743 	.word	.LDW_3fc69e8
00000619 00             3744 	.byte	0
0000061a 00             3745 	.byte	0
0000061b 015a           3746 	.byte	1,90
                        3747 
                        3748 .LDW_4af0870:
0000061d 04             3749 	.byte	4
0000061e 6900           3750 	.strz	"i"
00000620 b401           3751 	.byte	180,1
00000622 09             3752 	.byte	9
00000623 01             3753 	.byte	1
00000624 00000000*      3754 	.word	.LDW_3fc6c50
00000628 00             3755 	.byte	0
00000629 00             3756 	.byte	0
0000062a 0151           3757 	.byte	1,81
                        3758 
                        3759 .LDW_4af0768:
0000062c 04             3760 	.byte	4
0000062d 6a00           3761 	.strz	"j"
0000062f b701           3762 	.byte	183,1
00000631 09             3763 	.byte	9
00000632 01             3764 	.byte	1
00000633 00000000*      3765 	.word	.LDW_3fc6c50
00000637 00             3766 	.byte	0
00000638 00             3767 	.byte	0
00000639 0162           3768 	.byte	1,98
                        3769 
0000063b 00             3770 	.byte	0
                        3771 
0000063c 00             3772 	.byte	0
                        3773 
                        3774 .LDW_400d028:
0000063d 13             3775 	.byte	19
0000063e 736861323536   3776 	.strz	"sha256"
00000644 00 
00000645 a002           3777 	.byte	160,2
00000647 06             3778 	.byte	6
00000648 01             3779 	.byte	1
00000649 00000000*      3780 	.word	_sha256
0000064d 00000000*      3781 	.word	___ghs_eofn_sha256
00000651 0153           3782 	.byte	1,83
00000653 828080c00a     3783 	.byte	130,128,128,192,10
00000658 10             3784 	.byte	16
00000659 03             3785 	.byte	3
0000065a b801           3786 	.byte	184,1
0000065c 00             3787 	.byte	0
0000065d 00             3788 	.byte	0
0000065e 00             3789 	.byte	0
0000065f 01             3790 	.byte	1

                                                                      Page 67
                                                              C:\Users\nhuliyap\AppData\Local\Temp\gh_00009081.s
00000660 01             3791 	.byte	1
00000661 00             3792 	.byte	0
00000662 01             3793 	.byte	1
                        3794 
                        3795 	.section	.debug_frame
                        3796 .LDW_4c4c9d8:
000000b0 00000000*      3797 	.word	.LDW_unq_6-.LDW_unq_5
                        3798 .LDW_unq_5:
000000b4 00000000*      3799 	.word	.LDW_4b0a048
000000b8 00000000*      3800 	.word	_sha256
000000bc 00000000*      3801 	.word	___ghs_eofn_sha256-_sha256
000000c0 44             3802 	.byte	68
000000c1 9f             3803 	.byte	159
000000c2 61             3804 	.byte	97
000000c3 40             3805 	.byte	64
000000c4 9d             3806 	.byte	157
000000c5 65             3807 	.byte	101
000000c6 40             3808 	.byte	64
000000c7 9b             3809 	.byte	155
000000c8 69             3810 	.byte	105
000000c9 01             3811 	.byte	1
000000ca 00000000*      3812 	.word	.LDW91
000000ce 44             3813 	.byte	68
000000cf df             3814 	.byte	223
000000d0 40             3815 	.byte	64
000000d1 dd             3816 	.byte	221
000000d2 40             3817 	.byte	64
000000d3 db             3818 	.byte	219
                        3819 .LDW_unq_6:
                        3820 	.section	.debug_line
0000028f 000502         3821 	.byte	0,5,2
00000292 00000000*      3822 	.word	_sha256
00000296 03             3823 	.byte	3
00000297 a002           3824 	.byte	160,2
00000299 02             3825 	.byte	2
0000029a 00             3826 	.byte	0
0000029b 01             3827 	.byte	1
0000029c 06             3828 	.byte	6
0000029d 3d             3829 	.byte	61
0000029e 000502         3830 	.byte	0,5,2
000002a1 00000000*      3831 	.word	.LDWlin20
000002a5 0b             3832 	.byte	11
000002a6 000502         3833 	.byte	0,5,2
000002a9 00000000*      3834 	.word	.LDWlin21
000002ad 0b             3835 	.byte	11
000002ae 000502         3836 	.byte	0,5,2
000002b1 00000000*      3837 	.word	.LDWlin22
000002b5 0b             3838 	.byte	11
000002b6 02             3839 	.byte	2
000002b7 08             3840 	.byte	8
000002b8 000101         3841 	.byte	0,1,1
                        3842 	.section	.debug_info
                        3843 .LDW_4af07c0:
00000663 0f             3844 	.byte	15
00000664 6d6573736167   3845 	.strz	"message"
0000066a 6500 
0000066c a002           3846 	.byte	160,2
0000066e 22             3847 	.byte	34
0000066f 01             3848 	.byte	1
00000670 00000000*      3849 	.word	.LDW_3fc69e8
00000674 00             3850 	.byte	0

                                                                      Page 68
                                                              C:\Users\nhuliyap\AppData\Local\Temp\gh_00009081.s
00000675 016d           3851 	.byte	1,109
                        3852 
                        3853 .LDW_4af0710:
00000677 0f             3854 	.byte	15
00000678 6c656e00       3855 	.strz	"len"
0000067c a002           3856 	.byte	160,2
0000067e 38             3857 	.byte	56
0000067f 01             3858 	.byte	1
00000680 00000000*      3859 	.word	.LDW_3fc6c88
00000684 00             3860 	.byte	0
00000685 016c           3861 	.byte	1,108
                        3862 
                        3863 .LDW_4af0818:
00000687 0f             3864 	.byte	15
00000688 646967657374   3865 	.strz	"digest"
0000068e 00 
0000068f a002           3866 	.byte	160,2
00000691 4c             3867 	.byte	76
00000692 01             3868 	.byte	1
00000693 00000000*      3869 	.word	.LDW_3fc6b38
00000697 00             3870 	.byte	0
00000698 016b           3871 	.byte	1,107
                        3872 
                        3873 .LDW_4aef7f8:
0000069a 1d             3874 	.byte	29
0000069b 00000000*      3875 	.word	.LDW81
0000069f 00000000*      3876 	.word	.LDW91
                        3877 
                        3878 .LDW_4af04a8:
000006a3 04             3879 	.byte	4
000006a4 63747800       3880 	.strz	"ctx"
000006a8 a202           3881 	.byte	162,2
000006aa 10             3882 	.byte	16
000006ab 01             3883 	.byte	1
000006ac 00000000*      3884 	.word	.LDW_4af0030
000006b0 00             3885 	.byte	0
000006b1 00             3886 	.byte	0
000006b2 0273           3887 	.byte	2,115
000006b4 00             3888 	.byte	0
                        3889 
000006b5 00             3890 	.byte	0
                        3891 
000006b6 00             3892 	.byte	0
                        3893 
                        3894 .LDW_400d0c0:
000006b7 13             3895 	.byte	19
000006b8 736861323536   3896 	.strz	"sha256_init"
000006be 5f696e697400 
000006c4 a902           3897 	.byte	169,2
000006c6 06             3898 	.byte	6
000006c7 01             3899 	.byte	1
000006c8 00000000*      3900 	.word	_sha256_init
000006cc 00000000*      3901 	.word	___ghs_eofn_sha256_init
000006d0 0153           3902 	.byte	1,83
000006d2 02             3903 	.byte	2
000006d3 00             3904 	.byte	0
000006d4 02             3905 	.byte	2
000006d5 00             3906 	.byte	0
000006d6 00             3907 	.byte	0
000006d7 00             3908 	.byte	0
000006d8 00             3909 	.byte	0

                                                                      Page 69
                                                              C:\Users\nhuliyap\AppData\Local\Temp\gh_00009081.s
000006d9 01             3910 	.byte	1
000006da 01             3911 	.byte	1
000006db 00             3912 	.byte	0
000006dc 01             3913 	.byte	1
                        3914 
                        3915 	.section	.debug_frame
                        3916 .LDW_4c58358:
000000d4 00000000*      3917 	.word	.LDW_unq_8-.LDW_unq_7
                        3918 .LDW_unq_7:
000000d8 00000000*      3919 	.word	.LDW_4b0a048
000000dc 00000000*      3920 	.word	_sha256_init
000000e0 00000000*      3921 	.word	___ghs_eofn_sha256_init-_sha256_init
000000e4 01             3922 	.byte	1
000000e5 00000000*      3923 	.word	.LDW31
000000e9 00             3924 	.byte	0
000000ea 00             3925 	.byte	0
000000eb 00             3926 	.byte	0
                        3927 .LDW_unq_8:
                        3928 	.section	.debug_line
000002bb 000502         3929 	.byte	0,5,2
000002be 00000000*      3930 	.word	_sha256_init
000002c2 06             3931 	.byte	6
000002c3 03             3932 	.byte	3
000002c4 ac02           3933 	.byte	172,2
000002c6 02             3934 	.byte	2
000002c7 00             3935 	.byte	0
000002c8 01             3936 	.byte	1
000002c9 02             3937 	.byte	2
000002ca 02             3938 	.byte	2
000002cb 0b             3939 	.byte	11
000002cc 000502         3940 	.byte	0,5,2
000002cf 00000000*      3941 	.word	.LDWlin9
000002d3 03             3942 	.byte	3
000002d4 7f             3943 	.byte	127
000002d5 02             3944 	.byte	2
000002d6 00             3945 	.byte	0
000002d7 01             3946 	.byte	1
000002d8 000502         3947 	.byte	0,5,2
000002db 00000000*      3948 	.word	.LDWlin10
000002df 0c             3949 	.byte	12
000002e0 03             3950 	.byte	3
000002e1 08             3951 	.byte	8
000002e2 02             3952 	.byte	2
000002e3 00             3953 	.byte	0
000002e4 01             3954 	.byte	1
000002e5 1b             3955 	.byte	27
000002e6 13             3956 	.byte	19
000002e7 02             3957 	.byte	2
000002e8 02             3958 	.byte	2
000002e9 000101         3959 	.byte	0,1,1
                        3960 	.section	.debug_info
                        3961 .LDW_4ac54b8:
000006dd 0f             3962 	.byte	15
000006de 63747800       3963 	.strz	"ctx"
000006e2 a902           3964 	.byte	169,2
000006e4 1e             3965 	.byte	30
000006e5 01             3966 	.byte	1
000006e6 00000000*      3967 	.word	.LDW_3fc6a20
000006ea 00             3968 	.byte	0
000006eb 0156           3969 	.byte	1,86
                        3970 

                                                                      Page 70
                                                              C:\Users\nhuliyap\AppData\Local\Temp\gh_00009081.s
                        3971 .LDW_4aef7c8:
000006ed 1d             3972 	.byte	29
000006ee 00000000*      3973 	.word	.LDW21
000006f2 00000000*      3974 	.word	.LDW31
                        3975 
                        3976 .LDW_4ac5a90:
000006f6 04             3977 	.byte	4
000006f7 6900           3978 	.strz	"i"
000006f9 ac02           3979 	.byte	172,2
000006fb 09             3980 	.byte	9
000006fc 01             3981 	.byte	1
000006fd 00000000*      3982 	.word	.LDW_3fc6c50
00000701 00             3983 	.byte	0
00000702 00             3984 	.byte	0
00000703 0161           3985 	.byte	1,97
                        3986 
00000705 00             3987 	.byte	0
                        3988 
00000706 00             3989 	.byte	0
                        3990 
                        3991 .LDW_4b2ec28:
00000707 13             3992 	.byte	19
00000708 736861323536   3993 	.strz	"sha256_update"
0000070e 5f7570646174 
00000714 6500 
00000716 bb02           3994 	.byte	187,2
00000718 06             3995 	.byte	6
00000719 01             3996 	.byte	1
0000071a 00000000*      3997 	.word	_sha256_update
0000071e 00000000*      3998 	.word	___ghs_eofn_sha256_update
00000722 0153           3999 	.byte	1,83
00000724 828080f80b     4000 	.byte	130,128,128,248,11
00000729 1c             4001 	.byte	28
0000072a 03             4002 	.byte	3
0000072b 1c             4003 	.byte	28
0000072c 00             4004 	.byte	0
0000072d 00             4005 	.byte	0
0000072e 00             4006 	.byte	0
0000072f 01             4007 	.byte	1
00000730 01             4008 	.byte	1
00000731 00             4009 	.byte	0
00000732 01             4010 	.byte	1
                        4011 
                        4012 	.section	.debug_frame
                        4013 .LDW_4c4c958:
000000ec 00000000*      4014 	.word	.LDW_unq_a-.LDW_unq_9
                        4015 .LDW_unq_9:
000000f0 00000000*      4016 	.word	.LDW_4b0a048
000000f4 00000000*      4017 	.word	_sha256_update
000000f8 00000000*      4018 	.word	___ghs_eofn_sha256_update-_sha256_update
000000fc 44             4019 	.byte	68
000000fd 9f             4020 	.byte	159
000000fe 00             4021 	.byte	0
000000ff 40             4022 	.byte	64
00000100 9d             4023 	.byte	157
00000101 04             4024 	.byte	4
00000102 40             4025 	.byte	64
00000103 9c             4026 	.byte	156
00000104 08             4027 	.byte	8
00000105 40             4028 	.byte	64
00000106 9b             4029 	.byte	155

                                                                      Page 71
                                                              C:\Users\nhuliyap\AppData\Local\Temp\gh_00009081.s
00000107 0c             4030 	.byte	12
00000108 40             4031 	.byte	64
00000109 9a             4032 	.byte	154
0000010a 10             4033 	.byte	16
0000010b 40             4034 	.byte	64
0000010c 99             4035 	.byte	153
0000010d 14             4036 	.byte	20
0000010e 40             4037 	.byte	64
0000010f 98             4038 	.byte	152
00000110 18             4039 	.byte	24
00000111 01             4040 	.byte	1
00000112 00000000*      4041 	.word	.LDW51
00000116 00             4042 	.byte	0
00000117 00             4043 	.byte	0
                        4044 .LDW_unq_a:
                        4045 	.section	.debug_line
000002ec 000502         4046 	.byte	0,5,2
000002ef 00000000*      4047 	.word	_sha256_update
000002f3 03             4048 	.byte	3
000002f4 bc02           4049 	.byte	188,2
000002f6 02             4050 	.byte	2
000002f7 00             4051 	.byte	0
000002f8 01             4052 	.byte	1
000002f9 06             4053 	.byte	6
000002fa 03             4054 	.byte	3
000002fb 06             4055 	.byte	6
000002fc 02             4056 	.byte	2
000002fd 0a             4057 	.byte	10
000002fe 01             4058 	.byte	1
000002ff 4c             4059 	.byte	76
00000300 000502         4060 	.byte	0,5,2
00000303 00000000*      4061 	.word	.LDWlin11
00000307 0c             4062 	.byte	12
00000308 000502         4063 	.byte	0,5,2
0000030b 00000000*      4064 	.word	.LDWlin12
0000030f 02             4065 	.byte	2
00000310 00             4066 	.byte	0
00000311 0b             4067 	.byte	11
00000312 1b             4068 	.byte	27
00000313 000502         4069 	.byte	0,5,2
00000316 00000000*      4070 	.word	.LDWlin13
0000031a 0b             4071 	.byte	11
0000031b 02             4072 	.byte	2
0000031c 00             4073 	.byte	0
0000031d 0c             4074 	.byte	12
0000031e 13             4075 	.byte	19
0000031f 1c             4076 	.byte	28
00000320 14             4077 	.byte	20
00000321 000502         4078 	.byte	0,5,2
00000324 00000000*      4079 	.word	.LDWlin14
00000328 0b             4080 	.byte	11
00000329 000502         4081 	.byte	0,5,2
0000032c 00000000*      4082 	.word	.LDWlin15
00000330 03             4083 	.byte	3
00000331 04             4084 	.byte	4
00000332 02             4085 	.byte	2
00000333 00             4086 	.byte	0
00000334 01             4087 	.byte	1
00000335 03             4088 	.byte	3
00000336 7e             4089 	.byte	126
00000337 02             4090 	.byte	2

                                                                      Page 72
                                                              C:\Users\nhuliyap\AppData\Local\Temp\gh_00009081.s
00000338 02             4091 	.byte	2
00000339 01             4092 	.byte	1
0000033a 000502         4093 	.byte	0,5,2
0000033d 00000000*      4094 	.word	.LDWlin16
00000341 03             4095 	.byte	3
00000342 05             4096 	.byte	5
00000343 02             4097 	.byte	2
00000344 00             4098 	.byte	0
00000345 01             4099 	.byte	1
00000346 13             4100 	.byte	19
00000347 43             4101 	.byte	67
00000348 02             4102 	.byte	2
00000349 04             4103 	.byte	4
0000034a 000101         4104 	.byte	0,1,1
                        4105 	.section	.debug_info
                        4106 .LDW_4ac5720:
00000733 0f             4107 	.byte	15
00000734 63747800       4108 	.strz	"ctx"
00000738 bb02           4109 	.byte	187,2
0000073a 20             4110 	.byte	32
0000073b 01             4111 	.byte	1
0000073c 00000000*      4112 	.word	.LDW_3fc6a20
00000740 00             4113 	.byte	0
00000741 016d           4114 	.byte	1,109
                        4115 
                        4116 .LDW_4ac5670:
00000743 0f             4117 	.byte	15
00000744 6d6573736167   4118 	.strz	"message"
0000074a 6500 
0000074c bb02           4119 	.byte	187,2
0000074e 3a             4120 	.byte	58
0000074f 01             4121 	.byte	1
00000750 00000000*      4122 	.word	.LDW_3fc69e8
00000754 00             4123 	.byte	0
00000755 0168           4124 	.byte	1,104
                        4125 
                        4126 .LDW_4ac5148:
00000757 0f             4127 	.byte	15
00000758 6c656e00       4128 	.strz	"len"
0000075c bc02           4129 	.byte	188,2
0000075e 21             4130 	.byte	33
0000075f 01             4131 	.byte	1
00000760 00000000*      4132 	.word	.LDW_3fc6c88
00000764 00             4133 	.byte	0
00000765 016c           4134 	.byte	1,108
                        4135 
                        4136 .LDW_4aef708:
00000767 1d             4137 	.byte	29
00000768 00000000*      4138 	.word	.LDW41
0000076c 00000000*      4139 	.word	.LDW51
                        4140 
                        4141 .LDW_4ac5250:
00000770 04             4142 	.byte	4
00000771 626c6f636b5f   4143 	.strz	"block_nb"
00000777 6e6200 
0000077a be02           4144 	.byte	190,2
0000077c 12             4145 	.byte	18
0000077d 01             4146 	.byte	1
0000077e 00000000*      4147 	.word	.LDW_3fc6c88
00000782 00             4148 	.byte	0
00000783 00             4149 	.byte	0

                                                                      Page 73
                                                              C:\Users\nhuliyap\AppData\Local\Temp\gh_00009081.s
00000784 016b           4150 	.byte	1,107
                        4151 
                        4152 .LDW_4ac5358:
00000786 05             4153 	.byte	5
00000787 6e65775f6c65   4154 	.strz	"new_len"
0000078d 6e00 
0000078f bf02           4155 	.byte	191,2
00000791 12             4156 	.byte	18
00000792 01             4157 	.byte	1
00000793 00000000*      4158 	.word	.LDW_3fc6c88
00000797 00             4159 	.byte	0
00000798 00             4160 	.byte	0
                        4161 
                        4162 .LDW_4ac59e0:
00000799 04             4163 	.byte	4
0000079a 72656d5f6c65   4164 	.strz	"rem_len"
000007a0 6e00 
000007a2 bf02           4165 	.byte	191,2
000007a4 1b             4166 	.byte	27
000007a5 01             4167 	.byte	1
000007a6 00000000*      4168 	.word	.LDW_3fc6c88
000007aa 00             4169 	.byte	0
000007ab 00             4170 	.byte	0
000007ac 016a           4171 	.byte	1,106
                        4172 
                        4173 .LDW_4ac5a38:
000007ae 05             4174 	.byte	5
000007af 746d705f6c65   4175 	.strz	"tmp_len"
000007b5 6e00 
000007b7 bf02           4176 	.byte	191,2
000007b9 24             4177 	.byte	36
000007ba 01             4178 	.byte	1
000007bb 00000000*      4179 	.word	.LDW_3fc6c88
000007bf 00             4180 	.byte	0
000007c0 00             4181 	.byte	0
                        4182 
                        4183 .LDW_4ac5880:
000007c1 04             4184 	.byte	4
000007c2 736869667465   4185 	.strz	"shifted_message"
000007c8 645f6d657373 
000007ce 61676500 
000007d2 c002           4186 	.byte	192,2
000007d4 1a             4187 	.byte	26
000007d5 01             4188 	.byte	1
000007d6 00000000*      4189 	.word	.LDW_3fc69e8
000007da 00             4190 	.byte	0
000007db 00             4191 	.byte	0
000007dc 0169           4192 	.byte	1,105
                        4193 
000007de 00             4194 	.byte	0
                        4195 
000007df 00             4196 	.byte	0
                        4197 
                        4198 .LDW_4b2ecc0:
000007e0 13             4199 	.byte	19
000007e1 736861323536   4200 	.strz	"sha256_final"
000007e7 5f66696e616c 
000007ed 00 
000007ee dd02           4201 	.byte	221,2
000007f0 06             4202 	.byte	6
000007f1 01             4203 	.byte	1

                                                                      Page 74
                                                              C:\Users\nhuliyap\AppData\Local\Temp\gh_00009081.s
000007f2 00000000*      4204 	.word	_sha256_final
000007f6 00000000*      4205 	.word	___ghs_eofn_sha256_final
000007fa 0153           4206 	.byte	1,83
000007fc 828080f80b     4207 	.byte	130,128,128,248,11
00000801 1c             4208 	.byte	28
00000802 03             4209 	.byte	3
00000803 1c             4210 	.byte	28
00000804 00             4211 	.byte	0
00000805 00             4212 	.byte	0
00000806 00             4213 	.byte	0
00000807 01             4214 	.byte	1
00000808 01             4215 	.byte	1
00000809 00             4216 	.byte	0
0000080a 01             4217 	.byte	1
                        4218 
                        4219 	.section	.debug_frame
                        4220 .LDW_4c4c518:
00000118 00000000*      4221 	.word	.LDW_unq_c-.LDW_unq_b
                        4222 .LDW_unq_b:
0000011c 00000000*      4223 	.word	.LDW_4b0a048
00000120 00000000*      4224 	.word	_sha256_final
00000124 00000000*      4225 	.word	___ghs_eofn_sha256_final-_sha256_final
00000128 44             4226 	.byte	68
00000129 9f             4227 	.byte	159
0000012a 00             4228 	.byte	0
0000012b 40             4229 	.byte	64
0000012c 9d             4230 	.byte	157
0000012d 04             4231 	.byte	4
0000012e 40             4232 	.byte	64
0000012f 9c             4233 	.byte	156
00000130 08             4234 	.byte	8
00000131 40             4235 	.byte	64
00000132 9b             4236 	.byte	155
00000133 0c             4237 	.byte	12
00000134 40             4238 	.byte	64
00000135 9a             4239 	.byte	154
00000136 10             4240 	.byte	16
00000137 40             4241 	.byte	64
00000138 99             4242 	.byte	153
00000139 14             4243 	.byte	20
0000013a 40             4244 	.byte	64
0000013b 98             4245 	.byte	152
0000013c 18             4246 	.byte	24
0000013d 01             4247 	.byte	1
0000013e 00000000*      4248 	.word	.LDW71
00000142 00             4249 	.byte	0
00000143 00             4250 	.byte	0
                        4251 .LDW_unq_c:
                        4252 	.section	.debug_line
0000034d 000502         4253 	.byte	0,5,2
00000350 00000000*      4254 	.word	_sha256_final
00000354 03             4255 	.byte	3
00000355 dd02           4256 	.byte	221,2
00000357 02             4257 	.byte	2
00000358 00             4258 	.byte	0
00000359 01             4259 	.byte	1
0000035a 06             4260 	.byte	6
0000035b 03             4261 	.byte	3
0000035c 09             4262 	.byte	9
0000035d 02             4263 	.byte	2
0000035e 08             4264 	.byte	8

                                                                      Page 75
                                                              C:\Users\nhuliyap\AppData\Local\Temp\gh_00009081.s
0000035f 01             4265 	.byte	1
00000360 1d             4266 	.byte	29
00000361 53             4267 	.byte	83
00000362 1c             4268 	.byte	28
00000363 000502         4269 	.byte	0,5,2
00000366 00000000*      4270 	.word	.LDWlin17
0000036a 0b             4271 	.byte	11
0000036b 2b             4272 	.byte	43
0000036c 84             4273 	.byte	132
0000036d 000502         4274 	.byte	0,5,2
00000370 00000000*      4275 	.word	.LDWlin18
00000374 0d             4276 	.byte	13
00000375 02             4277 	.byte	2
00000376 02             4278 	.byte	2
00000377 0b             4279 	.byte	11
00000378 03             4280 	.byte	3
00000379 7f             4281 	.byte	127
0000037a 02             4282 	.byte	2
0000037b 0e             4283 	.byte	14
0000037c 01             4284 	.byte	1
0000037d 000502         4285 	.byte	0,5,2
00000380 00000000*      4286 	.word	.LDWlin19
00000384 0c             4287 	.byte	12
00000385 03             4288 	.byte	3
00000386 0b             4289 	.byte	11
00000387 02             4290 	.byte	2
00000388 00             4291 	.byte	0
00000389 01             4292 	.byte	1
0000038a 02             4293 	.byte	2
0000038b 04             4294 	.byte	4
0000038c 000101         4295 	.byte	0,1,1
                        4296 	.section	.debug_info
                        4297 .LDW_4ac53b0:
0000080b 0f             4298 	.byte	15
0000080c 63747800       4299 	.strz	"ctx"
00000810 dd02           4300 	.byte	221,2
00000812 1f             4301 	.byte	31
00000813 01             4302 	.byte	1
00000814 00000000*      4303 	.word	.LDW_3fc6a20
00000818 00             4304 	.byte	0
00000819 016b           4305 	.byte	1,107
                        4306 
                        4307 .LDW_4ac5568:
0000081b 0f             4308 	.byte	15
0000081c 646967657374   4309 	.strz	"digest"
00000822 00 
00000823 dd02           4310 	.byte	221,2
00000825 33             4311 	.byte	51
00000826 01             4312 	.byte	1
00000827 00000000*      4313 	.word	.LDW_3fc6b38
0000082b 00             4314 	.byte	0
0000082c 0168           4315 	.byte	1,104
                        4316 
                        4317 .LDW_4b2fbf8:
0000082e 1d             4318 	.byte	29
0000082f 00000000*      4319 	.word	.LDW61
00000833 00000000*      4320 	.word	.LDW71
                        4321 
                        4322 .LDW_4ac5778:
00000837 04             4323 	.byte	4
00000838 626c6f636b5f   4324 	.strz	"block_nb"

                                                                      Page 76
                                                              C:\Users\nhuliyap\AppData\Local\Temp\gh_00009081.s
0000083e 6e6200 
00000841 df02           4325 	.byte	223,2
00000843 12             4326 	.byte	18
00000844 01             4327 	.byte	1
00000845 00000000*      4328 	.word	.LDW_3fc6c88
00000849 00             4329 	.byte	0
0000084a 00             4330 	.byte	0
0000084b 0169           4331 	.byte	1,105
                        4332 
                        4333 .LDW_4ac52a8:
0000084d 05             4334 	.byte	5
0000084e 706d5f6c656e   4335 	.strz	"pm_len"
00000854 00 
00000855 e002           4336 	.byte	224,2
00000857 12             4337 	.byte	18
00000858 01             4338 	.byte	1
00000859 00000000*      4339 	.word	.LDW_3fc6c88
0000085d 00             4340 	.byte	0
0000085e 00             4341 	.byte	0
                        4342 
                        4343 .LDW_4ac57d0:
0000085f 04             4344 	.byte	4
00000860 6c656e5f6200   4345 	.strz	"len_b"
00000866 e102           4346 	.byte	225,2
00000868 12             4347 	.byte	18
00000869 01             4348 	.byte	1
0000086a 00000000*      4349 	.word	.LDW_3fc6c88
0000086e 00             4350 	.byte	0
0000086f 00             4351 	.byte	0
00000870 016d           4352 	.byte	1,109
                        4353 
                        4354 .LDW_4ac5040:
00000872 04             4355 	.byte	4
00000873 6900           4356 	.strz	"i"
00000875 e402           4357 	.byte	228,2
00000877 09             4358 	.byte	9
00000878 01             4359 	.byte	1
00000879 00000000*      4360 	.word	.LDW_3fc6c50
0000087d 00             4361 	.byte	0
0000087e 00             4362 	.byte	0
0000087f 0161           4363 	.byte	1,97
                        4364 
00000881 00             4365 	.byte	0
                        4366 
00000882 00             4367 	.byte	0
                        4368 
                        4369 .LDW_400d158:
00000883 13             4370 	.byte	19
00000884 736861353132   4371 	.strz	"sha512_transf"
0000088a 5f7472616e73 
00000890 6600 
00000892 8303           4372 	.byte	131,3
00000894 06             4373 	.byte	6
00000895 01             4374 	.byte	1
00000896 00000000*      4375 	.word	_sha512_transf
0000089a 00000000*      4376 	.word	___ghs_eofn_sha512_transf
0000089e 0153           4377 	.byte	1,83
000008a0 8280c0ff0b     4378 	.byte	130,128,192,255,11
000008a5 2c             4379 	.byte	44
000008a6 03             4380 	.byte	3
000008a7 fc05           4381 	.byte	252,5

                                                                      Page 77
                                                              C:\Users\nhuliyap\AppData\Local\Temp\gh_00009081.s
000008a9 00             4382 	.byte	0
000008aa 00             4383 	.byte	0
000008ab 00             4384 	.byte	0
000008ac 01             4385 	.byte	1
000008ad 01             4386 	.byte	1
000008ae 00             4387 	.byte	0
000008af 01             4388 	.byte	1
                        4389 
                        4390 	.section	.debug_frame
                        4391 .LDW_4c4c618:
00000144 00000000*      4392 	.word	.LDW_unq_e-.LDW_unq_d
                        4393 .LDW_unq_d:
00000148 00000000*      4394 	.word	.LDW_4b0a048
0000014c 00000000*      4395 	.word	_sha512_transf
00000150 00000000*      4396 	.word	___ghs_eofn_sha512_transf-_sha512_transf
00000154 44             4397 	.byte	68
00000155 9f             4398 	.byte	159
00000156 5d             4399 	.byte	93
00000157 40             4400 	.byte	64
00000158 9d             4401 	.byte	157
00000159 61             4402 	.byte	97
0000015a 40             4403 	.byte	64
0000015b 9c             4404 	.byte	156
0000015c 65             4405 	.byte	101
0000015d 40             4406 	.byte	64
0000015e 9b             4407 	.byte	155
0000015f 69             4408 	.byte	105
00000160 40             4409 	.byte	64
00000161 9a             4410 	.byte	154
00000162 6d             4411 	.byte	109
00000163 40             4412 	.byte	64
00000164 99             4413 	.byte	153
00000165 71             4414 	.byte	113
00000166 40             4415 	.byte	64
00000167 98             4416 	.byte	152
00000168 75             4417 	.byte	117
00000169 40             4418 	.byte	64
0000016a 97             4419 	.byte	151
0000016b 79             4420 	.byte	121
0000016c 40             4421 	.byte	64
0000016d 96             4422 	.byte	150
0000016e 7d             4423 	.byte	125
0000016f 40             4424 	.byte	64
00000170 95             4425 	.byte	149
00000171 8101           4426 	.byte	129,1
00000173 40             4427 	.byte	64
00000174 94             4428 	.byte	148
00000175 8501           4429 	.byte	133,1
00000177 01             4430 	.byte	1
00000178 00000000*      4431 	.word	.LDW12
                        4432 .LDW_unq_e:
                        4433 	.section	.debug_line
0000038f 000502         4434 	.byte	0,5,2
00000392 00000000*      4435 	.word	_sha512_transf
00000396 03             4436 	.byte	3
00000397 8403           4437 	.byte	132,3
00000399 02             4438 	.byte	2
0000039a 00             4439 	.byte	0
0000039b 01             4440 	.byte	1
0000039c 06             4441 	.byte	6
0000039d 03             4442 	.byte	3

                                                                      Page 78
                                                              C:\Users\nhuliyap\AppData\Local\Temp\gh_00009081.s
0000039e 07             4443 	.byte	7
0000039f 02             4444 	.byte	2
000003a0 10             4445 	.byte	16
000003a1 01             4446 	.byte	1
000003a2 02             4447 	.byte	2
000003a3 02             4448 	.byte	2
000003a4 000502         4449 	.byte	0,5,2
000003a7 00000000*      4450 	.word	.LDWlin23
000003ab 0b             4451 	.byte	11
000003ac 2d             4452 	.byte	45
000003ad 02             4453 	.byte	2
000003ae 04             4454 	.byte	4
000003af 0b             4455 	.byte	11
000003b0 03             4456 	.byte	3
000003b1 7f             4457 	.byte	127
000003b2 02             4458 	.byte	2
000003b3 34             4459 	.byte	52
000003b4 01             4460 	.byte	1
000003b5 000502         4461 	.byte	0,5,2
000003b8 00000000*      4462 	.word	.LDWlin24
000003bc 0c             4463 	.byte	12
000003bd 0c             4464 	.byte	12
000003be 02             4465 	.byte	2
000003bf 04             4466 	.byte	4
000003c0 0b             4467 	.byte	11
000003c1 000502         4468 	.byte	0,5,2
000003c4 00000000*      4469 	.word	.LDWlin25
000003c8 03             4470 	.byte	3
000003c9 7f             4471 	.byte	127
000003ca 02             4472 	.byte	2
000003cb 00             4473 	.byte	0
000003cc 01             4474 	.byte	1
000003cd 000502         4475 	.byte	0,5,2
000003d0 00000000*      4476 	.word	.LDWlin26
000003d4 0c             4477 	.byte	12
000003d5 0c             4478 	.byte	12
000003d6 02             4479 	.byte	2
000003d7 02             4480 	.byte	2
000003d8 0b             4481 	.byte	11
000003d9 000502         4482 	.byte	0,5,2
000003dc 00000000*      4483 	.word	.LDWlin27
000003e0 03             4484 	.byte	3
000003e1 7f             4485 	.byte	127
000003e2 02             4486 	.byte	2
000003e3 00             4487 	.byte	0
000003e4 01             4488 	.byte	1
000003e5 000502         4489 	.byte	0,5,2
000003e8 00000000*      4490 	.word	.LDWlin28
000003ec 0c             4491 	.byte	12
000003ed 0c             4492 	.byte	12
000003ee 02             4493 	.byte	2
000003ef 02             4494 	.byte	2
000003f0 0b             4495 	.byte	11
000003f1 000502         4496 	.byte	0,5,2
000003f4 00000000*      4497 	.word	.LDWlin29
000003f8 0c             4498 	.byte	12
000003f9 000502         4499 	.byte	0,5,2
000003fc 00000000*      4500 	.word	.LDWlin30
00000400 03             4501 	.byte	3
00000401 04             4502 	.byte	4
00000402 02             4503 	.byte	2

                                                                      Page 79
                                                              C:\Users\nhuliyap\AppData\Local\Temp\gh_00009081.s
00000403 00             4504 	.byte	0
00000404 01             4505 	.byte	1
00000405 000502         4506 	.byte	0,5,2
00000408 00000000*      4507 	.word	.LDWlin31
0000040c 03             4508 	.byte	3
0000040d 04             4509 	.byte	4
0000040e 02             4510 	.byte	2
0000040f 00             4511 	.byte	0
00000410 01             4512 	.byte	1
00000411 03             4513 	.byte	3
00000412 75             4514 	.byte	117
00000413 02             4515 	.byte	2
00000414 08             4516 	.byte	8
00000415 01             4517 	.byte	1
00000416 03             4518 	.byte	3
00000417 04             4519 	.byte	4
00000418 02             4520 	.byte	2
00000419 02             4521 	.byte	2
0000041a 01             4522 	.byte	1
0000041b 000502         4523 	.byte	0,5,2
0000041e 00000000*      4524 	.word	.LDWlin32
00000422 0b             4525 	.byte	11
00000423 000502         4526 	.byte	0,5,2
00000426 00000000*      4527 	.word	.LDWlin33
0000042a 0b             4528 	.byte	11
0000042b 000502         4529 	.byte	0,5,2
0000042e 00000000*      4530 	.word	.LDWlin34
00000432 0c             4531 	.byte	12
00000433 000502         4532 	.byte	0,5,2
00000436 00000000*      4533 	.word	.LDWlin35
0000043a 0b             4534 	.byte	11
0000043b 000502         4535 	.byte	0,5,2
0000043e 00000000*      4536 	.word	.LDWlin36
00000442 0b             4537 	.byte	11
00000443 000502         4538 	.byte	0,5,2
00000446 00000000*      4539 	.word	.LDWlin37
0000044a 0c             4540 	.byte	12
0000044b 0c             4541 	.byte	12
0000044c 02             4542 	.byte	2
0000044d 02             4543 	.byte	2
0000044e 0b             4544 	.byte	11
0000044f 000502         4545 	.byte	0,5,2
00000452 00000000*      4546 	.word	.LDWlin38
00000456 03             4547 	.byte	3
00000457 7f             4548 	.byte	127
00000458 02             4549 	.byte	2
00000459 00             4550 	.byte	0
0000045a 01             4551 	.byte	1
0000045b 000502         4552 	.byte	0,5,2
0000045e 00000000*      4553 	.word	.LDWlin39
00000462 0c             4554 	.byte	12
00000463 03             4555 	.byte	3
00000464 60             4556 	.byte	96
00000465 02             4557 	.byte	2
00000466 00             4558 	.byte	0
00000467 01             4559 	.byte	1
00000468 000502         4560 	.byte	0,5,2
0000046b 00000000*      4561 	.word	.LDWlin40
0000046f 03             4562 	.byte	3
00000470 d300           4563 	.byte	211,0
00000472 02             4564 	.byte	2

                                                                      Page 80
                                                              C:\Users\nhuliyap\AppData\Local\Temp\gh_00009081.s
00000473 00             4565 	.byte	0
00000474 01             4566 	.byte	1
00000475 0b             4567 	.byte	11
00000476 02             4568 	.byte	2
00000477 08             4569 	.byte	8
00000478 000101         4570 	.byte	0,1,1
                        4571 	.section	.debug_info
                        4572 .LDW_4ac4fe8:
000008b0 0f             4573 	.byte	15
000008b1 63747800       4574 	.strz	"ctx"
000008b5 8303           4575 	.byte	131,3
000008b7 20             4576 	.byte	32
000008b8 01             4577 	.byte	1
000008b9 00000000*      4578 	.word	.LDW_3fc7120
000008bd 00             4579 	.byte	0
000008be 0168           4580 	.byte	1,104
                        4581 
                        4582 .LDW_4ac5510:
000008c0 0f             4583 	.byte	15
000008c1 6d6573736167   4584 	.strz	"message"
000008c7 6500 
000008c9 8303           4585 	.byte	131,3
000008cb 3a             4586 	.byte	58
000008cc 01             4587 	.byte	1
000008cd 00000000*      4588 	.word	.LDW_3fc69e8
000008d1 00             4589 	.byte	0
000008d2 0273           4590 	.byte	2,115
000008d4 00             4591 	.byte	0
                        4592 
                        4593 .LDW_4ac58d8:
000008d5 0f             4594 	.byte	15
000008d6 626c6f636b5f   4595 	.strz	"block_nb"
000008dc 6e6200 
000008df 8403           4596 	.byte	132,3
000008e1 21             4597 	.byte	33
000008e2 01             4598 	.byte	1
000008e3 00000000*      4599 	.word	.LDW_3fc6c88
000008e7 00             4600 	.byte	0
000008e8 0273           4601 	.byte	2,115
000008ea 04             4602 	.byte	4
                        4603 
                        4604 .LDW_4b2fad8:
000008eb 1d             4605 	.byte	29
000008ec 00000000*      4606 	.word	.LDW02
000008f0 00000000*      4607 	.word	.LDW12
                        4608 
                        4609 .LDW_4ac56c8:
000008f4 04             4610 	.byte	4
000008f5 7700           4611 	.strz	"w"
000008f7 8603           4612 	.byte	134,3
000008f9 0c             4613 	.byte	12
000008fa 01             4614 	.byte	1
000008fb 00000000*      4615 	.word	.LDW_400d9f8
000008ff 00             4616 	.byte	0
00000900 00             4617 	.byte	0
00000901 0373           4618 	.byte	3,115
00000903 d000           4619 	.byte	208,0
                        4620 
                        4621 .LDW_4ac5098:
00000905 04             4622 	.byte	4
00000906 777600         4623 	.strz	"wv"

                                                                      Page 81
                                                              C:\Users\nhuliyap\AppData\Local\Temp\gh_00009081.s
00000909 8703           4624 	.byte	135,3
0000090b 0c             4625 	.byte	12
0000090c 01             4626 	.byte	1
0000090d 00000000*      4627 	.word	.LDW_400da80
00000911 00             4628 	.byte	0
00000912 00             4629 	.byte	0
00000913 0273           4630 	.byte	2,115
00000915 10             4631 	.byte	16
                        4632 
                        4633 .LDW_4ac51a0:
00000916 04             4634 	.byte	4
00000917 743100         4635 	.strz	"t1"
0000091a 8803           4636 	.byte	136,3
0000091c 0c             4637 	.byte	12
0000091d 01             4638 	.byte	1
0000091e 00000000*      4639 	.word	.LDW_4ac5460
00000922 00             4640 	.byte	0
00000923 00             4641 	.byte	0
00000924 0160           4642 	.byte	1,96
                        4643 
                        4644 .LDW_4ac5988:
00000926 04             4645 	.byte	4
00000927 743200         4646 	.strz	"t2"
0000092a 8803           4647 	.byte	136,3
0000092c 10             4648 	.byte	16
0000092d 01             4649 	.byte	1
0000092e 00000000*      4650 	.word	.LDW_4ac5460
00000932 00             4651 	.byte	0
00000933 00             4652 	.byte	0
00000934 015e           4653 	.byte	1,94
                        4654 
                        4655 .LDW_4ac5828:
00000936 04             4656 	.byte	4
00000937 7375625f626c   4657 	.strz	"sub_block"
0000093d 6f636b00 
00000941 8903           4658 	.byte	137,3
00000943 1a             4659 	.byte	26
00000944 01             4660 	.byte	1
00000945 00000000*      4661 	.word	.LDW_3fc69e8
00000949 00             4662 	.byte	0
0000094a 00             4663 	.byte	0
0000094b 015f           4664 	.byte	1,95
                        4665 
                        4666 .LDW_4ac5300:
0000094d 04             4667 	.byte	4
0000094e 6900           4668 	.strz	"i"
00000950 8a03           4669 	.byte	138,3
00000952 09             4670 	.byte	9
00000953 01             4671 	.byte	1
00000954 00000000*      4672 	.word	.LDW_3fc6c50
00000958 00             4673 	.byte	0
00000959 00             4674 	.byte	0
0000095a 0169           4675 	.byte	1,105
                        4676 
                        4677 .LDW_4ac50f0:
0000095c 04             4678 	.byte	4
0000095d 6a00           4679 	.strz	"j"
0000095f 8a03           4680 	.byte	138,3
00000961 0c             4681 	.byte	12
00000962 01             4682 	.byte	1
00000963 00000000*      4683 	.word	.LDW_3fc6c50

                                                                      Page 82
                                                              C:\Users\nhuliyap\AppData\Local\Temp\gh_00009081.s
00000967 00             4684 	.byte	0
00000968 00             4685 	.byte	0
00000969 0151           4686 	.byte	1,81
                        4687 
0000096b 00             4688 	.byte	0
                        4689 
0000096c 00             4690 	.byte	0
                        4691 
                        4692 .LDW_400db08:
0000096d 13             4693 	.byte	19
0000096e 736861353132   4694 	.strz	"sha512"
00000974 00 
00000975 e203           4695 	.byte	226,3
00000977 06             4696 	.byte	6
00000978 01             4697 	.byte	1
00000979 00000000*      4698 	.word	_sha512
0000097d 00000000*      4699 	.word	___ghs_eofn_sha512
00000981 0153           4700 	.byte	1,83
00000983 828080c00a     4701 	.byte	130,128,128,192,10
00000988 10             4702 	.byte	16
00000989 03             4703 	.byte	3
0000098a d802           4704 	.byte	216,2
0000098c 00             4705 	.byte	0
0000098d 00             4706 	.byte	0
0000098e 00             4707 	.byte	0
0000098f 01             4708 	.byte	1
00000990 01             4709 	.byte	1
00000991 00             4710 	.byte	0
00000992 01             4711 	.byte	1
                        4712 
                        4713 	.section	.debug_frame
                        4714 .LDW_4d809e8:
0000017c 00000000*      4715 	.word	.LDW_unq_10-.LDW_unq_f
                        4716 .LDW_unq_f:
00000180 00000000*      4717 	.word	.LDW_4b0a048
00000184 00000000*      4718 	.word	_sha512
00000188 00000000*      4719 	.word	___ghs_eofn_sha512-_sha512
0000018c 44             4720 	.byte	68
0000018d 9f             4721 	.byte	159
0000018e 61             4722 	.byte	97
0000018f 40             4723 	.byte	64
00000190 9d             4724 	.byte	157
00000191 65             4725 	.byte	101
00000192 40             4726 	.byte	64
00000193 9b             4727 	.byte	155
00000194 69             4728 	.byte	105
00000195 01             4729 	.byte	1
00000196 00000000*      4730 	.word	.LDW92
0000019a 44             4731 	.byte	68
0000019b df             4732 	.byte	223
0000019c 40             4733 	.byte	64
0000019d dd             4734 	.byte	221
0000019e 40             4735 	.byte	64
0000019f db             4736 	.byte	219
                        4737 .LDW_unq_10:
                        4738 	.section	.debug_line
0000047b 000502         4739 	.byte	0,5,2
0000047e 00000000*      4740 	.word	_sha512
00000482 03             4741 	.byte	3
00000483 e303           4742 	.byte	227,3
00000485 02             4743 	.byte	2

                                                                      Page 83
                                                              C:\Users\nhuliyap\AppData\Local\Temp\gh_00009081.s
00000486 00             4744 	.byte	0
00000487 01             4745 	.byte	1
00000488 06             4746 	.byte	6
00000489 3d             4747 	.byte	61
0000048a 000502         4748 	.byte	0,5,2
0000048d 00000000*      4749 	.word	.LDWlin53
00000491 0b             4750 	.byte	11
00000492 000502         4751 	.byte	0,5,2
00000495 00000000*      4752 	.word	.LDWlin54
00000499 0b             4753 	.byte	11
0000049a 000502         4754 	.byte	0,5,2
0000049d 00000000*      4755 	.word	.LDWlin55
000004a1 0b             4756 	.byte	11
000004a2 02             4757 	.byte	2
000004a3 08             4758 	.byte	8
000004a4 000101         4759 	.byte	0,1,1
                        4760 	.section	.debug_info
                        4761 .LDW_4ac5408:
00000993 0f             4762 	.byte	15
00000994 6d6573736167   4763 	.strz	"message"
0000099a 6500 
0000099c e203           4764 	.byte	226,3
0000099e 22             4765 	.byte	34
0000099f 01             4766 	.byte	1
000009a0 00000000*      4767 	.word	.LDW_3fc69e8
000009a4 00             4768 	.byte	0
000009a5 016d           4769 	.byte	1,109
                        4770 
                        4771 .LDW_4ac55c0:
000009a7 0f             4772 	.byte	15
000009a8 6c656e00       4773 	.strz	"len"
000009ac e203           4774 	.byte	226,3
000009ae 38             4775 	.byte	56
000009af 01             4776 	.byte	1
000009b0 00000000*      4777 	.word	.LDW_3fc6c88
000009b4 00             4778 	.byte	0
000009b5 016c           4779 	.byte	1,108
                        4780 
                        4781 .LDW_4ac5618:
000009b7 0f             4782 	.byte	15
000009b8 646967657374   4783 	.strz	"digest"
000009be 00 
000009bf e303           4784 	.byte	227,3
000009c1 1c             4785 	.byte	28
000009c2 01             4786 	.byte	1
000009c3 00000000*      4787 	.word	.LDW_3fc6b38
000009c7 00             4788 	.byte	0
000009c8 016b           4789 	.byte	1,107
                        4790 
                        4791 .LDW_4b2fb08:
000009ca 1d             4792 	.byte	29
000009cb 00000000*      4793 	.word	.LDW82
000009cf 00000000*      4794 	.word	.LDW92
                        4795 
                        4796 .LDW_4ac5d50:
000009d3 04             4797 	.byte	4
000009d4 63747800       4798 	.strz	"ctx"
000009d8 e503           4799 	.byte	229,3
000009da 10             4800 	.byte	16
000009db 01             4801 	.byte	1
000009dc 00000000*      4802 	.word	.LDW_4ac5930

                                                                      Page 84
                                                              C:\Users\nhuliyap\AppData\Local\Temp\gh_00009081.s
000009e0 00             4803 	.byte	0
000009e1 00             4804 	.byte	0
000009e2 0273           4805 	.byte	2,115
000009e4 00             4806 	.byte	0
                        4807 
000009e5 00             4808 	.byte	0
                        4809 
000009e6 00             4810 	.byte	0
                        4811 
                        4812 .LDW_4b42550:
000009e7 13             4813 	.byte	19
000009e8 736861353132   4814 	.strz	"sha512_init"
000009ee 5f696e697400 
000009f4 ec03           4815 	.byte	236,3
000009f6 06             4816 	.byte	6
000009f7 01             4817 	.byte	1
000009f8 00000000*      4818 	.word	_sha512_init
000009fc 00000000*      4819 	.word	___ghs_eofn_sha512_init
00000a00 0153           4820 	.byte	1,83
00000a02 02             4821 	.byte	2
00000a03 00             4822 	.byte	0
00000a04 02             4823 	.byte	2
00000a05 00             4824 	.byte	0
00000a06 00             4825 	.byte	0
00000a07 00             4826 	.byte	0
00000a08 00             4827 	.byte	0
00000a09 01             4828 	.byte	1
00000a0a 01             4829 	.byte	1
00000a0b 00             4830 	.byte	0
00000a0c 01             4831 	.byte	1
                        4832 
                        4833 	.section	.debug_frame
                        4834 .LDW_4c4ca98:
000001a0 00000000*      4835 	.word	.LDW_unq_12-.LDW_unq_11
                        4836 .LDW_unq_11:
000001a4 00000000*      4837 	.word	.LDW_4b0a048
000001a8 00000000*      4838 	.word	_sha512_init
000001ac 00000000*      4839 	.word	___ghs_eofn_sha512_init-_sha512_init
000001b0 01             4840 	.byte	1
000001b1 00000000*      4841 	.word	.LDW32
000001b5 00             4842 	.byte	0
000001b6 00             4843 	.byte	0
000001b7 00             4844 	.byte	0
                        4845 .LDW_unq_12:
                        4846 	.section	.debug_line
000004a7 000502         4847 	.byte	0,5,2
000004aa 00000000*      4848 	.word	_sha512_init
000004ae 03             4849 	.byte	3
000004af ec03           4850 	.byte	236,3
000004b1 02             4851 	.byte	2
000004b2 00             4852 	.byte	0
000004b3 01             4853 	.byte	1
000004b4 06             4854 	.byte	6
000004b5 15             4855 	.byte	21
000004b6 02             4856 	.byte	2
000004b7 02             4857 	.byte	2
000004b8 0b             4858 	.byte	11
000004b9 000502         4859 	.byte	0,5,2
000004bc 00000000*      4860 	.word	.LDWlin41
000004c0 03             4861 	.byte	3
000004c1 7f             4862 	.byte	127

                                                                      Page 85
                                                              C:\Users\nhuliyap\AppData\Local\Temp\gh_00009081.s
000004c2 02             4863 	.byte	2
000004c3 00             4864 	.byte	0
000004c4 01             4865 	.byte	1
000004c5 000502         4866 	.byte	0,5,2
000004c8 00000000*      4867 	.word	.LDWlin42
000004cc 0c             4868 	.byte	12
000004cd 03             4869 	.byte	3
000004ce 08             4870 	.byte	8
000004cf 02             4871 	.byte	2
000004d0 00             4872 	.byte	0
000004d1 01             4873 	.byte	1
000004d2 13             4874 	.byte	19
000004d3 13             4875 	.byte	19
000004d4 02             4876 	.byte	2
000004d5 02             4877 	.byte	2
000004d6 000101         4878 	.byte	0,1,1
                        4879 	.section	.debug_info
                        4880 .LDW_4ac5f60:
00000a0d 0f             4881 	.byte	15
00000a0e 63747800       4882 	.strz	"ctx"
00000a12 ec03           4883 	.byte	236,3
00000a14 1e             4884 	.byte	30
00000a15 01             4885 	.byte	1
00000a16 00000000*      4886 	.word	.LDW_3fc7120
00000a1a 00             4887 	.byte	0
00000a1b 016e           4888 	.byte	1,110
                        4889 
                        4890 .LDW_4b2fbc8:
00000a1d 1d             4891 	.byte	29
00000a1e 00000000*      4892 	.word	.LDW22
00000a22 00000000*      4893 	.word	.LDW32
                        4894 
                        4895 .LDW_4ac5e58:
00000a26 04             4896 	.byte	4
00000a27 6900           4897 	.strz	"i"
00000a29 ef03           4898 	.byte	239,3
00000a2b 09             4899 	.byte	9
00000a2c 01             4900 	.byte	1
00000a2d 00000000*      4901 	.word	.LDW_3fc6c50
00000a31 00             4902 	.byte	0
00000a32 00             4903 	.byte	0
00000a33 0161           4904 	.byte	1,97
                        4905 
00000a35 00             4906 	.byte	0
                        4907 
00000a36 00             4908 	.byte	0
                        4909 
                        4910 .LDW_4b427b0:
00000a37 13             4911 	.byte	19
00000a38 736861353132   4912 	.strz	"sha512_update"
00000a3e 5f7570646174 
00000a44 6500 
00000a46 fe03           4913 	.byte	254,3
00000a48 06             4914 	.byte	6
00000a49 01             4915 	.byte	1
00000a4a 00000000*      4916 	.word	_sha512_update
00000a4e 00000000*      4917 	.word	___ghs_eofn_sha512_update
00000a52 0153           4918 	.byte	1,83
00000a54 828080f80b     4919 	.byte	130,128,128,248,11
00000a59 1c             4920 	.byte	28
00000a5a 03             4921 	.byte	3

                                                                      Page 86
                                                              C:\Users\nhuliyap\AppData\Local\Temp\gh_00009081.s
00000a5b 1c             4922 	.byte	28
00000a5c 00             4923 	.byte	0
00000a5d 00             4924 	.byte	0
00000a5e 00             4925 	.byte	0
00000a5f 01             4926 	.byte	1
00000a60 01             4927 	.byte	1
00000a61 00             4928 	.byte	0
00000a62 01             4929 	.byte	1
                        4930 
                        4931 	.section	.debug_frame
                        4932 .LDW_4c4cb58:
000001b8 00000000*      4933 	.word	.LDW_unq_14-.LDW_unq_13
                        4934 .LDW_unq_13:
000001bc 00000000*      4935 	.word	.LDW_4b0a048
000001c0 00000000*      4936 	.word	_sha512_update
000001c4 00000000*      4937 	.word	___ghs_eofn_sha512_update-_sha512_update
000001c8 44             4938 	.byte	68
000001c9 9f             4939 	.byte	159
000001ca 00             4940 	.byte	0
000001cb 40             4941 	.byte	64
000001cc 9d             4942 	.byte	157
000001cd 04             4943 	.byte	4
000001ce 40             4944 	.byte	64
000001cf 9c             4945 	.byte	156
000001d0 08             4946 	.byte	8
000001d1 40             4947 	.byte	64
000001d2 9b             4948 	.byte	155
000001d3 0c             4949 	.byte	12
000001d4 40             4950 	.byte	64
000001d5 9a             4951 	.byte	154
000001d6 10             4952 	.byte	16
000001d7 40             4953 	.byte	64
000001d8 99             4954 	.byte	153
000001d9 14             4955 	.byte	20
000001da 40             4956 	.byte	64
000001db 98             4957 	.byte	152
000001dc 18             4958 	.byte	24
000001dd 01             4959 	.byte	1
000001de 00000000*      4960 	.word	.LDW52
000001e2 00             4961 	.byte	0
000001e3 00             4962 	.byte	0
                        4963 .LDW_unq_14:
                        4964 	.section	.debug_line
000004d9 000502         4965 	.byte	0,5,2
000004dc 00000000*      4966 	.word	_sha512_update
000004e0 03             4967 	.byte	3
000004e1 ff03           4968 	.byte	255,3
000004e3 02             4969 	.byte	2
000004e4 00             4970 	.byte	0
000004e5 01             4971 	.byte	1
000004e6 06             4972 	.byte	6
000004e7 03             4973 	.byte	3
000004e8 06             4974 	.byte	6
000004e9 02             4975 	.byte	2
000004ea 0a             4976 	.byte	10
000004eb 01             4977 	.byte	1
000004ec 4c             4978 	.byte	76
000004ed 000502         4979 	.byte	0,5,2
000004f0 00000000*      4980 	.word	.LDWlin43
000004f4 0c             4981 	.byte	12
000004f5 000502         4982 	.byte	0,5,2

                                                                      Page 87
                                                              C:\Users\nhuliyap\AppData\Local\Temp\gh_00009081.s
000004f8 00000000*      4983 	.word	.LDWlin44
000004fc 02             4984 	.byte	2
000004fd 00             4985 	.byte	0
000004fe 0b             4986 	.byte	11
000004ff 1b             4987 	.byte	27
00000500 000502         4988 	.byte	0,5,2
00000503 00000000*      4989 	.word	.LDWlin45
00000507 0b             4990 	.byte	11
00000508 02             4991 	.byte	2
00000509 00             4992 	.byte	0
0000050a 0c             4993 	.byte	12
0000050b 13             4994 	.byte	19
0000050c 1c             4995 	.byte	28
0000050d 14             4996 	.byte	20
0000050e 000502         4997 	.byte	0,5,2
00000511 00000000*      4998 	.word	.LDWlin46
00000515 0b             4999 	.byte	11
00000516 000502         5000 	.byte	0,5,2
00000519 00000000*      5001 	.word	.LDWlin47
0000051d 03             5002 	.byte	3
0000051e 04             5003 	.byte	4
0000051f 02             5004 	.byte	2
00000520 00             5005 	.byte	0
00000521 01             5006 	.byte	1
00000522 03             5007 	.byte	3
00000523 7e             5008 	.byte	126
00000524 02             5009 	.byte	2
00000525 02             5010 	.byte	2
00000526 01             5011 	.byte	1
00000527 000502         5012 	.byte	0,5,2
0000052a 00000000*      5013 	.word	.LDWlin48
0000052e 03             5014 	.byte	3
0000052f 05             5015 	.byte	5
00000530 02             5016 	.byte	2
00000531 00             5017 	.byte	0
00000532 01             5018 	.byte	1
00000533 13             5019 	.byte	19
00000534 43             5020 	.byte	67
00000535 02             5021 	.byte	2
00000536 04             5022 	.byte	4
00000537 000101         5023 	.byte	0,1,1
                        5024 	.section	.debug_info
                        5025 .LDW_4ac5e00:
00000a63 0f             5026 	.byte	15
00000a64 63747800       5027 	.strz	"ctx"
00000a68 fe03           5028 	.byte	254,3
00000a6a 20             5029 	.byte	32
00000a6b 01             5030 	.byte	1
00000a6c 00000000*      5031 	.word	.LDW_3fc7120
00000a70 00             5032 	.byte	0
00000a71 016d           5033 	.byte	1,109
                        5034 
                        5035 .LDW_4ac5bf0:
00000a73 0f             5036 	.byte	15
00000a74 6d6573736167   5037 	.strz	"message"
00000a7a 6500 
00000a7c fe03           5038 	.byte	254,3
00000a7e 3a             5039 	.byte	58
00000a7f 01             5040 	.byte	1
00000a80 00000000*      5041 	.word	.LDW_3fc69e8
00000a84 00             5042 	.byte	0

                                                                      Page 88
                                                              C:\Users\nhuliyap\AppData\Local\Temp\gh_00009081.s
00000a85 0168           5043 	.byte	1,104
                        5044 
                        5045 .LDW_4ac5cf8:
00000a87 0f             5046 	.byte	15
00000a88 6c656e00       5047 	.strz	"len"
00000a8c ff03           5048 	.byte	255,3
00000a8e 21             5049 	.byte	33
00000a8f 01             5050 	.byte	1
00000a90 00000000*      5051 	.word	.LDW_3fc6c88
00000a94 00             5052 	.byte	0
00000a95 016c           5053 	.byte	1,108
                        5054 
                        5055 .LDW_4b2fce8:
00000a97 1d             5056 	.byte	29
00000a98 00000000*      5057 	.word	.LDW42
00000a9c 00000000*      5058 	.word	.LDW52
                        5059 
                        5060 .LDW_4ac5da8:
00000aa0 04             5061 	.byte	4
00000aa1 626c6f636b5f   5062 	.strz	"block_nb"
00000aa7 6e6200 
00000aaa 8104           5063 	.byte	129,4
00000aac 12             5064 	.byte	18
00000aad 01             5065 	.byte	1
00000aae 00000000*      5066 	.word	.LDW_3fc6c88
00000ab2 00             5067 	.byte	0
00000ab3 00             5068 	.byte	0
00000ab4 016b           5069 	.byte	1,107
                        5070 
                        5071 .LDW_4ac5eb0:
00000ab6 05             5072 	.byte	5
00000ab7 6e65775f6c65   5073 	.strz	"new_len"
00000abd 6e00 
00000abf 8204           5074 	.byte	130,4
00000ac1 12             5075 	.byte	18
00000ac2 01             5076 	.byte	1
00000ac3 00000000*      5077 	.word	.LDW_3fc6c88
00000ac7 00             5078 	.byte	0
00000ac8 00             5079 	.byte	0
                        5080 
                        5081 .LDW_4ac5c48:
00000ac9 04             5082 	.byte	4
00000aca 72656d5f6c65   5083 	.strz	"rem_len"
00000ad0 6e00 
00000ad2 8204           5084 	.byte	130,4
00000ad4 1b             5085 	.byte	27
00000ad5 01             5086 	.byte	1
00000ad6 00000000*      5087 	.word	.LDW_3fc6c88
00000ada 00             5088 	.byte	0
00000adb 00             5089 	.byte	0
00000adc 016a           5090 	.byte	1,106
                        5091 
                        5092 .LDW_4ac5f08:
00000ade 05             5093 	.byte	5
00000adf 746d705f6c65   5094 	.strz	"tmp_len"
00000ae5 6e00 
00000ae7 8204           5095 	.byte	130,4
00000ae9 24             5096 	.byte	36
00000aea 01             5097 	.byte	1
00000aeb 00000000*      5098 	.word	.LDW_3fc6c88
00000aef 00             5099 	.byte	0

                                                                      Page 89
                                                              C:\Users\nhuliyap\AppData\Local\Temp\gh_00009081.s
00000af0 00             5100 	.byte	0
                        5101 
                        5102 .LDW_4ac5b98:
00000af1 04             5103 	.byte	4
00000af2 736869667465   5104 	.strz	"shifted_message"
00000af8 645f6d657373 
00000afe 61676500 
00000b02 8304           5105 	.byte	131,4
00000b04 1a             5106 	.byte	26
00000b05 01             5107 	.byte	1
00000b06 00000000*      5108 	.word	.LDW_3fc69e8
00000b0a 00             5109 	.byte	0
00000b0b 00             5110 	.byte	0
00000b0c 0169           5111 	.byte	1,105
                        5112 
00000b0e 00             5113 	.byte	0
                        5114 
00000b0f 00             5115 	.byte	0
                        5116 
                        5117 .LDW_4b41d98:
00000b10 13             5118 	.byte	19
00000b11 736861353132   5119 	.strz	"sha512_final"
00000b17 5f66696e616c 
00000b1d 00 
00000b1e a004           5120 	.byte	160,4
00000b20 06             5121 	.byte	6
00000b21 01             5122 	.byte	1
00000b22 00000000*      5123 	.word	_sha512_final
00000b26 00000000*      5124 	.word	___ghs_eofn_sha512_final
00000b2a 0153           5125 	.byte	1,83
00000b2c 828080f80b     5126 	.byte	130,128,128,248,11
00000b31 1c             5127 	.byte	28
00000b32 03             5128 	.byte	3
00000b33 1c             5129 	.byte	28
00000b34 00             5130 	.byte	0
00000b35 00             5131 	.byte	0
00000b36 00             5132 	.byte	0
00000b37 01             5133 	.byte	1
00000b38 01             5134 	.byte	1
00000b39 00             5135 	.byte	0
00000b3a 01             5136 	.byte	1
                        5137 
                        5138 	.section	.debug_frame
                        5139 .LDW_4c4c698:
000001e4 00000000*      5140 	.word	.LDW_unq_16-.LDW_unq_15
                        5141 .LDW_unq_15:
000001e8 00000000*      5142 	.word	.LDW_4b0a048
000001ec 00000000*      5143 	.word	_sha512_final
000001f0 00000000*      5144 	.word	___ghs_eofn_sha512_final-_sha512_final
000001f4 44             5145 	.byte	68
000001f5 9f             5146 	.byte	159
000001f6 00             5147 	.byte	0
000001f7 40             5148 	.byte	64
000001f8 9d             5149 	.byte	157
000001f9 04             5150 	.byte	4
000001fa 40             5151 	.byte	64
000001fb 9c             5152 	.byte	156
000001fc 08             5153 	.byte	8
000001fd 40             5154 	.byte	64
000001fe 9b             5155 	.byte	155
000001ff 0c             5156 	.byte	12

                                                                      Page 90
                                                              C:\Users\nhuliyap\AppData\Local\Temp\gh_00009081.s
00000200 40             5157 	.byte	64
00000201 9a             5158 	.byte	154
00000202 10             5159 	.byte	16
00000203 40             5160 	.byte	64
00000204 99             5161 	.byte	153
00000205 14             5162 	.byte	20
00000206 40             5163 	.byte	64
00000207 98             5164 	.byte	152
00000208 18             5165 	.byte	24
00000209 01             5166 	.byte	1
0000020a 00000000*      5167 	.word	.LDW72
0000020e 00             5168 	.byte	0
0000020f 00             5169 	.byte	0
                        5170 .LDW_unq_16:
                        5171 	.section	.debug_line
0000053a 000502         5172 	.byte	0,5,2
0000053d 00000000*      5173 	.word	_sha512_final
00000541 03             5174 	.byte	3
00000542 a004           5175 	.byte	160,4
00000544 02             5176 	.byte	2
00000545 00             5177 	.byte	0
00000546 01             5178 	.byte	1
00000547 06             5179 	.byte	6
00000548 03             5180 	.byte	3
00000549 09             5181 	.byte	9
0000054a 02             5182 	.byte	2
0000054b 08             5183 	.byte	8
0000054c 01             5184 	.byte	1
0000054d 1d             5185 	.byte	29
0000054e 53             5186 	.byte	83
0000054f 1c             5187 	.byte	28
00000550 000502         5188 	.byte	0,5,2
00000553 00000000*      5189 	.word	.LDWlin49
00000557 0b             5190 	.byte	11
00000558 2b             5191 	.byte	43
00000559 84             5192 	.byte	132
0000055a 000502         5193 	.byte	0,5,2
0000055d 00000000*      5194 	.word	.LDWlin50
00000561 0d             5195 	.byte	13
00000562 02             5196 	.byte	2
00000563 02             5197 	.byte	2
00000564 0b             5198 	.byte	11
00000565 000502         5199 	.byte	0,5,2
00000568 00000000*      5200 	.word	.LDWlin51
0000056c 03             5201 	.byte	3
0000056d 7f             5202 	.byte	127
0000056e 02             5203 	.byte	2
0000056f 00             5204 	.byte	0
00000570 01             5205 	.byte	1
00000571 000502         5206 	.byte	0,5,2
00000574 00000000*      5207 	.word	.LDWlin52
00000578 0c             5208 	.byte	12
00000579 03             5209 	.byte	3
0000057a 0b             5210 	.byte	11
0000057b 02             5211 	.byte	2
0000057c 00             5212 	.byte	0
0000057d 01             5213 	.byte	1
0000057e 02             5214 	.byte	2
0000057f 04             5215 	.byte	4
00000580 000101         5216 	.byte	0,1,1
                        5217 	.section	.debug_info

                                                                      Page 91
                                                              C:\Users\nhuliyap\AppData\Local\Temp\gh_00009081.s
                        5218 .LDW_4ac5ae8:
00000b3b 0f             5219 	.byte	15
00000b3c 63747800       5220 	.strz	"ctx"
00000b40 a004           5221 	.byte	160,4
00000b42 1f             5222 	.byte	31
00000b43 01             5223 	.byte	1
00000b44 00000000*      5224 	.word	.LDW_3fc7120
00000b48 00             5225 	.byte	0
00000b49 016b           5226 	.byte	1,107
                        5227 
                        5228 .LDW_4ac5b40:
00000b4b 0f             5229 	.byte	15
00000b4c 646967657374   5230 	.strz	"digest"
00000b52 00 
00000b53 a004           5231 	.byte	160,4
00000b55 33             5232 	.byte	51
00000b56 01             5233 	.byte	1
00000b57 00000000*      5234 	.word	.LDW_3fc6b38
00000b5b 00             5235 	.byte	0
00000b5c 0168           5236 	.byte	1,104
                        5237 
                        5238 .LDW_4b2f9e8:
00000b5e 1d             5239 	.byte	29
00000b5f 00000000*      5240 	.word	.LDW62
00000b63 00000000*      5241 	.word	.LDW72
                        5242 
                        5243 .LDW_4ac5ca0:
00000b67 04             5244 	.byte	4
00000b68 626c6f636b5f   5245 	.strz	"block_nb"
00000b6e 6e6200 
00000b71 a204           5246 	.byte	162,4
00000b73 12             5247 	.byte	18
00000b74 01             5248 	.byte	1
00000b75 00000000*      5249 	.word	.LDW_3fc6c88
00000b79 00             5250 	.byte	0
00000b7a 00             5251 	.byte	0
00000b7b 0169           5252 	.byte	1,105
                        5253 
                        5254 .LDW_4b43068:
00000b7d 05             5255 	.byte	5
00000b7e 706d5f6c656e   5256 	.strz	"pm_len"
00000b84 00 
00000b85 a304           5257 	.byte	163,4
00000b87 12             5258 	.byte	18
00000b88 01             5259 	.byte	1
00000b89 00000000*      5260 	.word	.LDW_3fc6c88
00000b8d 00             5261 	.byte	0
00000b8e 00             5262 	.byte	0
                        5263 
                        5264 .LDW_4b42da8:
00000b8f 04             5265 	.byte	4
00000b90 6c656e5f6200   5266 	.strz	"len_b"
00000b96 a404           5267 	.byte	164,4
00000b98 12             5268 	.byte	18
00000b99 01             5269 	.byte	1
00000b9a 00000000*      5270 	.word	.LDW_3fc6c88
00000b9e 00             5271 	.byte	0
00000b9f 00             5272 	.byte	0
00000ba0 016d           5273 	.byte	1,109
                        5274 
                        5275 .LDW_4b42e58:

                                                                      Page 92
                                                              C:\Users\nhuliyap\AppData\Local\Temp\gh_00009081.s
00000ba2 04             5276 	.byte	4
00000ba3 6900           5277 	.strz	"i"
00000ba5 a704           5278 	.byte	167,4
00000ba7 09             5279 	.byte	9
00000ba8 01             5280 	.byte	1
00000ba9 00000000*      5281 	.word	.LDW_3fc6c50
00000bad 00             5282 	.byte	0
00000bae 00             5283 	.byte	0
00000baf 015b           5284 	.byte	1,91
                        5285 
00000bb1 00             5286 	.byte	0
                        5287 
00000bb2 00             5288 	.byte	0
                        5289 
                        5290 .LDW_4b41ff8:
00000bb3 13             5291 	.byte	19
00000bb4 736861333834   5292 	.strz	"sha384"
00000bba 00 
00000bbb c604           5293 	.byte	198,4
00000bbd 06             5294 	.byte	6
00000bbe 01             5295 	.byte	1
00000bbf 00000000*      5296 	.word	_sha384
00000bc3 00000000*      5297 	.word	___ghs_eofn_sha384
00000bc7 0153           5298 	.byte	1,83
00000bc9 828080c00a     5299 	.byte	130,128,128,192,10
00000bce 10             5300 	.byte	16
00000bcf 03             5301 	.byte	3
00000bd0 d802           5302 	.byte	216,2
00000bd2 00             5303 	.byte	0
00000bd3 00             5304 	.byte	0
00000bd4 00             5305 	.byte	0
00000bd5 01             5306 	.byte	1
00000bd6 01             5307 	.byte	1
00000bd7 00             5308 	.byte	0
00000bd8 01             5309 	.byte	1
                        5310 
                        5311 	.section	.debug_frame
                        5312 .LDW_4d80628:
00000210 00000000*      5313 	.word	.LDW_unq_18-.LDW_unq_17
                        5314 .LDW_unq_17:
00000214 00000000*      5315 	.word	.LDW_4b0a048
00000218 00000000*      5316 	.word	_sha384
0000021c 00000000*      5317 	.word	___ghs_eofn_sha384-_sha384
00000220 44             5318 	.byte	68
00000221 9f             5319 	.byte	159
00000222 61             5320 	.byte	97
00000223 40             5321 	.byte	64
00000224 9d             5322 	.byte	157
00000225 65             5323 	.byte	101
00000226 40             5324 	.byte	64
00000227 9b             5325 	.byte	155
00000228 69             5326 	.byte	105
00000229 01             5327 	.byte	1
0000022a 00000000*      5328 	.word	.LDW73
0000022e 44             5329 	.byte	68
0000022f df             5330 	.byte	223
00000230 40             5331 	.byte	64
00000231 dd             5332 	.byte	221
00000232 40             5333 	.byte	64
00000233 db             5334 	.byte	219
                        5335 .LDW_unq_18:

                                                                      Page 93
                                                              C:\Users\nhuliyap\AppData\Local\Temp\gh_00009081.s
                        5336 	.section	.debug_line
00000583 000502         5337 	.byte	0,5,2
00000586 00000000*      5338 	.word	_sha384
0000058a 03             5339 	.byte	3
0000058b c704           5340 	.byte	199,4
0000058d 02             5341 	.byte	2
0000058e 00             5342 	.byte	0
0000058f 01             5343 	.byte	1
00000590 06             5344 	.byte	6
00000591 3d             5345 	.byte	61
00000592 000502         5346 	.byte	0,5,2
00000595 00000000*      5347 	.word	.LDWlin68
00000599 0b             5348 	.byte	11
0000059a 000502         5349 	.byte	0,5,2
0000059d 00000000*      5350 	.word	.LDWlin69
000005a1 0b             5351 	.byte	11
000005a2 000502         5352 	.byte	0,5,2
000005a5 00000000*      5353 	.word	.LDWlin70
000005a9 0b             5354 	.byte	11
000005aa 02             5355 	.byte	2
000005ab 08             5356 	.byte	8
000005ac 000101         5357 	.byte	0,1,1
                        5358 	.section	.debug_info
                        5359 .LDW_4b43170:
00000bd9 0f             5360 	.byte	15
00000bda 6d6573736167   5361 	.strz	"message"
00000be0 6500 
00000be2 c604           5362 	.byte	198,4
00000be4 22             5363 	.byte	34
00000be5 01             5364 	.byte	1
00000be6 00000000*      5365 	.word	.LDW_3fc69e8
00000bea 00             5366 	.byte	0
00000beb 016d           5367 	.byte	1,109
                        5368 
                        5369 .LDW_4b43640:
00000bed 0f             5370 	.byte	15
00000bee 6c656e00       5371 	.strz	"len"
00000bf2 c604           5372 	.byte	198,4
00000bf4 38             5373 	.byte	56
00000bf5 01             5374 	.byte	1
00000bf6 00000000*      5375 	.word	.LDW_3fc6c88
00000bfa 00             5376 	.byte	0
00000bfb 016c           5377 	.byte	1,108
                        5378 
                        5379 .LDW_4b437f8:
00000bfd 0f             5380 	.byte	15
00000bfe 646967657374   5381 	.strz	"digest"
00000c04 00 
00000c05 c704           5382 	.byte	199,4
00000c07 1c             5383 	.byte	28
00000c08 01             5384 	.byte	1
00000c09 00000000*      5385 	.word	.LDW_3fc6b38
00000c0d 00             5386 	.byte	0
00000c0e 016b           5387 	.byte	1,107
                        5388 
                        5389 .LDW_4b2ede8:
00000c10 1d             5390 	.byte	29
00000c11 00000000*      5391 	.word	.LDW63
00000c15 00000000*      5392 	.word	.LDW73
                        5393 
                        5394 .LDW_4b43010:

                                                                      Page 94
                                                              C:\Users\nhuliyap\AppData\Local\Temp\gh_00009081.s
00000c19 04             5395 	.byte	4
00000c1a 63747800       5396 	.strz	"ctx"
00000c1e c904           5397 	.byte	201,4
00000c20 10             5398 	.byte	16
00000c21 01             5399 	.byte	1
00000c22 00000000*      5400 	.word	.LDW_4b436f0
00000c26 00             5401 	.byte	0
00000c27 00             5402 	.byte	0
00000c28 0273           5403 	.byte	2,115
00000c2a 00             5404 	.byte	0
                        5405 
00000c2b 00             5406 	.byte	0
                        5407 
00000c2c 00             5408 	.byte	0
                        5409 
                        5410 .LDW_4b42420:
00000c2d 13             5411 	.byte	19
00000c2e 736861333834   5412 	.strz	"sha384_init"
00000c34 5f696e697400 
00000c3a d004           5413 	.byte	208,4
00000c3c 06             5414 	.byte	6
00000c3d 01             5415 	.byte	1
00000c3e 00000000*      5416 	.word	_sha384_init
00000c42 00000000*      5417 	.word	___ghs_eofn_sha384_init
00000c46 0153           5418 	.byte	1,83
00000c48 02             5419 	.byte	2
00000c49 00             5420 	.byte	0
00000c4a 02             5421 	.byte	2
00000c4b 00             5422 	.byte	0
00000c4c 00             5423 	.byte	0
00000c4d 00             5424 	.byte	0
00000c4e 00             5425 	.byte	0
00000c4f 01             5426 	.byte	1
00000c50 01             5427 	.byte	1
00000c51 00             5428 	.byte	0
00000c52 01             5429 	.byte	1
                        5430 
                        5431 	.section	.debug_frame
                        5432 .LDW_4d80b68:
00000234 00000000*      5433 	.word	.LDW_unq_1a-.LDW_unq_19
                        5434 .LDW_unq_19:
00000238 00000000*      5435 	.word	.LDW_4b0a048
0000023c 00000000*      5436 	.word	_sha384_init
00000240 00000000*      5437 	.word	___ghs_eofn_sha384_init-_sha384_init
00000244 01             5438 	.byte	1
00000245 00000000*      5439 	.word	.LDW13
00000249 00             5440 	.byte	0
0000024a 00             5441 	.byte	0
0000024b 00             5442 	.byte	0
                        5443 .LDW_unq_1a:
                        5444 	.section	.debug_line
000005af 000502         5445 	.byte	0,5,2
000005b2 00000000*      5446 	.word	_sha384_init
000005b6 03             5447 	.byte	3
000005b7 d004           5448 	.byte	208,4
000005b9 02             5449 	.byte	2
000005ba 00             5450 	.byte	0
000005bb 01             5451 	.byte	1
000005bc 06             5452 	.byte	6
000005bd 15             5453 	.byte	21
000005be 02             5454 	.byte	2

                                                                      Page 95
                                                              C:\Users\nhuliyap\AppData\Local\Temp\gh_00009081.s
000005bf 02             5455 	.byte	2
000005c0 0b             5456 	.byte	11
000005c1 000502         5457 	.byte	0,5,2
000005c4 00000000*      5458 	.word	.LDWlin56
000005c8 03             5459 	.byte	3
000005c9 7f             5460 	.byte	127
000005ca 02             5461 	.byte	2
000005cb 00             5462 	.byte	0
000005cc 01             5463 	.byte	1
000005cd 000502         5464 	.byte	0,5,2
000005d0 00000000*      5465 	.word	.LDWlin57
000005d4 0c             5466 	.byte	12
000005d5 03             5467 	.byte	3
000005d6 08             5468 	.byte	8
000005d7 02             5469 	.byte	2
000005d8 00             5470 	.byte	0
000005d9 01             5471 	.byte	1
000005da 13             5472 	.byte	19
000005db 13             5473 	.byte	19
000005dc 02             5474 	.byte	2
000005dd 02             5475 	.byte	2
000005de 000101         5476 	.byte	0,1,1
                        5477 	.section	.debug_info
                        5478 .LDW_4b42eb0:
00000c53 0f             5479 	.byte	15
00000c54 63747800       5480 	.strz	"ctx"
00000c58 d004           5481 	.byte	208,4
00000c5a 1e             5482 	.byte	30
00000c5b 01             5483 	.byte	1
00000c5c 00000000*      5484 	.word	.LDW_400d5a0
00000c60 00             5485 	.byte	0
00000c61 016e           5486 	.byte	1,110
                        5487 
                        5488 .LDW_4b2ef68:
00000c63 1d             5489 	.byte	29
00000c64 00000000*      5490 	.word	.LDW03
00000c68 00000000*      5491 	.word	.LDW13
                        5492 
                        5493 .LDW_4b43328:
00000c6c 04             5494 	.byte	4
00000c6d 6900           5495 	.strz	"i"
00000c6f d304           5496 	.byte	211,4
00000c71 09             5497 	.byte	9
00000c72 01             5498 	.byte	1
00000c73 00000000*      5499 	.word	.LDW_3fc6c50
00000c77 00             5500 	.byte	0
00000c78 00             5501 	.byte	0
00000c79 0161           5502 	.byte	1,97
                        5503 
00000c7b 00             5504 	.byte	0
                        5505 
00000c7c 00             5506 	.byte	0
                        5507 
                        5508 .LDW_4b41e30:
00000c7d 13             5509 	.byte	19
00000c7e 736861333834   5510 	.strz	"sha384_update"
00000c84 5f7570646174 
00000c8a 6500 
00000c8c e204           5511 	.byte	226,4
00000c8e 06             5512 	.byte	6
00000c8f 01             5513 	.byte	1

                                                                      Page 96
                                                              C:\Users\nhuliyap\AppData\Local\Temp\gh_00009081.s
00000c90 00000000*      5514 	.word	_sha384_update
00000c94 00000000*      5515 	.word	___ghs_eofn_sha384_update
00000c98 0153           5516 	.byte	1,83
00000c9a 828080f80b     5517 	.byte	130,128,128,248,11
00000c9f 1c             5518 	.byte	28
00000ca0 03             5519 	.byte	3
00000ca1 1c             5520 	.byte	28
00000ca2 00             5521 	.byte	0
00000ca3 00             5522 	.byte	0
00000ca4 00             5523 	.byte	0
00000ca5 01             5524 	.byte	1
00000ca6 01             5525 	.byte	1
00000ca7 00             5526 	.byte	0
00000ca8 01             5527 	.byte	1
                        5528 
                        5529 	.section	.debug_frame
                        5530 .LDW_4d807a8:
0000024c 00000000*      5531 	.word	.LDW_unq_1c-.LDW_unq_1b
                        5532 .LDW_unq_1b:
00000250 00000000*      5533 	.word	.LDW_4b0a048
00000254 00000000*      5534 	.word	_sha384_update
00000258 00000000*      5535 	.word	___ghs_eofn_sha384_update-_sha384_update
0000025c 44             5536 	.byte	68
0000025d 9f             5537 	.byte	159
0000025e 00             5538 	.byte	0
0000025f 40             5539 	.byte	64
00000260 9d             5540 	.byte	157
00000261 04             5541 	.byte	4
00000262 40             5542 	.byte	64
00000263 9c             5543 	.byte	156
00000264 08             5544 	.byte	8
00000265 40             5545 	.byte	64
00000266 9b             5546 	.byte	155
00000267 0c             5547 	.byte	12
00000268 40             5548 	.byte	64
00000269 9a             5549 	.byte	154
0000026a 10             5550 	.byte	16
0000026b 40             5551 	.byte	64
0000026c 99             5552 	.byte	153
0000026d 14             5553 	.byte	20
0000026e 40             5554 	.byte	64
0000026f 98             5555 	.byte	152
00000270 18             5556 	.byte	24
00000271 01             5557 	.byte	1
00000272 00000000*      5558 	.word	.LDW33
00000276 00             5559 	.byte	0
00000277 00             5560 	.byte	0
                        5561 .LDW_unq_1c:
                        5562 	.section	.debug_line
000005e1 000502         5563 	.byte	0,5,2
000005e4 00000000*      5564 	.word	_sha384_update
000005e8 03             5565 	.byte	3
000005e9 e304           5566 	.byte	227,4
000005eb 02             5567 	.byte	2
000005ec 00             5568 	.byte	0
000005ed 01             5569 	.byte	1
000005ee 06             5570 	.byte	6
000005ef 03             5571 	.byte	3
000005f0 06             5572 	.byte	6
000005f1 02             5573 	.byte	2
000005f2 0a             5574 	.byte	10

                                                                      Page 97
                                                              C:\Users\nhuliyap\AppData\Local\Temp\gh_00009081.s
000005f3 01             5575 	.byte	1
000005f4 4c             5576 	.byte	76
000005f5 000502         5577 	.byte	0,5,2
000005f8 00000000*      5578 	.word	.LDWlin58
000005fc 0c             5579 	.byte	12
000005fd 000502         5580 	.byte	0,5,2
00000600 00000000*      5581 	.word	.LDWlin59
00000604 02             5582 	.byte	2
00000605 00             5583 	.byte	0
00000606 0b             5584 	.byte	11
00000607 1b             5585 	.byte	27
00000608 000502         5586 	.byte	0,5,2
0000060b 00000000*      5587 	.word	.LDWlin60
0000060f 0b             5588 	.byte	11
00000610 02             5589 	.byte	2
00000611 00             5590 	.byte	0
00000612 0c             5591 	.byte	12
00000613 13             5592 	.byte	19
00000614 1c             5593 	.byte	28
00000615 14             5594 	.byte	20
00000616 000502         5595 	.byte	0,5,2
00000619 00000000*      5596 	.word	.LDWlin61
0000061d 0b             5597 	.byte	11
0000061e 000502         5598 	.byte	0,5,2
00000621 00000000*      5599 	.word	.LDWlin62
00000625 03             5600 	.byte	3
00000626 04             5601 	.byte	4
00000627 02             5602 	.byte	2
00000628 00             5603 	.byte	0
00000629 01             5604 	.byte	1
0000062a 03             5605 	.byte	3
0000062b 7e             5606 	.byte	126
0000062c 02             5607 	.byte	2
0000062d 02             5608 	.byte	2
0000062e 01             5609 	.byte	1
0000062f 000502         5610 	.byte	0,5,2
00000632 00000000*      5611 	.word	.LDWlin63
00000636 03             5612 	.byte	3
00000637 05             5613 	.byte	5
00000638 02             5614 	.byte	2
00000639 00             5615 	.byte	0
0000063a 01             5616 	.byte	1
0000063b 13             5617 	.byte	19
0000063c 43             5618 	.byte	67
0000063d 02             5619 	.byte	2
0000063e 04             5620 	.byte	4
0000063f 000101         5621 	.byte	0,1,1
                        5622 	.section	.debug_info
                        5623 .LDW_4b42e00:
00000ca9 0f             5624 	.byte	15
00000caa 63747800       5625 	.strz	"ctx"
00000cae e204           5626 	.byte	226,4
00000cb0 20             5627 	.byte	32
00000cb1 01             5628 	.byte	1
00000cb2 00000000*      5629 	.word	.LDW_400d5a0
00000cb6 00             5630 	.byte	0
00000cb7 016d           5631 	.byte	1,109
                        5632 
                        5633 .LDW_4b43430:
00000cb9 0f             5634 	.byte	15
00000cba 6d6573736167   5635 	.strz	"message"

                                                                      Page 98
                                                              C:\Users\nhuliyap\AppData\Local\Temp\gh_00009081.s
00000cc0 6500 
00000cc2 e204           5636 	.byte	226,4
00000cc4 3a             5637 	.byte	58
00000cc5 01             5638 	.byte	1
00000cc6 00000000*      5639 	.word	.LDW_3fc69e8
00000cca 00             5640 	.byte	0
00000ccb 0168           5641 	.byte	1,104
                        5642 
                        5643 .LDW_4b42f08:
00000ccd 0f             5644 	.byte	15
00000cce 6c656e00       5645 	.strz	"len"
00000cd2 e304           5646 	.byte	227,4
00000cd4 21             5647 	.byte	33
00000cd5 01             5648 	.byte	1
00000cd6 00000000*      5649 	.word	.LDW_3fc6c88
00000cda 00             5650 	.byte	0
00000cdb 016c           5651 	.byte	1,108
                        5652 
                        5653 .LDW_4b2ef98:
00000cdd 1d             5654 	.byte	29
00000cde 00000000*      5655 	.word	.LDW23
00000ce2 00000000*      5656 	.word	.LDW33
                        5657 
                        5658 .LDW_4b43850:
00000ce6 04             5659 	.byte	4
00000ce7 626c6f636b5f   5660 	.strz	"block_nb"
00000ced 6e6200 
00000cf0 e504           5661 	.byte	229,4
00000cf2 12             5662 	.byte	18
00000cf3 01             5663 	.byte	1
00000cf4 00000000*      5664 	.word	.LDW_3fc6c88
00000cf8 00             5665 	.byte	0
00000cf9 00             5666 	.byte	0
00000cfa 016b           5667 	.byte	1,107
                        5668 
                        5669 .LDW_4b430c0:
00000cfc 05             5670 	.byte	5
00000cfd 6e65775f6c65   5671 	.strz	"new_len"
00000d03 6e00 
00000d05 e604           5672 	.byte	230,4
00000d07 12             5673 	.byte	18
00000d08 01             5674 	.byte	1
00000d09 00000000*      5675 	.word	.LDW_3fc6c88
00000d0d 00             5676 	.byte	0
00000d0e 00             5677 	.byte	0
                        5678 
                        5679 .LDW_4b431c8:
00000d0f 04             5680 	.byte	4
00000d10 72656d5f6c65   5681 	.strz	"rem_len"
00000d16 6e00 
00000d18 e604           5682 	.byte	230,4
00000d1a 1b             5683 	.byte	27
00000d1b 01             5684 	.byte	1
00000d1c 00000000*      5685 	.word	.LDW_3fc6c88
00000d20 00             5686 	.byte	0
00000d21 00             5687 	.byte	0
00000d22 016a           5688 	.byte	1,106
                        5689 
                        5690 .LDW_4b433d8:
00000d24 05             5691 	.byte	5
00000d25 746d705f6c65   5692 	.strz	"tmp_len"

                                                                      Page 99
                                                              C:\Users\nhuliyap\AppData\Local\Temp\gh_00009081.s
00000d2b 6e00 
00000d2d e604           5693 	.byte	230,4
00000d2f 24             5694 	.byte	36
00000d30 01             5695 	.byte	1
00000d31 00000000*      5696 	.word	.LDW_3fc6c88
00000d35 00             5697 	.byte	0
00000d36 00             5698 	.byte	0
                        5699 
                        5700 .LDW_4b42f60:
00000d37 04             5701 	.byte	4
00000d38 736869667465   5702 	.strz	"shifted_message"
00000d3e 645f6d657373 
00000d44 61676500 
00000d48 e704           5703 	.byte	231,4
00000d4a 1a             5704 	.byte	26
00000d4b 01             5705 	.byte	1
00000d4c 00000000*      5706 	.word	.LDW_3fc69e8
00000d50 00             5707 	.byte	0
00000d51 00             5708 	.byte	0
00000d52 0169           5709 	.byte	1,105
                        5710 
00000d54 00             5711 	.byte	0
                        5712 
00000d55 00             5713 	.byte	0
                        5714 
                        5715 .LDW_4b42128:
00000d56 13             5716 	.byte	19
00000d57 736861333834   5717 	.strz	"sha384_final"
00000d5d 5f66696e616c 
00000d63 00 
00000d64 8405           5718 	.byte	132,5
00000d66 06             5719 	.byte	6
00000d67 01             5720 	.byte	1
00000d68 00000000*      5721 	.word	_sha384_final
00000d6c 00000000*      5722 	.word	___ghs_eofn_sha384_final
00000d70 0153           5723 	.byte	1,83
00000d72 828080f80b     5724 	.byte	130,128,128,248,11
00000d77 1c             5725 	.byte	28
00000d78 03             5726 	.byte	3
00000d79 1c             5727 	.byte	28
00000d7a 00             5728 	.byte	0
00000d7b 00             5729 	.byte	0
00000d7c 00             5730 	.byte	0
00000d7d 01             5731 	.byte	1
00000d7e 01             5732 	.byte	1
00000d7f 00             5733 	.byte	0
00000d80 01             5734 	.byte	1
                        5735 
                        5736 	.section	.debug_frame
                        5737 .LDW_4d809a8:
00000278 00000000*      5738 	.word	.LDW_unq_1e-.LDW_unq_1d
                        5739 .LDW_unq_1d:
0000027c 00000000*      5740 	.word	.LDW_4b0a048
00000280 00000000*      5741 	.word	_sha384_final
00000284 00000000*      5742 	.word	___ghs_eofn_sha384_final-_sha384_final
00000288 44             5743 	.byte	68
00000289 9f             5744 	.byte	159
0000028a 00             5745 	.byte	0
0000028b 40             5746 	.byte	64
0000028c 9d             5747 	.byte	157
0000028d 04             5748 	.byte	4

                                                                      Page 100
                                                              C:\Users\nhuliyap\AppData\Local\Temp\gh_00009081.s
0000028e 40             5749 	.byte	64
0000028f 9c             5750 	.byte	156
00000290 08             5751 	.byte	8
00000291 40             5752 	.byte	64
00000292 9b             5753 	.byte	155
00000293 0c             5754 	.byte	12
00000294 40             5755 	.byte	64
00000295 9a             5756 	.byte	154
00000296 10             5757 	.byte	16
00000297 40             5758 	.byte	64
00000298 99             5759 	.byte	153
00000299 14             5760 	.byte	20
0000029a 40             5761 	.byte	64
0000029b 98             5762 	.byte	152
0000029c 18             5763 	.byte	24
0000029d 01             5764 	.byte	1
0000029e 00000000*      5765 	.word	.LDW53
000002a2 00             5766 	.byte	0
000002a3 00             5767 	.byte	0
                        5768 .LDW_unq_1e:
                        5769 	.section	.debug_line
00000642 000502         5770 	.byte	0,5,2
00000645 00000000*      5771 	.word	_sha384_final
00000649 03             5772 	.byte	3
0000064a 8405           5773 	.byte	132,5
0000064c 02             5774 	.byte	2
0000064d 00             5775 	.byte	0
0000064e 01             5776 	.byte	1
0000064f 06             5777 	.byte	6
00000650 03             5778 	.byte	3
00000651 09             5779 	.byte	9
00000652 02             5780 	.byte	2
00000653 08             5781 	.byte	8
00000654 01             5782 	.byte	1
00000655 1d             5783 	.byte	29
00000656 53             5784 	.byte	83
00000657 1c             5785 	.byte	28
00000658 000502         5786 	.byte	0,5,2
0000065b 00000000*      5787 	.word	.LDWlin64
0000065f 0b             5788 	.byte	11
00000660 2b             5789 	.byte	43
00000661 84             5790 	.byte	132
00000662 000502         5791 	.byte	0,5,2
00000665 00000000*      5792 	.word	.LDWlin65
00000669 0d             5793 	.byte	13
0000066a 02             5794 	.byte	2
0000066b 02             5795 	.byte	2
0000066c 0b             5796 	.byte	11
0000066d 000502         5797 	.byte	0,5,2
00000670 00000000*      5798 	.word	.LDWlin66
00000674 03             5799 	.byte	3
00000675 7f             5800 	.byte	127
00000676 02             5801 	.byte	2
00000677 00             5802 	.byte	0
00000678 01             5803 	.byte	1
00000679 000502         5804 	.byte	0,5,2
0000067c 00000000*      5805 	.word	.LDWlin67
00000680 0c             5806 	.byte	12
00000681 03             5807 	.byte	3
00000682 09             5808 	.byte	9
00000683 02             5809 	.byte	2

                                                                      Page 101
                                                              C:\Users\nhuliyap\AppData\Local\Temp\gh_00009081.s
00000684 00             5810 	.byte	0
00000685 01             5811 	.byte	1
00000686 02             5812 	.byte	2
00000687 04             5813 	.byte	4
00000688 000101         5814 	.byte	0,1,1
                        5815 	.section	.debug_info
                        5816 .LDW_4b43488:
00000d81 0f             5817 	.byte	15
00000d82 63747800       5818 	.strz	"ctx"
00000d86 8405           5819 	.byte	132,5
00000d88 1f             5820 	.byte	31
00000d89 01             5821 	.byte	1
00000d8a 00000000*      5822 	.word	.LDW_400d5a0
00000d8e 00             5823 	.byte	0
00000d8f 016b           5824 	.byte	1,107
                        5825 
                        5826 .LDW_4b43748:
00000d91 0f             5827 	.byte	15
00000d92 646967657374   5828 	.strz	"digest"
00000d98 00 
00000d99 8405           5829 	.byte	132,5
00000d9b 33             5830 	.byte	51
00000d9c 01             5831 	.byte	1
00000d9d 00000000*      5832 	.word	.LDW_3fc6b38
00000da1 00             5833 	.byte	0
00000da2 0168           5834 	.byte	1,104
                        5835 
                        5836 .LDW_4b2f2f8:
00000da4 1d             5837 	.byte	29
00000da5 00000000*      5838 	.word	.LDW43
00000da9 00000000*      5839 	.word	.LDW53
                        5840 
                        5841 .LDW_4b43118:
00000dad 04             5842 	.byte	4
00000dae 626c6f636b5f   5843 	.strz	"block_nb"
00000db4 6e6200 
00000db7 8605           5844 	.byte	134,5
00000db9 12             5845 	.byte	18
00000dba 01             5846 	.byte	1
00000dbb 00000000*      5847 	.word	.LDW_3fc6c88
00000dbf 00             5848 	.byte	0
00000dc0 00             5849 	.byte	0
00000dc1 0169           5850 	.byte	1,105
                        5851 
                        5852 .LDW_4b43220:
00000dc3 05             5853 	.byte	5
00000dc4 706d5f6c656e   5854 	.strz	"pm_len"
00000dca 00 
00000dcb 8705           5855 	.byte	135,5
00000dcd 12             5856 	.byte	18
00000dce 01             5857 	.byte	1
00000dcf 00000000*      5858 	.word	.LDW_3fc6c88
00000dd3 00             5859 	.byte	0
00000dd4 00             5860 	.byte	0
                        5861 
                        5862 .LDW_4b43278:
00000dd5 04             5863 	.byte	4
00000dd6 6c656e5f6200   5864 	.strz	"len_b"
00000ddc 8805           5865 	.byte	136,5
00000dde 12             5866 	.byte	18
00000ddf 01             5867 	.byte	1

                                                                      Page 102
                                                              C:\Users\nhuliyap\AppData\Local\Temp\gh_00009081.s
00000de0 00000000*      5868 	.word	.LDW_3fc6c88
00000de4 00             5869 	.byte	0
00000de5 00             5870 	.byte	0
00000de6 016d           5871 	.byte	1,109
                        5872 
                        5873 .LDW_4b42fb8:
00000de8 04             5874 	.byte	4
00000de9 6900           5875 	.strz	"i"
00000deb 8b05           5876 	.byte	139,5
00000ded 09             5877 	.byte	9
00000dee 01             5878 	.byte	1
00000def 00000000*      5879 	.word	.LDW_3fc6c50
00000df3 00             5880 	.byte	0
00000df4 00             5881 	.byte	0
00000df5 015b           5882 	.byte	1,91
                        5883 
00000df7 00             5884 	.byte	0
                        5885 
00000df8 00             5886 	.byte	0
                        5887 
                        5888 .LDW_4b42978:
00000df9 13             5889 	.byte	19
00000dfa 736861323234   5890 	.strz	"sha224"
00000e00 00 
00000e01 a805           5891 	.byte	168,5
00000e03 06             5892 	.byte	6
00000e04 01             5893 	.byte	1
00000e05 00000000*      5894 	.word	_sha224
00000e09 00000000*      5895 	.word	___ghs_eofn_sha224
00000e0d 0153           5896 	.byte	1,83
00000e0f 828080c00a     5897 	.byte	130,128,128,192,10
00000e14 10             5898 	.byte	16
00000e15 03             5899 	.byte	3
00000e16 b801           5900 	.byte	184,1
00000e18 00             5901 	.byte	0
00000e19 00             5902 	.byte	0
00000e1a 00             5903 	.byte	0
00000e1b 01             5904 	.byte	1
00000e1c 01             5905 	.byte	1
00000e1d 00             5906 	.byte	0
00000e1e 01             5907 	.byte	1
                        5908 
                        5909 	.section	.debug_frame
                        5910 .LDW_4d80368:
000002a4 00000000*      5911 	.word	.LDW_unq_20-.LDW_unq_1f
                        5912 .LDW_unq_1f:
000002a8 00000000*      5913 	.word	.LDW_4b0a048
000002ac 00000000*      5914 	.word	_sha224
000002b0 00000000*      5915 	.word	___ghs_eofn_sha224-_sha224
000002b4 44             5916 	.byte	68
000002b5 9f             5917 	.byte	159
000002b6 61             5918 	.byte	97
000002b7 40             5919 	.byte	64
000002b8 9d             5920 	.byte	157
000002b9 65             5921 	.byte	101
000002ba 40             5922 	.byte	64
000002bb 9b             5923 	.byte	155
000002bc 69             5924 	.byte	105
000002bd 01             5925 	.byte	1
000002be 00000000*      5926 	.word	.LDW54
000002c2 44             5927 	.byte	68

                                                                      Page 103
                                                              C:\Users\nhuliyap\AppData\Local\Temp\gh_00009081.s
000002c3 df             5928 	.byte	223
000002c4 40             5929 	.byte	64
000002c5 dd             5930 	.byte	221
000002c6 40             5931 	.byte	64
000002c7 db             5932 	.byte	219
                        5933 .LDW_unq_20:
                        5934 	.section	.debug_line
0000068b 000502         5935 	.byte	0,5,2
0000068e 00000000*      5936 	.word	_sha224
00000692 03             5937 	.byte	3
00000693 a905           5938 	.byte	169,5
00000695 02             5939 	.byte	2
00000696 00             5940 	.byte	0
00000697 01             5941 	.byte	1
00000698 06             5942 	.byte	6
00000699 3d             5943 	.byte	61
0000069a 000502         5944 	.byte	0,5,2
0000069d 00000000*      5945 	.word	.LDWlin82
000006a1 0b             5946 	.byte	11
000006a2 000502         5947 	.byte	0,5,2
000006a5 00000000*      5948 	.word	.LDWlin83
000006a9 0b             5949 	.byte	11
000006aa 000502         5950 	.byte	0,5,2
000006ad 00000000*      5951 	.word	.LDWlin84
000006b1 0b             5952 	.byte	11
000006b2 02             5953 	.byte	2
000006b3 08             5954 	.byte	8
000006b4 000101         5955 	.byte	0,1,1
                        5956 	.section	.debug_info
                        5957 .LDW_4b432d0:
00000e1f 0f             5958 	.byte	15
00000e20 6d6573736167   5959 	.strz	"message"
00000e26 6500 
00000e28 a805           5960 	.byte	168,5
00000e2a 22             5961 	.byte	34
00000e2b 01             5962 	.byte	1
00000e2c 00000000*      5963 	.word	.LDW_3fc69e8
00000e30 00             5964 	.byte	0
00000e31 016d           5965 	.byte	1,109
                        5966 
                        5967 .LDW_4b437a0:
00000e33 0f             5968 	.byte	15
00000e34 6c656e00       5969 	.strz	"len"
00000e38 a805           5970 	.byte	168,5
00000e3a 38             5971 	.byte	56
00000e3b 01             5972 	.byte	1
00000e3c 00000000*      5973 	.word	.LDW_3fc6c88
00000e40 00             5974 	.byte	0
00000e41 016c           5975 	.byte	1,108
                        5976 
                        5977 .LDW_4b43538:
00000e43 0f             5978 	.byte	15
00000e44 646967657374   5979 	.strz	"digest"
00000e4a 00 
00000e4b a905           5980 	.byte	169,5
00000e4d 1c             5981 	.byte	28
00000e4e 01             5982 	.byte	1
00000e4f 00000000*      5983 	.word	.LDW_3fc6b38
00000e53 00             5984 	.byte	0
00000e54 016b           5985 	.byte	1,107
                        5986 

                                                                      Page 104
                                                              C:\Users\nhuliyap\AppData\Local\Temp\gh_00009081.s
                        5987 .LDW_4b2f028:
00000e56 1d             5988 	.byte	29
00000e57 00000000*      5989 	.word	.LDW44
00000e5b 00000000*      5990 	.word	.LDW54
                        5991 
                        5992 .LDW_4b434e0:
00000e5f 04             5993 	.byte	4
00000e60 63747800       5994 	.strz	"ctx"
00000e64 ab05           5995 	.byte	171,5
00000e66 10             5996 	.byte	16
00000e67 01             5997 	.byte	1
00000e68 00000000*      5998 	.word	.LDW_4b43380
00000e6c 00             5999 	.byte	0
00000e6d 00             6000 	.byte	0
00000e6e 0273           6001 	.byte	2,115
00000e70 00             6002 	.byte	0
                        6003 
00000e71 00             6004 	.byte	0
                        6005 
00000e72 00             6006 	.byte	0
                        6007 
                        6008 .LDW_4b421c0:
00000e73 13             6009 	.byte	19
00000e74 736861323234   6010 	.strz	"sha224_init"
00000e7a 5f696e697400 
00000e80 b205           6011 	.byte	178,5
00000e82 06             6012 	.byte	6
00000e83 01             6013 	.byte	1
00000e84 00000000*      6014 	.word	_sha224_init
00000e88 00000000*      6015 	.word	___ghs_eofn_sha224_init
00000e8c 0153           6016 	.byte	1,83
00000e8e 02             6017 	.byte	2
00000e8f 00             6018 	.byte	0
00000e90 02             6019 	.byte	2
00000e91 00             6020 	.byte	0
00000e92 00             6021 	.byte	0
00000e93 00             6022 	.byte	0
00000e94 00             6023 	.byte	0
00000e95 01             6024 	.byte	1
00000e96 01             6025 	.byte	1
00000e97 00             6026 	.byte	0
00000e98 01             6027 	.byte	1
                        6028 
                        6029 	.section	.debug_frame
                        6030 .LDW_4d80868:
000002c8 00000000*      6031 	.word	.LDW_unq_22-.LDW_unq_21
                        6032 .LDW_unq_21:
000002cc 00000000*      6033 	.word	.LDW_4b0a048
000002d0 00000000*      6034 	.word	_sha224_init
000002d4 00000000*      6035 	.word	___ghs_eofn_sha224_init-_sha224_init
000002d8 01             6036 	.byte	1
000002d9 00000000*      6037 	.word	.LDW93
000002dd 00             6038 	.byte	0
000002de 00             6039 	.byte	0
000002df 00             6040 	.byte	0
                        6041 .LDW_unq_22:
                        6042 	.section	.debug_line
000006b7 000502         6043 	.byte	0,5,2
000006ba 00000000*      6044 	.word	_sha224_init
000006be 06             6045 	.byte	6
000006bf 03             6046 	.byte	3

                                                                      Page 105
                                                              C:\Users\nhuliyap\AppData\Local\Temp\gh_00009081.s
000006c0 b505           6047 	.byte	181,5
000006c2 02             6048 	.byte	2
000006c3 00             6049 	.byte	0
000006c4 01             6050 	.byte	1
000006c5 02             6051 	.byte	2
000006c6 02             6052 	.byte	2
000006c7 0b             6053 	.byte	11
000006c8 000502         6054 	.byte	0,5,2
000006cb 00000000*      6055 	.word	.LDWlin71
000006cf 03             6056 	.byte	3
000006d0 7f             6057 	.byte	127
000006d1 02             6058 	.byte	2
000006d2 00             6059 	.byte	0
000006d3 01             6060 	.byte	1
000006d4 000502         6061 	.byte	0,5,2
000006d7 00000000*      6062 	.word	.LDWlin72
000006db 0c             6063 	.byte	12
000006dc 03             6064 	.byte	3
000006dd 08             6065 	.byte	8
000006de 02             6066 	.byte	2
000006df 00             6067 	.byte	0
000006e0 01             6068 	.byte	1
000006e1 1b             6069 	.byte	27
000006e2 13             6070 	.byte	19
000006e3 02             6071 	.byte	2
000006e4 02             6072 	.byte	2
000006e5 000101         6073 	.byte	0,1,1
                        6074 	.section	.debug_info
                        6075 .LDW_4b43590:
00000e99 0f             6076 	.byte	15
00000e9a 63747800       6077 	.strz	"ctx"
00000e9e b205           6078 	.byte	178,5
00000ea0 1e             6079 	.byte	30
00000ea1 01             6080 	.byte	1
00000ea2 00000000*      6081 	.word	.LDW_400d760
00000ea6 00             6082 	.byte	0
00000ea7 0156           6083 	.byte	1,86
                        6084 
                        6085 .LDW_4b2eea8:
00000ea9 1d             6086 	.byte	29
00000eaa 00000000*      6087 	.word	.LDW83
00000eae 00000000*      6088 	.word	.LDW93
                        6089 
                        6090 .LDW_4b435e8:
00000eb2 04             6091 	.byte	4
00000eb3 6900           6092 	.strz	"i"
00000eb5 b505           6093 	.byte	181,5
00000eb7 09             6094 	.byte	9
00000eb8 01             6095 	.byte	1
00000eb9 00000000*      6096 	.word	.LDW_3fc6c50
00000ebd 00             6097 	.byte	0
00000ebe 00             6098 	.byte	0
00000ebf 0161           6099 	.byte	1,97
                        6100 
00000ec1 00             6101 	.byte	0
                        6102 
00000ec2 00             6103 	.byte	0
                        6104 
                        6105 .LDW_4b424b8:
00000ec3 13             6106 	.byte	19
00000ec4 736861323234   6107 	.strz	"sha224_update"

                                                                      Page 106
                                                              C:\Users\nhuliyap\AppData\Local\Temp\gh_00009081.s
00000eca 5f7570646174 
00000ed0 6500 
00000ed2 c405           6108 	.byte	196,5
00000ed4 06             6109 	.byte	6
00000ed5 01             6110 	.byte	1
00000ed6 00000000*      6111 	.word	_sha224_update
00000eda 00000000*      6112 	.word	___ghs_eofn_sha224_update
00000ede 0153           6113 	.byte	1,83
00000ee0 828080f80b     6114 	.byte	130,128,128,248,11
00000ee5 1c             6115 	.byte	28
00000ee6 03             6116 	.byte	3
00000ee7 1c             6117 	.byte	28
00000ee8 00             6118 	.byte	0
00000ee9 00             6119 	.byte	0
00000eea 00             6120 	.byte	0
00000eeb 01             6121 	.byte	1
00000eec 01             6122 	.byte	1
00000eed 00             6123 	.byte	0
00000eee 01             6124 	.byte	1
                        6125 
                        6126 	.section	.debug_frame
                        6127 .LDW_4d80968:
000002e0 00000000*      6128 	.word	.LDW_unq_24-.LDW_unq_23
                        6129 .LDW_unq_23:
000002e4 00000000*      6130 	.word	.LDW_4b0a048
000002e8 00000000*      6131 	.word	_sha224_update
000002ec 00000000*      6132 	.word	___ghs_eofn_sha224_update-_sha224_update
000002f0 44             6133 	.byte	68
000002f1 9f             6134 	.byte	159
000002f2 00             6135 	.byte	0
000002f3 40             6136 	.byte	64
000002f4 9d             6137 	.byte	157
000002f5 04             6138 	.byte	4
000002f6 40             6139 	.byte	64
000002f7 9c             6140 	.byte	156
000002f8 08             6141 	.byte	8
000002f9 40             6142 	.byte	64
000002fa 9b             6143 	.byte	155
000002fb 0c             6144 	.byte	12
000002fc 40             6145 	.byte	64
000002fd 9a             6146 	.byte	154
000002fe 10             6147 	.byte	16
000002ff 40             6148 	.byte	64
00000300 99             6149 	.byte	153
00000301 14             6150 	.byte	20
00000302 40             6151 	.byte	64
00000303 98             6152 	.byte	152
00000304 18             6153 	.byte	24
00000305 01             6154 	.byte	1
00000306 00000000*      6155 	.word	.LDW14
0000030a 00             6156 	.byte	0
0000030b 00             6157 	.byte	0
                        6158 .LDW_unq_24:
                        6159 	.section	.debug_line
000006e8 000502         6160 	.byte	0,5,2
000006eb 00000000*      6161 	.word	_sha224_update
000006ef 03             6162 	.byte	3
000006f0 c505           6163 	.byte	197,5
000006f2 02             6164 	.byte	2
000006f3 00             6165 	.byte	0
000006f4 01             6166 	.byte	1

                                                                      Page 107
                                                              C:\Users\nhuliyap\AppData\Local\Temp\gh_00009081.s
000006f5 06             6167 	.byte	6
000006f6 03             6168 	.byte	3
000006f7 06             6169 	.byte	6
000006f8 02             6170 	.byte	2
000006f9 0a             6171 	.byte	10
000006fa 01             6172 	.byte	1
000006fb 4c             6173 	.byte	76
000006fc 000502         6174 	.byte	0,5,2
000006ff 00000000*      6175 	.word	.LDWlin73
00000703 0c             6176 	.byte	12
00000704 000502         6177 	.byte	0,5,2
00000707 00000000*      6178 	.word	.LDWlin74
0000070b 02             6179 	.byte	2
0000070c 00             6180 	.byte	0
0000070d 0b             6181 	.byte	11
0000070e 1b             6182 	.byte	27
0000070f 000502         6183 	.byte	0,5,2
00000712 00000000*      6184 	.word	.LDWlin75
00000716 0b             6185 	.byte	11
00000717 02             6186 	.byte	2
00000718 00             6187 	.byte	0
00000719 0c             6188 	.byte	12
0000071a 13             6189 	.byte	19
0000071b 1c             6190 	.byte	28
0000071c 14             6191 	.byte	20
0000071d 000502         6192 	.byte	0,5,2
00000720 00000000*      6193 	.word	.LDWlin76
00000724 0b             6194 	.byte	11
00000725 000502         6195 	.byte	0,5,2
00000728 00000000*      6196 	.word	.LDWlin77
0000072c 03             6197 	.byte	3
0000072d 04             6198 	.byte	4
0000072e 02             6199 	.byte	2
0000072f 00             6200 	.byte	0
00000730 01             6201 	.byte	1
00000731 03             6202 	.byte	3
00000732 7e             6203 	.byte	126
00000733 02             6204 	.byte	2
00000734 02             6205 	.byte	2
00000735 01             6206 	.byte	1
00000736 000502         6207 	.byte	0,5,2
00000739 00000000*      6208 	.word	.LDWlin78
0000073d 03             6209 	.byte	3
0000073e 05             6210 	.byte	5
0000073f 02             6211 	.byte	2
00000740 00             6212 	.byte	0
00000741 01             6213 	.byte	1
00000742 13             6214 	.byte	19
00000743 43             6215 	.byte	67
00000744 02             6216 	.byte	2
00000745 04             6217 	.byte	4
00000746 000101         6218 	.byte	0,1,1
                        6219 	.section	.debug_info
                        6220 .LDW_4b43698:
00000eef 0f             6221 	.byte	15
00000ef0 63747800       6222 	.strz	"ctx"
00000ef4 c405           6223 	.byte	196,5
00000ef6 20             6224 	.byte	32
00000ef7 01             6225 	.byte	1
00000ef8 00000000*      6226 	.word	.LDW_400d760
00000efc 00             6227 	.byte	0

                                                                      Page 108
                                                              C:\Users\nhuliyap\AppData\Local\Temp\gh_00009081.s
00000efd 016d           6228 	.byte	1,109
                        6229 
                        6230 .LDW_4b43ab8:
00000eff 0f             6231 	.byte	15
00000f00 6d6573736167   6232 	.strz	"message"
00000f06 6500 
00000f08 c405           6233 	.byte	196,5
00000f0a 3a             6234 	.byte	58
00000f0b 01             6235 	.byte	1
00000f0c 00000000*      6236 	.word	.LDW_3fc69e8
00000f10 00             6237 	.byte	0
00000f11 0168           6238 	.byte	1,104
                        6239 
                        6240 .LDW_4b43b10:
00000f13 0f             6241 	.byte	15
00000f14 6c656e00       6242 	.strz	"len"
00000f18 c505           6243 	.byte	197,5
00000f1a 21             6244 	.byte	33
00000f1b 01             6245 	.byte	1
00000f1c 00000000*      6246 	.word	.LDW_3fc6c88
00000f20 00             6247 	.byte	0
00000f21 016c           6248 	.byte	1,108
                        6249 
                        6250 .LDW_4b2f268:
00000f23 1d             6251 	.byte	29
00000f24 00000000*      6252 	.word	.LDW04
00000f28 00000000*      6253 	.word	.LDW14
                        6254 
                        6255 .LDW_4b43c18:
00000f2c 04             6256 	.byte	4
00000f2d 626c6f636b5f   6257 	.strz	"block_nb"
00000f33 6e6200 
00000f36 c705           6258 	.byte	199,5
00000f38 12             6259 	.byte	18
00000f39 01             6260 	.byte	1
00000f3a 00000000*      6261 	.word	.LDW_3fc6c88
00000f3e 00             6262 	.byte	0
00000f3f 00             6263 	.byte	0
00000f40 016b           6264 	.byte	1,107
                        6265 
                        6266 .LDW_4b43d20:
00000f42 05             6267 	.byte	5
00000f43 6e65775f6c65   6268 	.strz	"new_len"
00000f49 6e00 
00000f4b c805           6269 	.byte	200,5
00000f4d 12             6270 	.byte	18
00000f4e 01             6271 	.byte	1
00000f4f 00000000*      6272 	.word	.LDW_3fc6c88
00000f53 00             6273 	.byte	0
00000f54 00             6274 	.byte	0
                        6275 
                        6276 .LDW_4b43a08:
00000f55 04             6277 	.byte	4
00000f56 72656d5f6c65   6278 	.strz	"rem_len"
00000f5c 6e00 
00000f5e c805           6279 	.byte	200,5
00000f60 1b             6280 	.byte	27
00000f61 01             6281 	.byte	1
00000f62 00000000*      6282 	.word	.LDW_3fc6c88
00000f66 00             6283 	.byte	0
00000f67 00             6284 	.byte	0

                                                                      Page 109
                                                              C:\Users\nhuliyap\AppData\Local\Temp\gh_00009081.s
00000f68 016a           6285 	.byte	1,106
                        6286 
                        6287 .LDW_4b43c70:
00000f6a 05             6288 	.byte	5
00000f6b 746d705f6c65   6289 	.strz	"tmp_len"
00000f71 6e00 
00000f73 c805           6290 	.byte	200,5
00000f75 24             6291 	.byte	36
00000f76 01             6292 	.byte	1
00000f77 00000000*      6293 	.word	.LDW_3fc6c88
00000f7b 00             6294 	.byte	0
00000f7c 00             6295 	.byte	0
                        6296 
                        6297 .LDW_4b43b68:
00000f7d 04             6298 	.byte	4
00000f7e 736869667465   6299 	.strz	"shifted_message"
00000f84 645f6d657373 
00000f8a 61676500 
00000f8e c905           6300 	.byte	201,5
00000f90 1a             6301 	.byte	26
00000f91 01             6302 	.byte	1
00000f92 00000000*      6303 	.word	.LDW_3fc69e8
00000f96 00             6304 	.byte	0
00000f97 00             6305 	.byte	0
00000f98 0169           6306 	.byte	1,105
                        6307 
00000f9a 00             6308 	.byte	0
                        6309 
00000f9b 00             6310 	.byte	0
                        6311 
                        6312 .LDW_4b41f60:
00000f9c 13             6313 	.byte	19
00000f9d 736861323234   6314 	.strz	"sha224_final"
00000fa3 5f66696e616c 
00000fa9 00 
00000faa e605           6315 	.byte	230,5
00000fac 06             6316 	.byte	6
00000fad 01             6317 	.byte	1
00000fae 00000000*      6318 	.word	_sha224_final
00000fb2 00000000*      6319 	.word	___ghs_eofn_sha224_final
00000fb6 0153           6320 	.byte	1,83
00000fb8 828080f80b     6321 	.byte	130,128,128,248,11
00000fbd 1c             6322 	.byte	28
00000fbe 03             6323 	.byte	3
00000fbf 1c             6324 	.byte	28
00000fc0 00             6325 	.byte	0
00000fc1 00             6326 	.byte	0
00000fc2 00             6327 	.byte	0
00000fc3 01             6328 	.byte	1
00000fc4 01             6329 	.byte	1
00000fc5 00             6330 	.byte	0
00000fc6 01             6331 	.byte	1
                        6332 
                        6333 	.section	.debug_frame
                        6334 .LDW_4d80a28:
0000030c 00000000*      6335 	.word	.LDW_unq_26-.LDW_unq_25
                        6336 .LDW_unq_25:
00000310 00000000*      6337 	.word	.LDW_4b0a048
00000314 00000000*      6338 	.word	_sha224_final
00000318 00000000*      6339 	.word	___ghs_eofn_sha224_final-_sha224_final
0000031c 44             6340 	.byte	68

                                                                      Page 110
                                                              C:\Users\nhuliyap\AppData\Local\Temp\gh_00009081.s
0000031d 9f             6341 	.byte	159
0000031e 00             6342 	.byte	0
0000031f 40             6343 	.byte	64
00000320 9d             6344 	.byte	157
00000321 04             6345 	.byte	4
00000322 40             6346 	.byte	64
00000323 9c             6347 	.byte	156
00000324 08             6348 	.byte	8
00000325 40             6349 	.byte	64
00000326 9b             6350 	.byte	155
00000327 0c             6351 	.byte	12
00000328 40             6352 	.byte	64
00000329 9a             6353 	.byte	154
0000032a 10             6354 	.byte	16
0000032b 40             6355 	.byte	64
0000032c 99             6356 	.byte	153
0000032d 14             6357 	.byte	20
0000032e 40             6358 	.byte	64
0000032f 98             6359 	.byte	152
00000330 18             6360 	.byte	24
00000331 01             6361 	.byte	1
00000332 00000000*      6362 	.word	.LDW34
00000336 00             6363 	.byte	0
00000337 00             6364 	.byte	0
                        6365 .LDW_unq_26:
                        6366 	.section	.debug_line
00000749 000502         6367 	.byte	0,5,2
0000074c 00000000*      6368 	.word	_sha224_final
00000750 03             6369 	.byte	3
00000751 e605           6370 	.byte	230,5
00000753 02             6371 	.byte	2
00000754 00             6372 	.byte	0
00000755 01             6373 	.byte	1
00000756 06             6374 	.byte	6
00000757 03             6375 	.byte	3
00000758 09             6376 	.byte	9
00000759 02             6377 	.byte	2
0000075a 08             6378 	.byte	8
0000075b 01             6379 	.byte	1
0000075c 1d             6380 	.byte	29
0000075d 53             6381 	.byte	83
0000075e 1c             6382 	.byte	28
0000075f 000502         6383 	.byte	0,5,2
00000762 00000000*      6384 	.word	.LDWlin79
00000766 0b             6385 	.byte	11
00000767 2b             6386 	.byte	43
00000768 84             6387 	.byte	132
00000769 000502         6388 	.byte	0,5,2
0000076c 00000000*      6389 	.word	.LDWlin80
00000770 0d             6390 	.byte	13
00000771 02             6391 	.byte	2
00000772 02             6392 	.byte	2
00000773 0b             6393 	.byte	11
00000774 03             6394 	.byte	3
00000775 7f             6395 	.byte	127
00000776 02             6396 	.byte	2
00000777 0e             6397 	.byte	14
00000778 01             6398 	.byte	1
00000779 000502         6399 	.byte	0,5,2
0000077c 00000000*      6400 	.word	.LDWlin81
00000780 0c             6401 	.byte	12

                                                                      Page 111
                                                              C:\Users\nhuliyap\AppData\Local\Temp\gh_00009081.s
00000781 03             6402 	.byte	3
00000782 0a             6403 	.byte	10
00000783 02             6404 	.byte	2
00000784 00             6405 	.byte	0
00000785 01             6406 	.byte	1
00000786 02             6407 	.byte	2
00000787 04             6408 	.byte	4
00000788 000101         6409 	.byte	0,1,1
                        6410 	.section	.debug_info
                        6411 .LDW_4b43cc8:
00000fc7 0f             6412 	.byte	15
00000fc8 63747800       6413 	.strz	"ctx"
00000fcc e605           6414 	.byte	230,5
00000fce 1f             6415 	.byte	31
00000fcf 01             6416 	.byte	1
00000fd0 00000000*      6417 	.word	.LDW_400d760
00000fd4 00             6418 	.byte	0
00000fd5 016b           6419 	.byte	1,107
                        6420 
                        6421 .LDW_4b438a8:
00000fd7 0f             6422 	.byte	15
00000fd8 646967657374   6423 	.strz	"digest"
00000fde 00 
00000fdf e605           6424 	.byte	230,5
00000fe1 33             6425 	.byte	51
00000fe2 01             6426 	.byte	1
00000fe3 00000000*      6427 	.word	.LDW_3fc6b38
00000fe7 00             6428 	.byte	0
00000fe8 0168           6429 	.byte	1,104
                        6430 
                        6431 .LDW_4b2ee48:
00000fea 1d             6432 	.byte	29
00000feb 00000000*      6433 	.word	.LDW24
00000fef 00000000*      6434 	.word	.LDW34
                        6435 
                        6436 .LDW_4b43900:
00000ff3 04             6437 	.byte	4
00000ff4 626c6f636b5f   6438 	.strz	"block_nb"
00000ffa 6e6200 
00000ffd e805           6439 	.byte	232,5
00000fff 12             6440 	.byte	18
00001000 01             6441 	.byte	1
00001001 00000000*      6442 	.word	.LDW_3fc6c88
00001005 00             6443 	.byte	0
00001006 00             6444 	.byte	0
00001007 0169           6445 	.byte	1,105
                        6446 
                        6447 .LDW_4b43958:
00001009 05             6448 	.byte	5
0000100a 706d5f6c656e   6449 	.strz	"pm_len"
00001010 00 
00001011 e905           6450 	.byte	233,5
00001013 12             6451 	.byte	18
00001014 01             6452 	.byte	1
00001015 00000000*      6453 	.word	.LDW_3fc6c88
00001019 00             6454 	.byte	0
0000101a 00             6455 	.byte	0
                        6456 
                        6457 .LDW_4b439b0:
0000101b 04             6458 	.byte	4
0000101c 6c656e5f6200   6459 	.strz	"len_b"

                                                                      Page 112
                                                              C:\Users\nhuliyap\AppData\Local\Temp\gh_00009081.s
00001022 ea05           6460 	.byte	234,5
00001024 12             6461 	.byte	18
00001025 01             6462 	.byte	1
00001026 00000000*      6463 	.word	.LDW_3fc6c88
0000102a 00             6464 	.byte	0
0000102b 00             6465 	.byte	0
0000102c 016d           6466 	.byte	1,109
                        6467 
                        6468 .LDW_4b43a60:
0000102e 04             6469 	.byte	4
0000102f 6900           6470 	.strz	"i"
00001031 ed05           6471 	.byte	237,5
00001033 09             6472 	.byte	9
00001034 01             6473 	.byte	1
00001035 00000000*      6474 	.word	.LDW_3fc6c50
00001039 00             6475 	.byte	0
0000103a 00             6476 	.byte	0
0000103b 0161           6477 	.byte	1,97
                        6478 
0000103d 00             6479 	.byte	0
                        6480 
0000103e 00             6481 	.byte	0
                        6482 
0000103f 00             6483 	.byte	0
                        6484 
                        6485 	.section	.debug_line
                        6486 .Ldw_line_end:
                        6487 	.section	.debug_macinfo
00000000 01             6488 	.byte	1
00000001 00             6489 	.byte	0
00000002 5f5f6768735f   6490 	.strz	"__ghs__ 1"
00000008 5f203100 
0000000c 01             6491 	.byte	1
0000000d 00             6492 	.byte	0
0000000e 5f5f53544443   6493 	.strz	"__STDC__ 0"
00000014 5f5f203000 
00000019 01             6494 	.byte	1
0000001a 00             6495 	.byte	0
0000001b 5f5f53544443   6496 	.strz	"__STDC_VERSION__ 199409L"
00000021 5f5645525349 
00000027 4f4e5f5f2031 
0000002d 39393430394c 
00000033 00 
00000034 01             6497 	.byte	1
00000035 00             6498 	.byte	0
00000036 5f5f41545452   6499 	.strz	"__ATTRIBUTES 1"
0000003c 494255544553 
00000042 203100 
00000045 01             6500 	.byte	1
00000046 00             6501 	.byte	0
00000047 5f5f494e545f   6502 	.strz	"__INT_BIT 32"
0000004d 424954203332 
00000053 00 
00000054 01             6503 	.byte	1
00000055 00             6504 	.byte	0
00000056 5f5f5054525f   6505 	.strz	"__PTR_BIT 32"
0000005c 424954203332 
00000062 00 
00000063 01             6506 	.byte	1
00000064 00             6507 	.byte	0
00000065 5f5f4c4c4f4e   6508 	.strz	"__LLONG_BIT 64"

                                                                      Page 113
                                                              C:\Users\nhuliyap\AppData\Local\Temp\gh_00009081.s
0000006b 475f42495420 
00000071 363400 
00000074 01             6509 	.byte	1
00000075 00             6510 	.byte	0
00000076 5f5f4748535f   6511 	.strz	"__GHS_Inline_String_Functions 1"
0000007c 496e6c696e65 
00000082 5f537472696e 
00000088 675f46756e63 
0000008e 74696f6e7320 
00000094 3100 
00000096 01             6512 	.byte	1
00000097 00             6513 	.byte	0
00000098 5f5f4748535f   6514 	.strz	"__GHS_Inline_Memory_Functions 1"
0000009e 496e6c696e65 
000000a4 5f4d656d6f72 
000000aa 795f46756e63 
000000b0 74696f6e7320 
000000b6 3100 
000000b8 03             6515 	.byte	3
000000b9 00             6516 	.byte	0
000000ba 01             6517 	.byte	1
000000bb 03             6518 	.byte	3
000000bc 01             6519 	.byte	1
000000bd 02             6520 	.byte	2
000000be 03             6521 	.byte	3
000000bf 1c             6522 	.byte	28
000000c0 03             6523 	.byte	3
000000c1 04             6524 	.byte	4
000000c2 03             6525 	.byte	3
000000c3 1d             6526 	.byte	29
000000c4 04             6527 	.byte	4
000000c5 03             6528 	.byte	3
000000c6 1b             6529 	.byte	27
000000c7 05             6530 	.byte	5
000000c8 03             6531 	.byte	3
000000c9 54             6532 	.byte	84
000000ca 06             6533 	.byte	6
000000cb 04             6534 	.byte	4
000000cc 04             6535 	.byte	4
000000cd 04             6536 	.byte	4
000000ce 04             6537 	.byte	4
000000cf 03             6538 	.byte	3
000000d0 03             6539 	.byte	3
000000d1 07             6540 	.byte	7
000000d2 01             6541 	.byte	1
000000d3 1d             6542 	.byte	29
000000d4 5f535452494e   6543 	.strz	"_STRING_H "
000000da 475f482000 
000000df 03             6544 	.byte	3
000000e0 1e             6545 	.byte	30
000000e1 08             6546 	.byte	8
000000e2 04             6547 	.byte	4
000000e3 01             6548 	.byte	1
000000e4 27             6549 	.byte	39
000000e5 5f5f52657374   6550 	.strz	"__Restrict "
000000eb 726963742000 
000000f1 03             6551 	.byte	3
000000f2 b001           6552 	.byte	176,1
000000f4 09             6553 	.byte	9
000000f5 01             6554 	.byte	1
000000f6 23             6555 	.byte	35

                                                                      Page 114
                                                              C:\Users\nhuliyap\AppData\Local\Temp\gh_00009081.s
000000f7 5f5f4748535f   6556 	.strz	"__GHS_EXTERN_INLINE __inline"
000000fd 45585445524e 
00000103 5f494e4c494e 
00000109 45205f5f696e 
0000010f 6c696e6500 
00000114 01             6557 	.byte	1
00000115 24             6558 	.byte	36
00000116 5f5f4748535f   6559 	.strz	"__GHS_RENAME_MEMFUNCS "
0000011c 52454e414d45 
00000122 5f4d454d4655 
00000128 4e43532000 
0000012d 01             6560 	.byte	1
0000012e 2f             6561 	.byte	47
0000012f 5f5f4748535f   6562 	.strz	"__GHS_CONST "
00000135 434f4e535420 
0000013b 00 
0000013c 01             6563 	.byte	1
0000013d 43             6564 	.byte	67
0000013e 5f5f4748535f   6565 	.strz	"__GHS_LOOPS(__GHS_N) if (__GHS_N) do {"
00000144 4c4f4f505328 
0000014a 5f5f4748535f 
00000150 4e2920696620 
00000156 285f5f474853 
0000015c 5f4e2920646f 
00000162 207b00 
00000165 01             6566 	.byte	1
00000166 44             6567 	.byte	68
00000167 5f5f4748535f   6568 	.strz	"__GHS_LOOPE(__GHS_N) } while(--__GHS_N)"
0000016d 4c4f4f504528 
00000173 5f5f4748535f 
00000179 4e29207d2077 
0000017f 68696c65282d 
00000185 2d5f5f474853 
0000018b 5f4e2900 
0000018f 01             6569 	.byte	1
00000190 52             6570 	.byte	82
00000191 5f5f4748535f   6571 	.strz	"__GHS_INCR(__GHS_P) (__GHS_P-1)"
00000197 494e4352285f 
0000019d 5f4748535f50 
000001a3 2920285f5f47 
000001a9 48535f502d31 
000001af 2900 
000001b1 01             6572 	.byte	1
000001b2 53             6573 	.byte	83
000001b3 5f5f4748535f   6574 	.strz	"__GHS_DECR(__GHS_P) __GHS_P"
000001b9 44454352285f 
000001bf 5f4748535f50 
000001c5 29205f5f4748 
000001cb 535f5000 
000001cf 01             6575 	.byte	1
000001d0 54             6576 	.byte	84
000001d1 5f5f4748535f   6577 	.strz	"__GHS_NEXT(__GHS_P) __GHS_P++"
000001d7 4e455854285f 
000001dd 5f4748535f50 
000001e3 29205f5f4748 
000001e9 535f502b2b00 
000001ef 01             6578 	.byte	1
000001f0 55             6579 	.byte	85
000001f1 5f5f4748535f   6580 	.strz	"__GHS_PREV(__GHS_P) __GHS_P--"
000001f7 50524556285f 
000001fd 5f4748535f50 

                                                                      Page 115
                                                              C:\Users\nhuliyap\AppData\Local\Temp\gh_00009081.s
00000203 29205f5f4748 
00000209 535f502d2d00 
0000020f 01             6581 	.byte	1
00000210 56             6582 	.byte	86
00000211 5f5f4748535f   6583 	.strz	"__GHS_LAST(__GHS_P) (__GHS_P-1)"
00000217 4c415354285f 
0000021d 5f4748535f50 
00000223 2920285f5f47 
00000229 48535f502d31 
0000022f 2900 
00000231 01             6584 	.byte	1
00000232 64             6585 	.byte	100
00000233 6d656d636872   6586 	.strz	"memchr(__GHS_CV,__GHS_M,__GHS_n) __ghs_memchr(__GHS_CV, __GHS_M, __GHS_n)"
00000239 285f5f474853 
0000023f 5f43562c5f5f 
00000245 4748535f4d2c 
0000024b 5f5f4748535f 
00000251 6e29205f5f67 
00000257 68735f6d656d 
0000025d 636872285f5f 
00000263 4748535f4356 
00000269 2c205f5f4748 
0000026f 535f4d2c205f 
00000275 5f4748535f6e 
0000027b 2900 
0000027d 01             6587 	.byte	1
0000027e 79             6588 	.byte	121
0000027f 6d656d636d70   6589 	.strz	"memcmp(__GHS_CV1,__GHS_CV2,__GHS_n) __ghs_memcmp(__GHS_CV1, __GHS_CV2, __GHS_n)"
00000285 285f5f474853 
0000028b 5f4356312c5f 
00000291 5f4748535f43 
00000297 56322c5f5f47 
0000029d 48535f6e2920 
000002a3 5f5f6768735f 
000002a9 6d656d636d70 
000002af 285f5f474853 
000002b5 5f4356312c20 
000002bb 5f5f4748535f 
000002c1 4356322c205f 
000002c7 5f4748535f6e 
000002cd 2900 
000002cf 01             6590 	.byte	1
000002d0 8e01           6591 	.byte	142,1
000002d2 5f5f4748535f   6592 	.strz	"__GHS_INRANGE(I,L,H) (((unsigned long long) ((I)-(L)))<=((unsigned long long) ((H)-(L))))"
000002d8 494e52414e47 
000002de 4528492c4c2c 
000002e4 482920282828 
000002ea 756e7369676e 
000002f0 6564206c6f6e 
000002f6 67206c6f6e67 
000002fc 292028284929 
00000302 2d284c292929 
00000308 3c3d2828756e 
0000030e 7369676e6564 
00000314 206c6f6e6720 
0000031a 6c6f6e672920 
00000320 282848292d28 
00000326 4c2929292900 
0000032c 01             6593 	.byte	1
0000032d 9801           6594 	.byte	152,1
0000032f 6d656d6d6f76   6595 	.strz	"memmove(__GHS_R,__GHS_CV,__GHS_n) __ghs_memmove(__GHS_R, __GHS_CV, __GHS_n)"

                                                                      Page 116
                                                              C:\Users\nhuliyap\AppData\Local\Temp\gh_00009081.s
00000335 65285f5f4748 
0000033b 535f522c5f5f 
00000341 4748535f4356 
00000347 2c5f5f474853 
0000034d 5f6e29205f5f 
00000353 6768735f6d65 
00000359 6d6d6f766528 
0000035f 5f5f4748535f 
00000365 522c205f5f47 
0000036b 48535f43562c 
00000371 205f5f474853 
00000377 5f6e2900 
0000037b 01             6596 	.byte	1
0000037c 9d01           6597 	.byte	157,1
0000037e 5f5f4748535f   6598 	.strz	"__GHS_LOOPS(__GHS_N) do {"
00000384 4c4f4f505328 
0000038a 5f5f4748535f 
00000390 4e2920646f20 
00000396 7b00 
00000398 04             6599 	.byte	4
00000399 03             6600 	.byte	3
0000039a b501           6601 	.byte	181,1
0000039c 0a             6602 	.byte	10
0000039d 01             6603 	.byte	1
0000039e 23             6604 	.byte	35
0000039f 5f5f4748535f   6605 	.strz	"__GHS_EXTERN_INLINE __inline"
000003a5 45585445524e 
000003ab 5f494e4c494e 
000003b1 45205f5f696e 
000003b7 6c696e6500 
000003bc 01             6606 	.byte	1
000003bd 24             6607 	.byte	36
000003be 5f5f4748535f   6608 	.strz	"__GHS_RENAME_STRFUNCS "
000003c4 52454e414d45 
000003ca 5f5354524655 
000003d0 4e43532000 
000003d5 01             6609 	.byte	1
000003d6 43             6610 	.byte	67
000003d7 5f5f4748535f   6611 	.strz	"__GHS_LOOPS(__GHS_N) if (__GHS_N) do {"
000003dd 4c4f4f505328 
000003e3 5f5f4748535f 
000003e9 4e2920696620 
000003ef 285f5f474853 
000003f5 5f4e2920646f 
000003fb 207b00 
000003fe 01             6612 	.byte	1
000003ff 44             6613 	.byte	68
00000400 5f5f4748535f   6614 	.strz	"__GHS_LOOPE(__GHS_N) } while(--__GHS_N)"
00000406 4c4f4f504528 
0000040c 5f5f4748535f 
00000412 4e29207d2077 
00000418 68696c65282d 
0000041e 2d5f5f474853 
00000424 5f4e2900 
00000428 01             6615 	.byte	1
00000429 52             6616 	.byte	82
0000042a 5f5f4748535f   6617 	.strz	"__GHS_DECR(__GHS_P) __GHS_P"
00000430 44454352285f 
00000436 5f4748535f50 
0000043c 29205f5f4748 
00000442 535f5000 

                                                                      Page 117
                                                              C:\Users\nhuliyap\AppData\Local\Temp\gh_00009081.s
00000446 01             6618 	.byte	1
00000447 53             6619 	.byte	83
00000448 5f5f4748535f   6620 	.strz	"__GHS_NEXT(__GHS_P) __GHS_P++"
0000044e 4e455854285f 
00000454 5f4748535f50 
0000045a 29205f5f4748 
00000460 535f502b2b00 
00000466 01             6621 	.byte	1
00000467 54             6622 	.byte	84
00000468 5f5f4748535f   6623 	.strz	"__GHS_LAST(__GHS_P) (__GHS_P-1)"
0000046e 4c415354285f 
00000474 5f4748535f50 
0000047a 2920285f5f47 
00000480 48535f502d31 
00000486 2900 
00000488 01             6624 	.byte	1
00000489 70             6625 	.byte	112
0000048a 737472636872   6626 	.strz	"strchr(__GHS_CS,__GHS_M) __ghs_strchr(__GHS_CS, __GHS_M)"
00000490 285f5f474853 
00000496 5f43532c5f5f 
0000049c 4748535f4d29 
000004a2 205f5f676873 
000004a8 5f7374726368 
000004ae 72285f5f4748 
000004b4 535f43532c20 
000004ba 5f5f4748535f 
000004c0 4d2900 
000004c3 01             6627 	.byte	1
000004c4 8401           6628 	.byte	132,1
000004c6 737472726368   6629 	.strz	"strrchr(__GHS_CS,__GHS_M) __ghs_strrchr(__GHS_CS, __GHS_M)"
000004cc 72285f5f4748 
000004d2 535f43532c5f 
000004d8 5f4748535f4d 
000004de 29205f5f6768 
000004e4 735f73747272 
000004ea 636872285f5f 
000004f0 4748535f4353 
000004f6 2c205f5f4748 
000004fc 535f4d2900 
00000501 01             6630 	.byte	1
00000502 ab01           6631 	.byte	171,1
00000504 7374726e6370   6632 	.strz	"strncpy(__GHS_R,__GHS_CS,__GHS_n) __ghs_strncpy(__GHS_R, __GHS_CS, __GHS_n)"
0000050a 79285f5f4748 
00000510 535f522c5f5f 
00000516 4748535f4353 
0000051c 2c5f5f474853 
00000522 5f6e29205f5f 
00000528 6768735f7374 
0000052e 726e63707928 
00000534 5f5f4748535f 
0000053a 522c205f5f47 
00000540 48535f43532c 
00000546 205f5f474853 
0000054c 5f6e2900 
00000550 01             6633 	.byte	1
00000551 fd01           6634 	.byte	253,1
00000553 7374726e636d   6635 	.strz	"strncmp(__GHS_CS1,__GHS_CS2,__GHS_n) __ghs_strncmp(__GHS_CS1, __GHS_CS2, __GHS_n)"
00000559 70285f5f4748 
0000055f 535f4353312c 
00000565 5f5f4748535f 
0000056b 4353322c5f5f 

                                                                      Page 118
                                                              C:\Users\nhuliyap\AppData\Local\Temp\gh_00009081.s
00000571 4748535f6e29 
00000577 205f5f676873 
0000057d 5f7374726e63 
00000583 6d70285f5f47 
00000589 48535f435331 
0000058f 2c205f5f4748 
00000595 535f4353322c 
0000059b 205f5f474853 
000005a1 5f6e2900 
000005a5 01             6636 	.byte	1
000005a6 9602           6637 	.byte	150,2
000005a8 737472636174   6638 	.strz	"strcat(__GHS_R,__GHS_CS) __ghs_strcat(__GHS_R, __GHS_CS)"
000005ae 285f5f474853 
000005b4 5f522c5f5f47 
000005ba 48535f435329 
000005c0 205f5f676873 
000005c6 5f7374726361 
000005cc 74285f5f4748 
000005d2 535f522c205f 
000005d8 5f4748535f43 
000005de 532900 
000005e1 01             6639 	.byte	1
000005e2 ab02           6640 	.byte	171,2
000005e4 7374726e6361   6641 	.strz	"strncat(__GHS_R,__GHS_CS,__GHS_n) __ghs_strncat(__GHS_R, __GHS_CS, __GHS_n)"
000005ea 74285f5f4748 
000005f0 535f522c5f5f 
000005f6 4748535f4353 
000005fc 2c5f5f474853 
00000602 5f6e29205f5f 
00000608 6768735f7374 
0000060e 726e63617428 
00000614 5f5f4748535f 
0000061a 522c205f5f47 
00000620 48535f43532c 
00000626 205f5f474853 
0000062c 5f6e2900 
00000630 01             6642 	.byte	1
00000631 cc02           6643 	.byte	204,2
00000633 737472737472   6644 	.strz	"strstr(__GHS_CS1,__GHS_CS2) __ghs_strstr(__GHS_CS1, __GHS_CS2)"
00000639 285f5f474853 
0000063f 5f4353312c5f 
00000645 5f4748535f43 
0000064b 533229205f5f 
00000651 6768735f7374 
00000657 72737472285f 
0000065d 5f4748535f43 
00000663 53312c205f5f 
00000669 4748535f4353 
0000066f 322900 
00000672 04             6645 	.byte	4
00000673 04             6646 	.byte	4
00000674 03             6647 	.byte	3
00000675 05             6648 	.byte	5
00000676 0b             6649 	.byte	11
00000677 01             6650 	.byte	1
00000678 0b             6651 	.byte	11
00000679 534841323536   6652 	.strz	"SHA256_BLOCK_SIZE ( 512 / 8)"
0000067f 5f424c4f434b 
00000685 5f53495a4520 
0000068b 282035313220 
00000691 2f20382900 

                                                                      Page 119
                                                              C:\Users\nhuliyap\AppData\Local\Temp\gh_00009081.s
00000696 01             6653 	.byte	1
00000697 0c             6654 	.byte	12
00000698 534841353132   6655 	.strz	"SHA512_BLOCK_SIZE (1024 / 8)"
0000069e 5f424c4f434b 
000006a4 5f53495a4520 
000006aa 283130323420 
000006b0 2f20382900 
000006b5 01             6656 	.byte	1
000006b6 0d             6657 	.byte	13
000006b7 534841333834   6658 	.strz	"SHA384_BLOCK_SIZE SHA512_BLOCK_SIZE"
000006bd 5f424c4f434b 
000006c3 5f53495a4520 
000006c9 534841353132 
000006cf 5f424c4f434b 
000006d5 5f53495a4500 
000006db 01             6659 	.byte	1
000006dc 0e             6660 	.byte	14
000006dd 534841323234   6661 	.strz	"SHA224_BLOCK_SIZE SHA256_BLOCK_SIZE"
000006e3 5f424c4f434b 
000006e9 5f53495a4520 
000006ef 534841323536 
000006f5 5f424c4f434b 
000006fb 5f53495a4500 
00000701 03             6662 	.byte	3
00000702 11             6663 	.byte	17
00000703 0c             6664 	.byte	12
00000704 04             6665 	.byte	4
00000705 04             6666 	.byte	4
00000706 01             6667 	.byte	1
00000707 07             6668 	.byte	7
00000708 534846522878   6669 	.strz	"SHFR(x,n) (x >> n)"
0000070e 2c6e29202878 
00000714 203e3e206e29 
0000071a 00 
0000071b 01             6670 	.byte	1
0000071c 08             6671 	.byte	8
0000071d 524f54522878   6672 	.strz	"ROTR(x,n) ((x >> n) | (x << ((sizeof(x) << 3) - n)))"
00000723 2c6e29202828 
00000729 78203e3e206e 
0000072f 29207c202878 
00000735 203c3c202828 
0000073b 73697a656f66 
00000741 287829203c3c 
00000747 203329202d20 
0000074d 6e29292900 
00000752 01             6673 	.byte	1
00000753 0a             6674 	.byte	10
00000754 434828782c79   6675 	.strz	"CH(x,y,z) ((x & y) ^ (~x & z))"
0000075a 2c7a29202828 
00000760 782026207929 
00000766 205e20287e78 
0000076c 2026207a2929 
00000772 00 
00000773 01             6676 	.byte	1
00000774 0b             6677 	.byte	11
00000775 4d414a28782c   6678 	.strz	"MAJ(x,y,z) ((x & y) ^ (x & z) ^ (y & z))"
0000077b 792c7a292028 
00000781 287820262079 
00000787 29205e202878 
0000078d 2026207a2920 
00000793 5e2028792026 

                                                                      Page 120
                                                              C:\Users\nhuliyap\AppData\Local\Temp\gh_00009081.s
00000799 207a292900 
0000079e 01             6679 	.byte	1
0000079f 0d             6680 	.byte	13
000007a0 534841323536   6681 	.strz	"SHA256_F1(x) (ROTR(x, 2) ^ ROTR(x, 13) ^ ROTR(x, 22))"
000007a6 5f4631287829 
000007ac 2028524f5452 
000007b2 28782c203229 
000007b8 205e20524f54 
000007be 5228782c2031 
000007c4 3329205e2052 
000007ca 4f545228782c 
000007d0 203232292900 
000007d6 01             6682 	.byte	1
000007d7 0e             6683 	.byte	14
000007d8 534841323536   6684 	.strz	"SHA256_F2(x) (ROTR(x, 6) ^ ROTR(x, 11) ^ ROTR(x, 25))"
000007de 5f4632287829 
000007e4 2028524f5452 
000007ea 28782c203629 
000007f0 205e20524f54 
000007f6 5228782c2031 
000007fc 3129205e2052 
00000802 4f545228782c 
00000808 203235292900 
0000080e 01             6685 	.byte	1
0000080f 0f             6686 	.byte	15
00000810 534841323536   6687 	.strz	"SHA256_F3(x) (ROTR(x, 7) ^ ROTR(x, 18) ^ SHFR(x, 3))"
00000816 5f4633287829 
0000081c 2028524f5452 
00000822 28782c203729 
00000828 205e20524f54 
0000082e 5228782c2031 
00000834 3829205e2053 
0000083a 48465228782c 
00000840 2033292900 
00000845 01             6688 	.byte	1
00000846 10             6689 	.byte	16
00000847 534841323536   6690 	.strz	"SHA256_F4(x) (ROTR(x, 17) ^ ROTR(x, 19) ^ SHFR(x, 10))"
0000084d 5f4634287829 
00000853 2028524f5452 
00000859 28782c203137 
0000085f 29205e20524f 
00000865 545228782c20 
0000086b 313929205e20 
00000871 534846522878 
00000877 2c2031302929 
0000087d 00 
0000087e 01             6691 	.byte	1
0000087f 12             6692 	.byte	18
00000880 534841353132   6693 	.strz	"SHA512_F1(x) (ROTR(x, 28) ^ ROTR(x, 34) ^ ROTR(x, 39))"
00000886 5f4631287829 
0000088c 2028524f5452 
00000892 28782c203238 
00000898 29205e20524f 
0000089e 545228782c20 
000008a4 333429205e20 
000008aa 524f54522878 
000008b0 2c2033392929 
000008b6 00 
000008b7 01             6694 	.byte	1
000008b8 13             6695 	.byte	19
000008b9 534841353132   6696 	.strz	"SHA512_F2(x) (ROTR(x, 14) ^ ROTR(x, 18) ^ ROTR(x, 41))"

                                                                      Page 121
                                                              C:\Users\nhuliyap\AppData\Local\Temp\gh_00009081.s
000008bf 5f4632287829 
000008c5 2028524f5452 
000008cb 28782c203134 
000008d1 29205e20524f 
000008d7 545228782c20 
000008dd 313829205e20 
000008e3 524f54522878 
000008e9 2c2034312929 
000008ef 00 
000008f0 01             6697 	.byte	1
000008f1 14             6698 	.byte	20
000008f2 534841353132   6699 	.strz	"SHA512_F3(x) (ROTR(x, 1) ^ ROTR(x, 8) ^ SHFR(x, 7))"
000008f8 5f4633287829 
000008fe 2028524f5452 
00000904 28782c203129 
0000090a 205e20524f54 
00000910 5228782c2038 
00000916 29205e205348 
0000091c 465228782c20 
00000922 37292900 
00000926 01             6700 	.byte	1
00000927 15             6701 	.byte	21
00000928 534841353132   6702 	.strz	"SHA512_F4(x) (ROTR(x, 19) ^ ROTR(x, 61) ^ SHFR(x, 6))"
0000092e 5f4634287829 
00000934 2028524f5452 
0000093a 28782c203139 
00000940 29205e20524f 
00000946 545228782c20 
0000094c 363129205e20 
00000952 534846522878 
00000958 2c2036292900 
0000095e 01             6703 	.byte	1
0000095f 17             6704 	.byte	23
00000960 554e5041434b   6705 	.strz	"UNPACK32(x,str) { *((str) + 3) = (uint8) ((x) ); *((str) + 2) = (uint8) ((x) >> 8); *((str) + 1) = (uint8) ((x) >> 16); *((str) + 0) = (uint8) ((x) >> 24); }"
00000966 333228782c73 
0000096c 747229207b20 
00000972 2a2828737472 
00000978 29202b203329 
0000097e 203d20287569 
00000984 6e7438292028 
0000098a 28782920293b 
00000990 202a28287374 
00000996 7229202b2032 
0000099c 29203d202875 
000009a2 696e74382920 
000009a8 28287829203e 
000009ae 3e2038293b20 
000009b4 2a2828737472 
000009ba 29202b203129 
000009c0 203d20287569 
000009c6 6e7438292028 
000009cc 287829203e3e 
000009d2 203136293b20 
000009d8 2a2828737472 
000009de 29202b203029 
000009e4 203d20287569 
000009ea 6e7438292028 
000009f0 287829203e3e 
000009f6 203234293b20 
000009fc 7d00 
000009fe 01             6706 	.byte	1

                                                                      Page 122
                                                              C:\Users\nhuliyap\AppData\Local\Temp\gh_00009081.s
000009ff 1f             6707 	.byte	31
00000a00 5041434b3332   6708 	.strz	"PACK32(str,x) { *(x) = ((uint32) *((str) + 3) ) | ((uint32) *((str) + 2) << 8) | ((uint32) *((str) + 1) << 16) | ((uint32) *((str) + 0) << 24); }"
00000a06 287374722c78 
00000a0c 29207b202a28 
00000a12 7829203d2028 
00000a18 2875696e7433 
00000a1e 3229202a2828 
00000a24 73747229202b 
00000a2a 203329202920 
00000a30 7c2028287569 
00000a36 6e7433322920 
00000a3c 2a2828737472 
00000a42 29202b203229 
00000a48 203c3c203829 
00000a4e 207c20282875 
00000a54 696e74333229 
00000a5a 202a28287374 
00000a60 7229202b2031 
00000a66 29203c3c2031 
00000a6c 3629207c2028 
00000a72 2875696e7433 
00000a78 3229202a2828 
00000a7e 73747229202b 
00000a84 203029203c3c 
00000a8a 203234293b20 
00000a90 7d00 
00000a92 01             6709 	.byte	1
00000a93 27             6710 	.byte	39
00000a94 554e5041434b   6711 	.byte	85,78,80,65,67,75,54,52,40,120,44,115,116,114,41,32,123,32,42,40,40,115,116,114,41,32,43,32,55,41,32,61,32,40,117,105,110,116,56,41,32,40,40,120,41,32,41,59,32,42,40,40,115,116,114,41,32,43,32,54,41
00000a9a 363428782c73 
00000aa0 747229207b20 
00000aa6 2a2828737472 
00000aac 29202b203729 
00000ab2 203d20287569 
00000ab8 6e7438292028 
00000abe 28782920293b 
00000ac4 202a28287374 
00000aca 7229202b2036 
00000ad0 29 
00000ad1 203d20287569   6712 	.byte	32,61,32,40,117,105,110,116,56,41,32,40,40,120,41,32,62,62,32,56,41,59,32,42,40,40,115,116,114,41,32,43,32,53,41,32,61,32,40,117,105,110,116,56,41,32,40,40,120,41,32,62,62,32,49,54,41,59,32,42,40
00000ad7 6e7438292028 
00000add 287829203e3e 
00000ae3 2038293b202a 
00000ae9 282873747229 
00000aef 202b20352920 
00000af5 3d202875696e 
00000afb 743829202828 
00000b01 7829203e3e20 
00000b07 3136293b202a 
00000b0d 28 
00000b0e 287374722920   6713 	.byte	40,115,116,114,41,32,43,32,52,41,32,61,32,40,117,105,110,116,56,41,32,40,40,120,41,32,62,62,32,50,52,41,59,32,42,40,40,115,116,114,41,32,43,32,51,41,32,61,32,40,117,105,110,116,56,41,32,40,40,120,41
00000b14 2b203429203d 
00000b1a 202875696e74 
00000b20 382920282878 
00000b26 29203e3e2032 
00000b2c 34293b202a28 
00000b32 287374722920 
00000b38 2b203329203d 
00000b3e 202875696e74 
00000b44 382920282878 
00000b4a 29 

                                                                      Page 123
                                                              C:\Users\nhuliyap\AppData\Local\Temp\gh_00009081.s
00000b4b 203e3e203332   6714 	.byte	32,62,62,32,51,50,41,59,32,42,40,40,115,116,114,41,32,43,32,50,41,32,61,32,40,117,105,110,116,56,41,32,40,40,120,41,32,62,62,32,52,48,41,59,32,42,40,40,115,116,114,41,32,43,32,49,41,32,61,32,40
00000b51 293b202a2828 
00000b57 73747229202b 
00000b5d 203229203d20 
00000b63 2875696e7438 
00000b69 292028287829 
00000b6f 203e3e203430 
00000b75 293b202a2828 
00000b7b 73747229202b 
00000b81 203129203d20 
00000b87 28 
00000b88 75696e743829   6715 	.byte	117,105,110,116,56,41,32,40,40,120,41,32,62,62,32,52,56,41,59,32,42,40,40,115,116,114,41,32,43,32,48,41,32,61,32,40,117,105,110,116,56,41,32,40,40,120,41,32,62,62,32,53,54,41,59,32,125,0
00000b8e 202828782920 
00000b94 3e3e20343829 
00000b9a 3b202a282873 
00000ba0 747229202b20 
00000ba6 3029203d2028 
00000bac 75696e743829 
00000bb2 202828782920 
00000bb8 3e3e20353629 
00000bbe 3b207d00 
00000bc2 01             6716 	.byte	1
00000bc3 33             6717 	.byte	51
00000bc4 5041434b3634   6718 	.byte	80,65,67,75,54,52,40,115,116,114,44,120,41,32,123,32,42,40,120,41,32,61,32,40,40,117,105,110,116,54,52,41,32,42,40,40,115,116,114,41,32,43,32,55,41,32,41,32,124,32,40,40,117,105,110,116,54,52,41,32,42
00000bca 287374722c78 
00000bd0 29207b202a28 
00000bd6 7829203d2028 
00000bdc 2875696e7436 
00000be2 3429202a2828 
00000be8 73747229202b 
00000bee 203729202920 
00000bf4 7c2028287569 
00000bfa 6e7436342920 
00000c00 2a 
00000c01 282873747229   6719 	.byte	40,40,115,116,114,41,32,43,32,54,41,32,60,60,32,56,41,32,124,32,40,40,117,105,110,116,54,52,41,32,42,40,40,115,116,114,41,32,43,32,53,41,32,60,60,32,49,54,41,32,124,32,40,40,117,105,110,116,54,52,41
00000c07 202b20362920 
00000c0d 3c3c20382920 
00000c13 7c2028287569 
00000c19 6e7436342920 
00000c1f 2a2828737472 
00000c25 29202b203529 
00000c2b 203c3c203136 
00000c31 29207c202828 
00000c37 75696e743634 
00000c3d 29 
00000c3e 202a28287374   6720 	.byte	32,42,40,40,115,116,114,41,32,43,32,52,41,32,60,60,32,50,52,41,32,124,32,40,40,117,105,110,116,54,52,41,32,42,40,40,115,116,114,41,32,43,32,51,41,32,60,60,32,51,50,41,32,124,32,40,40,117,105,110,116
00000c44 7229202b2034 
00000c4a 29203c3c2032 
00000c50 3429207c2028 
00000c56 2875696e7436 
00000c5c 3429202a2828 
00000c62 73747229202b 
00000c68 203329203c3c 
00000c6e 20333229207c 
00000c74 20282875696e 
00000c7a 74 
00000c7b 363429202a28   6721 	.byte	54,52,41,32,42,40,40,115,116,114,41,32,43,32,50,41,32,60,60,32,52,48,41,32,124,32,40,40,117,105,110,116,54,52,41,32,42,40,40,115,116,114,41,32,43,32,49,41,32,60,60,32,52,56,41,32,124,32,40,40,117
00000c81 287374722920 
00000c87 2b203229203c 
00000c8d 3c2034302920 
00000c93 7c2028287569 

                                                                      Page 124
                                                              C:\Users\nhuliyap\AppData\Local\Temp\gh_00009081.s
00000c99 6e7436342920 
00000c9f 2a2828737472 
00000ca5 29202b203129 
00000cab 203c3c203438 
00000cb1 29207c202828 
00000cb7 75 
00000cb8 696e74363429   6722 	.byte	105,110,116,54,52,41,32,42,40,40,115,116,114,41,32,43,32,48,41,32,60,60,32,53,54,41,59,32,125,0
00000cbe 202a28287374 
00000cc4 7229202b2030 
00000cca 29203c3c2035 
00000cd0 36293b207d00 
00000cd6 01             6723 	.byte	1
00000cd7 3f             6724 	.byte	63
00000cd8 534841323536   6725 	.strz	"SHA256_SCR(i) { w[i] = SHA256_F4(w[i - 2]) + w[i - 7] + SHA256_F3(w[i - 15]) + w[i - 16]; }"
00000cde 5f5343522869 
00000ce4 29207b20775b 
00000cea 695d203d2053 
00000cf0 48413235365f 
00000cf6 463428775b69 
00000cfc 202d20325d29 
00000d02 202b20775b69 
00000d08 202d20375d20 
00000d0e 2b2053484132 
00000d14 35365f463328 
00000d1a 775b69202d20 
00000d20 31355d29202b 
00000d26 20775b69202d 
00000d2c 2031365d3b20 
00000d32 7d00 
00000d34 01             6726 	.byte	1
00000d35 45             6727 	.byte	69
00000d36 534841353132   6728 	.strz	"SHA512_SCR(i) { w[i] = SHA512_F4(w[i - 2]) + w[i - 7] + SHA512_F3(w[i - 15]) + w[i - 16]; }"
00000d3c 5f5343522869 
00000d42 29207b20775b 
00000d48 695d203d2053 
00000d4e 48413531325f 
00000d54 463428775b69 
00000d5a 202d20325d29 
00000d60 202b20775b69 
00000d66 202d20375d20 
00000d6c 2b2053484135 
00000d72 31325f463328 
00000d78 775b69202d20 
00000d7e 31355d29202b 
00000d84 20775b69202d 
00000d8a 2031365d3b20 
00000d90 7d00 
00000d92 04             6729 	.byte	4
00000d93 00             6730 	.byte	0
                        6731 	.section	.debug_abbrev
00000124 00             6732 	.byte	0
                        6733 	.section	.debug_info
                        6734 .Ldw_end:
                        6735 .rh850_flags REGMODE32,DATA_ALIGN8,GP_FIX,EP_NONFIX,TP_FIX,REG2_RESERVE,G3K,GHS_MISALIGN,SDA_EXTRA_REGS_0
