                                                                      Page 1
                                                              C:\Users\nhuliyap\AppData\Local\Temp\gh_00002rs1.s
Command Line: C:\ghs\comp_201517\ease850.exe -w -elf -b0 -I../source/common -I../source/ProjectCompiler -I../source/ProjectCfg -I../source/SwcApplTpms -I../source/SwcApplEcuM -I../source/SwcServiceBswM -I../source/SwcServiceEcuM -I../source/SwcServiceNvM -I../source/SwcServiceOs -I../source/SwcServiceStartUp -I../source/McalAdc -I../source/McalDio -I../source/McalGpt -I../source/McalMcu -I../source/McalWdg -I../source/wrappers -I../source/wrappers/McalAta -I../source/McalLin -I../source/McalCan -I../source/wrappers/OS -I../source/McalFls -I../source/EcuabFee -I../source/EcuabMemIf -I../source/wrappers/VStdLib -I../source/wrappers/Crc -I../source/wrappers/FBL_APPL -I../source/wrappers/NVM_MANAGER -I../source/wrappers/DEM_MANAGER -I../source/wrappers/RDC_MANAGER -I../source/wrappers/ENV_MANAGER -I../source/wrappers/SYS_MANAGER -I../source/wrappers/EcuabCanIf -I../source/EcuabCanTrcv -I../source/wrappers/SwcServiceCanSM -I../source/wrappers/SwcServiceCanTp -I../source/wrappers/SwcServiceCanTp_PreCompile -I../source/wrappers/SwcServiceCom -I../source/wrappers/SwcServiceComM -I../source/wrappers/SwcServiceDcm -I../source/wrappers/SwcServicePduR -I../source/wrappers/SwcServiceEcuM -I../source/wrappers/Bfx -I../source/wrappers/SwcServiceDem -I../source/SwcServiceCom -I../source/SwcServiceDet -I../source/SwcServiceFiM -I../source/SwcServicePduR -I../source/SwcServiceSchM -I../source/wrappers/LibAutosarDiag -I../source/wrappers/rba_BswSrv -IC:\ghs\comp_201517\lib\rh850 -cg_underscore -cpu=rh850g3k -no_v850_simd -rh850_fpsimd=none -nomacro -patch_dbo=C:\_ECU2\ECU_Rivian_A1\Target\repo_projects\pRealEcu\cR_R2023.09.15\make\output\objects\WAlloc.dbo -source=WAlloc.c -o output\objects\gh_00002rs1.o -list=output\list\WAlloc.lst C:\Users\nhuliyap\AppData\Local\Temp\gh_00002rs1.s 
Original File: C:\Users\nhuliyap\AppData\Local\Temp\gh_00002rs1.s
Source File: WAlloc.c
Directory: C:\_ECU2\ECU_Rivian_A1\Target\repo_projects\pRealEcu\cR_R2023.09.15\make
Host OS: Windows
EASE: Copyright (C) 1983-2015 Green Hills Software.  All Rights Reserved.
Release: Compiler v2015.1.7
Build Directory: [Directory] BTOWORKER6:c:/build_2015_1_bto/2015-10-21.2100-2015_1_bto/win32-comp-ecom
Revision: [VCInfo] http://toolsvc/branches/release-branch-70-bto/src@544153 (built by build)
Revision Date: Thu Oct 22 07:50:13 2015

Release Date: Thu Oct 22 09:32:32 2015

                           1 --Driver Command: ccv850 ../source/SwcApplTpms/WAlloc.c -cpu=rh850 -fhard
                           2 --		-ignore_callt_state_in_interrupts -large_sda -misalign_pack
                           3 --		-nofarcalls -nofloatio -no_callt -Ogeneral -Onounroll
                           4 --		-prepare_dispose -registermode=32 -reserve_r2 -sda=0
                           5 --		-shorten_loads -Wshadow --brief_diagnostics --no_commons
                           6 --		--no_wrap_diagnostics --prototype_errors --short_enum -list -G
                           7 --		-dual_debug -dwarf -X5523 -lnk=-no_xda_modifications -D
                           8 --		NOT_READY_FOR_TESTING_OR_DEPLOYMENT -D IBTCM_SW_ANPASSUNGEN -D
                           9 --		BUILD_RIVIAN -c -inline_prologue -I../source/common
                          10 --		-I../source/ProjectCompiler -I../source/ProjectCfg
                          11 --		-I../source/SwcApplTpms -I../source/SwcApplEcuM
                          12 --		-I../source/SwcServiceBswM -I../source/SwcServiceEcuM
                          13 --		-I../source/SwcServiceNvM -I../source/SwcServiceOs
                          14 --		-I../source/SwcServiceStartUp -I../source/McalAdc
                          15 --		-I../source/McalDio -I../source/McalGpt -I../source/McalMcu
                          16 --		-I../source/McalWdg -I../source/wrappers
                          17 --		-I../source/wrappers/McalAta -I../source/McalLin
                          18 --		-I../source/McalCan -I../source/wrappers/OS -I../source/McalFls
                          19 --		-I../source/EcuabFee -I../source/EcuabMemIf
                          20 --		-I../source/wrappers/VStdLib -I../source/wrappers
                          21 --		-I../source/wrappers/Crc -I../source/wrappers/FBL_APPL
                          22 --		-I../source/wrappers/NVM_MANAGER -I../source/wrappers/DEM_MANAGER
                          23 --		-I../source/wrappers/RDC_MANAGER -I../source/wrappers/ENV_MANAGER
                          24 --		-I../source/wrappers/SYS_MANAGER -I../source/wrappers/EcuabCanIf
                          25 --		-I../source/EcuabCanTrcv -I../source/wrappers/SwcServiceCanSM
                          26 --		-I../source/wrappers/SwcServiceCanTp
                          27 --		-I../source/wrappers/SwcServiceCanTp_PreCompile
                          28 --		-I../source/wrappers/SwcServiceCom
                          29 --		-I../source/wrappers/SwcServiceComM
                          30 --		-I../source/wrappers/SwcServiceDcm
                          31 --		-I../source/wrappers/SwcServicePduR
                          32 --		-I../source/wrappers/SwcServiceEcuM -I../source/wrappers/Bfx
                          33 --		-I../source/wrappers/SwcServiceDem -I../source/SwcServiceCom
                          34 --		-I../source/SwcServiceDet -I../source/SwcServiceFiM
                          35 --		-I../source/SwcServicePduR -I../source/SwcServiceSchM
                          36 --		-I../source/wrappers/LibAutosarDiag
                          37 --		-I../source/wrappers/rba_BswSrv -object_dir=output/objects
                          38 --		-list_dir=output/list
                          39 --Source File:   ../source/SwcApplTpms/WAlloc.c
                          40 --Directory:     
                          41 --		C:\_ECU2\ECU_Rivian_A1\Target\repo_projects\pRealEcu\cR_R2023.09.15\make
                          42 --Compile Date:  Fri Sep 15 15:30:58 2023
                          43 --Host OS:       Win32
                          44 --Version:       C-RH850 2015.1.7 RELEASE VERSION
                          45 --Release:       Compiler v2015.1.7
                          46 --Revision Date: Thu Oct 22 08:06:12 2015
                          47 --Release Date:  Thu Oct 22 09:34:32 2015
                          48 -- ecom  -g -w -OM
                          49 	.text
                          50 ..bof.C.3A.5C_ECU2.5CECU_Rivian_A1.5CTarget.5Crepo_projects.5CpRealEcu.5CcR_R2023.2E09.2E15.5Cmake.5Coutput.5Cobjects.5CWAlloc...43.3A.5C_ECU2.5CECU_Rivian_A1.5CTarget.5Crepo_projects.5CpRealEcu.5CcR_R2023.2E09.2E15.5Cmake..65045C92..0::

                                                                      Page 2
                                                              C:\Users\nhuliyap\AppData\Local\Temp\gh_00002rs1.s
                          51 	.align	2
                          52 ..gh.f.f.1.e.0:
                          53 	.type	..gh.f.f.1.e.0,@object
                          54 	.size	..gh.f.f.1.e.0,0
                          55 	.global	_SetWActiveState..C.3A.5C_ECU2.5CECU_Rivian_A1.5CTarget.5Crepo_projects.5CpRealEcu.5CcR_R2023.2E09.2E15.5Cmake.5Coutput.5Cobjects.5CWAlloc.
                          56 _SetWActiveState..C.3A.5C_ECU2.5CECU_Rivian_A1.5CTarget.5Crepo_projects.5CpRealEcu.5CcR_R2023.2E09.2E15.5Cmake.5Coutput.5Cobjects.5CWAlloc.:
                          57 _SetWActiveState:
00000000 320600000000*    58 	mov	.L43,r18
                          59 --	    .bf
                          60 .LDW01:
                          61 --line112
                          62 ..lin.C.3A.5C_ECU2.5CECU_Rivian_A1.5CTarget.5Crepo_projects.5CpRealEcu.5CcR_R2023.2E09.2E15.5Cmake.5Coutput.5Cobjects.5CWAlloc.1::
                          63 .LDWlin1:
00000006 d832             64 	shl	24,r6
00000008 ca05*            65 	bne	.L4
                          66 --line113
                          67 ..lin.C.3A.5C_ECU2.5CECU_Rivian_A1.5CTarget.5Crepo_projects.5CpRealEcu.5CcR_R2023.2E09.2E15.5Cmake.5Coutput.5Cobjects.5CWAlloc.2::
                          68 .LDWlin2:
0000000a d2870600         69 	clr1	0,6[r18]
0000000e 7f00             70 	jmp	[lp]
                          71 .L4:
                          72 --line117
                          73 ..lin.C.3A.5C_ECU2.5CECU_Rivian_A1.5CTarget.5Crepo_projects.5CpRealEcu.5CcR_R2023.2E09.2E15.5Cmake.5Coutput.5Cobjects.5CWAlloc.3::
                          74 .LDWlin3:
00000010 d2070600         75 	set1	0,6[r18]
                          76 --	    .ef
                          77 .LDW11:
00000014 7f00             78 	jmp	[lp]
                          79 ___ghs_eofn_SetWActiveState:
                          80 	.type	_SetWActiveState,@function
                          81 	.size	_SetWActiveState,.-_SetWActiveState
                          82 	.type	_SetWActiveState..C.3A.5C_ECU2.5CECU_Rivian_A1.5CTarget.5Crepo_projects.5CpRealEcu.5CcR_R2023.2E09.2E15.5Cmake.5Coutput.5Cobjects.5CWAlloc.,@function
                          83 	.size	_SetWActiveState..C.3A.5C_ECU2.5CECU_Rivian_A1.5CTarget.5Crepo_projects.5CpRealEcu.5CcR_R2023.2E09.2E15.5Cmake.5Coutput.5Cobjects.5CWAlloc.,.-_SetWActiveState..C.3A.5C_ECU2.5CECU_Rivian_A1.5CTarget.5Crepo_projects.5CpRealEcu.5CcR_R2023.2E09.2E15.5Cmake.5Coutput.5Cobjects.5CWAlloc.
                          84 	.align	2
                          85 
                          86 --_ucVal	r6	param
                          87 
                          88 	.section ".bss","awb"
                          89 	.align	4
                          90 .L43:
                          91 	.type	.L43,@object
                          92 	.size	.L43,0
                          93 	.global	_aucHistoryWP..C.3A.5C_ECU2.5CECU_Rivian_A1.5CTarget.5Crepo_projects.5CpRealEcu.5CcR_R2023.2E09.2E15.5Cmake.5Coutput.5Cobjects.5CWAlloc.
                          94 _aucHistoryWP..C.3A.5C_ECU2.5CECU_Rivian_A1.5CTarget.5Crepo_projects.5CpRealEcu.5CcR_R2023.2E09.2E15.5Cmake.5Coutput.5Cobjects.5CWAlloc.:
00000000 00000000         95 _aucHistoryWP:	.space	4
                          96 	.type	_aucHistoryWP..C.3A.5C_ECU2.5CECU_Rivian_A1.5CTarget.5Crepo_projects.5CpRealEcu.5CcR_R2023.2E09.2E15.5Cmake.5Coutput.5Cobjects.5CWAlloc.,@object
                          97 	.size	_aucHistoryWP..C.3A.5C_ECU2.5CECU_Rivian_A1.5CTarget.5Crepo_projects.5CpRealEcu.5CcR_R2023.2E09.2E15.5Cmake.5Coutput.5Cobjects.5CWAlloc.,4
                          98 	.type	_aucHistoryWP,@object
                          99 	.size	_aucHistoryWP,4
                         100 	.global	_ushHistProtecTimeCnt..C.3A.5C_ECU2.5CECU_Rivian_A1.5CTarget.5Crepo_projects.5CpRealEcu.5CcR_R2023.2E09.2E15.5Cmake.5Coutput.5Cobjects.5CWAlloc.
                         101 _ushHistProtecTimeCnt..C.3A.5C_ECU2.5CECU_Rivian_A1.5CTarget.5Crepo_projects.5CpRealEcu.5CcR_R2023.2E09.2E15.5Cmake.5Coutput.5Cobjects.5CWAlloc.:
00000004 0000            102 _ushHistProtecTimeCnt:	.space	2
                         103 	.type	_ushHistProtecTimeCnt..C.3A.5C_ECU2.5CECU_Rivian_A1.5CTarget.5Crepo_projects.5CpRealEcu.5CcR_R2023.2E09.2E15.5Cmake.5Coutput.5Cobjects.5CWAlloc.,@object
                         104 	.size	_ushHistProtecTimeCnt..C.3A.5C_ECU2.5CECU_Rivian_A1.5CTarget.5Crepo_projects.5CpRealEcu.5CcR_R2023.2E09.2E15.5Cmake.5Coutput.5Cobjects.5CWAlloc.,2
                         105 	.type	_ushHistProtecTimeCnt,@object
                         106 	.size	_ushHistProtecTimeCnt,2
                         107 	.section ".rodata","a"
                         108 	.global	_ucWACtrlFixc..C.3A.5C_ECU2.5CECU_Rivian_A1.5CTarget.5Crepo_projects.5CpRealEcu.5CcR_R2023.2E09.2E15.5Cmake.5Coutput.5Cobjects.5CWAlloc.
                         109 _ucWACtrlFixc..C.3A.5C_ECU2.5CECU_Rivian_A1.5CTarget.5Crepo_projects.5CpRealEcu.5CcR_R2023.2E09.2E15.5Cmake.5Coutput.5Cobjects.5CWAlloc.:
00000000 01              110 _ucWACtrlFixc:	.byte	1
                         111 	.type	_ucWACtrlFixc..C.3A.5C_ECU2.5CECU_Rivian_A1.5CTarget.5Crepo_projects.5CpRealEcu.5CcR_R2023.2E09.2E15.5Cmake.5Coutput.5Cobjects.5CWAlloc.,@object

                                                                      Page 3
                                                              C:\Users\nhuliyap\AppData\Local\Temp\gh_00002rs1.s
                         112 	.size	_ucWACtrlFixc..C.3A.5C_ECU2.5CECU_Rivian_A1.5CTarget.5Crepo_projects.5CpRealEcu.5CcR_R2023.2E09.2E15.5Cmake.5Coutput.5Cobjects.5CWAlloc.,1
                         113 	.type	_ucWACtrlFixc,@object
                         114 	.size	_ucWACtrlFixc,1
                         115 	.global	_ucWACtrlBreakc..C.3A.5C_ECU2.5CECU_Rivian_A1.5CTarget.5Crepo_projects.5CpRealEcu.5CcR_R2023.2E09.2E15.5Cmake.5Coutput.5Cobjects.5CWAlloc.
                         116 _ucWACtrlBreakc..C.3A.5C_ECU2.5CECU_Rivian_A1.5CTarget.5Crepo_projects.5CpRealEcu.5CcR_R2023.2E09.2E15.5Cmake.5Coutput.5Cobjects.5CWAlloc.:
00000001 02              117 _ucWACtrlBreakc:	.byte	2
                         118 	.type	_ucWACtrlBreakc..C.3A.5C_ECU2.5CECU_Rivian_A1.5CTarget.5Crepo_projects.5CpRealEcu.5CcR_R2023.2E09.2E15.5Cmake.5Coutput.5Cobjects.5CWAlloc.,@object
                         119 	.size	_ucWACtrlBreakc..C.3A.5C_ECU2.5CECU_Rivian_A1.5CTarget.5Crepo_projects.5CpRealEcu.5CcR_R2023.2E09.2E15.5Cmake.5Coutput.5Cobjects.5CWAlloc.,1
                         120 	.type	_ucWACtrlBreakc,@object
                         121 	.size	_ucWACtrlBreakc,1
                         122 	.section ".bss","awb"
                         123 	.global	_ucWAState..C.3A.5C_ECU2.5CECU_Rivian_A1.5CTarget.5Crepo_projects.5CpRealEcu.5CcR_R2023.2E09.2E15.5Cmake.5Coutput.5Cobjects.5CWAlloc.
                         124 _ucWAState..C.3A.5C_ECU2.5CECU_Rivian_A1.5CTarget.5Crepo_projects.5CpRealEcu.5CcR_R2023.2E09.2E15.5Cmake.5Coutput.5Cobjects.5CWAlloc.:
00000006 00              125 _ucWAState:	.space	1
                         126 	.type	_ucWAState..C.3A.5C_ECU2.5CECU_Rivian_A1.5CTarget.5Crepo_projects.5CpRealEcu.5CcR_R2023.2E09.2E15.5Cmake.5Coutput.5Cobjects.5CWAlloc.,@object
                         127 	.size	_ucWAState..C.3A.5C_ECU2.5CECU_Rivian_A1.5CTarget.5Crepo_projects.5CpRealEcu.5CcR_R2023.2E09.2E15.5Cmake.5Coutput.5Cobjects.5CWAlloc.,1
                         128 	.type	_ucWAState,@object
                         129 	.size	_ucWAState,1
                         130 	.global	_ucNrOfTOs..C.3A.5C_ECU2.5CECU_Rivian_A1.5CTarget.5Crepo_projects.5CpRealEcu.5CcR_R2023.2E09.2E15.5Cmake.5Coutput.5Cobjects.5CWAlloc.
                         131 _ucNrOfTOs..C.3A.5C_ECU2.5CECU_Rivian_A1.5CTarget.5Crepo_projects.5CpRealEcu.5CcR_R2023.2E09.2E15.5Cmake.5Coutput.5Cobjects.5CWAlloc.:
00000007 00              132 _ucNrOfTOs:	.space	1
                         133 	.type	_ucNrOfTOs..C.3A.5C_ECU2.5CECU_Rivian_A1.5CTarget.5Crepo_projects.5CpRealEcu.5CcR_R2023.2E09.2E15.5Cmake.5Coutput.5Cobjects.5CWAlloc.,@object
                         134 	.size	_ucNrOfTOs..C.3A.5C_ECU2.5CECU_Rivian_A1.5CTarget.5Crepo_projects.5CpRealEcu.5CcR_R2023.2E09.2E15.5Cmake.5Coutput.5Cobjects.5CWAlloc.,1
                         135 	.type	_ucNrOfTOs,@object
                         136 	.size	_ucNrOfTOs,1
                         137 	.data
                         138 	.global	_sm_ucWPConsistentErrCnt..C.3A.5C_ECU2.5CECU_Rivian_A1.5CTarget.5Crepo_projects.5CpRealEcu.5CcR_R2023.2E09.2E15.5Cmake.5Coutput.5Cobjects.5CWAlloc.
                         139 _sm_ucWPConsistentErrCnt..C.3A.5C_ECU2.5CECU_Rivian_A1.5CTarget.5Crepo_projects.5CpRealEcu.5CcR_R2023.2E09.2E15.5Cmake.5Coutput.5Cobjects.5CWAlloc.:
00000000 00              140 _sm_ucWPConsistentErrCnt:	.byte	0
                         141 	.type	_sm_ucWPConsistentErrCnt..C.3A.5C_ECU2.5CECU_Rivian_A1.5CTarget.5Crepo_projects.5CpRealEcu.5CcR_R2023.2E09.2E15.5Cmake.5Coutput.5Cobjects.5CWAlloc.,@object
                         142 	.size	_sm_ucWPConsistentErrCnt..C.3A.5C_ECU2.5CECU_Rivian_A1.5CTarget.5Crepo_projects.5CpRealEcu.5CcR_R2023.2E09.2E15.5Cmake.5Coutput.5Cobjects.5CWAlloc.,1
                         143 	.type	_sm_ucWPConsistentErrCnt,@object
                         144 	.size	_sm_ucWPConsistentErrCnt,1
                         145 	.global	_sm_ucAxisDetectionErrCnt..C.3A.5C_ECU2.5CECU_Rivian_A1.5CTarget.5Crepo_projects.5CpRealEcu.5CcR_R2023.2E09.2E15.5Cmake.5Coutput.5Cobjects.5CWAlloc.
                         146 _sm_ucAxisDetectionErrCnt..C.3A.5C_ECU2.5CECU_Rivian_A1.5CTarget.5Crepo_projects.5CpRealEcu.5CcR_R2023.2E09.2E15.5Cmake.5Coutput.5Cobjects.5CWAlloc.:
00000001 00              147 _sm_ucAxisDetectionErrCnt:	.byte	0
                         148 	.type	_sm_ucAxisDetectionErrCnt..C.3A.5C_ECU2.5CECU_Rivian_A1.5CTarget.5Crepo_projects.5CpRealEcu.5CcR_R2023.2E09.2E15.5Cmake.5Coutput.5Cobjects.5CWAlloc.,@object
                         149 	.size	_sm_ucAxisDetectionErrCnt..C.3A.5C_ECU2.5CECU_Rivian_A1.5CTarget.5Crepo_projects.5CpRealEcu.5CcR_R2023.2E09.2E15.5Cmake.5Coutput.5Cobjects.5CWAlloc.,1
                         150 	.type	_sm_ucAxisDetectionErrCnt,@object
                         151 	.size	_sm_ucAxisDetectionErrCnt,1
                         152 	.global	_sm_ucDirDetectionErrCnt..C.3A.5C_ECU2.5CECU_Rivian_A1.5CTarget.5Crepo_projects.5CpRealEcu.5CcR_R2023.2E09.2E15.5Cmake.5Coutput.5Cobjects.5CWAlloc.
                         153 _sm_ucDirDetectionErrCnt..C.3A.5C_ECU2.5CECU_Rivian_A1.5CTarget.5Crepo_projects.5CpRealEcu.5CcR_R2023.2E09.2E15.5Cmake.5Coutput.5Cobjects.5CWAlloc.:
00000002 00              154 _sm_ucDirDetectionErrCnt:	.byte	0
                         155 	.type	_sm_ucDirDetectionErrCnt..C.3A.5C_ECU2.5CECU_Rivian_A1.5CTarget.5Crepo_projects.5CpRealEcu.5CcR_R2023.2E09.2E15.5Cmake.5Coutput.5Cobjects.5CWAlloc.,@object
                         156 	.size	_sm_ucDirDetectionErrCnt..C.3A.5C_ECU2.5CECU_Rivian_A1.5CTarget.5Crepo_projects.5CpRealEcu.5CcR_R2023.2E09.2E15.5Cmake.5Coutput.5Cobjects.5CWAlloc.,1
                         157 	.type	_sm_ucDirDetectionErrCnt,@object
                         158 	.size	_sm_ucDirDetectionErrCnt,1
                         159 	.section ".bss","awb"
                         160 	.global	_aulHistoryID..C.3A.5C_ECU2.5CECU_Rivian_A1.5CTarget.5Crepo_projects.5CpRealEcu.5CcR_R2023.2E09.2E15.5Cmake.5Coutput.5Cobjects.5CWAlloc.
                         161 _aulHistoryID..C.3A.5C_ECU2.5CECU_Rivian_A1.5CTarget.5Crepo_projects.5CpRealEcu.5CcR_R2023.2E09.2E15.5Cmake.5Coutput.5Cobjects.5CWAlloc.:
00000008 000000000000    162 _aulHistoryID:	.space	16
0000000e 000000000000 
00000014 00000000 
                         163 	.type	_aulHistoryID..C.3A.5C_ECU2.5CECU_Rivian_A1.5CTarget.5Crepo_projects.5CpRealEcu.5CcR_R2023.2E09.2E15.5Cmake.5Coutput.5Cobjects.5CWAlloc.,@object
                         164 	.size	_aulHistoryID..C.3A.5C_ECU2.5CECU_Rivian_A1.5CTarget.5Crepo_projects.5CpRealEcu.5CcR_R2023.2E09.2E15.5Cmake.5Coutput.5Cobjects.5CWAlloc.,16
                         165 	.type	_aulHistoryID,@object
                         166 	.size	_aulHistoryID,16
                         167 	.data
                         168 	.text
                         169 	.align	2
                         170 	.align	2

                                                                      Page 4
                                                              C:\Users\nhuliyap\AppData\Local\Temp\gh_00002rs1.s
                         171 ..gh.f.f.1.e.1:
                         172 	.type	..gh.f.f.1.e.1,@object
                         173 	.size	..gh.f.f.1.e.1,0
                         174 	.global	_ucGetWActiveState..C.3A.5C_ECU2.5CECU_Rivian_A1.5CTarget.5Crepo_projects.5CpRealEcu.5CcR_R2023.2E09.2E15.5Cmake.5Coutput.5Cobjects.5CWAlloc.
                         175 _ucGetWActiveState..C.3A.5C_ECU2.5CECU_Rivian_A1.5CTarget.5Crepo_projects.5CpRealEcu.5CcR_R2023.2E09.2E15.5Cmake.5Coutput.5Cobjects.5CWAlloc.:
                         176 _ucGetWActiveState:
                         177 --	    .bf
                         178 .LDW21:
00000016 404e0000*       179 	movhi	hi(_ucWAState),zero,r9
0000001a 894f0100*       180 	ld.bu	lo(_ucWAState)[r9],r9
0000001e c9560100        181 	andi	1,r9,r10
                         182 --	    .ef
                         183 .LDW31:
                         184 --line122
                         185 ..lin.C.3A.5C_ECU2.5CECU_Rivian_A1.5CTarget.5Crepo_projects.5CpRealEcu.5CcR_R2023.2E09.2E15.5Cmake.5Coutput.5Cobjects.5CWAlloc.4::
                         186 .LDWlin4:
00000022 7f00            187 	jmp	[lp]
                         188 ___ghs_eofn_ucGetWActiveState:
                         189 	.type	_ucGetWActiveState,@function
                         190 	.size	_ucGetWActiveState,.-_ucGetWActiveState
                         191 	.type	_ucGetWActiveState..C.3A.5C_ECU2.5CECU_Rivian_A1.5CTarget.5Crepo_projects.5CpRealEcu.5CcR_R2023.2E09.2E15.5Cmake.5Coutput.5Cobjects.5CWAlloc.,@function
                         192 	.size	_ucGetWActiveState..C.3A.5C_ECU2.5CECU_Rivian_A1.5CTarget.5Crepo_projects.5CpRealEcu.5CcR_R2023.2E09.2E15.5Cmake.5Coutput.5Cobjects.5CWAlloc.,.-_ucGetWActiveState..C.3A.5C_ECU2.5CECU_Rivian_A1.5CTarget.5Crepo_projects.5CpRealEcu.5CcR_R2023.2E09.2E15.5Cmake.5Coutput.5Cobjects.5CWAlloc.
                         193 	.align	2
                         194 
                         195 	.data
                         196 	.text
                         197 	.align	2
                         198 	.align	2
                         199 ..gh.f.f.1.e.2:
                         200 	.type	..gh.f.f.1.e.2,@object
                         201 	.size	..gh.f.f.1.e.2,0
                         202 	.global	_SetERState..C.3A.5C_ECU2.5CECU_Rivian_A1.5CTarget.5Crepo_projects.5CpRealEcu.5CcR_R2023.2E09.2E15.5Cmake.5Coutput.5Cobjects.5CWAlloc.
                         203 _SetERState..C.3A.5C_ECU2.5CECU_Rivian_A1.5CTarget.5Crepo_projects.5CpRealEcu.5CcR_R2023.2E09.2E15.5Cmake.5Coutput.5Cobjects.5CWAlloc.:
                         204 _SetERState:
00000024 320600000000*   205 	mov	_ucWAState-2,r18
                         206 --	    .bf
                         207 .LDW41:
                         208 --line129
                         209 ..lin.C.3A.5C_ECU2.5CECU_Rivian_A1.5CTarget.5Crepo_projects.5CpRealEcu.5CcR_R2023.2E09.2E15.5Cmake.5Coutput.5Cobjects.5CWAlloc.5::
                         210 .LDWlin5:
0000002a d832            211 	shl	24,r6
0000002c ca05*           212 	bne	.L132
                         213 --line130
                         214 ..lin.C.3A.5C_ECU2.5CECU_Rivian_A1.5CTarget.5Crepo_projects.5CpRealEcu.5CcR_R2023.2E09.2E15.5Cmake.5Coutput.5Cobjects.5CWAlloc.6::
                         215 .LDWlin6:
0000002e d28f0200        216 	clr1	1,2[r18]
00000032 7f00            217 	jmp	[lp]
                         218 .L132:
                         219 --line134
                         220 ..lin.C.3A.5C_ECU2.5CECU_Rivian_A1.5CTarget.5Crepo_projects.5CpRealEcu.5CcR_R2023.2E09.2E15.5Cmake.5Coutput.5Cobjects.5CWAlloc.7::
                         221 .LDWlin7:
00000034 d20f0200        222 	set1	1,2[r18]
                         223 --	    .ef
                         224 .LDW51:
00000038 7f00            225 	jmp	[lp]
                         226 ___ghs_eofn_SetERState:
                         227 	.type	_SetERState,@function
                         228 	.size	_SetERState,.-_SetERState
                         229 	.type	_SetERState..C.3A.5C_ECU2.5CECU_Rivian_A1.5CTarget.5Crepo_projects.5CpRealEcu.5CcR_R2023.2E09.2E15.5Cmake.5Coutput.5Cobjects.5CWAlloc.,@function
                         230 	.size	_SetERState..C.3A.5C_ECU2.5CECU_Rivian_A1.5CTarget.5Crepo_projects.5CpRealEcu.5CcR_R2023.2E09.2E15.5Cmake.5Coutput.5Cobjects.5CWAlloc.,.-_SetERState..C.3A.5C_ECU2.5CECU_Rivian_A1.5CTarget.5Crepo_projects.5CpRealEcu.5CcR_R2023.2E09.2E15.5Cmake.5Coutput.5Cobjects.5CWAlloc.
                         231 	.align	2

                                                                      Page 5
                                                              C:\Users\nhuliyap\AppData\Local\Temp\gh_00002rs1.s
                         232 
                         233 --_ucVal	r6	param
                         234 
                         235 	.data
                         236 	.text
                         237 	.align	2
                         238 	.align	2
                         239 ..gh.f.f.1.e.3:
                         240 	.type	..gh.f.f.1.e.3,@object
                         241 	.size	..gh.f.f.1.e.3,0
                         242 	.global	_ucGetERState
                         243 _ucGetERState:
                         244 --	    .bf
                         245 .LDW61:
0000003a 40960000*       246 	movhi	hi(_ucWAState),zero,r18
0000003e 92970100*       247 	ld.bu	lo(_ucWAState)[r18],r18
00000042 8192            248 	shr	1,r18
00000044 d2560100        249 	andi	1,r18,r10
                         250 --	    .ef
                         251 .LDW71:
                         252 --line139
                         253 ..lin.C.3A.5C_ECU2.5CECU_Rivian_A1.5CTarget.5Crepo_projects.5CpRealEcu.5CcR_R2023.2E09.2E15.5Cmake.5Coutput.5Cobjects.5CWAlloc.8::
                         254 .LDWlin8:
00000048 7f00            255 	jmp	[lp]
                         256 	.global	___ghs_eofn_ucGetERState
                         257 ___ghs_eofn_ucGetERState:
                         258 	.type	_ucGetERState,@function
                         259 	.size	_ucGetERState,.-_ucGetERState
                         260 	.align	2
                         261 
                         262 	.data
                         263 	.text
                         264 	.align	2
                         265 	.align	2
                         266 ..gh.f.f.1.e.4:
                         267 	.type	..gh.f.f.1.e.4,@object
                         268 	.size	..gh.f.f.1.e.4,0
                         269 	.global	_SetZOState..C.3A.5C_ECU2.5CECU_Rivian_A1.5CTarget.5Crepo_projects.5CpRealEcu.5CcR_R2023.2E09.2E15.5Cmake.5Coutput.5Cobjects.5CWAlloc.
                         270 _SetZOState..C.3A.5C_ECU2.5CECU_Rivian_A1.5CTarget.5Crepo_projects.5CpRealEcu.5CcR_R2023.2E09.2E15.5Cmake.5Coutput.5Cobjects.5CWAlloc.:
                         271 _SetZOState:
0000004a 320600000000*   272 	mov	_ucWAState-2,r18
                         273 --	    .bf
                         274 .LDW81:
                         275 --line146
                         276 ..lin.C.3A.5C_ECU2.5CECU_Rivian_A1.5CTarget.5Crepo_projects.5CpRealEcu.5CcR_R2023.2E09.2E15.5Cmake.5Coutput.5Cobjects.5CWAlloc.9::
                         277 .LDWlin9:
00000050 d832            278 	shl	24,r6
00000052 ca05*           279 	bne	.L260
                         280 --line147
                         281 ..lin.C.3A.5C_ECU2.5CECU_Rivian_A1.5CTarget.5Crepo_projects.5CpRealEcu.5CcR_R2023.2E09.2E15.5Cmake.5Coutput.5Cobjects.5CWAlloc.10::
                         282 .LDWlin10:
00000054 d2970200        283 	clr1	2,2[r18]
00000058 7f00            284 	jmp	[lp]
                         285 .L260:
                         286 --line151
                         287 ..lin.C.3A.5C_ECU2.5CECU_Rivian_A1.5CTarget.5Crepo_projects.5CpRealEcu.5CcR_R2023.2E09.2E15.5Cmake.5Coutput.5Cobjects.5CWAlloc.11::
                         288 .LDWlin11:
0000005a d2170200        289 	set1	2,2[r18]
                         290 --	    .ef
                         291 .LDW91:
0000005e 7f00            292 	jmp	[lp]

                                                                      Page 6
                                                              C:\Users\nhuliyap\AppData\Local\Temp\gh_00002rs1.s
                         293 ___ghs_eofn_SetZOState:
                         294 	.type	_SetZOState,@function
                         295 	.size	_SetZOState,.-_SetZOState
                         296 	.type	_SetZOState..C.3A.5C_ECU2.5CECU_Rivian_A1.5CTarget.5Crepo_projects.5CpRealEcu.5CcR_R2023.2E09.2E15.5Cmake.5Coutput.5Cobjects.5CWAlloc.,@function
                         297 	.size	_SetZOState..C.3A.5C_ECU2.5CECU_Rivian_A1.5CTarget.5Crepo_projects.5CpRealEcu.5CcR_R2023.2E09.2E15.5Cmake.5Coutput.5Cobjects.5CWAlloc.,.-_SetZOState..C.3A.5C_ECU2.5CECU_Rivian_A1.5CTarget.5Crepo_projects.5CpRealEcu.5CcR_R2023.2E09.2E15.5Cmake.5Coutput.5Cobjects.5CWAlloc.
                         298 	.align	2
                         299 
                         300 --_ucVal	r6	param
                         301 
                         302 	.data
                         303 	.text
                         304 	.align	2
                         305 	.align	2
                         306 ..gh.f.f.1.e.5:
                         307 	.type	..gh.f.f.1.e.5,@object
                         308 	.size	..gh.f.f.1.e.5,0
                         309 	.global	_ucGetZOState..C.3A.5C_ECU2.5CECU_Rivian_A1.5CTarget.5Crepo_projects.5CpRealEcu.5CcR_R2023.2E09.2E15.5Cmake.5Coutput.5Cobjects.5CWAlloc.
                         310 _ucGetZOState..C.3A.5C_ECU2.5CECU_Rivian_A1.5CTarget.5Crepo_projects.5CpRealEcu.5CcR_R2023.2E09.2E15.5Cmake.5Coutput.5Cobjects.5CWAlloc.:
                         311 _ucGetZOState:
                         312 --	    .bf
                         313 .LDW02:
00000060 40960000*       314 	movhi	hi(_ucWAState),zero,r18
00000064 92970100*       315 	ld.bu	lo(_ucWAState)[r18],r18
00000068 8292            316 	shr	2,r18
0000006a d2560100        317 	andi	1,r18,r10
                         318 --	    .ef
                         319 .LDW12:
                         320 --line156
                         321 ..lin.C.3A.5C_ECU2.5CECU_Rivian_A1.5CTarget.5Crepo_projects.5CpRealEcu.5CcR_R2023.2E09.2E15.5Cmake.5Coutput.5Cobjects.5CWAlloc.12::
                         322 .LDWlin12:
0000006e 7f00            323 	jmp	[lp]
                         324 ___ghs_eofn_ucGetZOState:
                         325 	.type	_ucGetZOState,@function
                         326 	.size	_ucGetZOState,.-_ucGetZOState
                         327 	.type	_ucGetZOState..C.3A.5C_ECU2.5CECU_Rivian_A1.5CTarget.5Crepo_projects.5CpRealEcu.5CcR_R2023.2E09.2E15.5Cmake.5Coutput.5Cobjects.5CWAlloc.,@function
                         328 	.size	_ucGetZOState..C.3A.5C_ECU2.5CECU_Rivian_A1.5CTarget.5Crepo_projects.5CpRealEcu.5CcR_R2023.2E09.2E15.5Cmake.5Coutput.5Cobjects.5CWAlloc.,.-_ucGetZOState..C.3A.5C_ECU2.5CECU_Rivian_A1.5CTarget.5Crepo_projects.5CpRealEcu.5CcR_R2023.2E09.2E15.5Cmake.5Coutput.5Cobjects.5CWAlloc.
                         329 	.align	2
                         330 
                         331 	.data
                         332 	.text
                         333 	.align	2
                         334 	.align	2
                         335 ..gh.f.f.1.e.6:
                         336 	.type	..gh.f.f.1.e.6,@object
                         337 	.size	..gh.f.f.1.e.6,0
                         338 	.global	_SetWAStateZOChange..C.3A.5C_ECU2.5CECU_Rivian_A1.5CTarget.5Crepo_projects.5CpRealEcu.5CcR_R2023.2E09.2E15.5Cmake.5Coutput.5Cobjects.5CWAlloc.
                         339 _SetWAStateZOChange..C.3A.5C_ECU2.5CECU_Rivian_A1.5CTarget.5Crepo_projects.5CpRealEcu.5CcR_R2023.2E09.2E15.5Cmake.5Coutput.5Cobjects.5CWAlloc.:
                         340 _SetWAStateZOChange:
00000070 3e0600000000*   341 	mov	_ucWAState-2,ep
                         342 --	    .bf
                         343 .LDW22:
                         344 --line163
                         345 ..lin.C.3A.5C_ECU2.5CECU_Rivian_A1.5CTarget.5Crepo_projects.5CpRealEcu.5CcR_R2023.2E09.2E15.5Cmake.5Coutput.5Cobjects.5CWAlloc.13::
                         346 .LDWlin13:
00000076 6288            347 	sld.bu	2[ep],r17
00000078 d19e0f00        348 	andi	15,r17,r19
0000007c 1331            349 	or	r19,r6
0000007e 8233            350 	sst.b	r6,2[ep]
                         351 --	    .ef
                         352 .LDW32:
00000080 7f00            353 	jmp	[lp]

                                                                      Page 7
                                                              C:\Users\nhuliyap\AppData\Local\Temp\gh_00002rs1.s
                         354 ___ghs_eofn_SetWAStateZOChange:
                         355 	.type	_SetWAStateZOChange,@function
                         356 	.size	_SetWAStateZOChange,.-_SetWAStateZOChange
                         357 	.type	_SetWAStateZOChange..C.3A.5C_ECU2.5CECU_Rivian_A1.5CTarget.5Crepo_projects.5CpRealEcu.5CcR_R2023.2E09.2E15.5Cmake.5Coutput.5Cobjects.5CWAlloc.,@function
                         358 	.size	_SetWAStateZOChange..C.3A.5C_ECU2.5CECU_Rivian_A1.5CTarget.5Crepo_projects.5CpRealEcu.5CcR_R2023.2E09.2E15.5Cmake.5Coutput.5Cobjects.5CWAlloc.,.-_SetWAStateZOChange..C.3A.5C_ECU2.5CECU_Rivian_A1.5CTarget.5Crepo_projects.5CpRealEcu.5CcR_R2023.2E09.2E15.5Cmake.5Coutput.5Cobjects.5CWAlloc.
                         359 	.align	2
                         360 
                         361 --_ucChangedPos	r6	param
                         362 
                         363 	.data
                         364 	.text
                         365 	.align	2
                         366 	.align	2
                         367 ..gh.f.f.1.e.7:
                         368 	.type	..gh.f.f.1.e.7,@object
                         369 	.size	..gh.f.f.1.e.7,0
                         370 	.global	_ClearZOM
                         371 _ClearZOM:
00000082 8600            372 	zxb	r6
                         373 --	    .bf
                         374 .LDW42:
00000084 6832            375 	cmp	8,r6
00000086 9b25*           376 	bh	.L434
                         377 --line173
                         378 ..lin.C.3A.5C_ECU2.5CECU_Rivian_A1.5CTarget.5Crepo_projects.5CpRealEcu.5CcR_R2023.2E09.2E15.5Cmake.5Coutput.5Cobjects.5CWAlloc.14::
                         379 .LDWlin14:
00000088 330600000000*   380 	mov	_tZOM,r19
0000008e 0092            381 	mov	0,r18
00000090 6832            382 	cmp	8,r6
                         383 --line174
                         384 ..lin.C.3A.5C_ECU2.5CECU_Rivian_A1.5CTarget.5Crepo_projects.5CpRealEcu.5CcR_R2023.2E09.2E15.5Cmake.5Coutput.5Cobjects.5CWAlloc.15::
                         385 .LDWlin15:
00000092 9a15*           386 	bne	.L451
00000094 007a            387 	mov	0,r15
                         388 .L443:
                         389 --line175
                         390 ..lin.C.3A.5C_ECU2.5CECU_Rivian_A1.5CTarget.5Crepo_projects.5CpRealEcu.5CcR_R2023.2E09.2E15.5Cmake.5Coutput.5Cobjects.5CWAlloc.16::
                         391 .LDWlin16:
00000096 0092            392 	mov	0,r18
                         393 .L447:
00000098 0f88            394 	mov	r15,r17
0000009a c68a            395 	shl	6,r17
0000009c d389            396 	add	r19,r17
0000009e 12f0            397 	mov	r18,ep
000000a0 d1f1            398 	add	r17,ep
000000a2 4192            399 	add	1,r18
000000a4 8003            400 	sst.b	zero,0[ep]
000000a6 1206c0ff        401 	addi	-64,r18,zero
000000aa f9f5*           402 	bnl	.L447
                         403 --line174
                         404 ..lin.C.3A.5C_ECU2.5CECU_Rivian_A1.5CTarget.5Crepo_projects.5CpRealEcu.5CcR_R2023.2E09.2E15.5Cmake.5Coutput.5Cobjects.5CWAlloc.17::
                         405 .LDWlin17:
000000ac 417a            406 	add	1,r15
000000ae 687a            407 	cmp	8,r15
000000b0 b1f5*           408 	bl	.L443
000000b2 7f00            409 	jmp	[lp]
                         410 .L451:
                         411 --line182
                         412 ..lin.C.3A.5C_ECU2.5CECU_Rivian_A1.5CTarget.5Crepo_projects.5CpRealEcu.5CcR_R2023.2E09.2E15.5Cmake.5Coutput.5Cobjects.5CWAlloc.18::
                         413 .LDWlin18:
000000b4 0680            414 	mov	r6,r16

                                                                      Page 8
                                                              C:\Users\nhuliyap\AppData\Local\Temp\gh_00002rs1.s
000000b6 c682            415 	shl	6,r16
000000b8 d381            416 	add	r19,r16
000000ba 12f0            417 	mov	r18,ep
000000bc d0f1            418 	add	r16,ep
000000be 4192            419 	add	1,r18
000000c0 8003            420 	sst.b	zero,0[ep]
000000c2 1206c0ff        421 	addi	-64,r18,zero
000000c6 f9f5*           422 	bnl	.L451
                         423 .L434:
                         424 --	    .ef
                         425 .LDW52:
                         426 --line186
                         427 ..lin.C.3A.5C_ECU2.5CECU_Rivian_A1.5CTarget.5Crepo_projects.5CpRealEcu.5CcR_R2023.2E09.2E15.5Cmake.5Coutput.5Cobjects.5CWAlloc.19::
                         428 .LDWlin19:
000000c8 7f00            429 	jmp	[lp]
                         430 	.global	___ghs_eofn_ClearZOM
                         431 ___ghs_eofn_ClearZOM:
                         432 	.type	_ClearZOM,@function
                         433 	.size	_ClearZOM,.-_ClearZOM
                         434 	.align	2
                         435 --_i	r15	local
                         436 --_j	r18	local
                         437 
                         438 --_ucIx	r6	param
                         439 
                         440 	.section ".bss","awb"
                         441 .L1179:
                         442 	.type	.L1179,@object
                         443 	.size	.L1179,0
                         444 	.data
                         445 	.text
                         446 	.align	2
                         447 	.align	2
                         448 ..gh.f.f.1.e.8:
                         449 	.type	..gh.f.f.1.e.8,@object
                         450 	.size	..gh.f.f.1.e.8,0
                         451 	.global	_ResetWP..C.3A.5C_ECU2.5CECU_Rivian_A1.5CTarget.5Crepo_projects.5CpRealEcu.5CcR_R2023.2E09.2E15.5Cmake.5Coutput.5Cobjects.5CWAlloc.
                         452 _ResetWP..C.3A.5C_ECU2.5CECU_Rivian_A1.5CTarget.5Crepo_projects.5CpRealEcu.5CcR_R2023.2E09.2E15.5Cmake.5Coutput.5Cobjects.5CWAlloc.:
                         453 _ResetWP:
                         454 --	    .bf
                         455 .LDW62:
000000ca 0092            456 	mov	0,r18
                         457 .L1278:
000000cc 12f0            458 	mov	r18,ep
000000ce c6f2            459 	shl	6,ep
000000d0 300600000000*   460 	mov	_tZOM,r16
000000d6 d0f1            461 	add	r16,ep
000000d8 6488            462 	sld.bu	4[ep],r17
                         463 --line191
                         464 ..lin.C.3A.5C_ECU2.5CECU_Rivian_A1.5CTarget.5Crepo_projects.5CpRealEcu.5CcR_R2023.2E09.2E15.5Cmake.5Coutput.5Cobjects.5CWAlloc.20::
                         465 .LDWlin20:
000000da 4192            466 	add	1,r18
000000dc d18ef000        467 	andi	240,r17,r17
000000e0 848b            468 	sst.b	r17,4[ep]
000000e2 6492            469 	cmp	4,r18
000000e4 c1f5*           470 	bl	.L1278
                         471 --	    .ef
                         472 .LDW72:
                         473 --line194
                         474 ..lin.C.3A.5C_ECU2.5CECU_Rivian_A1.5CTarget.5Crepo_projects.5CpRealEcu.5CcR_R2023.2E09.2E15.5Cmake.5Coutput.5Cobjects.5CWAlloc.21::
                         475 .LDWlin21:

                                                                      Page 9
                                                              C:\Users\nhuliyap\AppData\Local\Temp\gh_00002rs1.s
000000e6 7f00            476 	jmp	[lp]
                         477 ___ghs_eofn_ResetWP:
                         478 	.type	_ResetWP,@function
                         479 	.size	_ResetWP,.-_ResetWP
                         480 	.type	_ResetWP..C.3A.5C_ECU2.5CECU_Rivian_A1.5CTarget.5Crepo_projects.5CpRealEcu.5CcR_R2023.2E09.2E15.5Cmake.5Coutput.5Cobjects.5CWAlloc.,@function
                         481 	.size	_ResetWP..C.3A.5C_ECU2.5CECU_Rivian_A1.5CTarget.5Crepo_projects.5CpRealEcu.5CcR_R2023.2E09.2E15.5Cmake.5Coutput.5Cobjects.5CWAlloc.,.-_ResetWP..C.3A.5C_ECU2.5CECU_Rivian_A1.5CTarget.5Crepo_projects.5CpRealEcu.5CcR_R2023.2E09.2E15.5Cmake.5Coutput.5Cobjects.5CWAlloc.
                         482 	.align	2
                         483 --_i	r18	local
                         484 
                         485 	.section ".bss","awb"
                         486 .L1302:
                         487 	.type	.L1302,@object
                         488 	.size	.L1302,0
                         489 	.data
                         490 	.text
                         491 	.align	2
                         492 	.align	2
                         493 ..gh.f.f.1.e.9:
                         494 	.type	..gh.f.f.1.e.9,@object
                         495 	.size	..gh.f.f.1.e.9,0
                         496 	.global	_ulGetZOMID
                         497 _ulGetZOMID:
000000e8 8600            498 	zxb	r6
                         499 --	    .bf
                         500 .LDW82:
000000ea 0052            501 	mov	0,r10
000000ec 6832            502 	cmp	8,r6
000000ee 890d*           503 	bnl	.L1335
                         504 --line199
                         505 ..lin.C.3A.5C_ECU2.5CECU_Rivian_A1.5CTarget.5Crepo_projects.5CpRealEcu.5CcR_R2023.2E09.2E15.5Cmake.5Coutput.5Cobjects.5CWAlloc.22::
                         506 .LDWlin22:
000000f0 06f0            507 	mov	r6,ep
000000f2 c6f2            508 	shl	6,ep
000000f4 330600000000*   509 	mov	_tZOM,r19
000000fa d3f1            510 	add	r19,ep
000000fc 0055            511 	sld.w	0[ep],r10
                         512 .L1335:
                         513 --	    .ef
                         514 .LDW92:
                         515 --line203
                         516 ..lin.C.3A.5C_ECU2.5CECU_Rivian_A1.5CTarget.5Crepo_projects.5CpRealEcu.5CcR_R2023.2E09.2E15.5Cmake.5Coutput.5Cobjects.5CWAlloc.23::
                         517 .LDWlin23:
000000fe 7f00            518 	jmp	[lp]
                         519 	.global	___ghs_eofn_ulGetZOMID
                         520 ___ghs_eofn_ulGetZOMID:
                         521 	.type	_ulGetZOMID,@function
                         522 	.size	_ulGetZOMID,.-_ulGetZOMID
                         523 	.align	2
                         524 
                         525 --_ucIx	r6	param
                         526 
                         527 	.section ".bss","awb"
                         528 .L1375:
                         529 	.type	.L1375,@object
                         530 	.size	.L1375,0
                         531 	.data
                         532 	.text
                         533 	.align	2
                         534 	.align	2
                         535 ..gh.f.f.1.e.10:
                         536 	.type	..gh.f.f.1.e.10,@object

                                                                      Page 10
                                                              C:\Users\nhuliyap\AppData\Local\Temp\gh_00002rs1.s
                         537 	.size	..gh.f.f.1.e.10,0
                         538 	.global	_ulGetID
                         539 _ulGetID:
00000100 8600            540 	zxb	r6
                         541 --	    .bf
                         542 .LDW03:
00000102 0052            543 	mov	0,r10
00000104 6432            544 	cmp	4,r6
00000106 890d*           545 	bnl	.L1408
                         546 --line209
                         547 ..lin.C.3A.5C_ECU2.5CECU_Rivian_A1.5CTarget.5Crepo_projects.5CpRealEcu.5CcR_R2023.2E09.2E15.5Cmake.5Coutput.5Cobjects.5CWAlloc.24::
                         548 .LDWlin24:
00000108 06f0            549 	mov	r6,ep
0000010a c2f2            550 	shl	2,ep
0000010c 330600000000*   551 	mov	_aulHistoryID,r19
00000112 d3f1            552 	add	r19,ep
00000114 0055            553 	sld.w	0[ep],r10
                         554 .L1408:
                         555 --	    .ef
                         556 .LDW13:
                         557 --line213
                         558 ..lin.C.3A.5C_ECU2.5CECU_Rivian_A1.5CTarget.5Crepo_projects.5CpRealEcu.5CcR_R2023.2E09.2E15.5Cmake.5Coutput.5Cobjects.5CWAlloc.25::
                         559 .LDWlin25:
00000116 7f00            560 	jmp	[lp]
                         561 	.global	___ghs_eofn_ulGetID
                         562 ___ghs_eofn_ulGetID:
                         563 	.type	_ulGetID,@function
                         564 	.size	_ulGetID,.-_ulGetID
                         565 	.align	2
                         566 
                         567 --_ucIx	r6	param
                         568 
                         569 	.data
                         570 	.text
                         571 	.align	2
                         572 	.align	2
                         573 ..gh.f.f.1.e.11:
                         574 	.type	..gh.f.f.1.e.11,@object
                         575 	.size	..gh.f.f.1.e.11,0
                         576 	.global	_PutulID..C.3A.5C_ECU2.5CECU_Rivian_A1.5CTarget.5Crepo_projects.5CpRealEcu.5CcR_R2023.2E09.2E15.5Cmake.5Coutput.5Cobjects.5CWAlloc.
                         577 _PutulID..C.3A.5C_ECU2.5CECU_Rivian_A1.5CTarget.5Crepo_projects.5CpRealEcu.5CcR_R2023.2E09.2E15.5Cmake.5Coutput.5Cobjects.5CWAlloc.:
                         578 _PutulID:
00000118 8600            579 	zxb	r6
0000011a 07f0            580 	mov	r7,ep
                         581 --	    .bf
                         582 .LDW23:
0000011c 6832            583 	cmp	8,r6
0000011e 890d*           584 	bnl	.L1488
                         585 --line220
                         586 ..lin.C.3A.5C_ECU2.5CECU_Rivian_A1.5CTarget.5Crepo_projects.5CpRealEcu.5CcR_R2023.2E09.2E15.5Cmake.5Coutput.5Cobjects.5CWAlloc.26::
                         587 .LDWlin26:
00000120 0095            588 	sld.w	0[ep],r18
00000122 c632            589 	shl	6,r6
00000124 409e0000*       590 	movhi	hi(_tZOM),zero,r19
00000128 d331            591 	add	r19,r6
0000012a 66970100*       592 	st.w	r18,lo(_tZOM)[r6]
                         593 .L1488:
                         594 --	    .ef
                         595 .LDW33:
                         596 --line222
                         597 ..lin.C.3A.5C_ECU2.5CECU_Rivian_A1.5CTarget.5Crepo_projects.5CpRealEcu.5CcR_R2023.2E09.2E15.5Cmake.5Coutput.5Cobjects.5CWAlloc.27::

                                                                      Page 11
                                                              C:\Users\nhuliyap\AppData\Local\Temp\gh_00002rs1.s
                         598 .LDWlin27:
0000012e 7f00            599 	jmp	[lp]
                         600 ___ghs_eofn_PutulID:
                         601 	.type	_PutulID,@function
                         602 	.size	_PutulID,.-_PutulID
                         603 	.type	_PutulID..C.3A.5C_ECU2.5CECU_Rivian_A1.5CTarget.5Crepo_projects.5CpRealEcu.5CcR_R2023.2E09.2E15.5Cmake.5Coutput.5Cobjects.5CWAlloc.,@function
                         604 	.size	_PutulID..C.3A.5C_ECU2.5CECU_Rivian_A1.5CTarget.5Crepo_projects.5CpRealEcu.5CcR_R2023.2E09.2E15.5Cmake.5Coutput.5Cobjects.5CWAlloc.,.-_PutulID..C.3A.5C_ECU2.5CECU_Rivian_A1.5CTarget.5Crepo_projects.5CpRealEcu.5CcR_R2023.2E09.2E15.5Cmake.5Coutput.5Cobjects.5CWAlloc.
                         605 	.align	2
                         606 
                         607 --_ucIx	r6	param
                         608 --_p2ID	ep	param
                         609 
                         610 	.section ".bss","awb"
                         611 .L1526:
                         612 	.type	.L1526,@object
                         613 	.size	.L1526,0
                         614 	.data
                         615 	.text
                         616 	.align	2
                         617 	.align	2
                         618 ..gh.f.f.1.e.12:
                         619 	.type	..gh.f.f.1.e.12,@object
                         620 	.size	..gh.f.f.1.e.12,0
                         621 	.global	_ucGetProbeCt
                         622 _ucGetProbeCt:
00000130 8600            623 	zxb	r6
                         624 --	    .bf
                         625 .LDW43:
00000132 0052            626 	mov	0,r10
00000134 6832            627 	cmp	8,r6
00000136 890d*           628 	bnl	.L1559
                         629 --line227
                         630 ..lin.C.3A.5C_ECU2.5CECU_Rivian_A1.5CTarget.5Crepo_projects.5CpRealEcu.5CcR_R2023.2E09.2E15.5Cmake.5Coutput.5Cobjects.5CWAlloc.28::
                         631 .LDWlin28:
00000138 06f0            632 	mov	r6,ep
0000013a c6f2            633 	shl	6,ep
0000013c 330600000000*   634 	mov	_tZOM,r19
00000142 d3f1            635 	add	r19,ep
00000144 6550            636 	sld.bu	5[ep],r10
                         637 .L1559:
                         638 --	    .ef
                         639 .LDW53:
                         640 --line231
                         641 ..lin.C.3A.5C_ECU2.5CECU_Rivian_A1.5CTarget.5Crepo_projects.5CpRealEcu.5CcR_R2023.2E09.2E15.5Cmake.5Coutput.5Cobjects.5CWAlloc.29::
                         642 .LDWlin29:
00000146 7f00            643 	jmp	[lp]
                         644 	.global	___ghs_eofn_ucGetProbeCt
                         645 ___ghs_eofn_ucGetProbeCt:
                         646 	.type	_ucGetProbeCt,@function
                         647 	.size	_ucGetProbeCt,.-_ucGetProbeCt
                         648 	.align	2
                         649 
                         650 --_ucIx	r6	param
                         651 
                         652 	.section ".bss","awb"
                         653 .L1604:
                         654 	.type	.L1604,@object
                         655 	.size	.L1604,0
                         656 	.data
                         657 	.text
                         658 	.align	2

                                                                      Page 12
                                                              C:\Users\nhuliyap\AppData\Local\Temp\gh_00002rs1.s
                         659 	.align	2
                         660 ..gh.f.f.1.e.13:
                         661 	.type	..gh.f.f.1.e.13,@object
                         662 	.size	..gh.f.f.1.e.13,0
                         663 	.global	_ucGetZOMWP
                         664 _ucGetZOMWP:
00000148 8600            665 	zxb	r6
                         666 --	    .bf
                         667 .LDW63:
0000014a 6432            668 	cmp	4,r6
0000014c c915*           669 	bnl	.L1639
                         670 --line238
                         671 ..lin.C.3A.5C_ECU2.5CECU_Rivian_A1.5CTarget.5Crepo_projects.5CpRealEcu.5CcR_R2023.2E09.2E15.5Cmake.5Coutput.5Cobjects.5CWAlloc.30::
                         672 .LDWlin30:
0000014e 06f0            673 	mov	r6,ep
00000150 c6f2            674 	shl	6,ep
00000152 330600000000*   675 	mov	_tZOM,r19
00000158 d3f1            676 	add	r19,ep
0000015a 6490            677 	sld.bu	4[ep],r18
0000015c d24e0f00        678 	andi	15,r18,r9
00000160 614a            679 	cmp	1,r9
00000162 b20d*           680 	be	.L1643
00000164 624a            681 	cmp	2,r9
00000166 b20d*           682 	be	.L1646
00000168 644a            683 	cmp	4,r9
0000016a b20d*           684 	be	.L1648
0000016c 684a            685 	cmp	8,r9
0000016e ba05*           686 	bne	.L1639
                         687 --line252
                         688 ..lin.C.3A.5C_ECU2.5CECU_Rivian_A1.5CTarget.5Crepo_projects.5CpRealEcu.5CcR_R2023.2E09.2E15.5Cmake.5Coutput.5Cobjects.5CWAlloc.31::
                         689 .LDWlin31:
00000170 0352            690 	mov	3,r10
00000172 7f00            691 	jmp	[lp]
                         692 .L1639:
                         693 --line262
                         694 ..lin.C.3A.5C_ECU2.5CECU_Rivian_A1.5CTarget.5Crepo_projects.5CpRealEcu.5CcR_R2023.2E09.2E15.5Cmake.5Coutput.5Cobjects.5CWAlloc.32::
                         695 .LDWlin32:
00000174 0452            696 	mov	4,r10
00000176 7f00            697 	jmp	[lp]
                         698 .L1643:
                         699 --line240
                         700 ..lin.C.3A.5C_ECU2.5CECU_Rivian_A1.5CTarget.5Crepo_projects.5CpRealEcu.5CcR_R2023.2E09.2E15.5Cmake.5Coutput.5Cobjects.5CWAlloc.33::
                         701 .LDWlin33:
00000178 0052            702 	mov	0,r10
0000017a 7f00            703 	jmp	[lp]
                         704 .L1646:
                         705 --line244
                         706 ..lin.C.3A.5C_ECU2.5CECU_Rivian_A1.5CTarget.5Crepo_projects.5CpRealEcu.5CcR_R2023.2E09.2E15.5Cmake.5Coutput.5Cobjects.5CWAlloc.34::
                         707 .LDWlin34:
0000017c 0152            708 	mov	1,r10
0000017e 7f00            709 	jmp	[lp]
                         710 .L1648:
                         711 --line248
                         712 ..lin.C.3A.5C_ECU2.5CECU_Rivian_A1.5CTarget.5Crepo_projects.5CpRealEcu.5CcR_R2023.2E09.2E15.5Cmake.5Coutput.5Cobjects.5CWAlloc.35::
                         713 .LDWlin35:
00000180 0252            714 	mov	2,r10
                         715 --	    .ef
                         716 .LDW73:
00000182 7f00            717 	jmp	[lp]
                         718 	.global	___ghs_eofn_ucGetZOMWP
                         719 ___ghs_eofn_ucGetZOMWP:

                                                                      Page 13
                                                              C:\Users\nhuliyap\AppData\Local\Temp\gh_00002rs1.s
                         720 	.type	_ucGetZOMWP,@function
                         721 	.size	_ucGetZOMWP,.-_ucGetZOMWP
                         722 	.align	2
                         723 --_u8ReturnValue	r10	local
                         724 
                         725 --_ucIx	r6	param
                         726 
                         727 	.section ".bss","awb"
                         728 .L1738:
                         729 	.type	.L1738,@object
                         730 	.size	.L1738,0
                         731 	.data
                         732 	.text
                         733 	.align	2
                         734 	.align	2
                         735 ..gh.f.f.1.e.14:
                         736 	.type	..gh.f.f.1.e.14,@object
                         737 	.size	..gh.f.f.1.e.14,0
                         738 	.global	_SetZOMWP
                         739 _SetZOMWP:
00000184 8600            740 	zxb	r6
00000186 8700            741 	zxb	r7
                         742 --	    .bf
                         743 .LDW83:
00000188 6432            744 	cmp	4,r6
0000018a a915*           745 	bnl	.L1858
                         746 --line271
                         747 ..lin.C.3A.5C_ECU2.5CECU_Rivian_A1.5CTarget.5Crepo_projects.5CpRealEcu.5CcR_R2023.2E09.2E15.5Cmake.5Coutput.5Cobjects.5CWAlloc.36::
                         748 .LDWlin36:
0000018c 06f0            749 	mov	r6,ep
0000018e c6f2            750 	shl	6,ep
00000190 310600000000*   751 	mov	_tZOM,r17
00000196 d1f1            752 	add	r17,ep
00000198 6490            753 	sld.bu	4[ep],r18
0000019a d296f000        754 	andi	240,r18,r18
0000019e 8493            755 	sst.b	r18,4[ep]
                         756 --line272
                         757 ..lin.C.3A.5C_ECU2.5CECU_Rivian_A1.5CTarget.5Crepo_projects.5CpRealEcu.5CcR_R2023.2E09.2E15.5Cmake.5Coutput.5Cobjects.5CWAlloc.37::
                         758 .LDWlin37:
000001a0 643a            759 	cmp	4,r7
000001a2 e905*           760 	bnl	.L1858
                         761 --line273
                         762 ..lin.C.3A.5C_ECU2.5CECU_Rivian_A1.5CTarget.5Crepo_projects.5CpRealEcu.5CcR_R2023.2E09.2E15.5Cmake.5Coutput.5Cobjects.5CWAlloc.38::
                         763 .LDWlin38:
000001a4 0182            764 	mov	1,r16
000001a6 e787c288        765 	shl	r7,r16,r17
000001aa 1289            766 	or	r18,r17
000001ac 848b            767 	sst.b	r17,4[ep]
                         768 .L1858:
                         769 --	    .ef
                         770 .LDW93:
000001ae 7f00            771 	jmp	[lp]
                         772 	.global	___ghs_eofn_SetZOMWP
                         773 ___ghs_eofn_SetZOMWP:
                         774 	.type	_SetZOMWP,@function
                         775 	.size	_SetZOMWP,.-_SetZOMWP
                         776 	.align	2
                         777 
                         778 --_ucIx	r6	param
                         779 --_ucWP	r7	param
                         780 

                                                                      Page 14
                                                              C:\Users\nhuliyap\AppData\Local\Temp\gh_00002rs1.s
                         781 	.section ".bss","awb"
                         782 .L1904:
                         783 	.type	.L1904,@object
                         784 	.size	.L1904,0
                         785 	.data
                         786 	.text
                         787 	.align	2
                         788 	.align	2
                         789 ..gh.f.f.1.e.15:
                         790 	.type	..gh.f.f.1.e.15,@object
                         791 	.size	..gh.f.f.1.e.15,0
                         792 	.global	_ushGetMeanRssiSum
                         793 _ushGetMeanRssiSum:
000001b0 8600            794 	zxb	r6
                         795 --	    .bf
                         796 .LDW04:
000001b2 6832            797 	cmp	8,r6
000001b4 991d*           798 	bnl	.L1948
                         799 --line282
                         800 ..lin.C.3A.5C_ECU2.5CECU_Rivian_A1.5CTarget.5Crepo_projects.5CpRealEcu.5CcR_R2023.2E09.2E15.5Cmake.5Coutput.5Cobjects.5CWAlloc.39::
                         801 .LDWlin39:
000001b6 06f0            802 	mov	r6,ep
000001b8 c6f2            803 	shl	6,ep
000001ba 330600000000*   804 	mov	_tZOM,r19
000001c0 d3f1            805 	add	r19,ep
000001c2 6548            806 	sld.bu	5[ep],r9
000001c4 e049            807 	cmp	zero,r9
000001c6 8215*           808 	be	.L1948
                         809 --line283
                         810 ..lin.C.3A.5C_ECU2.5CECU_Rivian_A1.5CTarget.5Crepo_projects.5CpRealEcu.5CcR_R2023.2E09.2E15.5Cmake.5Coutput.5Cobjects.5CWAlloc.40::
                         811 .LDWlin40:
000001c8 7590            812 	sld.hu	10[ep],r18
000001ca 2f06cdcccccc    813 	mov	-858993459,r15
000001d0 0f80            814 	mov	r15,r16
000001d2 ea974202        815 	mulu	10,r18,zero
000001d6 e997fe02        816 	divqu	r9,r18,zero
000001da 4592            817 	add	5,r18
000001dc f287228a        818 	mulu	r18,r16,r17
000001e0 1150            819 	mov	r17,r10
000001e2 8352            820 	shr	3,r10
000001e4 a505*           821 	br	.L1953
                         822 .L1948:
                         823 --line290
                         824 ..lin.C.3A.5C_ECU2.5CECU_Rivian_A1.5CTarget.5Crepo_projects.5CpRealEcu.5CcR_R2023.2E09.2E15.5Cmake.5Coutput.5Cobjects.5CWAlloc.41::
                         825 .LDWlin41:
000001e6 0052            826 	mov	0,r10
                         827 .L1953:
000001e8 ca00            828 	zxh	r10
                         829 --	    .ef
                         830 .LDW14:
000001ea 7f00            831 	jmp	[lp]
                         832 	.global	___ghs_eofn_ushGetMeanRssiSum
                         833 ___ghs_eofn_ushGetMeanRssiSum:
                         834 	.type	_ushGetMeanRssiSum,@function
                         835 	.size	_ushGetMeanRssiSum,.-_ushGetMeanRssiSum
                         836 	.align	2
                         837 --_ulTmp	r10	local
                         838 
                         839 --_ucIx	r6	param
                         840 
                         841 	.section ".bss","awb"

                                                                      Page 15
                                                              C:\Users\nhuliyap\AppData\Local\Temp\gh_00002rs1.s
                         842 .L2021:
                         843 	.type	.L2021,@object
                         844 	.size	.L2021,0
                         845 	.data
                         846 	.text
                         847 	.align	2
                         848 	.align	2
                         849 ..gh.f.f.1.e.16:
                         850 	.type	..gh.f.f.1.e.16,@object
                         851 	.size	..gh.f.f.1.e.16,0
                         852 	.global	_ucGetRssiDifference
                         853 _ucGetRssiDifference:
000001ec 80076100        854 	prepare	{r29,r31},0
000001f0 8600            855 	zxb	r6
000001f2 8700            856 	zxb	r7
                         857 --	    .bf
                         858 .LDW24:
                         859 	jarl	_ushGetMeanRssiSum,lp
                         859 <EXPANSION BEGIN>
                         859 jarl22 _ushGetMeanRssiSum , lp 
000001f4 bfffbcff*       859 <EXPANSION END>
000001f8 0ae8            860 	mov	r10,r29
000001fa 9d00            861 	zxb	r29
                         862 --line302
                         863 ..lin.C.3A.5C_ECU2.5CECU_Rivian_A1.5CTarget.5Crepo_projects.5CpRealEcu.5CcR_R2023.2E09.2E15.5Cmake.5Coutput.5Cobjects.5CWAlloc.42::
                         864 .LDWlin42:
000001fc 0730            865 	mov	r7,r6
                         866 	jarl	_ushGetMeanRssiSum,lp
                         866 <EXPANSION BEGIN>
                         866 jarl22 _ushGetMeanRssiSum , lp 
000001fe bfffb2ff*       866 <EXPANSION END>
00000202 8a00            867 	zxb	r10
                         868 --line304
                         869 ..lin.C.3A.5C_ECU2.5CECU_Rivian_A1.5CTarget.5Crepo_projects.5CpRealEcu.5CcR_R2023.2E09.2E15.5Cmake.5Coutput.5Cobjects.5CWAlloc.43::
                         870 .LDWlin43:
00000204 eae9            871 	cmp	r10,r29
00000206 eaef264b        872 	cmovnh	r10,r29,r9
0000020a fd572653        873 	cmovnh	r29,r10,r10
0000020e aa49            874 	sub	r10,r9
00000210 c956ff00        875 	andi	255,r9,r10
                         876 --	    .ef
                         877 .LDW34:
00000214 40067f00        878 	dispose	0,{r29,r31},[lp]
                         879 	.global	___ghs_eofn_ucGetRssiDifference
                         880 ___ghs_eofn_ucGetRssiDifference:
                         881 	.type	_ucGetRssiDifference,@function
                         882 	.size	_ucGetRssiDifference,.-_ucGetRssiDifference
                         883 	.align	2
                         884 --_ucFirstRssi	r29	local
                         885 --_ucSecondRssi	r10	local
                         886 
                         887 --_ucFirstIx	r6	param
                         888 --_ucSecondIx	r28	param
                         889 
                         890 	.section ".bss","awb"
                         891 .L2128:
                         892 	.type	.L2128,@object
                         893 	.size	.L2128,0
                         894 	.data
                         895 	.text
                         896 	.align	2

                                                                      Page 16
                                                              C:\Users\nhuliyap\AppData\Local\Temp\gh_00002rs1.s
                         897 	.align	2
                         898 ..gh.f.f.1.e.17:
                         899 	.type	..gh.f.f.1.e.17,@object
                         900 	.size	..gh.f.f.1.e.17,0
                         901 	.global	_ucGetZOMPosOfID
                         902 _ucGetZOMPosOfID:
00000218 06f0            903 	mov	r6,ep
                         904 --	    .bf
                         905 .LDW44:
0000021a 0052            906 	mov	0,r10
                         907 .L2163:
0000021c 0a48            908 	mov	r10,r9
0000021e c64a            909 	shl	6,r9
00000220 40460000*       910 	movhi	hi(_tZOM),zero,r8
00000224 c849            911 	add	r8,r9
00000226 293f0100*       912 	ld.w	lo(_tZOM)[r9],r7
0000022a 0035            913 	sld.w	0[ep],r6
0000022c e731            914 	cmp	r7,r6
0000022e c205*           915 	be	.L2166
                         916 --line315
                         917 ..lin.C.3A.5C_ECU2.5CECU_Rivian_A1.5CTarget.5Crepo_projects.5CpRealEcu.5CcR_R2023.2E09.2E15.5Cmake.5Coutput.5Cobjects.5CWAlloc.44::
                         918 .LDWlin44:
00000230 4152            919 	add	1,r10
00000232 6852            920 	cmp	8,r10
00000234 c1f5*           921 	bl	.L2163
                         922 .L2166:
                         923 --	    .ef
                         924 .LDW54:
                         925 --line320
                         926 ..lin.C.3A.5C_ECU2.5CECU_Rivian_A1.5CTarget.5Crepo_projects.5CpRealEcu.5CcR_R2023.2E09.2E15.5Cmake.5Coutput.5Cobjects.5CWAlloc.45::
                         927 .LDWlin45:
00000236 7f00            928 	jmp	[lp]
                         929 	.global	___ghs_eofn_ucGetZOMPosOfID
                         930 ___ghs_eofn_ucGetZOMPosOfID:
                         931 	.type	_ucGetZOMPosOfID,@function
                         932 	.size	_ucGetZOMPosOfID,.-_ucGetZOMPosOfID
                         933 	.align	2
                         934 --_i	r10	local
                         935 
                         936 --_pt2ID	ep	param
                         937 
                         938 	.section ".bss","awb"
                         939 .L2214:
                         940 	.type	.L2214,@object
                         941 	.size	.L2214,0
                         942 	.data
                         943 	.text
                         944 	.align	2
                         945 	.align	2
                         946 ..gh.f.f.1.e.18:
                         947 	.type	..gh.f.f.1.e.18,@object
                         948 	.size	..gh.f.f.1.e.18,0
                         949 	.global	_bGetZomPotentStatusOfID..C.3A.5C_ECU2.5CECU_Rivian_A1.5CTarget.5Crepo_projects.5CpRealEcu.5CcR_R2023.2E09.2E15.5Cmake.5Coutput.5Cobjects.5CWAlloc.
                         950 _bGetZomPotentStatusOfID..C.3A.5C_ECU2.5CECU_Rivian_A1.5CTarget.5Crepo_projects.5CpRealEcu.5CcR_R2023.2E09.2E15.5Cmake.5Coutput.5Cobjects.5CWAlloc.:
                         951 _bGetZomPotentStatusOfID:
00000238 8600            952 	zxb	r6
                         953 --	    .bf
                         954 .LDW64:
0000023a c632            955 	shl	6,r6
0000023c 409e0000*       956 	movhi	hi(_tZOM+60),zero,r19
00000240 d331            957 	add	r19,r6

                                                                      Page 17
                                                              C:\Users\nhuliyap\AppData\Local\Temp\gh_00002rs1.s
00000242 86970100*       958 	ld.bu	lo(_tZOM+60)[r6],r18
00000246 6192            959 	cmp	1,r18
00000248 e2570000        960 	setfe	r10
                         961 --	    .ef
                         962 .LDW74:
                         963 --line330
                         964 ..lin.C.3A.5C_ECU2.5CECU_Rivian_A1.5CTarget.5Crepo_projects.5CpRealEcu.5CcR_R2023.2E09.2E15.5Cmake.5Coutput.5Cobjects.5CWAlloc.46::
                         965 .LDWlin46:
0000024c 7f00            966 	jmp	[lp]
                         967 ___ghs_eofn_bGetZomPotentStatusOfID:
                         968 	.type	_bGetZomPotentStatusOfID,@function
                         969 	.size	_bGetZomPotentStatusOfID,.-_bGetZomPotentStatusOfID
                         970 	.type	_bGetZomPotentStatusOfID..C.3A.5C_ECU2.5CECU_Rivian_A1.5CTarget.5Crepo_projects.5CpRealEcu.5CcR_R2023.2E09.2E15.5Cmake.5Coutput.5Cobjects.5CWAlloc.,@function
                         971 	.size	_bGetZomPotentStatusOfID..C.3A.5C_ECU2.5CECU_Rivian_A1.5CTarget.5Crepo_projects.5CpRealEcu.5CcR_R2023.2E09.2E15.5Cmake.5Coutput.5Cobjects.5CWAlloc.,.-_bGetZomPotentStatusOfID..C.3A.5C_ECU2.5CECU_Rivian_A1.5CTarget.5Crepo_projects.5CpRealEcu.5CcR_R2023.2E09.2E15.5Cmake.5Coutput.5Cobjects.5CWAlloc.
                         972 	.align	2
                         973 
                         974 --_ucIx	r6	param
                         975 
                         976 	.section ".bss","awb"
                         977 .L2296:
                         978 	.type	.L2296,@object
                         979 	.size	.L2296,0
                         980 	.data
                         981 	.text
                         982 	.align	2
                         983 	.align	2
                         984 ..gh.f.f.1.e.19:
                         985 	.type	..gh.f.f.1.e.19,@object
                         986 	.size	..gh.f.f.1.e.19,0
                         987 	.global	_bGetZomOwnStatusOfID..C.3A.5C_ECU2.5CECU_Rivian_A1.5CTarget.5Crepo_projects.5CpRealEcu.5CcR_R2023.2E09.2E15.5Cmake.5Coutput.5Cobjects.5CWAlloc.
                         988 _bGetZomOwnStatusOfID..C.3A.5C_ECU2.5CECU_Rivian_A1.5CTarget.5Crepo_projects.5CpRealEcu.5CcR_R2023.2E09.2E15.5Cmake.5Coutput.5Cobjects.5CWAlloc.:
                         989 _bGetZomOwnStatusOfID:
0000024e 8600            990 	zxb	r6
                         991 --	    .bf
                         992 .LDW84:
00000250 c632            993 	shl	6,r6
00000252 409e0000*       994 	movhi	hi(_tZOM+61),zero,r19
00000256 d331            995 	add	r19,r6
00000258 86970100*       996 	ld.bu	lo(_tZOM+61)[r6],r18
0000025c 6192            997 	cmp	1,r18
0000025e e2570000        998 	setfe	r10
                         999 --	    .ef
                        1000 .LDW94:
                        1001 --line340
                        1002 ..lin.C.3A.5C_ECU2.5CECU_Rivian_A1.5CTarget.5Crepo_projects.5CpRealEcu.5CcR_R2023.2E09.2E15.5Cmake.5Coutput.5Cobjects.5CWAlloc.47::
                        1003 .LDWlin47:
00000262 7f00           1004 	jmp	[lp]
                        1005 ___ghs_eofn_bGetZomOwnStatusOfID:
                        1006 	.type	_bGetZomOwnStatusOfID,@function
                        1007 	.size	_bGetZomOwnStatusOfID,.-_bGetZomOwnStatusOfID
                        1008 	.type	_bGetZomOwnStatusOfID..C.3A.5C_ECU2.5CECU_Rivian_A1.5CTarget.5Crepo_projects.5CpRealEcu.5CcR_R2023.2E09.2E15.5Cmake.5Coutput.5Cobjects.5CWAlloc.,@function
                        1009 	.size	_bGetZomOwnStatusOfID..C.3A.5C_ECU2.5CECU_Rivian_A1.5CTarget.5Crepo_projects.5CpRealEcu.5CcR_R2023.2E09.2E15.5Cmake.5Coutput.5Cobjects.5CWAlloc.,.-_bGetZomOwnStatusOfID..C.3A.5C_ECU2.5CECU_Rivian_A1.5CTarget.5Crepo_projects.5CpRealEcu.5CcR_R2023.2E09.2E15.5Cmake.5Coutput.5Cobjects.5CWAlloc.
                        1010 	.align	2
                        1011 
                        1012 --_ucIx	r6	param
                        1013 
                        1014 	.section ".bss","awb"
                        1015 .L2344:
                        1016 	.type	.L2344,@object
                        1017 	.size	.L2344,0
                        1018 	.data

                                                                      Page 18
                                                              C:\Users\nhuliyap\AppData\Local\Temp\gh_00002rs1.s
                        1019 	.text
                        1020 	.align	2
                        1021 	.align	2
                        1022 ..gh.f.f.1.e.20:
                        1023 	.type	..gh.f.f.1.e.20,@object
                        1024 	.size	..gh.f.f.1.e.20,0
                        1025 	.global	_ucGetColOfID
                        1026 _ucGetColOfID:
00000264 06f0           1027 	mov	r6,ep
                        1028 --	    .bf
                        1029 .LDW05:
00000266 0052           1030 	mov	0,r10
                        1031 .L2366:
00000268 0a48           1032 	mov	r10,r9
0000026a c24a           1033 	shl	2,r9
0000026c 40460000*      1034 	movhi	hi(_aulHistoryID),zero,r8
00000270 c849           1035 	add	r8,r9
00000272 293f0100*      1036 	ld.w	lo(_aulHistoryID)[r9],r7
00000276 0035           1037 	sld.w	0[ep],r6
00000278 e731           1038 	cmp	r7,r6
0000027a c205*          1039 	be	.L2369
                        1040 --line346
                        1041 ..lin.C.3A.5C_ECU2.5CECU_Rivian_A1.5CTarget.5Crepo_projects.5CpRealEcu.5CcR_R2023.2E09.2E15.5Cmake.5Coutput.5Cobjects.5CWAlloc.48::
                        1042 .LDWlin48:
0000027c 4152           1043 	add	1,r10
0000027e 6452           1044 	cmp	4,r10
00000280 c1f5*          1045 	bl	.L2366
                        1046 .L2369:
                        1047 --	    .ef
                        1048 .LDW15:
                        1049 --line351
                        1050 ..lin.C.3A.5C_ECU2.5CECU_Rivian_A1.5CTarget.5Crepo_projects.5CpRealEcu.5CcR_R2023.2E09.2E15.5Cmake.5Coutput.5Cobjects.5CWAlloc.49::
                        1051 .LDWlin49:
00000282 7f00           1052 	jmp	[lp]
                        1053 	.global	___ghs_eofn_ucGetColOfID
                        1054 ___ghs_eofn_ucGetColOfID:
                        1055 	.type	_ucGetColOfID,@function
                        1056 	.size	_ucGetColOfID,.-_ucGetColOfID
                        1057 	.align	2
                        1058 --_i	r10	local
                        1059 
                        1060 --_pt2ID	ep	param
                        1061 
                        1062 	.data
                        1063 	.text
                        1064 	.align	2
                        1065 	.align	2
                        1066 ..gh.f.f.1.e.21:
                        1067 	.type	..gh.f.f.1.e.21,@object
                        1068 	.size	..gh.f.f.1.e.21,0
                        1069 	.global	_ucGetWPOfCol
                        1070 _ucGetWPOfCol:
00000284 8600           1071 	zxb	r6
                        1072 --	    .bf
                        1073 .LDW25:
00000286 0452           1074 	mov	4,r10
00000288 6432           1075 	cmp	4,r6
0000028a e905*          1076 	bnl	.L2467
                        1077 --line357
                        1078 ..lin.C.3A.5C_ECU2.5CECU_Rivian_A1.5CTarget.5Crepo_projects.5CpRealEcu.5CcR_R2023.2E09.2E15.5Cmake.5Coutput.5Cobjects.5CWAlloc.50::
                        1079 .LDWlin50:

                                                                      Page 19
                                                              C:\Users\nhuliyap\AppData\Local\Temp\gh_00002rs1.s
0000028c 3e0600000000*  1080 	mov	_aucHistoryWP,ep
00000292 c6f1           1081 	add	r6,ep
00000294 6050           1082 	sld.bu	0[ep],r10
                        1083 .L2467:
                        1084 --	    .ef
                        1085 .LDW35:
                        1086 --line361
                        1087 ..lin.C.3A.5C_ECU2.5CECU_Rivian_A1.5CTarget.5Crepo_projects.5CpRealEcu.5CcR_R2023.2E09.2E15.5Cmake.5Coutput.5Cobjects.5CWAlloc.51::
                        1088 .LDWlin51:
00000296 7f00           1089 	jmp	[lp]
                        1090 	.global	___ghs_eofn_ucGetWPOfCol
                        1091 ___ghs_eofn_ucGetWPOfCol:
                        1092 	.type	_ucGetWPOfCol,@function
                        1093 	.size	_ucGetWPOfCol,.-_ucGetWPOfCol
                        1094 	.align	2
                        1095 
                        1096 --_ucIx	r6	param
                        1097 
                        1098 	.data
                        1099 	.text
                        1100 	.align	2
                        1101 	.align	2
                        1102 ..gh.f.f.1.e.22:
                        1103 	.type	..gh.f.f.1.e.22,@object
                        1104 	.size	..gh.f.f.1.e.22,0
                        1105 	.global	_ucGetIndexOfHistoryWP
                        1106 _ucGetIndexOfHistoryWP:
00000298 8600           1107 	zxb	r6
                        1108 --	    .bf
                        1109 .LDW45:
0000029a 0052           1110 	mov	0,r10
                        1111 .L2553:
0000029c 3e0600000000*  1112 	mov	_aucHistoryWP,ep
000002a2 caf1           1113 	add	r10,ep
000002a4 6090           1114 	sld.bu	0[ep],r18
000002a6 f231           1115 	cmp	r18,r6
000002a8 c205*          1116 	be	.L2556
                        1117 --line367
                        1118 ..lin.C.3A.5C_ECU2.5CECU_Rivian_A1.5CTarget.5Crepo_projects.5CpRealEcu.5CcR_R2023.2E09.2E15.5Cmake.5Coutput.5Cobjects.5CWAlloc.52::
                        1119 .LDWlin52:
000002aa 4152           1120 	add	1,r10
000002ac 6452           1121 	cmp	4,r10
000002ae f1f5*          1122 	bl	.L2553
                        1123 .L2556:
                        1124 --	    .ef
                        1125 .LDW55:
                        1126 --line372
                        1127 ..lin.C.3A.5C_ECU2.5CECU_Rivian_A1.5CTarget.5Crepo_projects.5CpRealEcu.5CcR_R2023.2E09.2E15.5Cmake.5Coutput.5Cobjects.5CWAlloc.53::
                        1128 .LDWlin53:
000002b0 7f00           1129 	jmp	[lp]
                        1130 	.global	___ghs_eofn_ucGetIndexOfHistoryWP
                        1131 ___ghs_eofn_ucGetIndexOfHistoryWP:
                        1132 	.type	_ucGetIndexOfHistoryWP,@function
                        1133 	.size	_ucGetIndexOfHistoryWP,.-_ucGetIndexOfHistoryWP
                        1134 	.align	2
                        1135 --_i	r10	local
                        1136 
                        1137 --_ucWPNumber	r6	param
                        1138 
                        1139 	.data
                        1140 	.text

                                                                      Page 20
                                                              C:\Users\nhuliyap\AppData\Local\Temp\gh_00002rs1.s
                        1141 	.align	2
                        1142 	.align	2
                        1143 ..gh.f.f.1.e.23:
                        1144 	.type	..gh.f.f.1.e.23,@object
                        1145 	.size	..gh.f.f.1.e.23,0
                        1146 	.global	_ucGetFreeZOMPos..C.3A.5C_ECU2.5CECU_Rivian_A1.5CTarget.5Crepo_projects.5CpRealEcu.5CcR_R2023.2E09.2E15.5Cmake.5Coutput.5Cobjects.5CWAlloc.
                        1147 _ucGetFreeZOMPos..C.3A.5C_ECU2.5CECU_Rivian_A1.5CTarget.5Crepo_projects.5CpRealEcu.5CcR_R2023.2E09.2E15.5Cmake.5Coutput.5Cobjects.5CWAlloc.:
                        1148 _ucGetFreeZOMPos:
                        1149 --	    .bf
                        1150 .LDW65:
000002b2 0052           1151 	mov	0,r10
                        1152 .L2647:
000002b4 0af0           1153 	mov	r10,ep
000002b6 c6f2           1154 	shl	6,ep
000002b8 290600000000*  1155 	mov	_tZOM,r9
000002be c9f1           1156 	add	r9,ep
000002c0 0045           1157 	sld.w	0[ep],r8
000002c2 e041           1158 	cmp	zero,r8
000002c4 c205*          1159 	be	.L2650
                        1160 --line378
                        1161 ..lin.C.3A.5C_ECU2.5CECU_Rivian_A1.5CTarget.5Crepo_projects.5CpRealEcu.5CcR_R2023.2E09.2E15.5Cmake.5Coutput.5Cobjects.5CWAlloc.54::
                        1162 .LDWlin54:
000002c6 4152           1163 	add	1,r10
000002c8 6852           1164 	cmp	8,r10
000002ca d1f5*          1165 	bl	.L2647
                        1166 .L2650:
                        1167 --	    .ef
                        1168 .LDW75:
                        1169 --line383
                        1170 ..lin.C.3A.5C_ECU2.5CECU_Rivian_A1.5CTarget.5Crepo_projects.5CpRealEcu.5CcR_R2023.2E09.2E15.5Cmake.5Coutput.5Cobjects.5CWAlloc.55::
                        1171 .LDWlin55:
000002cc 7f00           1172 	jmp	[lp]
                        1173 ___ghs_eofn_ucGetFreeZOMPos:
                        1174 	.type	_ucGetFreeZOMPos,@function
                        1175 	.size	_ucGetFreeZOMPos,.-_ucGetFreeZOMPos
                        1176 	.type	_ucGetFreeZOMPos..C.3A.5C_ECU2.5CECU_Rivian_A1.5CTarget.5Crepo_projects.5CpRealEcu.5CcR_R2023.2E09.2E15.5Cmake.5Coutput.5Cobjects.5CWAlloc.,@function
                        1177 	.size	_ucGetFreeZOMPos..C.3A.5C_ECU2.5CECU_Rivian_A1.5CTarget.5Crepo_projects.5CpRealEcu.5CcR_R2023.2E09.2E15.5Cmake.5Coutput.5Cobjects.5CWAlloc.,.-_ucGetFreeZOMPos..C.3A.5C_ECU2.5CECU_Rivian_A1.5CTarget.5Crepo_projects.5CpRealEcu.5CcR_R2023.2E09.2E15.5Cmake.5Coutput.5Cobjects.5CWAlloc.
                        1178 	.align	2
                        1179 --_i	r10	local
                        1180 
                        1181 	.section ".bss","awb"
                        1182 .L2694:
                        1183 	.type	.L2694,@object
                        1184 	.size	.L2694,0
                        1185 	.data
                        1186 	.text
                        1187 	.align	2
                        1188 	.align	2
                        1189 ..gh.f.f.1.e.24:
                        1190 	.type	..gh.f.f.1.e.24,@object
                        1191 	.size	..gh.f.f.1.e.24,0
                        1192 	.global	_ucStartWA..C.3A.5C_ECU2.5CECU_Rivian_A1.5CTarget.5Crepo_projects.5CpRealEcu.5CcR_R2023.2E09.2E15.5Cmake.5Coutput.5Cobjects.5CWAlloc.
                        1193 _ucStartWA..C.3A.5C_ECU2.5CECU_Rivian_A1.5CTarget.5Crepo_projects.5CpRealEcu.5CcR_R2023.2E09.2E15.5Cmake.5Coutput.5Cobjects.5CWAlloc.:
                        1194 _ucStartWA:
                        1195 --	    .bf
                        1196 .LDW85:
000002ce 0092           1197 	mov	0,r18
000002d0 1288           1198 	mov	r18,r17
                        1199 .L2743:
000002d2 11f0           1200 	mov	r17,ep
000002d4 c6f2           1201 	shl	6,ep

                                                                      Page 21
                                                              C:\Users\nhuliyap\AppData\Local\Temp\gh_00002rs1.s
000002d6 300600000000*  1202 	mov	_tZOM,r16
000002dc d0f1           1203 	add	r16,ep
000002de 6578           1204 	sld.bu	5[ep],r15
000002e0 e079           1205 	cmp	zero,r15
000002e2 b205*          1206 	be	.L2744
                        1207 --line391
                        1208 ..lin.C.3A.5C_ECU2.5CECU_Rivian_A1.5CTarget.5Crepo_projects.5CpRealEcu.5CcR_R2023.2E09.2E15.5Cmake.5Coutput.5Cobjects.5CWAlloc.56::
                        1209 .LDWlin56:
000002e4 4192           1210 	add	1,r18
000002e6 9200           1211 	zxb	r18
                        1212 .L2744:
000002e8 418a           1213 	add	1,r17
000002ea 688a           1214 	cmp	8,r17
000002ec b1f5*          1215 	bl	.L2743
                        1216 --line394
                        1217 ..lin.C.3A.5C_ECU2.5CECU_Rivian_A1.5CTarget.5Crepo_projects.5CpRealEcu.5CcR_R2023.2E09.2E15.5Cmake.5Coutput.5Cobjects.5CWAlloc.57::
                        1218 .LDWlin57:
000002ee 6492           1219 	cmp	4,r18
000002f0 e2570000       1220 	setfe	r10
                        1221 --	    .ef
                        1222 .LDW95:
000002f4 7f00           1223 	jmp	[lp]
                        1224 ___ghs_eofn_ucStartWA:
                        1225 	.type	_ucStartWA,@function
                        1226 	.size	_ucStartWA,.-_ucStartWA
                        1227 	.type	_ucStartWA..C.3A.5C_ECU2.5CECU_Rivian_A1.5CTarget.5Crepo_projects.5CpRealEcu.5CcR_R2023.2E09.2E15.5Cmake.5Coutput.5Cobjects.5CWAlloc.,@function
                        1228 	.size	_ucStartWA..C.3A.5C_ECU2.5CECU_Rivian_A1.5CTarget.5Crepo_projects.5CpRealEcu.5CcR_R2023.2E09.2E15.5Cmake.5Coutput.5Cobjects.5CWAlloc.,.-_ucStartWA..C.3A.5C_ECU2.5CECU_Rivian_A1.5CTarget.5Crepo_projects.5CpRealEcu.5CcR_R2023.2E09.2E15.5Cmake.5Coutput.5Cobjects.5CWAlloc.
                        1229 	.align	2
                        1230 --_i	r17	local
                        1231 --_ucRet	r18	local
                        1232 
                        1233 	.section ".bss","awb"
                        1234 .L2796:
                        1235 	.type	.L2796,@object
                        1236 	.size	.L2796,0
                        1237 	.data
                        1238 	.text
                        1239 	.align	2
                        1240 	.align	2
                        1241 ..gh.f.f.1.e.25:
                        1242 	.type	..gh.f.f.1.e.25,@object
                        1243 	.size	..gh.f.f.1.e.25,0
                        1244 	.global	_AlignZOM
                        1245 _AlignZOM:
000002f6 8007e110       1246 	prepare	{r27,r28,r29,r31},0
000002fa 06e8           1247 	mov	r6,r29
000002fc dd00           1248 	zxh	r29
                        1249 --	    .bf
                        1250 .LDW06:
000002fe 00e2           1251 	mov	0,r28
00000300 1cd8           1252 	mov	r28,r27
                        1253 .L2854:
00000302 0152           1254 	mov	1,r10
00000304 fb57c260       1255 	shl	r27,r10,r12
00000308 1d80           1256 	mov	r29,r16
0000030a 4c81           1257 	and	r12,r16
0000030c e081           1258 	cmp	zero,r16
0000030e c705*          1259 	ble	.L2855
                        1260 --line403
                        1261 ..lin.C.3A.5C_ECU2.5CECU_Rivian_A1.5CTarget.5Crepo_projects.5CpRealEcu.5CcR_R2023.2E09.2E15.5Cmake.5Coutput.5Cobjects.5CWAlloc.58::
                        1262 .LDWlin58:

                                                                      Page 22
                                                              C:\Users\nhuliyap\AppData\Local\Temp\gh_00002rs1.s
00000310 41e2           1263 	add	1,r28
00000312 9c00           1264 	zxb	r28
00000314 c52d*          1265 	br	.L2857
                        1266 .L2855:
                        1267 --line406
                        1268 ..lin.C.3A.5C_ECU2.5CECU_Rivian_A1.5CTarget.5Crepo_projects.5CpRealEcu.5CcR_R2023.2E09.2E15.5Cmake.5Coutput.5Cobjects.5CWAlloc.59::
                        1269 .LDWlin59:
00000316 1b360100       1270 	addi	1,r27,r6
0000031a e525*          1271 	br	.L2861
                        1272 .L2860:
                        1273 --line407
                        1274 ..lin.C.3A.5C_ECU2.5CECU_Rivian_A1.5CTarget.5Crepo_projects.5CpRealEcu.5CcR_R2023.2E09.2E15.5Cmake.5Coutput.5Cobjects.5CWAlloc.60::
                        1275 .LDWlin60:
0000031c e657c268       1276 	shl	r6,r10,r13
00000320 1d78           1277 	mov	r29,r15
00000322 4d79           1278 	and	r13,r15
00000324 e079           1279 	cmp	zero,r15
00000326 f71d*          1280 	ble	.L2859
                        1281 --line408
                        1282 ..lin.C.3A.5C_ECU2.5CECU_Rivian_A1.5CTarget.5Crepo_projects.5CpRealEcu.5CcR_R2023.2E09.2E15.5Cmake.5Coutput.5Cobjects.5CWAlloc.61::
                        1283 .LDWlin61:
00000328 41e2           1284 	add	1,r28
0000032a 9c00           1285 	zxb	r28
0000032c 009a           1286 	mov	0,r19
                        1287 .L2866:
0000032e 1b90           1288 	mov	r27,r18
00000330 0688           1289 	mov	r6,r17
00000332 2b0600000000*  1290 	mov	_tZOM,r11
00000338 c692           1291 	shl	6,r18
0000033a c68a           1292 	shl	6,r17
0000033c cb91           1293 	add	r11,r18
0000033e 13f0           1294 	mov	r19,ep
00000340 cb89           1295 	add	r11,r17
00000342 1370           1296 	mov	r19,r14
00000344 d2f1           1297 	add	r18,ep
00000346 d171           1298 	add	r17,r14
00000348 8e970100       1299 	ld.bu	0[r14],r18
                        1300 --line409
                        1301 ..lin.C.3A.5C_ECU2.5CECU_Rivian_A1.5CTarget.5Crepo_projects.5CpRealEcu.5CcR_R2023.2E09.2E15.5Cmake.5Coutput.5Cobjects.5CWAlloc.62::
                        1302 .LDWlin62:
0000034c 419a           1303 	add	1,r19
0000034e 1306c0ff       1304 	addi	-64,r19,zero
00000352 8093           1305 	sst.b	r18,0[ep]
00000354 d9ed*          1306 	bnl	.L2866
                        1307 --line412
                        1308 ..lin.C.3A.5C_ECU2.5CECU_Rivian_A1.5CTarget.5Crepo_projects.5CpRealEcu.5CcR_R2023.2E09.2E15.5Cmake.5Coutput.5Cobjects.5CWAlloc.63::
                        1309 .LDWlin63:
00000356 0ce9           1310 	or	r12,r29
00000358 dd00           1311 	zxh	r29
0000035a 2d88           1312 	not	r13,r17
0000035c 51e9           1313 	and	r17,r29
                        1314 	jarl	_ClearZOM,lp
                        1314 <EXPANSION BEGIN>
                        1314 jarl22 _ClearZOM , lp 
0000035e bfff24fd*      1314 <EXPANSION END>
                        1315 --line416
                        1316 ..lin.C.3A.5C_ECU2.5CECU_Rivian_A1.5CTarget.5Crepo_projects.5CpRealEcu.5CcR_R2023.2E09.2E15.5Cmake.5Coutput.5Cobjects.5CWAlloc.64::
                        1317 .LDWlin64:
00000362 d505*          1318 	br	.L2857
                        1319 .L2859:
                        1320 --line406

                                                                      Page 23
                                                              C:\Users\nhuliyap\AppData\Local\Temp\gh_00002rs1.s
                        1321 ..lin.C.3A.5C_ECU2.5CECU_Rivian_A1.5CTarget.5Crepo_projects.5CpRealEcu.5CcR_R2023.2E09.2E15.5Cmake.5Coutput.5Cobjects.5CWAlloc.65::
                        1322 .LDWlin65:
00000364 4132           1323 	add	1,r6
                        1324 .L2861:
00000366 8600           1325 	zxb	r6
00000368 6832           1326 	cmp	8,r6
0000036a 91dd*          1327 	bl	.L2860
                        1328 .L2857:
                        1329 --line420
                        1330 ..lin.C.3A.5C_ECU2.5CECU_Rivian_A1.5CTarget.5Crepo_projects.5CpRealEcu.5CcR_R2023.2E09.2E15.5Cmake.5Coutput.5Cobjects.5CWAlloc.66::
                        1331 .LDWlin66:
0000036c 64e2           1332 	cmp	4,r28
0000036e c205*          1333 	be	.L2850
                        1334 --line401
                        1335 ..lin.C.3A.5C_ECU2.5CECU_Rivian_A1.5CTarget.5Crepo_projects.5CpRealEcu.5CcR_R2023.2E09.2E15.5Cmake.5Coutput.5Cobjects.5CWAlloc.67::
                        1336 .LDWlin67:
00000370 41da           1337 	add	1,r27
00000372 68da           1338 	cmp	8,r27
00000374 f1c5*          1339 	bl	.L2854
                        1340 .L2850:
                        1341 --	    .ef
                        1342 .LDW16:
                        1343 --line424
                        1344 ..lin.C.3A.5C_ECU2.5CECU_Rivian_A1.5CTarget.5Crepo_projects.5CpRealEcu.5CcR_R2023.2E09.2E15.5Cmake.5Coutput.5Cobjects.5CWAlloc.68::
                        1345 .LDWlin68:
00000376 4006ff10       1346 	dispose	0,{r27,r28,r29,r31},[lp]
                        1347 	.global	___ghs_eofn_AlignZOM
                        1348 ___ghs_eofn_AlignZOM:
                        1349 	.type	_AlignZOM,@function
                        1350 	.size	_AlignZOM,.-_AlignZOM
                        1351 	.align	2
                        1352 --_i	r27	local
                        1353 --_j	r6	local
                        1354 --_k	r19	local
                        1355 --_ucCt	r28	local
                        1356 
                        1357 --_ushERSlot	r29	param
                        1358 
                        1359 	.section ".bss","awb"
                        1360 .L2952:
                        1361 	.type	.L2952,@object
                        1362 	.size	.L2952,0
                        1363 	.data
                        1364 	.text
                        1365 	.align	2
                        1366 	.align	2
                        1367 ..gh.f.f.1.e.26:
                        1368 	.type	..gh.f.f.1.e.26,@object
                        1369 	.size	..gh.f.f.1.e.26,0
                        1370 	.global	_ucLowestProbe..C.3A.5C_ECU2.5CECU_Rivian_A1.5CTarget.5Crepo_projects.5CpRealEcu.5CcR_R2023.2E09.2E15.5Cmake.5Coutput.5Cobjects.5CWAlloc.
                        1371 _ucLowestProbe..C.3A.5C_ECU2.5CECU_Rivian_A1.5CTarget.5Crepo_projects.5CpRealEcu.5CcR_R2023.2E09.2E15.5Cmake.5Coutput.5Cobjects.5CWAlloc.:
                        1372 _ucLowestProbe:
0000037a 8007e130       1373 	prepare	{r26,r27,r28,r29,r31},0
0000037e 06d8           1374 	mov	r6,r27
00000380 db00           1375 	zxh	r27
                        1376 --	    .bf
                        1377 .LDW26:
00000382 20e68000       1378 	movea	128,zero,r28
00000386 00ea           1379 	mov	0,r29
                        1380 .L3079:
00000388 0182           1381 	mov	1,r16

                                                                      Page 24
                                                              C:\Users\nhuliyap\AppData\Local\Temp\gh_00002rs1.s
0000038a fd87c290       1382 	shl	r29,r16,r18
0000038e 5b91           1383 	and	r27,r18
00000390 8a15*          1384 	bne	.L3080
                        1385 --line431
                        1386 ..lin.C.3A.5C_ECU2.5CECU_Rivian_A1.5CTarget.5Crepo_projects.5CpRealEcu.5CcR_R2023.2E09.2E15.5Cmake.5Coutput.5Cobjects.5CWAlloc.69::
                        1387 .LDWlin69:
00000392 1d30           1388 	mov	r29,r6
00000394 1c0680ff       1389 	addi	-128,r28,zero
00000398 b20d*          1390 	be	.L3086
                        1391 --line435
                        1392 ..lin.C.3A.5C_ECU2.5CECU_Rivian_A1.5CTarget.5Crepo_projects.5CpRealEcu.5CcR_R2023.2E09.2E15.5Cmake.5Coutput.5Cobjects.5CWAlloc.70::
                        1393 .LDWlin70:
                        1394 	jarl	_ucGetProbeCt,lp
                        1394 <EXPANSION BEGIN>
                        1394 jarl22 _ucGetProbeCt , lp 
0000039a bfff96fd*      1394 <EXPANSION END>
0000039e 0ad0           1395 	mov	r10,r26
000003a0 1c30           1396 	mov	r28,r6
                        1397 	jarl	_ucGetProbeCt,lp
                        1397 <EXPANSION BEGIN>
                        1397 jarl22 _ucGetProbeCt , lp 
000003a2 bfff8efd*      1397 <EXPANSION END>
000003a6 ead1           1398 	cmp	r10,r26
000003a8 fde722e3       1399 	cmovl	r29,r28,r28
000003ac a505*          1400 	br	.L3080
                        1401 .L3086:
                        1402 --line438
                        1403 ..lin.C.3A.5C_ECU2.5CECU_Rivian_A1.5CTarget.5Crepo_projects.5CpRealEcu.5CcR_R2023.2E09.2E15.5Cmake.5Coutput.5Cobjects.5CWAlloc.71::
                        1404 .LDWlin71:
000003ae 1de0           1405 	mov	r29,r28
                        1406 .L3080:
000003b0 41ea           1407 	add	1,r29
000003b2 68ea           1408 	cmp	8,r29
000003b4 a1ed*          1409 	bl	.L3079
                        1410 --line443
                        1411 ..lin.C.3A.5C_ECU2.5CECU_Rivian_A1.5CTarget.5Crepo_projects.5CpRealEcu.5CcR_R2023.2E09.2E15.5Cmake.5Coutput.5Cobjects.5CWAlloc.72::
                        1412 .LDWlin72:
000003b6 dc567f00       1413 	andi	127,r28,r10
                        1414 --	    .ef
                        1415 .LDW36:
000003ba 4006ff30       1416 	dispose	0,{r26,r27,r28,r29,r31},[lp]
                        1417 ___ghs_eofn_ucLowestProbe:
                        1418 	.type	_ucLowestProbe,@function
                        1419 	.size	_ucLowestProbe,.-_ucLowestProbe
                        1420 	.type	_ucLowestProbe..C.3A.5C_ECU2.5CECU_Rivian_A1.5CTarget.5Crepo_projects.5CpRealEcu.5CcR_R2023.2E09.2E15.5Cmake.5Coutput.5Cobjects.5CWAlloc.,@function
                        1421 	.size	_ucLowestProbe..C.3A.5C_ECU2.5CECU_Rivian_A1.5CTarget.5Crepo_projects.5CpRealEcu.5CcR_R2023.2E09.2E15.5Cmake.5Coutput.5Cobjects.5CWAlloc.,.-_ucLowestProbe..C.3A.5C_ECU2.5CECU_Rivian_A1.5CTarget.5Crepo_projects.5CpRealEcu.5CcR_R2023.2E09.2E15.5Cmake.5Coutput.5Cobjects.5CWAlloc.
                        1422 	.align	2
                        1423 --_i	r29	local
                        1424 --_ucMinIx	r28	local
                        1425 
                        1426 --_ushException	r27	param
                        1427 
                        1428 	.section ".bss","awb"
                        1429 .L3155:
                        1430 	.type	.L3155,@object
                        1431 	.size	.L3155,0
                        1432 	.data
                        1433 	.text
                        1434 	.align	2
                        1435 	.align	2
                        1436 ..gh.f.f.1.e.27:

                                                                      Page 25
                                                              C:\Users\nhuliyap\AppData\Local\Temp\gh_00002rs1.s
                        1437 	.type	..gh.f.f.1.e.27,@object
                        1438 	.size	..gh.f.f.1.e.27,0
                        1439 	.global	_ucSumCtID
                        1440 _ucSumCtID:
000003be 8007e130       1441 	prepare	{r26,r27,r28,r29,r31},0
000003c2 06d8           1442 	mov	r6,r27
000003c4 9b00           1443 	zxb	r27
000003c6 c7d6ff00       1444 	andi	255,r7,r26
                        1445 --	    .bf
                        1446 .LDW46:
000003ca 00e2           1447 	mov	0,r28
000003cc 1ce8           1448 	mov	r28,r29
                        1449 .L3232:
000003ce 1d30           1450 	mov	r29,r6
                        1451 	jarl	_ucGetProbeCt,lp
                        1451 <EXPANSION BEGIN>
                        1451 jarl22 _ucGetProbeCt , lp 
000003d0 bfff60fd*      1451 <EXPANSION END>
000003d4 fb51           1452 	cmp	r27,r10
000003d6 810d*          1453 	bl	.L3233
000003d8 1d30           1454 	mov	r29,r6
                        1455 	jarl	_ushGetMeanRssiSum,lp
                        1455 <EXPANSION BEGIN>
                        1455 jarl22 _ushGetMeanRssiSum , lp 
000003da bfffd6fd*      1455 <EXPANSION END>
000003de fa51           1456 	cmp	r26,r10
000003e0 b105*          1457 	bl	.L3233
                        1458 --line454
                        1459 ..lin.C.3A.5C_ECU2.5CECU_Rivian_A1.5CTarget.5Crepo_projects.5CpRealEcu.5CcR_R2023.2E09.2E15.5Cmake.5Coutput.5Cobjects.5CWAlloc.73::
                        1460 .LDWlin73:
000003e2 41e2           1461 	add	1,r28
000003e4 9c00           1462 	zxb	r28
                        1463 .L3233:
000003e6 41ea           1464 	add	1,r29
000003e8 68ea           1465 	cmp	8,r29
000003ea a1f5*          1466 	bl	.L3232
                        1467 --line457
                        1468 ..lin.C.3A.5C_ECU2.5CECU_Rivian_A1.5CTarget.5Crepo_projects.5CpRealEcu.5CcR_R2023.2E09.2E15.5Cmake.5Coutput.5Cobjects.5CWAlloc.74::
                        1469 .LDWlin74:
000003ec 1c50           1470 	mov	r28,r10
                        1471 --	    .ef
                        1472 .LDW56:
000003ee 4006ff30       1473 	dispose	0,{r26,r27,r28,r29,r31},[lp]
                        1474 	.global	___ghs_eofn_ucSumCtID
                        1475 ___ghs_eofn_ucSumCtID:
                        1476 	.type	_ucSumCtID,@function
                        1477 	.size	_ucSumCtID,.-_ucSumCtID
                        1478 	.align	2
                        1479 --_i	r29	local
                        1480 --_ucCt	r28	local
                        1481 
                        1482 --_ucMinCt	r27	param
                        1483 --_ucMinRssi	r26	param
                        1484 
                        1485 	.section ".bss","awb"
                        1486 .L3298:
                        1487 	.type	.L3298,@object
                        1488 	.size	.L3298,0
                        1489 	.data
                        1490 	.text
                        1491 	.align	2

                                                                      Page 26
                                                              C:\Users\nhuliyap\AppData\Local\Temp\gh_00002rs1.s
                        1492 	.align	2
                        1493 ..gh.f.f.1.e.28:
                        1494 	.type	..gh.f.f.1.e.28,@object
                        1495 	.size	..gh.f.f.1.e.28,0
                        1496 	.global	_ucGetHistoryState..C.3A.5C_ECU2.5CECU_Rivian_A1.5CTarget.5Crepo_projects.5CpRealEcu.5CcR_R2023.2E09.2E15.5Cmake.5Coutput.5Cobjects.5CWAlloc.
                        1497 _ucGetHistoryState..C.3A.5C_ECU2.5CECU_Rivian_A1.5CTarget.5Crepo_projects.5CpRealEcu.5CcR_R2023.2E09.2E15.5Cmake.5Coutput.5Cobjects.5CWAlloc.:
                        1498 _ucGetHistoryState:
000003f2 320600000000*  1499 	mov	_aucHistoryWP,r18
                        1500 --	    .bf
                        1501 .LDW66:
                        1502 --line1078
                        1503 ..lin.C.3A.5C_ECU2.5CECU_Rivian_A1.5CTarget.5Crepo_projects.5CpRealEcu.5CcR_R2023.2E09.2E15.5Cmake.5Coutput.5Cobjects.5CWAlloc.75::
                        1504 .LDWlin75:
000003f8 32470900       1505 	ld.w	8[r18],r8
000003fc 004a           1506 	mov	0,r9
000003fe 7f42           1507 	cmp	-1,r8
00000400 e3070253       1508 	cmovl	3,zero,r10
00000404 b90d*          1509 	bnl	.L3361
                        1510 .L3367:
                        1511 --line1081
                        1512 ..lin.C.3A.5C_ECU2.5CECU_Rivian_A1.5CTarget.5Crepo_projects.5CpRealEcu.5CcR_R2023.2E09.2E15.5Cmake.5Coutput.5Cobjects.5CWAlloc.76::
                        1513 .LDWlin76:
00000406 09f0           1514 	mov	r9,ep
00000408 d2f1           1515 	add	r18,ep
0000040a 6030           1516 	sld.bu	0[ep],r6
0000040c 6332           1517 	cmp	3,r6
0000040e e1571653       1518 	cmovh	1,r10,r10
00000412 414a           1519 	add	1,r9
00000414 644a           1520 	cmp	4,r9
00000416 81fd*          1521 	bl	.L3367
00000418 7f00           1522 	jmp	[lp]
                        1523 .L3361:
                        1524 --	    .ef
                        1525 .LDW76:
                        1526 --line1086
                        1527 ..lin.C.3A.5C_ECU2.5CECU_Rivian_A1.5CTarget.5Crepo_projects.5CpRealEcu.5CcR_R2023.2E09.2E15.5Cmake.5Coutput.5Cobjects.5CWAlloc.77::
                        1528 .LDWlin77:
0000041a 7f00           1529 	jmp	[lp]
                        1530 ___ghs_eofn_ucGetHistoryState:
                        1531 	.type	_ucGetHistoryState,@function
                        1532 	.size	_ucGetHistoryState,.-_ucGetHistoryState
                        1533 	.type	_ucGetHistoryState..C.3A.5C_ECU2.5CECU_Rivian_A1.5CTarget.5Crepo_projects.5CpRealEcu.5CcR_R2023.2E09.2E15.5Cmake.5Coutput.5Cobjects.5CWAlloc.,@function
                        1534 	.size	_ucGetHistoryState..C.3A.5C_ECU2.5CECU_Rivian_A1.5CTarget.5Crepo_projects.5CpRealEcu.5CcR_R2023.2E09.2E15.5Cmake.5Coutput.5Cobjects.5CWAlloc.,.-_ucGetHistoryState..C.3A.5C_ECU2.5CECU_Rivian_A1.5CTarget.5Crepo_projects.5CpRealEcu.5CcR_R2023.2E09.2E15.5Cmake.5Coutput.5Cobjects.5CWAlloc.
                        1535 	.align	2
                        1536 --_i	r9	local
                        1537 --_ucRet	r10	local
                        1538 
                        1539 	.data
                        1540 	.text
                        1541 	.align	2
                        1542 	.align	2
                        1543 ..gh.f.f.1.e.29:
                        1544 	.type	..gh.f.f.1.e.29,@object
                        1545 	.size	..gh.f.f.1.e.29,0
                        1546 	.global	_bGetHistProtecTimeOver
                        1547 _bGetHistProtecTimeOver:
                        1548 --	    .bf
                        1549 .LDW86:
0000041c 408e0000*      1550 	movhi	hi(_tWAPar+13),zero,r17
00000420 918f0100*      1551 	ld.bu	lo(_tWAPar+13)[r17],r17
00000424 40860000*      1552 	movhi	hi(_ushHistProtecTimeCnt),zero,r16

                                                                      Page 27
                                                              C:\Users\nhuliyap\AppData\Local\Temp\gh_00002rs1.s
00000428 f0870100*      1553 	ld.hu	lo(_ushHistProtecTimeCnt)[r16],r16
0000042c f1962c01       1554 	mulhi	300,r17,r18
00000430 f281           1555 	cmp	r18,r16
00000432 ee570000       1556 	setfge	r10
                        1557 --	    .ef
                        1558 .LDW96:
                        1559 --line1241
                        1560 ..lin.C.3A.5C_ECU2.5CECU_Rivian_A1.5CTarget.5Crepo_projects.5CpRealEcu.5CcR_R2023.2E09.2E15.5Cmake.5Coutput.5Cobjects.5CWAlloc.78::
                        1561 .LDWlin78:
00000436 7f00           1562 	jmp	[lp]
                        1563 	.global	___ghs_eofn_bGetHistProtecTimeOver
                        1564 ___ghs_eofn_bGetHistProtecTimeOver:
                        1565 	.type	_bGetHistProtecTimeOver,@function
                        1566 	.size	_bGetHistProtecTimeOver,.-_bGetHistProtecTimeOver
                        1567 	.align	2
                        1568 
                        1569 	.data
                        1570 	.text
                        1571 	.align	2
                        1572 	.align	2
                        1573 ..gh.f.f.1.e.30:
                        1574 	.type	..gh.f.f.1.e.30,@object
                        1575 	.size	..gh.f.f.1.e.30,0
                        1576 	.global	_CheckAndMarkNewIdER..C.3A.5C_ECU2.5CECU_Rivian_A1.5CTarget.5Crepo_projects.5CpRealEcu.5CcR_R2023.2E09.2E15.5Cmake.5Coutput.5Cobjects.5CWAlloc.
                        1577 _CheckAndMarkNewIdER..C.3A.5C_ECU2.5CECU_Rivian_A1.5CTarget.5Crepo_projects.5CpRealEcu.5CcR_R2023.2E09.2E15.5Cmake.5Coutput.5Cobjects.5CWAlloc.:
                        1578 _CheckAndMarkNewIdER:
00000438 8007e170       1579 	prepare	{r25,r26,r27,r28,r29,r31},0
0000043c 06d0           1580 	mov	r6,r26
0000043e 9a00           1581 	zxb	r26
                        1582 --	    .bf
                        1583 .LDW07:
00000440 00e2           1584 	mov	0,r28
00000442 3b0600000000*  1585 	mov	_tWAPar,r27
00000448 390600000000*  1586 	mov	_tZOM,r25
                        1587 .L4141:
                        1588 --line494
                        1589 ..lin.C.3A.5C_ECU2.5CECU_Rivian_A1.5CTarget.5Crepo_projects.5CpRealEcu.5CcR_R2023.2E09.2E15.5Cmake.5Coutput.5Cobjects.5CWAlloc.79::
                        1590 .LDWlin79:
0000044e 1ce8           1591 	mov	r28,r29
00000450 c2ea           1592 	shl	2,r29
00000452 407e0000*      1593 	movhi	hi(_aulHistoryID),zero,r15
00000456 cfe9           1594 	add	r15,r29
00000458 1a30           1595 	mov	r26,r6
                        1596 	jarl	_ulGetZOMID,lp
                        1596 <EXPANSION BEGIN>
                        1596 jarl22 _ulGetZOMID , lp 
0000045a bfff8efc*      1596 <EXPANSION END>
0000045e 3d770100*      1597 	ld.w	lo(_aulHistoryID)[r29],r14
00000462 ea71           1598 	cmp	r10,r14
00000464 fa0d*          1599 	bne	.L4148
                        1600 --line496
                        1601 ..lin.C.3A.5C_ECU2.5CECU_Rivian_A1.5CTarget.5Crepo_projects.5CpRealEcu.5CcR_R2023.2E09.2E15.5Cmake.5Coutput.5Cobjects.5CWAlloc.80::
                        1602 .LDWlin80:
00000466 1a30           1603 	mov	r26,r6
                        1604 	jarl	_ucGetProbeCt,lp
                        1604 <EXPANSION BEGIN>
                        1604 jarl22 _ucGetProbeCt , lp 
00000468 bfffc8fc*      1604 <EXPANSION END>
0000046c bb4f0700       1605 	ld.bu	7[r27],r9
00000470 e951           1606 	cmp	r9,r10
00000472 c14d*          1607 	bl	.L4137

                                                                      Page 28
                                                              C:\Users\nhuliyap\AppData\Local\Temp\gh_00002rs1.s
                        1608 --line498
                        1609 ..lin.C.3A.5C_ECU2.5CECU_Rivian_A1.5CTarget.5Crepo_projects.5CpRealEcu.5CcR_R2023.2E09.2E15.5Cmake.5Coutput.5Cobjects.5CWAlloc.81::
                        1610 .LDWlin81:
00000474 1af0           1611 	mov	r26,ep
00000476 c6f2           1612 	shl	6,ep
00000478 d9f1           1613 	add	r25,ep
0000047a 0142           1614 	mov	1,r8
0000047c bd43           1615 	sst.b	r8,61[ep]
0000047e 4006ff70       1616 	dispose	0,{r25,r26,r27,r28,r29,r31},[lp]
                        1617 .L4148:
                        1618 --line493
                        1619 ..lin.C.3A.5C_ECU2.5CECU_Rivian_A1.5CTarget.5Crepo_projects.5CpRealEcu.5CcR_R2023.2E09.2E15.5Cmake.5Coutput.5Cobjects.5CWAlloc.82::
                        1620 .LDWlin82:
00000482 41e2           1621 	add	1,r28
00000484 64e2           1622 	cmp	4,r28
00000486 c1e5*          1623 	bl	.L4141
                        1624 --line508
                        1625 ..lin.C.3A.5C_ECU2.5CECU_Rivian_A1.5CTarget.5Crepo_projects.5CpRealEcu.5CcR_R2023.2E09.2E15.5Cmake.5Coutput.5Cobjects.5CWAlloc.83::
                        1626 .LDWlin83:
                        1627 	jarl	_ucGetHistoryState,lp
                        1627 <EXPANSION BEGIN>
                        1627 jarl22 _ucGetHistoryState , lp 
00000488 bfff6aff*      1627 <EXPANSION END>
0000048c 00e2           1628 	mov	0,r28
0000048e e051           1629 	cmp	zero,r10
00000490 d205*          1630 	be	.L4156
                        1631 	jarl	_bGetHistProtecTimeOver,lp
                        1631 <EXPANSION BEGIN>
                        1631 jarl22 _bGetHistProtecTimeOver , lp 
00000492 bfff8aff*      1631 <EXPANSION END>
00000496 6152           1632 	cmp	1,r10
00000498 9a3d*          1633 	bne	.L4137
                        1634 .L4156:
                        1635 --line510
                        1636 ..lin.C.3A.5C_ECU2.5CECU_Rivian_A1.5CTarget.5Crepo_projects.5CpRealEcu.5CcR_R2023.2E09.2E15.5Cmake.5Coutput.5Cobjects.5CWAlloc.84::
                        1637 .LDWlin84:
0000049a 1ce8           1638 	mov	r28,r29
0000049c c6ea           1639 	shl	6,r29
0000049e d9e9           1640 	add	r25,r29
000004a0 014a           1641 	mov	1,r9
000004a2 1df0           1642 	mov	r29,ep
000004a4 bc4b           1643 	sst.b	r9,60[ep]
000004a6 9b470700       1644 	ld.bu	6[r27],r8
000004aa 6538           1645 	sld.bu	5[ep],r7
000004ac e839           1646 	cmp	r8,r7
000004ae 912d*          1647 	bl	.L4167
000004b0 9b370d00       1648 	ld.bu	12[r27],r6
000004b4 9d9f3b00       1649 	ld.bu	58[r29],r19
000004b8 e699           1650 	cmp	r6,r19
000004ba b125*          1651 	bl	.L4167
                        1652 --line515
                        1653 ..lin.C.3A.5C_ECU2.5CECU_Rivian_A1.5CTarget.5Crepo_projects.5CpRealEcu.5CcR_R2023.2E09.2E15.5Cmake.5Coutput.5Cobjects.5CWAlloc.85::
                        1654 .LDWlin85:
000004bc 3df63600       1655 	movea	54,r29,ep
000004c0 6090           1656 	sld.bu	0[ep],r18
000004c2 6388           1657 	sld.bu	3[ep],r17
000004c4 dd91           1658 	add	r29,r18
000004c6 dd89           1659 	add	r29,r17
000004c8 92873300       1660 	ld.bu	50[r18],r16
000004cc 91973300       1661 	ld.bu	50[r17],r18
000004d0 bb8f1300       1662 	ld.bu	19[r27],r17

                                                                      Page 29
                                                              C:\Users\nhuliyap\AppData\Local\Temp\gh_00002rs1.s
000004d4 b281           1663 	sub	r18,r16
000004d6 f181           1664 	cmp	r17,r16
000004d8 de0d*          1665 	bge	.L4162
                        1666 --line516
                        1667 ..lin.C.3A.5C_ECU2.5CECU_Rivian_A1.5CTarget.5Crepo_projects.5CpRealEcu.5CcR_R2023.2E09.2E15.5Cmake.5Coutput.5Cobjects.5CWAlloc.86::
                        1668 .LDWlin86:
000004da 5d073c00       1669 	st.b	zero,60[r29]
000004de 1c30           1670 	mov	r28,r6
                        1671 	jarl	_ushGetMeanRssiSum,lp
                        1671 <EXPANSION BEGIN>
                        1671 jarl22 _ushGetMeanRssiSum , lp 
000004e0 bfffd0fc*      1671 <EXPANSION END>
000004e4 bb4f0900       1672 	ld.bu	9[r27],r9
000004e8 e951           1673 	cmp	r9,r10
000004ea c305*          1674 	bnh	.L4162
                        1675 --line519
                        1676 ..lin.C.3A.5C_ECU2.5CECU_Rivian_A1.5CTarget.5Crepo_projects.5CpRealEcu.5CcR_R2023.2E09.2E15.5Cmake.5Coutput.5Cobjects.5CWAlloc.87::
                        1677 .LDWlin87:
000004ec 0142           1678 	mov	1,r8
000004ee 5d473c00       1679 	st.b	r8,60[r29]
                        1680 .L4162:
000004f2 1c30           1681 	mov	r28,r6
                        1682 	jarl	_ushGetMeanRssiSum,lp
                        1682 <EXPANSION BEGIN>
                        1682 jarl22 _ushGetMeanRssiSum , lp 
000004f4 bfffbcfc*      1682 <EXPANSION END>
000004f8 bb4f0900       1683 	ld.bu	9[r27],r9
000004fc e951           1684 	cmp	r9,r10
000004fe b905*          1685 	bnl	.L4160
                        1686 .L4167:
                        1687 --line524
                        1688 ..lin.C.3A.5C_ECU2.5CECU_Rivian_A1.5CTarget.5Crepo_projects.5CpRealEcu.5CcR_R2023.2E09.2E15.5Cmake.5Coutput.5Cobjects.5CWAlloc.88::
                        1689 .LDWlin88:
00000500 5d073c00       1690 	st.b	zero,60[r29]
                        1691 .L4160:
00000504 41e2           1692 	add	1,r28
00000506 68e2           1693 	cmp	8,r28
00000508 91cd*          1694 	bl	.L4156
                        1695 .L4137:
                        1696 --	    .ef
                        1697 .LDW17:
                        1698 --line530
                        1699 ..lin.C.3A.5C_ECU2.5CECU_Rivian_A1.5CTarget.5Crepo_projects.5CpRealEcu.5CcR_R2023.2E09.2E15.5Cmake.5Coutput.5Cobjects.5CWAlloc.89::
                        1700 .LDWlin89:
0000050a 4006ff70       1701 	dispose	0,{r25,r26,r27,r28,r29,r31},[lp]
                        1702 ___ghs_eofn_CheckAndMarkNewIdER:
                        1703 	.type	_CheckAndMarkNewIdER,@function
                        1704 	.size	_CheckAndMarkNewIdER,.-_CheckAndMarkNewIdER
                        1705 	.type	_CheckAndMarkNewIdER..C.3A.5C_ECU2.5CECU_Rivian_A1.5CTarget.5Crepo_projects.5CpRealEcu.5CcR_R2023.2E09.2E15.5Cmake.5Coutput.5Cobjects.5CWAlloc.,@function
                        1706 	.size	_CheckAndMarkNewIdER..C.3A.5C_ECU2.5CECU_Rivian_A1.5CTarget.5Crepo_projects.5CpRealEcu.5CcR_R2023.2E09.2E15.5Cmake.5Coutput.5Cobjects.5CWAlloc.,.-_CheckAndMarkNewIdER..C.3A.5C_ECU2.5CECU_Rivian_A1.5CTarget.5Crepo_projects.5CpRealEcu.5CcR_R2023.2E09.2E15.5Cmake.5Coutput.5Cobjects.5CWAlloc.
                        1707 	.align	2
                        1708 --_i	r28	local
                        1709 
                        1710 --_ucIx	r26	param
                        1711 
                        1712 	.data
                        1713 	.text
                        1714 	.align	2
                        1715 	.align	2
                        1716 ..gh.f.f.1.e.31:
                        1717 	.type	..gh.f.f.1.e.31,@object

                                                                      Page 30
                                                              C:\Users\nhuliyap\AppData\Local\Temp\gh_00002rs1.s
                        1718 	.size	..gh.f.f.1.e.31,0
                        1719 	.global	_ushSumPotenAndERWheels..C.3A.5C_ECU2.5CECU_Rivian_A1.5CTarget.5Crepo_projects.5CpRealEcu.5CcR_R2023.2E09.2E15.5Cmake.5Coutput.5Cobjects.5CWAlloc.
                        1720 _ushSumPotenAndERWheels..C.3A.5C_ECU2.5CECU_Rivian_A1.5CTarget.5Crepo_projects.5CpRealEcu.5CcR_R2023.2E09.2E15.5Cmake.5Coutput.5Cobjects.5CWAlloc.:
                        1721 _ushSumPotenAndERWheels:
0000050e 8007e100       1722 	prepare	{r28,r29,r31},0
                        1723 --	    .bf
                        1724 .LDW27:
00000512 00e2           1725 	mov	0,r28
00000514 1ce8           1726 	mov	r28,r29
                        1727 .L5479:
00000516 1d30           1728 	mov	r29,r6
                        1729 	jarl	_bGetZomPotentStatusOfID,lp
                        1729 <EXPANSION BEGIN>
                        1729 jarl22 _bGetZomPotentStatusOfID , lp 
00000518 bfff20fd*      1729 <EXPANSION END>
0000051c 6152           1730 	cmp	1,r10
0000051e e205*          1731 	be	.L5481
00000520 1d30           1732 	mov	r29,r6
                        1733 	jarl	_bGetZomOwnStatusOfID,lp
                        1733 <EXPANSION BEGIN>
                        1733 jarl22 _bGetZomOwnStatusOfID , lp 
00000522 bfff2cfd*      1733 <EXPANSION END>
00000526 6152           1734 	cmp	1,r10
00000528 da05*          1735 	bne	.L5480
                        1736 .L5481:
                        1737 --line540
                        1738 ..lin.C.3A.5C_ECU2.5CECU_Rivian_A1.5CTarget.5Crepo_projects.5CpRealEcu.5CcR_R2023.2E09.2E15.5Cmake.5Coutput.5Cobjects.5CWAlloc.90::
                        1739 .LDWlin90:
0000052a fd57c248       1740 	shl	r29,r10,r9
0000052e c900           1741 	zxh	r9
00000530 09e1           1742 	or	r9,r28
                        1743 .L5480:
00000532 41ea           1744 	add	1,r29
00000534 68ea           1745 	cmp	8,r29
00000536 81f5*          1746 	bl	.L5479
                        1747 --line543
                        1748 ..lin.C.3A.5C_ECU2.5CECU_Rivian_A1.5CTarget.5Crepo_projects.5CpRealEcu.5CcR_R2023.2E09.2E15.5Cmake.5Coutput.5Cobjects.5CWAlloc.91::
                        1749 .LDWlin91:
00000538 1c50           1750 	mov	r28,r10
                        1751 --	    .ef
                        1752 .LDW37:
0000053a 4006ff00       1753 	dispose	0,{r28,r29,r31},[lp]
                        1754 ___ghs_eofn_ushSumPotenAndERWheels:
                        1755 	.type	_ushSumPotenAndERWheels,@function
                        1756 	.size	_ushSumPotenAndERWheels,.-_ushSumPotenAndERWheels
                        1757 	.type	_ushSumPotenAndERWheels..C.3A.5C_ECU2.5CECU_Rivian_A1.5CTarget.5Crepo_projects.5CpRealEcu.5CcR_R2023.2E09.2E15.5Cmake.5Coutput.5Cobjects.5CWAlloc.,@function
                        1758 	.size	_ushSumPotenAndERWheels..C.3A.5C_ECU2.5CECU_Rivian_A1.5CTarget.5Crepo_projects.5CpRealEcu.5CcR_R2023.2E09.2E15.5Cmake.5Coutput.5Cobjects.5CWAlloc.,.-_ushSumPotenAndERWheels..C.3A.5C_ECU2.5CECU_Rivian_A1.5CTarget.5Crepo_projects.5CpRealEcu.5CcR_R2023.2E09.2E15.5Cmake.5Coutput.5Cobjects.5CWAlloc.
                        1759 	.align	2
                        1760 --_i	r29	local
                        1761 --_ushRet	r28	local
                        1762 
                        1763 	.section ".bss","awb"
                        1764 .L5538:
                        1765 	.type	.L5538,@object
                        1766 	.size	.L5538,0
                        1767 	.data
                        1768 	.text
                        1769 	.align	2
                        1770 	.align	2
                        1771 ..gh.f.f.1.e.32:
                        1772 	.type	..gh.f.f.1.e.32,@object

                                                                      Page 31
                                                              C:\Users\nhuliyap\AppData\Local\Temp\gh_00002rs1.s
                        1773 	.size	..gh.f.f.1.e.32,0
                        1774 	.global	_ucNrOfBitSet..C.3A.5C_ECU2.5CECU_Rivian_A1.5CTarget.5Crepo_projects.5CpRealEcu.5CcR_R2023.2E09.2E15.5Cmake.5Coutput.5Cobjects.5CWAlloc.
                        1775 _ucNrOfBitSet..C.3A.5C_ECU2.5CECU_Rivian_A1.5CTarget.5Crepo_projects.5CpRealEcu.5CcR_R2023.2E09.2E15.5Cmake.5Coutput.5Cobjects.5CWAlloc.:
                        1776 _ucNrOfBitSet:
0000053e c600           1777 	zxh	r6
                        1778 --	    .bf
                        1779 .LDW47:
00000540 0052           1780 	mov	0,r10
00000542 0a90           1781 	mov	r10,r18
                        1782 .L5605:
00000544 019a           1783 	mov	1,r19
00000546 f29fc248       1784 	shl	r18,r19,r9
0000054a 4649           1785 	and	r6,r9
0000054c e049           1786 	cmp	zero,r9
0000054e b705*          1787 	ble	.L5606
                        1788 --line561
                        1789 ..lin.C.3A.5C_ECU2.5CECU_Rivian_A1.5CTarget.5Crepo_projects.5CpRealEcu.5CcR_R2023.2E09.2E15.5Cmake.5Coutput.5Cobjects.5CWAlloc.92::
                        1790 .LDWlin92:
00000550 4152           1791 	add	1,r10
00000552 8a00           1792 	zxb	r10
                        1793 .L5606:
00000554 4192           1794 	add	1,r18
00000556 1206f0ff       1795 	addi	-16,r18,zero
0000055a d9f5*          1796 	bnl	.L5605
                        1797 --	    .ef
                        1798 .LDW57:
                        1799 --line564
                        1800 ..lin.C.3A.5C_ECU2.5CECU_Rivian_A1.5CTarget.5Crepo_projects.5CpRealEcu.5CcR_R2023.2E09.2E15.5Cmake.5Coutput.5Cobjects.5CWAlloc.93::
                        1801 .LDWlin93:
0000055c 7f00           1802 	jmp	[lp]
                        1803 ___ghs_eofn_ucNrOfBitSet:
                        1804 	.type	_ucNrOfBitSet,@function
                        1805 	.size	_ucNrOfBitSet,.-_ucNrOfBitSet
                        1806 	.type	_ucNrOfBitSet..C.3A.5C_ECU2.5CECU_Rivian_A1.5CTarget.5Crepo_projects.5CpRealEcu.5CcR_R2023.2E09.2E15.5Cmake.5Coutput.5Cobjects.5CWAlloc.,@function
                        1807 	.size	_ucNrOfBitSet..C.3A.5C_ECU2.5CECU_Rivian_A1.5CTarget.5Crepo_projects.5CpRealEcu.5CcR_R2023.2E09.2E15.5Cmake.5Coutput.5Cobjects.5CWAlloc.,.-_ucNrOfBitSet..C.3A.5C_ECU2.5CECU_Rivian_A1.5CTarget.5Crepo_projects.5CpRealEcu.5CcR_R2023.2E09.2E15.5Cmake.5Coutput.5Cobjects.5CWAlloc.
                        1808 	.align	2
                        1809 --_i	r18	local
                        1810 --_ucHits	r10	local
                        1811 
                        1812 --_ushTarget	r6	param
                        1813 
                        1814 	.section ".bss","awb"
                        1815 .L5660:
                        1816 	.type	.L5660,@object
                        1817 	.size	.L5660,0
                        1818 	.data
                        1819 	.text
                        1820 	.align	2
                        1821 	.align	2
                        1822 ..gh.f.f.1.e.33:
                        1823 	.type	..gh.f.f.1.e.33,@object
                        1824 	.size	..gh.f.f.1.e.33,0
                        1825 	.global	_ushCheckERState..C.3A.5C_ECU2.5CECU_Rivian_A1.5CTarget.5Crepo_projects.5CpRealEcu.5CcR_R2023.2E09.2E15.5Cmake.5Coutput.5Cobjects.5CWAlloc.
                        1826 _ushCheckERState..C.3A.5C_ECU2.5CECU_Rivian_A1.5CTarget.5Crepo_projects.5CpRealEcu.5CcR_R2023.2E09.2E15.5Cmake.5Coutput.5Cobjects.5CWAlloc.:
                        1827 _ushCheckERState:
0000055e 80076100       1828 	prepare	{r29,r31},0
00000562 8600           1829 	zxb	r6
                        1830 --	    .bf
                        1831 .LDW67:
                        1832 	jarl	_CheckAndMarkNewIdER,lp
                        1832 <EXPANSION BEGIN>

                                                                      Page 32
                                                              C:\Users\nhuliyap\AppData\Local\Temp\gh_00002rs1.s
                        1832 jarl22 _CheckAndMarkNewIdER , lp 
00000564 bfffd4fe*      1832 <EXPANSION END>
                        1833 --line466
                        1834 ..lin.C.3A.5C_ECU2.5CECU_Rivian_A1.5CTarget.5Crepo_projects.5CpRealEcu.5CcR_R2023.2E09.2E15.5Cmake.5Coutput.5Cobjects.5CWAlloc.94::
                        1835 .LDWlin94:
                        1836 	jarl	_ushSumPotenAndERWheels,lp
                        1836 <EXPANSION BEGIN>
                        1836 jarl22 _ushSumPotenAndERWheels , lp 
00000568 bfffa6ff*      1836 <EXPANSION END>
                        1837 --line467
                        1838 ..lin.C.3A.5C_ECU2.5CECU_Rivian_A1.5CTarget.5Crepo_projects.5CpRealEcu.5CcR_R2023.2E09.2E15.5Cmake.5Coutput.5Cobjects.5CWAlloc.95::
                        1839 .LDWlin95:
0000056c 3e0600000000*  1840 	mov	_tWAPar,ep
00000572 6830           1841 	sld.bu	8[ep],r6
00000574 6938           1842 	sld.bu	9[ep],r7
00000576 0ae8           1843 	mov	r10,r29
                        1844 	jarl	_ucSumCtID,lp
                        1844 <EXPANSION BEGIN>
                        1844 jarl22 _ucSumCtID , lp 
00000578 bfff46fe*      1844 <EXPANSION END>
0000057c 6452           1845 	cmp	4,r10
0000057e d305*          1846 	bnh	.L5716
                        1847 --line470
                        1848 ..lin.C.3A.5C_ECU2.5CECU_Rivian_A1.5CTarget.5Crepo_projects.5CpRealEcu.5CcR_R2023.2E09.2E15.5Cmake.5Coutput.5Cobjects.5CWAlloc.96::
                        1849 .LDWlin96:
00000580 0832           1850 	mov	8,r6
                        1851 	jarl	_ClearZOM,lp
                        1851 <EXPANSION BEGIN>
                        1851 jarl22 _ClearZOM , lp 
00000582 bfff00fb*      1851 <EXPANSION END>
                        1852 --line472
                        1853 ..lin.C.3A.5C_ECU2.5CECU_Rivian_A1.5CTarget.5Crepo_projects.5CpRealEcu.5CcR_R2023.2E09.2E15.5Cmake.5Coutput.5Cobjects.5CWAlloc.97::
                        1854 .LDWlin97:
00000586 00ea           1855 	mov	0,r29
                        1856 .L5716:
00000588 1d30           1857 	mov	r29,r6
                        1858 	jarl	_ucNrOfBitSet,lp
                        1858 <EXPANSION BEGIN>
                        1858 jarl22 _ucNrOfBitSet , lp 
0000058a bfffb4ff*      1858 <EXPANSION END>
0000058e 6452           1859 	cmp	4,r10
                        1860 --line476
                        1861 ..lin.C.3A.5C_ECU2.5CECU_Rivian_A1.5CTarget.5Crepo_projects.5CpRealEcu.5CcR_R2023.2E09.2E15.5Cmake.5Coutput.5Cobjects.5CWAlloc.98::
                        1862 .LDWlin98:
00000590 aa15*          1863 	bne	.L5718
00000592 0092           1864 	mov	0,r18
                        1865 .L5722:
                        1866 --line477
                        1867 ..lin.C.3A.5C_ECU2.5CECU_Rivian_A1.5CTarget.5Crepo_projects.5CpRealEcu.5CcR_R2023.2E09.2E15.5Cmake.5Coutput.5Cobjects.5CWAlloc.99::
                        1868 .LDWlin99:
00000594 12f0           1869 	mov	r18,ep
00000596 c6f2           1870 	shl	6,ep
00000598 290600000000*  1871 	mov	_tZOM,r9
0000059e c9f1           1872 	add	r9,ep
000005a0 9e473d00       1873 	ld.bu	60[ep],r8
000005a4 6142           1874 	cmp	1,r8
000005a6 ba05*          1875 	bne	.L5723
                        1876 --line478
                        1877 ..lin.C.3A.5C_ECU2.5CECU_Rivian_A1.5CTarget.5Crepo_projects.5CpRealEcu.5CcR_R2023.2E09.2E15.5Cmake.5Coutput.5Cobjects.5CWAlloc.100::
                        1878 .LDWlin100:
000005a8 bc03           1879 	sst.b	zero,60[ep]

                                                                      Page 33
                                                              C:\Users\nhuliyap\AppData\Local\Temp\gh_00002rs1.s
000005aa bd43           1880 	sst.b	r8,61[ep]
                        1881 .L5723:
000005ac 4192           1882 	add	1,r18
000005ae 6892           1883 	cmp	8,r18
000005b0 a1f5*          1884 	bl	.L5722
000005b2 a505*          1885 	br	.L5725
                        1886 .L5718:
                        1887 --line484
                        1888 ..lin.C.3A.5C_ECU2.5CECU_Rivian_A1.5CTarget.5Crepo_projects.5CpRealEcu.5CcR_R2023.2E09.2E15.5Cmake.5Coutput.5Cobjects.5CWAlloc.101::
                        1889 .LDWlin101:
000005b4 00ea           1890 	mov	0,r29
                        1891 .L5725:
000005b6 1d50           1892 	mov	r29,r10
                        1893 --	    .ef
                        1894 .LDW77:
000005b8 40067f00       1895 	dispose	0,{r29,r31},[lp]
                        1896 ___ghs_eofn_ushCheckERState:
                        1897 	.type	_ushCheckERState,@function
                        1898 	.size	_ushCheckERState,.-_ushCheckERState
                        1899 	.type	_ushCheckERState..C.3A.5C_ECU2.5CECU_Rivian_A1.5CTarget.5Crepo_projects.5CpRealEcu.5CcR_R2023.2E09.2E15.5Cmake.5Coutput.5Cobjects.5CWAlloc.,@function
                        1900 	.size	_ushCheckERState..C.3A.5C_ECU2.5CECU_Rivian_A1.5CTarget.5Crepo_projects.5CpRealEcu.5CcR_R2023.2E09.2E15.5Cmake.5Coutput.5Cobjects.5CWAlloc.,.-_ushCheckERState..C.3A.5C_ECU2.5CECU_Rivian_A1.5CTarget.5Crepo_projects.5CpRealEcu.5CcR_R2023.2E09.2E15.5Cmake.5Coutput.5Cobjects.5CWAlloc.
                        1901 	.align	2
                        1902 --_ushRet	r29	local
                        1903 --_i	r18	local
                        1904 
                        1905 --_ucZomID	r6	param
                        1906 
                        1907 	.section ".bss","awb"
                        1908 .L6582:
                        1909 	.type	.L6582,@object
                        1910 	.size	.L6582,0
                        1911 	.data
                        1912 	.text
                        1913 	.align	2
                        1914 	.align	2
                        1915 ..gh.f.f.1.e.34:
                        1916 	.type	..gh.f.f.1.e.34,@object
                        1917 	.size	..gh.f.f.1.e.34,0
                        1918 	.global	_ucCheckWheelPos..C.3A.5C_ECU2.5CECU_Rivian_A1.5CTarget.5Crepo_projects.5CpRealEcu.5CcR_R2023.2E09.2E15.5Cmake.5Coutput.5Cobjects.5CWAlloc.
                        1919 _ucCheckWheelPos..C.3A.5C_ECU2.5CECU_Rivian_A1.5CTarget.5Crepo_projects.5CpRealEcu.5CcR_R2023.2E09.2E15.5Cmake.5Coutput.5Cobjects.5CWAlloc.:
                        1920 _ucCheckWheelPos:
000005bc 80072100       1921 	prepare	{r31},0
                        1922 --	    .bf
                        1923 .LDW87:
                        1924 	jarl	_ucConceptFixPos0,lp
                        1924 <EXPANSION BEGIN>
                        1924 jarl22 _ucConceptFixPos0 , lp 
000005c0 80ff0000*      1924 <EXPANSION END>
                        1925 --line550
                        1926 ..lin.C.3A.5C_ECU2.5CECU_Rivian_A1.5CTarget.5Crepo_projects.5CpRealEcu.5CcR_R2023.2E09.2E15.5Cmake.5Coutput.5Cobjects.5CWAlloc.102::
                        1927 .LDWlin102:
000005c4 e051           1928 	cmp	zero,r10
000005c6 ba05*          1929 	bne	.L6675
                        1930 --line551
                        1931 ..lin.C.3A.5C_ECU2.5CECU_Rivian_A1.5CTarget.5Crepo_projects.5CpRealEcu.5CcR_R2023.2E09.2E15.5Cmake.5Coutput.5Cobjects.5CWAlloc.103::
                        1932 .LDWlin103:
                        1933 	jarl	_ResetWP,lp
                        1933 <EXPANSION BEGIN>
                        1933 jarl22 _ResetWP , lp 
000005c8 bfff02fb*      1933 <EXPANSION END>
                        1934 .L6675:

                                                                      Page 34
                                                              C:\Users\nhuliyap\AppData\Local\Temp\gh_00002rs1.s
                        1935 --	    .ef
                        1936 .LDW97:
                        1937 --line553
                        1938 ..lin.C.3A.5C_ECU2.5CECU_Rivian_A1.5CTarget.5Crepo_projects.5CpRealEcu.5CcR_R2023.2E09.2E15.5Cmake.5Coutput.5Cobjects.5CWAlloc.104::
                        1939 .LDWlin104:
000005cc 40063f00       1940 	dispose	0,{r31},[lp]
                        1941 ___ghs_eofn_ucCheckWheelPos:
                        1942 	.type	_ucCheckWheelPos,@function
                        1943 	.size	_ucCheckWheelPos,.-_ucCheckWheelPos
                        1944 	.type	_ucCheckWheelPos..C.3A.5C_ECU2.5CECU_Rivian_A1.5CTarget.5Crepo_projects.5CpRealEcu.5CcR_R2023.2E09.2E15.5Cmake.5Coutput.5Cobjects.5CWAlloc.,@function
                        1945 	.size	_ucCheckWheelPos..C.3A.5C_ECU2.5CECU_Rivian_A1.5CTarget.5Crepo_projects.5CpRealEcu.5CcR_R2023.2E09.2E15.5Cmake.5Coutput.5Cobjects.5CWAlloc.,.-_ucCheckWheelPos..C.3A.5C_ECU2.5CECU_Rivian_A1.5CTarget.5Crepo_projects.5CpRealEcu.5CcR_R2023.2E09.2E15.5Cmake.5Coutput.5Cobjects.5CWAlloc.
                        1946 	.align	2
                        1947 --_ushRet	r29	local
                        1948 
                        1949 	.section ".bss","awb"
                        1950 .L6720:
                        1951 	.type	.L6720,@object
                        1952 	.size	.L6720,0
                        1953 	.data
                        1954 	.text
                        1955 	.align	2
                        1956 	.align	2
                        1957 ..gh.f.f.1.e.35:
                        1958 	.type	..gh.f.f.1.e.35,@object
                        1959 	.size	..gh.f.f.1.e.35,0
                        1960 	.global	_ushIDSetInHist..C.3A.5C_ECU2.5CECU_Rivian_A1.5CTarget.5Crepo_projects.5CpRealEcu.5CcR_R2023.2E09.2E15.5Cmake.5Coutput.5Cobjects.5CWAlloc.
                        1961 _ushIDSetInHist..C.3A.5C_ECU2.5CECU_Rivian_A1.5CTarget.5Crepo_projects.5CpRealEcu.5CcR_R2023.2E09.2E15.5Cmake.5Coutput.5Cobjects.5CWAlloc.:
                        1962 _ushIDSetInHist:
000005d0 8007e1f3       1963 	prepare	{r22,r23,r24,r25,r26,r27,r28,r29,r31},0
000005d4 07b8           1964 	mov	r7,r23
000005d6 06c0           1965 	mov	r6,r24
000005d8 9700           1966 	zxb	r23
000005da c8b6ff00       1967 	andi	255,r8,r22
                        1968 --	    .bf
                        1969 .LDW08:
000005de 00e2           1970 	mov	0,r28
000005e0 1cd8           1971 	mov	r28,r27
                        1972 .L6760:
000005e2 1bf0           1973 	mov	r27,ep
000005e4 c2f2           1974 	shl	2,ep
000005e6 d8f1           1975 	add	r24,ep
000005e8 00cd           1976 	sld.w	0[ep],r25
000005ea 00ea           1977 	mov	0,r29
000005ec 7fca           1978 	cmp	-1,r25
000005ee 8a1d*          1979 	bne	.L6769
000005f0 00e2           1980 	mov	0,r28
000005f2 b51d*          1981 	br	.L6763
                        1982 .L6768:
                        1983 --line580
                        1984 ..lin.C.3A.5C_ECU2.5CECU_Rivian_A1.5CTarget.5Crepo_projects.5CpRealEcu.5CcR_R2023.2E09.2E15.5Cmake.5Coutput.5Cobjects.5CWAlloc.105::
                        1985 .LDWlin105:
000005f4 1d30           1986 	mov	r29,r6
                        1987 	jarl	_ulGetZOMID,lp
                        1987 <EXPANSION BEGIN>
                        1987 jarl22 _ulGetZOMID , lp 
000005f6 bffff2fa*      1987 <EXPANSION END>
000005fa 0ad0           1988 	mov	r10,r26
000005fc eac9           1989 	cmp	r10,r25
000005fe ca0d*          1990 	bne	.L6770
00000600 1d30           1991 	mov	r29,r6
                        1992 	jarl	_ucGetProbeCt,lp

                                                                      Page 35
                                                              C:\Users\nhuliyap\AppData\Local\Temp\gh_00002rs1.s
                        1992 <EXPANSION BEGIN>
                        1992 jarl22 _ucGetProbeCt , lp 
00000602 bfff2efb*      1992 <EXPANSION END>
00000606 f751           1993 	cmp	r23,r10
00000608 f105*          1994 	bl	.L6770
                        1995 --line583
                        1996 ..lin.C.3A.5C_ECU2.5CECU_Rivian_A1.5CTarget.5Crepo_projects.5CpRealEcu.5CcR_R2023.2E09.2E15.5Cmake.5Coutput.5Cobjects.5CWAlloc.106::
                        1997 .LDWlin106:
0000060a 0142           1998 	mov	1,r8
0000060c fd47c248       1999 	shl	r29,r8,r9
00000610 09e1           2000 	or	r9,r28
00000612 dc00           2001 	zxh	r28
00000614 f505*          2002 	br	.L6765
                        2003 .L6770:
                        2004 --line587
                        2005 ..lin.C.3A.5C_ECU2.5CECU_Rivian_A1.5CTarget.5Crepo_projects.5CpRealEcu.5CcR_R2023.2E09.2E15.5Cmake.5Coutput.5Cobjects.5CWAlloc.107::
                        2006 .LDWlin107:
00000616 e0d1           2007 	cmp	zero,r26
00000618 d205*          2008 	be	.L6765
                        2009 --line579
                        2010 ..lin.C.3A.5C_ECU2.5CECU_Rivian_A1.5CTarget.5Crepo_projects.5CpRealEcu.5CcR_R2023.2E09.2E15.5Cmake.5Coutput.5Cobjects.5CWAlloc.108::
                        2011 .LDWlin108:
0000061a 41ea           2012 	add	1,r29
0000061c 9d00           2013 	zxb	r29
                        2014 .L6769:
0000061e f6e9           2015 	cmp	r22,r29
00000620 a1ed*          2016 	bl	.L6768
                        2017 .L6765:
                        2018 --line573
                        2019 ..lin.C.3A.5C_ECU2.5CECU_Rivian_A1.5CTarget.5Crepo_projects.5CpRealEcu.5CcR_R2023.2E09.2E15.5Cmake.5Coutput.5Cobjects.5CWAlloc.109::
                        2020 .LDWlin109:
00000622 41da           2021 	add	1,r27
00000624 64da           2022 	cmp	4,r27
00000626 e1dd*          2023 	bl	.L6760
                        2024 .L6763:
                        2025 --line595
                        2026 ..lin.C.3A.5C_ECU2.5CECU_Rivian_A1.5CTarget.5Crepo_projects.5CpRealEcu.5CcR_R2023.2E09.2E15.5Cmake.5Coutput.5Cobjects.5CWAlloc.110::
                        2027 .LDWlin110:
00000628 1c50           2028 	mov	r28,r10
                        2029 --	    .ef
                        2030 .LDW18:
0000062a 4006fff3       2031 	dispose	0,{r22,r23,r24,r25,r26,r27,r28,r29,r31},[lp]
                        2032 ___ghs_eofn_ushIDSetInHist:
                        2033 	.type	_ushIDSetInHist,@function
                        2034 	.size	_ushIDSetInHist,.-_ushIDSetInHist
                        2035 	.type	_ushIDSetInHist..C.3A.5C_ECU2.5CECU_Rivian_A1.5CTarget.5Crepo_projects.5CpRealEcu.5CcR_R2023.2E09.2E15.5Cmake.5Coutput.5Cobjects.5CWAlloc.,@function
                        2036 	.size	_ushIDSetInHist..C.3A.5C_ECU2.5CECU_Rivian_A1.5CTarget.5Crepo_projects.5CpRealEcu.5CcR_R2023.2E09.2E15.5Cmake.5Coutput.5Cobjects.5CWAlloc.,.-_ushIDSetInHist..C.3A.5C_ECU2.5CECU_Rivian_A1.5CTarget.5Crepo_projects.5CpRealEcu.5CcR_R2023.2E09.2E15.5Cmake.5Coutput.5Cobjects.5CWAlloc.
                        2037 	.align	2
                        2038 --_i	r27	local
                        2039 --_j	r29	local
                        2040 --_ushRet	r28	local
                        2041 
                        2042 --_ptHistSet	r24	param
                        2043 --_ucMinProbeCt	r23	param
                        2044 --_ucSlots2Search	r22	param
                        2045 
                        2046 	.section ".bss","awb"
                        2047 .L6870:
                        2048 	.type	.L6870,@object
                        2049 	.size	.L6870,0
                        2050 	.data

                                                                      Page 36
                                                              C:\Users\nhuliyap\AppData\Local\Temp\gh_00002rs1.s
                        2051 	.text
                        2052 	.align	2
                        2053 	.align	2
                        2054 ..gh.f.f.1.e.36:
                        2055 	.type	..gh.f.f.1.e.36,@object
                        2056 	.size	..gh.f.f.1.e.36,0
                        2057 	.global	_SafeData..C.3A.5C_ECU2.5CECU_Rivian_A1.5CTarget.5Crepo_projects.5CpRealEcu.5CcR_R2023.2E09.2E15.5Cmake.5Coutput.5Cobjects.5CWAlloc.
                        2058 _SafeData..C.3A.5C_ECU2.5CECU_Rivian_A1.5CTarget.5Crepo_projects.5CpRealEcu.5CcR_R2023.2E09.2E15.5Cmake.5Coutput.5Cobjects.5CWAlloc.:
                        2059 _SafeData:
0000062e 8700           2060 	zxb	r7
                        2061 --	    .bf
                        2062 .LDW28:
00000630 683a           2063 	cmp	8,r7
00000632 e935*          2064 	bnl	.L6979
                        2065 --line602
                        2066 ..lin.C.3A.5C_ECU2.5CECU_Rivian_A1.5CTarget.5Crepo_projects.5CpRealEcu.5CcR_R2023.2E09.2E15.5Cmake.5Coutput.5Cobjects.5CWAlloc.111::
                        2067 .LDWlin111:
00000634 07f0           2068 	mov	r7,ep
00000636 c6f2           2069 	shl	6,ep
00000638 320600000000*  2070 	mov	_tZOM,r18
0000063e d2f1           2071 	add	r18,ep
00000640 008d           2072 	sld.w	0[ep],r17
00000642 e089           2073 	cmp	zero,r17
00000644 f20d*          2074 	be	.L6983
                        2075 --line603
                        2076 ..lin.C.3A.5C_ECU2.5CECU_Rivian_A1.5CTarget.5Crepo_projects.5CpRealEcu.5CcR_R2023.2E09.2E15.5Cmake.5Coutput.5Cobjects.5CWAlloc.112::
                        2077 .LDWlin112:
00000646 6c80           2078 	sld.bu	12[ep],r16
00000648 a68f0500       2079 	ld.bu	5[r6],r17
0000064c 1090           2080 	mov	r16,r18
0000064e 1198           2081 	mov	r17,r19
00000650 b099           2082 	sub	r16,r19
00000652 b191           2083 	sub	r17,r18
00000654 f181           2084 	cmp	r17,r16
00000656 7488           2085 	sld.hu	8[ep],r17
00000658 f397269b       2086 	cmovnh	r19,r18,r19
0000065c d389           2087 	add	r19,r17
0000065e 848c           2088 	sst.h	r17,8[ep]
00000660 c505*          2089 	br	.L6988
                        2090 .L6983:
                        2091 --line607
                        2092 ..lin.C.3A.5C_ECU2.5CECU_Rivian_A1.5CTarget.5Crepo_projects.5CpRealEcu.5CcR_R2023.2E09.2E15.5Cmake.5Coutput.5Cobjects.5CWAlloc.113::
                        2093 .LDWlin113:
00000662 26870100       2094 	ld.w	0[r6],r16
00000666 0185           2095 	sst.w	r16,0[ep]
                        2096 .L6988:
00000668 a68f0500       2097 	ld.bu	5[r6],r17
0000066c 6590           2098 	sld.bu	5[ep],r18
0000066e 097a           2099 	mov	9,r15
00000670 8d7b           2100 	sst.b	r15,13[ep]
00000672 8c8b           2101 	sst.b	r17,12[ep]
00000674 120601ff       2102 	addi	-255,r18,zero
00000678 f10d*          2103 	bl	.L6989
                        2104 --line612
                        2105 ..lin.C.3A.5C_ECU2.5CECU_Rivian_A1.5CTarget.5Crepo_projects.5CpRealEcu.5CcR_R2023.2E09.2E15.5Cmake.5Coutput.5Cobjects.5CWAlloc.114::
                        2106 .LDWlin114:
0000067a 7578           2107 	sld.hu	10[ep],r15
0000067c 8086ffff       2108 	ori	65535,zero,r16
00000680 af81           2109 	sub	r15,r16
00000682 f181           2110 	cmp	r17,r16
00000684 970d*          2111 	ble	.L6989

                                                                      Page 37
                                                              C:\Users\nhuliyap\AppData\Local\Temp\gh_00002rs1.s
                        2112 --line614
                        2113 ..lin.C.3A.5C_ECU2.5CECU_Rivian_A1.5CTarget.5Crepo_projects.5CpRealEcu.5CcR_R2023.2E09.2E15.5Cmake.5Coutput.5Cobjects.5CWAlloc.115::
                        2114 .LDWlin115:
00000686 4192           2115 	add	1,r18
00000688 cf89           2116 	add	r15,r17
0000068a 9200           2117 	zxb	r18
0000068c 858c           2118 	sst.h	r17,10[ep]
0000068e 8593           2119 	sst.b	r18,5[ep]
00000690 120601ff       2120 	addi	-255,r18,zero
00000694 da05*          2121 	bne	.L6979
                        2122 .L6989:
                        2123 --line624
                        2124 ..lin.C.3A.5C_ECU2.5CECU_Rivian_A1.5CTarget.5Crepo_projects.5CpRealEcu.5CcR_R2023.2E09.2E15.5Cmake.5Coutput.5Cobjects.5CWAlloc.116::
                        2125 .LDWlin116:
00000696 40760000*      2126 	movhi	hi(_tWAPar),zero,r14
0000069a ce070000*      2127 	set1	0,lo(_tWAPar)[r14]
                        2128 .L6979:
                        2129 --	    .ef
                        2130 .LDW38:
                        2131 --line629
                        2132 ..lin.C.3A.5C_ECU2.5CECU_Rivian_A1.5CTarget.5Crepo_projects.5CpRealEcu.5CcR_R2023.2E09.2E15.5Cmake.5Coutput.5Cobjects.5CWAlloc.117::
                        2133 .LDWlin117:
0000069e 7f00           2134 	jmp	[lp]
                        2135 ___ghs_eofn_SafeData:
                        2136 	.type	_SafeData,@function
                        2137 	.size	_SafeData,.-_SafeData
                        2138 	.type	_SafeData..C.3A.5C_ECU2.5CECU_Rivian_A1.5CTarget.5Crepo_projects.5CpRealEcu.5CcR_R2023.2E09.2E15.5Cmake.5Coutput.5Cobjects.5CWAlloc.,@function
                        2139 	.size	_SafeData..C.3A.5C_ECU2.5CECU_Rivian_A1.5CTarget.5Crepo_projects.5CpRealEcu.5CcR_R2023.2E09.2E15.5Cmake.5Coutput.5Cobjects.5CWAlloc.,.-_SafeData..C.3A.5C_ECU2.5CECU_Rivian_A1.5CTarget.5Crepo_projects.5CpRealEcu.5CcR_R2023.2E09.2E15.5Cmake.5Coutput.5Cobjects.5CWAlloc.
                        2140 	.align	2
                        2141 
                        2142 --_ptInputWA	r6	param
                        2143 --_ucIx	r7	param
                        2144 
                        2145 	.section ".bss","awb"
                        2146 .L7103:
                        2147 	.type	.L7103,@object
                        2148 	.size	.L7103,0
                        2149 	.data
                        2150 	.text
                        2151 	.align	2
                        2152 	.align	2
                        2153 ..gh.f.f.1.e.37:
                        2154 	.type	..gh.f.f.1.e.37,@object
                        2155 	.size	..gh.f.f.1.e.37,0
                        2156 	.global	_DriveDir..C.3A.5C_ECU2.5CECU_Rivian_A1.5CTarget.5Crepo_projects.5CpRealEcu.5CcR_R2023.2E09.2E15.5Cmake.5Coutput.5Cobjects.5CWAlloc.
                        2157 _DriveDir..C.3A.5C_ECU2.5CECU_Rivian_A1.5CTarget.5Crepo_projects.5CpRealEcu.5CcR_R2023.2E09.2E15.5Cmake.5Coutput.5Cobjects.5CWAlloc.:
                        2158 _DriveDir:
000006a0 06f0           2159 	mov	r6,ep
                        2160 --	    .bf
                        2161 .LDW48:
000006a2 6090           2162 	sld.bu	0[ep],r18
000006a4 d28e2800       2163 	andi	40,r18,r17
000006a8 d20d*          2164 	be	.L7195
                        2165 --line634
                        2166 ..lin.C.3A.5C_ECU2.5CECU_Rivian_A1.5CTarget.5Crepo_projects.5CpRealEcu.5CcR_R2023.2E09.2E15.5Cmake.5Coutput.5Cobjects.5CWAlloc.118::
                        2167 .LDWlin118:
000006aa 1106d8ff       2168 	addi	-40,r17,zero
000006ae a20d*          2169 	be	.L7195
                        2170 --line635
                        2171 ..lin.C.3A.5C_ECU2.5CECU_Rivian_A1.5CTarget.5Crepo_projects.5CpRealEcu.5CcR_R2023.2E09.2E15.5Cmake.5Coutput.5Cobjects.5CWAlloc.119::
                        2172 .LDWlin119:

                                                                      Page 38
                                                              C:\Users\nhuliyap\AppData\Local\Temp\gh_00002rs1.s
000006b0 d2068000       2173 	andi	128,r18,zero
000006b4 ff971493       2174 	cmovne	-1,r18,r18
000006b8 da05*          2175 	bne	.L7195
                        2176 .L7199:
                        2177 --line639
                        2178 ..lin.C.3A.5C_ECU2.5CECU_Rivian_A1.5CTarget.5Crepo_projects.5CpRealEcu.5CcR_R2023.2E09.2E15.5Cmake.5Coutput.5Cobjects.5CWAlloc.120::
                        2179 .LDWlin120:
000006ba d2064000       2180 	andi	64,r18,zero
000006be a205*          2181 	be	.L7195
                        2182 --line640
                        2183 ..lin.C.3A.5C_ECU2.5CECU_Rivian_A1.5CTarget.5Crepo_projects.5CpRealEcu.5CcR_R2023.2E09.2E15.5Cmake.5Coutput.5Cobjects.5CWAlloc.121::
                        2184 .LDWlin121:
000006c0 3290           2185 	not	r18,r18
                        2186 .L7195:
000006c2 d28e2800       2187 	andi	40,r18,r17
000006c6 808b           2188 	sst.b	r17,0[ep]
                        2189 --	    .ef
                        2190 .LDW58:
000006c8 7f00           2191 	jmp	[lp]
                        2192 ___ghs_eofn_DriveDir:
                        2193 	.type	_DriveDir,@function
                        2194 	.size	_DriveDir,.-_DriveDir
                        2195 	.type	_DriveDir..C.3A.5C_ECU2.5CECU_Rivian_A1.5CTarget.5Crepo_projects.5CpRealEcu.5CcR_R2023.2E09.2E15.5Cmake.5Coutput.5Cobjects.5CWAlloc.,@function
                        2196 	.size	_DriveDir..C.3A.5C_ECU2.5CECU_Rivian_A1.5CTarget.5Crepo_projects.5CpRealEcu.5CcR_R2023.2E09.2E15.5Cmake.5Coutput.5Cobjects.5CWAlloc.,.-_DriveDir..C.3A.5C_ECU2.5CECU_Rivian_A1.5CTarget.5Crepo_projects.5CpRealEcu.5CcR_R2023.2E09.2E15.5Cmake.5Coutput.5Cobjects.5CWAlloc.
                        2197 	.align	2
                        2198 
                        2199 --_pucStatus	ep	param
                        2200 
                        2201 	.section ".bss","awb"
                        2202 .L7272:
                        2203 	.type	.L7272,@object
                        2204 	.size	.L7272,0
                        2205 	.data
                        2206 	.text
                        2207 	.align	2
                        2208 	.align	2
                        2209 ..gh.f.f.1.e.38:
                        2210 	.type	..gh.f.f.1.e.38,@object
                        2211 	.size	..gh.f.f.1.e.38,0
                        2212 	.global	_bCheckIfNewTelAllowed..C.3A.5C_ECU2.5CECU_Rivian_A1.5CTarget.5Crepo_projects.5CpRealEcu.5CcR_R2023.2E09.2E15.5Cmake.5Coutput.5Cobjects.5CWAlloc.
                        2213 _bCheckIfNewTelAllowed..C.3A.5C_ECU2.5CECU_Rivian_A1.5CTarget.5Crepo_projects.5CpRealEcu.5CcR_R2023.2E09.2E15.5Cmake.5Coutput.5Cobjects.5CWAlloc.:
                        2214 _bCheckIfNewTelAllowed:
000006ca 80076110       2215 	prepare	{r27,r29,r31},0
000006ce 07d8           2216 	mov	r7,r27
000006d0 0690           2217 	mov	r6,r18
000006d2 9b00           2218 	zxb	r27
                        2219 --	    .bf
                        2220 .LDW68:
000006d4 01ea           2221 	mov	1,r29
                        2222 	jarl	_ucGetColOfID,lp
                        2222 <EXPANSION BEGIN>
                        2222 jarl22 _ucGetColOfID , lp 
000006d6 bfff8efb*      2222 <EXPANSION END>
000006da 92970500       2223 	ld.bu	4[r18],r18
000006de 6452           2224 	cmp	4,r10
000006e0 e905*          2225 	bnl	.L7346
                        2226 --line1250
                        2227 ..lin.C.3A.5C_ECU2.5CECU_Rivian_A1.5CTarget.5Crepo_projects.5CpRealEcu.5CcR_R2023.2E09.2E15.5Cmake.5Coutput.5Cobjects.5CWAlloc.122::
                        2228 .LDWlin122:
000006e2 d2060600       2229 	andi	6,r18,zero
000006e6 da05*          2230 	bne	.L7357

                                                                      Page 39
                                                              C:\Users\nhuliyap\AppData\Local\Temp\gh_00002rs1.s
                        2231 .L7359:
                        2232 --line1265
                        2233 ..lin.C.3A.5C_ECU2.5CECU_Rivian_A1.5CTarget.5Crepo_projects.5CpRealEcu.5CcR_R2023.2E09.2E15.5Cmake.5Coutput.5Cobjects.5CWAlloc.123::
                        2234 .LDWlin123:
000006e8 00ea           2235 	mov	0,r29
000006ea f50d*          2236 	br	.L7355
                        2237 .L7346:
                        2238 --line1257
                        2239 ..lin.C.3A.5C_ECU2.5CECU_Rivian_A1.5CTarget.5Crepo_projects.5CpRealEcu.5CcR_R2023.2E09.2E15.5Cmake.5Coutput.5Cobjects.5CWAlloc.124::
                        2240 .LDWlin124:
000006ec 8392           2241 	shr	3,r18
000006ee d9fd*          2242 	bnl	.L7359
                        2243 .L7357:
                        2244 --line1263
                        2245 ..lin.C.3A.5C_ECU2.5CECU_Rivian_A1.5CTarget.5Crepo_projects.5CpRealEcu.5CcR_R2023.2E09.2E15.5Cmake.5Coutput.5Cobjects.5CWAlloc.125::
                        2246 .LDWlin125:
000006f0 68da           2247 	cmp	8,r27
000006f2 b90d*          2248 	bnl	.L7355
                        2249 --line1264
                        2250 ..lin.C.3A.5C_ECU2.5CECU_Rivian_A1.5CTarget.5Crepo_projects.5CpRealEcu.5CcR_R2023.2E09.2E15.5Cmake.5Coutput.5Cobjects.5CWAlloc.126::
                        2251 .LDWlin126:
000006f4 1bf0           2252 	mov	r27,ep
000006f6 c6f2           2253 	shl	6,ep
000006f8 270600000000*  2254 	mov	_tZOM,r7
000006fe c7f1           2255 	add	r7,ep
00000700 6d30           2256 	sld.bu	13[ep],r6
00000702 e031           2257 	cmp	zero,r6
00000704 e2ef0000       2258 	setfe	r29
                        2259 .L7355:
                        2260 --line1268
                        2261 ..lin.C.3A.5C_ECU2.5CECU_Rivian_A1.5CTarget.5Crepo_projects.5CpRealEcu.5CcR_R2023.2E09.2E15.5Cmake.5Coutput.5Cobjects.5CWAlloc.127::
                        2262 .LDWlin127:
00000708 1d50           2263 	mov	r29,r10
                        2264 --	    .ef
                        2265 .LDW78:
0000070a 40067f10       2266 	dispose	0,{r27,r29,r31},[lp]
                        2267 ___ghs_eofn_bCheckIfNewTelAllowed:
                        2268 	.type	_bCheckIfNewTelAllowed,@function
                        2269 	.size	_bCheckIfNewTelAllowed,.-_bCheckIfNewTelAllowed
                        2270 	.type	_bCheckIfNewTelAllowed..C.3A.5C_ECU2.5CECU_Rivian_A1.5CTarget.5Crepo_projects.5CpRealEcu.5CcR_R2023.2E09.2E15.5Cmake.5Coutput.5Cobjects.5CWAlloc.,@function
                        2271 	.size	_bCheckIfNewTelAllowed..C.3A.5C_ECU2.5CECU_Rivian_A1.5CTarget.5Crepo_projects.5CpRealEcu.5CcR_R2023.2E09.2E15.5Cmake.5Coutput.5Cobjects.5CWAlloc.,.-_bCheckIfNewTelAllowed..C.3A.5C_ECU2.5CECU_Rivian_A1.5CTarget.5Crepo_projects.5CpRealEcu.5CcR_R2023.2E09.2E15.5Cmake.5Coutput.5Cobjects.5CWAlloc.
                        2272 	.align	2
                        2273 --_bTelAllowed	r29	local
                        2274 
                        2275 --_ptInputWA	r28	param
                        2276 --_ucIx	r27	param
                        2277 
                        2278 	.section ".bss","awb"
                        2279 .L7442:
                        2280 	.type	.L7442,@object
                        2281 	.size	.L7442,0
                        2282 	.data
                        2283 	.text
                        2284 	.align	2
                        2285 	.align	2
                        2286 ..gh.f.f.1.e.39:
                        2287 	.type	..gh.f.f.1.e.39,@object
                        2288 	.size	..gh.f.f.1.e.39,0
                        2289 	.global	_ucActualize..C.3A.5C_ECU2.5CECU_Rivian_A1.5CTarget.5Crepo_projects.5CpRealEcu.5CcR_R2023.2E09.2E15.5Cmake.5Coutput.5Cobjects.5CWAlloc.
                        2290 _ucActualize..C.3A.5C_ECU2.5CECU_Rivian_A1.5CTarget.5Crepo_projects.5CpRealEcu.5CcR_R2023.2E09.2E15.5Cmake.5Coutput.5Cobjects.5CWAlloc.:
                        2291 _ucActualize:

                                                                      Page 40
                                                              C:\Users\nhuliyap\AppData\Local\Temp\gh_00002rs1.s
0000070e 8007e170       2292 	prepare	{r25,r26,r27,r28,r29,r31},0
00000712 06e0           2293 	mov	r6,r28
00000714 07c8           2294 	mov	r7,r25
                        2295 --	    .bf
                        2296 .LDW88:
00000716 00d2           2297 	mov	0,r26
                        2298 	jarl	_ucGetZOMPosOfID,lp
                        2298 <EXPANSION BEGIN>
                        2298 jarl22 _ucGetZOMPosOfID , lp 
00000718 bfff00fb*      2298 <EXPANSION END>
0000071c 0ae8           2299 	mov	r10,r29
                        2300 --line657
                        2301 ..lin.C.3A.5C_ECU2.5CECU_Rivian_A1.5CTarget.5Crepo_projects.5CpRealEcu.5CcR_R2023.2E09.2E15.5Cmake.5Coutput.5Cobjects.5CWAlloc.128::
                        2302 .LDWlin128:
0000071e 1c30           2303 	mov	r28,r6
00000720 0a38           2304 	mov	r10,r7
                        2305 	jarl	_bCheckIfNewTelAllowed,lp
                        2305 <EXPANSION BEGIN>
                        2305 jarl22 _bCheckIfNewTelAllowed , lp 
00000722 bfffa8ff*      2305 <EXPANSION END>
00000726 0ad8           2306 	mov	r10,r27
                        2307 --line660
                        2308 ..lin.C.3A.5C_ECU2.5CECU_Rivian_A1.5CTarget.5Crepo_projects.5CpRealEcu.5CcR_R2023.2E09.2E15.5Cmake.5Coutput.5Cobjects.5CWAlloc.129::
                        2309 .LDWlin129:
00000728 6152           2310 	cmp	1,r10
0000072a ba0d*          2311 	bne	.L7517
                        2312 --line661
                        2313 ..lin.C.3A.5C_ECU2.5CECU_Rivian_A1.5CTarget.5Crepo_projects.5CpRealEcu.5CcR_R2023.2E09.2E15.5Cmake.5Coutput.5Cobjects.5CWAlloc.130::
                        2314 .LDWlin130:
0000072c 1c360400       2315 	addi	4,r28,r6
                        2316 	jarl	_DriveDir,lp
                        2316 <EXPANSION BEGIN>
                        2316 jarl22 _DriveDir , lp 
00000730 bfff70ff*      2316 <EXPANSION END>
                        2317 --line663
                        2318 ..lin.C.3A.5C_ECU2.5CECU_Rivian_A1.5CTarget.5Crepo_projects.5CpRealEcu.5CcR_R2023.2E09.2E15.5Cmake.5Coutput.5Cobjects.5CWAlloc.131::
                        2319 .LDWlin131:
00000734 68ea           2320 	cmp	8,r29
00000736 f905*          2321 	bnl	.L7519
                        2322 --line664
                        2323 ..lin.C.3A.5C_ECU2.5CECU_Rivian_A1.5CTarget.5Crepo_projects.5CpRealEcu.5CcR_R2023.2E09.2E15.5Cmake.5Coutput.5Cobjects.5CWAlloc.132::
                        2324 .LDWlin132:
00000738 bc4f0500       2325 	ld.bu	5[r28],r9
0000073c e049           2326 	cmp	zero,r9
0000073e ea0d*          2327 	bne	.L7528
                        2328 .L7517:
                        2329 --line710
                        2330 ..lin.C.3A.5C_ECU2.5CECU_Rivian_A1.5CTarget.5Crepo_projects.5CpRealEcu.5CcR_R2023.2E09.2E15.5Cmake.5Coutput.5Cobjects.5CWAlloc.133::
                        2331 .LDWlin133:
00000740 1ad8           2332 	mov	r26,r27
00000742 d52d*          2333 	br	.L7537
                        2334 .L7519:
                        2335 --line674
                        2336 ..lin.C.3A.5C_ECU2.5CECU_Rivian_A1.5CTarget.5Crepo_projects.5CpRealEcu.5CcR_R2023.2E09.2E15.5Cmake.5Coutput.5Cobjects.5CWAlloc.134::
                        2337 .LDWlin134:
                        2338 	jarl	_ucGetFreeZOMPos,lp
                        2338 <EXPANSION BEGIN>
                        2338 jarl22 _ucGetFreeZOMPos , lp 
00000744 bfff6efb*      2338 <EXPANSION END>
00000748 0ae8           2339 	mov	r10,r29
                        2340 --line675

                                                                      Page 41
                                                              C:\Users\nhuliyap\AppData\Local\Temp\gh_00002rs1.s
                        2341 ..lin.C.3A.5C_ECU2.5CECU_Rivian_A1.5CTarget.5Crepo_projects.5CpRealEcu.5CcR_R2023.2E09.2E15.5Cmake.5Coutput.5Cobjects.5CWAlloc.135::
                        2342 .LDWlin135:
0000074a 6852           2343 	cmp	8,r10
0000074c c90d*          2344 	bnl	.L7525
                        2345 --line676
                        2346 ..lin.C.3A.5C_ECU2.5CECU_Rivian_A1.5CTarget.5Crepo_projects.5CpRealEcu.5CcR_R2023.2E09.2E15.5Cmake.5Coutput.5Cobjects.5CWAlloc.136::
                        2347 .LDWlin136:
0000074e b9470100       2348 	ld.bu	1[r25],r8
00000752 bc3f0500       2349 	ld.bu	5[r28],r7
00000756 e839           2350 	cmp	r8,r7
00000758 c1f5*          2351 	bl	.L7517
                        2352 .L7528:
                        2353 --line677
                        2354 ..lin.C.3A.5C_ECU2.5CECU_Rivian_A1.5CTarget.5Crepo_projects.5CpRealEcu.5CcR_R2023.2E09.2E15.5Cmake.5Coutput.5Cobjects.5CWAlloc.137::
                        2355 .LDWlin137:
0000075a 1c30           2356 	mov	r28,r6
0000075c 1d38           2357 	mov	r29,r7
                        2358 	jarl	_SafeData,lp
                        2358 <EXPANSION BEGIN>
                        2358 jarl22 _SafeData , lp 
0000075e bfffd0fe*      2358 <EXPANSION END>
00000762 f51d*          2359 	br	.L7539
                        2360 .L7525:
                        2361 --line686
                        2362 ..lin.C.3A.5C_ECU2.5CECU_Rivian_A1.5CTarget.5Crepo_projects.5CpRealEcu.5CcR_R2023.2E09.2E15.5Cmake.5Coutput.5Cobjects.5CWAlloc.138::
                        2363 .LDWlin138:
                        2364 	jarl	_ucGetERState,lp
                        2364 <EXPANSION BEGIN>
                        2364 jarl22 _ucGetERState , lp 
00000764 bfffd6f8*      2364 <EXPANSION END>
00000768 e051           2365 	cmp	zero,r10
0000076a baed*          2366 	bne	.L7517
                        2367 --line687
                        2368 ..lin.C.3A.5C_ECU2.5CECU_Rivian_A1.5CTarget.5Crepo_projects.5CpRealEcu.5CcR_R2023.2E09.2E15.5Cmake.5Coutput.5Cobjects.5CWAlloc.139::
                        2369 .LDWlin139:
0000076c 260600000000*  2370 	mov	_aulHistoryID,r6
00000772 013a           2371 	mov	1,r7
00000774 0842           2372 	mov	8,r8
                        2373 	jarl	_ushIDSetInHist,lp
                        2373 <EXPANSION BEGIN>
                        2373 jarl22 _ushIDSetInHist , lp 
00000776 bfff5afe*      2373 <EXPANSION END>
0000077a 0a30           2374 	mov	r10,r6
                        2375 	jarl	_ucLowestProbe,lp
                        2375 <EXPANSION BEGIN>
                        2375 jarl22 _ucLowestProbe , lp 
0000077c bffffefb*      2375 <EXPANSION END>
                        2376 --line692
                        2377 ..lin.C.3A.5C_ECU2.5CECU_Rivian_A1.5CTarget.5Crepo_projects.5CpRealEcu.5CcR_R2023.2E09.2E15.5Cmake.5Coutput.5Cobjects.5CWAlloc.140::
                        2378 .LDWlin140:
00000780 b94f0100       2379 	ld.bu	1[r25],r9
00000784 bc470500       2380 	ld.bu	5[r28],r8
00000788 0ae8           2381 	mov	r10,r29
0000078a e941           2382 	cmp	r9,r8
0000078c a1dd*          2383 	bl	.L7517
                        2384 --line693
                        2385 ..lin.C.3A.5C_ECU2.5CECU_Rivian_A1.5CTarget.5Crepo_projects.5CpRealEcu.5CcR_R2023.2E09.2E15.5Cmake.5Coutput.5Cobjects.5CWAlloc.141::
                        2386 .LDWlin141:
0000078e 0a30           2387 	mov	r10,r6
                        2388 	jarl	_ClearZOM,lp
                        2388 <EXPANSION BEGIN>

                                                                      Page 42
                                                              C:\Users\nhuliyap\AppData\Local\Temp\gh_00002rs1.s
                        2388 jarl22 _ClearZOM , lp 
00000790 bffff2f8*      2388 <EXPANSION END>
                        2389 --line695
                        2390 ..lin.C.3A.5C_ECU2.5CECU_Rivian_A1.5CTarget.5Crepo_projects.5CpRealEcu.5CcR_R2023.2E09.2E15.5Cmake.5Coutput.5Cobjects.5CWAlloc.142::
                        2391 .LDWlin142:
00000794 1c30           2392 	mov	r28,r6
00000796 0a38           2393 	mov	r10,r7
                        2394 	jarl	_SafeData,lp
                        2394 <EXPANSION BEGIN>
                        2394 jarl22 _SafeData , lp 
00000798 bfff96fe*      2394 <EXPANSION END>
                        2395 .L7537:
                        2396 --line712
                        2397 ..lin.C.3A.5C_ECU2.5CECU_Rivian_A1.5CTarget.5Crepo_projects.5CpRealEcu.5CcR_R2023.2E09.2E15.5Cmake.5Coutput.5Cobjects.5CWAlloc.143::
                        2398 .LDWlin143:
0000079c 68ea           2399 	cmp	8,r29
0000079e 890d*          2400 	bnl	.L7540
                        2401 .L7539:
                        2402 --line713
                        2403 ..lin.C.3A.5C_ECU2.5CECU_Rivian_A1.5CTarget.5Crepo_projects.5CpRealEcu.5CcR_R2023.2E09.2E15.5Cmake.5Coutput.5Cobjects.5CWAlloc.144::
                        2404 .LDWlin144:
                        2405 	jarl	_pGetCurTel,lp
                        2405 <EXPANSION BEGIN>
                        2405 jarl22 _pGetCurTel , lp 
000007a0 80ff0000*      2405 <EXPANSION END>
000007a4 1d30           2406 	mov	r29,r6
000007a6 0a38           2407 	mov	r10,r7
                        2408 	jarl	_CounterPreparation,lp
                        2408 <EXPANSION BEGIN>
                        2408 jarl22 _CounterPreparation , lp 
000007a8 80ff0000*      2408 <EXPANSION END>
000007ac 0ad0           2409 	mov	r10,r26
                        2410 .L7540:
                        2411 --line719
                        2412 ..lin.C.3A.5C_ECU2.5CECU_Rivian_A1.5CTarget.5Crepo_projects.5CpRealEcu.5CcR_R2023.2E09.2E15.5Cmake.5Coutput.5Cobjects.5CWAlloc.145::
                        2413 .LDWlin145:
000007ae 1d50           2414 	mov	r29,r10
000007b0 e0d9           2415 	cmp	zero,r27
000007b2 ba05*          2416 	bne	.L7515
000007b4 e0d1           2417 	cmp	zero,r26
000007b6 b205*          2418 	be	.L7541
                        2419 .L7515:
                        2420 --	    .ef
                        2421 .LDW98:
                        2422 --line719
                        2423 ..lin.C.3A.5C_ECU2.5CECU_Rivian_A1.5CTarget.5Crepo_projects.5CpRealEcu.5CcR_R2023.2E09.2E15.5Cmake.5Coutput.5Cobjects.5CWAlloc.146::
                        2424 .LDWlin146:
000007b8 4006ff70       2425 	dispose	0,{r25,r26,r27,r28,r29,r31},[lp]
                        2426 .L7541:
                        2427 --line723
                        2428 ..lin.C.3A.5C_ECU2.5CECU_Rivian_A1.5CTarget.5Crepo_projects.5CpRealEcu.5CcR_R2023.2E09.2E15.5Cmake.5Coutput.5Cobjects.5CWAlloc.147::
                        2429 .LDWlin147:
000007bc 0852           2430 	mov	8,r10
000007be 4006ff70       2431 	dispose	0,{r25,r26,r27,r28,r29,r31},[lp]
                        2432 ___ghs_eofn_ucActualize:
                        2433 	.type	_ucActualize,@function
                        2434 	.size	_ucActualize,.-_ucActualize
                        2435 	.type	_ucActualize..C.3A.5C_ECU2.5CECU_Rivian_A1.5CTarget.5Crepo_projects.5CpRealEcu.5CcR_R2023.2E09.2E15.5Cmake.5Coutput.5Cobjects.5CWAlloc.,@function
                        2436 	.size	_ucActualize..C.3A.5C_ECU2.5CECU_Rivian_A1.5CTarget.5Crepo_projects.5CpRealEcu.5CcR_R2023.2E09.2E15.5Cmake.5Coutput.5Cobjects.5CWAlloc.,.-_ucActualize..C.3A.5C_ECU2.5CECU_Rivian_A1.5CTarget.5Crepo_projects.5CpRealEcu.5CcR_R2023.2E09.2E15.5Cmake.5Coutput.5Cobjects.5CWAlloc.
                        2437 	.align	2
                        2438 --_ucRetVal	r10	local

                                                                      Page 43
                                                              C:\Users\nhuliyap\AppData\Local\Temp\gh_00002rs1.s
                        2439 --_ucIx	r29	local
                        2440 --_bTelAllowed	r27	local
                        2441 --_ucNewAPCData	r26	local
                        2442 
                        2443 --_ptInputWA	r28	param
                        2444 --_ptWAPar	r25	param
                        2445 
                        2446 	.data
                        2447 	.text
                        2448 	.align	2
                        2449 	.align	2
                        2450 ..gh.f.f.1.e.40:
                        2451 	.type	..gh.f.f.1.e.40,@object
                        2452 	.size	..gh.f.f.1.e.40,0
                        2453 	.global	_ucSetHistory
                        2454 _ucSetHistory:
000007c2 8007e1f1       2455 	prepare	{r23,r24,r25,r26,r27,r28,r29,r31},0
000007c6 06d0           2456 	mov	r6,r26
000007c8 9a00           2457 	zxb	r26
000007ca 380600000000*  2458 	mov	_aucHistoryWP,r24
                        2459 --	    .bf
                        2460 .LDW09:
                        2461 --line731
                        2462 ..lin.C.3A.5C_ECU2.5CECU_Rivian_A1.5CTarget.5Crepo_projects.5CpRealEcu.5CcR_R2023.2E09.2E15.5Cmake.5Coutput.5Cobjects.5CWAlloc.148::
                        2463 .LDWlin148:
000007d0 38be0800       2464 	movea	8,r24,r23
000007d4 0fe2           2465 	mov	15,r28
000007d6 1738           2466 	mov	r23,r7
000007d8 0132           2467 	mov	1,r6
                        2468 	jarl	_GetWADataEE,lp
                        2468 <EXPANSION BEGIN>
                        2468 jarl22 _GetWADataEE , lp 
000007da 80ff0000*      2468 <EXPANSION END>
                        2469 --line734
                        2470 ..lin.C.3A.5C_ECU2.5CECU_Rivian_A1.5CTarget.5Crepo_projects.5CpRealEcu.5CcR_R2023.2E09.2E15.5Cmake.5Coutput.5Cobjects.5CWAlloc.149::
                        2471 .LDWlin149:
000007de 1838           2472 	mov	r24,r7
000007e0 0232           2473 	mov	2,r6
                        2474 	jarl	_GetWADataEE,lp
                        2474 <EXPANSION BEGIN>
                        2474 jarl22 _GetWADataEE , lp 
000007e2 80ff0000*      2474 <EXPANSION END>
                        2475 --line737
                        2476 ..lin.C.3A.5C_ECU2.5CECU_Rivian_A1.5CTarget.5Crepo_projects.5CpRealEcu.5CcR_R2023.2E09.2E15.5Cmake.5Coutput.5Cobjects.5CWAlloc.150::
                        2477 .LDWlin150:
000007e6 00ea           2478 	mov	0,r29
                        2479 .L7862:
000007e8 00da           2480 	mov	0,r27
                        2481 .L7865:
000007ea 1dc8           2482 	mov	r29,r25
000007ec c2ca           2483 	shl	2,r25
000007ee d7c9           2484 	add	r23,r25
000007f0 1b30           2485 	mov	r27,r6
                        2486 	jarl	_ulGetZOMID,lp
                        2486 <EXPANSION BEGIN>
                        2486 jarl22 _ulGetZOMID , lp 
000007f2 bffff6f8*      2486 <EXPANSION END>
000007f6 39470100       2487 	ld.w	0[r25],r8
000007fa ea41           2488 	cmp	r10,r8
000007fc aa1d*          2489 	bne	.L7866
                        2490 --line741

                                                                      Page 44
                                                              C:\Users\nhuliyap\AppData\Local\Temp\gh_00002rs1.s
                        2491 ..lin.C.3A.5C_ECU2.5CECU_Rivian_A1.5CTarget.5Crepo_projects.5CpRealEcu.5CcR_R2023.2E09.2E15.5Cmake.5Coutput.5Cobjects.5CWAlloc.151::
                        2492 .LDWlin151:
000007fe 0132           2493 	mov	1,r6
00000800 fb37c238       2494 	shl	r27,r6,r7
00000804 2798           2495 	not	r7,r19
00000806 53e1           2496 	and	r19,r28
00000808 64d2           2497 	cmp	4,r26
0000080a 8a15*          2498 	bne	.L7873
                        2499 --line744
                        2500 ..lin.C.3A.5C_ECU2.5CECU_Rivian_A1.5CTarget.5Crepo_projects.5CpRealEcu.5CcR_R2023.2E09.2E15.5Cmake.5Coutput.5Cobjects.5CWAlloc.152::
                        2501 .LDWlin152:
0000080c 1b30           2502 	mov	r27,r6
                        2503 	jarl	_ucGetZOMWP,lp
                        2503 <EXPANSION BEGIN>
                        2503 jarl22 _ucGetZOMWP , lp 
0000080e bfff3af9*      2503 <EXPANSION END>
00000812 1df0           2504 	mov	r29,ep
00000814 d8f1           2505 	add	r24,ep
00000816 6090           2506 	sld.bu	0[ep],r18
00000818 f251           2507 	cmp	r18,r10
0000081a 820d*          2508 	be	.L7873
                        2509 --line750
                        2510 ..lin.C.3A.5C_ECU2.5CECU_Rivian_A1.5CTarget.5Crepo_projects.5CpRealEcu.5CcR_R2023.2E09.2E15.5Cmake.5Coutput.5Cobjects.5CWAlloc.153::
                        2511 .LDWlin153:
0000081c 20861000       2512 	movea	16,zero,r16
00000820 fd87c288       2513 	shl	r29,r16,r17
00000824 9100           2514 	zxb	r17
00000826 8053           2515 	sst.b	r10,0[ep]
00000828 11e1           2516 	or	r17,r28
                        2517 .L7873:
0000082a 64da           2518 	cmp	4,r27
0000082c e205*          2519 	be	.L7876
0000082e a515*          2520 	br	.L7875
                        2521 .L7866:
                        2522 --line738
                        2523 ..lin.C.3A.5C_ECU2.5CECU_Rivian_A1.5CTarget.5Crepo_projects.5CpRealEcu.5CcR_R2023.2E09.2E15.5Cmake.5Coutput.5Cobjects.5CWAlloc.154::
                        2524 .LDWlin154:
00000830 41da           2525 	add	1,r27
00000832 64da           2526 	cmp	4,r27
00000834 b1dd*          2527 	bl	.L7865
00000836 eb0d*          2528 	bh	.L7875
                        2529 .L7876:
                        2530 --line757
                        2531 ..lin.C.3A.5C_ECU2.5CECU_Rivian_A1.5CTarget.5Crepo_projects.5CpRealEcu.5CcR_R2023.2E09.2E15.5Cmake.5Coutput.5Cobjects.5CWAlloc.155::
                        2532 .LDWlin155:
00000838 1dd8           2533 	mov	r29,r27
0000083a d8d9           2534 	add	r24,r27
0000083c 0432           2535 	mov	4,r6
                        2536 	jarl	_ucGetZOMWP,lp
                        2536 <EXPANSION BEGIN>
                        2536 jarl22 _ucGetZOMWP , lp 
0000083e bfff0af9*      2536 <EXPANSION END>
                        2537 --line759
                        2538 ..lin.C.3A.5C_ECU2.5CECU_Rivian_A1.5CTarget.5Crepo_projects.5CpRealEcu.5CcR_R2023.2E09.2E15.5Cmake.5Coutput.5Cobjects.5CWAlloc.156::
                        2539 .LDWlin156:
00000842 207e1000       2540 	movea	16,zero,r15
00000846 fd7fc280       2541 	shl	r29,r15,r16
0000084a 9000           2542 	zxb	r16
0000084c 5b570000       2543 	st.b	r10,0[r27]
00000850 10e1           2544 	or	r16,r28
                        2545 .L7875:

                                                                      Page 45
                                                              C:\Users\nhuliyap\AppData\Local\Temp\gh_00002rs1.s
00000852 41ea           2546 	add	1,r29
00000854 64ea           2547 	cmp	4,r29
00000856 91cd*          2548 	bl	.L7862
                        2549 --line762
                        2550 ..lin.C.3A.5C_ECU2.5CECU_Rivian_A1.5CTarget.5Crepo_projects.5CpRealEcu.5CcR_R2023.2E09.2E15.5Cmake.5Coutput.5Cobjects.5CWAlloc.157::
                        2551 .LDWlin157:
00000858 e0e1           2552 	cmp	zero,r28
0000085a d235*          2553 	be	.L7877
                        2554 --line763
                        2555 ..lin.C.3A.5C_ECU2.5CECU_Rivian_A1.5CTarget.5Crepo_projects.5CpRealEcu.5CcR_R2023.2E09.2E15.5Cmake.5Coutput.5Cobjects.5CWAlloc.158::
                        2556 .LDWlin158:
0000085c 64d2           2557 	cmp	4,r26
0000085e ca05*          2558 	bne	.L7879
                        2559 --line764
                        2560 ..lin.C.3A.5C_ECU2.5CECU_Rivian_A1.5CTarget.5Crepo_projects.5CpRealEcu.5CcR_R2023.2E09.2E15.5Cmake.5Coutput.5Cobjects.5CWAlloc.159::
                        2561 .LDWlin159:
00000860 dce6f000       2562 	andi	240,r28,r28
00000864 852d*          2563 	br	.L7881
                        2564 .L7879:
                        2565 --line767
                        2566 ..lin.C.3A.5C_ECU2.5CECU_Rivian_A1.5CTarget.5Crepo_projects.5CpRealEcu.5CcR_R2023.2E09.2E15.5Cmake.5Coutput.5Cobjects.5CWAlloc.160::
                        2567 .LDWlin160:
00000866 dcd6f000       2568 	andi	240,r28,r26
0000086a 00ea           2569 	mov	0,r29
                        2570 .L7884:
0000086c 017a           2571 	mov	1,r15
0000086e fd7fc290       2572 	shl	r29,r15,r18
00000872 5c91           2573 	and	r28,r18
00000874 e091           2574 	cmp	zero,r18
00000876 00da           2575 	mov	0,r27
00000878 a71d*          2576 	ble	.L7885
                        2577 .L7889:
                        2578 --line771
                        2579 ..lin.C.3A.5C_ECU2.5CECU_Rivian_A1.5CTarget.5Crepo_projects.5CpRealEcu.5CcR_R2023.2E09.2E15.5Cmake.5Coutput.5Cobjects.5CWAlloc.161::
                        2580 .LDWlin161:
0000087a 20761000       2581 	movea	16,zero,r14
0000087e fb77c2c8       2582 	shl	r27,r14,r25
00000882 1988           2583 	mov	r25,r17
00000884 9100           2584 	zxb	r17
00000886 5c89           2585 	and	r28,r17
00000888 e089           2586 	cmp	zero,r17
0000088a e70d*          2587 	ble	.L7890
                        2588 --line772
                        2589 ..lin.C.3A.5C_ECU2.5CECU_Rivian_A1.5CTarget.5Crepo_projects.5CpRealEcu.5CcR_R2023.2E09.2E15.5Cmake.5Coutput.5Cobjects.5CWAlloc.162::
                        2590 .LDWlin162:
0000088c 1d30           2591 	mov	r29,r6
                        2592 	jarl	_ulGetZOMID,lp
                        2592 <EXPANSION BEGIN>
                        2592 jarl22 _ulGetZOMID , lp 
0000088e bfff5af8*      2592 <EXPANSION END>
00000892 e051           2593 	cmp	zero,r10
00000894 ff57044b       2594 	cmove	-1,r10,r9
                        2595 --line780
                        2596 ..lin.C.3A.5C_ECU2.5CECU_Rivian_A1.5CTarget.5Crepo_projects.5CpRealEcu.5CcR_R2023.2E09.2E15.5Cmake.5Coutput.5Cobjects.5CWAlloc.163::
                        2597 .LDWlin163:
00000898 1bf0           2598 	mov	r27,ep
0000089a c2f2           2599 	shl	2,ep
0000089c d7f1           2600 	add	r23,ep
0000089e 3980           2601 	not	r25,r16
000008a0 014d           2602 	sst.w	r9,0[ep]
000008a2 50e1           2603 	and	r16,r28

                                                                      Page 46
                                                              C:\Users\nhuliyap\AppData\Local\Temp\gh_00002rs1.s
000008a4 c505*          2604 	br	.L7885
                        2605 .L7890:
                        2606 --line770
                        2607 ..lin.C.3A.5C_ECU2.5CECU_Rivian_A1.5CTarget.5Crepo_projects.5CpRealEcu.5CcR_R2023.2E09.2E15.5Cmake.5Coutput.5Cobjects.5CWAlloc.164::
                        2608 .LDWlin164:
000008a6 41da           2609 	add	1,r27
000008a8 64da           2610 	cmp	4,r27
000008aa 81ed*          2611 	bl	.L7889
                        2612 .L7885:
                        2613 --line768
                        2614 ..lin.C.3A.5C_ECU2.5CECU_Rivian_A1.5CTarget.5Crepo_projects.5CpRealEcu.5CcR_R2023.2E09.2E15.5Cmake.5Coutput.5Cobjects.5CWAlloc.165::
                        2615 .LDWlin165:
000008ac 41ea           2616 	add	1,r29
000008ae 64ea           2617 	cmp	4,r29
000008b0 e1dd*          2618 	bl	.L7884
000008b2 1ae0           2619 	mov	r26,r28
                        2620 .L7881:
                        2621 --line789
                        2622 ..lin.C.3A.5C_ECU2.5CECU_Rivian_A1.5CTarget.5Crepo_projects.5CpRealEcu.5CcR_R2023.2E09.2E15.5Cmake.5Coutput.5Cobjects.5CWAlloc.166::
                        2623 .LDWlin166:
000008b4 1738           2624 	mov	r23,r7
000008b6 0132           2625 	mov	1,r6
                        2626 	jarl	_PutWADataEE,lp
                        2626 <EXPANSION BEGIN>
                        2626 jarl22 _PutWADataEE , lp 
000008b8 80ff0000*      2626 <EXPANSION END>
                        2627 --line792
                        2628 ..lin.C.3A.5C_ECU2.5CECU_Rivian_A1.5CTarget.5Crepo_projects.5CpRealEcu.5CcR_R2023.2E09.2E15.5Cmake.5Coutput.5Cobjects.5CWAlloc.167::
                        2629 .LDWlin167:
000008bc 1838           2630 	mov	r24,r7
000008be 0232           2631 	mov	2,r6
                        2632 	jarl	_PutWADataEE,lp
                        2632 <EXPANSION BEGIN>
                        2632 jarl22 _PutWADataEE , lp 
000008c0 80ff0000*      2632 <EXPANSION END>
                        2633 .L7877:
                        2634 --line796
                        2635 ..lin.C.3A.5C_ECU2.5CECU_Rivian_A1.5CTarget.5Crepo_projects.5CpRealEcu.5CcR_R2023.2E09.2E15.5Cmake.5Coutput.5Cobjects.5CWAlloc.168::
                        2636 .LDWlin168:
000008c4 1c50           2637 	mov	r28,r10
                        2638 --	    .ef
                        2639 .LDW19:
000008c6 4006fff1       2640 	dispose	0,{r23,r24,r25,r26,r27,r28,r29,r31},[lp]
                        2641 	.global	___ghs_eofn_ucSetHistory
                        2642 ___ghs_eofn_ucSetHistory:
                        2643 	.type	_ucSetHistory,@function
                        2644 	.size	_ucSetHistory,.-_ucSetHistory
                        2645 	.align	2
                        2646 --_i	r29	local
                        2647 --_j	r27	local
                        2648 --_ucRet	r28	local
                        2649 
                        2650 --_ucType	r26	param
                        2651 
                        2652 	.data
                        2653 	.text
                        2654 	.align	2
                        2655 	.align	2
                        2656 ..gh.f.f.1.e.41:
                        2657 	.type	..gh.f.f.1.e.41,@object
                        2658 	.size	..gh.f.f.1.e.41,0

                                                                      Page 47
                                                              C:\Users\nhuliyap\AppData\Local\Temp\gh_00002rs1.s
                        2659 	.global	_RestoreHistory..C.3A.5C_ECU2.5CECU_Rivian_A1.5CTarget.5Crepo_projects.5CpRealEcu.5CcR_R2023.2E09.2E15.5Cmake.5Coutput.5Cobjects.5CWAlloc.
                        2660 _RestoreHistory..C.3A.5C_ECU2.5CECU_Rivian_A1.5CTarget.5Crepo_projects.5CpRealEcu.5CcR_R2023.2E09.2E15.5Cmake.5Coutput.5Cobjects.5CWAlloc.:
                        2661 _RestoreHistory:
000008ca 8007e1f1       2662 	prepare	{r23,r24,r25,r26,r27,r28,r29,r31},0
000008ce 3d0600000000*  2663 	mov	_aucHistoryWP,r29
                        2664 --	    .bf
                        2665 .LDW29:
                        2666 --line802
                        2667 ..lin.C.3A.5C_ECU2.5CECU_Rivian_A1.5CTarget.5Crepo_projects.5CpRealEcu.5CcR_R2023.2E09.2E15.5Cmake.5Coutput.5Cobjects.5CWAlloc.169::
                        2668 .LDWlin169:
000008d4 3d370900       2669 	ld.w	8[r29],r6
000008d8 00da           2670 	mov	0,r27
000008da 3dc60800       2671 	movea	8,r29,r24
000008de 7f32           2672 	cmp	-1,r6
000008e0 994d*          2673 	bnl	.L10153
                        2674 --line803
                        2675 ..lin.C.3A.5C_ECU2.5CECU_Rivian_A1.5CTarget.5Crepo_projects.5CpRealEcu.5CcR_R2023.2E09.2E15.5Cmake.5Coutput.5Cobjects.5CWAlloc.170::
                        2676 .LDWlin170:
                        2677 	jarl	_ucGetERState,lp
                        2677 <EXPANSION BEGIN>
                        2677 jarl22 _ucGetERState , lp 
000008e2 bfff58f7*      2677 <EXPANSION END>
                        2678 --line803
                        2679 ..lin.C.3A.5C_ECU2.5CECU_Rivian_A1.5CTarget.5Crepo_projects.5CpRealEcu.5CcR_R2023.2E09.2E15.5Cmake.5Coutput.5Cobjects.5CWAlloc.171::
                        2680 .LDWlin171:
000008e6 1be0           2681 	mov	r27,r28
000008e8 6152           2682 	cmp	1,r10
000008ea da1d*          2683 	bne	.L10171
                        2684 .L10161:
                        2685 --line805
                        2686 ..lin.C.3A.5C_ECU2.5CECU_Rivian_A1.5CTarget.5Crepo_projects.5CpRealEcu.5CcR_R2023.2E09.2E15.5Cmake.5Coutput.5Cobjects.5CWAlloc.172::
                        2687 .LDWlin172:
000008ec 00d2           2688 	mov	0,r26
                        2689 .L10164:
000008ee 1ac8           2690 	mov	r26,r25
000008f0 c2ca           2691 	shl	2,r25
000008f2 d8c9           2692 	add	r24,r25
000008f4 1c30           2693 	mov	r28,r6
                        2694 	jarl	_ulGetZOMID,lp
                        2694 <EXPANSION BEGIN>
                        2694 jarl22 _ulGetZOMID , lp 
000008f6 bffff2f7*      2694 <EXPANSION END>
000008fa 399f0100       2695 	ld.w	0[r25],r19
000008fe ea99           2696 	cmp	r10,r19
00000900 ba0d*          2697 	bne	.L10165
00000902 1af0           2698 	mov	r26,ep
00000904 ddf1           2699 	add	r29,ep
00000906 6038           2700 	sld.bu	0[ep],r7
00000908 643a           2701 	cmp	4,r7
0000090a e905*          2702 	bnl	.L10165
                        2703 --line808
                        2704 ..lin.C.3A.5C_ECU2.5CECU_Rivian_A1.5CTarget.5Crepo_projects.5CpRealEcu.5CcR_R2023.2E09.2E15.5Cmake.5Coutput.5Cobjects.5CWAlloc.173::
                        2705 .LDWlin173:
0000090c 1c30           2706 	mov	r28,r6
                        2707 	jarl	_SetZOMWP,lp
                        2707 <EXPANSION BEGIN>
                        2707 jarl22 _SetZOMWP , lp 
0000090e bfff76f8*      2707 <EXPANSION END>
                        2708 --line811
                        2709 ..lin.C.3A.5C_ECU2.5CECU_Rivian_A1.5CTarget.5Crepo_projects.5CpRealEcu.5CcR_R2023.2E09.2E15.5Cmake.5Coutput.5Cobjects.5CWAlloc.174::
                        2710 .LDWlin174:

                                                                      Page 48
                                                              C:\Users\nhuliyap\AppData\Local\Temp\gh_00002rs1.s
00000912 41da           2711 	add	1,r27
00000914 9b00           2712 	zxb	r27
                        2713 .L10165:
00000916 41d2           2714 	add	1,r26
00000918 64d2           2715 	cmp	4,r26
0000091a a1ed*          2716 	bl	.L10164
                        2717 --line804
                        2718 ..lin.C.3A.5C_ECU2.5CECU_Rivian_A1.5CTarget.5Crepo_projects.5CpRealEcu.5CcR_R2023.2E09.2E15.5Cmake.5Coutput.5Cobjects.5CWAlloc.175::
                        2719 .LDWlin175:
0000091c 41e2           2720 	add	1,r28
0000091e 64e2           2721 	cmp	4,r28
00000920 e1e5*          2722 	bl	.L10161
00000922 851d*          2723 	br	.L10168
                        2724 .L10171:
                        2725 --line818
                        2726 ..lin.C.3A.5C_ECU2.5CECU_Rivian_A1.5CTarget.5Crepo_projects.5CpRealEcu.5CcR_R2023.2E09.2E15.5Cmake.5Coutput.5Cobjects.5CWAlloc.176::
                        2727 .LDWlin176:
00000924 1c38           2728 	mov	r28,r7
00000926 c23a           2729 	shl	2,r7
00000928 1c30           2730 	mov	r28,r6
0000092a d839           2731 	add	r24,r7
                        2732 	jarl	_PutulID,lp
                        2732 <EXPANSION BEGIN>
                        2732 jarl22 _PutulID , lp 
0000092c bfffecf7*      2732 <EXPANSION END>
                        2733 --line821
                        2734 ..lin.C.3A.5C_ECU2.5CECU_Rivian_A1.5CTarget.5Crepo_projects.5CpRealEcu.5CcR_R2023.2E09.2E15.5Cmake.5Coutput.5Cobjects.5CWAlloc.177::
                        2735 .LDWlin177:
00000930 1cf0           2736 	mov	r28,ep
00000932 ddf1           2737 	add	r29,ep
00000934 6038           2738 	sld.bu	0[ep],r7
00000936 643a           2739 	cmp	4,r7
00000938 e905*          2740 	bnl	.L10172
                        2741 --line822
                        2742 ..lin.C.3A.5C_ECU2.5CECU_Rivian_A1.5CTarget.5Crepo_projects.5CpRealEcu.5CcR_R2023.2E09.2E15.5Cmake.5Coutput.5Cobjects.5CWAlloc.178::
                        2743 .LDWlin178:
0000093a 1c30           2744 	mov	r28,r6
                        2745 	jarl	_SetZOMWP,lp
                        2745 <EXPANSION BEGIN>
                        2745 jarl22 _SetZOMWP , lp 
0000093c bfff48f8*      2745 <EXPANSION END>
                        2746 --line825
                        2747 ..lin.C.3A.5C_ECU2.5CECU_Rivian_A1.5CTarget.5Crepo_projects.5CpRealEcu.5CcR_R2023.2E09.2E15.5Cmake.5Coutput.5Cobjects.5CWAlloc.179::
                        2748 .LDWlin179:
00000940 41da           2749 	add	1,r27
00000942 9b00           2750 	zxb	r27
                        2751 .L10172:
00000944 41e2           2752 	add	1,r28
00000946 9c00           2753 	zxb	r28
00000948 64e2           2754 	cmp	4,r28
0000094a d1ed*          2755 	bl	.L10171
                        2756 --line828
                        2757 ..lin.C.3A.5C_ECU2.5CECU_Rivian_A1.5CTarget.5Crepo_projects.5CpRealEcu.5CcR_R2023.2E09.2E15.5Cmake.5Coutput.5Cobjects.5CWAlloc.180::
                        2758 .LDWlin180:
0000094c 0132           2759 	mov	1,r6
                        2760 	jarl	_SetERState,lp
                        2760 <EXPANSION BEGIN>
                        2760 jarl22 _SetERState , lp 
0000094e bfffd6f6*      2760 <EXPANSION END>
                        2761 .L10168:
                        2762 --line831

                                                                      Page 49
                                                              C:\Users\nhuliyap\AppData\Local\Temp\gh_00002rs1.s
                        2763 ..lin.C.3A.5C_ECU2.5CECU_Rivian_A1.5CTarget.5Crepo_projects.5CpRealEcu.5CcR_R2023.2E09.2E15.5Cmake.5Coutput.5Cobjects.5CWAlloc.181::
                        2764 .LDWlin181:
00000952 64da           2765 	cmp	4,r27
00000954 00e2           2766 	mov	0,r28
00000956 b90d*          2767 	bnl	.L10174
                        2768 .L10178:
                        2769 --line833
                        2770 ..lin.C.3A.5C_ECU2.5CECU_Rivian_A1.5CTarget.5Crepo_projects.5CpRealEcu.5CcR_R2023.2E09.2E15.5Cmake.5Coutput.5Cobjects.5CWAlloc.182::
                        2771 .LDWlin182:
00000958 1c30           2772 	mov	r28,r6
0000095a 203e1000       2773 	movea	16,zero,r7
                        2774 	jarl	_SetZOMWP,lp
                        2774 <EXPANSION BEGIN>
                        2774 jarl22 _SetZOMWP , lp 
0000095e bfff26f8*      2774 <EXPANSION END>
                        2775 --line832
                        2776 ..lin.C.3A.5C_ECU2.5CECU_Rivian_A1.5CTarget.5Crepo_projects.5CpRealEcu.5CcR_R2023.2E09.2E15.5Cmake.5Coutput.5Cobjects.5CWAlloc.183::
                        2777 .LDWlin183:
00000962 41e2           2778 	add	1,r28
00000964 64e2           2779 	cmp	4,r28
00000966 91fd*          2780 	bl	.L10178
00000968 4006fff1       2781 	dispose	0,{r23,r24,r25,r26,r27,r28,r29,r31},[lp]
                        2782 .L10174:
                        2783 --line839
                        2784 ..lin.C.3A.5C_ECU2.5CECU_Rivian_A1.5CTarget.5Crepo_projects.5CpRealEcu.5CcR_R2023.2E09.2E15.5Cmake.5Coutput.5Cobjects.5CWAlloc.184::
                        2785 .LDWlin184:
0000096c 0132           2786 	mov	1,r6
                        2787 	jarl	_SetZOState,lp
                        2787 <EXPANSION BEGIN>
                        2787 jarl22 _SetZOState , lp 
0000096e bfffdcf6*      2787 <EXPANSION END>
                        2788 .L10153:
                        2789 --	    .ef
                        2790 .LDW39:
                        2791 --line843
                        2792 ..lin.C.3A.5C_ECU2.5CECU_Rivian_A1.5CTarget.5Crepo_projects.5CpRealEcu.5CcR_R2023.2E09.2E15.5Cmake.5Coutput.5Cobjects.5CWAlloc.185::
                        2793 .LDWlin185:
00000972 4006fff1       2794 	dispose	0,{r23,r24,r25,r26,r27,r28,r29,r31},[lp]
                        2795 ___ghs_eofn_RestoreHistory:
                        2796 	.type	_RestoreHistory,@function
                        2797 	.size	_RestoreHistory,.-_RestoreHistory
                        2798 	.type	_RestoreHistory..C.3A.5C_ECU2.5CECU_Rivian_A1.5CTarget.5Crepo_projects.5CpRealEcu.5CcR_R2023.2E09.2E15.5Cmake.5Coutput.5Cobjects.5CWAlloc.,@function
                        2799 	.size	_RestoreHistory..C.3A.5C_ECU2.5CECU_Rivian_A1.5CTarget.5Crepo_projects.5CpRealEcu.5CcR_R2023.2E09.2E15.5Cmake.5Coutput.5Cobjects.5CWAlloc.,.-_RestoreHistory..C.3A.5C_ECU2.5CECU_Rivian_A1.5CTarget.5Crepo_projects.5CpRealEcu.5CcR_R2023.2E09.2E15.5Cmake.5Coutput.5Cobjects.5CWAlloc.
                        2800 	.align	2
                        2801 --_i	r28	local
                        2802 --_j	r26	local
                        2803 --_ucCt	r27	local
                        2804 
                        2805 	.data
                        2806 	.text
                        2807 	.align	2
                        2808 	.align	2
                        2809 ..gh.f.f.1.e.42:
                        2810 	.type	..gh.f.f.1.e.42,@object
                        2811 	.size	..gh.f.f.1.e.42,0
                        2812 	.global	_ucLearnID
                        2813 _ucLearnID:
00000976 8007e110       2814 	prepare	{r27,r28,r29,r31},0
0000097a 3d0600000000*  2815 	mov	_ucWAState-2,r29
                        2816 --	    .bf
                        2817 .LDW49:

                                                                      Page 50
                                                              C:\Users\nhuliyap\AppData\Local\Temp\gh_00002rs1.s
                        2818 --line849
                        2819 ..lin.C.3A.5C_ECU2.5CECU_Rivian_A1.5CTarget.5Crepo_projects.5CpRealEcu.5CcR_R2023.2E09.2E15.5Cmake.5Coutput.5Cobjects.5CWAlloc.186::
                        2820 .LDWlin186:
                        2821 	jarl	_ucGetZOState,lp
                        2821 <EXPANSION BEGIN>
                        2821 jarl22 _ucGetZOState , lp 
00000980 bfffe0f6*      2821 <EXPANSION END>
00000984 6152           2822 	cmp	1,r10
00000986 c24d*          2823 	be	.L11651
                        2824 --line852
                        2825 ..lin.C.3A.5C_ECU2.5CECU_Rivian_A1.5CTarget.5Crepo_projects.5CpRealEcu.5CcR_R2023.2E09.2E15.5Cmake.5Coutput.5Cobjects.5CWAlloc.187::
                        2826 .LDWlin187:
00000988 3c0600000000*  2827 	mov	_tWAPar,r28
0000098e 9c970100       2828 	ld.bu	0[r28],r18
00000992 d2060100       2829 	andi	1,r18,zero
00000996 c205*          2830 	be	.L11652
                        2831 --line853
                        2832 ..lin.C.3A.5C_ECU2.5CECU_Rivian_A1.5CTarget.5Crepo_projects.5CpRealEcu.5CcR_R2023.2E09.2E15.5Cmake.5Coutput.5Cobjects.5CWAlloc.188::
                        2833 .LDWlin188:
                        2834 	jarl	_RestoreHistory,lp
                        2834 <EXPANSION BEGIN>
                        2834 jarl22 _RestoreHistory , lp 
00000998 bfff32ff*      2834 <EXPANSION END>
0000099c 9545*          2835 	br	.L11651
                        2836 .L11652:
                        2837 --line856
                        2838 ..lin.C.3A.5C_ECU2.5CECU_Rivian_A1.5CTarget.5Crepo_projects.5CpRealEcu.5CcR_R2023.2E09.2E15.5Cmake.5Coutput.5Cobjects.5CWAlloc.189::
                        2839 .LDWlin189:
0000099e 8292           2840 	shr	2,r18
000009a0 f13d*          2841 	bl	.L11651
                        2842 --line857
                        2843 ..lin.C.3A.5C_ECU2.5CECU_Rivian_A1.5CTarget.5Crepo_projects.5CpRealEcu.5CcR_R2023.2E09.2E15.5Cmake.5Coutput.5Cobjects.5CWAlloc.190::
                        2844 .LDWlin190:
000009a2 1c38           2845 	mov	r28,r7
                        2846 	jarl	_ucActualize,lp
                        2846 <EXPANSION BEGIN>
                        2846 jarl22 _ucActualize , lp 
000009a4 bfff6afd*      2846 <EXPANSION END>
000009a8 0ad8           2847 	mov	r10,r27
                        2848 --line860
                        2849 ..lin.C.3A.5C_ECU2.5CECU_Rivian_A1.5CTarget.5Crepo_projects.5CpRealEcu.5CcR_R2023.2E09.2E15.5Cmake.5Coutput.5Cobjects.5CWAlloc.191::
                        2850 .LDWlin191:
000009aa 6852           2851 	cmp	8,r10
000009ac 993d*          2852 	bnl	.L11651
                        2853 --line861
                        2854 ..lin.C.3A.5C_ECU2.5CECU_Rivian_A1.5CTarget.5Crepo_projects.5CpRealEcu.5CcR_R2023.2E09.2E15.5Cmake.5Coutput.5Cobjects.5CWAlloc.192::
                        2855 .LDWlin192:
                        2856 	jarl	_ucGetWActiveState,lp
                        2856 <EXPANSION BEGIN>
                        2856 jarl22 _ucGetWActiveState , lp 
000009ae bfff68f6*      2856 <EXPANSION END>
000009b2 e051           2857 	cmp	zero,r10
000009b4 ca0d*          2858 	bne	.L11659
                        2859 --line862
                        2860 ..lin.C.3A.5C_ECU2.5CECU_Rivian_A1.5CTarget.5Crepo_projects.5CpRealEcu.5CcR_R2023.2E09.2E15.5Cmake.5Coutput.5Cobjects.5CWAlloc.193::
                        2861 .LDWlin193:
                        2862 	jarl	_ucStartWA,lp
                        2862 <EXPANSION BEGIN>
                        2862 jarl22 _ucStartWA , lp 
000009b6 bfff18f9*      2862 <EXPANSION END>
000009ba 6152           2863 	cmp	1,r10

                                                                      Page 51
                                                              C:\Users\nhuliyap\AppData\Local\Temp\gh_00002rs1.s
000009bc 8a0d*          2864 	bne	.L11659
                        2865 --line863
                        2866 ..lin.C.3A.5C_ECU2.5CECU_Rivian_A1.5CTarget.5Crepo_projects.5CpRealEcu.5CcR_R2023.2E09.2E15.5Cmake.5Coutput.5Cobjects.5CWAlloc.194::
                        2867 .LDWlin194:
000009be 0a30           2868 	mov	r10,r6
                        2869 	jarl	_SetWActiveState,lp
                        2869 <EXPANSION BEGIN>
                        2869 jarl22 _SetWActiveState , lp 
000009c0 bfff40f6*      2869 <EXPANSION END>
                        2870 --line865
                        2871 ..lin.C.3A.5C_ECU2.5CECU_Rivian_A1.5CTarget.5Crepo_projects.5CpRealEcu.5CcR_R2023.2E09.2E15.5Cmake.5Coutput.5Cobjects.5CWAlloc.195::
                        2872 .LDWlin195:
000009c4 9c370b00       2873 	ld.bu	10[r28],r6
                        2874 	jarl	_StartWATO,lp
                        2874 <EXPANSION BEGIN>
                        2874 jarl22 _StartWATO , lp 
000009c8 80ff0000*      2874 <EXPANSION END>
                        2875 .L11659:
                        2876 --line869
                        2877 ..lin.C.3A.5C_ECU2.5CECU_Rivian_A1.5CTarget.5Crepo_projects.5CpRealEcu.5CcR_R2023.2E09.2E15.5Cmake.5Coutput.5Cobjects.5CWAlloc.196::
                        2878 .LDWlin196:
                        2879 	jarl	_ucGetERState,lp
                        2879 <EXPANSION BEGIN>
                        2879 jarl22 _ucGetERState , lp 
000009cc bfff6ef6*      2879 <EXPANSION END>
000009d0 e051           2880 	cmp	zero,r10
000009d2 fa15*          2881 	bne	.L11663
                        2882 --line870
                        2883 ..lin.C.3A.5C_ECU2.5CECU_Rivian_A1.5CTarget.5Crepo_projects.5CpRealEcu.5CcR_R2023.2E09.2E15.5Cmake.5Coutput.5Cobjects.5CWAlloc.197::
                        2884 .LDWlin197:
000009d4 1b30           2885 	mov	r27,r6
                        2886 	jarl	_ushCheckERState,lp
                        2886 <EXPANSION BEGIN>
                        2886 jarl22 _ushCheckERState , lp 
000009d6 bfff88fb*      2886 <EXPANSION END>
                        2887 --line872
                        2888 ..lin.C.3A.5C_ECU2.5CECU_Rivian_A1.5CTarget.5Crepo_projects.5CpRealEcu.5CcR_R2023.2E09.2E15.5Cmake.5Coutput.5Cobjects.5CWAlloc.198::
                        2889 .LDWlin198:
000009da e051           2890 	cmp	zero,r10
000009dc 9225*          2891 	be	.L11651
                        2892 --line873
                        2893 ..lin.C.3A.5C_ECU2.5CECU_Rivian_A1.5CTarget.5Crepo_projects.5CpRealEcu.5CcR_R2023.2E09.2E15.5Cmake.5Coutput.5Cobjects.5CWAlloc.199::
                        2894 .LDWlin199:
000009de 0132           2895 	mov	1,r6
                        2896 	jarl	_SetERState,lp
                        2896 <EXPANSION BEGIN>
                        2896 jarl22 _SetERState , lp 
000009e0 bfff44f6*      2896 <EXPANSION END>
                        2897 --line875
                        2898 ..lin.C.3A.5C_ECU2.5CECU_Rivian_A1.5CTarget.5Crepo_projects.5CpRealEcu.5CcR_R2023.2E09.2E15.5Cmake.5Coutput.5Cobjects.5CWAlloc.200::
                        2899 .LDWlin200:
000009e4 0a30           2900 	mov	r10,r6
                        2901 	jarl	_AlignZOM,lp
                        2901 <EXPANSION BEGIN>
                        2901 jarl22 _AlignZOM , lp 
000009e6 bfff10f9*      2901 <EXPANSION END>
                        2902 --line877
                        2903 ..lin.C.3A.5C_ECU2.5CECU_Rivian_A1.5CTarget.5Crepo_projects.5CpRealEcu.5CcR_R2023.2E09.2E15.5Cmake.5Coutput.5Cobjects.5CWAlloc.201::
                        2904 .LDWlin201:
000009ea 0232           2905 	mov	2,r6
                        2906 	jarl	_ucSetHistory,lp

                                                                      Page 52
                                                              C:\Users\nhuliyap\AppData\Local\Temp\gh_00002rs1.s
                        2906 <EXPANSION BEGIN>
                        2906 jarl22 _ucSetHistory , lp 
000009ec bfffd6fd*      2906 <EXPANSION END>
000009f0 0a30           2907 	mov	r10,r6
                        2908 	jarl	_SetWAStateZOChange,lp
                        2908 <EXPANSION BEGIN>
                        2908 jarl22 _SetWAStateZOChange , lp 
000009f2 bfff7ef6*      2908 <EXPANSION END>
                        2909 --line880
                        2910 ..lin.C.3A.5C_ECU2.5CECU_Rivian_A1.5CTarget.5Crepo_projects.5CpRealEcu.5CcR_R2023.2E09.2E15.5Cmake.5Coutput.5Cobjects.5CWAlloc.202::
                        2911 .LDWlin202:
000009f6 9d370300       2912 	ld.bu	2[r29],r6
000009fa 043a           2913 	mov	4,r7
                        2914 	jarl	_ResetOldWarningsByNewEr,lp
                        2914 <EXPANSION BEGIN>
                        2914 jarl22 _ResetOldWarningsByNewEr , lp 
000009fc 80ff0000*      2914 <EXPANSION END>
                        2915 .L11663:
                        2916 --line894
                        2917 ..lin.C.3A.5C_ECU2.5CECU_Rivian_A1.5CTarget.5Crepo_projects.5CpRealEcu.5CcR_R2023.2E09.2E15.5Cmake.5Coutput.5Cobjects.5CWAlloc.203::
                        2918 .LDWlin203:
                        2919 	jarl	_ucCheckWheelPos,lp
                        2919 <EXPANSION BEGIN>
                        2919 jarl22 _ucCheckWheelPos , lp 
00000a00 bfffbcfb*      2919 <EXPANSION END>
00000a04 6152           2920 	cmp	1,r10
00000a06 ca0d*          2921 	bne	.L11651
                        2922 --line895
                        2923 ..lin.C.3A.5C_ECU2.5CECU_Rivian_A1.5CTarget.5Crepo_projects.5CpRealEcu.5CcR_R2023.2E09.2E15.5Cmake.5Coutput.5Cobjects.5CWAlloc.204::
                        2924 .LDWlin204:
                        2925 	jarl	_CancelWATO,lp
                        2925 <EXPANSION BEGIN>
                        2925 jarl22 _CancelWATO , lp 
00000a08 80ff0000*      2925 <EXPANSION END>
                        2926 --line896
                        2927 ..lin.C.3A.5C_ECU2.5CECU_Rivian_A1.5CTarget.5Crepo_projects.5CpRealEcu.5CcR_R2023.2E09.2E15.5Cmake.5Coutput.5Cobjects.5CWAlloc.205::
                        2928 .LDWlin205:
00000a0c 0432           2929 	mov	4,r6
                        2930 	jarl	_ucSetHistory,lp
                        2930 <EXPANSION BEGIN>
                        2930 jarl22 _ucSetHistory , lp 
00000a0e bfffb4fd*      2930 <EXPANSION END>
00000a12 0a30           2931 	mov	r10,r6
                        2932 	jarl	_SetWAStateZOChange,lp
                        2932 <EXPANSION BEGIN>
                        2932 jarl22 _SetWAStateZOChange , lp 
00000a14 bfff5cf6*      2932 <EXPANSION END>
                        2933 --line899
                        2934 ..lin.C.3A.5C_ECU2.5CECU_Rivian_A1.5CTarget.5Crepo_projects.5CpRealEcu.5CcR_R2023.2E09.2E15.5Cmake.5Coutput.5Cobjects.5CWAlloc.206::
                        2935 .LDWlin206:
00000a18 0132           2936 	mov	1,r6
                        2937 	jarl	_SetZOState,lp
                        2937 <EXPANSION BEGIN>
                        2937 jarl22 _SetZOState , lp 
00000a1a bfff30f6*      2937 <EXPANSION END>
                        2938 .L11651:
                        2939 --line909
                        2940 ..lin.C.3A.5C_ECU2.5CECU_Rivian_A1.5CTarget.5Crepo_projects.5CpRealEcu.5CcR_R2023.2E09.2E15.5Cmake.5Coutput.5Cobjects.5CWAlloc.207::
                        2941 .LDWlin207:
00000a1e 9d570300       2942 	ld.bu	2[r29],r10
                        2943 --	    .ef

                                                                      Page 53
                                                              C:\Users\nhuliyap\AppData\Local\Temp\gh_00002rs1.s
                        2944 .LDW59:
00000a22 4006ff10       2945 	dispose	0,{r27,r28,r29,r31},[lp]
                        2946 	.global	___ghs_eofn_ucLearnID
                        2947 ___ghs_eofn_ucLearnID:
                        2948 	.type	_ucLearnID,@function
                        2949 	.size	_ucLearnID,.-_ucLearnID
                        2950 	.align	2
                        2951 --_ushHelp	r28	local
                        2952 --_ucCurID	r27	local
                        2953 
                        2954 --_ptInputWA	r27	param
                        2955 
                        2956 	.data
                        2957 	.text
                        2958 	.align	2
                        2959 	.align	2
                        2960 ..gh.f.f.1.e.43:
                        2961 	.type	..gh.f.f.1.e.43,@object
                        2962 	.size	..gh.f.f.1.e.43,0
                        2963 	.global	_CheckForDetailed_ZO_Error
                        2964 _CheckForDetailed_ZO_Error:
00000a26 320600000000*  2965 	mov	_sm_ucWPConsistentErrCnt,r18
                        2966 --	    .bf
                        2967 .LDW69:
                        2968 --line1203
                        2969 ..lin.C.3A.5C_ECU2.5CECU_Rivian_A1.5CTarget.5Crepo_projects.5CpRealEcu.5CcR_R2023.2E09.2E15.5Cmake.5Coutput.5Cobjects.5CWAlloc.208::
                        2970 .LDWlin208:
00000a2c b24f0100       2971 	ld.bu	1[r18],r9
00000a30 0052           2972 	mov	0,r10
00000a32 e049           2973 	cmp	zero,r9
00000a34 fa05*          2974 	bne	.L11932
00000a36 929f0300       2975 	ld.bu	2[r18],r19
00000a3a e099           2976 	cmp	zero,r19
                        2977 --line1204
                        2978 ..lin.C.3A.5C_ECU2.5CECU_Rivian_A1.5CTarget.5Crepo_projects.5CpRealEcu.5CcR_R2023.2E09.2E15.5Cmake.5Coutput.5Cobjects.5CWAlloc.209::
                        2979 .LDWlin209:
00000a3c e2070453       2980 	cmove	2,zero,r10
00000a40 f20d*          2981 	be	.L11930
                        2982 .L11932:
                        2983 --line1206
                        2984 ..lin.C.3A.5C_ECU2.5CECU_Rivian_A1.5CTarget.5Crepo_projects.5CpRealEcu.5CcR_R2023.2E09.2E15.5Cmake.5Coutput.5Cobjects.5CWAlloc.210::
                        2985 .LDWlin210:
00000a42 12f0           2986 	mov	r18,ep
00000a44 6040           2987 	sld.bu	0[ep],r8
00000a46 6238           2988 	sld.bu	2[ep],r7
00000a48 e941           2989 	cmp	r9,r8
00000a4a d305*          2990 	bnh	.L11936
                        2991 --line1207
                        2992 ..lin.C.3A.5C_ECU2.5CECU_Rivian_A1.5CTarget.5Crepo_projects.5CpRealEcu.5CcR_R2023.2E09.2E15.5Cmake.5Coutput.5Cobjects.5CWAlloc.211::
                        2993 .LDWlin211:
00000a4c e741           2994 	cmp	r7,r8
00000a4e 8b0d*          2995 	bh	.L11930
                        2996 --line1218
                        2997 ..lin.C.3A.5C_ECU2.5CECU_Rivian_A1.5CTarget.5Crepo_projects.5CpRealEcu.5CcR_R2023.2E09.2E15.5Cmake.5Coutput.5Cobjects.5CWAlloc.212::
                        2998 .LDWlin212:
00000a50 0352           2999 	mov	3,r10
00000a52 7f00           3000 	jmp	[lp]
                        3001 .L11936:
                        3002 --line1214
                        3003 ..lin.C.3A.5C_ECU2.5CECU_Rivian_A1.5CTarget.5Crepo_projects.5CpRealEcu.5CcR_R2023.2E09.2E15.5Cmake.5Coutput.5Cobjects.5CWAlloc.213::
                        3004 .LDWlin213:

                                                                      Page 54
                                                              C:\Users\nhuliyap\AppData\Local\Temp\gh_00002rs1.s
00000a54 e749           3005 	cmp	r7,r9
00000a56 0452           3006 	mov	4,r10
00000a58 e3570653       3007 	cmovnh	3,r10,r10
00000a5c 7f00           3008 	jmp	[lp]
                        3009 .L11930:
                        3010 --	    .ef
                        3011 .LDW79:
                        3012 --line1221
                        3013 ..lin.C.3A.5C_ECU2.5CECU_Rivian_A1.5CTarget.5Crepo_projects.5CpRealEcu.5CcR_R2023.2E09.2E15.5Cmake.5Coutput.5Cobjects.5CWAlloc.214::
                        3014 .LDWlin214:
00000a5e 7f00           3015 	jmp	[lp]
                        3016 	.global	___ghs_eofn_CheckForDetailed_ZO_Error
                        3017 ___ghs_eofn_CheckForDetailed_ZO_Error:
                        3018 	.type	_CheckForDetailed_ZO_Error,@function
                        3019 	.size	_CheckForDetailed_ZO_Error,.-_CheckForDetailed_ZO_Error
                        3020 	.align	2
                        3021 --_l_ucRet	r10	local
                        3022 
                        3023 	.data
                        3024 	.text
                        3025 	.align	2
                        3026 	.align	2
                        3027 ..gh.f.f.1.e.44:
                        3028 	.type	..gh.f.f.1.e.44,@object
                        3029 	.size	..gh.f.f.1.e.44,0
                        3030 	.global	_ucWATO
                        3031 _ucWATO:
00000a60 8007e130       3032 	prepare	{r26,r27,r28,r29,r31},0
00000a64 3d0600000000*  3033 	mov	_ucNrOfTOs-3,r29
                        3034 --	    .bf
                        3035 .LDW89:
                        3036 --line915
                        3037 ..lin.C.3A.5C_ECU2.5CECU_Rivian_A1.5CTarget.5Crepo_projects.5CpRealEcu.5CcR_R2023.2E09.2E15.5Cmake.5Coutput.5Cobjects.5CWAlloc.215::
                        3038 .LDWlin215:
00000a6a 00da           3039 	mov	0,r27
                        3040 	jarl	_ucGetZOState,lp
                        3040 <EXPANSION BEGIN>
                        3040 jarl22 _ucGetZOState , lp 
00000a6c bffff4f5*      3040 <EXPANSION END>
00000a70 e051           3041 	cmp	zero,r10
00000a72 ea4d*          3042 	bne	.L12122
                        3043 --line917
                        3044 ..lin.C.3A.5C_ECU2.5CECU_Rivian_A1.5CTarget.5Crepo_projects.5CpRealEcu.5CcR_R2023.2E09.2E15.5Cmake.5Coutput.5Cobjects.5CWAlloc.216::
                        3045 .LDWlin216:
00000a74 3c0600000000*  3046 	mov	_tWAPar,r28
00000a7a bc3f0700       3047 	ld.bu	7[r28],r7
00000a7e 3d360400       3048 	movea	4,r29,r6
00000a82 0842           3049 	mov	8,r8
                        3050 	jarl	_ushIDSetInHist,lp
                        3050 <EXPANSION BEGIN>
                        3050 jarl22 _ushIDSetInHist , lp 
00000a84 bfff4cfb*      3050 <EXPANSION END>
00000a88 0ad0           3051 	mov	r10,r26
                        3052 --line921
                        3053 ..lin.C.3A.5C_ECU2.5CECU_Rivian_A1.5CTarget.5Crepo_projects.5CpRealEcu.5CcR_R2023.2E09.2E15.5Cmake.5Coutput.5Cobjects.5CWAlloc.217::
                        3054 .LDWlin217:
00000a8a 0a30           3055 	mov	r10,r6
                        3056 	jarl	_ucNrOfBitSet,lp
                        3056 <EXPANSION BEGIN>
                        3056 jarl22 _ucNrOfBitSet , lp 
00000a8c bfffb2fa*      3056 <EXPANSION END>

                                                                      Page 55
                                                              C:\Users\nhuliyap\AppData\Local\Temp\gh_00002rs1.s
00000a90 6452           3057 	cmp	4,r10
00000a92 da15*          3058 	bne	.L12124
                        3059 --line923
                        3060 ..lin.C.3A.5C_ECU2.5CECU_Rivian_A1.5CTarget.5Crepo_projects.5CpRealEcu.5CcR_R2023.2E09.2E15.5Cmake.5Coutput.5Cobjects.5CWAlloc.218::
                        3061 .LDWlin218:
                        3062 	jarl	_ucGetERState,lp
                        3062 <EXPANSION BEGIN>
                        3062 jarl22 _ucGetERState , lp 
00000a94 bfffa6f5*      3062 <EXPANSION END>
00000a98 e051           3063 	cmp	zero,r10
00000a9a fa05*          3064 	bne	.L12126
                        3065 --line924
                        3066 ..lin.C.3A.5C_ECU2.5CECU_Rivian_A1.5CTarget.5Crepo_projects.5CpRealEcu.5CcR_R2023.2E09.2E15.5Cmake.5Coutput.5Cobjects.5CWAlloc.219::
                        3067 .LDWlin219:
00000a9c 1a30           3068 	mov	r26,r6
                        3069 	jarl	_AlignZOM,lp
                        3069 <EXPANSION BEGIN>
                        3069 jarl22 _AlignZOM , lp 
00000a9e bfff58f8*      3069 <EXPANSION END>
                        3070 --line926
                        3071 ..lin.C.3A.5C_ECU2.5CECU_Rivian_A1.5CTarget.5Crepo_projects.5CpRealEcu.5CcR_R2023.2E09.2E15.5Cmake.5Coutput.5Cobjects.5CWAlloc.220::
                        3072 .LDWlin220:
00000aa2 0132           3073 	mov	1,r6
                        3074 	jarl	_SetERState,lp
                        3074 <EXPANSION BEGIN>
                        3074 jarl22 _SetERState , lp 
00000aa4 bfff80f5*      3074 <EXPANSION END>
                        3075 .L12126:
                        3076 --line929
                        3077 ..lin.C.3A.5C_ECU2.5CECU_Rivian_A1.5CTarget.5Crepo_projects.5CpRealEcu.5CcR_R2023.2E09.2E15.5Cmake.5Coutput.5Cobjects.5CWAlloc.221::
                        3078 .LDWlin221:
00000aa8 bc8f0b00       3079 	ld.bu	11[r28],r17
00000aac bd470300       3080 	ld.bu	3[r29],r8
00000ab0 114effff       3081 	addi	-1,r17,r9
00000ab4 e941           3082 	cmp	r9,r8
00000ab6 b605*          3083 	blt	.L12124
                        3084 --line930
                        3085 ..lin.C.3A.5C_ECU2.5CECU_Rivian_A1.5CTarget.5Crepo_projects.5CpRealEcu.5CcR_R2023.2E09.2E15.5Cmake.5Coutput.5Cobjects.5CWAlloc.222::
                        3086 .LDWlin222:
                        3087 	jarl	_RestoreHistory,lp
                        3087 <EXPANSION BEGIN>
                        3087 jarl22 _RestoreHistory , lp 
00000ab8 bfff12fe*      3087 <EXPANSION END>
                        3088 .L12124:
                        3089 --line933
                        3090 ..lin.C.3A.5C_ECU2.5CECU_Rivian_A1.5CTarget.5Crepo_projects.5CpRealEcu.5CcR_R2023.2E09.2E15.5Cmake.5Coutput.5Cobjects.5CWAlloc.223::
                        3091 .LDWlin223:
                        3092 	jarl	_ucGetZOState,lp
                        3092 <EXPANSION BEGIN>
                        3092 jarl22 _ucGetZOState , lp 
00000abc bfffa4f5*      3092 <EXPANSION END>
00000ac0 e051           3093 	cmp	zero,r10
00000ac2 820d*          3094 	be	.L12130
                        3095 --line934
                        3096 ..lin.C.3A.5C_ECU2.5CECU_Rivian_A1.5CTarget.5Crepo_projects.5CpRealEcu.5CcR_R2023.2E09.2E15.5Cmake.5Coutput.5Cobjects.5CWAlloc.224::
                        3097 .LDWlin224:
                        3098 	jarl	_CancelWATO,lp
                        3098 <EXPANSION BEGIN>
                        3098 jarl22 _CancelWATO , lp 
00000ac4 80ff0000*      3098 <EXPANSION END>
                        3099 --line935

                                                                      Page 56
                                                              C:\Users\nhuliyap\AppData\Local\Temp\gh_00002rs1.s
                        3100 ..lin.C.3A.5C_ECU2.5CECU_Rivian_A1.5CTarget.5Crepo_projects.5CpRealEcu.5CcR_R2023.2E09.2E15.5Cmake.5Coutput.5Cobjects.5CWAlloc.225::
                        3101 .LDWlin225:
00000ac8 20368000       3102 	movea	128,zero,r6
                        3103 	jarl	_SaveDebugAllocType,lp
                        3103 <EXPANSION BEGIN>
                        3103 jarl22 _SaveDebugAllocType , lp 
00000acc 80ff0000*      3103 <EXPANSION END>
00000ad0 9525*          3104 	br	.L12145
                        3105 .L12130:
                        3106 --line939
                        3107 ..lin.C.3A.5C_ECU2.5CECU_Rivian_A1.5CTarget.5Crepo_projects.5CpRealEcu.5CcR_R2023.2E09.2E15.5Cmake.5Coutput.5Cobjects.5CWAlloc.226::
                        3108 .LDWlin226:
00000ad2 bc870b00       3109 	ld.bu	11[r28],r16
00000ad6 bd470300       3110 	ld.bu	3[r29],r8
00000ada 104effff       3111 	addi	-1,r16,r9
00000ade e941           3112 	cmp	r9,r8
00000ae0 a615*          3113 	blt	.L12133
                        3114 --line940
                        3115 ..lin.C.3A.5C_ECU2.5CECU_Rivian_A1.5CTarget.5Crepo_projects.5CpRealEcu.5CcR_R2023.2E09.2E15.5Cmake.5Coutput.5Cobjects.5CWAlloc.227::
                        3116 .LDWlin227:
                        3117 	jarl	_ucGetERState,lp
                        3117 <EXPANSION BEGIN>
                        3117 jarl22 _ucGetERState , lp 
00000ae2 bfff58f5*      3117 <EXPANSION END>
00000ae6 e051           3118 	cmp	zero,r10
00000ae8 aa0d*          3119 	bne	.L12135
                        3120 --line941
                        3121 ..lin.C.3A.5C_ECU2.5CECU_Rivian_A1.5CTarget.5Crepo_projects.5CpRealEcu.5CcR_R2023.2E09.2E15.5Cmake.5Coutput.5Cobjects.5CWAlloc.228::
                        3122 .LDWlin228:
                        3123 	jarl	_ucGetFreeZOMPos,lp
                        3123 <EXPANSION BEGIN>
                        3123 jarl22 _ucGetFreeZOMPos , lp 
00000aea bfffc8f7*      3123 <EXPANSION END>
00000aee 094a           3124 	mov	9,r9
00000af0 6452           3125 	cmp	4,r10
00000af2 e14f1243       3126 	cmovnl	1,r9,r8
00000af6 e54716db       3127 	cmovh	5,r8,r27
00000afa c50d*          3128 	br	.L12145
                        3129 .L12135:
                        3130 --line954
                        3131 ..lin.C.3A.5C_ECU2.5CECU_Rivian_A1.5CTarget.5Crepo_projects.5CpRealEcu.5CcR_R2023.2E09.2E15.5Cmake.5Coutput.5Cobjects.5CWAlloc.229::
                        3132 .LDWlin229:
                        3133 	jarl	_CheckForDetailed_ZO_Error,lp
                        3133 <EXPANSION BEGIN>
                        3133 jarl22 _CheckForDetailed_ZO_Error , lp 
00000afc bfff2aff*      3133 <EXPANSION END>
00000b00 0ad8           3134 	mov	r10,r27
00000b02 850d*          3135 	br	.L12145
                        3136 .L12133:
                        3137 --line958
                        3138 ..lin.C.3A.5C_ECU2.5CECU_Rivian_A1.5CTarget.5Crepo_projects.5CpRealEcu.5CcR_R2023.2E09.2E15.5Cmake.5Coutput.5Cobjects.5CWAlloc.230::
                        3139 .LDWlin230:
00000b04 9c370b00       3140 	ld.bu	10[r28],r6
                        3141 	jarl	_StartWATO,lp
                        3141 <EXPANSION BEGIN>
                        3141 jarl22 _StartWATO , lp 
00000b08 80ff0000*      3141 <EXPANSION END>
00000b0c b505*          3142 	br	.L12145
                        3143 .L12122:
                        3144 --line964
                        3145 ..lin.C.3A.5C_ECU2.5CECU_Rivian_A1.5CTarget.5Crepo_projects.5CpRealEcu.5CcR_R2023.2E09.2E15.5Cmake.5Coutput.5Cobjects.5CWAlloc.231::

                                                                      Page 57
                                                              C:\Users\nhuliyap\AppData\Local\Temp\gh_00002rs1.s
                        3146 .LDWlin231:
                        3147 	jarl	_CancelWATO,lp
                        3147 <EXPANSION BEGIN>
                        3147 jarl22 _CancelWATO , lp 
00000b0e 80ff0000*      3147 <EXPANSION END>
                        3148 .L12145:
                        3149 --line966
                        3150 ..lin.C.3A.5C_ECU2.5CECU_Rivian_A1.5CTarget.5Crepo_projects.5CpRealEcu.5CcR_R2023.2E09.2E15.5Cmake.5Coutput.5Cobjects.5CWAlloc.232::
                        3151 .LDWlin232:
00000b12 bd970300       3152 	ld.bu	3[r29],r18
00000b16 120601ff       3153 	addi	-255,r18,zero
00000b1a d105*          3154 	bl	.L12146
                        3155 --line967
                        3156 ..lin.C.3A.5C_ECU2.5CECU_Rivian_A1.5CTarget.5Crepo_projects.5CpRealEcu.5CcR_R2023.2E09.2E15.5Cmake.5Coutput.5Cobjects.5CWAlloc.233::
                        3157 .LDWlin233:
00000b1c 123e0100       3158 	addi	1,r18,r7
00000b20 5d3f0300       3159 	st.b	r7,3[r29]
                        3160 .L12146:
00000b24 1b50           3161 	mov	r27,r10
                        3162 --	    .ef
                        3163 .LDW99:
00000b26 4006ff30       3164 	dispose	0,{r26,r27,r28,r29,r31},[lp]
                        3165 	.global	___ghs_eofn_ucWATO
                        3166 ___ghs_eofn_ucWATO:
                        3167 	.type	_ucWATO,@function
                        3168 	.size	_ucWATO,.-_ucWATO
                        3169 	.align	2
                        3170 --_ushHelp	r26	local
                        3171 --_ucRet	r27	local
                        3172 
                        3173 	.data
                        3174 	.text
                        3175 	.align	2
                        3176 	.align	2
                        3177 ..gh.f.f.1.e.45:
                        3178 	.type	..gh.f.f.1.e.45,@object
                        3179 	.size	..gh.f.f.1.e.45,0
                        3180 	.global	_ResetHistoryToDefault
                        3181 _ResetHistoryToDefault:
00000b2a 80076100       3182 	prepare	{r29,r31},0
00000b2e 320600000000*  3183 	mov	_aucHistoryWP,r18
                        3184 --	    .bf
                        3185 .LDW001:
                        3186 --line1289
                        3187 ..lin.C.3A.5C_ECU2.5CECU_Rivian_A1.5CTarget.5Crepo_projects.5CpRealEcu.5CcR_R2023.2E09.2E15.5Cmake.5Coutput.5Cobjects.5CWAlloc.234::
                        3188 .LDWlin234:
00000b34 008a           3189 	mov	0,r17
                        3190 .L12484:
00000b36 11f0           3191 	mov	r17,ep
00000b38 c2f2           3192 	shl	2,ep
00000b3a d2f1           3193 	add	r18,ep
00000b3c 1f32           3194 	mov	-1,r6
00000b3e 0535           3195 	sst.w	r6,8[ep]
00000b40 11f0           3196 	mov	r17,ep
00000b42 d2f1           3197 	add	r18,ep
00000b44 109a           3198 	mov	-16,r19
00000b46 418a           3199 	add	1,r17
00000b48 323e0800       3200 	movea	8,r18,r7
00000b4c 12e8           3201 	mov	r18,r29
00000b4e 809b           3202 	sst.b	r19,0[ep]
00000b50 648a           3203 	cmp	4,r17

                                                                      Page 58
                                                              C:\Users\nhuliyap\AppData\Local\Temp\gh_00002rs1.s
00000b52 a1f5*          3204 	bl	.L12484
                        3205 --line1293
                        3206 ..lin.C.3A.5C_ECU2.5CECU_Rivian_A1.5CTarget.5Crepo_projects.5CpRealEcu.5CcR_R2023.2E09.2E15.5Cmake.5Coutput.5Cobjects.5CWAlloc.235::
                        3207 .LDWlin235:
00000b54 0132           3208 	mov	1,r6
                        3209 	jarl	_PutWADataEE,lp
                        3209 <EXPANSION BEGIN>
                        3209 jarl22 _PutWADataEE , lp 
00000b56 80ff0000*      3209 <EXPANSION END>
                        3210 --line1296
                        3211 ..lin.C.3A.5C_ECU2.5CECU_Rivian_A1.5CTarget.5Crepo_projects.5CpRealEcu.5CcR_R2023.2E09.2E15.5Cmake.5Coutput.5Cobjects.5CWAlloc.236::
                        3212 .LDWlin236:
00000b5a 1d38           3213 	mov	r29,r7
00000b5c 0232           3214 	mov	2,r6
                        3215 	jarl	_PutWADataEE,lp
                        3215 <EXPANSION BEGIN>
                        3215 jarl22 _PutWADataEE , lp 
00000b5e 80ff0000*      3215 <EXPANSION END>
                        3216 --	    .ef
                        3217 .LDW101:
                        3218 --line1299
                        3219 ..lin.C.3A.5C_ECU2.5CECU_Rivian_A1.5CTarget.5Crepo_projects.5CpRealEcu.5CcR_R2023.2E09.2E15.5Cmake.5Coutput.5Cobjects.5CWAlloc.237::
                        3220 .LDWlin237:
00000b62 40067f00       3221 	dispose	0,{r29,r31},[lp]
                        3222 	.global	___ghs_eofn_ResetHistoryToDefault
                        3223 ___ghs_eofn_ResetHistoryToDefault:
                        3224 	.type	_ResetHistoryToDefault,@function
                        3225 	.size	_ResetHistoryToDefault,.-_ResetHistoryToDefault
                        3226 	.align	2
                        3227 --_LocalLoopCnt	r17	local
                        3228 
                        3229 	.data
                        3230 	.text
                        3231 	.align	2
                        3232 	.align	2
                        3233 ..gh.f.f.1.e.46:
                        3234 	.type	..gh.f.f.1.e.46,@object
                        3235 	.size	..gh.f.f.1.e.46,0
                        3236 	.global	_ResetAllocErrorCnt
                        3237 _ResetAllocErrorCnt:
00000b66 3e0600000000*  3238 	mov	_sm_ucWPConsistentErrCnt,ep
                        3239 --	    .bf
                        3240 .LDW201:
                        3241 --line1422
                        3242 ..lin.C.3A.5C_ECU2.5CECU_Rivian_A1.5CTarget.5Crepo_projects.5CpRealEcu.5CcR_R2023.2E09.2E15.5Cmake.5Coutput.5Cobjects.5CWAlloc.238::
                        3243 .LDWlin238:
00000b6c 8003           3244 	sst.b	zero,0[ep]
00000b6e 8103           3245 	sst.b	zero,1[ep]
00000b70 8203           3246 	sst.b	zero,2[ep]
                        3247 --	    .ef
                        3248 .LDW301:
00000b72 7f00           3249 	jmp	[lp]
                        3250 	.global	___ghs_eofn_ResetAllocErrorCnt
                        3251 ___ghs_eofn_ResetAllocErrorCnt:
                        3252 	.type	_ResetAllocErrorCnt,@function
                        3253 	.size	_ResetAllocErrorCnt,.-_ResetAllocErrorCnt
                        3254 	.align	2
                        3255 
                        3256 	.data
                        3257 	.text
                        3258 	.align	2

                                                                      Page 59
                                                              C:\Users\nhuliyap\AppData\Local\Temp\gh_00002rs1.s
                        3259 	.align	2
                        3260 ..gh.f.f.1.e.47:
                        3261 	.type	..gh.f.f.1.e.47,@object
                        3262 	.size	..gh.f.f.1.e.47,0
                        3263 	.global	_WAInit
                        3264 _WAInit:
00000b74 8007e140       3265 	prepare	{r25,r28,r29,r31},0
00000b78 3d0600000000*  3266 	mov	_aucHistoryWP,r29
                        3267 --	    .bf
                        3268 .LDW401:
                        3269 --line1092
                        3270 ..lin.C.3A.5C_ECU2.5CECU_Rivian_A1.5CTarget.5Crepo_projects.5CpRealEcu.5CcR_R2023.2E09.2E15.5Cmake.5Coutput.5Cobjects.5CWAlloc.239::
                        3271 .LDWlin239:
00000b7e 0032           3272 	mov	0,r6
                        3273 	jarl	_SetZOState,lp
                        3273 <EXPANSION BEGIN>
                        3273 jarl22 _SetZOState , lp 
00000b80 bfffcaf4*      3273 <EXPANSION END>
                        3274 --line1094
                        3275 ..lin.C.3A.5C_ECU2.5CECU_Rivian_A1.5CTarget.5Crepo_projects.5CpRealEcu.5CcR_R2023.2E09.2E15.5Cmake.5Coutput.5Cobjects.5CWAlloc.240::
                        3276 .LDWlin240:
00000b84 0032           3277 	mov	0,r6
                        3278 	jarl	_SetERState,lp
                        3278 <EXPANSION BEGIN>
                        3278 jarl22 _SetERState , lp 
00000b86 bfff9ef4*      3278 <EXPANSION END>
                        3279 --line1096
                        3280 ..lin.C.3A.5C_ECU2.5CECU_Rivian_A1.5CTarget.5Crepo_projects.5CpRealEcu.5CcR_R2023.2E09.2E15.5Cmake.5Coutput.5Cobjects.5CWAlloc.241::
                        3281 .LDWlin241:
00000b8a 0032           3282 	mov	0,r6
                        3283 	jarl	_SetWActiveState,lp
                        3283 <EXPANSION BEGIN>
                        3283 jarl22 _SetWActiveState , lp 
00000b8c bfff74f4*      3283 <EXPANSION END>
                        3284 --line1098
                        3285 ..lin.C.3A.5C_ECU2.5CECU_Rivian_A1.5CTarget.5Crepo_projects.5CpRealEcu.5CcR_R2023.2E09.2E15.5Cmake.5Coutput.5Cobjects.5CWAlloc.242::
                        3286 .LDWlin242:
00000b90 0032           3287 	mov	0,r6
                        3288 	jarl	_SetWAStateZOChange,lp
                        3288 <EXPANSION BEGIN>
                        3288 jarl22 _SetWAStateZOChange , lp 
00000b92 bfffdef4*      3288 <EXPANSION END>
                        3289 --line1100
                        3290 ..lin.C.3A.5C_ECU2.5CECU_Rivian_A1.5CTarget.5Crepo_projects.5CpRealEcu.5CcR_R2023.2E09.2E15.5Cmake.5Coutput.5Cobjects.5CWAlloc.243::
                        3291 .LDWlin243:
                        3292 	jarl	_CancelWATO,lp
                        3292 <EXPANSION BEGIN>
                        3292 jarl22 _CancelWATO , lp 
00000b96 80ff0000*      3292 <EXPANSION END>
                        3293 --line1101
                        3294 ..lin.C.3A.5C_ECU2.5CECU_Rivian_A1.5CTarget.5Crepo_projects.5CpRealEcu.5CcR_R2023.2E09.2E15.5Cmake.5Coutput.5Cobjects.5CWAlloc.244::
                        3295 .LDWlin244:
00000b9a 0832           3296 	mov	8,r6
                        3297 	jarl	_ClearZOM,lp
                        3297 <EXPANSION BEGIN>
                        3297 jarl22 _ClearZOM , lp 
00000b9c bfffe6f4*      3297 <EXPANSION END>
                        3298 --line1103
                        3299 ..lin.C.3A.5C_ECU2.5CECU_Rivian_A1.5CTarget.5Crepo_projects.5CpRealEcu.5CcR_R2023.2E09.2E15.5Cmake.5Coutput.5Cobjects.5CWAlloc.245::
                        3300 .LDWlin245:
                        3301 	jarl	_ResetAllocType,lp

                                                                      Page 60
                                                              C:\Users\nhuliyap\AppData\Local\Temp\gh_00002rs1.s
                        3301 <EXPANSION BEGIN>
                        3301 jarl22 _ResetAllocType , lp 
00000ba0 80ff0000*      3301 <EXPANSION END>
                        3302 --line1104
                        3303 ..lin.C.3A.5C_ECU2.5CECU_Rivian_A1.5CTarget.5Crepo_projects.5CpRealEcu.5CcR_R2023.2E09.2E15.5Cmake.5Coutput.5Cobjects.5CWAlloc.246::
                        3304 .LDWlin246:
                        3305 	jarl	_ResetAllocErrorCnt,lp
                        3305 <EXPANSION BEGIN>
                        3305 jarl22 _ResetAllocErrorCnt , lp 
00000ba4 bfffc2ff*      3305 <EXPANSION END>
                        3306 --line1105
                        3307 ..lin.C.3A.5C_ECU2.5CECU_Rivian_A1.5CTarget.5Crepo_projects.5CpRealEcu.5CcR_R2023.2E09.2E15.5Cmake.5Coutput.5Cobjects.5CWAlloc.247::
                        3308 .LDWlin247:
00000ba8 270600000000*  3309 	mov	_tABSTicksOneRevol,r7
00000bae 0432           3310 	mov	4,r6
                        3311 	jarl	_GetWADataEE,lp
                        3311 <EXPANSION BEGIN>
                        3311 jarl22 _GetWADataEE , lp 
00000bb0 80ff0000*      3311 <EXPANSION END>
                        3312 --line1108
                        3313 ..lin.C.3A.5C_ECU2.5CECU_Rivian_A1.5CTarget.5Crepo_projects.5CpRealEcu.5CcR_R2023.2E09.2E15.5Cmake.5Coutput.5Cobjects.5CWAlloc.248::
                        3314 .LDWlin248:
00000bb4 3c0600000000*  3315 	mov	_tWAPar,r28
00000bba 1c38           3316 	mov	r28,r7
00000bbc 0332           3317 	mov	3,r6
                        3318 	jarl	_GetWADataEE,lp
                        3318 <EXPANSION BEGIN>
                        3318 jarl22 _GetWADataEE , lp 
00000bbe 80ff0000*      3318 <EXPANSION END>
                        3319 --line1111
                        3320 ..lin.C.3A.5C_ECU2.5CECU_Rivian_A1.5CTarget.5Crepo_projects.5CpRealEcu.5CcR_R2023.2E09.2E15.5Cmake.5Coutput.5Cobjects.5CWAlloc.249::
                        3321 .LDWlin249:
00000bc2 bc970500       3322 	ld.bu	5[r28],r18
00000bc6 3dce0800       3323 	movea	8,r29,r25
00000bca 1206abff       3324 	addi	-85,r18,zero
00000bce 824d*          3325 	be	.L12596
00000bd0 120656ff       3326 	addi	-170,r18,zero
00000bd4 d245*          3327 	be	.L12596
00000bd6 120601ff       3328 	addi	-255,r18,zero
00000bda a245*          3329 	be	.L12596
                        3330 --line1112
                        3331 ..lin.C.3A.5C_ECU2.5CECU_Rivian_A1.5CTarget.5Crepo_projects.5CpRealEcu.5CcR_R2023.2E09.2E15.5Cmake.5Coutput.5Cobjects.5CWAlloc.250::
                        3332 .LDWlin250:
00000bdc 1c30           3333 	mov	r28,r6
00000bde 270600000000*  3334 	mov	.L12721,r7
00000be4 0942           3335 	mov	9,r8
                        3336 	jarl	_memcpy,lp
                        3336 <EXPANSION BEGIN>
                        3336 jarl22 _memcpy , lp 
00000be6 80ff0000*      3336 <EXPANSION END>
                        3337 --line1121
                        3338 ..lin.C.3A.5C_ECU2.5CECU_Rivian_A1.5CTarget.5Crepo_projects.5CpRealEcu.5CcR_R2023.2E09.2E15.5Cmake.5Coutput.5Cobjects.5CWAlloc.251::
                        3339 .LDWlin251:
00000bea 20661c00       3340 	movea	28,zero,r12
00000bee 1cf0           3341 	mov	r28,ep
00000bf0 207e3c00       3342 	movea	60,zero,r15
00000bf4 095a           3343 	mov	9,r11
00000bf6 0352           3344 	mov	3,r10
00000bf8 0f72           3345 	mov	15,r14
00000bfa 0582           3346 	mov	5,r16
00000bfc 0a6a           3347 	mov	10,r13

                                                                      Page 61
                                                              C:\Users\nhuliyap\AppData\Local\Temp\gh_00002rs1.s
00000bfe 204e1e00       3348 	movea	30,zero,r9
00000c02 20463700       3349 	movea	55,zero,r8
00000c06 013a           3350 	mov	1,r7
00000c08 0c32           3351 	mov	12,r6
00000c0a 8963           3352 	sst.b	r12,9[ep]
00000c0c 8a7b           3353 	sst.b	r15,10[ep]
00000c0e 8b5b           3354 	sst.b	r11,11[ep]
00000c10 8d53           3355 	sst.b	r10,13[ep]
00000c12 8e73           3356 	sst.b	r14,14[ep]
00000c14 8c83           3357 	sst.b	r16,12[ep]
00000c16 8f83           3358 	sst.b	r16,15[ep]
00000c18 9083           3359 	sst.b	r16,16[ep]
00000c1a 916b           3360 	sst.b	r13,17[ep]
00000c1c 9273           3361 	sst.b	r14,18[ep]
00000c1e 936b           3362 	sst.b	r13,19[ep]
00000c20 944b           3363 	sst.b	r9,20[ep]
00000c22 9543           3364 	sst.b	r8,21[ep]
00000c24 967b           3365 	sst.b	r15,22[ep]
00000c26 973b           3366 	sst.b	r7,23[ep]
00000c28 9833           3367 	sst.b	r6,24[ep]
00000c2a 008a           3368 	mov	0,r17
                        3369 .L12602:
00000c2c 11f0           3370 	mov	r17,ep
00000c2e c2f2           3371 	shl	2,ep
00000c30 d9f1           3372 	add	r25,ep
00000c32 1f9a           3373 	mov	-1,r19
00000c34 019d           3374 	sst.w	r19,0[ep]
00000c36 11f0           3375 	mov	r17,ep
00000c38 ddf1           3376 	add	r29,ep
00000c3a 1092           3377 	mov	-16,r18
00000c3c 418a           3378 	add	1,r17
00000c3e 8093           3379 	sst.b	r18,0[ep]
00000c40 648a           3380 	cmp	4,r17
00000c42 d1f5*          3381 	bl	.L12602
                        3382 --line1141
                        3383 ..lin.C.3A.5C_ECU2.5CECU_Rivian_A1.5CTarget.5Crepo_projects.5CpRealEcu.5CcR_R2023.2E09.2E15.5Cmake.5Coutput.5Cobjects.5CWAlloc.252::
                        3384 .LDWlin252:
00000c44 1c38           3385 	mov	r28,r7
00000c46 0a30           3386 	mov	r10,r6
                        3387 	jarl	_PutWADataEE,lp
                        3387 <EXPANSION BEGIN>
                        3387 jarl22 _PutWADataEE , lp 
00000c48 80ff0000*      3387 <EXPANSION END>
                        3388 --line1144
                        3389 ..lin.C.3A.5C_ECU2.5CECU_Rivian_A1.5CTarget.5Crepo_projects.5CpRealEcu.5CcR_R2023.2E09.2E15.5Cmake.5Coutput.5Cobjects.5CWAlloc.253::
                        3390 .LDWlin253:
00000c4c 1938           3391 	mov	r25,r7
00000c4e 0132           3392 	mov	1,r6
                        3393 	jarl	_PutWADataEE,lp
                        3393 <EXPANSION BEGIN>
                        3393 jarl22 _PutWADataEE , lp 
00000c50 80ff0000*      3393 <EXPANSION END>
                        3394 --line1147
                        3395 ..lin.C.3A.5C_ECU2.5CECU_Rivian_A1.5CTarget.5Crepo_projects.5CpRealEcu.5CcR_R2023.2E09.2E15.5Cmake.5Coutput.5Cobjects.5CWAlloc.254::
                        3396 .LDWlin254:
00000c54 1d38           3397 	mov	r29,r7
00000c56 0232           3398 	mov	2,r6
                        3399 	jarl	_PutWADataEE,lp
                        3399 <EXPANSION BEGIN>
                        3399 jarl22 _PutWADataEE , lp 
00000c58 80ff0000*      3399 <EXPANSION END>

                                                                      Page 62
                                                              C:\Users\nhuliyap\AppData\Local\Temp\gh_00002rs1.s
00000c5c 8515*          3400 	br	.L12603
                        3401 .L12596:
                        3402 --line1152
                        3403 ..lin.C.3A.5C_ECU2.5CECU_Rivian_A1.5CTarget.5Crepo_projects.5CpRealEcu.5CcR_R2023.2E09.2E15.5Cmake.5Coutput.5Cobjects.5CWAlloc.255::
                        3404 .LDWlin255:
00000c5e 1938           3405 	mov	r25,r7
00000c60 0132           3406 	mov	1,r6
                        3407 	jarl	_GetWADataEE,lp
                        3407 <EXPANSION BEGIN>
                        3407 jarl22 _GetWADataEE , lp 
00000c62 80ff0000*      3407 <EXPANSION END>
                        3408 --line1155
                        3409 ..lin.C.3A.5C_ECU2.5CECU_Rivian_A1.5CTarget.5Crepo_projects.5CpRealEcu.5CcR_R2023.2E09.2E15.5Cmake.5Coutput.5Cobjects.5CWAlloc.256::
                        3410 .LDWlin256:
00000c66 1d38           3411 	mov	r29,r7
00000c68 0232           3412 	mov	2,r6
                        3413 	jarl	_GetWADataEE,lp
                        3413 <EXPANSION BEGIN>
                        3413 jarl22 _GetWADataEE , lp 
00000c6a 80ff0000*      3413 <EXPANSION END>
                        3414 --line1158
                        3415 ..lin.C.3A.5C_ECU2.5CECU_Rivian_A1.5CTarget.5Crepo_projects.5CpRealEcu.5CcR_R2023.2E09.2E15.5Cmake.5Coutput.5Cobjects.5CWAlloc.257::
                        3416 .LDWlin257:
00000c6e dcc70000       3417 	tst1	0,0[r28]
00000c72 b205*          3418 	be	.L12604
                        3419 --line1159
                        3420 ..lin.C.3A.5C_ECU2.5CECU_Rivian_A1.5CTarget.5Crepo_projects.5CpRealEcu.5CcR_R2023.2E09.2E15.5Cmake.5Coutput.5Cobjects.5CWAlloc.258::
                        3421 .LDWlin258:
                        3422 	jarl	_RestoreHistory,lp
                        3422 <EXPANSION BEGIN>
                        3422 jarl22 _RestoreHistory , lp 
00000c74 bfff56fc*      3422 <EXPANSION END>
                        3423 .L12604:
                        3424 --line1161
                        3425 ..lin.C.3A.5C_ECU2.5CECU_Rivian_A1.5CTarget.5Crepo_projects.5CpRealEcu.5CcR_R2023.2E09.2E15.5Cmake.5Coutput.5Cobjects.5CWAlloc.259::
                        3426 .LDWlin259:
00000c78 dc8f0000       3427 	clr1	1,0[r28]
                        3428 .L12603:
00000c7c 1df0           3429 	mov	r29,ep
00000c7e 8703           3430 	sst.b	zero,7[ep]
00000c80 8204           3431 	sst.h	zero,4[ep]
                        3432 	jarl	_Very1stABSTickIinit,lp
                        3432 <EXPANSION BEGIN>
                        3432 jarl22 _Very1stABSTickIinit , lp 
00000c82 80ff0000*      3432 <EXPANSION END>
                        3433 --line1168
                        3434 ..lin.C.3A.5C_ECU2.5CECU_Rivian_A1.5CTarget.5Crepo_projects.5CpRealEcu.5CcR_R2023.2E09.2E15.5Cmake.5Coutput.5Cobjects.5CWAlloc.260::
                        3435 .LDWlin260:
                        3436 	jarl	_ucGetHistoryState,lp
                        3436 <EXPANSION BEGIN>
                        3436 jarl22 _ucGetHistoryState , lp 
00000c86 bfff6cf7*      3436 <EXPANSION END>
                        3437 --	    .ef
                        3438 .LDW501:
                        3439 --line1168
                        3440 ..lin.C.3A.5C_ECU2.5CECU_Rivian_A1.5CTarget.5Crepo_projects.5CpRealEcu.5CcR_R2023.2E09.2E15.5Cmake.5Coutput.5Cobjects.5CWAlloc.261::
                        3441 .LDWlin261:
00000c8a 4006ff40       3442 	dispose	0,{r25,r28,r29,r31},[lp]
                        3443 	.global	___ghs_eofn_WAInit
                        3444 ___ghs_eofn_WAInit:
                        3445 	.type	_WAInit,@function

                                                                      Page 63
                                                              C:\Users\nhuliyap\AppData\Local\Temp\gh_00002rs1.s
                        3446 	.size	_WAInit,.-_WAInit
                        3447 	.align	2
                        3448 --_i	r17	local
                        3449 --.L12682	.L12721	static
                        3450 
                        3451 	.section ".rodata","a"
00000002 0000           3452 	.space	2
                        3453 	.align	4
00000004 00             3454 .L12721:	.space	1
00000005 00             3455 	.space	1
00000006 0a0a01ff       3456 	.byte	10,10,1,255
0000000a 0902           3457 	.byte	9,2
0000000c 08             3458 	.byte	8
0000000d 000000         3459 	.space	3
                        3460 	.type	.L12721,@object
                        3461 	.size	.L12721,12
                        3462 	.data
                        3463 	.text
                        3464 	.align	2
                        3465 	.align	2
                        3466 ..gh.f.f.1.e.48:
                        3467 	.type	..gh.f.f.1.e.48,@object
                        3468 	.size	..gh.f.f.1.e.48,0
                        3469 	.global	_ucSetID
                        3470 _ucSetID:
00000c8e 8007e1f0       3471 	prepare	{r24,r25,r26,r27,r28,r29,r31},0
00000c92 06d0           3472 	mov	r6,r26
00000c94 07c8           3473 	mov	r7,r25
00000c96 3d0600000000*  3474 	mov	_aucHistoryWP,r29
                        3475 --	    .bf
                        3476 .LDW601:
                        3477 --line977
                        3478 ..lin.C.3A.5C_ECU2.5CECU_Rivian_A1.5CTarget.5Crepo_projects.5CpRealEcu.5CcR_R2023.2E09.2E15.5Cmake.5Coutput.5Cobjects.5CWAlloc.262::
                        3479 .LDWlin262:
00000c9c 264f0100       3480 	ld.w	0[r6],r9
00000ca0 00e2           3481 	mov	0,r28
00000ca2 e049           3482 	cmp	zero,r9
00000ca4 b205*          3483 	be	.L12785
00000ca6 7f4a           3484 	cmp	-1,r9
00000ca8 fa05*          3485 	bne	.L12784
                        3486 .L12785:
                        3487 --line978
                        3488 ..lin.C.3A.5C_ECU2.5CECU_Rivian_A1.5CTarget.5Crepo_projects.5CpRealEcu.5CcR_R2023.2E09.2E15.5Cmake.5Coutput.5Cobjects.5CWAlloc.263::
                        3489 .LDWlin263:
                        3490 	jarl	_ResetHistoryToDefault,lp
                        3490 <EXPANSION BEGIN>
                        3490 jarl22 _ResetHistoryToDefault , lp 
00000caa bfff80fe*      3490 <EXPANSION END>
                        3491 --line979
                        3492 ..lin.C.3A.5C_ECU2.5CECU_Rivian_A1.5CTarget.5Crepo_projects.5CpRealEcu.5CcR_R2023.2E09.2E15.5Cmake.5Coutput.5Cobjects.5CWAlloc.264::
                        3493 .LDWlin264:
                        3494 	jarl	_WAInit,lp
                        3494 <EXPANSION BEGIN>
                        3494 jarl22 _WAInit , lp 
00000cae bfffc6fe*      3494 <EXPANSION END>
                        3495 --line980
                        3496 ..lin.C.3A.5C_ECU2.5CECU_Rivian_A1.5CTarget.5Crepo_projects.5CpRealEcu.5CcR_R2023.2E09.2E15.5Cmake.5Coutput.5Cobjects.5CWAlloc.265::
                        3497 .LDWlin265:
00000cb2 0fe2           3498 	mov	15,r28
00000cb4 857d*          3499 	br	.L12787
                        3500 .L12784:

                                                                      Page 64
                                                              C:\Users\nhuliyap\AppData\Local\Temp\gh_00002rs1.s
                        3501 --line983
                        3502 ..lin.C.3A.5C_ECU2.5CECU_Rivian_A1.5CTarget.5Crepo_projects.5CpRealEcu.5CcR_R2023.2E09.2E15.5Cmake.5Coutput.5Cobjects.5CWAlloc.266::
                        3503 .LDWlin266:
00000cb6 3dc60800       3504 	movea	8,r29,r24
00000cba 1838           3505 	mov	r24,r7
00000cbc 0132           3506 	mov	1,r6
                        3507 	jarl	_GetWADataEE,lp
                        3507 <EXPANSION BEGIN>
                        3507 jarl22 _GetWADataEE , lp 
00000cbe 80ff0000*      3507 <EXPANSION END>
                        3508 --line986
                        3509 ..lin.C.3A.5C_ECU2.5CECU_Rivian_A1.5CTarget.5Crepo_projects.5CpRealEcu.5CcR_R2023.2E09.2E15.5Cmake.5Coutput.5Cobjects.5CWAlloc.267::
                        3510 .LDWlin267:
00000cc2 1dd8           3511 	mov	r29,r27
00000cc4 1d38           3512 	mov	r29,r7
00000cc6 0232           3513 	mov	2,r6
                        3514 	jarl	_GetWADataEE,lp
                        3514 <EXPANSION BEGIN>
                        3514 jarl22 _GetWADataEE , lp 
00000cc8 80ff0000*      3514 <EXPANSION END>
                        3515 --line989
                        3516 ..lin.C.3A.5C_ECU2.5CECU_Rivian_A1.5CTarget.5Crepo_projects.5CpRealEcu.5CcR_R2023.2E09.2E15.5Cmake.5Coutput.5Cobjects.5CWAlloc.268::
                        3517 .LDWlin268:
00000ccc 99ef0100       3518 	ld.bu	0[r25],r29
00000cd0 64ea           3519 	cmp	4,r29
00000cd2 996d*          3520 	bnl	.L12787
                        3521 --line990
                        3522 ..lin.C.3A.5C_ECU2.5CECU_Rivian_A1.5CTarget.5Crepo_projects.5CpRealEcu.5CcR_R2023.2E09.2E15.5Cmake.5Coutput.5Cobjects.5CWAlloc.269::
                        3523 .LDWlin269:
00000cd4 1a30           3524 	mov	r26,r6
                        3525 	jarl	_ucGetColOfID,lp
                        3525 <EXPANSION BEGIN>
                        3525 jarl22 _ucGetColOfID , lp 
00000cd6 bfff8ef5*      3525 <EXPANSION END>
                        3526 --line992
                        3527 ..lin.C.3A.5C_ECU2.5CECU_Rivian_A1.5CTarget.5Crepo_projects.5CpRealEcu.5CcR_R2023.2E09.2E15.5Cmake.5Coutput.5Cobjects.5CWAlloc.270::
                        3528 .LDWlin270:
00000cda 6452           3529 	cmp	4,r10
00000cdc 1c90           3530 	mov	r28,r18
00000cde 8a2d*          3531 	bne	.L12790
                        3532 .L12794:
                        3533 --line994
                        3534 ..lin.C.3A.5C_ECU2.5CECU_Rivian_A1.5CTarget.5Crepo_projects.5CpRealEcu.5CcR_R2023.2E09.2E15.5Cmake.5Coutput.5Cobjects.5CWAlloc.271::
                        3535 .LDWlin271:
00000ce0 12f0           3536 	mov	r18,ep
00000ce2 dbf1           3537 	add	r27,ep
00000ce4 6040           3538 	sld.bu	0[ep],r8
00000ce6 e8e9           3539 	cmp	r8,r29
00000ce8 9215*          3540 	be	.L12797
                        3541 --line993
                        3542 ..lin.C.3A.5C_ECU2.5CECU_Rivian_A1.5CTarget.5Crepo_projects.5CpRealEcu.5CcR_R2023.2E09.2E15.5Cmake.5Coutput.5Cobjects.5CWAlloc.272::
                        3543 .LDWlin272:
00000cea 4192           3544 	add	1,r18
00000cec 6492           3545 	cmp	4,r18
00000cee 91fd*          3546 	bl	.L12794
00000cf0 f30d*          3547 	bnh	.L12800
                        3548 .L12799:
                        3549 --line1005
                        3550 ..lin.C.3A.5C_ECU2.5CECU_Rivian_A1.5CTarget.5Crepo_projects.5CpRealEcu.5CcR_R2023.2E09.2E15.5Cmake.5Coutput.5Cobjects.5CWAlloc.273::
                        3551 .LDWlin273:
00000cf2 3a9f0100       3552 	ld.w	0[r26],r19

                                                                      Page 65
                                                              C:\Users\nhuliyap\AppData\Local\Temp\gh_00002rs1.s
00000cf6 12f0           3553 	mov	r18,ep
00000cf8 c2f2           3554 	shl	2,ep
00000cfa d8f1           3555 	add	r24,ep
00000cfc 019d           3556 	sst.w	r19,0[ep]
00000cfe 12f0           3557 	mov	r18,ep
00000d00 99970100       3558 	ld.bu	0[r25],r18
00000d04 dbf1           3559 	add	r27,ep
00000d06 8093           3560 	sst.b	r18,0[ep]
00000d08 c525*          3561 	br	.L12898
                        3562 .L12797:
                        3563 --line998
                        3564 ..lin.C.3A.5C_ECU2.5CECU_Rivian_A1.5CTarget.5Crepo_projects.5CpRealEcu.5CcR_R2023.2E09.2E15.5Cmake.5Coutput.5Cobjects.5CWAlloc.274::
                        3565 .LDWlin274:
00000d0a 6492           3566 	cmp	4,r18
00000d0c baf5*          3567 	bne	.L12799
                        3568 .L12800:
                        3569 --line1000
                        3570 ..lin.C.3A.5C_ECU2.5CECU_Rivian_A1.5CTarget.5Crepo_projects.5CpRealEcu.5CcR_R2023.2E09.2E15.5Cmake.5Coutput.5Cobjects.5CWAlloc.275::
                        3571 .LDWlin275:
00000d0e 3a3f0100       3572 	ld.w	0[r26],r7
00000d12 1df0           3573 	mov	r29,ep
00000d14 c2f2           3574 	shl	2,ep
00000d16 d8f1           3575 	add	r24,ep
00000d18 013d           3576 	sst.w	r7,0[ep]
00000d1a 99370100       3577 	ld.bu	0[r25],r6
00000d1e 1df0           3578 	mov	r29,ep
00000d20 dbf1           3579 	add	r27,ep
00000d22 8033           3580 	sst.b	r6,0[ep]
00000d24 e515*          3581 	br	.L12898
                        3582 .L12817:
                        3583 --line1035
                        3584 ..lin.C.3A.5C_ECU2.5CECU_Rivian_A1.5CTarget.5Crepo_projects.5CpRealEcu.5CcR_R2023.2E09.2E15.5Cmake.5Coutput.5Cobjects.5CWAlloc.276::
                        3585 .LDWlin276:
00000d26 4aef0000       3586 	st.b	r29,0[r10]
00000d2a 804b           3587 	sst.b	r9,0[ep]
00000d2c a515*          3588 	br	.L12898
                        3589 .L12790:
                        3590 --line1023
                        3591 ..lin.C.3A.5C_ECU2.5CECU_Rivian_A1.5CTarget.5Crepo_projects.5CpRealEcu.5CcR_R2023.2E09.2E15.5Cmake.5Coutput.5Cobjects.5CWAlloc.277::
                        3592 .LDWlin277:
00000d2e db51           3593 	add	r27,r10
00000d30 8a4f0100       3594 	ld.bu	0[r10],r9
00000d34 e9e9           3595 	cmp	r9,r29
00000d36 f235*          3596 	be	.L12787
                        3597 .L12811:
                        3598 --line1029
                        3599 ..lin.C.3A.5C_ECU2.5CECU_Rivian_A1.5CTarget.5Crepo_projects.5CpRealEcu.5CcR_R2023.2E09.2E15.5Cmake.5Coutput.5Cobjects.5CWAlloc.278::
                        3600 .LDWlin278:
00000d38 12f0           3601 	mov	r18,ep
00000d3a dbf1           3602 	add	r27,ep
00000d3c 6088           3603 	sld.bu	0[ep],r17
00000d3e f1e9           3604 	cmp	r17,r29
00000d40 b2f5*          3605 	be	.L12817
                        3606 --line1027
                        3607 ..lin.C.3A.5C_ECU2.5CECU_Rivian_A1.5CTarget.5Crepo_projects.5CpRealEcu.5CcR_R2023.2E09.2E15.5Cmake.5Coutput.5Cobjects.5CWAlloc.279::
                        3608 .LDWlin279:
00000d42 4192           3609 	add	1,r18
00000d44 6492           3610 	cmp	4,r18
00000d46 91fd*          3611 	bl	.L12811
                        3612 --line1040
                        3613 ..lin.C.3A.5C_ECU2.5CECU_Rivian_A1.5CTarget.5Crepo_projects.5CpRealEcu.5CcR_R2023.2E09.2E15.5Cmake.5Coutput.5Cobjects.5CWAlloc.280::

                                                                      Page 66
                                                              C:\Users\nhuliyap\AppData\Local\Temp\gh_00002rs1.s
                        3614 .LDWlin280:
00000d48 644a           3615 	cmp	4,r9
00000d4a 910d*          3616 	bl	.L12818
                        3617 --line1041
                        3618 ..lin.C.3A.5C_ECU2.5CECU_Rivian_A1.5CTarget.5Crepo_projects.5CpRealEcu.5CcR_R2023.2E09.2E15.5Cmake.5Coutput.5Cobjects.5CWAlloc.281::
                        3619 .LDWlin281:
00000d4c 4aef0000       3620 	st.b	r29,0[r10]
                        3621 .L12898:
00000d50 99ef0100       3622 	ld.bu	0[r25],r29
00000d54 20861000       3623 	movea	16,zero,r16
00000d58 fd87c2e0       3624 	shl	r29,r16,r28
                        3625 .L12818:
                        3626 	jarl	_ucGetZOState,lp
                        3626 <EXPANSION BEGIN>
                        3626 jarl22 _ucGetZOState , lp 
00000d5c bfff04f3*      3626 <EXPANSION END>
00000d60 6152           3627 	cmp	1,r10
00000d62 ba15*          3628 	bne	.L12805
                        3629 --line1046
                        3630 ..lin.C.3A.5C_ECU2.5CECU_Rivian_A1.5CTarget.5Crepo_projects.5CpRealEcu.5CcR_R2023.2E09.2E15.5Cmake.5Coutput.5Cobjects.5CWAlloc.282::
                        3631 .LDWlin282:
00000d64 1a30           3632 	mov	r26,r6
                        3633 	jarl	_ucGetZOMPosOfID,lp
                        3633 <EXPANSION BEGIN>
                        3633 jarl22 _ucGetZOMPosOfID , lp 
00000d66 bfffb2f4*      3633 <EXPANSION END>
                        3634 --line1048
                        3635 ..lin.C.3A.5C_ECU2.5CECU_Rivian_A1.5CTarget.5Crepo_projects.5CpRealEcu.5CcR_R2023.2E09.2E15.5Cmake.5Coutput.5Cobjects.5CWAlloc.283::
                        3636 .LDWlin283:
00000d6a 3a470100       3637 	ld.w	0[r26],r8
00000d6e 0af0           3638 	mov	r10,ep
00000d70 c6f2           3639 	shl	6,ep
00000d72 290600000000*  3640 	mov	_tZOM,r9
00000d78 c9f1           3641 	add	r9,ep
00000d7a 0145           3642 	sst.w	r8,0[ep]
                        3643 --line1049
                        3644 ..lin.C.3A.5C_ECU2.5CECU_Rivian_A1.5CTarget.5Crepo_projects.5CpRealEcu.5CcR_R2023.2E09.2E15.5Cmake.5Coutput.5Cobjects.5CWAlloc.284::
                        3645 .LDWlin284:
00000d7c 993f0100       3646 	ld.bu	0[r25],r7
00000d80 0ae8           3647 	mov	r10,r29
00000d82 0a30           3648 	mov	r10,r6
                        3649 	jarl	_SetZOMWP,lp
                        3649 <EXPANSION BEGIN>
                        3649 jarl22 _SetZOMWP , lp 
00000d84 bfff00f4*      3649 <EXPANSION END>
                        3650 .L12805:
                        3651 --line1059
                        3652 ..lin.C.3A.5C_ECU2.5CECU_Rivian_A1.5CTarget.5Crepo_projects.5CpRealEcu.5CcR_R2023.2E09.2E15.5Cmake.5Coutput.5Cobjects.5CWAlloc.285::
                        3653 .LDWlin285:
00000d88 0132           3654 	mov	1,r6
00000d8a fd37c238       3655 	shl	r29,r6,r7
00000d8e 07e1           3656 	or	r7,r28
00000d90 dce6ff00       3657 	andi	255,r28,r28
00000d94 820d*          3658 	be	.L12787
                        3659 --line1060
                        3660 ..lin.C.3A.5C_ECU2.5CECU_Rivian_A1.5CTarget.5Crepo_projects.5CpRealEcu.5CcR_R2023.2E09.2E15.5Cmake.5Coutput.5Cobjects.5CWAlloc.286::
                        3661 .LDWlin286:
00000d96 1838           3662 	mov	r24,r7
                        3663 	jarl	_PutWADataEE,lp
                        3663 <EXPANSION BEGIN>
                        3663 jarl22 _PutWADataEE , lp 

                                                                      Page 67
                                                              C:\Users\nhuliyap\AppData\Local\Temp\gh_00002rs1.s
00000d98 80ff0000*      3663 <EXPANSION END>
                        3664 --line1063
                        3665 ..lin.C.3A.5C_ECU2.5CECU_Rivian_A1.5CTarget.5Crepo_projects.5CpRealEcu.5CcR_R2023.2E09.2E15.5Cmake.5Coutput.5Cobjects.5CWAlloc.287::
                        3666 .LDWlin287:
00000d9c 1b38           3667 	mov	r27,r7
00000d9e 0232           3668 	mov	2,r6
                        3669 	jarl	_PutWADataEE,lp
                        3669 <EXPANSION BEGIN>
                        3669 jarl22 _PutWADataEE , lp 
00000da0 80ff0000*      3669 <EXPANSION END>
                        3670 .L12787:
                        3671 --line1072
                        3672 ..lin.C.3A.5C_ECU2.5CECU_Rivian_A1.5CTarget.5Crepo_projects.5CpRealEcu.5CcR_R2023.2E09.2E15.5Cmake.5Coutput.5Cobjects.5CWAlloc.288::
                        3673 .LDWlin288:
00000da4 1c50           3674 	mov	r28,r10
                        3675 --	    .ef
                        3676 .LDW701:
00000da6 4006fff0       3677 	dispose	0,{r24,r25,r26,r27,r28,r29,r31},[lp]
                        3678 	.global	___ghs_eofn_ucSetID
                        3679 ___ghs_eofn_ucSetID:
                        3680 	.type	_ucSetID,@function
                        3681 	.size	_ucSetID,.-_ucSetID
                        3682 	.align	2
                        3683 --_u8IndexFromPos	r18	local
                        3684 --_u8IndexFromID	r10	local
                        3685 --_ucStoredIDPosition	r29	local
                        3686 --_u8ReturnValue	r28	local
                        3687 
                        3688 --_pt2ID	r26	param
                        3689 --_pt2Pos	r25	param
                        3690 
                        3691 	.data
                        3692 	.text
                        3693 	.align	2
                        3694 	.align	2
                        3695 ..gh.f.f.1.e.49:
                        3696 	.type	..gh.f.f.1.e.49,@object
                        3697 	.size	..gh.f.f.1.e.49,0
                        3698 	.global	_GETpucStartAdrWP
                        3699 _GETpucStartAdrWP:
                        3700 --	    .bf
                        3701 .LDW801:
00000daa 2a0600000000*  3702 	mov	_aucHistoryWP,r10
                        3703 --	    .ef
                        3704 .LDW901:
                        3705 --line1172
                        3706 ..lin.C.3A.5C_ECU2.5CECU_Rivian_A1.5CTarget.5Crepo_projects.5CpRealEcu.5CcR_R2023.2E09.2E15.5Cmake.5Coutput.5Cobjects.5CWAlloc.289::
                        3707 .LDWlin289:
00000db0 7f00           3708 	jmp	[lp]
                        3709 	.global	___ghs_eofn_GETpucStartAdrWP
                        3710 ___ghs_eofn_GETpucStartAdrWP:
                        3711 	.type	_GETpucStartAdrWP,@function
                        3712 	.size	_GETpucStartAdrWP,.-_GETpucStartAdrWP
                        3713 	.align	2
                        3714 
                        3715 	.data
                        3716 	.text
                        3717 	.align	2
                        3718 	.align	2
                        3719 ..gh.f.f.1.e.50:
                        3720 	.type	..gh.f.f.1.e.50,@object

                                                                      Page 68
                                                              C:\Users\nhuliyap\AppData\Local\Temp\gh_00002rs1.s
                        3721 	.size	..gh.f.f.1.e.50,0
                        3722 	.global	_SetWAModeFix
                        3723 _SetWAModeFix:
                        3724 --	    .bf
                        3725 .LDW011:
00000db2 270600000000*  3726 	mov	_tWAPar,r7
00000db8 c7070000       3727 	set1	0,0[r7]
                        3728 --line1179
                        3729 ..lin.C.3A.5C_ECU2.5CECU_Rivian_A1.5CTarget.5Crepo_projects.5CpRealEcu.5CcR_R2023.2E09.2E15.5Cmake.5Coutput.5Cobjects.5CWAlloc.290::
                        3730 .LDWlin290:
00000dbc 0332           3731 	mov	3,r6
00000dbe 80070000*      3732 	jr	_PutWADataEE
                        3733 --	    .ef
                        3734 .LDW111:
                        3735 	.global	___ghs_eofn_SetWAModeFix
                        3736 ___ghs_eofn_SetWAModeFix:
                        3737 	.type	_SetWAModeFix,@function
                        3738 	.size	_SetWAModeFix,.-_SetWAModeFix
                        3739 	.align	2
                        3740 
                        3741 	.section ".bss","awb"
                        3742 .L13409:
                        3743 	.type	.L13409,@object
                        3744 	.size	.L13409,0
                        3745 	.data
                        3746 	.text
                        3747 	.align	2
                        3748 	.align	2
                        3749 ..gh.f.f.1.e.51:
                        3750 	.type	..gh.f.f.1.e.51,@object
                        3751 	.size	..gh.f.f.1.e.51,0
                        3752 	.global	_SetWAModeLearn
                        3753 _SetWAModeLearn:
                        3754 --	    .bf
                        3755 .LDW211:
00000dc2 270600000000*  3756 	mov	_tWAPar,r7
00000dc8 c7870000       3757 	clr1	0,0[r7]
                        3758 --line1187
                        3759 ..lin.C.3A.5C_ECU2.5CECU_Rivian_A1.5CTarget.5Crepo_projects.5CpRealEcu.5CcR_R2023.2E09.2E15.5Cmake.5Coutput.5Cobjects.5CWAlloc.291::
                        3760 .LDWlin291:
00000dcc 0332           3761 	mov	3,r6
00000dce 80070000*      3762 	jr	_PutWADataEE
                        3763 --	    .ef
                        3764 .LDW311:
                        3765 	.global	___ghs_eofn_SetWAModeLearn
                        3766 ___ghs_eofn_SetWAModeLearn:
                        3767 	.type	_SetWAModeLearn,@function
                        3768 	.size	_SetWAModeLearn,.-_SetWAModeLearn
                        3769 	.align	2
                        3770 
                        3771 	.section ".bss","awb"
                        3772 .L13457:
                        3773 	.type	.L13457,@object
                        3774 	.size	.L13457,0
                        3775 	.data
                        3776 	.text
                        3777 	.align	2
                        3778 	.align	2
                        3779 ..gh.f.f.1.e.52:
                        3780 	.type	..gh.f.f.1.e.52,@object
                        3781 	.size	..gh.f.f.1.e.52,0

                                                                      Page 69
                                                              C:\Users\nhuliyap\AppData\Local\Temp\gh_00002rs1.s
                        3782 	.global	_IncAxisDetectionError
                        3783 _IncAxisDetectionError:
00000dd2 320600000000*  3784 	mov	_sm_ucAxisDetectionErrCnt-1,r18
                        3785 --	    .bf
                        3786 .LDW411:
                        3787 --line1195
                        3788 ..lin.C.3A.5C_ECU2.5CECU_Rivian_A1.5CTarget.5Crepo_projects.5CpRealEcu.5CcR_R2023.2E09.2E15.5Cmake.5Coutput.5Cobjects.5CWAlloc.292::
                        3789 .LDWlin292:
00000dd8 b28f0100       3790 	ld.bu	1[r18],r17
00000ddc 110606ff       3791 	addi	-250,r17,zero
00000de0 d105*          3792 	bl	.L13476
                        3793 --line1196
                        3794 ..lin.C.3A.5C_ECU2.5CECU_Rivian_A1.5CTarget.5Crepo_projects.5CpRealEcu.5CcR_R2023.2E09.2E15.5Cmake.5Coutput.5Cobjects.5CWAlloc.293::
                        3795 .LDWlin293:
00000de2 117e0100       3796 	addi	1,r17,r15
00000de6 527f0100       3797 	st.b	r15,1[r18]
                        3798 .L13476:
                        3799 --	    .ef
                        3800 .LDW511:
00000dea 7f00           3801 	jmp	[lp]
                        3802 	.global	___ghs_eofn_IncAxisDetectionError
                        3803 ___ghs_eofn_IncAxisDetectionError:
                        3804 	.type	_IncAxisDetectionError,@function
                        3805 	.size	_IncAxisDetectionError,.-_IncAxisDetectionError
                        3806 	.align	2
                        3807 
                        3808 	.data
                        3809 	.text
                        3810 	.align	2
                        3811 	.align	2
                        3812 ..gh.f.f.1.e.53:
                        3813 	.type	..gh.f.f.1.e.53,@object
                        3814 	.size	..gh.f.f.1.e.53,0
                        3815 	.global	_IncrHistProtectTimer
                        3816 _IncrHistProtectTimer:
00000dec 320600000000*  3817 	mov	_ushHistProtecTimeCnt,r18
                        3818 --	    .bf
                        3819 .LDW611:
                        3820 --line1227
                        3821 ..lin.C.3A.5C_ECU2.5CECU_Rivian_A1.5CTarget.5Crepo_projects.5CpRealEcu.5CcR_R2023.2E09.2E15.5Cmake.5Coutput.5Cobjects.5CWAlloc.294::
                        3822 .LDWlin294:
00000df2 40760000*      3823 	movhi	hi(_tWAPar+13),zero,r14
00000df6 8e770100*      3824 	ld.bu	lo(_tWAPar+13)[r14],r14
00000dfa f28f0100       3825 	ld.hu	0[r18],r17
00000dfe ee7e2c01       3826 	mulhi	300,r14,r15
00000e02 ef89           3827 	cmp	r15,r17
00000e04 9e0d*          3828 	bge	.L13542
                        3829 --line1228
                        3830 ..lin.C.3A.5C_ECU2.5CECU_Rivian_A1.5CTarget.5Crepo_projects.5CpRealEcu.5CcR_R2023.2E09.2E15.5Cmake.5Coutput.5Cobjects.5CWAlloc.295::
                        3831 .LDWlin295:
00000e06 806effff       3832 	ori	65535,zero,r13
00000e0a ed89           3833 	cmp	r13,r17
00000e0c d905*          3834 	bnl	.L13542
                        3835 --line1229
                        3836 ..lin.C.3A.5C_ECU2.5CECU_Rivian_A1.5CTarget.5Crepo_projects.5CpRealEcu.5CcR_R2023.2E09.2E15.5Cmake.5Coutput.5Cobjects.5CWAlloc.296::
                        3837 .LDWlin296:
00000e0e 11660100       3838 	addi	1,r17,r12
00000e12 72670000       3839 	st.h	r12,0[r18]
                        3840 .L13542:
                        3841 --	    .ef
                        3842 .LDW711:

                                                                      Page 70
                                                              C:\Users\nhuliyap\AppData\Local\Temp\gh_00002rs1.s
00000e16 7f00           3843 	jmp	[lp]
                        3844 	.global	___ghs_eofn_IncrHistProtectTimer
                        3845 ___ghs_eofn_IncrHistProtectTimer:
                        3846 	.type	_IncrHistProtectTimer,@function
                        3847 	.size	_IncrHistProtectTimer,.-_IncrHistProtectTimer
                        3848 	.align	2
                        3849 
                        3850 	.data
                        3851 	.text
                        3852 	.align	2
                        3853 	.align	2
                        3854 ..gh.f.f.1.e.54:
                        3855 	.type	..gh.f.f.1.e.54,@object
                        3856 	.size	..gh.f.f.1.e.54,0
                        3857 	.global	_WALLOC_UpdateTelegramSkipTimer
                        3858 _WALLOC_UpdateTelegramSkipTimer:
                        3859 --	    .bf
                        3860 .LDW811:
00000e18 0092           3861 	mov	0,r18
                        3862 .L13624:
00000e1a 12f0           3863 	mov	r18,ep
00000e1c c6f2           3864 	shl	6,ep
00000e1e 300600000000*  3865 	mov	_tZOM,r16
00000e24 d0f1           3866 	add	r16,ep
00000e26 6d88           3867 	sld.bu	13[ep],r17
00000e28 e089           3868 	cmp	zero,r17
00000e2a c205*          3869 	be	.L13625
                        3870 --line1276
                        3871 ..lin.C.3A.5C_ECU2.5CECU_Rivian_A1.5CTarget.5Crepo_projects.5CpRealEcu.5CcR_R2023.2E09.2E15.5Cmake.5Coutput.5Cobjects.5CWAlloc.297::
                        3872 .LDWlin297:
00000e2c 117effff       3873 	addi	-1,r17,r15
00000e30 8d7b           3874 	sst.b	r15,13[ep]
                        3875 .L13625:
00000e32 4192           3876 	add	1,r18
00000e34 6892           3877 	cmp	8,r18
00000e36 a1f5*          3878 	bl	.L13624
                        3879 --	    .ef
                        3880 .LDW911:
                        3881 --line1279
                        3882 ..lin.C.3A.5C_ECU2.5CECU_Rivian_A1.5CTarget.5Crepo_projects.5CpRealEcu.5CcR_R2023.2E09.2E15.5Cmake.5Coutput.5Cobjects.5CWAlloc.298::
                        3883 .LDWlin298:
00000e38 7f00           3884 	jmp	[lp]
                        3885 	.global	___ghs_eofn_WALLOC_UpdateTelegramSkipTimer
                        3886 ___ghs_eofn_WALLOC_UpdateTelegramSkipTimer:
                        3887 	.type	_WALLOC_UpdateTelegramSkipTimer,@function
                        3888 	.size	_WALLOC_UpdateTelegramSkipTimer,.-_WALLOC_UpdateTelegramSkipTimer
                        3889 	.align	2
                        3890 --_ucIdx	r18	local
                        3891 
                        3892 	.section ".bss","awb"
                        3893 .L13664:
                        3894 	.type	.L13664,@object
                        3895 	.size	.L13664,0
                        3896 	.data
                        3897 	.text
                        3898 	.align	2
                        3899 	.align	2
                        3900 ..gh.f.f.1.e.55:
                        3901 	.type	..gh.f.f.1.e.55,@object
                        3902 	.size	..gh.f.f.1.e.55,0
                        3903 	.global	_WALLOC_ucGetMinSpeedAutoLearnStart

                                                                      Page 71
                                                              C:\Users\nhuliyap\AppData\Local\Temp\gh_00002rs1.s
                        3904 _WALLOC_ucGetMinSpeedAutoLearnStart:
                        3905 --	    .bf
                        3906 .LDW021:
00000e3a 40560000*      3907 	movhi	hi(_tWAPar+20),zero,r10
00000e3e 8a570100*      3908 	ld.bu	lo(_tWAPar+20)[r10],r10
                        3909 --	    .ef
                        3910 .LDW121:
                        3911 --line1282
                        3912 ..lin.C.3A.5C_ECU2.5CECU_Rivian_A1.5CTarget.5Crepo_projects.5CpRealEcu.5CcR_R2023.2E09.2E15.5Cmake.5Coutput.5Cobjects.5CWAlloc.299::
                        3913 .LDWlin299:
00000e42 7f00           3914 	jmp	[lp]
                        3915 	.global	___ghs_eofn_WALLOC_ucGetMinSpeedAutoLearnStart
                        3916 ___ghs_eofn_WALLOC_ucGetMinSpeedAutoLearnStart:
                        3917 	.type	_WALLOC_ucGetMinSpeedAutoLearnStart,@function
                        3918 	.size	_WALLOC_ucGetMinSpeedAutoLearnStart,.-_WALLOC_ucGetMinSpeedAutoLearnStart
                        3919 	.align	2
                        3920 
                        3921 	.section ".bss","awb"
                        3922 .L13748:
                        3923 	.type	.L13748,@object
                        3924 	.size	.L13748,0
                        3925 	.data
                        3926 	.text
                        3927 	.align	2
                        3928 	.align	2
                        3929 ..gh.f.f.1.e.56:
                        3930 	.type	..gh.f.f.1.e.56,@object
                        3931 	.size	..gh.f.f.1.e.56,0
                        3932 	.global	_ucGetABSTicksFullRevolFrontAx
                        3933 _ucGetABSTicksFullRevolFrontAx:
                        3934 --	    .bf
                        3935 .LDW221:
00000e44 40560000*      3936 	movhi	hi(_tABSTicksOneRevol),zero,r10
00000e48 8a570100*      3937 	ld.bu	lo(_tABSTicksOneRevol)[r10],r10
00000e4c e051           3938 	cmp	zero,r10
00000e4e ba05*          3939 	bne	.L13766
                        3940 --line1307
                        3941 ..lin.C.3A.5C_ECU2.5CECU_Rivian_A1.5CTarget.5Crepo_projects.5CpRealEcu.5CcR_R2023.2E09.2E15.5Cmake.5Coutput.5Cobjects.5CWAlloc.300::
                        3942 .LDWlin300:
00000e50 20566000       3943 	movea	96,zero,r10
                        3944 .L13766:
                        3945 --	    .ef
                        3946 .LDW321:
00000e54 7f00           3947 	jmp	[lp]
                        3948 	.global	___ghs_eofn_ucGetABSTicksFullRevolFrontAx
                        3949 ___ghs_eofn_ucGetABSTicksFullRevolFrontAx:
                        3950 	.type	_ucGetABSTicksFullRevolFrontAx,@function
                        3951 	.size	_ucGetABSTicksFullRevolFrontAx,.-_ucGetABSTicksFullRevolFrontAx
                        3952 	.align	2
                        3953 
                        3954 	.section ".bss","awb"
                        3955 .L13812:
                        3956 	.type	.L13812,@object
                        3957 	.size	.L13812,0
                        3958 	.data
                        3959 	.text
                        3960 	.align	2
                        3961 	.align	2
                        3962 ..gh.f.f.1.e.57:
                        3963 	.type	..gh.f.f.1.e.57,@object
                        3964 	.size	..gh.f.f.1.e.57,0

                                                                      Page 72
                                                              C:\Users\nhuliyap\AppData\Local\Temp\gh_00002rs1.s
                        3965 	.global	_ucGetABSTicksFullRevolRearAx
                        3966 _ucGetABSTicksFullRevolRearAx:
                        3967 --	    .bf
                        3968 .LDW421:
00000e56 40560000*      3969 	movhi	hi(_tABSTicksOneRevol+1),zero,r10
00000e5a 8a570100*      3970 	ld.bu	lo(_tABSTicksOneRevol+1)[r10],r10
00000e5e e051           3971 	cmp	zero,r10
00000e60 ba05*          3972 	bne	.L13845
                        3973 --line1317
                        3974 ..lin.C.3A.5C_ECU2.5CECU_Rivian_A1.5CTarget.5Crepo_projects.5CpRealEcu.5CcR_R2023.2E09.2E15.5Cmake.5Coutput.5Cobjects.5CWAlloc.301::
                        3975 .LDWlin301:
00000e62 20566000       3976 	movea	96,zero,r10
                        3977 .L13845:
                        3978 --	    .ef
                        3979 .LDW521:
00000e66 7f00           3980 	jmp	[lp]
                        3981 	.global	___ghs_eofn_ucGetABSTicksFullRevolRearAx
                        3982 ___ghs_eofn_ucGetABSTicksFullRevolRearAx:
                        3983 	.type	_ucGetABSTicksFullRevolRearAx,@function
                        3984 	.size	_ucGetABSTicksFullRevolRearAx,.-_ucGetABSTicksFullRevolRearAx
                        3985 	.align	2
                        3986 
                        3987 	.section ".bss","awb"
                        3988 .L13892:
                        3989 	.type	.L13892,@object
                        3990 	.size	.L13892,0
                        3991 	.data
                        3992 	.text
                        3993 	.align	2
                        3994 	.align	2
                        3995 ..gh.f.f.1.e.58:
                        3996 	.type	..gh.f.f.1.e.58,@object
                        3997 	.size	..gh.f.f.1.e.58,0
                        3998 	.global	_DCM_InvIf_ZomStatusGetFromMemory
                        3999 _DCM_InvIf_ZomStatusGetFromMemory:
00000e68 8600           4000 	zxb	r6
                        4001 --	    .bf
                        4002 .LDW621:
00000e6a 0052           4003 	mov	0,r10
00000e6c 6832           4004 	cmp	8,r6
00000e6e 890d*          4005 	bnl	.L13925
                        4006 --line1324
                        4007 ..lin.C.3A.5C_ECU2.5CECU_Rivian_A1.5CTarget.5Crepo_projects.5CpRealEcu.5CcR_R2023.2E09.2E15.5Cmake.5Coutput.5Cobjects.5CWAlloc.302::
                        4008 .LDWlin302:
00000e70 06f0           4009 	mov	r6,ep
00000e72 c6f2           4010 	shl	6,ep
00000e74 330600000000*  4011 	mov	_tZOM,r19
00000e7a d3f1           4012 	add	r19,ep
00000e7c 6450           4013 	sld.bu	4[ep],r10
                        4014 .L13925:
                        4015 --	    .ef
                        4016 .LDW721:
                        4017 --line1328
                        4018 ..lin.C.3A.5C_ECU2.5CECU_Rivian_A1.5CTarget.5Crepo_projects.5CpRealEcu.5CcR_R2023.2E09.2E15.5Cmake.5Coutput.5Cobjects.5CWAlloc.303::
                        4019 .LDWlin303:
00000e7e 7f00           4020 	jmp	[lp]
                        4021 	.global	___ghs_eofn_DCM_InvIf_ZomStatusGetFromMemory
                        4022 ___ghs_eofn_DCM_InvIf_ZomStatusGetFromMemory:
                        4023 	.type	_DCM_InvIf_ZomStatusGetFromMemory,@function
                        4024 	.size	_DCM_InvIf_ZomStatusGetFromMemory,.-_DCM_InvIf_ZomStatusGetFromMemory
                        4025 	.align	2

                                                                      Page 73
                                                              C:\Users\nhuliyap\AppData\Local\Temp\gh_00002rs1.s
                        4026 
                        4027 --_u8_ZomPossition	r6	param
                        4028 
                        4029 	.section ".bss","awb"
                        4030 .L13972:
                        4031 	.type	.L13972,@object
                        4032 	.size	.L13972,0
                        4033 	.data
                        4034 	.text
                        4035 	.align	2
                        4036 	.align	2
                        4037 ..gh.f.f.1.e.59:
                        4038 	.type	..gh.f.f.1.e.59,@object
                        4039 	.size	..gh.f.f.1.e.59,0
                        4040 	.global	_DCM_InvIf_ZomWuIDGetFromMemory
                        4041 _DCM_InvIf_ZomWuIDGetFromMemory:
00000e80 80072100       4042 	prepare	{r31},0
00000e84 8600           4043 	zxb	r6
                        4044 --	    .bf
                        4045 .LDW821:
                        4046 	jarl	_ulGetZOMID,lp
                        4046 <EXPANSION BEGIN>
                        4046 jarl22 _ulGetZOMID , lp 
00000e86 bfff62f2*      4046 <EXPANSION END>
                        4047 --line1337
                        4048 ..lin.C.3A.5C_ECU2.5CECU_Rivian_A1.5CTarget.5Crepo_projects.5CpRealEcu.5CcR_R2023.2E09.2E15.5Cmake.5Coutput.5Cobjects.5CWAlloc.304::
                        4049 .LDWlin304:
00000e8a 0a90           4050 	mov	r10,r18
00000e8c 0a88           4051 	mov	r10,r17
00000e8e 0a80           4052 	mov	r10,r16
00000e90 9892           4053 	shr	24,r18
00000e92 07f0           4054 	mov	r7,ep
00000e94 908a           4055 	shr	16,r17
00000e96 8882           4056 	shr	8,r16
00000e98 8093           4057 	sst.b	r18,0[ep]
00000e9a 818b           4058 	sst.b	r17,1[ep]
00000e9c 8283           4059 	sst.b	r16,2[ep]
00000e9e 8353           4060 	sst.b	r10,3[ep]
                        4061 --	    .ef
                        4062 .LDW921:
00000ea0 40063f00       4063 	dispose	0,{r31},[lp]
                        4064 	.global	___ghs_eofn_DCM_InvIf_ZomWuIDGetFromMemory
                        4065 ___ghs_eofn_DCM_InvIf_ZomWuIDGetFromMemory:
                        4066 	.type	_DCM_InvIf_ZomWuIDGetFromMemory,@function
                        4067 	.size	_DCM_InvIf_ZomWuIDGetFromMemory,.-_DCM_InvIf_ZomWuIDGetFromMemory
                        4068 	.align	2
                        4069 
                        4070 --_u8_ZomPossition	r6	param
                        4071 --_u8_IDValue	r29	param
                        4072 
                        4073 	.section ".bss","awb"
                        4074 .L14036:
                        4075 	.type	.L14036,@object
                        4076 	.size	.L14036,0
                        4077 	.data
                        4078 	.text
                        4079 	.align	2
                        4080 	.align	2
                        4081 ..gh.f.f.1.e.60:
                        4082 	.type	..gh.f.f.1.e.60,@object
                        4083 	.size	..gh.f.f.1.e.60,0

                                                                      Page 74
                                                              C:\Users\nhuliyap\AppData\Local\Temp\gh_00002rs1.s
                        4084 	.global	_DCM_InvIf_HistoryIDReadValue
                        4085 _DCM_InvIf_HistoryIDReadValue:
00000ea4 80072100       4086 	prepare	{r31},0
00000ea8 8600           4087 	zxb	r6
                        4088 --	    .bf
                        4089 .LDW031:
                        4090 	jarl	_ulGetID,lp
                        4090 <EXPANSION BEGIN>
                        4090 jarl22 _ulGetID , lp 
00000eaa bfff56f2*      4090 <EXPANSION END>
                        4091 --line1349
                        4092 ..lin.C.3A.5C_ECU2.5CECU_Rivian_A1.5CTarget.5Crepo_projects.5CpRealEcu.5CcR_R2023.2E09.2E15.5Cmake.5Coutput.5Cobjects.5CWAlloc.305::
                        4093 .LDWlin305:
00000eae 0a90           4094 	mov	r10,r18
00000eb0 0a88           4095 	mov	r10,r17
00000eb2 0a80           4096 	mov	r10,r16
00000eb4 9892           4097 	shr	24,r18
00000eb6 07f0           4098 	mov	r7,ep
00000eb8 908a           4099 	shr	16,r17
00000eba 8882           4100 	shr	8,r16
00000ebc 8093           4101 	sst.b	r18,0[ep]
00000ebe 818b           4102 	sst.b	r17,1[ep]
00000ec0 8283           4103 	sst.b	r16,2[ep]
00000ec2 8353           4104 	sst.b	r10,3[ep]
                        4105 --	    .ef
                        4106 .LDW131:
00000ec4 40063f00       4107 	dispose	0,{r31},[lp]
                        4108 	.global	___ghs_eofn_DCM_InvIf_HistoryIDReadValue
                        4109 ___ghs_eofn_DCM_InvIf_HistoryIDReadValue:
                        4110 	.type	_DCM_InvIf_HistoryIDReadValue,@function
                        4111 	.size	_DCM_InvIf_HistoryIDReadValue,.-_DCM_InvIf_HistoryIDReadValue
                        4112 	.align	2
                        4113 
                        4114 --_u8_Possition	r6	param
                        4115 --_u8_IDValue	r29	param
                        4116 
                        4117 	.section ".bss","awb"
                        4118 .L14084:
                        4119 	.type	.L14084,@object
                        4120 	.size	.L14084,0
                        4121 	.data
                        4122 	.text
                        4123 	.align	2
                        4124 	.align	2
                        4125 ..gh.f.f.1.e.61:
                        4126 	.type	..gh.f.f.1.e.61,@object
                        4127 	.size	..gh.f.f.1.e.61,0
                        4128 	.global	_DCM_InvIf_AutoLocGetTimeoutCntValue
                        4129 _DCM_InvIf_AutoLocGetTimeoutCntValue:
                        4130 --	    .bf
                        4131 .LDW231:
00000ec8 40560000*      4132 	movhi	hi(_ucNrOfTOs),zero,r10
00000ecc 8a570100*      4133 	ld.bu	lo(_ucNrOfTOs)[r10],r10
                        4134 --	    .ef
                        4135 .LDW331:
                        4136 --line1356
                        4137 ..lin.C.3A.5C_ECU2.5CECU_Rivian_A1.5CTarget.5Crepo_projects.5CpRealEcu.5CcR_R2023.2E09.2E15.5Cmake.5Coutput.5Cobjects.5CWAlloc.306::
                        4138 .LDWlin306:
00000ed0 7f00           4139 	jmp	[lp]
                        4140 	.global	___ghs_eofn_DCM_InvIf_AutoLocGetTimeoutCntValue
                        4141 ___ghs_eofn_DCM_InvIf_AutoLocGetTimeoutCntValue:

                                                                      Page 75
                                                              C:\Users\nhuliyap\AppData\Local\Temp\gh_00002rs1.s
                        4142 	.type	_DCM_InvIf_AutoLocGetTimeoutCntValue,@function
                        4143 	.size	_DCM_InvIf_AutoLocGetTimeoutCntValue,.-_DCM_InvIf_AutoLocGetTimeoutCntValue
                        4144 	.align	2
                        4145 
                        4146 	.data
                        4147 	.text
                        4148 	.align	2
                        4149 	.align	2
                        4150 ..gh.f.f.1.e.62:
                        4151 	.type	..gh.f.f.1.e.62,@object
                        4152 	.size	..gh.f.f.1.e.62,0
                        4153 	.global	_DCM_InvIf_HistoryWPReadValue
                        4154 _DCM_InvIf_HistoryWPReadValue:
00000ed2 80072100       4155 	prepare	{r31},0
00000ed6 8600           4156 	zxb	r6
                        4157 --	    .bf
                        4158 .LDW431:
                        4159 	jarl	_ucGetWPOfCol,lp
                        4159 <EXPANSION BEGIN>
                        4159 jarl22 _ucGetWPOfCol , lp 
00000ed8 bfffacf3*      4159 <EXPANSION END>
00000edc 47570000       4160 	st.b	r10,0[r7]
                        4161 --	    .ef
                        4162 .LDW531:
                        4163 --line1365
                        4164 ..lin.C.3A.5C_ECU2.5CECU_Rivian_A1.5CTarget.5Crepo_projects.5CpRealEcu.5CcR_R2023.2E09.2E15.5Cmake.5Coutput.5Cobjects.5CWAlloc.307::
                        4165 .LDWlin307:
00000ee0 40063f00       4166 	dispose	0,{r31},[lp]
                        4167 	.global	___ghs_eofn_DCM_InvIf_HistoryWPReadValue
                        4168 ___ghs_eofn_DCM_InvIf_HistoryWPReadValue:
                        4169 	.type	_DCM_InvIf_HistoryWPReadValue,@function
                        4170 	.size	_DCM_InvIf_HistoryWPReadValue,.-_DCM_InvIf_HistoryWPReadValue
                        4171 	.align	2
                        4172 
                        4173 --_u8_Possition	r6	param
                        4174 --_u8_WPValue	r29	param
                        4175 
                        4176 	.section ".bss","awb"
                        4177 .L14177:
                        4178 	.type	.L14177,@object
                        4179 	.size	.L14177,0
                        4180 	.data
                        4181 	.text
                        4182 	.align	2
                        4183 	.align	2
                        4184 ..gh.f.f.1.e.63:
                        4185 	.type	..gh.f.f.1.e.63,@object
                        4186 	.size	..gh.f.f.1.e.63,0
                        4187 	.global	_DCM_InvIf_ZomTelCntGetFromMemory
                        4188 _DCM_InvIf_ZomTelCntGetFromMemory:
00000ee4 8600           4189 	zxb	r6
                        4190 --	    .bf
                        4191 .LDW631:
00000ee6 bf074af2*      4192 	jr	_ucGetProbeCt
                        4193 --	    .ef
                        4194 .LDW731:
                        4195 	.global	___ghs_eofn_DCM_InvIf_ZomTelCntGetFromMemory
                        4196 ___ghs_eofn_DCM_InvIf_ZomTelCntGetFromMemory:
                        4197 	.type	_DCM_InvIf_ZomTelCntGetFromMemory,@function
                        4198 	.size	_DCM_InvIf_ZomTelCntGetFromMemory,.-_DCM_InvIf_ZomTelCntGetFromMemory
                        4199 	.align	2

                                                                      Page 76
                                                              C:\Users\nhuliyap\AppData\Local\Temp\gh_00002rs1.s
                        4200 
                        4201 --_u8_ZomPossition	r6	param
                        4202 
                        4203 	.section ".bss","awb"
                        4204 .L14228:
                        4205 	.type	.L14228,@object
                        4206 	.size	.L14228,0
                        4207 	.data
                        4208 	.text
                        4209 	.align	2
                        4210 	.align	2
                        4211 ..gh.f.f.1.e.64:
                        4212 	.type	..gh.f.f.1.e.64,@object
                        4213 	.size	..gh.f.f.1.e.64,0
                        4214 	.global	_DCM_InvIf_ZomPosCurrIDGetValue
                        4215 _DCM_InvIf_ZomPosCurrIDGetValue:
00000eea 82072100       4216 	prepare	{r31},1
                        4217 --	    .bf
                        4218 .LDW831:
                        4219 	jarl	_ulGetReDataIdPD,lp
                        4219 <EXPANSION BEGIN>
                        4219 jarl22 _ulGetReDataIdPD , lp 
00000eee 80ff0000*      4219 <EXPANSION END>
00000ef2 63570100       4220 	st.w	r10,0[sp]
                        4221 --line1377
                        4222 ..lin.C.3A.5C_ECU2.5CECU_Rivian_A1.5CTarget.5Crepo_projects.5CpRealEcu.5CcR_R2023.2E09.2E15.5Cmake.5Coutput.5Cobjects.5CWAlloc.308::
                        4223 .LDWlin308:
00000ef6 0330           4224 	mov	sp,r6
                        4225 	jarl	_ucGetZOMPosOfID,lp
                        4225 <EXPANSION BEGIN>
                        4225 jarl22 _ucGetZOMPosOfID , lp 
00000ef8 bfff20f3*      4225 <EXPANSION END>
                        4226 --	    .ef
                        4227 .LDW931:
                        4228 --line1377
                        4229 ..lin.C.3A.5C_ECU2.5CECU_Rivian_A1.5CTarget.5Crepo_projects.5CpRealEcu.5CcR_R2023.2E09.2E15.5Cmake.5Coutput.5Cobjects.5CWAlloc.309::
                        4230 .LDWlin309:
00000efc 42063f00       4231 	dispose	1,{r31},[lp]
                        4232 	.global	___ghs_eofn_DCM_InvIf_ZomPosCurrIDGetValue
                        4233 ___ghs_eofn_DCM_InvIf_ZomPosCurrIDGetValue:
                        4234 	.type	_DCM_InvIf_ZomPosCurrIDGetValue,@function
                        4235 	.size	_DCM_InvIf_ZomPosCurrIDGetValue,.-_DCM_InvIf_ZomPosCurrIDGetValue
                        4236 	.align	2
                        4237 --_LocalIdValue	0[sp]	local
                        4238 
                        4239 	.section ".bss","awb"
                        4240 .L14276:
                        4241 	.type	.L14276,@object
                        4242 	.size	.L14276,0
                        4243 	.data
                        4244 	.text
                        4245 	.align	2
                        4246 	.align	2
                        4247 ..gh.f.f.1.e.65:
                        4248 	.type	..gh.f.f.1.e.65,@object
                        4249 	.size	..gh.f.f.1.e.65,0
                        4250 	.global	_UpdateHistoryFromRAMWIthTheOneFromNVM
                        4251 _UpdateHistoryFromRAMWIthTheOneFromNVM:
00000f00 80076100       4252 	prepare	{r29,r31},0
00000f04 3d0600000000*  4253 	mov	_aucHistoryWP,r29
                        4254 --	    .bf

                                                                      Page 77
                                                              C:\Users\nhuliyap\AppData\Local\Temp\gh_00002rs1.s
                        4255 .LDW041:
                        4256 --line1383
                        4257 ..lin.C.3A.5C_ECU2.5CECU_Rivian_A1.5CTarget.5Crepo_projects.5CpRealEcu.5CcR_R2023.2E09.2E15.5Cmake.5Coutput.5Cobjects.5CWAlloc.310::
                        4258 .LDWlin310:
00000f0a 3d3e0800       4259 	movea	8,r29,r7
00000f0e 0132           4260 	mov	1,r6
                        4261 	jarl	_GetWADataEE,lp
                        4261 <EXPANSION BEGIN>
                        4261 jarl22 _GetWADataEE , lp 
00000f10 80ff0000*      4261 <EXPANSION END>
                        4262 --line1386
                        4263 ..lin.C.3A.5C_ECU2.5CECU_Rivian_A1.5CTarget.5Crepo_projects.5CpRealEcu.5CcR_R2023.2E09.2E15.5Cmake.5Coutput.5Cobjects.5CWAlloc.311::
                        4264 .LDWlin311:
00000f14 0232           4265 	mov	2,r6
00000f16 1d38           4266 	mov	r29,r7
                        4267 	jarl	_GetWADataEE,lp
                        4267 <EXPANSION BEGIN>
                        4267 jarl22 _GetWADataEE , lp 
00000f18 80ff0000*      4267 <EXPANSION END>
                        4268 --	    .ef
                        4269 .LDW141:
                        4270 --line1389
                        4271 ..lin.C.3A.5C_ECU2.5CECU_Rivian_A1.5CTarget.5Crepo_projects.5CpRealEcu.5CcR_R2023.2E09.2E15.5Cmake.5Coutput.5Cobjects.5CWAlloc.312::
                        4272 .LDWlin312:
00000f1c 40067f00       4273 	dispose	0,{r29,r31},[lp]
                        4274 	.global	___ghs_eofn_UpdateHistoryFromRAMWIthTheOneFromNVM
                        4275 ___ghs_eofn_UpdateHistoryFromRAMWIthTheOneFromNVM:
                        4276 	.type	_UpdateHistoryFromRAMWIthTheOneFromNVM,@function
                        4277 	.size	_UpdateHistoryFromRAMWIthTheOneFromNVM,.-_UpdateHistoryFromRAMWIthTheOneFromNVM
                        4278 	.align	2
                        4279 
                        4280 	.data
                        4281 	.text
                        4282 	.align	2
                        4283 	.align	2
                        4284 ..gh.f.f.1.e.66:
                        4285 	.type	..gh.f.f.1.e.66,@object
                        4286 	.size	..gh.f.f.1.e.66,0
                        4287 	.global	_ResetNrOfTOs
                        4288 _ResetNrOfTOs:
                        4289 --	    .bf
                        4290 .LDW241:
00000f20 405e0000*      4291 	movhi	hi(_ucNrOfTOs),zero,r11
00000f24 4b070000*      4292 	st.b	zero,lo(_ucNrOfTOs)[r11]
                        4293 --	    .ef
                        4294 .LDW341:
                        4295 --line1394
                        4296 ..lin.C.3A.5C_ECU2.5CECU_Rivian_A1.5CTarget.5Crepo_projects.5CpRealEcu.5CcR_R2023.2E09.2E15.5Cmake.5Coutput.5Cobjects.5CWAlloc.313::
                        4297 .LDWlin313:
00000f28 7f00           4298 	jmp	[lp]
                        4299 	.global	___ghs_eofn_ResetNrOfTOs
                        4300 ___ghs_eofn_ResetNrOfTOs:
                        4301 	.type	_ResetNrOfTOs,@function
                        4302 	.size	_ResetNrOfTOs,.-_ResetNrOfTOs
                        4303 	.align	2
                        4304 
                        4305 	.data
                        4306 	.text
                        4307 	.align	2
                        4308 	.align	2
                        4309 ..gh.f.f.1.e.67:

                                                                      Page 78
                                                              C:\Users\nhuliyap\AppData\Local\Temp\gh_00002rs1.s
                        4310 	.type	..gh.f.f.1.e.67,@object
                        4311 	.size	..gh.f.f.1.e.67,0
                        4312 	.global	_ucCheckPotentialErInZom
                        4313 _ucCheckPotentialErInZom:
00000f2a 8007e1f0       4314 	prepare	{r24,r25,r26,r27,r28,r29,r31},0
                        4315 --	    .bf
                        4316 .LDW441:
00000f2e 00ca           4317 	mov	0,r25
00000f30 19e8           4318 	mov	r25,r29
                        4319 	jarl	_ushSumPotenAndERWheels,lp
                        4319 <EXPANSION BEGIN>
                        4319 jarl22 _ushSumPotenAndERWheels , lp 
00000f32 bfffdcf5*      4319 <EXPANSION END>
00000f36 0a30           4320 	mov	r10,r6
                        4321 	jarl	_ucNrOfBitSet,lp
                        4321 <EXPANSION BEGIN>
                        4321 jarl22 _ucNrOfBitSet , lp 
00000f38 bfff06f6*      4321 <EXPANSION END>
00000f3c 0ac0           4322 	mov	r10,r24
                        4323 --line1404
                        4324 ..lin.C.3A.5C_ECU2.5CECU_Rivian_A1.5CTarget.5Crepo_projects.5CpRealEcu.5CcR_R2023.2E09.2E15.5Cmake.5Coutput.5Cobjects.5CWAlloc.314::
                        4325 .LDWlin314:
00000f3e 19d8           4326 	mov	r25,r27
                        4327 .L14390:
00000f40 19d0           4328 	mov	r25,r26
                        4329 .L14393:
00000f42 1be0           4330 	mov	r27,r28
00000f44 c2e2           4331 	shl	2,r28
00000f46 40960000*      4332 	movhi	hi(_aulHistoryID),zero,r18
00000f4a d2e1           4333 	add	r18,r28
00000f4c 1a30           4334 	mov	r26,r6
                        4335 	jarl	_ulGetZOMID,lp
                        4335 <EXPANSION BEGIN>
                        4335 jarl22 _ulGetZOMID , lp 
00000f4e bfff9af1*      4335 <EXPANSION END>
00000f52 3c8f0100*      4336 	ld.w	lo(_aulHistoryID)[r28],r17
00000f56 ea89           4337 	cmp	r10,r17
00000f58 ba05*          4338 	bne	.L14394
                        4339 --line1408
                        4340 ..lin.C.3A.5C_ECU2.5CECU_Rivian_A1.5CTarget.5Crepo_projects.5CpRealEcu.5CcR_R2023.2E09.2E15.5Cmake.5Coutput.5Cobjects.5CWAlloc.315::
                        4341 .LDWlin315:
00000f5a 41ea           4342 	add	1,r29
00000f5c 9d00           4343 	zxb	r29
                        4344 .L14394:
00000f5e 41d2           4345 	add	1,r26
00000f60 68d2           4346 	cmp	8,r26
00000f62 81f5*          4347 	bl	.L14393
                        4348 --line1404
                        4349 ..lin.C.3A.5C_ECU2.5CECU_Rivian_A1.5CTarget.5Crepo_projects.5CpRealEcu.5CcR_R2023.2E09.2E15.5Cmake.5Coutput.5Cobjects.5CWAlloc.316::
                        4350 .LDWlin316:
00000f64 41da           4351 	add	1,r27
00000f66 64da           4352 	cmp	4,r27
00000f68 c1ed*          4353 	bl	.L14390
                        4354 --line1412
                        4355 ..lin.C.3A.5C_ECU2.5CECU_Rivian_A1.5CTarget.5Crepo_projects.5CpRealEcu.5CcR_R2023.2E09.2E15.5Cmake.5Coutput.5Cobjects.5CWAlloc.317::
                        4356 .LDWlin317:
00000f6a 64c2           4357 	cmp	4,r24
00000f6c c905*          4358 	bnl	.L14396
                        4359 --line1413
                        4360 ..lin.C.3A.5C_ECU2.5CECU_Rivian_A1.5CTarget.5Crepo_projects.5CpRealEcu.5CcR_R2023.2E09.2E15.5Cmake.5Coutput.5Cobjects.5CWAlloc.318::
                        4361 .LDWlin318:

                                                                      Page 79
                                                              C:\Users\nhuliyap\AppData\Local\Temp\gh_00002rs1.s
00000f6e f8e9           4362 	cmp	r24,r29
00000f70 e1cf0000       4363 	setfl	r25
                        4364 .L14396:
00000f74 1950           4365 	mov	r25,r10
                        4366 --	    .ef
                        4367 .LDW541:
00000f76 4006fff0       4368 	dispose	0,{r24,r25,r26,r27,r28,r29,r31},[lp]
                        4369 	.global	___ghs_eofn_ucCheckPotentialErInZom
                        4370 ___ghs_eofn_ucCheckPotentialErInZom:
                        4371 	.type	_ucCheckPotentialErInZom,@function
                        4372 	.size	_ucCheckPotentialErInZom,.-_ucCheckPotentialErInZom
                        4373 	.align	2
                        4374 --_i	r27	local
                        4375 --_j	r26	local
                        4376 --_ucRet	r25	local
                        4377 --_ucNrPotentialErZom	r24	local
                        4378 --_ucNrHistoryErZom	r29	local
                        4379 
                        4380 	.data
                        4381 	.text
                        4382 	.align	2
                        4383 --_ucWACtrlFixc	_ucWACtrlFixc	static
                        4384 --_ucWACtrlBreakc	_ucWACtrlBreakc	static
                        4385 --_ucWAState	_ucWAState	static
                        4386 --_aulHistoryID	_aulHistoryID	static
                        4387 --_aucHistoryWP	_aucHistoryWP	static
                        4388 --_ucNrOfTOs	_ucNrOfTOs	static
                        4389 --_ushHistProtecTimeCnt	_ushHistProtecTimeCnt	static
                        4390 --_sm_ucWPConsistentErrCnt	_sm_ucWPConsistentErrCnt	static
                        4391 --_sm_ucAxisDetectionErrCnt	_sm_ucAxisDetectionErrCnt	static
                        4392 --_sm_ucDirDetectionErrCnt	_sm_ucDirDetectionErrCnt	static
                        4393 
                        4394 	.data
                        4395 	.section ".bss","awb"
                        4396 	.align	4
                        4397 	.global	_tZOM
00000018 000000000000   4398 _tZOM:	.space	512
0000001e 000000000000 
00000024 000000000000 
0000002a 000000000000 
00000030 000000000000 
00000036 000000000000 
0000003c 000000000000 
00000042 000000000000 
00000048 000000000000 
0000004e 000000000000 
00000054 000000000000 
0000005a 000000000000 
00000060 000000000000 
00000066 000000000000 
0000006c 000000000000 
00000072 000000000000 
00000078 000000000000 
0000007e 000000000000 
00000084 000000000000 
0000008a 000000000000 
00000090 000000000000 
00000096 000000000000 
0000009c 000000000000 
000000a2 000000000000 
000000a8 000000000000 

                                                                      Page 80
                                                              C:\Users\nhuliyap\AppData\Local\Temp\gh_00002rs1.s
000000ae 000000000000 
000000b4 000000000000 
000000ba 000000000000 
000000c0 000000000000 
000000c6 000000000000 
000000cc 000000000000 
000000d2 000000000000 
000000d8 000000000000 
000000de 000000000000 
000000e4 000000000000 
000000ea 000000000000 
000000f0 000000000000 
000000f6 000000000000 
000000fc 000000000000 
00000102 000000000000 
00000108 000000000000 
0000010e 000000000000 
00000114 00000000 
                        4399 	.type	_tZOM,@object
                        4400 	.size	_tZOM,512
                        4401 	.align	4
                        4402 	.global	_tWAPar
00000218 000000000000   4403 _tWAPar:	.space	28
0000021e 000000000000 
00000224 000000000000 
0000022a 000000000000 
00000230 00000000 
                        4404 	.type	_tWAPar,@object
                        4405 	.size	_tWAPar,28
                        4406 	.global	_tABSTicksOneRevol
00000234 0000           4407 _tABSTicksOneRevol:	.space	2
                        4408 	.type	_tABSTicksOneRevol,@object
                        4409 	.size	_tABSTicksOneRevol,2
                        4410 	.data
                        4411 	.ghsnote version,17
                        4412 	.ghsnote tools,3
                        4413 	.ghsnote options,144
                        4414 	.text
                        4415 	.align	2
                        4416 ..eof.C.3A.5C_ECU2.5CECU_Rivian_A1.5CTarget.5Crepo_projects.5CpRealEcu.5CcR_R2023.2E09.2E15.5Cmake.5Coutput.5Cobjects.5CWAlloc...43.3A.5C_ECU2.5CECU_Rivian_A1.5CTarget.5Crepo_projects.5CpRealEcu.5CcR_R2023.2E09.2E15.5Cmake..65045C92..0::
                        4417 	.section	.debug_info
                        4418 .Ldw_begin:
00000000 482e0000       4419 	.word	.Ldw_end-.Ldw_begin-4
00000004 0200           4420 	.byte	2,0
00000006 00000000*      4421 	.word	.Ldw_abbr_begin
0000000a 04             4422 	.byte	4
                        4423 	.section	.debug_abbrev
                        4424 .Ldw_abbr_begin:
                        4425 	.section	.debug_info
0000000b 01             4426 	.byte	1
0000000c 00000000*      4427 	.word	..bof.C.3A.5C_ECU2.5CECU_Rivian_A1.5CTarget.5Crepo_projects.5CpRealEcu.5CcR_R2023.2E09.2E15.5Cmake.5Coutput.5Cobjects.5CWAlloc...43.3A.5C_ECU2.5CECU_Rivian_A1.5CTarget.5Crepo_projects.5CpRealEcu.5CcR_R2023.2E09.2E15.5Cmake..65045C92..0
00000010 00000000*      4428 	.word	..eof.C.3A.5C_ECU2.5CECU_Rivian_A1.5CTarget.5Crepo_projects.5CpRealEcu.5CcR_R2023.2E09.2E15.5Cmake.5Coutput.5Cobjects.5CWAlloc...43.3A.5C_ECU2.5CECU_Rivian_A1.5CTarget.5Crepo_projects.5CpRealEcu.5CcR_R2023.2E09.2E15.5Cmake..65045C92..0
00000014 2e2e2f736f75   4429 	.strz	"../source/SwcApplTpms/WAlloc.c"
0000001a 7263652f5377 
00000020 634170706c54 
00000026 706d732f5741 
0000002c 6c6c6f632e63 
00000032 00 
00000033 433a5c5f4543   4430 	.strz	"C:\\_ECU2\\ECU_Rivian_A1\\Target\\repo_projects\\pRealEcu\\cR_R2023.09.15\\make"
00000039 55325c454355 
0000003f 5f5269766961 

                                                                      Page 81
                                                              C:\Users\nhuliyap\AppData\Local\Temp\gh_00002rs1.s
00000045 6e5f41315c54 
0000004b 61726765745c 
00000051 7265706f5f70 
00000057 726f6a656374 
0000005d 735c70526561 
00000063 6c4563755c63 
00000069 525f52323032 
0000006f 332e30392e31 
00000075 355c6d616b65 
0000007b 00 
0000007c 474853204320   4431 	.strz	"GHS C 2015.1.7 [dual]"
00000082 323031352e31 
00000088 2e37205b6475 
0000008e 616c5d00 
00000092 0100           4432 	.byte	1,0
00000094 00000000*      4433 	.word	.Ldw_line_begin
00000098 00000000*      4434 	.word	.Ldw_macinfo_begin
0000009c 00             4435 	.byte	0
                        4436 
                        4437 	.section	.debug_abbrev
00000000 01             4438 	.byte	1
00000001 11             4439 	.byte	17
00000002 01             4440 	.byte	1
00000003 1101           4441 	.byte	17,1
00000005 1201           4442 	.byte	18,1
00000007 0308           4443 	.byte	3,8
00000009 1b08           4444 	.byte	27,8
0000000b 2508           4445 	.byte	37,8
0000000d 1305           4446 	.byte	19,5
0000000f 1006           4447 	.byte	16,6
00000011 4306           4448 	.byte	67,6
00000013 420b           4449 	.byte	66,11
00000015 0000           4450 	.byte	0,0
                        4451 
                        4452 	.section	.debug_line
                        4453 .Ldw_line_begin:
00000000 111a0000       4454 	.word	.Ldw_line_end-.Ldw_line_begin-4
00000004 0200           4455 	.byte	2,0
00000006 00000000*      4456 	.word	.Ldw_lpro_end-.Ldw_lpro_begin
                        4457 .Ldw_lpro_begin:
0000000a 01             4458 	.byte	1
0000000b 00             4459 	.byte	0
0000000c 00             4460 	.byte	0
0000000d 04             4461 	.byte	4
0000000e 0a             4462 	.byte	10
0000000f 000101         4463 	.byte	0,1,1
00000012 010100         4464 	.byte	1,1,0
00000015 000001         4465 	.byte	0,0,1
00000018 00             4466 	.byte	0
00000019 2e2e2f736f75   4467 	.strz	"../source/SwcApplTpms/WAlloc.c"
0000001f 7263652f5377 
00000025 634170706c54 
0000002b 706d732f5741 
00000031 6c6c6f632e63 
00000037 00 
00000038 000000         4468 	.byte	0,0,0
0000003b 2e2e2f736f75   4469 	.strz	"../source/common/Std_Types.hpp"
00000041 7263652f636f 
00000047 6d6d6f6e2f53 
0000004d 74645f547970 
00000053 65732e687070 

                                                                      Page 82
                                                              C:\Users\nhuliyap\AppData\Local\Temp\gh_00002rs1.s
00000059 00 
0000005a 000000         4470 	.byte	0,0,0
0000005d 2e2e2f736f75   4471 	.strz	"../source/common/Platform_Types.hpp"
00000063 7263652f636f 
00000069 6d6d6f6e2f50 
0000006f 6c6174666f72 
00000075 6d5f54797065 
0000007b 732e68707000 
00000081 000000         4472 	.byte	0,0,0
00000084 2e2e2f736f75   4473 	.strz	"../source/common/Compiler.hpp"
0000008a 7263652f636f 
00000090 6d6d6f6e2f43 
00000096 6f6d70696c65 
0000009c 722e68707000 
000000a2 000000         4474 	.byte	0,0,0
000000a5 2e2e2f736f75   4475 	.strz	"../source/ProjectCompiler/Compiler_Cfg.hpp"
000000ab 7263652f5072 
000000b1 6f6a65637443 
000000b7 6f6d70696c65 
000000bd 722f436f6d70 
000000c3 696c65725f43 
000000c9 66672e687070 
000000cf 00 
000000d0 000000         4476 	.byte	0,0,0
000000d3 2e2e2f736f75   4477 	.strz	"../source/ProjectCompiler/CompilerCfg_SwcServiceOs.hpp"
000000d9 7263652f5072 
000000df 6f6a65637443 
000000e5 6f6d70696c65 
000000eb 722f436f6d70 
000000f1 696c65724366 
000000f7 675f53776353 
000000fd 657276696365 
00000103 4f732e687070 
00000109 00 
0000010a 000000         4478 	.byte	0,0,0
0000010d 2e2e2f736f75   4479 	.strz	"../source/SwcApplTpms/iTpms_Interface.hpp"
00000113 7263652f5377 
00000119 634170706c54 
0000011f 706d732f6954 
00000125 706d735f496e 
0000012b 746572666163 
00000131 652e68707000 
00000137 000000         4480 	.byte	0,0,0
0000013a 2e2e2f736f75   4481 	.strz	"../source/SwcApplTpms/Tpms_Rte_Data_Type.hpp"
00000140 7263652f5377 
00000146 634170706c54 
0000014c 706d732f5470 
00000152 6d735f527465 
00000158 5f446174615f 
0000015e 547970652e68 
00000164 707000 
00000167 000000         4482 	.byte	0,0,0
0000016a 2e2e2f736f75   4483 	.strz	"../source/McalMcu/Types.hpp"
00000170 7263652f4d63 
00000176 616c4d63752f 
0000017c 54797065732e 
00000182 68707000 
00000186 000000         4484 	.byte	0,0,0
00000189 2e2e2f736f75   4485 	.strz	"../source/SwcApplTpms/SwcApplTpms_Rte.hpp"
0000018f 7263652f5377 
00000195 634170706c54 

                                                                      Page 83
                                                              C:\Users\nhuliyap\AppData\Local\Temp\gh_00002rs1.s
0000019b 706d732f5377 
000001a1 634170706c54 
000001a7 706d735f5274 
000001ad 652e68707000 
000001b3 000000         4486 	.byte	0,0,0
000001b6 2e2e2f736f75   4487 	.strz	"../source/SwcApplTpms/SwcApplTpms_Rte_Type.hpp"
000001bc 7263652f5377 
000001c2 634170706c54 
000001c8 706d732f5377 
000001ce 634170706c54 
000001d4 706d735f5274 
000001da 655f54797065 
000001e0 2e68707000 
000001e5 000000         4488 	.byte	0,0,0
000001e8 2e2e2f736f75   4489 	.strz	"../source/SwcApplTpms/WallocX.hpp"
000001ee 7263652f5377 
000001f4 634170706c54 
000001fa 706d732f5761 
00000200 6c6c6f63582e 
00000206 68707000 
0000020a 000000         4490 	.byte	0,0,0
0000020d 2e2e2f736f75   4491 	.strz	"../source/SwcApplTpms/Walloc_IF.hpp"
00000213 7263652f5377 
00000219 634170706c54 
0000021f 706d732f5761 
00000225 6c6c6f635f49 
0000022b 462e68707000 
00000231 000000         4492 	.byte	0,0,0
00000234 2e2e2f736f75   4493 	.strz	"../source/SwcApplTpms/cd_decoder_x.hpp"
0000023a 7263652f5377 
00000240 634170706c54 
00000246 706d732f6364 
0000024c 5f6465636f64 
00000252 65725f782e68 
00000258 707000 
0000025b 000000         4494 	.byte	0,0,0
0000025e 2e2e2f736f75   4495 	.strz	"../source/SwcApplTpms/walloc.hpp"
00000264 7263652f5377 
0000026a 634170706c54 
00000270 706d732f7761 
00000276 6c6c6f632e68 
0000027c 707000 
0000027f 000000         4496 	.byte	0,0,0
00000282 2e2e2f736f75   4497 	.strz	"../source/SwcApplTpms/FPA.hpp"
00000288 7263652f5377 
0000028e 634170706c54 
00000294 706d732f4650 
0000029a 412e68707000 
000002a0 000000         4498 	.byte	0,0,0
000002a3 2e2e2f736f75   4499 	.strz	"../source/ProjectCfg/CfgSwcApplTpms.hpp"
000002a9 7263652f5072 
000002af 6f6a65637443 
000002b5 66672f436667 
000002bb 537763417070 
000002c1 6c54706d732e 
000002c7 68707000 
000002cb 000000         4500 	.byte	0,0,0
000002ce 2e2e2f736f75   4501 	.strz	"../source/SwcApplTpms/procdatx.hpp"
000002d4 7263652f5377 
000002da 634170706c54 
000002e0 706d732f7072 

                                                                      Page 84
                                                              C:\Users\nhuliyap\AppData\Local\Temp\gh_00002rs1.s
000002e6 6f6364617478 
000002ec 2e68707000 
000002f1 000000         4502 	.byte	0,0,0
000002f4 2e2e2f736f75   4503 	.strz	"../source/SwcApplTpms/tss_stdx.hpp"
000002fa 7263652f5377 
00000300 634170706c54 
00000306 706d732f7473 
0000030c 735f73746478 
00000312 2e68707000 
00000317 000000         4504 	.byte	0,0,0
0000031a 2e2e2f736f75   4505 	.strz	"../source/SwcApplTpms/state_bzX.hpp"
00000320 7263652f5377 
00000326 634170706c54 
0000032c 706d732f7374 
00000332 6174655f627a 
00000338 582e68707000 
0000033e 000000         4506 	.byte	0,0,0
00000341 2e2e2f736f75   4507 	.strz	"../source/SwcApplTpms/statemanagerX.hpp"
00000347 7263652f5377 
0000034d 634170706c54 
00000353 706d732f7374 
00000359 6174656d616e 
0000035f 61676572582e 
00000365 68707000 
00000369 000000         4508 	.byte	0,0,0
0000036c 2e2e2f736f75   4509 	.strz	"../source/SwcApplTpms/global.hpp"
00000372 7263652f5377 
00000378 634170706c54 
0000037e 706d732f676c 
00000384 6f62616c2e68 
0000038a 707000 
0000038d 000000         4510 	.byte	0,0,0
00000390 2e2e2f736f75   4511 	.strz	"../source/SwcApplTpms/uswarn_Ifx.hpp"
00000396 7263652f5377 
0000039c 634170706c54 
000003a2 706d732f7573 
000003a8 7761726e5f49 
000003ae 66782e687070 
000003b4 00 
000003b5 000000         4512 	.byte	0,0,0
000003b8 2e2e2f736f75   4513 	.strz	"../source/SwcApplTpms/uswarnX.hpp"
000003be 7263652f5377 
000003c4 634170706c54 
000003ca 706d732f7573 
000003d0 7761726e582e 
000003d6 68707000 
000003da 000000         4514 	.byte	0,0,0
000003dd 2e2e2f736f75   4515 	.strz	"../source/ProjectCfg/SwcApplTpms_NvM_If.hpp"
000003e3 7263652f5072 
000003e9 6f6a65637443 
000003ef 66672f537763 
000003f5 4170706c5470 
000003fb 6d735f4e764d 
00000401 5f49662e6870 
00000407 7000 
00000409 000000         4516 	.byte	0,0,0
0000040c 2e2e2f736f75   4517 	.strz	"../source/SwcApplTpms/SwcApplTpms_DevCanMesReqInterfaces.hpp"
00000412 7263652f5377 
00000418 634170706c54 
0000041e 706d732f5377 
00000424 634170706c54 

                                                                      Page 85
                                                              C:\Users\nhuliyap\AppData\Local\Temp\gh_00002rs1.s
0000042a 706d735f4465 
00000430 7643616e4d65 
00000436 73526571496e 
0000043c 746572666163 
00000442 65732e687070 
00000448 00 
00000449 000000         4518 	.byte	0,0,0
0000044c 00             4519 	.byte	0
                        4520 .Ldw_lpro_end:
                        4521 	.section	.debug_macinfo
                        4522 .Ldw_macinfo_begin:
                        4523 	.section	.debug_frame
                        4524 .LDW_4da5d48:
00000000 00000000*      4525 	.word	.LDW_unq_2-.LDW_unq_1
                        4526 .LDW_unq_1:
00000004 ffffffff       4527 	.byte	255,255,255,255
00000008 01             4528 	.byte	1
00000009 00             4529 	.byte	0
0000000a 01             4530 	.byte	1
0000000b 01             4531 	.byte	1
0000000c 1f             4532 	.byte	31
0000000d 0c             4533 	.byte	12
0000000e 03             4534 	.byte	3
0000000f 00             4535 	.byte	0
00000010 07             4536 	.byte	7
00000011 00             4537 	.byte	0
00000012 07             4538 	.byte	7
00000013 01             4539 	.byte	1
00000014 07             4540 	.byte	7
00000015 02             4541 	.byte	2
00000016 07             4542 	.byte	7
00000017 03             4543 	.byte	3
00000018 07             4544 	.byte	7
00000019 04             4545 	.byte	4
0000001a 07             4546 	.byte	7
0000001b 05             4547 	.byte	5
0000001c 07             4548 	.byte	7
0000001d 06             4549 	.byte	6
0000001e 07             4550 	.byte	7
0000001f 07             4551 	.byte	7
00000020 07             4552 	.byte	7
00000021 08             4553 	.byte	8
00000022 07             4554 	.byte	7
00000023 09             4555 	.byte	9
00000024 07             4556 	.byte	7
00000025 0a             4557 	.byte	10
00000026 07             4558 	.byte	7
00000027 0b             4559 	.byte	11
00000028 07             4560 	.byte	7
00000029 0c             4561 	.byte	12
0000002a 07             4562 	.byte	7
0000002b 0d             4563 	.byte	13
0000002c 07             4564 	.byte	7
0000002d 0e             4565 	.byte	14
0000002e 07             4566 	.byte	7
0000002f 0f             4567 	.byte	15
00000030 07             4568 	.byte	7
00000031 10             4569 	.byte	16
00000032 07             4570 	.byte	7
00000033 11             4571 	.byte	17
00000034 07             4572 	.byte	7

                                                                      Page 86
                                                              C:\Users\nhuliyap\AppData\Local\Temp\gh_00002rs1.s
00000035 12             4573 	.byte	18
00000036 07             4574 	.byte	7
00000037 13             4575 	.byte	19
00000038 08             4576 	.byte	8
00000039 14             4577 	.byte	20
0000003a 08             4578 	.byte	8
0000003b 15             4579 	.byte	21
0000003c 08             4580 	.byte	8
0000003d 16             4581 	.byte	22
0000003e 08             4582 	.byte	8
0000003f 17             4583 	.byte	23
00000040 08             4584 	.byte	8
00000041 18             4585 	.byte	24
00000042 08             4586 	.byte	8
00000043 19             4587 	.byte	25
00000044 08             4588 	.byte	8
00000045 1a             4589 	.byte	26
00000046 08             4590 	.byte	8
00000047 1b             4591 	.byte	27
00000048 08             4592 	.byte	8
00000049 1c             4593 	.byte	28
0000004a 08             4594 	.byte	8
0000004b 1d             4595 	.byte	29
0000004c 07             4596 	.byte	7
0000004d 1e             4597 	.byte	30
0000004e 08             4598 	.byte	8
0000004f 1f             4599 	.byte	31
00000050 07             4600 	.byte	7
00000051 20             4601 	.byte	32
00000052 07             4602 	.byte	7
00000053 21             4603 	.byte	33
00000054 07             4604 	.byte	7
00000055 22             4605 	.byte	34
00000056 07             4606 	.byte	7
00000057 23             4607 	.byte	35
00000058 07             4608 	.byte	7
00000059 24             4609 	.byte	36
0000005a 07             4610 	.byte	7
0000005b 25             4611 	.byte	37
0000005c 07             4612 	.byte	7
0000005d 26             4613 	.byte	38
0000005e 07             4614 	.byte	7
0000005f 27             4615 	.byte	39
00000060 07             4616 	.byte	7
00000061 28             4617 	.byte	40
00000062 07             4618 	.byte	7
00000063 29             4619 	.byte	41
00000064 07             4620 	.byte	7
00000065 2a             4621 	.byte	42
00000066 07             4622 	.byte	7
00000067 2b             4623 	.byte	43
00000068 07             4624 	.byte	7
00000069 2c             4625 	.byte	44
0000006a 07             4626 	.byte	7
0000006b 2d             4627 	.byte	45
0000006c 07             4628 	.byte	7
0000006d 2e             4629 	.byte	46
0000006e 07             4630 	.byte	7
0000006f 2f             4631 	.byte	47
00000070 07             4632 	.byte	7
00000071 30             4633 	.byte	48

                                                                      Page 87
                                                              C:\Users\nhuliyap\AppData\Local\Temp\gh_00002rs1.s
00000072 07             4634 	.byte	7
00000073 31             4635 	.byte	49
00000074 07             4636 	.byte	7
00000075 32             4637 	.byte	50
00000076 07             4638 	.byte	7
00000077 33             4639 	.byte	51
00000078 07             4640 	.byte	7
00000079 34             4641 	.byte	52
0000007a 07             4642 	.byte	7
0000007b 35             4643 	.byte	53
0000007c 07             4644 	.byte	7
0000007d 36             4645 	.byte	54
0000007e 07             4646 	.byte	7
0000007f 37             4647 	.byte	55
00000080 07             4648 	.byte	7
00000081 38             4649 	.byte	56
00000082 07             4650 	.byte	7
00000083 39             4651 	.byte	57
00000084 07             4652 	.byte	7
00000085 3a             4653 	.byte	58
00000086 07             4654 	.byte	7
00000087 3b             4655 	.byte	59
00000088 07             4656 	.byte	7
00000089 3c             4657 	.byte	60
0000008a 07             4658 	.byte	7
0000008b 3d             4659 	.byte	61
0000008c 07             4660 	.byte	7
0000008d 3e             4661 	.byte	62
0000008e 07             4662 	.byte	7
0000008f 3f             4663 	.byte	63
                        4664 .LDW_unq_2:
                        4665 	.section	.debug_info
                        4666 .LDW_4946da0:
0000009d 25             4667 	.byte	37
0000009e 756e7369676e   4668 	.strz	"unsigned char"
000000a4 656420636861 
000000aa 7200 
000000ac 08             4669 	.byte	8
000000ad 01             4670 	.byte	1
                        4671 
                        4672 	.section	.debug_abbrev
00000017 25             4673 	.byte	37
00000018 24             4674 	.byte	36
00000019 00             4675 	.byte	0
0000001a 0308           4676 	.byte	3,8
0000001c 3e0b           4677 	.byte	62,11
0000001e 0b0b           4678 	.byte	11,11
00000020 0000           4679 	.byte	0,0
                        4680 
                        4681 	.section	.debug_info
                        4682 .LDW_4946f28:
000000ae 45             4683 	.byte	69
000000af 01             4684 	.byte	1
                        4685 
                        4686 	.section	.debug_abbrev
00000022 45             4687 	.byte	69
00000023 15             4688 	.byte	21
00000024 01             4689 	.byte	1
00000025 270c           4690 	.byte	39,12
00000027 0000           4691 	.byte	0,0
                        4692 

                                                                      Page 88
                                                              C:\Users\nhuliyap\AppData\Local\Temp\gh_00002rs1.s
                        4693 	.section	.debug_info
                        4694 .LDW_49418d8:
000000b0 12             4695 	.byte	18
000000b1 00000000*      4696 	.word	.LDW_4946da0
000000b5 00             4697 	.byte	0
                        4698 
                        4699 	.section	.debug_abbrev
00000029 12             4700 	.byte	18
0000002a 05             4701 	.byte	5
0000002b 00             4702 	.byte	0
0000002c 4910           4703 	.byte	73,16
0000002e 4b0c           4704 	.byte	75,12
00000030 0000           4705 	.byte	0,0
                        4706 
                        4707 	.section	.debug_info
000000b6 00             4708 	.byte	0
                        4709 
                        4710 .LDW_4946a20:
000000b7 44             4711 	.byte	68
000000b8 00000000*      4712 	.word	.LDW_4946da0
000000bc 01             4713 	.byte	1
                        4714 
                        4715 	.section	.debug_abbrev
00000032 44             4716 	.byte	68
00000033 15             4717 	.byte	21
00000034 01             4718 	.byte	1
00000035 4910           4719 	.byte	73,16
00000037 270c           4720 	.byte	39,12
00000039 0000           4721 	.byte	0,0
                        4722 
                        4723 	.section	.debug_info
000000bd 00             4724 	.byte	0
                        4725 
                        4726 .LDW_4946f60:
000000be 45             4727 	.byte	69
000000bf 01             4728 	.byte	1
                        4729 
                        4730 .LDW_49418a8:
000000c0 12             4731 	.byte	18
000000c1 00000000*      4732 	.word	.LDW_4946da0
000000c5 00             4733 	.byte	0
                        4734 
000000c6 00             4735 	.byte	0
                        4736 
                        4737 .LDW_4946e10:
000000c7 44             4738 	.byte	68
000000c8 00000000*      4739 	.word	.LDW_4946da0
000000cc 01             4740 	.byte	1
                        4741 
000000cd 00             4742 	.byte	0
                        4743 
                        4744 .LDW_4946ef0:
000000ce 45             4745 	.byte	69
000000cf 01             4746 	.byte	1
                        4747 
                        4748 .LDW_4941968:
000000d0 12             4749 	.byte	18
000000d1 00000000*      4750 	.word	.LDW_4946da0
000000d5 00             4751 	.byte	0
                        4752 
000000d6 00             4753 	.byte	0

                                                                      Page 89
                                                              C:\Users\nhuliyap\AppData\Local\Temp\gh_00002rs1.s
                        4754 
                        4755 .LDW_4946c50:
000000d7 44             4756 	.byte	68
000000d8 00000000*      4757 	.word	.LDW_4946da0
000000dc 01             4758 	.byte	1
                        4759 
000000dd 00             4760 	.byte	0
                        4761 
                        4762 .LDW_4947078:
000000de 45             4763 	.byte	69
000000df 01             4764 	.byte	1
                        4765 
                        4766 .LDW_4dcc220:
000000e0 12             4767 	.byte	18
000000e1 00000000*      4768 	.word	.LDW_4946da0
000000e5 00             4769 	.byte	0
                        4770 
000000e6 00             4771 	.byte	0
                        4772 
                        4773 .LDW_4946a58:
000000e7 45             4774 	.byte	69
000000e8 01             4775 	.byte	1
                        4776 
                        4777 .LDW_4dcbfb0:
000000e9 12             4778 	.byte	18
000000ea 00000000*      4779 	.word	.LDW_4946da0
000000ee 00             4780 	.byte	0
                        4781 
000000ef 00             4782 	.byte	0
                        4783 
                        4784 .LDW_4946d68:
000000f0 45             4785 	.byte	69
000000f1 01             4786 	.byte	1
                        4787 
000000f2 00             4788 	.byte	0
                        4789 
                        4790 .LDW_4946f98:
000000f3 25             4791 	.byte	37
000000f4 756e7369676e   4792 	.strz	"unsigned long"
000000fa 6564206c6f6e 
00000100 6700 
00000102 07             4793 	.byte	7
00000103 04             4794 	.byte	4
                        4795 
                        4796 .LDW_4946e48:
00000104 44             4797 	.byte	68
00000105 00000000*      4798 	.word	.LDW_4946f98
00000109 01             4799 	.byte	1
                        4800 
                        4801 .LDW_4dcc4c0:
0000010a 12             4802 	.byte	18
0000010b 00000000*      4803 	.word	.LDW_4946da0
0000010f 00             4804 	.byte	0
                        4805 
00000110 00             4806 	.byte	0
                        4807 
                        4808 .LDW_4946a90:
00000111 44             4809 	.byte	68
00000112 00000000*      4810 	.word	.LDW_4946f98
00000116 01             4811 	.byte	1
                        4812 

                                                                      Page 90
                                                              C:\Users\nhuliyap\AppData\Local\Temp\gh_00002rs1.s
                        4813 .LDW_4dcc2e0:
00000117 12             4814 	.byte	18
00000118 00000000*      4815 	.word	.LDW_4946da0
0000011c 00             4816 	.byte	0
                        4817 
0000011d 00             4818 	.byte	0
                        4819 
                        4820 .LDW_4946e80:
0000011e 2f             4821 	.byte	47
0000011f 00000000*      4822 	.word	.LDW_4946f98
                        4823 
                        4824 	.section	.debug_abbrev
0000003b 2f             4825 	.byte	47
0000003c 0f             4826 	.byte	15
0000003d 00             4827 	.byte	0
0000003e 4910           4828 	.byte	73,16
00000040 0000           4829 	.byte	0,0
                        4830 
                        4831 	.section	.debug_info
                        4832 .LDW_4946dd8:
00000123 45             4833 	.byte	69
00000124 01             4834 	.byte	1
                        4835 
                        4836 .LDW_4dcc160:
00000125 12             4837 	.byte	18
00000126 00000000*      4838 	.word	.LDW_4946da0
0000012a 00             4839 	.byte	0
                        4840 
                        4841 .LDW_4dcc520:
0000012b 12             4842 	.byte	18
0000012c 00000000*      4843 	.word	.LDW_4946e80
00000130 00             4844 	.byte	0
                        4845 
00000131 00             4846 	.byte	0
                        4847 
                        4848 .LDW_4946be0:
00000132 44             4849 	.byte	68
00000133 00000000*      4850 	.word	.LDW_4946da0
00000137 01             4851 	.byte	1
                        4852 
                        4853 .LDW_4dcc070:
00000138 12             4854 	.byte	18
00000139 00000000*      4855 	.word	.LDW_4946da0
0000013d 00             4856 	.byte	0
                        4857 
0000013e 00             4858 	.byte	0
                        4859 
                        4860 .LDW_4946fd0:
0000013f 44             4861 	.byte	68
00000140 00000000*      4862 	.word	.LDW_4946da0
00000144 01             4863 	.byte	1
                        4864 
                        4865 .LDW_4dcc3a0:
00000145 12             4866 	.byte	18
00000146 00000000*      4867 	.word	.LDW_4946da0
0000014a 00             4868 	.byte	0
                        4869 
0000014b 00             4870 	.byte	0
                        4871 
                        4872 .LDW_4946ba8:
0000014c 45             4873 	.byte	69

                                                                      Page 91
                                                              C:\Users\nhuliyap\AppData\Local\Temp\gh_00002rs1.s
0000014d 01             4874 	.byte	1
                        4875 
                        4876 .LDW_4dcc0a0:
0000014e 12             4877 	.byte	18
0000014f 00000000*      4878 	.word	.LDW_4946da0
00000153 00             4879 	.byte	0
                        4880 
                        4881 .LDW_4dcc4f0:
00000154 12             4882 	.byte	18
00000155 00000000*      4883 	.word	.LDW_4946da0
00000159 00             4884 	.byte	0
                        4885 
0000015a 00             4886 	.byte	0
                        4887 
                        4888 .LDW_4946ac8:
0000015b 25             4889 	.byte	37
0000015c 756e7369676e   4890 	.strz	"unsigned short"
00000162 65642073686f 
00000168 727400 
0000016b 07             4891 	.byte	7
0000016c 02             4892 	.byte	2
                        4893 
                        4894 .LDW_4946c18:
0000016d 44             4895 	.byte	68
0000016e 00000000*      4896 	.word	.LDW_4946ac8
00000172 01             4897 	.byte	1
                        4898 
                        4899 .LDW_4dcbf80:
00000173 12             4900 	.byte	18
00000174 00000000*      4901 	.word	.LDW_4946da0
00000178 00             4902 	.byte	0
                        4903 
00000179 00             4904 	.byte	0
                        4905 
                        4906 .LDW_4947158:
0000017a 44             4907 	.byte	68
0000017b 00000000*      4908 	.word	.LDW_4946da0
0000017f 01             4909 	.byte	1
                        4910 
                        4911 .LDW_4dcc190:
00000180 12             4912 	.byte	18
00000181 00000000*      4913 	.word	.LDW_4946da0
00000185 00             4914 	.byte	0
                        4915 
                        4916 .LDW_4dcc460:
00000186 12             4917 	.byte	18
00000187 00000000*      4918 	.word	.LDW_4946da0
0000018b 00             4919 	.byte	0
                        4920 
0000018c 00             4921 	.byte	0
                        4922 
                        4923 .LDW_49470e8:
0000018d 44             4924 	.byte	68
0000018e 00000000*      4925 	.word	.LDW_4946da0
00000192 01             4926 	.byte	1
                        4927 
                        4928 .LDW_4dcc340:
00000193 12             4929 	.byte	18
00000194 00000000*      4930 	.word	.LDW_4946e80
00000198 00             4931 	.byte	0
                        4932 

                                                                      Page 92
                                                              C:\Users\nhuliyap\AppData\Local\Temp\gh_00002rs1.s
00000199 00             4933 	.byte	0
                        4934 
                        4935 .LDW_4947120:
0000019a 44             4936 	.byte	68
0000019b 00000000*      4937 	.word	.LDW_4dccb18
0000019f 01             4938 	.byte	1
                        4939 
                        4940 .LDW_4dcc010:
000001a0 12             4941 	.byte	18
000001a1 00000000*      4942 	.word	.LDW_4946da0
000001a5 00             4943 	.byte	0
                        4944 
000001a6 00             4945 	.byte	0
                        4946 
                        4947 .LDW_4dce5f8:
000001a7 44             4948 	.byte	68
000001a8 00000000*      4949 	.word	.LDW_4dccb18
000001ac 01             4950 	.byte	1
                        4951 
                        4952 .LDW_4dcc1c0:
000001ad 12             4953 	.byte	18
000001ae 00000000*      4954 	.word	.LDW_4946da0
000001b2 00             4955 	.byte	0
                        4956 
000001b3 00             4957 	.byte	0
                        4958 
                        4959 .LDW_4dce358:
000001b4 44             4960 	.byte	68
000001b5 00000000*      4961 	.word	.LDW_4946da0
000001b9 01             4962 	.byte	1
                        4963 
                        4964 .LDW_4dcc1f0:
000001ba 12             4965 	.byte	18
000001bb 00000000*      4966 	.word	.LDW_4946e80
000001bf 00             4967 	.byte	0
                        4968 
000001c0 00             4969 	.byte	0
                        4970 
                        4971 .LDW_4dcdf68:
000001c1 44             4972 	.byte	68
000001c2 00000000*      4973 	.word	.LDW_4946da0
000001c6 01             4974 	.byte	1
                        4975 
                        4976 .LDW_4dcc5e0:
000001c7 12             4977 	.byte	18
000001c8 00000000*      4978 	.word	.LDW_4946da0
000001cc 00             4979 	.byte	0
                        4980 
000001cd 00             4981 	.byte	0
                        4982 
                        4983 .LDW_4dce630:
000001ce 44             4984 	.byte	68
000001cf 00000000*      4985 	.word	.LDW_4946da0
000001d3 01             4986 	.byte	1
                        4987 
                        4988 .LDW_4dcc6a0:
000001d4 12             4989 	.byte	18
000001d5 00000000*      4990 	.word	.LDW_4946da0
000001d9 00             4991 	.byte	0
                        4992 
000001da 00             4993 	.byte	0

                                                                      Page 93
                                                              C:\Users\nhuliyap\AppData\Local\Temp\gh_00002rs1.s
                        4994 
                        4995 .LDW_4dcdfa0:
000001db 44             4996 	.byte	68
000001dc 00000000*      4997 	.word	.LDW_4946da0
000001e0 01             4998 	.byte	1
                        4999 
000001e1 00             5000 	.byte	0
                        5001 
                        5002 .LDW_4dce518:
000001e2 44             5003 	.byte	68
000001e3 00000000*      5004 	.word	.LDW_4946da0
000001e7 01             5005 	.byte	1
                        5006 
000001e8 00             5007 	.byte	0
                        5008 
                        5009 .LDW_4dcdfd8:
000001e9 45             5010 	.byte	69
000001ea 01             5011 	.byte	1
                        5012 
                        5013 .LDW_4dcc6d0:
000001eb 12             5014 	.byte	18
000001ec 00000000*      5015 	.word	.LDW_4946ac8
000001f0 00             5016 	.byte	0
                        5017 
000001f1 00             5018 	.byte	0
                        5019 
                        5020 .LDW_4dce550:
000001f2 44             5021 	.byte	68
000001f3 00000000*      5022 	.word	.LDW_4946da0
000001f7 01             5023 	.byte	1
                        5024 
                        5025 .LDW_4dcc580:
000001f8 12             5026 	.byte	18
000001f9 00000000*      5027 	.word	.LDW_4946ac8
000001fd 00             5028 	.byte	0
                        5029 
000001fe 00             5030 	.byte	0
                        5031 
                        5032 .LDW_4dce010:
000001ff 44             5033 	.byte	68
00000200 00000000*      5034 	.word	.LDW_4946da0
00000204 01             5035 	.byte	1
                        5036 
                        5037 .LDW_4de0110:
00000205 12             5038 	.byte	18
00000206 00000000*      5039 	.word	.LDW_4946da0
0000020a 00             5040 	.byte	0
                        5041 
                        5042 .LDW_4de00e0:
0000020b 12             5043 	.byte	18
0000020c 00000000*      5044 	.word	.LDW_4946da0
00000210 00             5045 	.byte	0
                        5046 
00000211 00             5047 	.byte	0
                        5048 
                        5049 .LDW_4dce048:
00000212 44             5050 	.byte	68
00000213 00000000*      5051 	.word	.LDW_4946ac8
00000217 01             5052 	.byte	1
                        5053 
                        5054 .LDW_4ddfde0:

                                                                      Page 94
                                                              C:\Users\nhuliyap\AppData\Local\Temp\gh_00002rs1.s
00000218 12             5055 	.byte	18
00000219 00000000*      5056 	.word	.LDW_4946da0
0000021d 00             5057 	.byte	0
                        5058 
0000021e 00             5059 	.byte	0
                        5060 
                        5061 .LDW_4dce198:
0000021f 45             5062 	.byte	69
00000220 01             5063 	.byte	1
                        5064 
                        5065 .LDW_4de0140:
00000221 12             5066 	.byte	18
00000222 00000000*      5067 	.word	.LDW_4946da0
00000226 00             5068 	.byte	0
                        5069 
00000227 00             5070 	.byte	0
                        5071 
                        5072 .LDW_4dce320:
00000228 44             5073 	.byte	68
00000229 00000000*      5074 	.word	.LDW_4946ac8
0000022d 01             5075 	.byte	1
                        5076 
0000022e 00             5077 	.byte	0
                        5078 
                        5079 .LDW_4dce3c8:
0000022f 44             5080 	.byte	68
00000230 00000000*      5081 	.word	.LDW_4946da0
00000234 01             5082 	.byte	1
                        5083 
00000235 00             5084 	.byte	0
                        5085 
                        5086 .LDW_4dce390:
00000236 44             5087 	.byte	68
00000237 00000000*      5088 	.word	.LDW_4946da0
0000023b 01             5089 	.byte	1
                        5090 
                        5091 .LDW_4ddfea0:
0000023c 12             5092 	.byte	18
0000023d 00000000*      5093 	.word	.LDW_4946ac8
00000241 00             5094 	.byte	0
                        5095 
00000242 00             5096 	.byte	0
                        5097 
                        5098 .LDW_4dce0f0:
00000243 44             5099 	.byte	68
00000244 00000000*      5100 	.word	.LDW_4946ac8
00000248 01             5101 	.byte	1
                        5102 
                        5103 .LDW_4ddff90:
00000249 12             5104 	.byte	18
0000024a 00000000*      5105 	.word	.LDW_4946e80
0000024e 00             5106 	.byte	0
                        5107 
                        5108 .LDW_4de0170:
0000024f 12             5109 	.byte	18
00000250 00000000*      5110 	.word	.LDW_4946da0
00000254 00             5111 	.byte	0
                        5112 
                        5113 .LDW_4de02f0:
00000255 12             5114 	.byte	18
00000256 00000000*      5115 	.word	.LDW_4946da0

                                                                      Page 95
                                                              C:\Users\nhuliyap\AppData\Local\Temp\gh_00002rs1.s
0000025a 00             5116 	.byte	0
                        5117 
0000025b 00             5118 	.byte	0
                        5119 
                        5120 .LDW_4dce080:
0000025c 2f             5121 	.byte	47
0000025d 00000000*      5122 	.word	.LDW_4dce878
                        5123 
                        5124 .LDW_4dce2e8:
00000261 45             5125 	.byte	69
00000262 01             5126 	.byte	1
                        5127 
                        5128 .LDW_4de0200:
00000263 12             5129 	.byte	18
00000264 00000000*      5130 	.word	.LDW_4dce080
00000268 00             5131 	.byte	0
                        5132 
                        5133 .LDW_4ddfed0:
00000269 12             5134 	.byte	18
0000026a 00000000*      5135 	.word	.LDW_4946da0
0000026e 00             5136 	.byte	0
                        5137 
0000026f 00             5138 	.byte	0
                        5139 
                        5140 .LDW_4dce0b8:
00000270 2f             5141 	.byte	47
00000271 00000000*      5142 	.word	.LDW_4946da0
                        5143 
                        5144 .LDW_4dce208:
00000275 45             5145 	.byte	69
00000276 01             5146 	.byte	1
                        5147 
                        5148 .LDW_4ddfe10:
00000277 12             5149 	.byte	18
00000278 00000000*      5150 	.word	.LDW_4dce0b8
0000027c 00             5151 	.byte	0
                        5152 
0000027d 00             5153 	.byte	0
                        5154 
                        5155 .LDW_4dce400:
0000027e 2f             5156 	.byte	47
0000027f 00000000*      5157 	.word	.LDW_4dcf3d0
                        5158 
                        5159 .LDW_4dce128:
00000283 44             5160 	.byte	68
00000284 00000000*      5161 	.word	.LDW_4946da0
00000288 01             5162 	.byte	1
                        5163 
                        5164 .LDW_4de0230:
00000289 12             5165 	.byte	18
0000028a 00000000*      5166 	.word	.LDW_4dce080
0000028e 00             5167 	.byte	0
                        5168 
                        5169 .LDW_4de0290:
0000028f 12             5170 	.byte	18
00000290 00000000*      5171 	.word	.LDW_4dce400
00000294 00             5172 	.byte	0
                        5173 
00000295 00             5174 	.byte	0
                        5175 
                        5176 .LDW_4dce4a8:

                                                                      Page 96
                                                              C:\Users\nhuliyap\AppData\Local\Temp\gh_00002rs1.s
00000296 44             5177 	.byte	68
00000297 00000000*      5178 	.word	.LDW_4946da0
0000029b 01             5179 	.byte	1
                        5180 
                        5181 .LDW_4de02c0:
0000029c 12             5182 	.byte	18
0000029d 00000000*      5183 	.word	.LDW_4946da0
000002a1 00             5184 	.byte	0
                        5185 
000002a2 00             5186 	.byte	0
                        5187 
                        5188 .LDW_4dce588:
000002a3 45             5189 	.byte	69
000002a4 01             5190 	.byte	1
                        5191 
000002a5 00             5192 	.byte	0
                        5193 
                        5194 .LDW_4dce160:
000002a6 44             5195 	.byte	68
000002a7 00000000*      5196 	.word	.LDW_4946da0
000002ab 01             5197 	.byte	1
                        5198 
                        5199 .LDW_4ddff00:
000002ac 12             5200 	.byte	18
000002ad 00000000*      5201 	.word	.LDW_4dce080
000002b1 00             5202 	.byte	0
                        5203 
000002b2 00             5204 	.byte	0
                        5205 
                        5206 .LDW_4dce438:
000002b3 44             5207 	.byte	68
000002b4 00000000*      5208 	.word	.LDW_4946da0
000002b8 01             5209 	.byte	1
                        5210 
000002b9 00             5211 	.byte	0
                        5212 
                        5213 .LDW_4dce240:
000002ba 2f             5214 	.byte	47
000002bb 00000000*      5215 	.word	.LDW_4de0d08
                        5216 
                        5217 .LDW_4dce278:
000002bf 2f             5218 	.byte	47
000002c0 00000000*      5219 	.word	.LDW_4987d30
                        5220 
                        5221 .LDW_4dce1d0:
000002c4 44             5222 	.byte	68
000002c5 00000000*      5223 	.word	.LDW_4987d30
000002c9 01             5224 	.byte	1
                        5225 
                        5226 .LDW_4de00b0:
000002ca 12             5227 	.byte	18
000002cb 00000000*      5228 	.word	.LDW_4dce240
000002cf 00             5229 	.byte	0
                        5230 
                        5231 .LDW_4de05f0:
000002d0 12             5232 	.byte	18
000002d1 00000000*      5233 	.word	.LDW_4dce278
000002d5 00             5234 	.byte	0
                        5235 
000002d6 00             5236 	.byte	0
                        5237 

                                                                      Page 97
                                                              C:\Users\nhuliyap\AppData\Local\Temp\gh_00002rs1.s
                        5238 .LDW_4dce2b0:
000002d7 44             5239 	.byte	68
000002d8 00000000*      5240 	.word	.LDW_4946da0
000002dc 01             5241 	.byte	1
                        5242 
000002dd 00             5243 	.byte	0
                        5244 
                        5245 .LDW_4dce470:
000002de 44             5246 	.byte	68
000002df 00000000*      5247 	.word	.LDW_4946da0
000002e3 01             5248 	.byte	1
                        5249 
000002e4 00             5250 	.byte	0
                        5251 
                        5252 .LDW_4dce4e0:
000002e5 44             5253 	.byte	68
000002e6 00000000*      5254 	.word	.LDW_4dce0b8
000002ea 01             5255 	.byte	1
                        5256 
000002eb 00             5257 	.byte	0
                        5258 
                        5259 .LDW_4dce5c0:
000002ec 45             5260 	.byte	69
000002ed 01             5261 	.byte	1
                        5262 
000002ee 00             5263 	.byte	0
                        5264 
                        5265 .LDW_4dce6d8:
000002ef 45             5266 	.byte	69
000002f0 01             5267 	.byte	1
                        5268 
000002f1 00             5269 	.byte	0
                        5270 
                        5271 .LDW_4dce668:
000002f2 45             5272 	.byte	69
000002f3 01             5273 	.byte	1
                        5274 
000002f4 00             5275 	.byte	0
                        5276 
                        5277 .LDW_4dce6a0:
000002f5 44             5278 	.byte	68
000002f6 00000000*      5279 	.word	.LDW_4987d30
000002fa 01             5280 	.byte	1
                        5281 
000002fb 00             5282 	.byte	0
                        5283 
                        5284 .LDW_4e1bcb8:
000002fc 45             5285 	.byte	69
000002fd 01             5286 	.byte	1
                        5287 
000002fe 00             5288 	.byte	0
                        5289 
                        5290 .LDW_4e1bf58:
000002ff 44             5291 	.byte	68
00000300 00000000*      5292 	.word	.LDW_4dccb18
00000304 01             5293 	.byte	1
                        5294 
00000305 00             5295 	.byte	0
                        5296 
                        5297 .LDW_4e1bb68:
00000306 44             5298 	.byte	68

                                                                      Page 98
                                                              C:\Users\nhuliyap\AppData\Local\Temp\gh_00002rs1.s
00000307 00000000*      5299 	.word	.LDW_4dccb18
0000030b 01             5300 	.byte	1
                        5301 
                        5302 .LDW_4de05c0:
0000030c 12             5303 	.byte	18
0000030d 00000000*      5304 	.word	.LDW_4dce080
00000311 00             5305 	.byte	0
                        5306 
                        5307 .LDW_4de0500:
00000312 12             5308 	.byte	18
00000313 00000000*      5309 	.word	.LDW_4946da0
00000317 00             5310 	.byte	0
                        5311 
00000318 00             5312 	.byte	0
                        5313 
                        5314 .LDW_4e1ba18:
00000319 45             5315 	.byte	69
0000031a 01             5316 	.byte	1
                        5317 
0000031b 00             5318 	.byte	0
                        5319 
                        5320 .LDW_4e1ba50:
0000031c 44             5321 	.byte	68
0000031d 00000000*      5322 	.word	.LDW_4946da0
00000321 01             5323 	.byte	1
                        5324 
00000322 00             5325 	.byte	0
                        5326 
                        5327 .LDW_4e1b900:
00000323 45             5328 	.byte	69
00000324 01             5329 	.byte	1
                        5330 
00000325 00             5331 	.byte	0
                        5332 
                        5333 .LDW_4e1b890:
00000326 44             5334 	.byte	68
00000327 00000000*      5335 	.word	.LDW_4946da0
0000032b 01             5336 	.byte	1
                        5337 
0000032c 00             5338 	.byte	0
                        5339 
                        5340 .LDW_4e1b938:
0000032d 44             5341 	.byte	68
0000032e 00000000*      5342 	.word	.LDW_4946da0
00000332 01             5343 	.byte	1
                        5344 
00000333 00             5345 	.byte	0
                        5346 
                        5347 .LDW_4e1b970:
00000334 44             5348 	.byte	68
00000335 00000000*      5349 	.word	.LDW_4987d30
00000339 01             5350 	.byte	1
                        5351 
                        5352 .LDW_4de04d0:
0000033a 12             5353 	.byte	18
0000033b 00000000*      5354 	.word	.LDW_4987d30
0000033f 00             5355 	.byte	0
                        5356 
00000340 00             5357 	.byte	0
                        5358 
                        5359 .LDW_4e1bbd8:

                                                                      Page 99
                                                              C:\Users\nhuliyap\AppData\Local\Temp\gh_00002rs1.s
00000341 45             5360 	.byte	69
00000342 01             5361 	.byte	1
                        5362 
                        5363 .LDW_4ddfc30:
00000343 12             5364 	.byte	18
00000344 00000000*      5365 	.word	.LDW_4987d30
00000348 00             5366 	.byte	0
                        5367 
                        5368 .LDW_4ddfc90:
00000349 12             5369 	.byte	18
0000034a 00000000*      5370 	.word	.LDW_4dce278
0000034e 00             5371 	.byte	0
                        5372 
0000034f 00             5373 	.byte	0
                        5374 
                        5375 .LDW_4e1b8c8:
00000350 45             5376 	.byte	69
00000351 01             5377 	.byte	1
                        5378 
                        5379 .LDW_4ddfc60:
00000352 12             5380 	.byte	18
00000353 00000000*      5381 	.word	.LDW_4987d30
00000357 00             5382 	.byte	0
                        5383 
                        5384 .LDW_4ddf7e0:
00000358 12             5385 	.byte	18
00000359 00000000*      5386 	.word	.LDW_4dce278
0000035d 00             5387 	.byte	0
                        5388 
0000035e 00             5389 	.byte	0
                        5390 
                        5391 .LDW_4e1be78:
0000035f 44             5392 	.byte	68
00000360 00000000*      5393 	.word	.LDW_4987d30
00000364 01             5394 	.byte	1
                        5395 
00000365 00             5396 	.byte	0
                        5397 
                        5398 .LDW_4e1bee8:
00000366 45             5399 	.byte	69
00000367 01             5400 	.byte	1
                        5401 
                        5402 .LDW_4ddf780:
00000368 12             5403 	.byte	18
00000369 00000000*      5404 	.word	.LDW_4987d30
0000036d 00             5405 	.byte	0
                        5406 
                        5407 .LDW_4ddfa50:
0000036e 12             5408 	.byte	18
0000036f 00000000*      5409 	.word	.LDW_4dce278
00000373 00             5410 	.byte	0
                        5411 
00000374 00             5412 	.byte	0
                        5413 
                        5414 .LDW_4e1ba88:
00000375 44             5415 	.byte	68
00000376 00000000*      5416 	.word	.LDW_4987d30
0000037a 01             5417 	.byte	1
                        5418 
                        5419 .LDW_4ddfd50:
0000037b 12             5420 	.byte	18

                                                                      Page 100
                                                              C:\Users\nhuliyap\AppData\Local\Temp\gh_00002rs1.s
0000037c 00000000*      5421 	.word	.LDW_4987d30
00000380 00             5422 	.byte	0
                        5423 
00000381 00             5424 	.byte	0
                        5425 
                        5426 .LDW_4e1bd98:
00000382 44             5427 	.byte	68
00000383 00000000*      5428 	.word	.LDW_4987d30
00000387 01             5429 	.byte	1
                        5430 
00000388 00             5431 	.byte	0
                        5432 
                        5433 .LDW_4e1bd28:
00000389 45             5434 	.byte	69
0000038a 01             5435 	.byte	1
                        5436 
0000038b 00             5437 	.byte	0
                        5438 
                        5439 .LDW_4e1b9a8:
0000038c 45             5440 	.byte	69
0000038d 01             5441 	.byte	1
                        5442 
0000038e 00             5443 	.byte	0
                        5444 
                        5445 .LDW_4e1b9e0:
0000038f 44             5446 	.byte	68
00000390 00000000*      5447 	.word	.LDW_4946da0
00000394 01             5448 	.byte	1
                        5449 
00000395 00             5450 	.byte	0
                        5451 
                        5452 .LDW_4e1be08:
00000396 45             5453 	.byte	69
00000397 01             5454 	.byte	1
                        5455 
00000398 00             5456 	.byte	0
                        5457 
                        5458 .LDW_4e1bba0:
00000399 25             5459 	.byte	37
0000039a 756e7369676e   5460 	.strz	"unsigned int"
000003a0 656420696e74 
000003a6 00 
000003a7 07             5461 	.byte	7
000003a8 04             5462 	.byte	4
                        5463 
                        5464 .LDW_4e1bc48:
000003a9 25             5465 	.byte	37
000003aa 696e7400       5466 	.strz	"int"
000003ae 05             5467 	.byte	5
000003af 04             5468 	.byte	4
                        5469 
                        5470 .LDW_4e20ff8:
000003b0 3a             5471 	.byte	58
000003b1 00             5472 	.byte	0
000003b2 02             5473 	.byte	2
000003b3 00000000*      5474 	.word	.LDW_4946da0
                        5475 
                        5476 	.section	.debug_abbrev
00000042 3a             5477 	.byte	58
00000043 01             5478 	.byte	1
00000044 01             5479 	.byte	1

                                                                      Page 101
                                                              C:\Users\nhuliyap\AppData\Local\Temp\gh_00002rs1.s
00000045 090b           5480 	.byte	9,11
00000047 0b0f           5481 	.byte	11,15
00000049 4910           5482 	.byte	73,16
0000004b 0000           5483 	.byte	0,0
                        5484 
                        5485 	.section	.debug_info
000003b7 32             5486 	.byte	50
000003b8 00000000*      5487 	.word	.LDW_4e1bc48
000003bc 04             5488 	.byte	4
000003bd 00             5489 	.byte	0
000003be 01             5490 	.byte	1
                        5491 
                        5492 	.section	.debug_abbrev
0000004d 32             5493 	.byte	50
0000004e 21             5494 	.byte	33
0000004f 00             5495 	.byte	0
00000050 4910           5496 	.byte	73,16
00000052 0b0f           5497 	.byte	11,15
00000054 220d           5498 	.byte	34,13
00000056 2f0d           5499 	.byte	47,13
00000058 0000           5500 	.byte	0,0
                        5501 
                        5502 	.section	.debug_info
000003bf 00             5503 	.byte	0
                        5504 
                        5505 .LDW_4e21080:
000003c0 3a             5506 	.byte	58
000003c1 00             5507 	.byte	0
000003c2 02             5508 	.byte	2
000003c3 00000000*      5509 	.word	.LDW_4946da0
                        5510 
000003c7 32             5511 	.byte	50
000003c8 00000000*      5512 	.word	.LDW_4e1bc48
000003cc 04             5513 	.byte	4
000003cd 00             5514 	.byte	0
000003ce 01             5515 	.byte	1
                        5516 
000003cf 00             5517 	.byte	0
                        5518 
                        5519 .LDW_4e21108:
000003d0 3a             5520 	.byte	58
000003d1 00             5521 	.byte	0
000003d2 04             5522 	.byte	4
000003d3 00000000*      5523 	.word	.LDW_4946da0
                        5524 
000003d7 32             5525 	.byte	50
000003d8 00000000*      5526 	.word	.LDW_4e1bc48
000003dc 04             5527 	.byte	4
000003dd 00             5528 	.byte	0
000003de 03             5529 	.byte	3
                        5530 
000003df 00             5531 	.byte	0
                        5532 
                        5533 .LDW_4e21190:
000003e0 3a             5534 	.byte	58
000003e1 00             5535 	.byte	0
000003e2 02             5536 	.byte	2
000003e3 00000000*      5537 	.word	.LDW_4946da0
                        5538 
000003e7 32             5539 	.byte	50
000003e8 00000000*      5540 	.word	.LDW_4e1bc48

                                                                      Page 102
                                                              C:\Users\nhuliyap\AppData\Local\Temp\gh_00002rs1.s
000003ec 04             5541 	.byte	4
000003ed 00             5542 	.byte	0
000003ee 01             5543 	.byte	1
                        5544 
000003ef 00             5545 	.byte	0
                        5546 
                        5547 .LDW_4e21460:
000003f0 3a             5548 	.byte	58
000003f1 00             5549 	.byte	0
000003f2 04             5550 	.byte	4
000003f3 00000000*      5551 	.word	.LDW_4946da0
                        5552 
000003f7 32             5553 	.byte	50
000003f8 00000000*      5554 	.word	.LDW_4e1bc48
000003fc 04             5555 	.byte	4
000003fd 00             5556 	.byte	0
000003fe 03             5557 	.byte	3
                        5558 
000003ff 00             5559 	.byte	0
                        5560 
                        5561 .LDW_4e21c58:
00000400 3a             5562 	.byte	58
00000401 00             5563 	.byte	0
00000402 02             5564 	.byte	2
00000403 00000000*      5565 	.word	.LDW_4946da0
                        5566 
00000407 32             5567 	.byte	50
00000408 00000000*      5568 	.word	.LDW_4e1bc48
0000040c 04             5569 	.byte	4
0000040d 00             5570 	.byte	0
0000040e 01             5571 	.byte	1
                        5572 
0000040f 00             5573 	.byte	0
                        5574 
                        5575 .LDW_4e21928:
00000410 3a             5576 	.byte	58
00000411 00             5577 	.byte	0
00000412 04             5578 	.byte	4
00000413 00000000*      5579 	.word	.LDW_4946da0
                        5580 
00000417 32             5581 	.byte	50
00000418 00000000*      5582 	.word	.LDW_4e1bc48
0000041c 04             5583 	.byte	4
0000041d 00             5584 	.byte	0
0000041e 03             5585 	.byte	3
                        5586 
0000041f 00             5587 	.byte	0
                        5588 
                        5589 .LDW_4e21708:
00000420 3a             5590 	.byte	58
00000421 00             5591 	.byte	0
00000422 02             5592 	.byte	2
00000423 00000000*      5593 	.word	.LDW_4946da0
                        5594 
00000427 32             5595 	.byte	50
00000428 00000000*      5596 	.word	.LDW_4e1bc48
0000042c 04             5597 	.byte	4
0000042d 00             5598 	.byte	0
0000042e 01             5599 	.byte	1
                        5600 
0000042f 00             5601 	.byte	0

                                                                      Page 103
                                                              C:\Users\nhuliyap\AppData\Local\Temp\gh_00002rs1.s
                        5602 
                        5603 .LDW_4e219b0:
00000430 3a             5604 	.byte	58
00000431 00             5605 	.byte	0
00000432 04             5606 	.byte	4
00000433 00000000*      5607 	.word	.LDW_4946da0
                        5608 
00000437 32             5609 	.byte	50
00000438 00000000*      5610 	.word	.LDW_4e1bc48
0000043c 04             5611 	.byte	4
0000043d 00             5612 	.byte	0
0000043e 03             5613 	.byte	3
                        5614 
0000043f 00             5615 	.byte	0
                        5616 
                        5617 .LDW_4e213d8:
00000440 3a             5618 	.byte	58
00000441 00             5619 	.byte	0
00000442 02             5620 	.byte	2
00000443 00000000*      5621 	.word	.LDW_4946da0
                        5622 
00000447 32             5623 	.byte	50
00000448 00000000*      5624 	.word	.LDW_4e1bc48
0000044c 04             5625 	.byte	4
0000044d 00             5626 	.byte	0
0000044e 01             5627 	.byte	1
                        5628 
0000044f 00             5629 	.byte	0
                        5630 
                        5631 .LDW_4e21818:
00000450 3a             5632 	.byte	58
00000451 00             5633 	.byte	0
00000452 04             5634 	.byte	4
00000453 00000000*      5635 	.word	.LDW_4946da0
                        5636 
00000457 32             5637 	.byte	50
00000458 00000000*      5638 	.word	.LDW_4e1bc48
0000045c 04             5639 	.byte	4
0000045d 00             5640 	.byte	0
0000045e 03             5641 	.byte	3
                        5642 
0000045f 00             5643 	.byte	0
                        5644 
                        5645 .LDW_4e21df0:
00000460 3a             5646 	.byte	58
00000461 00             5647 	.byte	0
00000462 02             5648 	.byte	2
00000463 00000000*      5649 	.word	.LDW_4946da0
                        5650 
00000467 32             5651 	.byte	50
00000468 00000000*      5652 	.word	.LDW_4e1bc48
0000046c 04             5653 	.byte	4
0000046d 00             5654 	.byte	0
0000046e 01             5655 	.byte	1
                        5656 
0000046f 00             5657 	.byte	0
                        5658 
                        5659 .LDW_4e21e78:
00000470 3a             5660 	.byte	58
00000471 00             5661 	.byte	0
00000472 04             5662 	.byte	4

                                                                      Page 104
                                                              C:\Users\nhuliyap\AppData\Local\Temp\gh_00002rs1.s
00000473 00000000*      5663 	.word	.LDW_4946da0
                        5664 
00000477 32             5665 	.byte	50
00000478 00000000*      5666 	.word	.LDW_4e1bc48
0000047c 04             5667 	.byte	4
0000047d 00             5668 	.byte	0
0000047e 03             5669 	.byte	3
                        5670 
0000047f 00             5671 	.byte	0
                        5672 
                        5673 .LDW_4e214e8:
00000480 3a             5674 	.byte	58
00000481 00             5675 	.byte	0
00000482 02             5676 	.byte	2
00000483 00000000*      5677 	.word	.LDW_4946da0
                        5678 
00000487 32             5679 	.byte	50
00000488 00000000*      5680 	.word	.LDW_4e1bc48
0000048c 04             5681 	.byte	4
0000048d 00             5682 	.byte	0
0000048e 01             5683 	.byte	1
                        5684 
0000048f 00             5685 	.byte	0
                        5686 
                        5687 .LDW_4e21ce0:
00000490 3a             5688 	.byte	58
00000491 00             5689 	.byte	0
00000492 04             5690 	.byte	4
00000493 00000000*      5691 	.word	.LDW_4946da0
                        5692 
00000497 32             5693 	.byte	50
00000498 00000000*      5694 	.word	.LDW_4e1bc48
0000049c 04             5695 	.byte	4
0000049d 00             5696 	.byte	0
0000049e 03             5697 	.byte	3
                        5698 
0000049f 00             5699 	.byte	0
                        5700 
                        5701 .LDW_4e21790:
000004a0 3a             5702 	.byte	58
000004a1 00             5703 	.byte	0
000004a2 02             5704 	.byte	2
000004a3 00000000*      5705 	.word	.LDW_4946da0
                        5706 
000004a7 32             5707 	.byte	50
000004a8 00000000*      5708 	.word	.LDW_4e1bc48
000004ac 04             5709 	.byte	4
000004ad 00             5710 	.byte	0
000004ae 01             5711 	.byte	1
                        5712 
000004af 00             5713 	.byte	0
                        5714 
                        5715 .LDW_4e21240:
000004b0 3a             5716 	.byte	58
000004b1 00             5717 	.byte	0
000004b2 0e             5718 	.byte	14
000004b3 00000000*      5719 	.word	.LDW_4946da0
                        5720 
000004b7 32             5721 	.byte	50
000004b8 00000000*      5722 	.word	.LDW_4e1bc48
000004bc 04             5723 	.byte	4

                                                                      Page 105
                                                              C:\Users\nhuliyap\AppData\Local\Temp\gh_00002rs1.s
000004bd 00             5724 	.byte	0
000004be 0d             5725 	.byte	13
                        5726 
000004bf 00             5727 	.byte	0
                        5728 
                        5729 .LDW_4e21570:
000004c0 3a             5730 	.byte	58
000004c1 00             5731 	.byte	0
000004c2 04             5732 	.byte	4
000004c3 00000000*      5733 	.word	.LDW_4946da0
                        5734 
000004c7 32             5735 	.byte	50
000004c8 00000000*      5736 	.word	.LDW_4e1bc48
000004cc 04             5737 	.byte	4
000004cd 00             5738 	.byte	0
000004ce 03             5739 	.byte	3
                        5740 
000004cf 00             5741 	.byte	0
                        5742 
                        5743 .LDW_4e212c8:
000004d0 3a             5744 	.byte	58
000004d1 00             5745 	.byte	0
000004d2 08             5746 	.byte	8
000004d3 00000000*      5747 	.word	.LDW_4946ac8
                        5748 
000004d7 32             5749 	.byte	50
000004d8 00000000*      5750 	.word	.LDW_4e1bc48
000004dc 04             5751 	.byte	4
000004dd 00             5752 	.byte	0
000004de 03             5753 	.byte	3
                        5754 
000004df 00             5755 	.byte	0
                        5756 
                        5757 .LDW_4e21a38:
000004e0 3a             5758 	.byte	58
000004e1 00             5759 	.byte	0
000004e2 08             5760 	.byte	8
000004e3 00000000*      5761 	.word	.LDW_4946ac8
                        5762 
000004e7 32             5763 	.byte	50
000004e8 00000000*      5764 	.word	.LDW_4e1bc48
000004ec 04             5765 	.byte	4
000004ed 00             5766 	.byte	0
000004ee 03             5767 	.byte	3
                        5768 
000004ef 00             5769 	.byte	0
                        5770 
                        5771 .LDW_4e21f88:
000004f0 3a             5772 	.byte	58
000004f1 00             5773 	.byte	0
000004f2 08             5774 	.byte	8
000004f3 00000000*      5775 	.word	.LDW_4946ac8
                        5776 
000004f7 32             5777 	.byte	50
000004f8 00000000*      5778 	.word	.LDW_4e1bc48
000004fc 04             5779 	.byte	4
000004fd 00             5780 	.byte	0
000004fe 03             5781 	.byte	3
                        5782 
000004ff 00             5783 	.byte	0
                        5784 

                                                                      Page 106
                                                              C:\Users\nhuliyap\AppData\Local\Temp\gh_00002rs1.s
                        5785 .LDW_4e21ac0:
00000500 3a             5786 	.byte	58
00000501 00             5787 	.byte	0
00000502 08             5788 	.byte	8
00000503 00000000*      5789 	.word	.LDW_4946ac8
                        5790 
00000507 32             5791 	.byte	50
00000508 00000000*      5792 	.word	.LDW_4e1bc48
0000050c 04             5793 	.byte	4
0000050d 00             5794 	.byte	0
0000050e 03             5795 	.byte	3
                        5796 
0000050f 00             5797 	.byte	0
                        5798 
                        5799 .LDW_4e22098:
00000510 3a             5800 	.byte	58
00000511 00             5801 	.byte	0
00000512 04             5802 	.byte	4
00000513 00000000*      5803 	.word	.LDW_4946da0
                        5804 
00000517 32             5805 	.byte	50
00000518 00000000*      5806 	.word	.LDW_4e1bc48
0000051c 04             5807 	.byte	4
0000051d 00             5808 	.byte	0
0000051e 03             5809 	.byte	3
                        5810 
0000051f 00             5811 	.byte	0
                        5812 
                        5813 .LDW_4e21d68:
00000520 3a             5814 	.byte	58
00000521 00             5815 	.byte	0
00000522 04             5816 	.byte	4
00000523 00000000*      5817 	.word	.LDW_4946da0
                        5818 
00000527 32             5819 	.byte	50
00000528 00000000*      5820 	.word	.LDW_4e1bc48
0000052c 04             5821 	.byte	4
0000052d 00             5822 	.byte	0
0000052e 03             5823 	.byte	3
                        5824 
0000052f 00             5825 	.byte	0
                        5826 
                        5827 .LDW_4e1f538:
00000530 29             5828 	.byte	41
00000531 00000000*      5829 	.word	.LDW_4946da0
                        5830 
                        5831 	.section	.debug_abbrev
0000005a 29             5832 	.byte	41
0000005b 26             5833 	.byte	38
0000005c 00             5834 	.byte	0
0000005d 4910           5835 	.byte	73,16
0000005f 0000           5836 	.byte	0,0
                        5837 
                        5838 	.section	.debug_info
                        5839 .LDW_4e22010:
00000535 3a             5840 	.byte	58
00000536 00             5841 	.byte	0
00000537 10             5842 	.byte	16
00000538 00000000*      5843 	.word	.LDW_4946f98
                        5844 
0000053c 32             5845 	.byte	50

                                                                      Page 107
                                                              C:\Users\nhuliyap\AppData\Local\Temp\gh_00002rs1.s
0000053d 00000000*      5846 	.word	.LDW_4e1bc48
00000541 04             5847 	.byte	4
00000542 00             5848 	.byte	0
00000543 03             5849 	.byte	3
                        5850 
00000544 00             5851 	.byte	0
                        5852 
                        5853 .LDW_4e21350:
00000545 3a             5854 	.byte	58
00000546 00             5855 	.byte	0
00000547 04             5856 	.byte	4
00000548 00000000*      5857 	.word	.LDW_4946da0
                        5858 
0000054c 32             5859 	.byte	50
0000054d 00000000*      5860 	.word	.LDW_4e1bc48
00000551 04             5861 	.byte	4
00000552 00             5862 	.byte	0
00000553 03             5863 	.byte	3
                        5864 
00000554 00             5865 	.byte	0
                        5866 
                        5867 .LDW_4e21680:
00000555 3a             5868 	.byte	58
00000556 00             5869 	.byte	0
00000557 8004           5870 	.byte	128,4
00000559 00000000*      5871 	.word	.LDW_4e1f900
                        5872 
0000055d 32             5873 	.byte	50
0000055e 00000000*      5874 	.word	.LDW_4e1bc48
00000562 04             5875 	.byte	4
00000563 00             5876 	.byte	0
00000564 07             5877 	.byte	7
                        5878 
00000565 00             5879 	.byte	0
                        5880 
                        5881 .LDW_4e26f90:
00000566 45             5882 	.byte	69
00000567 01             5883 	.byte	1
                        5884 
00000568 00             5885 	.byte	0
                        5886 
                        5887 .LDW_4e27578:
00000569 45             5888 	.byte	69
0000056a 01             5889 	.byte	1
                        5890 
                        5891 .LDW_4e26c80:
0000056b 12             5892 	.byte	18
0000056c 00000000*      5893 	.word	.LDW_4946da0
00000570 00             5894 	.byte	0
                        5895 
00000571 00             5896 	.byte	0
                        5897 
                        5898 .LDW_4e275b0:
00000572 45             5899 	.byte	69
00000573 01             5900 	.byte	1
                        5901 
00000574 00             5902 	.byte	0
                        5903 
                        5904 .LDW_4e29810:
00000575 45             5905 	.byte	69
00000576 01             5906 	.byte	1

                                                                      Page 108
                                                              C:\Users\nhuliyap\AppData\Local\Temp\gh_00002rs1.s
                        5907 
                        5908 .LDW_4e263b0:
00000577 12             5909 	.byte	18
00000578 00000000*      5910 	.word	.LDW_4946da0
0000057c 00             5911 	.byte	0
                        5912 
0000057d 00             5913 	.byte	0
                        5914 
                        5915 .LDW_4e29730:
0000057e 2f             5916 	.byte	47
0000057f 00000000*      5917 	.word	.LDW_4e1f1c8
                        5918 
                        5919 .LDW_4e297a0:
00000583 44             5920 	.byte	68
00000584 00000000*      5921 	.word	.LDW_4946da0
00000588 01             5922 	.byte	1
                        5923 
                        5924 .LDW_4e25f60:
00000589 12             5925 	.byte	18
0000058a 00000000*      5926 	.word	.LDW_4946da0
0000058e 00             5927 	.byte	0
                        5928 
                        5929 .LDW_4e26320:
0000058f 12             5930 	.byte	18
00000590 00000000*      5931 	.word	.LDW_4e29730
00000594 00             5932 	.byte	0
                        5933 
00000595 00             5934 	.byte	0
                        5935 
                        5936 .LDW_4e29bc8:
00000596 44             5937 	.byte	68
00000597 00000000*      5938 	.word	.LDW_4946da0
0000059b 01             5939 	.byte	1
                        5940 
0000059c 00             5941 	.byte	0
                        5942 
                        5943 .LDW_4e297d8:
0000059d 45             5944 	.byte	69
0000059e 01             5945 	.byte	1
                        5946 
0000059f 00             5947 	.byte	0
                        5948 
                        5949 .LDW_4e298b8:
000005a0 44             5950 	.byte	68
000005a1 00000000*      5951 	.word	.LDW_4de0d08
000005a5 01             5952 	.byte	1
                        5953 
000005a6 00             5954 	.byte	0
                        5955 
                        5956 .LDW_4e2c2c0:
000005a7 2f             5957 	.byte	47
000005a8 00000000*      5958 	.word	.LDW_4e1f640
                        5959 
                        5960 .LDW_4e2c560:
000005ac 44             5961 	.byte	68
000005ad 00000000*      5962 	.word	.LDW_4e2c2c0
000005b1 01             5963 	.byte	1
                        5964 
000005b2 00             5965 	.byte	0
                        5966 
                        5967 .LDW_4e2dc90:

                                                                      Page 109
                                                              C:\Users\nhuliyap\AppData\Local\Temp\gh_00002rs1.s
000005b3 45             5968 	.byte	69
000005b4 01             5969 	.byte	1
                        5970 
                        5971 .LDW_4e2d240:
000005b5 12             5972 	.byte	18
000005b6 00000000*      5973 	.word	.LDW_4987d30
000005ba 00             5974 	.byte	0
                        5975 
                        5976 .LDW_4e2d0c0:
000005bb 12             5977 	.byte	18
000005bc 00000000*      5978 	.word	.LDW_4987d30
000005c0 00             5979 	.byte	0
                        5980 
000005c1 00             5981 	.byte	0
                        5982 
                        5983 .LDW_4e329d0:
000005c2 2f             5984 	.byte	47
000005c3 00000000*      5985 	.word	.LDW_4e1fc70
                        5986 
                        5987 .LDW_4e32ae8:
000005c7 45             5988 	.byte	69
000005c8 01             5989 	.byte	1
                        5990 
                        5991 .LDW_4e33b78:
000005c9 12             5992 	.byte	18
000005ca 00000000*      5993 	.word	.LDW_4946da0
000005ce 00             5994 	.byte	0
                        5995 
                        5996 .LDW_4e33878:
000005cf 12             5997 	.byte	18
000005d0 00000000*      5998 	.word	.LDW_4dce0b8
000005d4 00             5999 	.byte	0
                        6000 
000005d5 00             6001 	.byte	0
                        6002 
                        6003 .LDW_4e32ce0:
000005d6 45             6004 	.byte	69
000005d7 01             6005 	.byte	1
                        6006 
                        6007 .LDW_4e336f8:
000005d8 12             6008 	.byte	18
000005d9 00000000*      6009 	.word	.LDW_4946da0
000005dd 00             6010 	.byte	0
                        6011 
                        6012 .LDW_4e33788:
000005de 12             6013 	.byte	18
000005df 00000000*      6014 	.word	.LDW_4dce0b8
000005e3 00             6015 	.byte	0
                        6016 
000005e4 00             6017 	.byte	0
                        6018 
                        6019 .LDW_4dccb18:
000005e5 28             6020 	.byte	40
000005e6 626f6f6c6561   6021 	.strz	"boolean"
000005ec 6e00 
000005ee 4e             6022 	.byte	78
000005ef 49             6023 	.byte	73
000005f0 03             6024 	.byte	3
000005f1 00000000*      6025 	.word	.LDW_4946da0
                        6026 
                        6027 	.section	.debug_abbrev

                                                                      Page 110
                                                              C:\Users\nhuliyap\AppData\Local\Temp\gh_00002rs1.s
00000061 28             6028 	.byte	40
00000062 16             6029 	.byte	22
00000063 00             6030 	.byte	0
00000064 0308           6031 	.byte	3,8
00000066 3b0f           6032 	.byte	59,15
00000068 390f           6033 	.byte	57,15
0000006a 3a0f           6034 	.byte	58,15
0000006c 4910           6035 	.byte	73,16
0000006e 0000           6036 	.byte	0,0
                        6037 
                        6038 	.section	.debug_info
                        6039 .LDW_4987d30:
000005f5 28             6040 	.byte	40
000005f6 75696e743800   6041 	.strz	"uint8"
000005fc 50             6042 	.byte	80
000005fd 4b             6043 	.byte	75
000005fe 03             6044 	.byte	3
000005ff 00000000*      6045 	.word	.LDW_4946da0
                        6046 
                        6047 .LDW_4de0d08:
00000603 28             6048 	.byte	40
00000604 75696e743332   6049 	.strz	"uint32"
0000060a 00 
0000060b 54             6050 	.byte	84
0000060c 4a             6051 	.byte	74
0000060d 03             6052 	.byte	3
0000060e 00000000*      6053 	.word	.LDW_4946f98
                        6054 
                        6055 .LDW_4dce878:
00000612 40             6056 	.byte	64
00000613 496e70757457   6057 	.strz	"InputWA"
00000619 4100 
0000061b 04             6058 	.byte	4
0000061c 08             6059 	.byte	8
0000061d 0c             6060 	.byte	12
0000061e 08             6061 	.byte	8
0000061f 01             6062 	.byte	1
                        6063 
                        6064 	.section	.debug_abbrev
00000070 40             6065 	.byte	64
00000071 13             6066 	.byte	19
00000072 01             6067 	.byte	1
00000073 0308           6068 	.byte	3,8
00000075 3b0f           6069 	.byte	59,15
00000077 390f           6070 	.byte	57,15
00000079 3a0f           6071 	.byte	58,15
0000007b 0b0f           6072 	.byte	11,15
0000007d 320b           6073 	.byte	50,11
0000007f 0000           6074 	.byte	0,0
                        6075 
                        6076 	.section	.debug_info
                        6077 .LDW_4e1e800:
00000620 23             6078 	.byte	35
00000621 756c494400     6079 	.strz	"ulID"
00000626 05             6080 	.byte	5
00000627 12             6081 	.byte	18
00000628 0c             6082 	.byte	12
00000629 00000000*      6083 	.word	.LDW_4946f98
0000062d 0223           6084 	.byte	2,35
0000062f 00             6085 	.byte	0
00000630 01             6086 	.byte	1

                                                                      Page 111
                                                              C:\Users\nhuliyap\AppData\Local\Temp\gh_00002rs1.s
                        6087 
                        6088 	.section	.debug_abbrev
00000081 23             6089 	.byte	35
00000082 0d             6090 	.byte	13
00000083 00             6091 	.byte	0
00000084 0308           6092 	.byte	3,8
00000086 3b0f           6093 	.byte	59,15
00000088 390f           6094 	.byte	57,15
0000008a 3a0f           6095 	.byte	58,15
0000008c 4910           6096 	.byte	73,16
0000008e 380a           6097 	.byte	56,10
00000090 320b           6098 	.byte	50,11
00000092 0000           6099 	.byte	0,0
                        6100 
                        6101 	.section	.debug_info
                        6102 .LDW_4e1e920:
00000631 23             6103 	.byte	35
00000632 756353746174   6104 	.strz	"ucStatus"
00000638 757300 
0000063b 06             6105 	.byte	6
0000063c 12             6106 	.byte	18
0000063d 0c             6107 	.byte	12
0000063e 00000000*      6108 	.word	.LDW_4946da0
00000642 0223           6109 	.byte	2,35
00000644 04             6110 	.byte	4
00000645 01             6111 	.byte	1
                        6112 
                        6113 .LDW_4e1e848:
00000646 23             6114 	.byte	35
00000647 756352737369   6115 	.strz	"ucRssi"
0000064d 00 
0000064e 07             6116 	.byte	7
0000064f 12             6117 	.byte	18
00000650 0c             6118 	.byte	12
00000651 00000000*      6119 	.word	.LDW_4946da0
00000655 0223           6120 	.byte	2,35
00000657 05             6121 	.byte	5
00000658 01             6122 	.byte	1
                        6123 
00000659 00             6124 	.byte	0
                        6125 
                        6126 .LDW_4dcf270:
0000065a 41             6127 	.byte	65
0000065b 0a             6128 	.byte	10
0000065c 10             6129 	.byte	16
0000065d 0c             6130 	.byte	12
0000065e 19             6131 	.byte	25
0000065f 01             6132 	.byte	1
                        6133 
                        6134 	.section	.debug_abbrev
00000094 41             6135 	.byte	65
00000095 13             6136 	.byte	19
00000096 01             6137 	.byte	1
00000097 3b0f           6138 	.byte	59,15
00000099 390f           6139 	.byte	57,15
0000009b 3a0f           6140 	.byte	58,15
0000009d 0b0f           6141 	.byte	11,15
0000009f 320b           6142 	.byte	50,11
000000a1 0000           6143 	.byte	0,0
                        6144 
                        6145 	.section	.debug_info

                                                                      Page 112
                                                              C:\Users\nhuliyap\AppData\Local\Temp\gh_00002rs1.s
                        6146 .LDW_4e1eb60:
00000660 23             6147 	.byte	35
00000661 756357414374   6148 	.strz	"ucWACtrl"
00000667 726c00 
0000066a 0b             6149 	.byte	11
0000066b 12             6150 	.byte	18
0000066c 0c             6151 	.byte	12
0000066d 00000000*      6152 	.word	.LDW_4946da0
00000671 0223           6153 	.byte	2,35
00000673 00             6154 	.byte	0
00000674 01             6155 	.byte	1
                        6156 
                        6157 .LDW_4e1e890:
00000675 23             6158 	.byte	35
00000676 75634d696e52   6159 	.strz	"ucMinRssiLevel"
0000067c 7373694c6576 
00000682 656c00 
00000685 0c             6160 	.byte	12
00000686 12             6161 	.byte	18
00000687 0c             6162 	.byte	12
00000688 00000000*      6163 	.word	.LDW_4946da0
0000068c 0223           6164 	.byte	2,35
0000068e 01             6165 	.byte	1
0000068f 01             6166 	.byte	1
                        6167 
                        6168 .LDW_4e1ead0:
00000690 23             6169 	.byte	35
00000691 75634d696e52   6170 	.strz	"ucMinRssiDistance"
00000697 737369446973 
0000069d 74616e636500 
000006a3 0d             6171 	.byte	13
000006a4 12             6172 	.byte	18
000006a5 0c             6173 	.byte	12
000006a6 00000000*      6174 	.word	.LDW_4946da0
000006aa 0223           6175 	.byte	2,35
000006ac 02             6176 	.byte	2
000006ad 01             6177 	.byte	1
                        6178 
                        6179 .LDW_4e1ed58:
000006ae 23             6180 	.byte	35
000006af 75634d696e56   6181 	.strz	"ucMinVariationDistance"
000006b5 617269617469 
000006bb 6f6e44697374 
000006c1 616e636500 
000006c6 0e             6182 	.byte	14
000006c7 12             6183 	.byte	18
000006c8 0c             6184 	.byte	12
000006c9 00000000*      6185 	.word	.LDW_4946da0
000006cd 0223           6186 	.byte	2,35
000006cf 03             6187 	.byte	3
000006d0 01             6188 	.byte	1
                        6189 
                        6190 .LDW_4e1e8d8:
000006d1 23             6191 	.byte	35
000006d2 75634c655269   6192 	.strz	"ucLeRiMinDistance"
000006d8 4d696e446973 
000006de 74616e636500 
000006e4 0f             6193 	.byte	15
000006e5 12             6194 	.byte	18
000006e6 0c             6195 	.byte	12
000006e7 00000000*      6196 	.word	.LDW_4946da0

                                                                      Page 113
                                                              C:\Users\nhuliyap\AppData\Local\Temp\gh_00002rs1.s
000006eb 0223           6197 	.byte	2,35
000006ed 04             6198 	.byte	4
000006ee 01             6199 	.byte	1
                        6200 
                        6201 .LDW_4e1e968:
000006ef 23             6202 	.byte	35
000006f0 756345637550   6203 	.strz	"ucEcuPosition"
000006f6 6f736974696f 
000006fc 6e00 
000006fe 10             6204 	.byte	16
000006ff 12             6205 	.byte	18
00000700 0c             6206 	.byte	12
00000701 00000000*      6207 	.word	.LDW_4946da0
00000705 0223           6208 	.byte	2,35
00000707 05             6209 	.byte	5
00000708 01             6210 	.byte	1
                        6211 
                        6212 .LDW_4e1e9f8:
00000709 23             6213 	.byte	35
0000070a 75634d696e43   6214 	.strz	"ucMinCt4ER"
00000710 7434455200 
00000715 11             6215 	.byte	17
00000716 12             6216 	.byte	18
00000717 0c             6217 	.byte	12
00000718 00000000*      6218 	.word	.LDW_4946da0
0000071c 0223           6219 	.byte	2,35
0000071e 06             6220 	.byte	6
0000071f 01             6221 	.byte	1
                        6222 
                        6223 .LDW_4e1eda0:
00000720 23             6224 	.byte	35
00000721 75634d696e43   6225 	.strz	"ucMinCt4HistER"
00000727 743448697374 
0000072d 455200 
00000730 12             6226 	.byte	18
00000731 12             6227 	.byte	18
00000732 0c             6228 	.byte	12
00000733 00000000*      6229 	.word	.LDW_4946da0
00000737 0223           6230 	.byte	2,35
00000739 07             6231 	.byte	7
0000073a 01             6232 	.byte	1
                        6233 
                        6234 .LDW_4e1ea40:
0000073b 23             6235 	.byte	35
0000073c 75634d696e43   6236 	.strz	"ucMinCt4ZomReset"
00000742 74345a6f6d52 
00000748 6573657400 
0000074d 13             6237 	.byte	19
0000074e 12             6238 	.byte	18
0000074f 0c             6239 	.byte	12
00000750 00000000*      6240 	.word	.LDW_4946da0
00000754 0223           6241 	.byte	2,35
00000756 08             6242 	.byte	8
00000757 01             6243 	.byte	1
                        6244 
                        6245 .LDW_4e1eba8:
00000758 23             6246 	.byte	35
00000759 75634d696e45   6247 	.strz	"ucMinERMeanRssiLevel"
0000075f 524d65616e52 
00000765 7373694c6576 
0000076b 656c00 

                                                                      Page 114
                                                              C:\Users\nhuliyap\AppData\Local\Temp\gh_00002rs1.s
0000076e 14             6248 	.byte	20
0000076f 12             6249 	.byte	18
00000770 0c             6250 	.byte	12
00000771 00000000*      6251 	.word	.LDW_4946da0
00000775 0223           6252 	.byte	2,35
00000777 09             6253 	.byte	9
00000778 01             6254 	.byte	1
                        6255 
                        6256 .LDW_4e1ea88:
00000779 23             6257 	.byte	35
0000077a 5741544f5469   6258 	.strz	"WATOTimeInSec"
00000780 6d65496e5365 
00000786 6300 
00000788 15             6259 	.byte	21
00000789 12             6260 	.byte	18
0000078a 0c             6261 	.byte	12
0000078b 00000000*      6262 	.word	.LDW_4946da0
0000078f 0223           6263 	.byte	2,35
00000791 0a             6264 	.byte	10
00000792 01             6265 	.byte	1
                        6266 
                        6267 .LDW_4e1eb18:
00000793 23             6268 	.byte	35
00000794 756354696d65   6269 	.strz	"ucTimeoutAutoLoc"
0000079a 6f7574417574 
000007a0 6f4c6f6300 
000007a5 16             6270 	.byte	22
000007a6 12             6271 	.byte	18
000007a7 0c             6272 	.byte	12
000007a8 00000000*      6273 	.word	.LDW_4946da0
000007ac 0223           6274 	.byte	2,35
000007ae 0b             6275 	.byte	11
000007af 01             6276 	.byte	1
                        6277 
                        6278 .LDW_4e1ebf0:
000007b0 23             6279 	.byte	35
000007b1 75634e65774d   6280 	.strz	"ucNewMinCntEvt"
000007b7 696e436e7445 
000007bd 767400 
000007c0 17             6281 	.byte	23
000007c1 12             6282 	.byte	18
000007c2 0c             6283 	.byte	12
000007c3 00000000*      6284 	.word	.LDW_4946da0
000007c7 0223           6285 	.byte	2,35
000007c9 0c             6286 	.byte	12
000007ca 01             6287 	.byte	1
                        6288 
                        6289 .LDW_4e1ed10:
000007cb 23             6290 	.byte	35
000007cc 75634d696e54   6291 	.strz	"ucMinTimeProtectER"
000007d2 696d6550726f 
000007d8 746563744552 
000007de 00 
000007df 18             6292 	.byte	24
000007e0 12             6293 	.byte	18
000007e1 0c             6294 	.byte	12
000007e2 00000000*      6295 	.word	.LDW_4946da0
000007e6 0223           6296 	.byte	2,35
000007e8 0d             6297 	.byte	13
000007e9 01             6298 	.byte	1
                        6299 

                                                                      Page 115
                                                              C:\Users\nhuliyap\AppData\Local\Temp\gh_00002rs1.s
                        6300 .LDW_4e1ec38:
000007ea 23             6301 	.byte	35
000007eb 75636e4d696e   6302 	.strz	"ucnMinRxTGRF"
000007f1 527854475246 
000007f7 00 
000007f8 19             6303 	.byte	25
000007f9 12             6304 	.byte	18
000007fa 0c             6305 	.byte	12
000007fb 00000000*      6306 	.word	.LDW_4946da0
000007ff 0223           6307 	.byte	2,35
00000801 0e             6308 	.byte	14
00000802 01             6309 	.byte	1
                        6310 
                        6311 .LDW_4e1ec80:
00000803 23             6312 	.byte	35
00000804 75636e52656c   6313 	.strz	"ucnRelValMinDiff"
0000080a 56616c4d696e 
00000810 4469666600 
00000815 1a             6314 	.byte	26
00000816 12             6315 	.byte	18
00000817 0c             6316 	.byte	12
00000818 00000000*      6317 	.word	.LDW_4946da0
0000081c 0223           6318 	.byte	2,35
0000081e 0f             6319 	.byte	15
0000081f 01             6320 	.byte	1
                        6321 
                        6322 .LDW_4e1ecc8:
00000820 23             6323 	.byte	35
00000821 75636e52656c   6324 	.strz	"ucnRelValMidDiff"
00000827 56616c4d6964 
0000082d 4469666600 
00000832 1b             6325 	.byte	27
00000833 12             6326 	.byte	18
00000834 0c             6327 	.byte	12
00000835 00000000*      6328 	.word	.LDW_4946da0
00000839 0223           6329 	.byte	2,35
0000083b 10             6330 	.byte	16
0000083c 01             6331 	.byte	1
                        6332 
                        6333 .LDW_4e1ede8:
0000083d 23             6334 	.byte	35
0000083e 75636e52656c   6335 	.strz	"ucnRelValCompetDiff"
00000844 56616c436f6d 
0000084a 706574446966 
00000850 6600 
00000852 1c             6336 	.byte	28
00000853 12             6337 	.byte	18
00000854 0c             6338 	.byte	12
00000855 00000000*      6339 	.word	.LDW_4946da0
00000859 0223           6340 	.byte	2,35
0000085b 11             6341 	.byte	17
0000085c 01             6342 	.byte	1
                        6343 
                        6344 .LDW_4e1ee30:
0000085d 23             6345 	.byte	35
0000085e 75634d61785a   6346 	.strz	"ucMaxZOnorm"
00000864 4f6e6f726d00 
0000086a 1d             6347 	.byte	29
0000086b 12             6348 	.byte	18
0000086c 0c             6349 	.byte	12
0000086d 00000000*      6350 	.word	.LDW_4946da0

                                                                      Page 116
                                                              C:\Users\nhuliyap\AppData\Local\Temp\gh_00002rs1.s
00000871 0223           6351 	.byte	2,35
00000873 12             6352 	.byte	18
00000874 01             6353 	.byte	1
                        6354 
                        6355 .LDW_4e20728:
00000875 23             6356 	.byte	35
00000876 75636e4d696e   6357 	.strz	"ucnMinA"
0000087c 4100 
0000087e 1e             6358 	.byte	30
0000087f 12             6359 	.byte	18
00000880 0c             6360 	.byte	12
00000881 00000000*      6361 	.word	.LDW_4946da0
00000885 0223           6362 	.byte	2,35
00000887 13             6363 	.byte	19
00000888 01             6364 	.byte	1
                        6365 
                        6366 .LDW_4e20578:
00000889 23             6367 	.byte	35
0000088a 75634d696e53   6368 	.strz	"ucMinSpeedAutoLearnStart"
00000890 706565644175 
00000896 746f4c656172 
0000089c 6e5374617274 
000008a2 00 
000008a3 1f             6369 	.byte	31
000008a4 12             6370 	.byte	18
000008a5 0c             6371 	.byte	12
000008a6 00000000*      6372 	.word	.LDW_4946da0
000008aa 0223           6373 	.byte	2,35
000008ac 14             6374 	.byte	20
000008ad 01             6375 	.byte	1
                        6376 
                        6377 .LDW_4e20770:
000008ae 23             6378 	.byte	35
000008af 75634f666673   6379 	.strz	"ucOffsetOverlapsGXe"
000008b5 65744f766572 
000008bb 6c6170734758 
000008c1 6500 
000008c3 20             6380 	.byte	32
000008c4 12             6381 	.byte	18
000008c5 0c             6382 	.byte	12
000008c6 00000000*      6383 	.word	.LDW_4946da0
000008ca 0223           6384 	.byte	2,35
000008cc 15             6385 	.byte	21
000008cd 01             6386 	.byte	1
                        6387 
                        6388 .LDW_4e20890:
000008ce 23             6389 	.byte	35
000008cf 75636e567765   6390 	.strz	"ucnVweight"
000008d5 6967687400 
000008da 21             6391 	.byte	33
000008db 12             6392 	.byte	18
000008dc 0c             6393 	.byte	12
000008dd 00000000*      6394 	.word	.LDW_4946da0
000008e1 0223           6395 	.byte	2,35
000008e3 16             6396 	.byte	22
000008e4 01             6397 	.byte	1
                        6398 
                        6399 .LDW_4e208d8:
000008e5 23             6400 	.byte	35
000008e6 75634d696e4f   6401 	.strz	"ucMinOffsetGXe"
000008ec 666673657447 

                                                                      Page 117
                                                              C:\Users\nhuliyap\AppData\Local\Temp\gh_00002rs1.s
000008f2 586500 
000008f5 22             6402 	.byte	34
000008f6 12             6403 	.byte	18
000008f7 0c             6404 	.byte	12
000008f8 00000000*      6405 	.word	.LDW_4946da0
000008fc 0223           6406 	.byte	2,35
000008fe 17             6407 	.byte	23
000008ff 01             6408 	.byte	1
                        6409 
                        6410 .LDW_4e205c0:
00000900 23             6411 	.byte	35
00000901 756353756666   6412 	.strz	"ucSufficientRssiDistance"
00000907 696369656e74 
0000090d 527373694469 
00000913 7374616e6365 
00000919 00 
0000091a 23             6413 	.byte	35
0000091b 12             6414 	.byte	18
0000091c 0c             6415 	.byte	12
0000091d 00000000*      6416 	.word	.LDW_4946da0
00000921 0223           6417 	.byte	2,35
00000923 18             6418 	.byte	24
00000924 01             6419 	.byte	1
                        6420 
00000925 00             6421 	.byte	0
                        6422 
                        6423 .LDW_4dcf3d0:
00000926 28             6424 	.byte	40
00000927 574150617261   6425 	.strz	"WAParameter"
0000092d 6d6574657200 
00000933 24             6426 	.byte	36
00000934 03             6427 	.byte	3
00000935 0c             6428 	.byte	12
00000936 00000000*      6429 	.word	.LDW_4dcf270
                        6430 
                        6431 .LDW_4e1fe28:
0000093a 41             6432 	.byte	65
0000093b 26             6433 	.byte	38
0000093c 10             6434 	.byte	16
0000093d 0c             6435 	.byte	12
0000093e 02             6436 	.byte	2
0000093f 01             6437 	.byte	1
                        6438 
                        6439 .LDW_4e20380:
00000940 23             6440 	.byte	35
00000941 756346726f6e   6441 	.strz	"ucFrontAxisABSTicks"
00000947 744178697341 
0000094d 42535469636b 
00000953 7300 
00000955 27             6442 	.byte	39
00000956 12             6443 	.byte	18
00000957 0c             6444 	.byte	12
00000958 00000000*      6445 	.word	.LDW_4946da0
0000095c 0223           6446 	.byte	2,35
0000095e 00             6447 	.byte	0
0000095f 01             6448 	.byte	1
                        6449 
                        6450 .LDW_4e204a0:
00000960 23             6451 	.byte	35
00000961 756352656172   6452 	.strz	"ucRearAxisABSTicks"
00000967 417869734142 

                                                                      Page 118
                                                              C:\Users\nhuliyap\AppData\Local\Temp\gh_00002rs1.s
0000096d 535469636b73 
00000973 00 
00000974 28             6453 	.byte	40
00000975 12             6454 	.byte	18
00000976 0c             6455 	.byte	12
00000977 00000000*      6456 	.word	.LDW_4946da0
0000097b 0223           6457 	.byte	2,35
0000097d 01             6458 	.byte	1
0000097e 01             6459 	.byte	1
                        6460 
0000097f 00             6461 	.byte	0
                        6462 
                        6463 .LDW_4e1fc70:
00000980 28             6464 	.byte	40
00000981 574141425354   6465 	.strz	"WAABSTicksInOneRevolution"
00000987 69636b73496e 
0000098d 4f6e65526576 
00000993 6f6c7574696f 
00000999 6e00 
0000099b 29             6466 	.byte	41
0000099c 03             6467 	.byte	3
0000099d 0c             6468 	.byte	12
0000099e 00000000*      6469 	.word	.LDW_4e1fe28
                        6470 
                        6471 .LDW_4e1fc18:
000009a2 41             6472 	.byte	65
000009a3 12             6473 	.byte	18
000009a4 0f             6474 	.byte	15
000009a5 0e             6475 	.byte	14
000009a6 02             6476 	.byte	2
000009a7 01             6477 	.byte	1
                        6478 
                        6479 .LDW_4e20650:
000009a8 23             6480 	.byte	35
000009a9 756354547970   6481 	.strz	"ucTType"
000009af 6500 
000009b1 13             6482 	.byte	19
000009b2 12             6483 	.byte	18
000009b3 0e             6484 	.byte	14
000009b4 00000000*      6485 	.word	.LDW_4e20ff8
000009b8 0223           6486 	.byte	2,35
000009ba 00             6487 	.byte	0
000009bb 01             6488 	.byte	1
                        6489 
000009bc 00             6490 	.byte	0
                        6491 
                        6492 .LDW_4e1fcc8:
000009bd 28             6493 	.byte	40
000009be 507265427566   6494 	.strz	"PreBufHeader"
000009c4 486561646572 
000009ca 00 
000009cb 14             6495 	.byte	20
000009cc 02             6496 	.byte	2
000009cd 0e             6497 	.byte	14
000009ce 00000000*      6498 	.word	.LDW_4e1fc18
                        6499 
                        6500 .LDW_4e1fd78:
000009d2 41             6501 	.byte	65
000009d3 17             6502 	.byte	23
000009d4 0f             6503 	.byte	15
000009d5 0e             6504 	.byte	14

                                                                      Page 119
                                                              C:\Users\nhuliyap\AppData\Local\Temp\gh_00002rs1.s
000009d6 0a             6505 	.byte	10
000009d7 01             6506 	.byte	1
                        6507 
                        6508 .LDW_4e20800:
000009d8 23             6509 	.byte	35
000009d9 756348656164   6510 	.strz	"ucHeader"
000009df 657200 
000009e2 18             6511 	.byte	24
000009e3 12             6512 	.byte	18
000009e4 0e             6513 	.byte	14
000009e5 00000000*      6514 	.word	.LDW_4e21080
000009e9 0223           6515 	.byte	2,35
000009eb 00             6516 	.byte	0
000009ec 01             6517 	.byte	1
                        6518 
                        6519 .LDW_4e20260:
000009ed 23             6520 	.byte	35
000009ee 7563436d6449   6521 	.strz	"ucCmdID"
000009f4 4400 
000009f6 19             6522 	.byte	25
000009f7 12             6523 	.byte	18
000009f8 0e             6524 	.byte	14
000009f9 00000000*      6525 	.word	.LDW_4946da0
000009fd 0223           6526 	.byte	2,35
000009ff 02             6527 	.byte	2
00000a00 01             6528 	.byte	1
                        6529 
                        6530 .LDW_4e20020:
00000a01 23             6531 	.byte	35
00000a02 7563494400     6532 	.strz	"ucID"
00000a07 1a             6533 	.byte	26
00000a08 12             6534 	.byte	18
00000a09 0e             6535 	.byte	14
00000a0a 00000000*      6536 	.word	.LDW_4e21108
00000a0e 0223           6537 	.byte	2,35
00000a10 03             6538 	.byte	3
00000a11 01             6539 	.byte	1
                        6540 
                        6541 .LDW_4e207b8:
00000a12 23             6542 	.byte	35
00000a13 756350726573   6543 	.strz	"ucPressure"
00000a19 7375726500 
00000a1e 1b             6544 	.byte	27
00000a1f 12             6545 	.byte	18
00000a20 0e             6546 	.byte	14
00000a21 00000000*      6547 	.word	.LDW_4946da0
00000a25 0223           6548 	.byte	2,35
00000a27 07             6549 	.byte	7
00000a28 01             6550 	.byte	1
                        6551 
                        6552 .LDW_4e20848:
00000a29 23             6553 	.byte	35
00000a2a 756354656d70   6554 	.strz	"ucTemperature"
00000a30 657261747572 
00000a36 6500 
00000a38 1c             6555 	.byte	28
00000a39 12             6556 	.byte	18
00000a3a 0e             6557 	.byte	14
00000a3b 00000000*      6558 	.word	.LDW_4946da0
00000a3f 0223           6559 	.byte	2,35
00000a41 08             6560 	.byte	8

                                                                      Page 120
                                                              C:\Users\nhuliyap\AppData\Local\Temp\gh_00002rs1.s
00000a42 01             6561 	.byte	1
                        6562 
                        6563 .LDW_4e203c8:
00000a43 23             6564 	.byte	35
00000a44 756343524338   6565 	.strz	"ucCRC8"
00000a4a 00 
00000a4b 1d             6566 	.byte	29
00000a4c 12             6567 	.byte	18
00000a4d 0e             6568 	.byte	14
00000a4e 00000000*      6569 	.word	.LDW_4946da0
00000a52 0223           6570 	.byte	2,35
00000a54 09             6571 	.byte	9
00000a55 01             6572 	.byte	1
                        6573 
00000a56 00             6574 	.byte	0
                        6575 
                        6576 .LDW_4e1fd20:
00000a57 28             6577 	.byte	40
00000a58 507265427566   6578 	.strz	"PreBufAK35def"
00000a5e 414b33356465 
00000a64 6600 
00000a66 1e             6579 	.byte	30
00000a67 02             6580 	.byte	2
00000a68 0e             6581 	.byte	14
00000a69 00000000*      6582 	.word	.LDW_4e1fd78
                        6583 
                        6584 .LDW_4e1fdd0:
00000a6d 41             6585 	.byte	65
00000a6e 20             6586 	.byte	32
00000a6f 0f             6587 	.byte	15
00000a70 0e             6588 	.byte	14
00000a71 0c             6589 	.byte	12
00000a72 01             6590 	.byte	1
                        6591 
                        6592 .LDW_4e206e0:
00000a73 23             6593 	.byte	35
00000a74 756348656164   6594 	.strz	"ucHeader"
00000a7a 657200 
00000a7d 21             6595 	.byte	33
00000a7e 12             6596 	.byte	18
00000a7f 0e             6597 	.byte	14
00000a80 00000000*      6598 	.word	.LDW_4e21190
00000a84 0223           6599 	.byte	2,35
00000a86 00             6600 	.byte	0
00000a87 01             6601 	.byte	1
                        6602 
                        6603 .LDW_4e202f0:
00000a88 23             6604 	.byte	35
00000a89 7563436d6449   6605 	.strz	"ucCmdID"
00000a8f 4400 
00000a91 22             6606 	.byte	34
00000a92 12             6607 	.byte	18
00000a93 0e             6608 	.byte	14
00000a94 00000000*      6609 	.word	.LDW_4946da0
00000a98 0223           6610 	.byte	2,35
00000a9a 02             6611 	.byte	2
00000a9b 01             6612 	.byte	1
                        6613 
                        6614 .LDW_4e20068:
00000a9c 23             6615 	.byte	35
00000a9d 7563494400     6616 	.strz	"ucID"

                                                                      Page 121
                                                              C:\Users\nhuliyap\AppData\Local\Temp\gh_00002rs1.s
00000aa2 23             6617 	.byte	35
00000aa3 12             6618 	.byte	18
00000aa4 0e             6619 	.byte	14
00000aa5 00000000*      6620 	.word	.LDW_4e21460
00000aa9 0223           6621 	.byte	2,35
00000aab 03             6622 	.byte	3
00000aac 01             6623 	.byte	1
                        6624 
                        6625 .LDW_4e200b0:
00000aad 23             6626 	.byte	35
00000aae 756350726573   6627 	.strz	"ucPressure"
00000ab4 7375726500 
00000ab9 24             6628 	.byte	36
00000aba 12             6629 	.byte	18
00000abb 0e             6630 	.byte	14
00000abc 00000000*      6631 	.word	.LDW_4946da0
00000ac0 0223           6632 	.byte	2,35
00000ac2 07             6633 	.byte	7
00000ac3 01             6634 	.byte	1
                        6635 
                        6636 .LDW_4e20458:
00000ac4 23             6637 	.byte	35
00000ac5 756354656d70   6638 	.strz	"ucTemperature"
00000acb 657261747572 
00000ad1 6500 
00000ad3 25             6639 	.byte	37
00000ad4 12             6640 	.byte	18
00000ad5 0e             6641 	.byte	14
00000ad6 00000000*      6642 	.word	.LDW_4946da0
00000ada 0223           6643 	.byte	2,35
00000adc 08             6644 	.byte	8
00000add 01             6645 	.byte	1
                        6646 
                        6647 .LDW_4e200f8:
00000ade 23             6648 	.byte	35
00000adf 756342797465   6649 	.strz	"ucByte1Status"
00000ae5 315374617475 
00000aeb 7300 
00000aed 26             6650 	.byte	38
00000aee 12             6651 	.byte	18
00000aef 0e             6652 	.byte	14
00000af0 00000000*      6653 	.word	.LDW_4946da0
00000af4 0223           6654 	.byte	2,35
00000af6 09             6655 	.byte	9
00000af7 01             6656 	.byte	1
                        6657 
                        6658 .LDW_4e20140:
00000af8 23             6659 	.byte	35
00000af9 756342797465   6660 	.strz	"ucByte2Status"
00000aff 325374617475 
00000b05 7300 
00000b07 27             6661 	.byte	39
00000b08 12             6662 	.byte	18
00000b09 0e             6663 	.byte	14
00000b0a 00000000*      6664 	.word	.LDW_4946da0
00000b0e 0223           6665 	.byte	2,35
00000b10 0a             6666 	.byte	10
00000b11 01             6667 	.byte	1
                        6668 
                        6669 .LDW_4e20188:
00000b12 23             6670 	.byte	35

                                                                      Page 122
                                                              C:\Users\nhuliyap\AppData\Local\Temp\gh_00002rs1.s
00000b13 756343524338   6671 	.strz	"ucCRC8"
00000b19 00 
00000b1a 28             6672 	.byte	40
00000b1b 12             6673 	.byte	18
00000b1c 0e             6674 	.byte	14
00000b1d 00000000*      6675 	.word	.LDW_4946da0
00000b21 0223           6676 	.byte	2,35
00000b23 0b             6677 	.byte	11
00000b24 01             6678 	.byte	1
                        6679 
00000b25 00             6680 	.byte	0
                        6681 
                        6682 .LDW_4e1fb10:
00000b26 28             6683 	.byte	40
00000b27 507265427566   6684 	.strz	"PreBufHufStatus"
00000b2d 487566537461 
00000b33 74757300 
00000b37 29             6685 	.byte	41
00000b38 02             6686 	.byte	2
00000b39 0e             6687 	.byte	14
00000b3a 00000000*      6688 	.word	.LDW_4e1fdd0
                        6689 
                        6690 .LDW_4e1fe80:
00000b3e 41             6691 	.byte	65
00000b3f 2b             6692 	.byte	43
00000b40 0f             6693 	.byte	15
00000b41 0e             6694 	.byte	14
00000b42 0b             6695 	.byte	11
00000b43 01             6696 	.byte	1
                        6697 
                        6698 .LDW_4e201d0:
00000b44 23             6699 	.byte	35
00000b45 756348656164   6700 	.strz	"ucHeader"
00000b4b 657200 
00000b4e 2c             6701 	.byte	44
00000b4f 12             6702 	.byte	18
00000b50 0e             6703 	.byte	14
00000b51 00000000*      6704 	.word	.LDW_4e21c58
00000b55 0223           6705 	.byte	2,35
00000b57 00             6706 	.byte	0
00000b58 01             6707 	.byte	1
                        6708 
                        6709 .LDW_4e20410:
00000b59 23             6710 	.byte	35
00000b5a 7563436d6449   6711 	.strz	"ucCmdID"
00000b60 4400 
00000b62 2d             6712 	.byte	45
00000b63 12             6713 	.byte	18
00000b64 0e             6714 	.byte	14
00000b65 00000000*      6715 	.word	.LDW_4946da0
00000b69 0223           6716 	.byte	2,35
00000b6b 02             6717 	.byte	2
00000b6c 01             6718 	.byte	1
                        6719 
                        6720 .LDW_4e20218:
00000b6d 23             6721 	.byte	35
00000b6e 7563494400     6722 	.strz	"ucID"
00000b73 2e             6723 	.byte	46
00000b74 12             6724 	.byte	18
00000b75 0e             6725 	.byte	14
00000b76 00000000*      6726 	.word	.LDW_4e21928

                                                                      Page 123
                                                              C:\Users\nhuliyap\AppData\Local\Temp\gh_00002rs1.s
00000b7a 0223           6727 	.byte	2,35
00000b7c 03             6728 	.byte	3
00000b7d 01             6729 	.byte	1
                        6730 
                        6731 .LDW_4e204e8:
00000b7e 23             6732 	.byte	35
00000b7f 75635000       6733 	.strz	"ucP"
00000b83 2f             6734 	.byte	47
00000b84 12             6735 	.byte	18
00000b85 0e             6736 	.byte	14
00000b86 00000000*      6737 	.word	.LDW_4946da0
00000b8a 0223           6738 	.byte	2,35
00000b8c 07             6739 	.byte	7
00000b8d 01             6740 	.byte	1
                        6741 
                        6742 .LDW_4e202a8:
00000b8e 23             6743 	.byte	35
00000b8f 75635400       6744 	.strz	"ucT"
00000b93 30             6745 	.byte	48
00000b94 12             6746 	.byte	18
00000b95 0e             6747 	.byte	14
00000b96 00000000*      6748 	.word	.LDW_4946da0
00000b9a 0223           6749 	.byte	2,35
00000b9c 08             6750 	.byte	8
00000b9d 01             6751 	.byte	1
                        6752 
                        6753 .LDW_4e20338:
00000b9e 23             6754 	.byte	35
00000b9f 756354656c53   6755 	.strz	"ucTelSentnEnergy"
00000ba5 656e746e456e 
00000bab 6572677900 
00000bb0 31             6756 	.byte	49
00000bb1 12             6757 	.byte	18
00000bb2 0e             6758 	.byte	14
00000bb3 00000000*      6759 	.word	.LDW_4946da0
00000bb7 0223           6760 	.byte	2,35
00000bb9 09             6761 	.byte	9
00000bba 01             6762 	.byte	1
                        6763 
                        6764 .LDW_4e20530:
00000bbb 23             6765 	.byte	35
00000bbc 756343524338   6766 	.strz	"ucCRC8"
00000bc2 00 
00000bc3 32             6767 	.byte	50
00000bc4 12             6768 	.byte	18
00000bc5 0e             6769 	.byte	14
00000bc6 00000000*      6770 	.word	.LDW_4946da0
00000bca 0223           6771 	.byte	2,35
00000bcc 0a             6772 	.byte	10
00000bcd 01             6773 	.byte	1
                        6774 
00000bce 00             6775 	.byte	0
                        6776 
                        6777 .LDW_4e1fa08:
00000bcf 28             6778 	.byte	40
00000bd0 507265427566   6779 	.strz	"PreBufG4Std"
00000bd6 473453746400 
00000bdc 33             6780 	.byte	51
00000bdd 02             6781 	.byte	2
00000bde 0e             6782 	.byte	14
00000bdf 00000000*      6783 	.word	.LDW_4e1fe80

                                                                      Page 124
                                                              C:\Users\nhuliyap\AppData\Local\Temp\gh_00002rs1.s
                        6784 
                        6785 .LDW_4e1fa60:
00000be3 41             6786 	.byte	65
00000be4 35             6787 	.byte	53
00000be5 0f             6788 	.byte	15
00000be6 0e             6789 	.byte	14
00000be7 0a             6790 	.byte	10
00000be8 01             6791 	.byte	1
                        6792 
                        6793 .LDW_4e20608:
00000be9 23             6794 	.byte	35
00000bea 756348656164   6795 	.strz	"ucHeader"
00000bf0 657200 
00000bf3 36             6796 	.byte	54
00000bf4 12             6797 	.byte	18
00000bf5 0e             6798 	.byte	14
00000bf6 00000000*      6799 	.word	.LDW_4e21708
00000bfa 0223           6800 	.byte	2,35
00000bfc 00             6801 	.byte	0
00000bfd 01             6802 	.byte	1
                        6803 
                        6804 .LDW_4e20698:
00000bfe 23             6805 	.byte	35
00000bff 7563436d6449   6806 	.strz	"ucCmdID"
00000c05 4400 
00000c07 37             6807 	.byte	55
00000c08 12             6808 	.byte	18
00000c09 0e             6809 	.byte	14
00000c0a 00000000*      6810 	.word	.LDW_4946da0
00000c0e 0223           6811 	.byte	2,35
00000c10 02             6812 	.byte	2
00000c11 01             6813 	.byte	1
                        6814 
                        6815 .LDW_4e20e30:
00000c12 23             6816 	.byte	35
00000c13 7563494400     6817 	.strz	"ucID"
00000c18 38             6818 	.byte	56
00000c19 12             6819 	.byte	18
00000c1a 0e             6820 	.byte	14
00000c1b 00000000*      6821 	.word	.LDW_4e219b0
00000c1f 0223           6822 	.byte	2,35
00000c21 03             6823 	.byte	3
00000c22 01             6824 	.byte	1
                        6825 
                        6826 .LDW_4e20a40:
00000c23 23             6827 	.byte	35
00000c24 7563536e5248   6828 	.strz	"ucSnRH"
00000c2a 00 
00000c2b 39             6829 	.byte	57
00000c2c 12             6830 	.byte	18
00000c2d 0e             6831 	.byte	14
00000c2e 00000000*      6832 	.word	.LDW_4946da0
00000c32 0223           6833 	.byte	2,35
00000c34 07             6834 	.byte	7
00000c35 01             6835 	.byte	1
                        6836 
                        6837 .LDW_4e20de8:
00000c36 23             6838 	.byte	35
00000c37 7563524c00     6839 	.strz	"ucRL"
00000c3c 3a             6840 	.byte	58
00000c3d 12             6841 	.byte	18

                                                                      Page 125
                                                              C:\Users\nhuliyap\AppData\Local\Temp\gh_00002rs1.s
00000c3e 0e             6842 	.byte	14
00000c3f 00000000*      6843 	.word	.LDW_4946da0
00000c43 0223           6844 	.byte	2,35
00000c45 08             6845 	.byte	8
00000c46 01             6846 	.byte	1
                        6847 
                        6848 .LDW_4e20ba8:
00000c47 23             6849 	.byte	35
00000c48 756343524338   6850 	.strz	"ucCRC8"
00000c4e 00 
00000c4f 3b             6851 	.byte	59
00000c50 12             6852 	.byte	18
00000c51 0e             6853 	.byte	14
00000c52 00000000*      6854 	.word	.LDW_4946da0
00000c56 0223           6855 	.byte	2,35
00000c58 09             6856 	.byte	9
00000c59 01             6857 	.byte	1
                        6858 
00000c5a 00             6859 	.byte	0
                        6860 
                        6861 .LDW_4e1fab8:
00000c5b 28             6862 	.byte	40
00000c5c 507265427566   6863 	.strz	"PreBufRotatS"
00000c62 526f74617453 
00000c68 00 
00000c69 3c             6864 	.byte	60
00000c6a 02             6865 	.byte	2
00000c6b 0e             6866 	.byte	14
00000c6c 00000000*      6867 	.word	.LDW_4e1fa60
                        6868 
                        6869 .LDW_4e1fb68:
00000c70 41             6870 	.byte	65
00000c71 3e             6871 	.byte	62
00000c72 0f             6872 	.byte	15
00000c73 0e             6873 	.byte	14
00000c74 0d             6874 	.byte	13
00000c75 01             6875 	.byte	1
                        6876 
                        6877 .LDW_4e20bf0:
00000c76 23             6878 	.byte	35
00000c77 756348656164   6879 	.strz	"ucHeader"
00000c7d 657200 
00000c80 3f             6880 	.byte	63
00000c81 11             6881 	.byte	17
00000c82 0e             6882 	.byte	14
00000c83 00000000*      6883 	.word	.LDW_4e213d8
00000c87 0223           6884 	.byte	2,35
00000c89 00             6885 	.byte	0
00000c8a 01             6886 	.byte	1
                        6887 
                        6888 .LDW_4e20920:
00000c8b 23             6889 	.byte	35
00000c8c 7563436d6449   6890 	.strz	"ucCmdID"
00000c92 4400 
00000c94 40             6891 	.byte	64
00000c95 11             6892 	.byte	17
00000c96 0e             6893 	.byte	14
00000c97 00000000*      6894 	.word	.LDW_4946da0
00000c9b 0223           6895 	.byte	2,35
00000c9d 02             6896 	.byte	2
00000c9e 01             6897 	.byte	1

                                                                      Page 126
                                                              C:\Users\nhuliyap\AppData\Local\Temp\gh_00002rs1.s
                        6898 
                        6899 .LDW_4e20b60:
00000c9f 23             6900 	.byte	35
00000ca0 7563494400     6901 	.strz	"ucID"
00000ca5 41             6902 	.byte	65
00000ca6 11             6903 	.byte	17
00000ca7 0e             6904 	.byte	14
00000ca8 00000000*      6905 	.word	.LDW_4e21818
00000cac 0223           6906 	.byte	2,35
00000cae 03             6907 	.byte	3
00000caf 01             6908 	.byte	1
                        6909 
                        6910 .LDW_4e20b18:
00000cb0 23             6911 	.byte	35
00000cb1 756350726573   6912 	.strz	"ucPressure"
00000cb7 7375726500 
00000cbc 42             6913 	.byte	66
00000cbd 11             6914 	.byte	17
00000cbe 0e             6915 	.byte	14
00000cbf 00000000*      6916 	.word	.LDW_4946da0
00000cc3 0223           6917 	.byte	2,35
00000cc5 07             6918 	.byte	7
00000cc6 01             6919 	.byte	1
                        6920 
                        6921 .LDW_4e20d58:
00000cc7 23             6922 	.byte	35
00000cc8 756354656d70   6923 	.strz	"ucTemperature"
00000cce 657261747572 
00000cd4 6500 
00000cd6 43             6924 	.byte	67
00000cd7 11             6925 	.byte	17
00000cd8 0e             6926 	.byte	14
00000cd9 00000000*      6927 	.word	.LDW_4946da0
00000cdd 0223           6928 	.byte	2,35
00000cdf 08             6929 	.byte	8
00000ce0 01             6930 	.byte	1
                        6931 
                        6932 .LDW_4e20e78:
00000ce1 23             6933 	.byte	35
00000ce2 756352657365   6934 	.strz	"ucReserved"
00000ce8 7276656400 
00000ced 44             6935 	.byte	68
00000cee 11             6936 	.byte	17
00000cef 0e             6937 	.byte	14
00000cf0 00000000*      6938 	.word	.LDW_4946da0
00000cf4 0223           6939 	.byte	2,35
00000cf6 09             6940 	.byte	9
00000cf7 01             6941 	.byte	1
                        6942 
                        6943 .LDW_4e20c38:
00000cf8 23             6944 	.byte	35
00000cf9 756342797465   6945 	.strz	"ucByte1Status"
00000cff 315374617475 
00000d05 7300 
00000d07 45             6946 	.byte	69
00000d08 11             6947 	.byte	17
00000d09 0e             6948 	.byte	14
00000d0a 00000000*      6949 	.word	.LDW_4946da0
00000d0e 0223           6950 	.byte	2,35
00000d10 0a             6951 	.byte	10
00000d11 01             6952 	.byte	1

                                                                      Page 127
                                                              C:\Users\nhuliyap\AppData\Local\Temp\gh_00002rs1.s
                        6953 
                        6954 .LDW_4e20da0:
00000d12 23             6955 	.byte	35
00000d13 756342797465   6956 	.strz	"ucByte2Status"
00000d19 325374617475 
00000d1f 7300 
00000d21 46             6957 	.byte	70
00000d22 11             6958 	.byte	17
00000d23 0e             6959 	.byte	14
00000d24 00000000*      6960 	.word	.LDW_4946da0
00000d28 0223           6961 	.byte	2,35
00000d2a 0b             6962 	.byte	11
00000d2b 01             6963 	.byte	1
                        6964 
                        6965 .LDW_4e20ec0:
00000d2c 23             6966 	.byte	35
00000d2d 756343524338   6967 	.strz	"ucCRC8"
00000d33 00 
00000d34 47             6968 	.byte	71
00000d35 11             6969 	.byte	17
00000d36 0e             6970 	.byte	14
00000d37 00000000*      6971 	.word	.LDW_4946da0
00000d3b 0223           6972 	.byte	2,35
00000d3d 0c             6973 	.byte	12
00000d3e 01             6974 	.byte	1
                        6975 
00000d3f 00             6976 	.byte	0
                        6977 
                        6978 .LDW_4e1ef08:
00000d40 28             6979 	.byte	40
00000d41 507265427566   6980 	.strz	"PreBufHufLfResponse"
00000d47 4875664c6652 
00000d4d 6573706f6e73 
00000d53 6500 
00000d55 48             6981 	.byte	72
00000d56 02             6982 	.byte	2
00000d57 0e             6983 	.byte	14
00000d58 00000000*      6984 	.word	.LDW_4e1fb68
                        6985 
                        6986 .LDW_4e1f220:
00000d5c 41             6987 	.byte	65
00000d5d 4a             6988 	.byte	74
00000d5e 0f             6989 	.byte	15
00000d5f 0e             6990 	.byte	14
00000d60 0d             6991 	.byte	13
00000d61 01             6992 	.byte	1
                        6993 
                        6994 .LDW_4e20f08:
00000d62 23             6995 	.byte	35
00000d63 756348656164   6996 	.strz	"ucHeader"
00000d69 657200 
00000d6c 4b             6997 	.byte	75
00000d6d 12             6998 	.byte	18
00000d6e 0e             6999 	.byte	14
00000d6f 00000000*      7000 	.word	.LDW_4e21df0
00000d73 0223           7001 	.byte	2,35
00000d75 00             7002 	.byte	0
00000d76 01             7003 	.byte	1
                        7004 
                        7005 .LDW_4e20f50:
00000d77 23             7006 	.byte	35

                                                                      Page 128
                                                              C:\Users\nhuliyap\AppData\Local\Temp\gh_00002rs1.s
00000d78 7563436d6449   7007 	.strz	"ucCmdID"
00000d7e 4400 
00000d80 4c             7008 	.byte	76
00000d81 12             7009 	.byte	18
00000d82 0e             7010 	.byte	14
00000d83 00000000*      7011 	.word	.LDW_4946da0
00000d87 0223           7012 	.byte	2,35
00000d89 02             7013 	.byte	2
00000d8a 01             7014 	.byte	1
                        7015 
                        7016 .LDW_4e209f8:
00000d8b 23             7017 	.byte	35
00000d8c 7563494400     7018 	.strz	"ucID"
00000d91 4d             7019 	.byte	77
00000d92 12             7020 	.byte	18
00000d93 0e             7021 	.byte	14
00000d94 00000000*      7022 	.word	.LDW_4e21e78
00000d98 0223           7023 	.byte	2,35
00000d9a 03             7024 	.byte	3
00000d9b 01             7025 	.byte	1
                        7026 
                        7027 .LDW_4e20f98:
00000d9c 23             7028 	.byte	35
00000d9d 75635000       7029 	.strz	"ucP"
00000da1 4e             7030 	.byte	78
00000da2 12             7031 	.byte	18
00000da3 0e             7032 	.byte	14
00000da4 00000000*      7033 	.word	.LDW_4946da0
00000da8 0223           7034 	.byte	2,35
00000daa 07             7035 	.byte	7
00000dab 01             7036 	.byte	1
                        7037 
                        7038 .LDW_4e20968:
00000dac 23             7039 	.byte	35
00000dad 75635400       7040 	.strz	"ucT"
00000db1 4f             7041 	.byte	79
00000db2 12             7042 	.byte	18
00000db3 0e             7043 	.byte	14
00000db4 00000000*      7044 	.word	.LDW_4946da0
00000db8 0223           7045 	.byte	2,35
00000dba 08             7046 	.byte	8
00000dbb 01             7047 	.byte	1
                        7048 
                        7049 .LDW_4e209b0:
00000dbc 23             7050 	.byte	35
00000dbd 756342617400   7051 	.strz	"ucBat"
00000dc3 50             7052 	.byte	80
00000dc4 12             7053 	.byte	18
00000dc5 0e             7054 	.byte	14
00000dc6 00000000*      7055 	.word	.LDW_4946da0
00000dca 0223           7056 	.byte	2,35
00000dcc 09             7057 	.byte	9
00000dcd 01             7058 	.byte	1
                        7059 
                        7060 .LDW_4e20a88:
00000dce 23             7061 	.byte	35
00000dcf 756341636300   7062 	.strz	"ucAcc"
00000dd5 51             7063 	.byte	81
00000dd6 12             7064 	.byte	18
00000dd7 0e             7065 	.byte	14
00000dd8 00000000*      7066 	.word	.LDW_4946da0

                                                                      Page 129
                                                              C:\Users\nhuliyap\AppData\Local\Temp\gh_00002rs1.s
00000ddc 0223           7067 	.byte	2,35
00000dde 0a             7068 	.byte	10
00000ddf 01             7069 	.byte	1
                        7070 
                        7071 .LDW_4e20c80:
00000de0 23             7072 	.byte	35
00000de1 75634d6f6465   7073 	.strz	"ucModeNCode"
00000de7 4e436f646500 
00000ded 52             7074 	.byte	82
00000dee 12             7075 	.byte	18
00000def 0e             7076 	.byte	14
00000df0 00000000*      7077 	.word	.LDW_4946da0
00000df4 0223           7078 	.byte	2,35
00000df6 0b             7079 	.byte	11
00000df7 01             7080 	.byte	1
                        7081 
                        7082 .LDW_4e20ad0:
00000df8 23             7083 	.byte	35
00000df9 756343524338   7084 	.strz	"ucCRC8"
00000dff 00 
00000e00 53             7085 	.byte	83
00000e01 12             7086 	.byte	18
00000e02 0e             7087 	.byte	14
00000e03 00000000*      7088 	.word	.LDW_4946da0
00000e07 0223           7089 	.byte	2,35
00000e09 0c             7090 	.byte	12
00000e0a 01             7091 	.byte	1
                        7092 
00000e0b 00             7093 	.byte	0
                        7094 
                        7095 .LDW_4e1f170:
00000e0c 28             7096 	.byte	40
00000e0d 507265427566   7097 	.strz	"PreBufContiFP"
00000e13 436f6e746946 
00000e19 5000 
00000e1b 54             7098 	.byte	84
00000e1c 02             7099 	.byte	2
00000e1d 0e             7100 	.byte	14
00000e1e 00000000*      7101 	.word	.LDW_4e1f220
                        7102 
                        7103 .LDW_4e1f6f0:
00000e22 41             7104 	.byte	65
00000e23 56             7105 	.byte	86
00000e24 0f             7106 	.byte	15
00000e25 0e             7107 	.byte	14
00000e26 10             7108 	.byte	16
00000e27 01             7109 	.byte	1
                        7110 
                        7111 .LDW_4e20cc8:
00000e28 23             7112 	.byte	35
00000e29 756348656164   7113 	.strz	"ucHeader"
00000e2f 657200 
00000e32 57             7114 	.byte	87
00000e33 11             7115 	.byte	17
00000e34 0e             7116 	.byte	14
00000e35 00000000*      7117 	.word	.LDW_4e214e8
00000e39 0223           7118 	.byte	2,35
00000e3b 00             7119 	.byte	0
00000e3c 01             7120 	.byte	1
                        7121 
                        7122 .LDW_4e20d10:

                                                                      Page 130
                                                              C:\Users\nhuliyap\AppData\Local\Temp\gh_00002rs1.s
00000e3d 23             7123 	.byte	35
00000e3e 7563436d6449   7124 	.strz	"ucCmdID"
00000e44 4400 
00000e46 58             7125 	.byte	88
00000e47 11             7126 	.byte	17
00000e48 0e             7127 	.byte	14
00000e49 00000000*      7128 	.word	.LDW_4946da0
00000e4d 0223           7129 	.byte	2,35
00000e4f 02             7130 	.byte	2
00000e50 01             7131 	.byte	1
                        7132 
                        7133 .LDW_4e22b98:
00000e51 23             7134 	.byte	35
00000e52 7563494400     7135 	.strz	"ucID"
00000e57 59             7136 	.byte	89
00000e58 11             7137 	.byte	17
00000e59 0e             7138 	.byte	14
00000e5a 00000000*      7139 	.word	.LDW_4e21ce0
00000e5e 0223           7140 	.byte	2,35
00000e60 03             7141 	.byte	3
00000e61 01             7142 	.byte	1
                        7143 
                        7144 .LDW_4e22e20:
00000e62 23             7145 	.byte	35
00000e63 756352657365   7146 	.strz	"ucReserved1"
00000e69 727665643100 
00000e6f 5a             7147 	.byte	90
00000e70 11             7148 	.byte	17
00000e71 0e             7149 	.byte	14
00000e72 00000000*      7150 	.word	.LDW_4946da0
00000e76 0223           7151 	.byte	2,35
00000e78 07             7152 	.byte	7
00000e79 01             7153 	.byte	1
                        7154 
                        7155 .LDW_4e22dd8:
00000e7a 23             7156 	.byte	35
00000e7b 756352657365   7157 	.strz	"ucReserved2"
00000e81 727665643200 
00000e87 5b             7158 	.byte	91
00000e88 11             7159 	.byte	17
00000e89 0e             7160 	.byte	14
00000e8a 00000000*      7161 	.word	.LDW_4946da0
00000e8e 0223           7162 	.byte	2,35
00000e90 08             7163 	.byte	8
00000e91 01             7164 	.byte	1
                        7165 
                        7166 .LDW_4e230a8:
00000e92 23             7167 	.byte	35
00000e93 756352657365   7168 	.strz	"ucReserved3"
00000e99 727665643300 
00000e9f 5c             7169 	.byte	92
00000ea0 11             7170 	.byte	17
00000ea1 0e             7171 	.byte	14
00000ea2 00000000*      7172 	.word	.LDW_4946da0
00000ea6 0223           7173 	.byte	2,35
00000ea8 09             7174 	.byte	9
00000ea9 01             7175 	.byte	1
                        7176 
                        7177 .LDW_4e22c70:
00000eaa 23             7178 	.byte	35
00000eab 756352657365   7179 	.strz	"ucReserved4"

                                                                      Page 131
                                                              C:\Users\nhuliyap\AppData\Local\Temp\gh_00002rs1.s
00000eb1 727665643400 
00000eb7 5d             7180 	.byte	93
00000eb8 11             7181 	.byte	17
00000eb9 0e             7182 	.byte	14
00000eba 00000000*      7183 	.word	.LDW_4946da0
00000ebe 0223           7184 	.byte	2,35
00000ec0 0a             7185 	.byte	10
00000ec1 01             7186 	.byte	1
                        7187 
                        7188 .LDW_4e22d00:
00000ec2 23             7189 	.byte	35
00000ec3 756352657365   7190 	.strz	"ucReserved5"
00000ec9 727665643500 
00000ecf 5e             7191 	.byte	94
00000ed0 11             7192 	.byte	17
00000ed1 0e             7193 	.byte	14
00000ed2 00000000*      7194 	.word	.LDW_4946da0
00000ed6 0223           7195 	.byte	2,35
00000ed8 0b             7196 	.byte	11
00000ed9 01             7197 	.byte	1
                        7198 
                        7199 .LDW_4e230f0:
00000eda 23             7200 	.byte	35
00000edb 756352657365   7201 	.strz	"ucReserved6"
00000ee1 727665643600 
00000ee7 5f             7202 	.byte	95
00000ee8 11             7203 	.byte	17
00000ee9 0e             7204 	.byte	14
00000eea 00000000*      7205 	.word	.LDW_4946da0
00000eee 0223           7206 	.byte	2,35
00000ef0 0c             7207 	.byte	12
00000ef1 01             7208 	.byte	1
                        7209 
                        7210 .LDW_4e23180:
00000ef2 23             7211 	.byte	35
00000ef3 756352657365   7212 	.strz	"ucReserved7"
00000ef9 727665643700 
00000eff 60             7213 	.byte	96
00000f00 11             7214 	.byte	17
00000f01 0e             7215 	.byte	14
00000f02 00000000*      7216 	.word	.LDW_4946da0
00000f06 0223           7217 	.byte	2,35
00000f08 0d             7218 	.byte	13
00000f09 01             7219 	.byte	1
                        7220 
                        7221 .LDW_4e22f88:
00000f0a 23             7222 	.byte	35
00000f0b 756352657365   7223 	.strz	"ucReserved8"
00000f11 727665643800 
00000f17 61             7224 	.byte	97
00000f18 11             7225 	.byte	17
00000f19 0e             7226 	.byte	14
00000f1a 00000000*      7227 	.word	.LDW_4946da0
00000f1e 0223           7228 	.byte	2,35
00000f20 0e             7229 	.byte	14
00000f21 01             7230 	.byte	1
                        7231 
                        7232 .LDW_4e23018:
00000f22 23             7233 	.byte	35
00000f23 756343524338   7234 	.strz	"ucCRC8"
00000f29 00 

                                                                      Page 132
                                                              C:\Users\nhuliyap\AppData\Local\Temp\gh_00002rs1.s
00000f2a 62             7235 	.byte	98
00000f2b 11             7236 	.byte	17
00000f2c 0e             7237 	.byte	14
00000f2d 00000000*      7238 	.word	.LDW_4946da0
00000f31 0223           7239 	.byte	2,35
00000f33 0f             7240 	.byte	15
00000f34 01             7241 	.byte	1
                        7242 
00000f35 00             7243 	.byte	0
                        7244 
                        7245 .LDW_4e1f9b0:
00000f36 28             7246 	.byte	40
00000f37 507265427566   7247 	.strz	"PreBufSchraderFp"
00000f3d 536368726164 
00000f43 6572467000 
00000f48 63             7248 	.byte	99
00000f49 02             7249 	.byte	2
00000f4a 0e             7250 	.byte	14
00000f4b 00000000*      7251 	.word	.LDW_4e1f6f0
                        7252 
                        7253 .LDW_4e1ef60:
00000f4f 41             7254 	.byte	65
00000f50 65             7255 	.byte	101
00000f51 10             7256 	.byte	16
00000f52 0e             7257 	.byte	14
00000f53 18             7258 	.byte	24
00000f54 01             7259 	.byte	1
                        7260 
                        7261 .LDW_4e22e68:
00000f55 23             7262 	.byte	35
00000f56 617563486561   7263 	.strz	"aucHeader"
00000f5c 64657200 
00000f60 66             7264 	.byte	102
00000f61 11             7265 	.byte	17
00000f62 0e             7266 	.byte	14
00000f63 00000000*      7267 	.word	.LDW_4e21790
00000f67 0223           7268 	.byte	2,35
00000f69 00             7269 	.byte	0
00000f6a 01             7270 	.byte	1
                        7271 
                        7272 .LDW_4e23138:
00000f6b 23             7273 	.byte	35
00000f6c 61756354656c   7274 	.strz	"aucTelDat"
00000f72 44617400 
00000f76 67             7275 	.byte	103
00000f77 11             7276 	.byte	17
00000f78 0e             7277 	.byte	14
00000f79 00000000*      7278 	.word	.LDW_4e21240
00000f7d 0223           7279 	.byte	2,35
00000f7f 02             7280 	.byte	2
00000f80 01             7281 	.byte	1
                        7282 
                        7283 .LDW_4e22b50:
00000f81 23             7284 	.byte	35
00000f82 756341766700   7285 	.strz	"ucAvg"
00000f88 68             7286 	.byte	104
00000f89 11             7287 	.byte	17
00000f8a 0e             7288 	.byte	14
00000f8b 00000000*      7289 	.word	.LDW_4946da0
00000f8f 0223           7290 	.byte	2,35
00000f91 10             7291 	.byte	16

                                                                      Page 133
                                                              C:\Users\nhuliyap\AppData\Local\Temp\gh_00002rs1.s
00000f92 01             7292 	.byte	1
                        7293 
                        7294 .LDW_4e22ef8:
00000f93 23             7295 	.byte	35
00000f94 756c54696d65   7296 	.strz	"ulTimeStamp"
00000f9a 5374616d7000 
00000fa0 69             7297 	.byte	105
00000fa1 11             7298 	.byte	17
00000fa2 0e             7299 	.byte	14
00000fa3 00000000*      7300 	.word	.LDW_4946f98
00000fa7 0223           7301 	.byte	2,35
00000fa9 14             7302 	.byte	20
00000faa 01             7303 	.byte	1
                        7304 
00000fab 00             7305 	.byte	0
                        7306 
                        7307 .LDW_4e1f0c0:
00000fac 28             7308 	.byte	40
00000fad 507265427566   7309 	.strz	"PreBufStructure"
00000fb3 537472756374 
00000fb9 75726500 
00000fbd 6a             7310 	.byte	106
00000fbe 02             7311 	.byte	2
00000fbf 0e             7312 	.byte	14
00000fc0 00000000*      7313 	.word	.LDW_4e1ef60
                        7314 
                        7315 .LDW_4e1f5e8:
00000fc4 42             7316 	.byte	66
00000fc5 707265627566   7317 	.strz	"prebuffer"
00000fcb 66657200 
00000fcf 6c             7318 	.byte	108
00000fd0 0f             7319 	.byte	15
00000fd1 0e             7320 	.byte	14
00000fd2 18             7321 	.byte	24
00000fd3 01             7322 	.byte	1
                        7323 
                        7324 	.section	.debug_abbrev
000000a3 42             7325 	.byte	66
000000a4 17             7326 	.byte	23
000000a5 01             7327 	.byte	1
000000a6 0308           7328 	.byte	3,8
000000a8 3b0f           7329 	.byte	59,15
000000aa 390f           7330 	.byte	57,15
000000ac 3a0f           7331 	.byte	58,15
000000ae 0b0f           7332 	.byte	11,15
000000b0 320b           7333 	.byte	50,11
000000b2 0000           7334 	.byte	0,0
                        7335 
                        7336 	.section	.debug_info
                        7337 .LDW_4e231c8:
00000fd4 23             7338 	.byte	35
00000fd5 486561646572   7339 	.strz	"Header"
00000fdb 00 
00000fdc 6d             7340 	.byte	109
00000fdd 10             7341 	.byte	16
00000fde 0e             7342 	.byte	14
00000fdf 00000000*      7343 	.word	.LDW_4e1fcc8
00000fe3 0223           7344 	.byte	2,35
00000fe5 00             7345 	.byte	0
00000fe6 01             7346 	.byte	1
                        7347 

                                                                      Page 134
                                                              C:\Users\nhuliyap\AppData\Local\Temp\gh_00002rs1.s
                        7348 .LDW_4e22be0:
00000fe7 23             7349 	.byte	35
00000fe8 537472756300   7350 	.strz	"Struc"
00000fee 6e             7351 	.byte	110
00000fef 13             7352 	.byte	19
00000ff0 0e             7353 	.byte	14
00000ff1 00000000*      7354 	.word	.LDW_4e1f0c0
00000ff5 0223           7355 	.byte	2,35
00000ff7 00             7356 	.byte	0
00000ff8 01             7357 	.byte	1
                        7358 
                        7359 .LDW_4e22c28:
00000ff9 23             7360 	.byte	35
00000ffa 414b33356465   7361 	.strz	"AK35def"
00001000 6600 
00001002 6f             7362 	.byte	111
00001003 11             7363 	.byte	17
00001004 0e             7364 	.byte	14
00001005 00000000*      7365 	.word	.LDW_4e1fd20
00001009 0223           7366 	.byte	2,35
0000100b 00             7367 	.byte	0
0000100c 01             7368 	.byte	1
                        7369 
                        7370 .LDW_4e22cb8:
0000100d 23             7371 	.byte	35
0000100e 487566537461   7372 	.strz	"HufStatus"
00001014 74757300 
00001018 70             7373 	.byte	112
00001019 13             7374 	.byte	19
0000101a 0e             7375 	.byte	14
0000101b 00000000*      7376 	.word	.LDW_4e1fb10
0000101f 0223           7377 	.byte	2,35
00001021 00             7378 	.byte	0
00001022 01             7379 	.byte	1
                        7380 
                        7381 .LDW_4e22d48:
00001023 23             7382 	.byte	35
00001024 473453746400   7383 	.strz	"G4Std"
0000102a 71             7384 	.byte	113
0000102b 0f             7385 	.byte	15
0000102c 0e             7386 	.byte	14
0000102d 00000000*      7387 	.word	.LDW_4e1fa08
00001031 0223           7388 	.byte	2,35
00001033 00             7389 	.byte	0
00001034 01             7390 	.byte	1
                        7391 
                        7392 .LDW_4e22d90:
00001035 23             7393 	.byte	35
00001036 436f6e746946   7394 	.strz	"ContiFP"
0000103c 5000 
0000103e 72             7395 	.byte	114
0000103f 11             7396 	.byte	17
00001040 0e             7397 	.byte	14
00001041 00000000*      7398 	.word	.LDW_4e1f170
00001045 0223           7399 	.byte	2,35
00001047 00             7400 	.byte	0
00001048 01             7401 	.byte	1
                        7402 
                        7403 .LDW_4e22eb0:
00001049 23             7404 	.byte	35
0000104a 526f74617453   7405 	.strz	"RotatS"

                                                                      Page 135
                                                              C:\Users\nhuliyap\AppData\Local\Temp\gh_00002rs1.s
00001050 00 
00001051 73             7406 	.byte	115
00001052 10             7407 	.byte	16
00001053 0e             7408 	.byte	14
00001054 00000000*      7409 	.word	.LDW_4e1fab8
00001058 0223           7410 	.byte	2,35
0000105a 00             7411 	.byte	0
0000105b 01             7412 	.byte	1
                        7413 
                        7414 .LDW_4e22f40:
0000105c 23             7415 	.byte	35
0000105d 4c6652657370   7416 	.strz	"LfResponse"
00001063 6f6e736500 
00001068 74             7417 	.byte	116
00001069 17             7418 	.byte	23
0000106a 0e             7419 	.byte	14
0000106b 00000000*      7420 	.word	.LDW_4e1ef08
0000106f 0223           7421 	.byte	2,35
00001071 00             7422 	.byte	0
00001072 01             7423 	.byte	1
                        7424 
                        7425 .LDW_4e22fd0:
00001073 23             7426 	.byte	35
00001074 536368726164   7427 	.strz	"SchraderType"
0000107a 657254797065 
00001080 00 
00001081 75             7428 	.byte	117
00001082 14             7429 	.byte	20
00001083 0e             7430 	.byte	14
00001084 00000000*      7431 	.word	.LDW_4e1f9b0
00001088 0223           7432 	.byte	2,35
0000108a 00             7433 	.byte	0
0000108b 01             7434 	.byte	1
                        7435 
0000108c 00             7436 	.byte	0
                        7437 
                        7438 .LDW_4e1f640:
0000108d 28             7439 	.byte	40
0000108e 745072654275   7440 	.strz	"tPreBuf"
00001094 6600 
00001096 76             7441 	.byte	118
00001097 02             7442 	.byte	2
00001098 0e             7443 	.byte	14
00001099 00000000*      7444 	.word	.LDW_4e1f5e8
                        7445 
                        7446 .LDW_4e1f1c8:
0000109d 28             7447 	.byte	40
0000109e 74524654656c   7448 	.strz	"tRFTelType"
000010a4 5479706500 
000010a9 08             7449 	.byte	8
000010aa 11             7450 	.byte	17
000010ab 0d             7451 	.byte	13
000010ac 00000000*      7452 	.word	.LDW_4e1f640
                        7453 
                        7454 .LDW_4e1f900:
000010b0 40             7455 	.byte	64
000010b1 5a4f4d536c6f   7456 	.strz	"ZOMSlot"
000010b7 7400 
000010b9 15             7457 	.byte	21
000010ba 08             7458 	.byte	8
000010bb 0f             7459 	.byte	15

                                                                      Page 136
                                                              C:\Users\nhuliyap\AppData\Local\Temp\gh_00002rs1.s
000010bc 40             7460 	.byte	64
000010bd 01             7461 	.byte	1
                        7462 
                        7463 .LDW_4e22a30:
000010be 23             7464 	.byte	35
000010bf 756c494400     7465 	.strz	"ulID"
000010c4 16             7466 	.byte	22
000010c5 11             7467 	.byte	17
000010c6 0f             7468 	.byte	15
000010c7 00000000*      7469 	.word	.LDW_4946f98
000010cb 0223           7470 	.byte	2,35
000010cd 00             7471 	.byte	0
000010ce 01             7472 	.byte	1
                        7473 
                        7474 .LDW_4e228c8:
000010cf 23             7475 	.byte	35
000010d0 756353746174   7476 	.strz	"ucStatus"
000010d6 757300 
000010d9 17             7477 	.byte	23
000010da 11             7478 	.byte	17
000010db 0f             7479 	.byte	15
000010dc 00000000*      7480 	.word	.LDW_4946da0
000010e0 0223           7481 	.byte	2,35
000010e2 04             7482 	.byte	4
000010e3 01             7483 	.byte	1
                        7484 
                        7485 .LDW_4e22760:
000010e4 23             7486 	.byte	35
000010e5 756350726f62   7487 	.strz	"ucProbeCt"
000010eb 65437400 
000010ef 18             7488 	.byte	24
000010f0 11             7489 	.byte	17
000010f1 0f             7490 	.byte	15
000010f2 00000000*      7491 	.word	.LDW_4946da0
000010f6 0223           7492 	.byte	2,35
000010f8 05             7493 	.byte	5
000010f9 01             7494 	.byte	1
                        7495 
                        7496 .LDW_4e22520:
000010fa 23             7497 	.byte	35
000010fb 75634c656674   7498 	.strz	"ucLeftCt"
00001101 437400 
00001104 19             7499 	.byte	25
00001105 11             7500 	.byte	17
00001106 0f             7501 	.byte	15
00001107 00000000*      7502 	.word	.LDW_4946da0
0000110b 0223           7503 	.byte	2,35
0000110d 06             7504 	.byte	6
0000110e 01             7505 	.byte	1
                        7506 
                        7507 .LDW_4e223b8:
0000110f 23             7508 	.byte	35
00001110 756352696768   7509 	.strz	"ucRightCt"
00001116 74437400 
0000111a 1a             7510 	.byte	26
0000111b 11             7511 	.byte	17
0000111c 0f             7512 	.byte	15
0000111d 00000000*      7513 	.word	.LDW_4946da0
00001121 0223           7514 	.byte	2,35
00001123 07             7515 	.byte	7
00001124 01             7516 	.byte	1

                                                                      Page 137
                                                              C:\Users\nhuliyap\AppData\Local\Temp\gh_00002rs1.s
                        7517 
                        7518 .LDW_4e22838:
00001125 23             7519 	.byte	35
00001126 757368566172   7520 	.strz	"ushVariation"
0000112c 696174696f6e 
00001132 00 
00001133 1b             7521 	.byte	27
00001134 12             7522 	.byte	18
00001135 0f             7523 	.byte	15
00001136 00000000*      7524 	.word	.LDW_4946ac8
0000113a 0223           7525 	.byte	2,35
0000113c 08             7526 	.byte	8
0000113d 01             7527 	.byte	1
                        7528 
                        7529 .LDW_4e22568:
0000113e 23             7530 	.byte	35
0000113f 757368527373   7531 	.strz	"ushRssiSum"
00001145 6953756d00 
0000114a 1c             7532 	.byte	28
0000114b 12             7533 	.byte	18
0000114c 0f             7534 	.byte	15
0000114d 00000000*      7535 	.word	.LDW_4946ac8
00001151 0223           7536 	.byte	2,35
00001153 0a             7537 	.byte	10
00001154 01             7538 	.byte	1
                        7539 
                        7540 .LDW_4e22490:
00001155 23             7541 	.byte	35
00001156 75634c617374   7542 	.strz	"ucLastRssi"
0000115c 5273736900 
00001161 1d             7543 	.byte	29
00001162 11             7544 	.byte	17
00001163 0f             7545 	.byte	15
00001164 00000000*      7546 	.word	.LDW_4946da0
00001168 0223           7547 	.byte	2,35
0000116a 0c             7548 	.byte	12
0000116b 01             7549 	.byte	1
                        7550 
                        7551 .LDW_4e22370:
0000116c 23             7552 	.byte	35
0000116d 7563536b6970   7553 	.strz	"ucSkipNewTelTimerInSec"
00001173 4e657754656c 
00001179 54696d657249 
0000117f 6e53656300 
00001184 1e             7554 	.byte	30
00001185 11             7555 	.byte	17
00001186 0f             7556 	.byte	15
00001187 00000000*      7557 	.word	.LDW_4946da0
0000118b 0223           7558 	.byte	2,35
0000118d 0d             7559 	.byte	13
0000118e 01             7560 	.byte	1
                        7561 
                        7562 .LDW_4e22a78:
0000118f 23             7563 	.byte	35
00001190 756341425352   7564 	.strz	"ucABSRef"
00001196 656600 
00001199 21             7565 	.byte	33
0000119a 11             7566 	.byte	17
0000119b 0f             7567 	.byte	15
0000119c 00000000*      7568 	.word	.LDW_4e21570
000011a0 0223           7569 	.byte	2,35

                                                                      Page 138
                                                              C:\Users\nhuliyap\AppData\Local\Temp\gh_00002rs1.s
000011a2 0e             7570 	.byte	14
000011a3 01             7571 	.byte	1
                        7572 
                        7573 .LDW_4e22640:
000011a4 23             7574 	.byte	35
000011a5 7573684d5664   7575 	.strz	"ushMVdN"
000011ab 4e00 
000011ad 22             7576 	.byte	34
000011ae 12             7577 	.byte	18
000011af 0f             7578 	.byte	15
000011b0 00000000*      7579 	.word	.LDW_4e212c8
000011b4 0223           7580 	.byte	2,35
000011b6 12             7581 	.byte	18
000011b7 01             7582 	.byte	1
                        7583 
                        7584 .LDW_4e224d8:
000011b8 23             7585 	.byte	35
000011b9 757368506f73   7586 	.strz	"ushPosCompVal"
000011bf 436f6d705661 
000011c5 6c00 
000011c7 23             7587 	.byte	35
000011c8 12             7588 	.byte	18
000011c9 0f             7589 	.byte	15
000011ca 00000000*      7590 	.word	.LDW_4e21a38
000011ce 0223           7591 	.byte	2,35
000011d0 1a             7592 	.byte	26
000011d1 01             7593 	.byte	1
                        7594 
                        7595 .LDW_4e227a8:
000011d2 23             7596 	.byte	35
000011d3 7573684d5664   7597 	.strz	"ushMVdN2"
000011d9 4e3200 
000011dc 24             7598 	.byte	36
000011dd 12             7599 	.byte	18
000011de 0f             7600 	.byte	15
000011df 00000000*      7601 	.word	.LDW_4e21f88
000011e3 0223           7602 	.byte	2,35
000011e5 22             7603 	.byte	34
000011e6 01             7604 	.byte	1
                        7605 
                        7606 .LDW_4e229e8:
000011e7 23             7607 	.byte	35
000011e8 757368506f73   7608 	.strz	"ushPosCompVal2"
000011ee 436f6d705661 
000011f4 6c3200 
000011f7 25             7609 	.byte	37
000011f8 12             7610 	.byte	18
000011f9 0f             7611 	.byte	15
000011fa 00000000*      7612 	.word	.LDW_4e21ac0
000011fe 0223           7613 	.byte	2,35
00001200 2a             7614 	.byte	42
00001201 01             7615 	.byte	1
                        7616 
                        7617 .LDW_4e22b08:
00001202 23             7618 	.byte	35
00001203 756352656c43   7619 	.strz	"ucRelCmpVal"
00001209 6d7056616c00 
0000120f 26             7620 	.byte	38
00001210 11             7621 	.byte	17
00001211 0f             7622 	.byte	15
00001212 00000000*      7623 	.word	.LDW_4e22098

                                                                      Page 139
                                                              C:\Users\nhuliyap\AppData\Local\Temp\gh_00002rs1.s
00001216 0223           7624 	.byte	2,35
00001218 32             7625 	.byte	50
00001219 01             7626 	.byte	1
                        7627 
                        7628 .LDW_4e225b0:
0000121a 23             7629 	.byte	35
0000121b 7563536f7274   7630 	.strz	"ucSort"
00001221 00 
00001222 27             7631 	.byte	39
00001223 11             7632 	.byte	17
00001224 0f             7633 	.byte	15
00001225 00000000*      7634 	.word	.LDW_4e21d68
00001229 0223           7635 	.byte	2,35
0000122b 36             7636 	.byte	54
0000122c 01             7637 	.byte	1
                        7638 
                        7639 .LDW_4e22250:
0000122d 23             7640 	.byte	35
0000122e 7563416c676f   7641 	.strz	"ucAlgoTelEvtCnt"
00001234 54656c457674 
0000123a 436e7400 
0000123e 28             7642 	.byte	40
0000123f 11             7643 	.byte	17
00001240 0f             7644 	.byte	15
00001241 00000000*      7645 	.word	.LDW_4946da0
00001245 0223           7646 	.byte	2,35
00001247 3a             7647 	.byte	58
00001248 01             7648 	.byte	1
                        7649 
                        7650 .LDW_4e227f0:
00001249 23             7651 	.byte	35
0000124a 756352657365   7652 	.strz	"ucResetABSRefFlag"
00001250 744142535265 
00001256 66466c616700 
0000125c 29             7653 	.byte	41
0000125d 11             7654 	.byte	17
0000125e 0f             7655 	.byte	15
0000125f 00000000*      7656 	.word	.LDW_4946da0
00001263 0223           7657 	.byte	2,35
00001265 3b             7658 	.byte	59
00001266 01             7659 	.byte	1
                        7660 
                        7661 .LDW_4e22ac0:
00001267 23             7662 	.byte	35
00001268 62506f744e65   7663 	.strz	"bPotNewID"
0000126e 77494400 
00001272 2a             7664 	.byte	42
00001273 0c             7665 	.byte	12
00001274 0f             7666 	.byte	15
00001275 00000000*      7667 	.word	.LDW_4dccb18
00001279 0223           7668 	.byte	2,35
0000127b 3c             7669 	.byte	60
0000127c 01             7670 	.byte	1
                        7671 
                        7672 .LDW_4e225f8:
0000127d 23             7673 	.byte	35
0000127e 624f776e4944   7674 	.strz	"bOwnID"
00001284 00 
00001285 2b             7675 	.byte	43
00001286 0c             7676 	.byte	12
00001287 0f             7677 	.byte	15

                                                                      Page 140
                                                              C:\Users\nhuliyap\AppData\Local\Temp\gh_00002rs1.s
00001288 00000000*      7678 	.word	.LDW_4dccb18
0000128c 0223           7679 	.byte	2,35
0000128e 3d             7680 	.byte	61
0000128f 01             7681 	.byte	1
                        7682 
00001290 00             7683 	.byte	0
                        7684 
                        7685 .LDW_4e249f0:
00001291 04             7686 	.byte	4
00001292 756357414374   7687 	.strz	"ucWACtrlFixc"
00001298 726c46697863 
0000129e 00 
0000129f 16             7688 	.byte	22
000012a0 1c             7689 	.byte	28
000012a1 01             7690 	.byte	1
000012a2 00000000*      7691 	.word	.LDW_4e1f538
000012a6 00             7692 	.byte	0
000012a7 00             7693 	.byte	0
000012a8 0503           7694 	.byte	5,3
000012aa 00000000*      7695 	.word	_ucWACtrlFixc..C.3A.5C_ECU2.5CECU_Rivian_A1.5CTarget.5Crepo_projects.5CpRealEcu.5CcR_R2023.2E09.2E15.5Cmake.5Coutput.5Cobjects.5CWAlloc.
                        7696 
                        7697 	.section	.debug_abbrev
000000b4 04             7698 	.byte	4
000000b5 34             7699 	.byte	52
000000b6 00             7700 	.byte	0
000000b7 0308           7701 	.byte	3,8
000000b9 3b0f           7702 	.byte	59,15
000000bb 390f           7703 	.byte	57,15
000000bd 3a0f           7704 	.byte	58,15
000000bf 4910           7705 	.byte	73,16
000000c1 3f0c           7706 	.byte	63,12
000000c3 3c0c           7707 	.byte	60,12
000000c5 020a           7708 	.byte	2,10
000000c7 0000           7709 	.byte	0,0
                        7710 
                        7711 	.section	.debug_info
                        7712 .LDW_4e24578:
000012ae 04             7713 	.byte	4
000012af 756357414374   7714 	.strz	"ucWACtrlBreakc"
000012b5 726c42726561 
000012bb 6b6300 
000012be 17             7715 	.byte	23
000012bf 1c             7716 	.byte	28
000012c0 01             7717 	.byte	1
000012c1 00000000*      7718 	.word	.LDW_4e1f538
000012c5 00             7719 	.byte	0
000012c6 00             7720 	.byte	0
000012c7 0503           7721 	.byte	5,3
000012c9 00000000*      7722 	.word	_ucWACtrlBreakc..C.3A.5C_ECU2.5CECU_Rivian_A1.5CTarget.5Crepo_projects.5CpRealEcu.5CcR_R2023.2E09.2E15.5Cmake.5Coutput.5Cobjects.5CWAlloc.
                        7723 
                        7724 .LDW_4e24520:
000012cd 04             7725 	.byte	4
000012ce 756357415374   7726 	.strz	"ucWAState"
000012d4 61746500 
000012d8 18             7727 	.byte	24
000012d9 16             7728 	.byte	22
000012da 01             7729 	.byte	1
000012db 00000000*      7730 	.word	.LDW_4946da0
000012df 00             7731 	.byte	0
000012e0 00             7732 	.byte	0
000012e1 0503           7733 	.byte	5,3

                                                                      Page 141
                                                              C:\Users\nhuliyap\AppData\Local\Temp\gh_00002rs1.s
000012e3 00000000*      7734 	.word	_ucWAState..C.3A.5C_ECU2.5CECU_Rivian_A1.5CTarget.5Crepo_projects.5CpRealEcu.5CcR_R2023.2E09.2E15.5Cmake.5Coutput.5Cobjects.5CWAlloc.
                        7735 
                        7736 .LDW_4e24940:
000012e7 04             7737 	.byte	4
000012e8 61756c486973   7738 	.strz	"aulHistoryID"
000012ee 746f72794944 
000012f4 00 
000012f5 19             7739 	.byte	25
000012f6 16             7740 	.byte	22
000012f7 01             7741 	.byte	1
000012f8 00000000*      7742 	.word	.LDW_4e22010
000012fc 00             7743 	.byte	0
000012fd 00             7744 	.byte	0
000012fe 0503           7745 	.byte	5,3
00001300 00000000*      7746 	.word	_aulHistoryID..C.3A.5C_ECU2.5CECU_Rivian_A1.5CTarget.5Crepo_projects.5CpRealEcu.5CcR_R2023.2E09.2E15.5Cmake.5Coutput.5Cobjects.5CWAlloc.
                        7747 
                        7748 .LDW_4e24aa0:
00001304 04             7749 	.byte	4
00001305 617563486973   7750 	.strz	"aucHistoryWP"
0000130b 746f72795750 
00001311 00 
00001312 1a             7751 	.byte	26
00001313 16             7752 	.byte	22
00001314 01             7753 	.byte	1
00001315 00000000*      7754 	.word	.LDW_4e21350
00001319 00             7755 	.byte	0
0000131a 00             7756 	.byte	0
0000131b 0503           7757 	.byte	5,3
0000131d 00000000*      7758 	.word	_aucHistoryWP..C.3A.5C_ECU2.5CECU_Rivian_A1.5CTarget.5Crepo_projects.5CpRealEcu.5CcR_R2023.2E09.2E15.5Cmake.5Coutput.5Cobjects.5CWAlloc.
                        7759 
                        7760 .LDW_4e24b50:
00001321 04             7761 	.byte	4
00001322 75634e724f66   7762 	.strz	"ucNrOfTOs"
00001328 544f7300 
0000132c 1b             7763 	.byte	27
0000132d 16             7764 	.byte	22
0000132e 01             7765 	.byte	1
0000132f 00000000*      7766 	.word	.LDW_4946da0
00001333 00             7767 	.byte	0
00001334 00             7768 	.byte	0
00001335 0503           7769 	.byte	5,3
00001337 00000000*      7770 	.word	_ucNrOfTOs..C.3A.5C_ECU2.5CECU_Rivian_A1.5CTarget.5Crepo_projects.5CpRealEcu.5CcR_R2023.2E09.2E15.5Cmake.5Coutput.5Cobjects.5CWAlloc.
                        7771 
                        7772 .LDW_4e24680:
0000133b 04             7773 	.byte	4
0000133c 757368486973   7774 	.strz	"ushHistProtecTimeCnt"
00001342 7450726f7465 
00001348 6354696d6543 
0000134e 6e7400 
00001351 1c             7775 	.byte	28
00001352 17             7776 	.byte	23
00001353 01             7777 	.byte	1
00001354 00000000*      7778 	.word	.LDW_4946ac8
00001358 00             7779 	.byte	0
00001359 00             7780 	.byte	0
0000135a 0503           7781 	.byte	5,3
0000135c 00000000*      7782 	.word	_ushHistProtecTimeCnt..C.3A.5C_ECU2.5CECU_Rivian_A1.5CTarget.5Crepo_projects.5CpRealEcu.5CcR_R2023.2E09.2E15.5Cmake.5Coutput.5Cobjects.5CWAlloc.
                        7783 
                        7784 .LDW_4e24a48:
00001360 04             7785 	.byte	4
00001361 744142535469   7786 	.strz	"tABSTicksOneRevol"

                                                                      Page 142
                                                              C:\Users\nhuliyap\AppData\Local\Temp\gh_00002rs1.s
00001367 636b734f6e65 
0000136d 5265766f6c00 
00001373 1e             7787 	.byte	30
00001374 1b             7788 	.byte	27
00001375 01             7789 	.byte	1
00001376 00000000*      7790 	.word	.LDW_4e1fc70
0000137a 01             7791 	.byte	1
0000137b 00             7792 	.byte	0
0000137c 0503           7793 	.byte	5,3
0000137e 00000000*      7794 	.word	_tABSTicksOneRevol
                        7795 
                        7796 .LDW_4e24af8:
00001382 04             7797 	.byte	4
00001383 736d5f756357   7798 	.strz	"sm_ucWPConsistentErrCnt"
00001389 50436f6e7369 
0000138f 7374656e7445 
00001395 7272436e7400 
0000139b 21             7799 	.byte	33
0000139c 0e             7800 	.byte	14
0000139d 01             7801 	.byte	1
0000139e 00000000*      7802 	.word	.LDW_4987d30
000013a2 00             7803 	.byte	0
000013a3 00             7804 	.byte	0
000013a4 0503           7805 	.byte	5,3
000013a6 00000000*      7806 	.word	_sm_ucWPConsistentErrCnt..C.3A.5C_ECU2.5CECU_Rivian_A1.5CTarget.5Crepo_projects.5CpRealEcu.5CcR_R2023.2E09.2E15.5Cmake.5Coutput.5Cobjects.5CWAlloc.
                        7807 
                        7808 .LDW_4e24ba8:
000013aa 04             7809 	.byte	4
000013ab 736d5f756341   7810 	.strz	"sm_ucAxisDetectionErrCnt"
000013b1 786973446574 
000013b7 656374696f6e 
000013bd 457272436e74 
000013c3 00 
000013c4 22             7811 	.byte	34
000013c5 0e             7812 	.byte	14
000013c6 01             7813 	.byte	1
000013c7 00000000*      7814 	.word	.LDW_4987d30
000013cb 00             7815 	.byte	0
000013cc 00             7816 	.byte	0
000013cd 0503           7817 	.byte	5,3
000013cf 00000000*      7818 	.word	_sm_ucAxisDetectionErrCnt..C.3A.5C_ECU2.5CECU_Rivian_A1.5CTarget.5Crepo_projects.5CpRealEcu.5CcR_R2023.2E09.2E15.5Cmake.5Coutput.5Cobjects.5CWAlloc.
                        7819 
                        7820 .LDW_4e247e0:
000013d3 04             7821 	.byte	4
000013d4 736d5f756344   7822 	.strz	"sm_ucDirDetectionErrCnt"
000013da 697244657465 
000013e0 6374696f6e45 
000013e6 7272436e7400 
000013ec 23             7823 	.byte	35
000013ed 0e             7824 	.byte	14
000013ee 01             7825 	.byte	1
000013ef 00000000*      7826 	.word	.LDW_4987d30
000013f3 00             7827 	.byte	0
000013f4 00             7828 	.byte	0
000013f5 0503           7829 	.byte	5,3
000013f7 00000000*      7830 	.word	_sm_ucDirDetectionErrCnt..C.3A.5C_ECU2.5CECU_Rivian_A1.5CTarget.5Crepo_projects.5CpRealEcu.5CcR_R2023.2E09.2E15.5Cmake.5Coutput.5Cobjects.5CWAlloc.
                        7831 
                        7832 .LDW_4e24c00:
000013fb 04             7833 	.byte	4
000013fc 745a4f4d00     7834 	.strz	"tZOM"
00001401 25             7835 	.byte	37

                                                                      Page 143
                                                              C:\Users\nhuliyap\AppData\Local\Temp\gh_00002rs1.s
00001402 10             7836 	.byte	16
00001403 01             7837 	.byte	1
00001404 00000000*      7838 	.word	.LDW_4e21680
00001408 01             7839 	.byte	1
00001409 00             7840 	.byte	0
0000140a 0503           7841 	.byte	5,3
0000140c 00000000*      7842 	.word	_tZOM
                        7843 
                        7844 .LDW_4e24c58:
00001410 04             7845 	.byte	4
00001411 745741506172   7846 	.strz	"tWAPar"
00001417 00 
00001418 26             7847 	.byte	38
00001419 0d             7848 	.byte	13
0000141a 01             7849 	.byte	1
0000141b 00000000*      7850 	.word	.LDW_4dcf3d0
0000141f 01             7851 	.byte	1
00001420 00             7852 	.byte	0
00001421 0503           7853 	.byte	5,3
00001423 00000000*      7854 	.word	_tWAPar
                        7855 
                        7856 .LDW_4e28850:
00001427 15             7857 	.byte	21
00001428 526573657441   7858 	.strz	"ResetAllocType"
0000142e 6c6c6f635479 
00001434 706500 
00001437 cc01           7859 	.byte	204,1
00001439 0d             7860 	.byte	13
0000143a 0c             7861 	.byte	12
0000143b 01             7862 	.byte	1
0000143c 00             7863 	.byte	0
0000143d 01             7864 	.byte	1
0000143e 01             7865 	.byte	1
0000143f 00             7866 	.byte	0
00001440 01             7867 	.byte	1
                        7868 
                        7869 	.section	.debug_abbrev
000000c9 15             7870 	.byte	21
000000ca 2e             7871 	.byte	46
000000cb 01             7872 	.byte	1
000000cc 0308           7873 	.byte	3,8
000000ce 3b0f           7874 	.byte	59,15
000000d0 390f           7875 	.byte	57,15
000000d2 3a0f           7876 	.byte	58,15
000000d4 3c0c           7877 	.byte	60,12
000000d6 200b           7878 	.byte	32,11
000000d8 3f0c           7879 	.byte	63,12
000000da 320b           7880 	.byte	50,11
000000dc 4c0b           7881 	.byte	76,11
000000de 270c           7882 	.byte	39,12
000000e0 0000           7883 	.byte	0,0
                        7884 
                        7885 	.section	.debug_info
00001441 00             7886 	.byte	0
                        7887 
                        7888 .LDW_4e27bd8:
00001442 15             7889 	.byte	21
00001443 537461727457   7890 	.strz	"StartWATO"
00001449 41544f00 
0000144d 0c             7891 	.byte	12
0000144e 0d             7892 	.byte	13

                                                                      Page 144
                                                              C:\Users\nhuliyap\AppData\Local\Temp\gh_00002rs1.s
0000144f 0d             7893 	.byte	13
00001450 01             7894 	.byte	1
00001451 00             7895 	.byte	0
00001452 01             7896 	.byte	1
00001453 01             7897 	.byte	1
00001454 00             7898 	.byte	0
00001455 01             7899 	.byte	1
                        7900 
00001456 00             7901 	.byte	0
                        7902 
                        7903 .LDW_4e28d10:
00001457 15             7904 	.byte	21
00001458 43616e63656c   7905 	.strz	"CancelWATO"
0000145e 5741544f00 
00001463 0d             7906 	.byte	13
00001464 0d             7907 	.byte	13
00001465 0d             7908 	.byte	13
00001466 01             7909 	.byte	1
00001467 00             7910 	.byte	0
00001468 01             7911 	.byte	1
00001469 01             7912 	.byte	1
0000146a 00             7913 	.byte	0
0000146b 01             7914 	.byte	1
                        7915 
0000146c 00             7916 	.byte	0
                        7917 
                        7918 .LDW_4e28a18:
0000146d 15             7919 	.byte	21
0000146e 536176654465   7920 	.strz	"SaveDebugAllocType"
00001474 627567416c6c 
0000147a 6f6354797065 
00001480 00 
00001481 0b             7921 	.byte	11
00001482 0d             7922 	.byte	13
00001483 10             7923 	.byte	16
00001484 01             7924 	.byte	1
00001485 00             7925 	.byte	0
00001486 01             7926 	.byte	1
00001487 01             7927 	.byte	1
00001488 00             7928 	.byte	0
00001489 01             7929 	.byte	1
                        7930 
0000148a 00             7931 	.byte	0
                        7932 
                        7933 .LDW_4e294c8:
0000148b 16             7934 	.byte	22
0000148c 436f756e7465   7935 	.strz	"CounterPreparation"
00001492 725072657061 
00001498 726174696f6e 
0000149e 00 
0000149f 0c             7936 	.byte	12
000014a0 16             7937 	.byte	22
000014a1 10             7938 	.byte	16
000014a2 00000000*      7939 	.word	.LDW_4946da0
000014a6 01             7940 	.byte	1
000014a7 00             7941 	.byte	0
000014a8 01             7942 	.byte	1
000014a9 01             7943 	.byte	1
000014aa 00             7944 	.byte	0
000014ab 01             7945 	.byte	1
                        7946 

                                                                      Page 145
                                                              C:\Users\nhuliyap\AppData\Local\Temp\gh_00002rs1.s
                        7947 	.section	.debug_abbrev
000000e2 16             7948 	.byte	22
000000e3 2e             7949 	.byte	46
000000e4 01             7950 	.byte	1
000000e5 0308           7951 	.byte	3,8
000000e7 3b0f           7952 	.byte	59,15
000000e9 390f           7953 	.byte	57,15
000000eb 3a0f           7954 	.byte	58,15
000000ed 4910           7955 	.byte	73,16
000000ef 3c0c           7956 	.byte	60,12
000000f1 200b           7957 	.byte	32,11
000000f3 3f0c           7958 	.byte	63,12
000000f5 320b           7959 	.byte	50,11
000000f7 4c0b           7960 	.byte	76,11
000000f9 270c           7961 	.byte	39,12
000000fb 0000           7962 	.byte	0,0
                        7963 
                        7964 	.section	.debug_info
000014ac 00             7965 	.byte	0
                        7966 
                        7967 .LDW_4e29560:
000014ad 16             7968 	.byte	22
000014ae 7563436f6e63   7969 	.strz	"ucConceptFixPos0"
000014b4 657074466978 
000014ba 506f733000 
000014bf 0d             7970 	.byte	13
000014c0 17             7971 	.byte	23
000014c1 10             7972 	.byte	16
000014c2 00000000*      7973 	.word	.LDW_4946da0
000014c6 01             7974 	.byte	1
000014c7 00             7975 	.byte	0
000014c8 01             7976 	.byte	1
000014c9 01             7977 	.byte	1
000014ca 00             7978 	.byte	0
000014cb 01             7979 	.byte	1
                        7980 
000014cc 00             7981 	.byte	0
                        7982 
                        7983 .LDW_4e29398:
000014cd 15             7984 	.byte	21
000014ce 566572793173   7985 	.strz	"Very1stABSTickIinit"
000014d4 744142535469 
000014da 636b49696e69 
000014e0 7400 
000014e2 0e             7986 	.byte	14
000014e3 0d             7987 	.byte	13
000014e4 10             7988 	.byte	16
000014e5 01             7989 	.byte	1
000014e6 00             7990 	.byte	0
000014e7 01             7991 	.byte	1
000014e8 01             7992 	.byte	1
000014e9 00             7993 	.byte	0
000014ea 01             7994 	.byte	1
                        7995 
000014eb 00             7996 	.byte	0
                        7997 
                        7998 .LDW_4e2a9d8:
000014ec 16             7999 	.byte	22
000014ed 756c47657452   8000 	.strz	"ulGetReDataIdPD"
000014f3 654461746149 
000014f9 64504400 

                                                                      Page 146
                                                              C:\Users\nhuliyap\AppData\Local\Temp\gh_00002rs1.s
000014fd 4c             8001 	.byte	76
000014fe 0f             8002 	.byte	15
000014ff 12             8003 	.byte	18
00001500 00000000*      8004 	.word	.LDW_4de0d08
00001504 01             8005 	.byte	1
00001505 00             8006 	.byte	0
00001506 01             8007 	.byte	1
00001507 01             8008 	.byte	1
00001508 00             8009 	.byte	0
00001509 01             8010 	.byte	1
                        8011 
0000150a 00             8012 	.byte	0
                        8013 
                        8014 .LDW_4e2aba0:
0000150b 16             8015 	.byte	22
0000150c 704765744375   8016 	.strz	"pGetCurTel"
00001512 7254656c00 
00001517 56             8017 	.byte	86
00001518 11             8018 	.byte	17
00001519 12             8019 	.byte	18
0000151a 00000000*      8020 	.word	.LDW_4e2c2c0
0000151e 01             8021 	.byte	1
0000151f 00             8022 	.byte	0
00001520 01             8023 	.byte	1
00001521 01             8024 	.byte	1
00001522 00             8025 	.byte	0
00001523 01             8026 	.byte	1
                        8027 
00001524 00             8028 	.byte	0
                        8029 
                        8030 .LDW_4e2e9a8:
00001525 15             8031 	.byte	21
00001526 52657365744f   8032 	.strz	"ResetOldWarningsByNewEr"
0000152c 6c645761726e 
00001532 696e67734279 
00001538 4e6577457200 
0000153e 16             8033 	.byte	22
0000153f 0d             8034 	.byte	13
00001540 17             8035 	.byte	23
00001541 01             8036 	.byte	1
00001542 00             8037 	.byte	0
00001543 01             8038 	.byte	1
00001544 01             8039 	.byte	1
00001545 00             8040 	.byte	0
00001546 01             8041 	.byte	1
                        8042 
00001547 00             8043 	.byte	0
                        8044 
                        8045 .LDW_4e32170:
00001548 15             8046 	.byte	21
00001549 476574574144   8047 	.strz	"GetWADataEE"
0000154f 617461454500 
00001555 4e             8048 	.byte	78
00001556 0d             8049 	.byte	13
00001557 19             8050 	.byte	25
00001558 01             8051 	.byte	1
00001559 00             8052 	.byte	0
0000155a 01             8053 	.byte	1
0000155b 01             8054 	.byte	1
0000155c 00             8055 	.byte	0
0000155d 01             8056 	.byte	1

                                                                      Page 147
                                                              C:\Users\nhuliyap\AppData\Local\Temp\gh_00002rs1.s
                        8057 
0000155e 00             8058 	.byte	0
                        8059 
                        8060 .LDW_4e319b8:
0000155f 15             8061 	.byte	21
00001560 507574574144   8062 	.strz	"PutWADataEE"
00001566 617461454500 
0000156c 4f             8063 	.byte	79
0000156d 0d             8064 	.byte	13
0000156e 19             8065 	.byte	25
0000156f 01             8066 	.byte	1
00001570 00             8067 	.byte	0
00001571 01             8068 	.byte	1
00001572 01             8069 	.byte	1
00001573 00             8070 	.byte	0
00001574 01             8071 	.byte	1
                        8072 
00001575 00             8073 	.byte	0
                        8074 
                        8075 .LDW_498ec90:
00001576 13             8076 	.byte	19
00001577 536574574163   8077 	.strz	"SetWActiveState"
0000157d 746976655374 
00001583 61746500 
00001587 6e             8078 	.byte	110
00001588 0d             8079 	.byte	13
00001589 01             8080 	.byte	1
0000158a 00000000*      8081 	.word	_SetWActiveState..C.3A.5C_ECU2.5CECU_Rivian_A1.5CTarget.5Crepo_projects.5CpRealEcu.5CcR_R2023.2E09.2E15.5Cmake.5Coutput.5Cobjects.5CWAlloc.
0000158e 00000000*      8082 	.word	___ghs_eofn_SetWActiveState
00001592 0153           8083 	.byte	1,83
00001594 02             8084 	.byte	2
00001595 00             8085 	.byte	0
00001596 02             8086 	.byte	2
00001597 00             8087 	.byte	0
00001598 00             8088 	.byte	0
00001599 00             8089 	.byte	0
0000159a 00             8090 	.byte	0
0000159b 00             8091 	.byte	0
0000159c 01             8092 	.byte	1
0000159d 00             8093 	.byte	0
0000159e 01             8094 	.byte	1
                        8095 
                        8096 	.section	.debug_abbrev
000000fd 13             8097 	.byte	19
000000fe 2e             8098 	.byte	46
000000ff 01             8099 	.byte	1
00000100 0308           8100 	.byte	3,8
00000102 3b0f           8101 	.byte	59,15
00000104 390f           8102 	.byte	57,15
00000106 3a0f           8103 	.byte	58,15
00000108 1101           8104 	.byte	17,1
0000010a 1201           8105 	.byte	18,1
0000010c 400a           8106 	.byte	64,10
0000010e 8341           8107 	.byte	131,65
00000110 0f             8108 	.byte	15
00000111 8741           8109 	.byte	135,65
00000113 0d             8110 	.byte	13
00000114 8541           8111 	.byte	133,65
00000116 0f             8112 	.byte	15
00000117 8641           8113 	.byte	134,65
00000119 0d             8114 	.byte	13

                                                                      Page 148
                                                              C:\Users\nhuliyap\AppData\Local\Temp\gh_00002rs1.s
0000011a 9241           8115 	.byte	146,65
0000011c 0f             8116 	.byte	15
0000011d 3c0c           8117 	.byte	60,12
0000011f 200b           8118 	.byte	32,11
00000121 3f0c           8119 	.byte	63,12
00000123 320b           8120 	.byte	50,11
00000125 4c0b           8121 	.byte	76,11
00000127 270c           8122 	.byte	39,12
00000129 0000           8123 	.byte	0,0
                        8124 
                        8125 	.section	.debug_frame
                        8126 .LDW_4e1cdc0:
00000090 00000000*      8127 	.word	.LDW_unq_4-.LDW_unq_3
                        8128 .LDW_unq_3:
00000094 00000000*      8129 	.word	.LDW_4da5d48
00000098 00000000*      8130 	.word	_SetWActiveState..C.3A.5C_ECU2.5CECU_Rivian_A1.5CTarget.5Crepo_projects.5CpRealEcu.5CcR_R2023.2E09.2E15.5Cmake.5Coutput.5Cobjects.5CWAlloc.
0000009c 00000000*      8131 	.word	___ghs_eofn_SetWActiveState-_SetWActiveState..C.3A.5C_ECU2.5CECU_Rivian_A1.5CTarget.5Crepo_projects.5CpRealEcu.5CcR_R2023.2E09.2E15.5Cmake.5Coutput.5Cobjects.5CWAlloc.
000000a0 01             8132 	.byte	1
000000a1 00000000*      8133 	.word	.LDW11
000000a5 00             8134 	.byte	0
000000a6 00             8135 	.byte	0
000000a7 00             8136 	.byte	0
                        8137 .LDW_unq_4:
                        8138 	.section	.debug_line
0000044d 000502         8139 	.byte	0,5,2
00000450 00000000*      8140 	.word	_SetWActiveState..C.3A.5C_ECU2.5CECU_Rivian_A1.5CTarget.5Crepo_projects.5CpRealEcu.5CcR_R2023.2E09.2E15.5Cmake.5Coutput.5Cobjects.5CWAlloc.
00000454 03             8141 	.byte	3
00000455 ee00           8142 	.byte	238,0
00000457 02             8143 	.byte	2
00000458 00             8144 	.byte	0
00000459 01             8145 	.byte	1
0000045a 06             8146 	.byte	6
0000045b 000502         8147 	.byte	0,5,2
0000045e 00000000*      8148 	.word	.LDWlin1
00000462 0b             8149 	.byte	11
00000463 000502         8150 	.byte	0,5,2
00000466 00000000*      8151 	.word	.LDWlin2
0000046a 02             8152 	.byte	2
0000046b 00             8153 	.byte	0
0000046c 0b             8154 	.byte	11
0000046d 000502         8155 	.byte	0,5,2
00000470 00000000*      8156 	.word	.LDWlin3
00000474 0c             8157 	.byte	12
00000475 0b             8158 	.byte	11
00000476 0b             8159 	.byte	11
00000477 1b             8160 	.byte	27
00000478 02             8161 	.byte	2
00000479 00             8162 	.byte	0
0000047a 0b             8163 	.byte	11
0000047b 02             8164 	.byte	2
0000047c 02             8165 	.byte	2
0000047d 000101         8166 	.byte	0,1,1
                        8167 	.section	.debug_info
                        8168 .LDW_498ed28:
0000159f 0f             8169 	.byte	15
000015a0 756356616c00   8170 	.strz	"ucVal"
000015a6 6f             8171 	.byte	111
000015a7 12             8172 	.byte	18
000015a8 01             8173 	.byte	1
000015a9 00000000*      8174 	.word	.LDW_4946da0
000015ad 00             8175 	.byte	0

                                                                      Page 149
                                                              C:\Users\nhuliyap\AppData\Local\Temp\gh_00002rs1.s
000015ae 0156           8176 	.byte	1,86
                        8177 
                        8178 	.section	.debug_abbrev
0000012b 0f             8179 	.byte	15
0000012c 05             8180 	.byte	5
0000012d 00             8181 	.byte	0
0000012e 0308           8182 	.byte	3,8
00000130 3b0f           8183 	.byte	59,15
00000132 390f           8184 	.byte	57,15
00000134 3a0f           8185 	.byte	58,15
00000136 4910           8186 	.byte	73,16
00000138 4b0c           8187 	.byte	75,12
0000013a 020a           8188 	.byte	2,10
0000013c 0000           8189 	.byte	0,0
                        8190 
                        8191 	.section	.debug_info
                        8192 .LDW_49419c8:
000015b0 1d             8193 	.byte	29
000015b1 00000000*      8194 	.word	.LDW01
000015b5 00000000*      8195 	.word	.LDW11
                        8196 
                        8197 	.section	.debug_abbrev
0000013e 1d             8198 	.byte	29
0000013f 0b             8199 	.byte	11
00000140 01             8200 	.byte	1
00000141 1101           8201 	.byte	17,1
00000143 1201           8202 	.byte	18,1
00000145 0000           8203 	.byte	0,0
                        8204 
                        8205 	.section	.debug_info
000015b9 00             8206 	.byte	0
                        8207 
000015ba 00             8208 	.byte	0
                        8209 
                        8210 .LDW_498ed80:
000015bb 14             8211 	.byte	20
000015bc 756347657457   8212 	.strz	"ucGetWActiveState"
000015c2 416374697665 
000015c8 537461746500 
000015ce 79             8213 	.byte	121
000015cf 16             8214 	.byte	22
000015d0 01             8215 	.byte	1
000015d1 00000000*      8216 	.word	.LDW_4946da0
000015d5 00000000*      8217 	.word	_ucGetWActiveState..C.3A.5C_ECU2.5CECU_Rivian_A1.5CTarget.5Crepo_projects.5CpRealEcu.5CcR_R2023.2E09.2E15.5Cmake.5Coutput.5Cobjects.5CWAlloc.
000015d9 00000000*      8218 	.word	___ghs_eofn_ucGetWActiveState
000015dd 0153           8219 	.byte	1,83
000015df 02             8220 	.byte	2
000015e0 00             8221 	.byte	0
000015e1 02             8222 	.byte	2
000015e2 00             8223 	.byte	0
000015e3 00             8224 	.byte	0
000015e4 00             8225 	.byte	0
000015e5 00             8226 	.byte	0
000015e6 00             8227 	.byte	0
000015e7 01             8228 	.byte	1
000015e8 00             8229 	.byte	0
000015e9 01             8230 	.byte	1
                        8231 
                        8232 	.section	.debug_abbrev
00000147 14             8233 	.byte	20
00000148 2e             8234 	.byte	46

                                                                      Page 150
                                                              C:\Users\nhuliyap\AppData\Local\Temp\gh_00002rs1.s
00000149 01             8235 	.byte	1
0000014a 0308           8236 	.byte	3,8
0000014c 3b0f           8237 	.byte	59,15
0000014e 390f           8238 	.byte	57,15
00000150 3a0f           8239 	.byte	58,15
00000152 4910           8240 	.byte	73,16
00000154 1101           8241 	.byte	17,1
00000156 1201           8242 	.byte	18,1
00000158 400a           8243 	.byte	64,10
0000015a 8341           8244 	.byte	131,65
0000015c 0f             8245 	.byte	15
0000015d 8741           8246 	.byte	135,65
0000015f 0d             8247 	.byte	13
00000160 8541           8248 	.byte	133,65
00000162 0f             8249 	.byte	15
00000163 8641           8250 	.byte	134,65
00000165 0d             8251 	.byte	13
00000166 9241           8252 	.byte	146,65
00000168 0f             8253 	.byte	15
00000169 3c0c           8254 	.byte	60,12
0000016b 200b           8255 	.byte	32,11
0000016d 3f0c           8256 	.byte	63,12
0000016f 320b           8257 	.byte	50,11
00000171 4c0b           8258 	.byte	76,11
00000173 270c           8259 	.byte	39,12
00000175 0000           8260 	.byte	0,0
                        8261 
                        8262 	.section	.debug_frame
                        8263 .LDW_4e1cf00:
000000a8 00000000*      8264 	.word	.LDW_unq_6-.LDW_unq_5
                        8265 .LDW_unq_5:
000000ac 00000000*      8266 	.word	.LDW_4da5d48
000000b0 00000000*      8267 	.word	_ucGetWActiveState..C.3A.5C_ECU2.5CECU_Rivian_A1.5CTarget.5Crepo_projects.5CpRealEcu.5CcR_R2023.2E09.2E15.5Cmake.5Coutput.5Cobjects.5CWAlloc.
000000b4 00000000*      8268 	.word	___ghs_eofn_ucGetWActiveState-_ucGetWActiveState..C.3A.5C_ECU2.5CECU_Rivian_A1.5CTarget.5Crepo_projects.5CpRealEcu.5CcR_R2023.2E09.2E15.5Cmake.5Coutput.5Cobjects.5CWAlloc.
000000b8 01             8269 	.byte	1
000000b9 00000000*      8270 	.word	.LDW31
000000bd 00             8271 	.byte	0
000000be 00             8272 	.byte	0
000000bf 00             8273 	.byte	0
                        8274 .LDW_unq_6:
                        8275 	.section	.debug_line
00000480 000502         8276 	.byte	0,5,2
00000483 00000000*      8277 	.word	_ucGetWActiveState..C.3A.5C_ECU2.5CECU_Rivian_A1.5CTarget.5Crepo_projects.5CpRealEcu.5CcR_R2023.2E09.2E15.5Cmake.5Coutput.5Cobjects.5CWAlloc.
00000487 06             8278 	.byte	6
00000488 03             8279 	.byte	3
00000489 fa00           8280 	.byte	250,0
0000048b 02             8281 	.byte	2
0000048c 00             8282 	.byte	0
0000048d 01             8283 	.byte	1
0000048e 06             8284 	.byte	6
0000048f 000502         8285 	.byte	0,5,2
00000492 00000000*      8286 	.word	.LDWlin4
00000496 02             8287 	.byte	2
00000497 00             8288 	.byte	0
00000498 02             8289 	.byte	2
00000499 02             8290 	.byte	2
0000049a 000101         8291 	.byte	0,1,1
                        8292 	.section	.debug_info
                        8293 .LDW_4941878:
000015ea 1d             8294 	.byte	29
000015eb 00000000*      8295 	.word	.LDW21

                                                                      Page 151
                                                              C:\Users\nhuliyap\AppData\Local\Temp\gh_00002rs1.s
000015ef 00000000*      8296 	.word	.LDW31
                        8297 
000015f3 00             8298 	.byte	0
                        8299 
000015f4 00             8300 	.byte	0
                        8301 
                        8302 .LDW_498ee18:
000015f5 13             8303 	.byte	19
000015f6 536574455253   8304 	.strz	"SetERState"
000015fc 7461746500 
00001601 7f             8305 	.byte	127
00001602 0d             8306 	.byte	13
00001603 01             8307 	.byte	1
00001604 00000000*      8308 	.word	_SetERState..C.3A.5C_ECU2.5CECU_Rivian_A1.5CTarget.5Crepo_projects.5CpRealEcu.5CcR_R2023.2E09.2E15.5Cmake.5Coutput.5Cobjects.5CWAlloc.
00001608 00000000*      8309 	.word	___ghs_eofn_SetERState
0000160c 0153           8310 	.byte	1,83
0000160e 02             8311 	.byte	2
0000160f 00             8312 	.byte	0
00001610 02             8313 	.byte	2
00001611 00             8314 	.byte	0
00001612 00             8315 	.byte	0
00001613 00             8316 	.byte	0
00001614 00             8317 	.byte	0
00001615 00             8318 	.byte	0
00001616 01             8319 	.byte	1
00001617 00             8320 	.byte	0
00001618 01             8321 	.byte	1
                        8322 
                        8323 	.section	.debug_frame
                        8324 .LDW_4e1d6c0:
000000c0 00000000*      8325 	.word	.LDW_unq_8-.LDW_unq_7
                        8326 .LDW_unq_7:
000000c4 00000000*      8327 	.word	.LDW_4da5d48
000000c8 00000000*      8328 	.word	_SetERState..C.3A.5C_ECU2.5CECU_Rivian_A1.5CTarget.5Crepo_projects.5CpRealEcu.5CcR_R2023.2E09.2E15.5Cmake.5Coutput.5Cobjects.5CWAlloc.
000000cc 00000000*      8329 	.word	___ghs_eofn_SetERState-_SetERState..C.3A.5C_ECU2.5CECU_Rivian_A1.5CTarget.5Crepo_projects.5CpRealEcu.5CcR_R2023.2E09.2E15.5Cmake.5Coutput.5Cobjects.5CWAlloc.
000000d0 01             8330 	.byte	1
000000d1 00000000*      8331 	.word	.LDW51
000000d5 00             8332 	.byte	0
000000d6 00             8333 	.byte	0
000000d7 00             8334 	.byte	0
                        8335 .LDW_unq_8:
                        8336 	.section	.debug_line
0000049d 000502         8337 	.byte	0,5,2
000004a0 00000000*      8338 	.word	_SetERState..C.3A.5C_ECU2.5CECU_Rivian_A1.5CTarget.5Crepo_projects.5CpRealEcu.5CcR_R2023.2E09.2E15.5Cmake.5Coutput.5Cobjects.5CWAlloc.
000004a4 03             8339 	.byte	3
000004a5 ff00           8340 	.byte	255,0
000004a7 02             8341 	.byte	2
000004a8 00             8342 	.byte	0
000004a9 01             8343 	.byte	1
000004aa 06             8344 	.byte	6
000004ab 000502         8345 	.byte	0,5,2
000004ae 00000000*      8346 	.word	.LDWlin5
000004b2 0b             8347 	.byte	11
000004b3 000502         8348 	.byte	0,5,2
000004b6 00000000*      8349 	.word	.LDWlin6
000004ba 02             8350 	.byte	2
000004bb 00             8351 	.byte	0
000004bc 0b             8352 	.byte	11
000004bd 000502         8353 	.byte	0,5,2
000004c0 00000000*      8354 	.word	.LDWlin7
000004c4 0c             8355 	.byte	12

                                                                      Page 152
                                                              C:\Users\nhuliyap\AppData\Local\Temp\gh_00002rs1.s
000004c5 0b             8356 	.byte	11
000004c6 0b             8357 	.byte	11
000004c7 1b             8358 	.byte	27
000004c8 02             8359 	.byte	2
000004c9 00             8360 	.byte	0
000004ca 0b             8361 	.byte	11
000004cb 02             8362 	.byte	2
000004cc 02             8363 	.byte	2
000004cd 000101         8364 	.byte	0,1,1
                        8365 	.section	.debug_info
                        8366 .LDW_498eeb0:
00001619 0f             8367 	.byte	15
0000161a 756356616c00   8368 	.strz	"ucVal"
00001620 8001           8369 	.byte	128,1
00001622 12             8370 	.byte	18
00001623 01             8371 	.byte	1
00001624 00000000*      8372 	.word	.LDW_4946da0
00001628 00             8373 	.byte	0
00001629 0156           8374 	.byte	1,86
                        8375 
                        8376 .LDW_4941938:
0000162b 1d             8377 	.byte	29
0000162c 00000000*      8378 	.word	.LDW41
00001630 00000000*      8379 	.word	.LDW51
                        8380 
00001634 00             8381 	.byte	0
                        8382 
00001635 00             8383 	.byte	0
                        8384 
                        8385 .LDW_498ef08:
00001636 14             8386 	.byte	20
00001637 756347657445   8387 	.strz	"ucGetERState"
0000163d 525374617465 
00001643 00 
00001644 8a01           8388 	.byte	138,1
00001646 0f             8389 	.byte	15
00001647 01             8390 	.byte	1
00001648 00000000*      8391 	.word	.LDW_4946da0
0000164c 00000000*      8392 	.word	_ucGetERState
00001650 00000000*      8393 	.word	___ghs_eofn_ucGetERState
00001654 0153           8394 	.byte	1,83
00001656 02             8395 	.byte	2
00001657 00             8396 	.byte	0
00001658 02             8397 	.byte	2
00001659 00             8398 	.byte	0
0000165a 00             8399 	.byte	0
0000165b 00             8400 	.byte	0
0000165c 00             8401 	.byte	0
0000165d 01             8402 	.byte	1
0000165e 01             8403 	.byte	1
0000165f 00             8404 	.byte	0
00001660 01             8405 	.byte	1
                        8406 
                        8407 	.section	.debug_frame
                        8408 .LDW_4e1d600:
000000d8 00000000*      8409 	.word	.LDW_unq_a-.LDW_unq_9
                        8410 .LDW_unq_9:
000000dc 00000000*      8411 	.word	.LDW_4da5d48
000000e0 00000000*      8412 	.word	_ucGetERState
000000e4 00000000*      8413 	.word	___ghs_eofn_ucGetERState-_ucGetERState
000000e8 01             8414 	.byte	1

                                                                      Page 153
                                                              C:\Users\nhuliyap\AppData\Local\Temp\gh_00002rs1.s
000000e9 00000000*      8415 	.word	.LDW71
000000ed 00             8416 	.byte	0
000000ee 00             8417 	.byte	0
000000ef 00             8418 	.byte	0
                        8419 .LDW_unq_a:
                        8420 	.section	.debug_line
000004d0 000502         8421 	.byte	0,5,2
000004d3 00000000*      8422 	.word	_ucGetERState
000004d7 06             8423 	.byte	6
000004d8 03             8424 	.byte	3
000004d9 8b01           8425 	.byte	139,1
000004db 02             8426 	.byte	2
000004dc 00             8427 	.byte	0
000004dd 01             8428 	.byte	1
000004de 06             8429 	.byte	6
000004df 000502         8430 	.byte	0,5,2
000004e2 00000000*      8431 	.word	.LDWlin8
000004e6 02             8432 	.byte	2
000004e7 00             8433 	.byte	0
000004e8 02             8434 	.byte	2
000004e9 02             8435 	.byte	2
000004ea 000101         8436 	.byte	0,1,1
                        8437 	.section	.debug_info
                        8438 .LDW_4941908:
00001661 1d             8439 	.byte	29
00001662 00000000*      8440 	.word	.LDW61
00001666 00000000*      8441 	.word	.LDW71
                        8442 
0000166a 00             8443 	.byte	0
                        8444 
0000166b 00             8445 	.byte	0
                        8446 
                        8447 .LDW_4d4da00:
0000166c 13             8448 	.byte	19
0000166d 5365745a4f53   8449 	.strz	"SetZOState"
00001673 7461746500 
00001678 9001           8450 	.byte	144,1
0000167a 0d             8451 	.byte	13
0000167b 01             8452 	.byte	1
0000167c 00000000*      8453 	.word	_SetZOState..C.3A.5C_ECU2.5CECU_Rivian_A1.5CTarget.5Crepo_projects.5CpRealEcu.5CcR_R2023.2E09.2E15.5Cmake.5Coutput.5Cobjects.5CWAlloc.
00001680 00000000*      8454 	.word	___ghs_eofn_SetZOState
00001684 0153           8455 	.byte	1,83
00001686 02             8456 	.byte	2
00001687 00             8457 	.byte	0
00001688 02             8458 	.byte	2
00001689 00             8459 	.byte	0
0000168a 00             8460 	.byte	0
0000168b 00             8461 	.byte	0
0000168c 00             8462 	.byte	0
0000168d 00             8463 	.byte	0
0000168e 01             8464 	.byte	1
0000168f 00             8465 	.byte	0
00001690 01             8466 	.byte	1
                        8467 
                        8468 	.section	.debug_frame
                        8469 .LDW_4e1d580:
000000f0 00000000*      8470 	.word	.LDW_unq_c-.LDW_unq_b
                        8471 .LDW_unq_b:
000000f4 00000000*      8472 	.word	.LDW_4da5d48
000000f8 00000000*      8473 	.word	_SetZOState..C.3A.5C_ECU2.5CECU_Rivian_A1.5CTarget.5Crepo_projects.5CpRealEcu.5CcR_R2023.2E09.2E15.5Cmake.5Coutput.5Cobjects.5CWAlloc.
000000fc 00000000*      8474 	.word	___ghs_eofn_SetZOState-_SetZOState..C.3A.5C_ECU2.5CECU_Rivian_A1.5CTarget.5Crepo_projects.5CpRealEcu.5CcR_R2023.2E09.2E15.5Cmake.5Coutput.5Cobjects.5CWAlloc.

                                                                      Page 154
                                                              C:\Users\nhuliyap\AppData\Local\Temp\gh_00002rs1.s
00000100 01             8475 	.byte	1
00000101 00000000*      8476 	.word	.LDW91
00000105 00             8477 	.byte	0
00000106 00             8478 	.byte	0
00000107 00             8479 	.byte	0
                        8480 .LDW_unq_c:
                        8481 	.section	.debug_line
000004ed 000502         8482 	.byte	0,5,2
000004f0 00000000*      8483 	.word	_SetZOState..C.3A.5C_ECU2.5CECU_Rivian_A1.5CTarget.5Crepo_projects.5CpRealEcu.5CcR_R2023.2E09.2E15.5Cmake.5Coutput.5Cobjects.5CWAlloc.
000004f4 03             8484 	.byte	3
000004f5 9001           8485 	.byte	144,1
000004f7 02             8486 	.byte	2
000004f8 00             8487 	.byte	0
000004f9 01             8488 	.byte	1
000004fa 06             8489 	.byte	6
000004fb 000502         8490 	.byte	0,5,2
000004fe 00000000*      8491 	.word	.LDWlin9
00000502 0b             8492 	.byte	11
00000503 000502         8493 	.byte	0,5,2
00000506 00000000*      8494 	.word	.LDWlin10
0000050a 02             8495 	.byte	2
0000050b 00             8496 	.byte	0
0000050c 0b             8497 	.byte	11
0000050d 000502         8498 	.byte	0,5,2
00000510 00000000*      8499 	.word	.LDWlin11
00000514 0c             8500 	.byte	12
00000515 0b             8501 	.byte	11
00000516 0b             8502 	.byte	11
00000517 1b             8503 	.byte	27
00000518 02             8504 	.byte	2
00000519 00             8505 	.byte	0
0000051a 0b             8506 	.byte	11
0000051b 02             8507 	.byte	2
0000051c 02             8508 	.byte	2
0000051d 000101         8509 	.byte	0,1,1
                        8510 	.section	.debug_info
                        8511 .LDW_4d4da98:
00001691 0f             8512 	.byte	15
00001692 756356616c00   8513 	.strz	"ucVal"
00001698 9101           8514 	.byte	145,1
0000169a 12             8515 	.byte	18
0000169b 01             8516 	.byte	1
0000169c 00000000*      8517 	.word	.LDW_4946da0
000016a0 00             8518 	.byte	0
000016a1 0156           8519 	.byte	1,86
                        8520 
                        8521 .LDW_4941998:
000016a3 1d             8522 	.byte	29
000016a4 00000000*      8523 	.word	.LDW81
000016a8 00000000*      8524 	.word	.LDW91
                        8525 
000016ac 00             8526 	.byte	0
                        8527 
000016ad 00             8528 	.byte	0
                        8529 
                        8530 .LDW_4d4daf0:
000016ae 14             8531 	.byte	20
000016af 75634765745a   8532 	.strz	"ucGetZOState"
000016b5 4f5374617465 
000016bb 00 
000016bc 9b01           8533 	.byte	155,1

                                                                      Page 155
                                                              C:\Users\nhuliyap\AppData\Local\Temp\gh_00002rs1.s
000016be 16             8534 	.byte	22
000016bf 01             8535 	.byte	1
000016c0 00000000*      8536 	.word	.LDW_4946da0
000016c4 00000000*      8537 	.word	_ucGetZOState..C.3A.5C_ECU2.5CECU_Rivian_A1.5CTarget.5Crepo_projects.5CpRealEcu.5CcR_R2023.2E09.2E15.5Cmake.5Coutput.5Cobjects.5CWAlloc.
000016c8 00000000*      8538 	.word	___ghs_eofn_ucGetZOState
000016cc 0153           8539 	.byte	1,83
000016ce 02             8540 	.byte	2
000016cf 00             8541 	.byte	0
000016d0 02             8542 	.byte	2
000016d1 00             8543 	.byte	0
000016d2 00             8544 	.byte	0
000016d3 00             8545 	.byte	0
000016d4 00             8546 	.byte	0
000016d5 00             8547 	.byte	0
000016d6 01             8548 	.byte	1
000016d7 00             8549 	.byte	0
000016d8 01             8550 	.byte	1
                        8551 
                        8552 	.section	.debug_frame
                        8553 .LDW_4e1d640:
00000108 00000000*      8554 	.word	.LDW_unq_e-.LDW_unq_d
                        8555 .LDW_unq_d:
0000010c 00000000*      8556 	.word	.LDW_4da5d48
00000110 00000000*      8557 	.word	_ucGetZOState..C.3A.5C_ECU2.5CECU_Rivian_A1.5CTarget.5Crepo_projects.5CpRealEcu.5CcR_R2023.2E09.2E15.5Cmake.5Coutput.5Cobjects.5CWAlloc.
00000114 00000000*      8558 	.word	___ghs_eofn_ucGetZOState-_ucGetZOState..C.3A.5C_ECU2.5CECU_Rivian_A1.5CTarget.5Crepo_projects.5CpRealEcu.5CcR_R2023.2E09.2E15.5Cmake.5Coutput.5Cobjects.5CWAlloc.
00000118 01             8559 	.byte	1
00000119 00000000*      8560 	.word	.LDW12
0000011d 00             8561 	.byte	0
0000011e 00             8562 	.byte	0
0000011f 00             8563 	.byte	0
                        8564 .LDW_unq_e:
                        8565 	.section	.debug_line
00000520 000502         8566 	.byte	0,5,2
00000523 00000000*      8567 	.word	_ucGetZOState..C.3A.5C_ECU2.5CECU_Rivian_A1.5CTarget.5Crepo_projects.5CpRealEcu.5CcR_R2023.2E09.2E15.5Cmake.5Coutput.5Cobjects.5CWAlloc.
00000527 06             8568 	.byte	6
00000528 03             8569 	.byte	3
00000529 9c01           8570 	.byte	156,1
0000052b 02             8571 	.byte	2
0000052c 00             8572 	.byte	0
0000052d 01             8573 	.byte	1
0000052e 06             8574 	.byte	6
0000052f 000502         8575 	.byte	0,5,2
00000532 00000000*      8576 	.word	.LDWlin12
00000536 02             8577 	.byte	2
00000537 00             8578 	.byte	0
00000538 02             8579 	.byte	2
00000539 02             8580 	.byte	2
0000053a 000101         8581 	.byte	0,1,1
                        8582 	.section	.debug_info
                        8583 .LDW_49419f8:
000016d9 1d             8584 	.byte	29
000016da 00000000*      8585 	.word	.LDW02
000016de 00000000*      8586 	.word	.LDW12
                        8587 
000016e2 00             8588 	.byte	0
                        8589 
000016e3 00             8590 	.byte	0
                        8591 
                        8592 .LDW_4d4db88:
000016e4 13             8593 	.byte	19
000016e5 536574574153   8594 	.strz	"SetWAStateZOChange"

                                                                      Page 156
                                                              C:\Users\nhuliyap\AppData\Local\Temp\gh_00002rs1.s
000016eb 746174655a4f 
000016f1 4368616e6765 
000016f7 00 
000016f8 a101           8595 	.byte	161,1
000016fa 0d             8596 	.byte	13
000016fb 01             8597 	.byte	1
000016fc 00000000*      8598 	.word	_SetWAStateZOChange..C.3A.5C_ECU2.5CECU_Rivian_A1.5CTarget.5Crepo_projects.5CpRealEcu.5CcR_R2023.2E09.2E15.5Cmake.5Coutput.5Cobjects.5CWAlloc.
00001700 00000000*      8599 	.word	___ghs_eofn_SetWAStateZOChange
00001704 0153           8600 	.byte	1,83
00001706 02             8601 	.byte	2
00001707 00             8602 	.byte	0
00001708 02             8603 	.byte	2
00001709 00             8604 	.byte	0
0000170a 00             8605 	.byte	0
0000170b 00             8606 	.byte	0
0000170c 00             8607 	.byte	0
0000170d 00             8608 	.byte	0
0000170e 01             8609 	.byte	1
0000170f 00             8610 	.byte	0
00001710 01             8611 	.byte	1
                        8612 
                        8613 	.section	.debug_frame
                        8614 .LDW_4e1d840:
00000120 00000000*      8615 	.word	.LDW_unq_10-.LDW_unq_f
                        8616 .LDW_unq_f:
00000124 00000000*      8617 	.word	.LDW_4da5d48
00000128 00000000*      8618 	.word	_SetWAStateZOChange..C.3A.5C_ECU2.5CECU_Rivian_A1.5CTarget.5Crepo_projects.5CpRealEcu.5CcR_R2023.2E09.2E15.5Cmake.5Coutput.5Cobjects.5CWAlloc.
0000012c 00000000*      8619 	.word	___ghs_eofn_SetWAStateZOChange-_SetWAStateZOChange..C.3A.5C_ECU2.5CECU_Rivian_A1.5CTarget.5Crepo_projects.5CpRealEcu.5CcR_R2023.2E09.2E15.5Cmake.5Coutput.5Cobjects.5CWAlloc.
00000130 01             8620 	.byte	1
00000131 00000000*      8621 	.word	.LDW32
00000135 00             8622 	.byte	0
00000136 00             8623 	.byte	0
00000137 00             8624 	.byte	0
                        8625 .LDW_unq_10:
                        8626 	.section	.debug_line
0000053d 000502         8627 	.byte	0,5,2
00000540 00000000*      8628 	.word	_SetWAStateZOChange..C.3A.5C_ECU2.5CECU_Rivian_A1.5CTarget.5Crepo_projects.5CpRealEcu.5CcR_R2023.2E09.2E15.5Cmake.5Coutput.5Cobjects.5CWAlloc.
00000544 03             8629 	.byte	3
00000545 a101           8630 	.byte	161,1
00000547 02             8631 	.byte	2
00000548 00             8632 	.byte	0
00000549 01             8633 	.byte	1
0000054a 06             8634 	.byte	6
0000054b 000502         8635 	.byte	0,5,2
0000054e 00000000*      8636 	.word	.LDWlin13
00000552 0b             8637 	.byte	11
00000553 23             8638 	.byte	35
00000554 1b             8639 	.byte	27
00000555 02             8640 	.byte	2
00000556 02             8641 	.byte	2
00000557 000101         8642 	.byte	0,1,1
                        8643 	.section	.debug_info
                        8644 .LDW_4d4dc20:
00001711 0f             8645 	.byte	15
00001712 75634368616e   8646 	.strz	"ucChangedPos"
00001718 676564506f73 
0000171e 00 
0000171f a201           8647 	.byte	162,1
00001721 12             8648 	.byte	18
00001722 01             8649 	.byte	1
00001723 00000000*      8650 	.word	.LDW_4946da0

                                                                      Page 157
                                                              C:\Users\nhuliyap\AppData\Local\Temp\gh_00002rs1.s
00001727 00             8651 	.byte	0
00001728 0156           8652 	.byte	1,86
                        8653 
                        8654 .LDW_4dcc040:
0000172a 1d             8655 	.byte	29
0000172b 00000000*      8656 	.word	.LDW22
0000172f 00000000*      8657 	.word	.LDW32
                        8658 
00001733 00             8659 	.byte	0
                        8660 
00001734 00             8661 	.byte	0
                        8662 
                        8663 .LDW_4d4dc78:
00001735 13             8664 	.byte	19
00001736 436c6561725a   8665 	.strz	"ClearZOM"
0000173c 4f4d00 
0000173f a701           8666 	.byte	167,1
00001741 06             8667 	.byte	6
00001742 01             8668 	.byte	1
00001743 00000000*      8669 	.word	_ClearZOM
00001747 00000000*      8670 	.word	___ghs_eofn_ClearZOM
0000174b 0153           8671 	.byte	1,83
0000174d 02             8672 	.byte	2
0000174e 00             8673 	.byte	0
0000174f 02             8674 	.byte	2
00001750 00             8675 	.byte	0
00001751 00             8676 	.byte	0
00001752 00             8677 	.byte	0
00001753 00             8678 	.byte	0
00001754 01             8679 	.byte	1
00001755 01             8680 	.byte	1
00001756 00             8681 	.byte	0
00001757 01             8682 	.byte	1
                        8683 
                        8684 	.section	.debug_frame
                        8685 .LDW_4e1d9c0:
00000138 00000000*      8686 	.word	.LDW_unq_12-.LDW_unq_11
                        8687 .LDW_unq_11:
0000013c 00000000*      8688 	.word	.LDW_4da5d48
00000140 00000000*      8689 	.word	_ClearZOM
00000144 00000000*      8690 	.word	___ghs_eofn_ClearZOM-_ClearZOM
00000148 01             8691 	.byte	1
00000149 00000000*      8692 	.word	.LDW52
0000014d 00             8693 	.byte	0
0000014e 00             8694 	.byte	0
0000014f 00             8695 	.byte	0
                        8696 .LDW_unq_12:
                        8697 	.section	.debug_line
0000055a 000502         8698 	.byte	0,5,2
0000055d 00000000*      8699 	.word	_ClearZOM
00000561 03             8700 	.byte	3
00000562 a701           8701 	.byte	167,1
00000564 02             8702 	.byte	2
00000565 00             8703 	.byte	0
00000566 01             8704 	.byte	1
00000567 06             8705 	.byte	6
00000568 14             8706 	.byte	20
00000569 000502         8707 	.byte	0,5,2
0000056c 00000000*      8708 	.word	.LDWlin14
00000570 02             8709 	.byte	2
00000571 00             8710 	.byte	0

                                                                      Page 158
                                                              C:\Users\nhuliyap\AppData\Local\Temp\gh_00002rs1.s
00000572 0b             8711 	.byte	11
00000573 0b             8712 	.byte	11
00000574 0b             8713 	.byte	11
00000575 000502         8714 	.byte	0,5,2
00000578 00000000*      8715 	.word	.LDWlin15
0000057c 02             8716 	.byte	2
0000057d 00             8717 	.byte	0
0000057e 0b             8718 	.byte	11
0000057f 000502         8719 	.byte	0,5,2
00000582 00000000*      8720 	.word	.LDWlin16
00000586 0b             8721 	.byte	11
00000587 02             8722 	.byte	2
00000588 02             8723 	.byte	2
00000589 0b             8724 	.byte	11
0000058a 03             8725 	.byte	3
0000058b 7f             8726 	.byte	127
0000058c 02             8727 	.byte	2
0000058d 0a             8728 	.byte	10
0000058e 01             8729 	.byte	1
0000058f 000502         8730 	.byte	0,5,2
00000592 00000000*      8731 	.word	.LDWlin17
00000596 0c             8732 	.byte	12
00000597 03             8733 	.byte	3
00000598 7d             8734 	.byte	125
00000599 02             8735 	.byte	2
0000059a 00             8736 	.byte	0
0000059b 01             8737 	.byte	1
0000059c 000502         8738 	.byte	0,5,2
0000059f 00000000*      8739 	.word	.LDWlin18
000005a3 03             8740 	.byte	3
000005a4 04             8741 	.byte	4
000005a5 02             8742 	.byte	2
000005a6 00             8743 	.byte	0
000005a7 01             8744 	.byte	1
000005a8 0b             8745 	.byte	11
000005a9 0b             8746 	.byte	11
000005aa 0b             8747 	.byte	11
000005ab 0b             8748 	.byte	11
000005ac 03             8749 	.byte	3
000005ad 7f             8750 	.byte	127
000005ae 02             8751 	.byte	2
000005af 0a             8752 	.byte	10
000005b0 01             8753 	.byte	1
000005b1 000502         8754 	.byte	0,5,2
000005b4 00000000*      8755 	.word	.LDWlin19
000005b8 0c             8756 	.byte	12
000005b9 0b             8757 	.byte	11
000005ba 02             8758 	.byte	2
000005bb 00             8759 	.byte	0
000005bc 0b             8760 	.byte	11
000005bd 02             8761 	.byte	2
000005be 00             8762 	.byte	0
000005bf 0b             8763 	.byte	11
000005c0 02             8764 	.byte	2
000005c1 02             8765 	.byte	2
000005c2 000101         8766 	.byte	0,1,1
                        8767 	.section	.debug_info
                        8768 .LDW_4d4dd10:
00001758 0f             8769 	.byte	15
00001759 7563497800     8770 	.strz	"ucIx"
0000175e a801           8771 	.byte	168,1

                                                                      Page 159
                                                              C:\Users\nhuliyap\AppData\Local\Temp\gh_00002rs1.s
00001760 12             8772 	.byte	18
00001761 01             8773 	.byte	1
00001762 00000000*      8774 	.word	.LDW_4946da0
00001766 00             8775 	.byte	0
00001767 0156           8776 	.byte	1,86
                        8777 
                        8778 .LDW_4dcc100:
00001769 1d             8779 	.byte	29
0000176a 00000000*      8780 	.word	.LDW42
0000176e 00000000*      8781 	.word	.LDW52
                        8782 
                        8783 .LDW_4d4dd68:
00001772 04             8784 	.byte	4
00001773 6900           8785 	.strz	"i"
00001775 a901           8786 	.byte	169,1
00001777 12             8787 	.byte	18
00001778 01             8788 	.byte	1
00001779 00000000*      8789 	.word	.LDW_4946da0
0000177d 00             8790 	.byte	0
0000177e 00             8791 	.byte	0
0000177f 015f           8792 	.byte	1,95
                        8793 
                        8794 .LDW_4d4ddc0:
00001781 04             8795 	.byte	4
00001782 6a00           8796 	.strz	"j"
00001784 a901           8797 	.byte	169,1
00001786 15             8798 	.byte	21
00001787 01             8799 	.byte	1
00001788 00000000*      8800 	.word	.LDW_4946da0
0000178c 00             8801 	.byte	0
0000178d 00             8802 	.byte	0
0000178e 0162           8803 	.byte	1,98
                        8804 
00001790 00             8805 	.byte	0
                        8806 
00001791 00             8807 	.byte	0
                        8808 
                        8809 .LDW_4d4de18:
00001792 13             8810 	.byte	19
00001793 526573657457   8811 	.strz	"ResetWP"
00001799 5000 
0000179b bc01           8812 	.byte	188,1
0000179d 0d             8813 	.byte	13
0000179e 01             8814 	.byte	1
0000179f 00000000*      8815 	.word	_ResetWP..C.3A.5C_ECU2.5CECU_Rivian_A1.5CTarget.5Crepo_projects.5CpRealEcu.5CcR_R2023.2E09.2E15.5Cmake.5Coutput.5Cobjects.5CWAlloc.
000017a3 00000000*      8816 	.word	___ghs_eofn_ResetWP
000017a7 0153           8817 	.byte	1,83
000017a9 02             8818 	.byte	2
000017aa 00             8819 	.byte	0
000017ab 02             8820 	.byte	2
000017ac 00             8821 	.byte	0
000017ad 00             8822 	.byte	0
000017ae 00             8823 	.byte	0
000017af 00             8824 	.byte	0
000017b0 00             8825 	.byte	0
000017b1 01             8826 	.byte	1
000017b2 00             8827 	.byte	0
000017b3 01             8828 	.byte	1
                        8829 
                        8830 	.section	.debug_frame
                        8831 .LDW_4e1d4c0:

                                                                      Page 160
                                                              C:\Users\nhuliyap\AppData\Local\Temp\gh_00002rs1.s
00000150 00000000*      8832 	.word	.LDW_unq_14-.LDW_unq_13
                        8833 .LDW_unq_13:
00000154 00000000*      8834 	.word	.LDW_4da5d48
00000158 00000000*      8835 	.word	_ResetWP..C.3A.5C_ECU2.5CECU_Rivian_A1.5CTarget.5Crepo_projects.5CpRealEcu.5CcR_R2023.2E09.2E15.5Cmake.5Coutput.5Cobjects.5CWAlloc.
0000015c 00000000*      8836 	.word	___ghs_eofn_ResetWP-_ResetWP..C.3A.5C_ECU2.5CECU_Rivian_A1.5CTarget.5Crepo_projects.5CpRealEcu.5CcR_R2023.2E09.2E15.5Cmake.5Coutput.5Cobjects.5CWAlloc.
00000160 01             8837 	.byte	1
00000161 00000000*      8838 	.word	.LDW72
00000165 00             8839 	.byte	0
00000166 00             8840 	.byte	0
00000167 00             8841 	.byte	0
                        8842 .LDW_unq_14:
                        8843 	.section	.debug_line
000005c5 000502         8844 	.byte	0,5,2
000005c8 00000000*      8845 	.word	_ResetWP..C.3A.5C_ECU2.5CECU_Rivian_A1.5CTarget.5Crepo_projects.5CpRealEcu.5CcR_R2023.2E09.2E15.5Cmake.5Coutput.5Cobjects.5CWAlloc.
000005cc 06             8846 	.byte	6
000005cd 03             8847 	.byte	3
000005ce be01           8848 	.byte	190,1
000005d0 02             8849 	.byte	2
000005d1 00             8850 	.byte	0
000005d2 01             8851 	.byte	1
000005d3 02             8852 	.byte	2
000005d4 02             8853 	.byte	2
000005d5 0b             8854 	.byte	11
000005d6 000502         8855 	.byte	0,5,2
000005d9 00000000*      8856 	.word	.LDWlin20
000005dd 03             8857 	.byte	3
000005de 7f             8858 	.byte	127
000005df 02             8859 	.byte	2
000005e0 00             8860 	.byte	0
000005e1 01             8861 	.byte	1
000005e2 000502         8862 	.byte	0,5,2
000005e5 00000000*      8863 	.word	.LDWlin21
000005e9 0c             8864 	.byte	12
000005ea 0b             8865 	.byte	11
000005eb 02             8866 	.byte	2
000005ec 02             8867 	.byte	2
000005ed 000101         8868 	.byte	0,1,1
                        8869 	.section	.debug_info
                        8870 .LDW_4dcc0d0:
000017b4 1d             8871 	.byte	29
000017b5 00000000*      8872 	.word	.LDW62
000017b9 00000000*      8873 	.word	.LDW72
                        8874 
                        8875 .LDW_49877d0:
000017bd 04             8876 	.byte	4
000017be 6900           8877 	.strz	"i"
000017c0 be01           8878 	.byte	190,1
000017c2 12             8879 	.byte	18
000017c3 01             8880 	.byte	1
000017c4 00000000*      8881 	.word	.LDW_4946da0
000017c8 00             8882 	.byte	0
000017c9 00             8883 	.byte	0
000017ca 0162           8884 	.byte	1,98
                        8885 
000017cc 00             8886 	.byte	0
                        8887 
000017cd 00             8888 	.byte	0
                        8889 
                        8890 .LDW_4987828:
000017ce 14             8891 	.byte	20
000017cf 756c4765745a   8892 	.strz	"ulGetZOMID"

                                                                      Page 161
                                                              C:\Users\nhuliyap\AppData\Local\Temp\gh_00002rs1.s
000017d5 4f4d494400 
000017da c401           8893 	.byte	196,1
000017dc 0f             8894 	.byte	15
000017dd 01             8895 	.byte	1
000017de 00000000*      8896 	.word	.LDW_4946f98
000017e2 00000000*      8897 	.word	_ulGetZOMID
000017e6 00000000*      8898 	.word	___ghs_eofn_ulGetZOMID
000017ea 0153           8899 	.byte	1,83
000017ec 02             8900 	.byte	2
000017ed 00             8901 	.byte	0
000017ee 02             8902 	.byte	2
000017ef 00             8903 	.byte	0
000017f0 00             8904 	.byte	0
000017f1 00             8905 	.byte	0
000017f2 00             8906 	.byte	0
000017f3 01             8907 	.byte	1
000017f4 01             8908 	.byte	1
000017f5 00             8909 	.byte	0
000017f6 01             8910 	.byte	1
                        8911 
                        8912 	.section	.debug_frame
                        8913 .LDW_4e1d940:
00000168 00000000*      8914 	.word	.LDW_unq_16-.LDW_unq_15
                        8915 .LDW_unq_15:
0000016c 00000000*      8916 	.word	.LDW_4da5d48
00000170 00000000*      8917 	.word	_ulGetZOMID
00000174 00000000*      8918 	.word	___ghs_eofn_ulGetZOMID-_ulGetZOMID
00000178 01             8919 	.byte	1
00000179 00000000*      8920 	.word	.LDW92
0000017d 00             8921 	.byte	0
0000017e 00             8922 	.byte	0
0000017f 00             8923 	.byte	0
                        8924 .LDW_unq_16:
                        8925 	.section	.debug_line
000005f0 000502         8926 	.byte	0,5,2
000005f3 00000000*      8927 	.word	_ulGetZOMID
000005f7 03             8928 	.byte	3
000005f8 c401           8929 	.byte	196,1
000005fa 02             8930 	.byte	2
000005fb 00             8931 	.byte	0
000005fc 01             8932 	.byte	1
000005fd 06             8933 	.byte	6
000005fe 13             8934 	.byte	19
000005ff 000502         8935 	.byte	0,5,2
00000602 00000000*      8936 	.word	.LDWlin22
00000606 02             8937 	.byte	2
00000607 00             8938 	.byte	0
00000608 0b             8939 	.byte	11
00000609 000502         8940 	.byte	0,5,2
0000060c 00000000*      8941 	.word	.LDWlin23
00000610 03             8942 	.byte	3
00000611 04             8943 	.byte	4
00000612 02             8944 	.byte	2
00000613 00             8945 	.byte	0
00000614 01             8946 	.byte	1
00000615 02             8947 	.byte	2
00000616 00             8948 	.byte	0
00000617 06             8949 	.byte	6
00000618 02             8950 	.byte	2
00000619 00             8951 	.byte	0
0000061a 02             8952 	.byte	2

                                                                      Page 162
                                                              C:\Users\nhuliyap\AppData\Local\Temp\gh_00002rs1.s
0000061b 02             8953 	.byte	2
0000061c 000101         8954 	.byte	0,1,1
                        8955 	.section	.debug_info
                        8956 .LDW_49878c0:
000017f7 0f             8957 	.byte	15
000017f8 7563497800     8958 	.strz	"ucIx"
000017fd c501           8959 	.byte	197,1
000017ff 12             8960 	.byte	18
00001800 01             8961 	.byte	1
00001801 00000000*      8962 	.word	.LDW_4946da0
00001805 00             8963 	.byte	0
00001806 0156           8964 	.byte	1,86
                        8965 
                        8966 .LDW_4dcc130:
00001808 1d             8967 	.byte	29
00001809 00000000*      8968 	.word	.LDW82
0000180d 00000000*      8969 	.word	.LDW92
                        8970 
00001811 00             8971 	.byte	0
                        8972 
00001812 00             8973 	.byte	0
                        8974 
                        8975 .LDW_4987918:
00001813 14             8976 	.byte	20
00001814 756c47657449   8977 	.strz	"ulGetID"
0000181a 4400 
0000181c ce01           8978 	.byte	206,1
0000181e 0f             8979 	.byte	15
0000181f 01             8980 	.byte	1
00001820 00000000*      8981 	.word	.LDW_4946f98
00001824 00000000*      8982 	.word	_ulGetID
00001828 00000000*      8983 	.word	___ghs_eofn_ulGetID
0000182c 0153           8984 	.byte	1,83
0000182e 02             8985 	.byte	2
0000182f 00             8986 	.byte	0
00001830 02             8987 	.byte	2
00001831 00             8988 	.byte	0
00001832 00             8989 	.byte	0
00001833 00             8990 	.byte	0
00001834 00             8991 	.byte	0
00001835 01             8992 	.byte	1
00001836 01             8993 	.byte	1
00001837 00             8994 	.byte	0
00001838 01             8995 	.byte	1
                        8996 
                        8997 	.section	.debug_frame
                        8998 .LDW_4e1d340:
00000180 00000000*      8999 	.word	.LDW_unq_18-.LDW_unq_17
                        9000 .LDW_unq_17:
00000184 00000000*      9001 	.word	.LDW_4da5d48
00000188 00000000*      9002 	.word	_ulGetID
0000018c 00000000*      9003 	.word	___ghs_eofn_ulGetID-_ulGetID
00000190 01             9004 	.byte	1
00000191 00000000*      9005 	.word	.LDW13
00000195 00             9006 	.byte	0
00000196 00             9007 	.byte	0
00000197 00             9008 	.byte	0
                        9009 .LDW_unq_18:
                        9010 	.section	.debug_line
0000061f 000502         9011 	.byte	0,5,2
00000622 00000000*      9012 	.word	_ulGetID

                                                                      Page 163
                                                              C:\Users\nhuliyap\AppData\Local\Temp\gh_00002rs1.s
00000626 03             9013 	.byte	3
00000627 ce01           9014 	.byte	206,1
00000629 02             9015 	.byte	2
0000062a 00             9016 	.byte	0
0000062b 01             9017 	.byte	1
0000062c 06             9018 	.byte	6
0000062d 13             9019 	.byte	19
0000062e 000502         9020 	.byte	0,5,2
00000631 00000000*      9021 	.word	.LDWlin24
00000635 02             9022 	.byte	2
00000636 00             9023 	.byte	0
00000637 0b             9024 	.byte	11
00000638 000502         9025 	.byte	0,5,2
0000063b 00000000*      9026 	.word	.LDWlin25
0000063f 03             9027 	.byte	3
00000640 04             9028 	.byte	4
00000641 02             9029 	.byte	2
00000642 00             9030 	.byte	0
00000643 01             9031 	.byte	1
00000644 02             9032 	.byte	2
00000645 00             9033 	.byte	0
00000646 06             9034 	.byte	6
00000647 02             9035 	.byte	2
00000648 00             9036 	.byte	0
00000649 02             9037 	.byte	2
0000064a 02             9038 	.byte	2
0000064b 000101         9039 	.byte	0,1,1
                        9040 	.section	.debug_info
                        9041 .LDW_49879b0:
00001839 0f             9042 	.byte	15
0000183a 7563497800     9043 	.strz	"ucIx"
0000183f cf01           9044 	.byte	207,1
00001841 12             9045 	.byte	18
00001842 01             9046 	.byte	1
00001843 00000000*      9047 	.word	.LDW_4946da0
00001847 00             9048 	.byte	0
00001848 0156           9049 	.byte	1,86
                        9050 
                        9051 .LDW_4dcc310:
0000184a 1d             9052 	.byte	29
0000184b 00000000*      9053 	.word	.LDW03
0000184f 00000000*      9054 	.word	.LDW13
                        9055 
00001853 00             9056 	.byte	0
                        9057 
00001854 00             9058 	.byte	0
                        9059 
                        9060 .LDW_4987a08:
00001855 13             9061 	.byte	19
00001856 507574756c49   9062 	.strz	"PutulID"
0000185c 4400 
0000185e d801           9063 	.byte	216,1
00001860 0d             9064 	.byte	13
00001861 01             9065 	.byte	1
00001862 00000000*      9066 	.word	_PutulID..C.3A.5C_ECU2.5CECU_Rivian_A1.5CTarget.5Crepo_projects.5CpRealEcu.5CcR_R2023.2E09.2E15.5Cmake.5Coutput.5Cobjects.5CWAlloc.
00001866 00000000*      9067 	.word	___ghs_eofn_PutulID
0000186a 0153           9068 	.byte	1,83
0000186c 02             9069 	.byte	2
0000186d 00             9070 	.byte	0
0000186e 02             9071 	.byte	2
0000186f 00             9072 	.byte	0

                                                                      Page 164
                                                              C:\Users\nhuliyap\AppData\Local\Temp\gh_00002rs1.s
00001870 00             9073 	.byte	0
00001871 00             9074 	.byte	0
00001872 00             9075 	.byte	0
00001873 00             9076 	.byte	0
00001874 01             9077 	.byte	1
00001875 00             9078 	.byte	0
00001876 01             9079 	.byte	1
                        9080 
                        9081 	.section	.debug_frame
                        9082 .LDW_4e7e950:
00000198 00000000*      9083 	.word	.LDW_unq_1a-.LDW_unq_19
                        9084 .LDW_unq_19:
0000019c 00000000*      9085 	.word	.LDW_4da5d48
000001a0 00000000*      9086 	.word	_PutulID..C.3A.5C_ECU2.5CECU_Rivian_A1.5CTarget.5Crepo_projects.5CpRealEcu.5CcR_R2023.2E09.2E15.5Cmake.5Coutput.5Cobjects.5CWAlloc.
000001a4 00000000*      9087 	.word	___ghs_eofn_PutulID-_PutulID..C.3A.5C_ECU2.5CECU_Rivian_A1.5CTarget.5Crepo_projects.5CpRealEcu.5CcR_R2023.2E09.2E15.5Cmake.5Coutput.5Cobjects.5CWAlloc.
000001a8 01             9088 	.byte	1
000001a9 00000000*      9089 	.word	.LDW33
000001ad 00             9090 	.byte	0
000001ae 00             9091 	.byte	0
000001af 00             9092 	.byte	0
                        9093 .LDW_unq_1a:
                        9094 	.section	.debug_line
0000064e 000502         9095 	.byte	0,5,2
00000651 00000000*      9096 	.word	_PutulID..C.3A.5C_ECU2.5CECU_Rivian_A1.5CTarget.5Crepo_projects.5CpRealEcu.5CcR_R2023.2E09.2E15.5Cmake.5Coutput.5Cobjects.5CWAlloc.
00000655 03             9097 	.byte	3
00000656 d901           9098 	.byte	217,1
00000658 02             9099 	.byte	2
00000659 00             9100 	.byte	0
0000065a 01             9101 	.byte	1
0000065b 06             9102 	.byte	6
0000065c 1b             9103 	.byte	27
0000065d 000502         9104 	.byte	0,5,2
00000660 00000000*      9105 	.word	.LDWlin26
00000664 02             9106 	.byte	2
00000665 00             9107 	.byte	0
00000666 0b             9108 	.byte	11
00000667 000502         9109 	.byte	0,5,2
0000066a 00000000*      9110 	.word	.LDWlin27
0000066e 0b             9111 	.byte	11
0000066f 02             9112 	.byte	2
00000670 00             9113 	.byte	0
00000671 0b             9114 	.byte	11
00000672 02             9115 	.byte	2
00000673 02             9116 	.byte	2
00000674 000101         9117 	.byte	0,1,1
                        9118 	.section	.debug_info
                        9119 .LDW_4987aa0:
00001877 0f             9120 	.byte	15
00001878 7563497800     9121 	.strz	"ucIx"
0000187d d901           9122 	.byte	217,1
0000187f 12             9123 	.byte	18
00001880 01             9124 	.byte	1
00001881 00000000*      9125 	.word	.LDW_4946da0
00001885 00             9126 	.byte	0
00001886 0156           9127 	.byte	1,86
                        9128 
                        9129 .LDW_4987af8:
00001888 0f             9130 	.byte	15
00001889 7032494400     9131 	.strz	"p2ID"
0000188e da01           9132 	.byte	218,1
00001890 13             9133 	.byte	19

                                                                      Page 165
                                                              C:\Users\nhuliyap\AppData\Local\Temp\gh_00002rs1.s
00001891 01             9134 	.byte	1
00001892 00000000*      9135 	.word	.LDW_4946e80
00001896 00             9136 	.byte	0
00001897 016e           9137 	.byte	1,110
                        9138 
                        9139 .LDW_4dcc370:
00001899 1d             9140 	.byte	29
0000189a 00000000*      9141 	.word	.LDW23
0000189e 00000000*      9142 	.word	.LDW33
                        9143 
000018a2 00             9144 	.byte	0
                        9145 
000018a3 00             9146 	.byte	0
                        9147 
                        9148 .LDW_4987b50:
000018a4 14             9149 	.byte	20
000018a5 756347657450   9150 	.strz	"ucGetProbeCt"
000018ab 726f62654374 
000018b1 00 
000018b2 e001           9151 	.byte	224,1
000018b4 0f             9152 	.byte	15
000018b5 01             9153 	.byte	1
000018b6 00000000*      9154 	.word	.LDW_4946da0
000018ba 00000000*      9155 	.word	_ucGetProbeCt
000018be 00000000*      9156 	.word	___ghs_eofn_ucGetProbeCt
000018c2 0153           9157 	.byte	1,83
000018c4 02             9158 	.byte	2
000018c5 00             9159 	.byte	0
000018c6 02             9160 	.byte	2
000018c7 00             9161 	.byte	0
000018c8 00             9162 	.byte	0
000018c9 00             9163 	.byte	0
000018ca 00             9164 	.byte	0
000018cb 01             9165 	.byte	1
000018cc 01             9166 	.byte	1
000018cd 00             9167 	.byte	0
000018ce 01             9168 	.byte	1
                        9169 
                        9170 	.section	.debug_frame
                        9171 .LDW_4e7ec50:
000001b0 00000000*      9172 	.word	.LDW_unq_1c-.LDW_unq_1b
                        9173 .LDW_unq_1b:
000001b4 00000000*      9174 	.word	.LDW_4da5d48
000001b8 00000000*      9175 	.word	_ucGetProbeCt
000001bc 00000000*      9176 	.word	___ghs_eofn_ucGetProbeCt-_ucGetProbeCt
000001c0 01             9177 	.byte	1
000001c1 00000000*      9178 	.word	.LDW53
000001c5 00             9179 	.byte	0
000001c6 00             9180 	.byte	0
000001c7 00             9181 	.byte	0
                        9182 .LDW_unq_1c:
                        9183 	.section	.debug_line
00000677 000502         9184 	.byte	0,5,2
0000067a 00000000*      9185 	.word	_ucGetProbeCt
0000067e 03             9186 	.byte	3
0000067f e001           9187 	.byte	224,1
00000681 02             9188 	.byte	2
00000682 00             9189 	.byte	0
00000683 01             9190 	.byte	1
00000684 06             9191 	.byte	6
00000685 13             9192 	.byte	19

                                                                      Page 166
                                                              C:\Users\nhuliyap\AppData\Local\Temp\gh_00002rs1.s
00000686 000502         9193 	.byte	0,5,2
00000689 00000000*      9194 	.word	.LDWlin28
0000068d 02             9195 	.byte	2
0000068e 00             9196 	.byte	0
0000068f 0b             9197 	.byte	11
00000690 000502         9198 	.byte	0,5,2
00000693 00000000*      9199 	.word	.LDWlin29
00000697 03             9200 	.byte	3
00000698 04             9201 	.byte	4
00000699 02             9202 	.byte	2
0000069a 00             9203 	.byte	0
0000069b 01             9204 	.byte	1
0000069c 02             9205 	.byte	2
0000069d 00             9206 	.byte	0
0000069e 06             9207 	.byte	6
0000069f 02             9208 	.byte	2
000006a0 00             9209 	.byte	0
000006a1 02             9210 	.byte	2
000006a2 02             9211 	.byte	2
000006a3 000101         9212 	.byte	0,1,1
                        9213 	.section	.debug_info
                        9214 .LDW_4987be8:
000018cf 0f             9215 	.byte	15
000018d0 7563497800     9216 	.strz	"ucIx"
000018d5 e101           9217 	.byte	225,1
000018d7 12             9218 	.byte	18
000018d8 01             9219 	.byte	1
000018d9 00000000*      9220 	.word	.LDW_4946da0
000018dd 00             9221 	.byte	0
000018de 0156           9222 	.byte	1,86
                        9223 
                        9224 .LDW_4dcc430:
000018e0 1d             9225 	.byte	29
000018e1 00000000*      9226 	.word	.LDW43
000018e5 00000000*      9227 	.word	.LDW53
                        9228 
000018e9 00             9229 	.byte	0
                        9230 
000018ea 00             9231 	.byte	0
                        9232 
                        9233 .LDW_4987c40:
000018eb 14             9234 	.byte	20
000018ec 75634765745a   9235 	.strz	"ucGetZOMWP"
000018f2 4f4d575000 
000018f7 ea01           9236 	.byte	234,1
000018f9 0f             9237 	.byte	15
000018fa 01             9238 	.byte	1
000018fb 00000000*      9239 	.word	.LDW_4946da0
000018ff 00000000*      9240 	.word	_ucGetZOMWP
00001903 00000000*      9241 	.word	___ghs_eofn_ucGetZOMWP
00001907 0153           9242 	.byte	1,83
00001909 02             9243 	.byte	2
0000190a 00             9244 	.byte	0
0000190b 02             9245 	.byte	2
0000190c 00             9246 	.byte	0
0000190d 00             9247 	.byte	0
0000190e 00             9248 	.byte	0
0000190f 00             9249 	.byte	0
00001910 01             9250 	.byte	1
00001911 01             9251 	.byte	1
00001912 00             9252 	.byte	0

                                                                      Page 167
                                                              C:\Users\nhuliyap\AppData\Local\Temp\gh_00002rs1.s
00001913 01             9253 	.byte	1
                        9254 
                        9255 	.section	.debug_frame
                        9256 .LDW_4e7ec10:
000001c8 00000000*      9257 	.word	.LDW_unq_1e-.LDW_unq_1d
                        9258 .LDW_unq_1d:
000001cc 00000000*      9259 	.word	.LDW_4da5d48
000001d0 00000000*      9260 	.word	_ucGetZOMWP
000001d4 00000000*      9261 	.word	___ghs_eofn_ucGetZOMWP-_ucGetZOMWP
000001d8 01             9262 	.byte	1
000001d9 00000000*      9263 	.word	.LDW73
000001dd 00             9264 	.byte	0
000001de 00             9265 	.byte	0
000001df 00             9266 	.byte	0
                        9267 .LDW_unq_1e:
                        9268 	.section	.debug_line
000006a6 000502         9269 	.byte	0,5,2
000006a9 00000000*      9270 	.word	_ucGetZOMWP
000006ad 03             9271 	.byte	3
000006ae ea01           9272 	.byte	234,1
000006b0 02             9273 	.byte	2
000006b1 00             9274 	.byte	0
000006b2 01             9275 	.byte	1
000006b3 06             9276 	.byte	6
000006b4 14             9277 	.byte	20
000006b5 000502         9278 	.byte	0,5,2
000006b8 00000000*      9279 	.word	.LDWlin30
000006bc 02             9280 	.byte	2
000006bd 00             9281 	.byte	0
000006be 0b             9282 	.byte	11
000006bf 000502         9283 	.byte	0,5,2
000006c2 00000000*      9284 	.word	.LDWlin31
000006c6 03             9285 	.byte	3
000006c7 0b             9286 	.byte	11
000006c8 02             9287 	.byte	2
000006c9 00             9288 	.byte	0
000006ca 01             9289 	.byte	1
000006cb 0c             9290 	.byte	12
000006cc 0b             9291 	.byte	11
000006cd 13             9292 	.byte	19
000006ce 000502         9293 	.byte	0,5,2
000006d1 00000000*      9294 	.word	.LDWlin32
000006d5 0d             9295 	.byte	13
000006d6 0b             9296 	.byte	11
000006d7 0c             9297 	.byte	12
000006d8 0b             9298 	.byte	11
000006d9 0b             9299 	.byte	11
000006da 0b             9300 	.byte	11
000006db 13             9301 	.byte	19
000006dc 02             9302 	.byte	2
000006dd 00             9303 	.byte	0
000006de 0b             9304 	.byte	11
000006df 000502         9305 	.byte	0,5,2
000006e2 00000000*      9306 	.word	.LDWlin33
000006e6 03             9307 	.byte	3
000006e7 67             9308 	.byte	103
000006e8 02             9309 	.byte	2
000006e9 00             9310 	.byte	0
000006ea 01             9311 	.byte	1
000006eb 0b             9312 	.byte	11
000006ec 13             9313 	.byte	19

                                                                      Page 168
                                                              C:\Users\nhuliyap\AppData\Local\Temp\gh_00002rs1.s
000006ed 000502         9314 	.byte	0,5,2
000006f0 00000000*      9315 	.word	.LDWlin34
000006f4 02             9316 	.byte	2
000006f5 00             9317 	.byte	0
000006f6 0c             9318 	.byte	12
000006f7 0b             9319 	.byte	11
000006f8 13             9320 	.byte	19
000006f9 000502         9321 	.byte	0,5,2
000006fc 00000000*      9322 	.word	.LDWlin35
00000700 02             9323 	.byte	2
00000701 00             9324 	.byte	0
00000702 0c             9325 	.byte	12
00000703 0b             9326 	.byte	11
00000704 13             9327 	.byte	19
00000705 02             9328 	.byte	2
00000706 02             9329 	.byte	2
00000707 000101         9330 	.byte	0,1,1
                        9331 	.section	.debug_info
                        9332 .LDW_4987cd8:
00001914 0f             9333 	.byte	15
00001915 7563497800     9334 	.strz	"ucIx"
0000191a eb01           9335 	.byte	235,1
0000191c 12             9336 	.byte	18
0000191d 01             9337 	.byte	1
0000191e 00000000*      9338 	.word	.LDW_4946da0
00001922 00             9339 	.byte	0
00001923 0156           9340 	.byte	1,86
                        9341 
                        9342 .LDW_4dcbf50:
00001925 1d             9343 	.byte	29
00001926 00000000*      9344 	.word	.LDW63
0000192a 00000000*      9345 	.word	.LDW73
                        9346 
                        9347 .LDW_4dccdd8:
0000192e 04             9348 	.byte	4
0000192f 753852657475   9349 	.strz	"u8ReturnValue"
00001935 726e56616c75 
0000193b 6500 
0000193d ec01           9350 	.byte	236,1
0000193f 0a             9351 	.byte	10
00001940 01             9352 	.byte	1
00001941 00000000*      9353 	.word	.LDW_4987d30
00001945 00             9354 	.byte	0
00001946 00             9355 	.byte	0
00001947 015a           9356 	.byte	1,90
                        9357 
00001949 00             9358 	.byte	0
                        9359 
0000194a 00             9360 	.byte	0
                        9361 
                        9362 .LDW_4987d88:
0000194b 13             9363 	.byte	19
0000194c 5365745a4f4d   9364 	.strz	"SetZOMWP"
00001952 575000 
00001955 8b02           9365 	.byte	139,2
00001957 06             9366 	.byte	6
00001958 01             9367 	.byte	1
00001959 00000000*      9368 	.word	_SetZOMWP
0000195d 00000000*      9369 	.word	___ghs_eofn_SetZOMWP
00001961 0153           9370 	.byte	1,83
00001963 02             9371 	.byte	2

                                                                      Page 169
                                                              C:\Users\nhuliyap\AppData\Local\Temp\gh_00002rs1.s
00001964 00             9372 	.byte	0
00001965 02             9373 	.byte	2
00001966 00             9374 	.byte	0
00001967 00             9375 	.byte	0
00001968 00             9376 	.byte	0
00001969 00             9377 	.byte	0
0000196a 01             9378 	.byte	1
0000196b 01             9379 	.byte	1
0000196c 00             9380 	.byte	0
0000196d 01             9381 	.byte	1
                        9382 
                        9383 	.section	.debug_frame
                        9384 .LDW_4e7ecd0:
000001e0 00000000*      9385 	.word	.LDW_unq_20-.LDW_unq_1f
                        9386 .LDW_unq_1f:
000001e4 00000000*      9387 	.word	.LDW_4da5d48
000001e8 00000000*      9388 	.word	_SetZOMWP
000001ec 00000000*      9389 	.word	___ghs_eofn_SetZOMWP-_SetZOMWP
000001f0 01             9390 	.byte	1
000001f1 00000000*      9391 	.word	.LDW93
000001f5 00             9392 	.byte	0
000001f6 00             9393 	.byte	0
000001f7 00             9394 	.byte	0
                        9395 .LDW_unq_20:
                        9396 	.section	.debug_line
0000070a 000502         9397 	.byte	0,5,2
0000070d 00000000*      9398 	.word	_SetZOMWP
00000711 03             9399 	.byte	3
00000712 8c02           9400 	.byte	140,2
00000714 02             9401 	.byte	2
00000715 00             9402 	.byte	0
00000716 01             9403 	.byte	1
00000717 06             9404 	.byte	6
00000718 1b             9405 	.byte	27
00000719 000502         9406 	.byte	0,5,2
0000071c 00000000*      9407 	.word	.LDWlin36
00000720 02             9408 	.byte	2
00000721 00             9409 	.byte	0
00000722 0b             9410 	.byte	11
00000723 000502         9411 	.byte	0,5,2
00000726 00000000*      9412 	.word	.LDWlin37
0000072a 0b             9413 	.byte	11
0000072b 000502         9414 	.byte	0,5,2
0000072e 00000000*      9415 	.word	.LDWlin38
00000732 02             9416 	.byte	2
00000733 00             9417 	.byte	0
00000734 0b             9418 	.byte	11
00000735 33             9419 	.byte	51
00000736 02             9420 	.byte	2
00000737 00             9421 	.byte	0
00000738 0b             9422 	.byte	11
00000739 02             9423 	.byte	2
0000073a 00             9424 	.byte	0
0000073b 0b             9425 	.byte	11
0000073c 02             9426 	.byte	2
0000073d 02             9427 	.byte	2
0000073e 000101         9428 	.byte	0,1,1
                        9429 	.section	.debug_info
                        9430 .LDW_4dccd28:
0000196e 0f             9431 	.byte	15
0000196f 7563497800     9432 	.strz	"ucIx"

                                                                      Page 170
                                                              C:\Users\nhuliyap\AppData\Local\Temp\gh_00002rs1.s
00001974 8c02           9433 	.byte	140,2
00001976 12             9434 	.byte	18
00001977 01             9435 	.byte	1
00001978 00000000*      9436 	.word	.LDW_4946da0
0000197c 00             9437 	.byte	0
0000197d 0156           9438 	.byte	1,86
                        9439 
                        9440 .LDW_4dcc750:
0000197f 0f             9441 	.byte	15
00001980 7563575000     9442 	.strz	"ucWP"
00001985 8d02           9443 	.byte	141,2
00001987 12             9444 	.byte	18
00001988 01             9445 	.byte	1
00001989 00000000*      9446 	.word	.LDW_4946da0
0000198d 00             9447 	.byte	0
0000198e 0157           9448 	.byte	1,87
                        9449 
                        9450 .LDW_4dcc3d0:
00001990 1d             9451 	.byte	29
00001991 00000000*      9452 	.word	.LDW83
00001995 00000000*      9453 	.word	.LDW93
                        9454 
00001999 00             9455 	.byte	0
                        9456 
0000199a 00             9457 	.byte	0
                        9458 
                        9459 .LDW_4987e20:
0000199b 14             9460 	.byte	20
0000199c 757368476574   9461 	.strz	"ushGetMeanRssiSum"
000019a2 4d65616e5273 
000019a8 736953756d00 
000019ae 9602           9462 	.byte	150,2
000019b0 10             9463 	.byte	16
000019b1 01             9464 	.byte	1
000019b2 00000000*      9465 	.word	.LDW_4946ac8
000019b6 00000000*      9466 	.word	_ushGetMeanRssiSum
000019ba 00000000*      9467 	.word	___ghs_eofn_ushGetMeanRssiSum
000019be 0153           9468 	.byte	1,83
000019c0 02             9469 	.byte	2
000019c1 00             9470 	.byte	0
000019c2 02             9471 	.byte	2
000019c3 00             9472 	.byte	0
000019c4 00             9473 	.byte	0
000019c5 00             9474 	.byte	0
000019c6 00             9475 	.byte	0
000019c7 01             9476 	.byte	1
000019c8 01             9477 	.byte	1
000019c9 00             9478 	.byte	0
000019ca 01             9479 	.byte	1
                        9480 
                        9481 	.section	.debug_frame
                        9482 .LDW_4e7ed10:
000001f8 00000000*      9483 	.word	.LDW_unq_22-.LDW_unq_21
                        9484 .LDW_unq_21:
000001fc 00000000*      9485 	.word	.LDW_4da5d48
00000200 00000000*      9486 	.word	_ushGetMeanRssiSum
00000204 00000000*      9487 	.word	___ghs_eofn_ushGetMeanRssiSum-_ushGetMeanRssiSum
00000208 01             9488 	.byte	1
00000209 00000000*      9489 	.word	.LDW14
0000020d 00             9490 	.byte	0
0000020e 00             9491 	.byte	0

                                                                      Page 171
                                                              C:\Users\nhuliyap\AppData\Local\Temp\gh_00002rs1.s
0000020f 00             9492 	.byte	0
                        9493 .LDW_unq_22:
                        9494 	.section	.debug_line
00000741 000502         9495 	.byte	0,5,2
00000744 00000000*      9496 	.word	_ushGetMeanRssiSum
00000748 03             9497 	.byte	3
00000749 9602           9498 	.byte	150,2
0000074b 02             9499 	.byte	2
0000074c 00             9500 	.byte	0
0000074d 01             9501 	.byte	1
0000074e 06             9502 	.byte	6
0000074f 14             9503 	.byte	20
00000750 000502         9504 	.byte	0,5,2
00000753 00000000*      9505 	.word	.LDWlin39
00000757 02             9506 	.byte	2
00000758 00             9507 	.byte	0
00000759 0b             9508 	.byte	11
0000075a 000502         9509 	.byte	0,5,2
0000075d 00000000*      9510 	.word	.LDWlin40
00000761 02             9511 	.byte	2
00000762 00             9512 	.byte	0
00000763 0b             9513 	.byte	11
00000764 06             9514 	.byte	6
00000765 000502         9515 	.byte	0,5,2
00000768 00000000*      9516 	.word	.LDWlin41
0000076c 0d             9517 	.byte	13
0000076d 06             9518 	.byte	6
0000076e 0b             9519 	.byte	11
0000076f 02             9520 	.byte	2
00000770 00             9521 	.byte	0
00000771 0b             9522 	.byte	11
00000772 0b             9523 	.byte	11
00000773 0b             9524 	.byte	11
00000774 13             9525 	.byte	19
00000775 02             9526 	.byte	2
00000776 00             9527 	.byte	0
00000777 0b             9528 	.byte	11
00000778 06             9529 	.byte	6
00000779 02             9530 	.byte	2
0000077a 02             9531 	.byte	2
0000077b 02             9532 	.byte	2
0000077c 02             9533 	.byte	2
0000077d 000101         9534 	.byte	0,1,1
                        9535 	.section	.debug_info
                        9536 .LDW_4dccc20:
000019cb 0f             9537 	.byte	15
000019cc 7563497800     9538 	.strz	"ucIx"
000019d1 9702           9539 	.byte	151,2
000019d3 12             9540 	.byte	18
000019d4 01             9541 	.byte	1
000019d5 00000000*      9542 	.word	.LDW_4946da0
000019d9 00             9543 	.byte	0
000019da 0156           9544 	.byte	1,86
                        9545 
                        9546 .LDW_4dcc2b0:
000019dc 1d             9547 	.byte	29
000019dd 00000000*      9548 	.word	.LDW04
000019e1 00000000*      9549 	.word	.LDW14
                        9550 
                        9551 .LDW_4dcce88:
000019e5 04             9552 	.byte	4

                                                                      Page 172
                                                              C:\Users\nhuliyap\AppData\Local\Temp\gh_00002rs1.s
000019e6 756c546d7000   9553 	.strz	"ulTmp"
000019ec 9802           9554 	.byte	152,2
000019ee 12             9555 	.byte	18
000019ef 01             9556 	.byte	1
000019f0 00000000*      9557 	.word	.LDW_4946f98
000019f4 00             9558 	.byte	0
000019f5 00             9559 	.byte	0
000019f6 015a           9560 	.byte	1,90
                        9561 
000019f8 00             9562 	.byte	0
                        9563 
000019f9 00             9564 	.byte	0
                        9565 
                        9566 .LDW_4987eb8:
000019fa 14             9567 	.byte	20
000019fb 756347657452   9568 	.strz	"ucGetRssiDifference"
00001a01 737369446966 
00001a07 666572656e63 
00001a0d 6500 
00001a0f a702           9569 	.byte	167,2
00001a11 0f             9570 	.byte	15
00001a12 01             9571 	.byte	1
00001a13 00000000*      9572 	.word	.LDW_4946da0
00001a17 00000000*      9573 	.word	_ucGetRssiDifference
00001a1b 00000000*      9574 	.word	___ghs_eofn_ucGetRssiDifference
00001a1f 0153           9575 	.byte	1,83
00001a21 828080800a     9576 	.byte	130,128,128,128,10
00001a26 08             9577 	.byte	8
00001a27 03             9578 	.byte	3
00001a28 08             9579 	.byte	8
00001a29 00             9580 	.byte	0
00001a2a 00             9581 	.byte	0
00001a2b 00             9582 	.byte	0
00001a2c 01             9583 	.byte	1
00001a2d 01             9584 	.byte	1
00001a2e 00             9585 	.byte	0
00001a2f 01             9586 	.byte	1
                        9587 
                        9588 	.section	.debug_frame
                        9589 .LDW_4e7ea90:
00000210 00000000*      9590 	.word	.LDW_unq_24-.LDW_unq_23
                        9591 .LDW_unq_23:
00000214 00000000*      9592 	.word	.LDW_4da5d48
00000218 00000000*      9593 	.word	_ucGetRssiDifference
0000021c 00000000*      9594 	.word	___ghs_eofn_ucGetRssiDifference-_ucGetRssiDifference
00000220 44             9595 	.byte	68
00000221 9f             9596 	.byte	159
00000222 00             9597 	.byte	0
00000223 40             9598 	.byte	64
00000224 9d             9599 	.byte	157
00000225 04             9600 	.byte	4
00000226 01             9601 	.byte	1
00000227 00000000*      9602 	.word	.LDW34
0000022b 44             9603 	.byte	68
0000022c df             9604 	.byte	223
0000022d 40             9605 	.byte	64
0000022e dd             9606 	.byte	221
0000022f 00             9607 	.byte	0
                        9608 .LDW_unq_24:
                        9609 	.section	.debug_line
00000780 000502         9610 	.byte	0,5,2

                                                                      Page 173
                                                              C:\Users\nhuliyap\AppData\Local\Temp\gh_00002rs1.s
00000783 00000000*      9611 	.word	_ucGetRssiDifference
00000787 03             9612 	.byte	3
00000788 a802           9613 	.byte	168,2
0000078a 02             9614 	.byte	2
0000078b 00             9615 	.byte	0
0000078c 01             9616 	.byte	1
0000078d 06             9617 	.byte	6
0000078e 2d             9618 	.byte	45
0000078f 000502         9619 	.byte	0,5,2
00000792 00000000*      9620 	.word	.LDWlin42
00000796 0c             9621 	.byte	12
00000797 000502         9622 	.byte	0,5,2
0000079a 00000000*      9623 	.word	.LDWlin43
0000079e 0c             9624 	.byte	12
0000079f 02             9625 	.byte	2
000007a0 02             9626 	.byte	2
000007a1 0c             9627 	.byte	12
000007a2 0b             9628 	.byte	11
000007a3 0b             9629 	.byte	11
000007a4 43             9630 	.byte	67
000007a5 02             9631 	.byte	2
000007a6 00             9632 	.byte	0
000007a7 06             9633 	.byte	6
000007a8 02             9634 	.byte	2
000007a9 00             9635 	.byte	0
000007aa 02             9636 	.byte	2
000007ab 04             9637 	.byte	4
000007ac 000101         9638 	.byte	0,1,1
                        9639 	.section	.debug_info
                        9640 .LDW_4dcccd0:
00001a30 0f             9641 	.byte	15
00001a31 756346697273   9642 	.strz	"ucFirstIx"
00001a37 74497800 
00001a3b a802           9643 	.byte	168,2
00001a3d 12             9644 	.byte	18
00001a3e 01             9645 	.byte	1
00001a3f 00000000*      9646 	.word	.LDW_4946da0
00001a43 00             9647 	.byte	0
00001a44 0156           9648 	.byte	1,86
                        9649 
                        9650 .LDW_4dcc7a8:
00001a46 0f             9651 	.byte	15
00001a47 75635365636f   9652 	.strz	"ucSecondIx"
00001a4d 6e64497800 
00001a52 a902           9653 	.byte	169,2
00001a54 12             9654 	.byte	18
00001a55 01             9655 	.byte	1
00001a56 00000000*      9656 	.word	.LDW_4946da0
00001a5a 00             9657 	.byte	0
00001a5b 016c           9658 	.byte	1,108
                        9659 
                        9660 .LDW_4dcc490:
00001a5d 1d             9661 	.byte	29
00001a5e 00000000*      9662 	.word	.LDW24
00001a62 00000000*      9663 	.word	.LDW34
                        9664 
                        9665 .LDW_4dcc800:
00001a66 04             9666 	.byte	4
00001a67 756346697273   9667 	.strz	"ucFirstRssi"
00001a6d 745273736900 
00001a73 aa02           9668 	.byte	170,2

                                                                      Page 174
                                                              C:\Users\nhuliyap\AppData\Local\Temp\gh_00002rs1.s
00001a75 12             9669 	.byte	18
00001a76 01             9670 	.byte	1
00001a77 00000000*      9671 	.word	.LDW_4946da0
00001a7b 00             9672 	.byte	0
00001a7c 00             9673 	.byte	0
00001a7d 016d           9674 	.byte	1,109
                        9675 
                        9676 .LDW_4dccb70:
00001a7f 04             9677 	.byte	4
00001a80 75635365636f   9678 	.strz	"ucSecondRssi"
00001a86 6e6452737369 
00001a8c 00 
00001a8d ab02           9679 	.byte	171,2
00001a8f 12             9680 	.byte	18
00001a90 01             9681 	.byte	1
00001a91 00000000*      9682 	.word	.LDW_4946da0
00001a95 00             9683 	.byte	0
00001a96 00             9684 	.byte	0
00001a97 015a           9685 	.byte	1,90
                        9686 
00001a99 00             9687 	.byte	0
                        9688 
00001a9a 00             9689 	.byte	0
                        9690 
                        9691 .LDW_4dcd4b0:
00001a9b 14             9692 	.byte	20
00001a9c 75634765745a   9693 	.strz	"ucGetZOMPosOfID"
00001aa2 4f4d506f734f 
00001aa8 66494400 
00001aac b802           9694 	.byte	184,2
00001aae 0f             9695 	.byte	15
00001aaf 01             9696 	.byte	1
00001ab0 00000000*      9697 	.word	.LDW_4946da0
00001ab4 00000000*      9698 	.word	_ucGetZOMPosOfID
00001ab8 00000000*      9699 	.word	___ghs_eofn_ucGetZOMPosOfID
00001abc 0153           9700 	.byte	1,83
00001abe 02             9701 	.byte	2
00001abf 00             9702 	.byte	0
00001ac0 02             9703 	.byte	2
00001ac1 00             9704 	.byte	0
00001ac2 00             9705 	.byte	0
00001ac3 00             9706 	.byte	0
00001ac4 00             9707 	.byte	0
00001ac5 01             9708 	.byte	1
00001ac6 01             9709 	.byte	1
00001ac7 00             9710 	.byte	0
00001ac8 01             9711 	.byte	1
                        9712 
                        9713 	.section	.debug_frame
                        9714 .LDW_4e7eb90:
00000230 00000000*      9715 	.word	.LDW_unq_26-.LDW_unq_25
                        9716 .LDW_unq_25:
00000234 00000000*      9717 	.word	.LDW_4da5d48
00000238 00000000*      9718 	.word	_ucGetZOMPosOfID
0000023c 00000000*      9719 	.word	___ghs_eofn_ucGetZOMPosOfID-_ucGetZOMPosOfID
00000240 01             9720 	.byte	1
00000241 00000000*      9721 	.word	.LDW54
00000245 00             9722 	.byte	0
00000246 00             9723 	.byte	0
00000247 00             9724 	.byte	0
                        9725 .LDW_unq_26:

                                                                      Page 175
                                                              C:\Users\nhuliyap\AppData\Local\Temp\gh_00002rs1.s
                        9726 	.section	.debug_line
000007af 000502         9727 	.byte	0,5,2
000007b2 00000000*      9728 	.word	_ucGetZOMPosOfID
000007b6 03             9729 	.byte	3
000007b7 b802           9730 	.byte	184,2
000007b9 02             9731 	.byte	2
000007ba 00             9732 	.byte	0
000007bb 01             9733 	.byte	1
000007bc 06             9734 	.byte	6
000007bd 14             9735 	.byte	20
000007be 02             9736 	.byte	2
000007bf 02             9737 	.byte	2
000007c0 0b             9738 	.byte	11
000007c1 000502         9739 	.byte	0,5,2
000007c4 00000000*      9740 	.word	.LDWlin44
000007c8 02             9741 	.byte	2
000007c9 00             9742 	.byte	0
000007ca 0c             9743 	.byte	12
000007cb 02             9744 	.byte	2
000007cc 00             9745 	.byte	0
000007cd 03             9746 	.byte	3
000007ce 7d             9747 	.byte	125
000007cf 02             9748 	.byte	2
000007d0 00             9749 	.byte	0
000007d1 01             9750 	.byte	1
000007d2 000502         9751 	.byte	0,5,2
000007d5 00000000*      9752 	.word	.LDWlin45
000007d9 03             9753 	.byte	3
000007da 04             9754 	.byte	4
000007db 02             9755 	.byte	2
000007dc 00             9756 	.byte	0
000007dd 01             9757 	.byte	1
000007de 0b             9758 	.byte	11
000007df 02             9759 	.byte	2
000007e0 02             9760 	.byte	2
000007e1 000101         9761 	.byte	0,1,1
                        9762 	.section	.debug_info
                        9763 .LDW_4dccd80:
00001ac9 0f             9764 	.byte	15
00001aca 707432494400   9765 	.strz	"pt2ID"
00001ad0 b902           9766 	.byte	185,2
00001ad2 13             9767 	.byte	19
00001ad3 01             9768 	.byte	1
00001ad4 00000000*      9769 	.word	.LDW_4946e80
00001ad8 00             9770 	.byte	0
00001ad9 016e           9771 	.byte	1,110
                        9772 
                        9773 .LDW_4dcbfe0:
00001adb 1d             9774 	.byte	29
00001adc 00000000*      9775 	.word	.LDW44
00001ae0 00000000*      9776 	.word	.LDW54
                        9777 
                        9778 .LDW_4dcc9b8:
00001ae4 04             9779 	.byte	4
00001ae5 6900           9780 	.strz	"i"
00001ae7 ba02           9781 	.byte	186,2
00001ae9 12             9782 	.byte	18
00001aea 01             9783 	.byte	1
00001aeb 00000000*      9784 	.word	.LDW_4946da0
00001aef 00             9785 	.byte	0
00001af0 00             9786 	.byte	0

                                                                      Page 176
                                                              C:\Users\nhuliyap\AppData\Local\Temp\gh_00002rs1.s
00001af1 015a           9787 	.byte	1,90
                        9788 
00001af3 00             9789 	.byte	0
                        9790 
00001af4 00             9791 	.byte	0
                        9792 
                        9793 .LDW_4dcd970:
00001af5 14             9794 	.byte	20
00001af6 624765745a6f   9795 	.strz	"bGetZomPotentStatusOfID"
00001afc 6d506f74656e 
00001b02 745374617475 
00001b08 734f66494400 
00001b0e c302           9796 	.byte	195,2
00001b10 10             9797 	.byte	16
00001b11 01             9798 	.byte	1
00001b12 00000000*      9799 	.word	.LDW_4dccb18
00001b16 00000000*      9800 	.word	_bGetZomPotentStatusOfID..C.3A.5C_ECU2.5CECU_Rivian_A1.5CTarget.5Crepo_projects.5CpRealEcu.5CcR_R2023.2E09.2E15.5Cmake.5Coutput.5Cobjects.5CWAlloc.
00001b1a 00000000*      9801 	.word	___ghs_eofn_bGetZomPotentStatusOfID
00001b1e 0153           9802 	.byte	1,83
00001b20 02             9803 	.byte	2
00001b21 00             9804 	.byte	0
00001b22 02             9805 	.byte	2
00001b23 00             9806 	.byte	0
00001b24 00             9807 	.byte	0
00001b25 00             9808 	.byte	0
00001b26 00             9809 	.byte	0
00001b27 00             9810 	.byte	0
00001b28 01             9811 	.byte	1
00001b29 00             9812 	.byte	0
00001b2a 01             9813 	.byte	1
                        9814 
                        9815 	.section	.debug_frame
                        9816 .LDW_4e7e750:
00000248 00000000*      9817 	.word	.LDW_unq_28-.LDW_unq_27
                        9818 .LDW_unq_27:
0000024c 00000000*      9819 	.word	.LDW_4da5d48
00000250 00000000*      9820 	.word	_bGetZomPotentStatusOfID..C.3A.5C_ECU2.5CECU_Rivian_A1.5CTarget.5Crepo_projects.5CpRealEcu.5CcR_R2023.2E09.2E15.5Cmake.5Coutput.5Cobjects.5CWAlloc.
00000254 00000000*      9821 	.word	___ghs_eofn_bGetZomPotentStatusOfID-_bGetZomPotentStatusOfID..C.3A.5C_ECU2.5CECU_Rivian_A1.5CTarget.5Crepo_projects.5CpRealEcu.5CcR_R2023.2E09.2E15.5Cmake.5Coutput.5Cobjects.5CWAlloc.
00000258 01             9822 	.byte	1
00000259 00000000*      9823 	.word	.LDW74
0000025d 00             9824 	.byte	0
0000025e 00             9825 	.byte	0
0000025f 00             9826 	.byte	0
                        9827 .LDW_unq_28:
                        9828 	.section	.debug_line
000007e4 000502         9829 	.byte	0,5,2
000007e7 00000000*      9830 	.word	_bGetZomPotentStatusOfID..C.3A.5C_ECU2.5CECU_Rivian_A1.5CTarget.5Crepo_projects.5CpRealEcu.5CcR_R2023.2E09.2E15.5Cmake.5Coutput.5Cobjects.5CWAlloc.
000007eb 03             9831 	.byte	3
000007ec c302           9832 	.byte	195,2
000007ee 02             9833 	.byte	2
000007ef 00             9834 	.byte	0
000007f0 01             9835 	.byte	1
000007f1 06             9836 	.byte	6
000007f2 13             9837 	.byte	19
000007f3 000502         9838 	.byte	0,5,2
000007f6 00000000*      9839 	.word	.LDWlin46
000007fa 03             9840 	.byte	3
000007fb 05             9841 	.byte	5
000007fc 02             9842 	.byte	2
000007fd 00             9843 	.byte	0
000007fe 01             9844 	.byte	1

                                                                      Page 177
                                                              C:\Users\nhuliyap\AppData\Local\Temp\gh_00002rs1.s
000007ff 02             9845 	.byte	2
00000800 00             9846 	.byte	0
00000801 06             9847 	.byte	6
00000802 02             9848 	.byte	2
00000803 00             9849 	.byte	0
00000804 02             9850 	.byte	2
00000805 02             9851 	.byte	2
00000806 000101         9852 	.byte	0,1,1
                        9853 	.section	.debug_info
                        9854 .LDW_4dcc858:
00001b2b 0f             9855 	.byte	15
00001b2c 7563497800     9856 	.strz	"ucIx"
00001b31 c402           9857 	.byte	196,2
00001b33 12             9858 	.byte	18
00001b34 01             9859 	.byte	1
00001b35 00000000*      9860 	.word	.LDW_4946da0
00001b39 00             9861 	.byte	0
00001b3a 0156           9862 	.byte	1,86
                        9863 
                        9864 .LDW_4dcc280:
00001b3c 1d             9865 	.byte	29
00001b3d 00000000*      9866 	.word	.LDW64
00001b41 00000000*      9867 	.word	.LDW74
                        9868 
00001b45 00             9869 	.byte	0
                        9870 
00001b46 00             9871 	.byte	0
                        9872 
                        9873 .LDW_4dcd120:
00001b47 14             9874 	.byte	20
00001b48 624765745a6f   9875 	.strz	"bGetZomOwnStatusOfID"
00001b4e 6d4f776e5374 
00001b54 617475734f66 
00001b5a 494400 
00001b5d cd02           9876 	.byte	205,2
00001b5f 10             9877 	.byte	16
00001b60 01             9878 	.byte	1
00001b61 00000000*      9879 	.word	.LDW_4dccb18
00001b65 00000000*      9880 	.word	_bGetZomOwnStatusOfID..C.3A.5C_ECU2.5CECU_Rivian_A1.5CTarget.5Crepo_projects.5CpRealEcu.5CcR_R2023.2E09.2E15.5Cmake.5Coutput.5Cobjects.5CWAlloc.
00001b69 00000000*      9881 	.word	___ghs_eofn_bGetZomOwnStatusOfID
00001b6d 0153           9882 	.byte	1,83
00001b6f 02             9883 	.byte	2
00001b70 00             9884 	.byte	0
00001b71 02             9885 	.byte	2
00001b72 00             9886 	.byte	0
00001b73 00             9887 	.byte	0
00001b74 00             9888 	.byte	0
00001b75 00             9889 	.byte	0
00001b76 00             9890 	.byte	0
00001b77 01             9891 	.byte	1
00001b78 00             9892 	.byte	0
00001b79 01             9893 	.byte	1
                        9894 
                        9895 	.section	.debug_frame
                        9896 .LDW_4e7e050:
00000260 00000000*      9897 	.word	.LDW_unq_2a-.LDW_unq_29
                        9898 .LDW_unq_29:
00000264 00000000*      9899 	.word	.LDW_4da5d48
00000268 00000000*      9900 	.word	_bGetZomOwnStatusOfID..C.3A.5C_ECU2.5CECU_Rivian_A1.5CTarget.5Crepo_projects.5CpRealEcu.5CcR_R2023.2E09.2E15.5Cmake.5Coutput.5Cobjects.5CWAlloc.
0000026c 00000000*      9901 	.word	___ghs_eofn_bGetZomOwnStatusOfID-_bGetZomOwnStatusOfID..C.3A.5C_ECU2.5CECU_Rivian_A1.5CTarget.5Crepo_projects.5CpRealEcu.5CcR_R2023.2E09.2E15.5Cmake.5Coutput.5Cobjects.5CWAlloc.
00000270 01             9902 	.byte	1

                                                                      Page 178
                                                              C:\Users\nhuliyap\AppData\Local\Temp\gh_00002rs1.s
00000271 00000000*      9903 	.word	.LDW94
00000275 00             9904 	.byte	0
00000276 00             9905 	.byte	0
00000277 00             9906 	.byte	0
                        9907 .LDW_unq_2a:
                        9908 	.section	.debug_line
00000809 000502         9909 	.byte	0,5,2
0000080c 00000000*      9910 	.word	_bGetZomOwnStatusOfID..C.3A.5C_ECU2.5CECU_Rivian_A1.5CTarget.5Crepo_projects.5CpRealEcu.5CcR_R2023.2E09.2E15.5Cmake.5Coutput.5Cobjects.5CWAlloc.
00000810 03             9911 	.byte	3
00000811 cd02           9912 	.byte	205,2
00000813 02             9913 	.byte	2
00000814 00             9914 	.byte	0
00000815 01             9915 	.byte	1
00000816 06             9916 	.byte	6
00000817 13             9917 	.byte	19
00000818 000502         9918 	.byte	0,5,2
0000081b 00000000*      9919 	.word	.LDWlin47
0000081f 03             9920 	.byte	3
00000820 05             9921 	.byte	5
00000821 02             9922 	.byte	2
00000822 00             9923 	.byte	0
00000823 01             9924 	.byte	1
00000824 02             9925 	.byte	2
00000825 00             9926 	.byte	0
00000826 06             9927 	.byte	6
00000827 02             9928 	.byte	2
00000828 00             9929 	.byte	0
00000829 02             9930 	.byte	2
0000082a 02             9931 	.byte	2
0000082b 000101         9932 	.byte	0,1,1
                        9933 	.section	.debug_info
                        9934 .LDW_4dcc908:
00001b7a 0f             9935 	.byte	15
00001b7b 7563497800     9936 	.strz	"ucIx"
00001b80 ce02           9937 	.byte	206,2
00001b82 12             9938 	.byte	18
00001b83 01             9939 	.byte	1
00001b84 00000000*      9940 	.word	.LDW_4946da0
00001b88 00             9941 	.byte	0
00001b89 0156           9942 	.byte	1,86
                        9943 
                        9944 .LDW_4dcc400:
00001b8b 1d             9945 	.byte	29
00001b8c 00000000*      9946 	.word	.LDW84
00001b90 00000000*      9947 	.word	.LDW94
                        9948 
00001b94 00             9949 	.byte	0
                        9950 
00001b95 00             9951 	.byte	0
                        9952 
                        9953 .LDW_4dcda08:
00001b96 14             9954 	.byte	20
00001b97 756347657443   9955 	.strz	"ucGetColOfID"
00001b9d 6f6c4f664944 
00001ba3 00 
00001ba4 d702           9956 	.byte	215,2
00001ba6 0f             9957 	.byte	15
00001ba7 01             9958 	.byte	1
00001ba8 00000000*      9959 	.word	.LDW_4946da0
00001bac 00000000*      9960 	.word	_ucGetColOfID
00001bb0 00000000*      9961 	.word	___ghs_eofn_ucGetColOfID

                                                                      Page 179
                                                              C:\Users\nhuliyap\AppData\Local\Temp\gh_00002rs1.s
00001bb4 0153           9962 	.byte	1,83
00001bb6 02             9963 	.byte	2
00001bb7 00             9964 	.byte	0
00001bb8 02             9965 	.byte	2
00001bb9 00             9966 	.byte	0
00001bba 00             9967 	.byte	0
00001bbb 00             9968 	.byte	0
00001bbc 00             9969 	.byte	0
00001bbd 01             9970 	.byte	1
00001bbe 01             9971 	.byte	1
00001bbf 00             9972 	.byte	0
00001bc0 01             9973 	.byte	1
                        9974 
                        9975 	.section	.debug_frame
                        9976 .LDW_4e7e650:
00000278 00000000*      9977 	.word	.LDW_unq_2c-.LDW_unq_2b
                        9978 .LDW_unq_2b:
0000027c 00000000*      9979 	.word	.LDW_4da5d48
00000280 00000000*      9980 	.word	_ucGetColOfID
00000284 00000000*      9981 	.word	___ghs_eofn_ucGetColOfID-_ucGetColOfID
00000288 01             9982 	.byte	1
00000289 00000000*      9983 	.word	.LDW15
0000028d 00             9984 	.byte	0
0000028e 00             9985 	.byte	0
0000028f 00             9986 	.byte	0
                        9987 .LDW_unq_2c:
                        9988 	.section	.debug_line
0000082e 000502         9989 	.byte	0,5,2
00000831 00000000*      9990 	.word	_ucGetColOfID
00000835 03             9991 	.byte	3
00000836 d702           9992 	.byte	215,2
00000838 02             9993 	.byte	2
00000839 00             9994 	.byte	0
0000083a 01             9995 	.byte	1
0000083b 06             9996 	.byte	6
0000083c 14             9997 	.byte	20
0000083d 02             9998 	.byte	2
0000083e 02             9999 	.byte	2
0000083f 0b            10000 	.byte	11
00000840 000502        10001 	.byte	0,5,2
00000843 00000000*     10002 	.word	.LDWlin48
00000847 02            10003 	.byte	2
00000848 00            10004 	.byte	0
00000849 0c            10005 	.byte	12
0000084a 02            10006 	.byte	2
0000084b 00            10007 	.byte	0
0000084c 03            10008 	.byte	3
0000084d 7d            10009 	.byte	125
0000084e 02            10010 	.byte	2
0000084f 00            10011 	.byte	0
00000850 01            10012 	.byte	1
00000851 000502        10013 	.byte	0,5,2
00000854 00000000*     10014 	.word	.LDWlin49
00000858 03            10015 	.byte	3
00000859 04            10016 	.byte	4
0000085a 02            10017 	.byte	2
0000085b 00            10018 	.byte	0
0000085c 01            10019 	.byte	1
0000085d 0b            10020 	.byte	11
0000085e 02            10021 	.byte	2
0000085f 02            10022 	.byte	2

                                                                      Page 180
                                                              C:\Users\nhuliyap\AppData\Local\Temp\gh_00002rs1.s
00000860 000101        10023 	.byte	0,1,1
                       10024 	.section	.debug_info
                       10025 .LDW_4dcce30:
00001bc1 0f            10026 	.byte	15
00001bc2 707432494400  10027 	.strz	"pt2ID"
00001bc8 d802          10028 	.byte	216,2
00001bca 13            10029 	.byte	19
00001bcb 01            10030 	.byte	1
00001bcc 00000000*     10031 	.word	.LDW_4946e80
00001bd0 00            10032 	.byte	0
00001bd1 016e          10033 	.byte	1,110
                       10034 
                       10035 .LDW_4dcc250:
00001bd3 1d            10036 	.byte	29
00001bd4 00000000*     10037 	.word	.LDW05
00001bd8 00000000*     10038 	.word	.LDW15
                       10039 
                       10040 .LDW_4dcc8b0:
00001bdc 04            10041 	.byte	4
00001bdd 6900          10042 	.strz	"i"
00001bdf d902          10043 	.byte	217,2
00001be1 12            10044 	.byte	18
00001be2 01            10045 	.byte	1
00001be3 00000000*     10046 	.word	.LDW_4946da0
00001be7 00            10047 	.byte	0
00001be8 00            10048 	.byte	0
00001be9 015a          10049 	.byte	1,90
                       10050 
00001beb 00            10051 	.byte	0
                       10052 
00001bec 00            10053 	.byte	0
                       10054 
                       10055 .LDW_4dcd710:
00001bed 14            10056 	.byte	20
00001bee 756347657457  10057 	.strz	"ucGetWPOfCol"
00001bf4 504f66436f6c 
00001bfa 00 
00001bfb e202          10058 	.byte	226,2
00001bfd 0f            10059 	.byte	15
00001bfe 01            10060 	.byte	1
00001bff 00000000*     10061 	.word	.LDW_4946da0
00001c03 00000000*     10062 	.word	_ucGetWPOfCol
00001c07 00000000*     10063 	.word	___ghs_eofn_ucGetWPOfCol
00001c0b 0153          10064 	.byte	1,83
00001c0d 02            10065 	.byte	2
00001c0e 00            10066 	.byte	0
00001c0f 02            10067 	.byte	2
00001c10 00            10068 	.byte	0
00001c11 00            10069 	.byte	0
00001c12 00            10070 	.byte	0
00001c13 00            10071 	.byte	0
00001c14 01            10072 	.byte	1
00001c15 01            10073 	.byte	1
00001c16 00            10074 	.byte	0
00001c17 01            10075 	.byte	1
                       10076 
                       10077 	.section	.debug_frame
                       10078 .LDW_4e7e490:
00000290 00000000*     10079 	.word	.LDW_unq_2e-.LDW_unq_2d
                       10080 .LDW_unq_2d:
00000294 00000000*     10081 	.word	.LDW_4da5d48

                                                                      Page 181
                                                              C:\Users\nhuliyap\AppData\Local\Temp\gh_00002rs1.s
00000298 00000000*     10082 	.word	_ucGetWPOfCol
0000029c 00000000*     10083 	.word	___ghs_eofn_ucGetWPOfCol-_ucGetWPOfCol
000002a0 01            10084 	.byte	1
000002a1 00000000*     10085 	.word	.LDW35
000002a5 00            10086 	.byte	0
000002a6 00            10087 	.byte	0
000002a7 00            10088 	.byte	0
                       10089 .LDW_unq_2e:
                       10090 	.section	.debug_line
00000863 000502        10091 	.byte	0,5,2
00000866 00000000*     10092 	.word	_ucGetWPOfCol
0000086a 03            10093 	.byte	3
0000086b e202          10094 	.byte	226,2
0000086d 02            10095 	.byte	2
0000086e 00            10096 	.byte	0
0000086f 01            10097 	.byte	1
00000870 06            10098 	.byte	6
00000871 13            10099 	.byte	19
00000872 000502        10100 	.byte	0,5,2
00000875 00000000*     10101 	.word	.LDWlin50
00000879 02            10102 	.byte	2
0000087a 00            10103 	.byte	0
0000087b 0b            10104 	.byte	11
0000087c 000502        10105 	.byte	0,5,2
0000087f 00000000*     10106 	.word	.LDWlin51
00000883 03            10107 	.byte	3
00000884 04            10108 	.byte	4
00000885 02            10109 	.byte	2
00000886 00            10110 	.byte	0
00000887 01            10111 	.byte	1
00000888 02            10112 	.byte	2
00000889 00            10113 	.byte	0
0000088a 06            10114 	.byte	6
0000088b 02            10115 	.byte	2
0000088c 00            10116 	.byte	0
0000088d 02            10117 	.byte	2
0000088e 02            10118 	.byte	2
0000088f 000101        10119 	.byte	0,1,1
                       10120 	.section	.debug_info
                       10121 .LDW_4dccc78:
00001c18 0f            10122 	.byte	15
00001c19 7563497800    10123 	.strz	"ucIx"
00001c1e e302          10124 	.byte	227,2
00001c20 12            10125 	.byte	18
00001c21 01            10126 	.byte	1
00001c22 00000000*     10127 	.word	.LDW_4946da0
00001c26 00            10128 	.byte	0
00001c27 0156          10129 	.byte	1,86
                       10130 
                       10131 .LDW_4dcc670:
00001c29 1d            10132 	.byte	29
00001c2a 00000000*     10133 	.word	.LDW25
00001c2e 00000000*     10134 	.word	.LDW35
                       10135 
00001c32 00            10136 	.byte	0
                       10137 
00001c33 00            10138 	.byte	0
                       10139 
                       10140 .LDW_4dcdc68:
00001c34 14            10141 	.byte	20
00001c35 756347657449  10142 	.strz	"ucGetIndexOfHistoryWP"

                                                                      Page 182
                                                              C:\Users\nhuliyap\AppData\Local\Temp\gh_00002rs1.s
00001c3b 6e6465784f66 
00001c41 486973746f72 
00001c47 79575000 
00001c4b ec02          10143 	.byte	236,2
00001c4d 0f            10144 	.byte	15
00001c4e 01            10145 	.byte	1
00001c4f 00000000*     10146 	.word	.LDW_4946da0
00001c53 00000000*     10147 	.word	_ucGetIndexOfHistoryWP
00001c57 00000000*     10148 	.word	___ghs_eofn_ucGetIndexOfHistoryWP
00001c5b 0153          10149 	.byte	1,83
00001c5d 02            10150 	.byte	2
00001c5e 00            10151 	.byte	0
00001c5f 02            10152 	.byte	2
00001c60 00            10153 	.byte	0
00001c61 00            10154 	.byte	0
00001c62 00            10155 	.byte	0
00001c63 00            10156 	.byte	0
00001c64 01            10157 	.byte	1
00001c65 01            10158 	.byte	1
00001c66 00            10159 	.byte	0
00001c67 01            10160 	.byte	1
                       10161 
                       10162 	.section	.debug_frame
                       10163 .LDW_4e7e2d0:
000002a8 00000000*     10164 	.word	.LDW_unq_30-.LDW_unq_2f
                       10165 .LDW_unq_2f:
000002ac 00000000*     10166 	.word	.LDW_4da5d48
000002b0 00000000*     10167 	.word	_ucGetIndexOfHistoryWP
000002b4 00000000*     10168 	.word	___ghs_eofn_ucGetIndexOfHistoryWP-_ucGetIndexOfHistoryWP
000002b8 01            10169 	.byte	1
000002b9 00000000*     10170 	.word	.LDW55
000002bd 00            10171 	.byte	0
000002be 00            10172 	.byte	0
000002bf 00            10173 	.byte	0
                       10174 .LDW_unq_30:
                       10175 	.section	.debug_line
00000892 000502        10176 	.byte	0,5,2
00000895 00000000*     10177 	.word	_ucGetIndexOfHistoryWP
00000899 03            10178 	.byte	3
0000089a ec02          10179 	.byte	236,2
0000089c 02            10180 	.byte	2
0000089d 00            10181 	.byte	0
0000089e 01            10182 	.byte	1
0000089f 06            10183 	.byte	6
000008a0 14            10184 	.byte	20
000008a1 02            10185 	.byte	2
000008a2 02            10186 	.byte	2
000008a3 0b            10187 	.byte	11
000008a4 000502        10188 	.byte	0,5,2
000008a7 00000000*     10189 	.word	.LDWlin52
000008ab 02            10190 	.byte	2
000008ac 00            10191 	.byte	0
000008ad 0c            10192 	.byte	12
000008ae 02            10193 	.byte	2
000008af 00            10194 	.byte	0
000008b0 03            10195 	.byte	3
000008b1 7d            10196 	.byte	125
000008b2 02            10197 	.byte	2
000008b3 00            10198 	.byte	0
000008b4 01            10199 	.byte	1
000008b5 000502        10200 	.byte	0,5,2

                                                                      Page 183
                                                              C:\Users\nhuliyap\AppData\Local\Temp\gh_00002rs1.s
000008b8 00000000*     10201 	.word	.LDWlin53
000008bc 03            10202 	.byte	3
000008bd 04            10203 	.byte	4
000008be 02            10204 	.byte	2
000008bf 00            10205 	.byte	0
000008c0 01            10206 	.byte	1
000008c1 0b            10207 	.byte	11
000008c2 02            10208 	.byte	2
000008c3 02            10209 	.byte	2
000008c4 000101        10210 	.byte	0,1,1
                       10211 	.section	.debug_info
                       10212 .LDW_4dcc960:
00001c68 0f            10213 	.byte	15
00001c69 756357504e75  10214 	.strz	"ucWPNumber"
00001c6f 6d62657200 
00001c74 ed02          10215 	.byte	237,2
00001c76 12            10216 	.byte	18
00001c77 01            10217 	.byte	1
00001c78 00000000*     10218 	.word	.LDW_4946da0
00001c7c 00            10219 	.byte	0
00001c7d 0156          10220 	.byte	1,86
                       10221 
                       10222 .LDW_4dcc640:
00001c7f 1d            10223 	.byte	29
00001c80 00000000*     10224 	.word	.LDW45
00001c84 00000000*     10225 	.word	.LDW55
                       10226 
                       10227 .LDW_4dcca10:
00001c88 04            10228 	.byte	4
00001c89 6900          10229 	.strz	"i"
00001c8b ee02          10230 	.byte	238,2
00001c8d 12            10231 	.byte	18
00001c8e 01            10232 	.byte	1
00001c8f 00000000*     10233 	.word	.LDW_4946da0
00001c93 00            10234 	.byte	0
00001c94 00            10235 	.byte	0
00001c95 015a          10236 	.byte	1,90
                       10237 
00001c97 00            10238 	.byte	0
                       10239 
00001c98 00            10240 	.byte	0
                       10241 
                       10242 .LDW_4dcd418:
00001c99 14            10243 	.byte	20
00001c9a 756347657446  10244 	.strz	"ucGetFreeZOMPos"
00001ca0 7265655a4f4d 
00001ca6 506f7300 
00001caa f702          10245 	.byte	247,2
00001cac 16            10246 	.byte	22
00001cad 01            10247 	.byte	1
00001cae 00000000*     10248 	.word	.LDW_4946da0
00001cb2 00000000*     10249 	.word	_ucGetFreeZOMPos..C.3A.5C_ECU2.5CECU_Rivian_A1.5CTarget.5Crepo_projects.5CpRealEcu.5CcR_R2023.2E09.2E15.5Cmake.5Coutput.5Cobjects.5CWAlloc.
00001cb6 00000000*     10250 	.word	___ghs_eofn_ucGetFreeZOMPos
00001cba 0153          10251 	.byte	1,83
00001cbc 02            10252 	.byte	2
00001cbd 00            10253 	.byte	0
00001cbe 02            10254 	.byte	2
00001cbf 00            10255 	.byte	0
00001cc0 00            10256 	.byte	0
00001cc1 00            10257 	.byte	0
00001cc2 00            10258 	.byte	0

                                                                      Page 184
                                                              C:\Users\nhuliyap\AppData\Local\Temp\gh_00002rs1.s
00001cc3 00            10259 	.byte	0
00001cc4 01            10260 	.byte	1
00001cc5 00            10261 	.byte	0
00001cc6 01            10262 	.byte	1
                       10263 
                       10264 	.section	.debug_frame
                       10265 .LDW_4e7e410:
000002c0 00000000*     10266 	.word	.LDW_unq_32-.LDW_unq_31
                       10267 .LDW_unq_31:
000002c4 00000000*     10268 	.word	.LDW_4da5d48
000002c8 00000000*     10269 	.word	_ucGetFreeZOMPos..C.3A.5C_ECU2.5CECU_Rivian_A1.5CTarget.5Crepo_projects.5CpRealEcu.5CcR_R2023.2E09.2E15.5Cmake.5Coutput.5Cobjects.5CWAlloc.
000002cc 00000000*     10270 	.word	___ghs_eofn_ucGetFreeZOMPos-_ucGetFreeZOMPos..C.3A.5C_ECU2.5CECU_Rivian_A1.5CTarget.5Crepo_projects.5CpRealEcu.5CcR_R2023.2E09.2E15.5Cmake.5Coutput.5Cobjects.5CWAlloc.
000002d0 01            10271 	.byte	1
000002d1 00000000*     10272 	.word	.LDW75
000002d5 00            10273 	.byte	0
000002d6 00            10274 	.byte	0
000002d7 00            10275 	.byte	0
                       10276 .LDW_unq_32:
                       10277 	.section	.debug_line
000008c7 000502        10278 	.byte	0,5,2
000008ca 00000000*     10279 	.word	_ucGetFreeZOMPos..C.3A.5C_ECU2.5CECU_Rivian_A1.5CTarget.5Crepo_projects.5CpRealEcu.5CcR_R2023.2E09.2E15.5Cmake.5Coutput.5Cobjects.5CWAlloc.
000008ce 06            10280 	.byte	6
000008cf 03            10281 	.byte	3
000008d0 f902          10282 	.byte	249,2
000008d2 02            10283 	.byte	2
000008d3 00            10284 	.byte	0
000008d4 01            10285 	.byte	1
000008d5 02            10286 	.byte	2
000008d6 02            10287 	.byte	2
000008d7 0b            10288 	.byte	11
000008d8 000502        10289 	.byte	0,5,2
000008db 00000000*     10290 	.word	.LDWlin54
000008df 02            10291 	.byte	2
000008e0 00            10292 	.byte	0
000008e1 0c            10293 	.byte	12
000008e2 02            10294 	.byte	2
000008e3 00            10295 	.byte	0
000008e4 03            10296 	.byte	3
000008e5 7d            10297 	.byte	125
000008e6 02            10298 	.byte	2
000008e7 00            10299 	.byte	0
000008e8 01            10300 	.byte	1
000008e9 000502        10301 	.byte	0,5,2
000008ec 00000000*     10302 	.word	.LDWlin55
000008f0 03            10303 	.byte	3
000008f1 04            10304 	.byte	4
000008f2 02            10305 	.byte	2
000008f3 00            10306 	.byte	0
000008f4 01            10307 	.byte	1
000008f5 0b            10308 	.byte	11
000008f6 02            10309 	.byte	2
000008f7 02            10310 	.byte	2
000008f8 000101        10311 	.byte	0,1,1
                       10312 	.section	.debug_info
                       10313 .LDW_4dcc5b0:
00001cc7 1d            10314 	.byte	29
00001cc8 00000000*     10315 	.word	.LDW65
00001ccc 00000000*     10316 	.word	.LDW75
                       10317 
                       10318 .LDW_4dcca68:
00001cd0 04            10319 	.byte	4

                                                                      Page 185
                                                              C:\Users\nhuliyap\AppData\Local\Temp\gh_00002rs1.s
00001cd1 6900          10320 	.strz	"i"
00001cd3 f902          10321 	.byte	249,2
00001cd5 12            10322 	.byte	18
00001cd6 01            10323 	.byte	1
00001cd7 00000000*     10324 	.word	.LDW_4946da0
00001cdb 00            10325 	.byte	0
00001cdc 00            10326 	.byte	0
00001cdd 015a          10327 	.byte	1,90
                       10328 
00001cdf 00            10329 	.byte	0
                       10330 
00001ce0 00            10331 	.byte	0
                       10332 
                       10333 .LDW_4dcd548:
00001ce1 14            10334 	.byte	20
00001ce2 756353746172  10335 	.strz	"ucStartWA"
00001ce8 74574100 
00001cec 8203          10336 	.byte	130,3
00001cee 16            10337 	.byte	22
00001cef 01            10338 	.byte	1
00001cf0 00000000*     10339 	.word	.LDW_4946da0
00001cf4 00000000*     10340 	.word	_ucStartWA..C.3A.5C_ECU2.5CECU_Rivian_A1.5CTarget.5Crepo_projects.5CpRealEcu.5CcR_R2023.2E09.2E15.5Cmake.5Coutput.5Cobjects.5CWAlloc.
00001cf8 00000000*     10341 	.word	___ghs_eofn_ucStartWA
00001cfc 0153          10342 	.byte	1,83
00001cfe 02            10343 	.byte	2
00001cff 00            10344 	.byte	0
00001d00 02            10345 	.byte	2
00001d01 00            10346 	.byte	0
00001d02 00            10347 	.byte	0
00001d03 00            10348 	.byte	0
00001d04 00            10349 	.byte	0
00001d05 00            10350 	.byte	0
00001d06 01            10351 	.byte	1
00001d07 00            10352 	.byte	0
00001d08 01            10353 	.byte	1
                       10354 
                       10355 	.section	.debug_frame
                       10356 .LDW_4e7e790:
000002d8 00000000*     10357 	.word	.LDW_unq_34-.LDW_unq_33
                       10358 .LDW_unq_33:
000002dc 00000000*     10359 	.word	.LDW_4da5d48
000002e0 00000000*     10360 	.word	_ucStartWA..C.3A.5C_ECU2.5CECU_Rivian_A1.5CTarget.5Crepo_projects.5CpRealEcu.5CcR_R2023.2E09.2E15.5Cmake.5Coutput.5Cobjects.5CWAlloc.
000002e4 00000000*     10361 	.word	___ghs_eofn_ucStartWA-_ucStartWA..C.3A.5C_ECU2.5CECU_Rivian_A1.5CTarget.5Crepo_projects.5CpRealEcu.5CcR_R2023.2E09.2E15.5Cmake.5Coutput.5Cobjects.5CWAlloc.
000002e8 01            10362 	.byte	1
000002e9 00000000*     10363 	.word	.LDW95
000002ed 00            10364 	.byte	0
000002ee 00            10365 	.byte	0
000002ef 00            10366 	.byte	0
                       10367 .LDW_unq_34:
                       10368 	.section	.debug_line
000008fb 000502        10369 	.byte	0,5,2
000008fe 00000000*     10370 	.word	_ucStartWA..C.3A.5C_ECU2.5CECU_Rivian_A1.5CTarget.5Crepo_projects.5CpRealEcu.5CcR_R2023.2E09.2E15.5Cmake.5Coutput.5Cobjects.5CWAlloc.
00000902 06            10371 	.byte	6
00000903 03            10372 	.byte	3
00000904 8303          10373 	.byte	131,3
00000906 02            10374 	.byte	2
00000907 00            10375 	.byte	0
00000908 01            10376 	.byte	1
00000909 13            10377 	.byte	19
0000090a 02            10378 	.byte	2
0000090b 02            10379 	.byte	2

                                                                      Page 186
                                                              C:\Users\nhuliyap\AppData\Local\Temp\gh_00002rs1.s
0000090c 0b            10380 	.byte	11
0000090d 000502        10381 	.byte	0,5,2
00000910 00000000*     10382 	.word	.LDWlin56
00000914 02            10383 	.byte	2
00000915 00            10384 	.byte	0
00000916 0b            10385 	.byte	11
00000917 1b            10386 	.byte	27
00000918 02            10387 	.byte	2
00000919 00            10388 	.byte	0
0000091a 03            10389 	.byte	3
0000091b 7d            10390 	.byte	125
0000091c 02            10391 	.byte	2
0000091d 00            10392 	.byte	0
0000091e 01            10393 	.byte	1
0000091f 000502        10394 	.byte	0,5,2
00000922 00000000*     10395 	.word	.LDWlin57
00000926 03            10396 	.byte	3
00000927 04            10397 	.byte	4
00000928 02            10398 	.byte	2
00000929 00            10399 	.byte	0
0000092a 01            10400 	.byte	1
0000092b 0b            10401 	.byte	11
0000092c 23            10402 	.byte	35
0000092d 02            10403 	.byte	2
0000092e 02            10404 	.byte	2
0000092f 000101        10405 	.byte	0,1,1
                       10406 	.section	.debug_info
                       10407 .LDW_4dcc610:
00001d09 1d            10408 	.byte	29
00001d0a 00000000*     10409 	.word	.LDW85
00001d0e 00000000*     10410 	.word	.LDW95
                       10411 
                       10412 .LDW_4dccbc8:
00001d12 04            10413 	.byte	4
00001d13 6900          10414 	.strz	"i"
00001d15 8403          10415 	.byte	132,3
00001d17 12            10416 	.byte	18
00001d18 01            10417 	.byte	1
00001d19 00000000*     10418 	.word	.LDW_4946da0
00001d1d 00            10419 	.byte	0
00001d1e 00            10420 	.byte	0
00001d1f 0161          10421 	.byte	1,97
                       10422 
                       10423 .LDW_4dccac0:
00001d21 04            10424 	.byte	4
00001d22 756352657400  10425 	.strz	"ucRet"
00001d28 8403          10426 	.byte	132,3
00001d2a 15            10427 	.byte	21
00001d2b 01            10428 	.byte	1
00001d2c 00000000*     10429 	.word	.LDW_4946da0
00001d30 00            10430 	.byte	0
00001d31 00            10431 	.byte	0
00001d32 0162          10432 	.byte	1,98
                       10433 
00001d34 00            10434 	.byte	0
                       10435 
00001d35 00            10436 	.byte	0
                       10437 
                       10438 .LDW_4dccf58:
00001d36 13            10439 	.byte	19
00001d37 416c69676e5a  10440 	.strz	"AlignZOM"

                                                                      Page 187
                                                              C:\Users\nhuliyap\AppData\Local\Temp\gh_00002rs1.s
00001d3d 4f4d00 
00001d40 8e03          10441 	.byte	142,3
00001d42 06            10442 	.byte	6
00001d43 01            10443 	.byte	1
00001d44 00000000*     10444 	.word	_AlignZOM
00001d48 00000000*     10445 	.word	___ghs_eofn_AlignZOM
00001d4c 0153          10446 	.byte	1,83
00001d4e 828080c00b    10447 	.byte	130,128,128,192,11
00001d53 10            10448 	.byte	16
00001d54 03            10449 	.byte	3
00001d55 10            10450 	.byte	16
00001d56 00            10451 	.byte	0
00001d57 00            10452 	.byte	0
00001d58 00            10453 	.byte	0
00001d59 01            10454 	.byte	1
00001d5a 01            10455 	.byte	1
00001d5b 00            10456 	.byte	0
00001d5c 01            10457 	.byte	1
                       10458 
                       10459 	.section	.debug_frame
                       10460 .LDW_4e7e5d0:
000002f0 00000000*     10461 	.word	.LDW_unq_36-.LDW_unq_35
                       10462 .LDW_unq_35:
000002f4 00000000*     10463 	.word	.LDW_4da5d48
000002f8 00000000*     10464 	.word	_AlignZOM
000002fc 00000000*     10465 	.word	___ghs_eofn_AlignZOM-_AlignZOM
00000300 44            10466 	.byte	68
00000301 9f            10467 	.byte	159
00000302 00            10468 	.byte	0
00000303 40            10469 	.byte	64
00000304 9d            10470 	.byte	157
00000305 04            10471 	.byte	4
00000306 40            10472 	.byte	64
00000307 9c            10473 	.byte	156
00000308 08            10474 	.byte	8
00000309 40            10475 	.byte	64
0000030a 9b            10476 	.byte	155
0000030b 0c            10477 	.byte	12
0000030c 01            10478 	.byte	1
0000030d 00000000*     10479 	.word	.LDW16
00000311 00            10480 	.byte	0
00000312 00            10481 	.byte	0
00000313 00            10482 	.byte	0
                       10483 .LDW_unq_36:
                       10484 	.section	.debug_line
00000932 000502        10485 	.byte	0,5,2
00000935 00000000*     10486 	.word	_AlignZOM
00000939 03            10487 	.byte	3
0000093a 8e03          10488 	.byte	142,3
0000093c 02            10489 	.byte	2
0000093d 00            10490 	.byte	0
0000093e 01            10491 	.byte	1
0000093f 06            10492 	.byte	6
00000940 2b            10493 	.byte	43
00000941 13            10494 	.byte	19
00000942 02            10495 	.byte	2
00000943 02            10496 	.byte	2
00000944 0b            10497 	.byte	11
00000945 000502        10498 	.byte	0,5,2
00000948 00000000*     10499 	.word	.LDWlin58
0000094c 02            10500 	.byte	2

                                                                      Page 188
                                                              C:\Users\nhuliyap\AppData\Local\Temp\gh_00002rs1.s
0000094d 00            10501 	.byte	0
0000094e 0b            10502 	.byte	11
0000094f 000502        10503 	.byte	0,5,2
00000952 00000000*     10504 	.word	.LDWlin59
00000956 0b            10505 	.byte	11
00000957 0b            10506 	.byte	11
00000958 0b            10507 	.byte	11
00000959 02            10508 	.byte	2
0000095a 04            10509 	.byte	4
0000095b 000502        10510 	.byte	0,5,2
0000095e 00000000*     10511 	.word	.LDWlin60
00000962 0b            10512 	.byte	11
00000963 000502        10513 	.byte	0,5,2
00000966 00000000*     10514 	.word	.LDWlin61
0000096a 02            10515 	.byte	2
0000096b 00            10516 	.byte	0
0000096c 0b            10517 	.byte	11
0000096d 1b            10518 	.byte	27
0000096e 02            10519 	.byte	2
0000096f 02            10520 	.byte	2
00000970 0b            10521 	.byte	11
00000971 000502        10522 	.byte	0,5,2
00000974 00000000*     10523 	.word	.LDWlin62
00000978 03            10524 	.byte	3
00000979 7f            10525 	.byte	127
0000097a 02            10526 	.byte	2
0000097b 00            10527 	.byte	0
0000097c 01            10528 	.byte	1
0000097d 000502        10529 	.byte	0,5,2
00000980 00000000*     10530 	.word	.LDWlin63
00000984 0c            10531 	.byte	12
00000985 0b            10532 	.byte	11
00000986 1b            10533 	.byte	27
00000987 1b            10534 	.byte	27
00000988 000502        10535 	.byte	0,5,2
0000098b 00000000*     10536 	.word	.LDWlin64
0000098f 0c            10537 	.byte	12
00000990 000502        10538 	.byte	0,5,2
00000993 00000000*     10539 	.word	.LDWlin65
00000997 0b            10540 	.byte	11
00000998 02            10541 	.byte	2
00000999 00            10542 	.byte	0
0000099a 03            10543 	.byte	3
0000099b 75            10544 	.byte	117
0000099c 02            10545 	.byte	2
0000099d 00            10546 	.byte	0
0000099e 01            10547 	.byte	1
0000099f 000502        10548 	.byte	0,5,2
000009a2 00000000*     10549 	.word	.LDWlin66
000009a6 03            10550 	.byte	3
000009a7 0c            10551 	.byte	12
000009a8 02            10552 	.byte	2
000009a9 00            10553 	.byte	0
000009aa 01            10554 	.byte	1
000009ab 0b            10555 	.byte	11
000009ac 02            10556 	.byte	2
000009ad 00            10557 	.byte	0
000009ae 0b            10558 	.byte	11
000009af 000502        10559 	.byte	0,5,2
000009b2 00000000*     10560 	.word	.LDWlin67
000009b6 02            10561 	.byte	2

                                                                      Page 189
                                                              C:\Users\nhuliyap\AppData\Local\Temp\gh_00002rs1.s
000009b7 00            10562 	.byte	0
000009b8 0c            10563 	.byte	12
000009b9 02            10564 	.byte	2
000009ba 00            10565 	.byte	0
000009bb 03            10566 	.byte	3
000009bc 6b            10567 	.byte	107
000009bd 02            10568 	.byte	2
000009be 00            10569 	.byte	0
000009bf 01            10570 	.byte	1
000009c0 000502        10571 	.byte	0,5,2
000009c3 00000000*     10572 	.word	.LDWlin68
000009c7 03            10573 	.byte	3
000009c8 16            10574 	.byte	22
000009c9 02            10575 	.byte	2
000009ca 00            10576 	.byte	0
000009cb 01            10577 	.byte	1
000009cc 0b            10578 	.byte	11
000009cd 02            10579 	.byte	2
000009ce 04            10580 	.byte	4
000009cf 000101        10581 	.byte	0,1,1
                       10582 	.section	.debug_info
                       10583 .LDW_4dcea88:
00001d5d 0f            10584 	.byte	15
00001d5e 757368455253  10585 	.strz	"ushERSlot"
00001d64 6c6f7400 
00001d68 8f03          10586 	.byte	143,3
00001d6a 13            10587 	.byte	19
00001d6b 01            10588 	.byte	1
00001d6c 00000000*     10589 	.word	.LDW_4946ac8
00001d70 00            10590 	.byte	0
00001d71 016d          10591 	.byte	1,109
                       10592 
                       10593 .LDW_4dcc550:
00001d73 1d            10594 	.byte	29
00001d74 00000000*     10595 	.word	.LDW06
00001d78 00000000*     10596 	.word	.LDW16
                       10597 
                       10598 .LDW_4dcedf8:
00001d7c 04            10599 	.byte	4
00001d7d 6900          10600 	.strz	"i"
00001d7f 9003          10601 	.byte	144,3
00001d81 12            10602 	.byte	18
00001d82 01            10603 	.byte	1
00001d83 00000000*     10604 	.word	.LDW_4946da0
00001d87 00            10605 	.byte	0
00001d88 00            10606 	.byte	0
00001d89 016b          10607 	.byte	1,107
                       10608 
                       10609 .LDW_4dcf008:
00001d8b 04            10610 	.byte	4
00001d8c 6a00          10611 	.strz	"j"
00001d8e 9003          10612 	.byte	144,3
00001d90 15            10613 	.byte	21
00001d91 01            10614 	.byte	1
00001d92 00000000*     10615 	.word	.LDW_4946da0
00001d96 00            10616 	.byte	0
00001d97 00            10617 	.byte	0
00001d98 0156          10618 	.byte	1,86
                       10619 
                       10620 .LDW_4dceae0:
00001d9a 04            10621 	.byte	4

                                                                      Page 190
                                                              C:\Users\nhuliyap\AppData\Local\Temp\gh_00002rs1.s
00001d9b 6b00          10622 	.strz	"k"
00001d9d 9003          10623 	.byte	144,3
00001d9f 18            10624 	.byte	24
00001da0 01            10625 	.byte	1
00001da1 00000000*     10626 	.word	.LDW_4946da0
00001da5 00            10627 	.byte	0
00001da6 00            10628 	.byte	0
00001da7 0163          10629 	.byte	1,99
                       10630 
                       10631 .LDW_4dcee50:
00001da9 04            10632 	.byte	4
00001daa 7563437400    10633 	.strz	"ucCt"
00001daf 9003          10634 	.byte	144,3
00001db1 1b            10635 	.byte	27
00001db2 01            10636 	.byte	1
00001db3 00000000*     10637 	.word	.LDW_4946da0
00001db7 00            10638 	.byte	0
00001db8 00            10639 	.byte	0
00001db9 016c          10640 	.byte	1,108
                       10641 
00001dbb 00            10642 	.byte	0
                       10643 
00001dbc 00            10644 	.byte	0
                       10645 
                       10646 .LDW_4dcdb38:
00001dbd 14            10647 	.byte	20
00001dbe 75634c6f7765  10648 	.strz	"ucLowestProbe"
00001dc4 737450726f62 
00001dca 6500 
00001dcc aa03          10649 	.byte	170,3
00001dce 16            10650 	.byte	22
00001dcf 01            10651 	.byte	1
00001dd0 00000000*     10652 	.word	.LDW_4946da0
00001dd4 00000000*     10653 	.word	_ucLowestProbe..C.3A.5C_ECU2.5CECU_Rivian_A1.5CTarget.5Crepo_projects.5CpRealEcu.5CcR_R2023.2E09.2E15.5Cmake.5Coutput.5Cobjects.5CWAlloc.
00001dd8 00000000*     10654 	.word	___ghs_eofn_ucLowestProbe
00001ddc 0153          10655 	.byte	1,83
00001dde 828080e00b    10656 	.byte	130,128,128,224,11
00001de3 14            10657 	.byte	20
00001de4 03            10658 	.byte	3
00001de5 14            10659 	.byte	20
00001de6 00            10660 	.byte	0
00001de7 00            10661 	.byte	0
00001de8 00            10662 	.byte	0
00001de9 00            10663 	.byte	0
00001dea 01            10664 	.byte	1
00001deb 00            10665 	.byte	0
00001dec 01            10666 	.byte	1
                       10667 
                       10668 	.section	.debug_frame
                       10669 .LDW_4e7e090:
00000314 00000000*     10670 	.word	.LDW_unq_38-.LDW_unq_37
                       10671 .LDW_unq_37:
00000318 00000000*     10672 	.word	.LDW_4da5d48
0000031c 00000000*     10673 	.word	_ucLowestProbe..C.3A.5C_ECU2.5CECU_Rivian_A1.5CTarget.5Crepo_projects.5CpRealEcu.5CcR_R2023.2E09.2E15.5Cmake.5Coutput.5Cobjects.5CWAlloc.
00000320 00000000*     10674 	.word	___ghs_eofn_ucLowestProbe-_ucLowestProbe..C.3A.5C_ECU2.5CECU_Rivian_A1.5CTarget.5Crepo_projects.5CpRealEcu.5CcR_R2023.2E09.2E15.5Cmake.5Coutput.5Cobjects.5CWAlloc.
00000324 44            10675 	.byte	68
00000325 9f            10676 	.byte	159
00000326 00            10677 	.byte	0
00000327 40            10678 	.byte	64
00000328 9d            10679 	.byte	157
00000329 04            10680 	.byte	4

                                                                      Page 191
                                                              C:\Users\nhuliyap\AppData\Local\Temp\gh_00002rs1.s
0000032a 40            10681 	.byte	64
0000032b 9c            10682 	.byte	156
0000032c 08            10683 	.byte	8
0000032d 40            10684 	.byte	64
0000032e 9b            10685 	.byte	155
0000032f 0c            10686 	.byte	12
00000330 40            10687 	.byte	64
00000331 9a            10688 	.byte	154
00000332 10            10689 	.byte	16
00000333 01            10690 	.byte	1
00000334 00000000*     10691 	.word	.LDW36
                       10692 .LDW_unq_38:
                       10693 	.section	.debug_line
000009d2 000502        10694 	.byte	0,5,2
000009d5 00000000*     10695 	.word	_ucLowestProbe..C.3A.5C_ECU2.5CECU_Rivian_A1.5CTarget.5Crepo_projects.5CpRealEcu.5CcR_R2023.2E09.2E15.5Cmake.5Coutput.5Cobjects.5CWAlloc.
000009d9 03            10696 	.byte	3
000009da aa03          10697 	.byte	170,3
000009dc 02            10698 	.byte	2
000009dd 00            10699 	.byte	0
000009de 01            10700 	.byte	1
000009df 06            10701 	.byte	6
000009e0 2b            10702 	.byte	43
000009e1 1b            10703 	.byte	27
000009e2 02            10704 	.byte	2
000009e3 02            10705 	.byte	2
000009e4 0b            10706 	.byte	11
000009e5 000502        10707 	.byte	0,5,2
000009e8 00000000*     10708 	.word	.LDWlin69
000009ec 02            10709 	.byte	2
000009ed 00            10710 	.byte	0
000009ee 0b            10711 	.byte	11
000009ef 000502        10712 	.byte	0,5,2
000009f2 00000000*     10713 	.word	.LDWlin70
000009f6 0c            10714 	.byte	12
000009f7 0b            10715 	.byte	11
000009f8 0b            10716 	.byte	11
000009f9 06            10717 	.byte	6
000009fa 000502        10718 	.byte	0,5,2
000009fd 00000000*     10719 	.word	.LDWlin71
00000a01 03            10720 	.byte	3
00000a02 7d            10721 	.byte	125
00000a03 02            10722 	.byte	2
00000a04 00            10723 	.byte	0
00000a05 01            10724 	.byte	1
00000a06 06            10725 	.byte	6
00000a07 03            10726 	.byte	3
00000a08 05            10727 	.byte	5
00000a09 02            10728 	.byte	2
00000a0a 00            10729 	.byte	0
00000a0b 01            10730 	.byte	1
00000a0c 0b            10731 	.byte	11
00000a0d 13            10732 	.byte	19
00000a0e 02            10733 	.byte	2
00000a0f 00            10734 	.byte	0
00000a10 0b            10735 	.byte	11
00000a11 02            10736 	.byte	2
00000a12 00            10737 	.byte	0
00000a13 0b            10738 	.byte	11
00000a14 02            10739 	.byte	2
00000a15 00            10740 	.byte	0
00000a16 03            10741 	.byte	3

                                                                      Page 192
                                                              C:\Users\nhuliyap\AppData\Local\Temp\gh_00002rs1.s
00000a17 74            10742 	.byte	116
00000a18 02            10743 	.byte	2
00000a19 00            10744 	.byte	0
00000a1a 01            10745 	.byte	1
00000a1b 000502        10746 	.byte	0,5,2
00000a1e 00000000*     10747 	.word	.LDWlin72
00000a22 03            10748 	.byte	3
00000a23 0d            10749 	.byte	13
00000a24 02            10750 	.byte	2
00000a25 00            10751 	.byte	0
00000a26 01            10752 	.byte	1
00000a27 0b            10753 	.byte	11
00000a28 06            10754 	.byte	6
00000a29 02            10755 	.byte	2
00000a2a 04            10756 	.byte	4
00000a2b 02            10757 	.byte	2
00000a2c 04            10758 	.byte	4
00000a2d 000101        10759 	.byte	0,1,1
                       10760 	.section	.debug_info
                       10761 .LDW_4dced48:
00001ded 0f            10762 	.byte	15
00001dee 757368457863  10763 	.strz	"ushException"
00001df4 657074696f6e 
00001dfa 00 
00001dfb ab03          10764 	.byte	171,3
00001dfd 13            10765 	.byte	19
00001dfe 01            10766 	.byte	1
00001dff 00000000*     10767 	.word	.LDW_4946ac8
00001e03 00            10768 	.byte	0
00001e04 016b          10769 	.byte	1,107
                       10770 
                       10771 .LDW_4ddfe40:
00001e06 1d            10772 	.byte	29
00001e07 00000000*     10773 	.word	.LDW26
00001e0b 00000000*     10774 	.word	.LDW36
                       10775 
                       10776 .LDW_4dce7c8:
00001e0f 04            10777 	.byte	4
00001e10 6900          10778 	.strz	"i"
00001e12 ac03          10779 	.byte	172,3
00001e14 12            10780 	.byte	18
00001e15 01            10781 	.byte	1
00001e16 00000000*     10782 	.word	.LDW_4946da0
00001e1a 00            10783 	.byte	0
00001e1b 00            10784 	.byte	0
00001e1c 016d          10785 	.byte	1,109
                       10786 
                       10787 .LDW_4dcef00:
00001e1e 04            10788 	.byte	4
00001e1f 75634d696e49  10789 	.strz	"ucMinIx"
00001e25 7800 
00001e27 ac03          10790 	.byte	172,3
00001e29 15            10791 	.byte	21
00001e2a 01            10792 	.byte	1
00001e2b 00000000*     10793 	.word	.LDW_4946da0
00001e2f 00            10794 	.byte	0
00001e30 00            10795 	.byte	0
00001e31 016c          10796 	.byte	1,108
                       10797 
00001e33 00            10798 	.byte	0
                       10799 

                                                                      Page 193
                                                              C:\Users\nhuliyap\AppData\Local\Temp\gh_00002rs1.s
00001e34 00            10800 	.byte	0
                       10801 
                       10802 .LDW_4dcdaa0:
00001e35 14            10803 	.byte	20
00001e36 756353756d43  10804 	.strz	"ucSumCtID"
00001e3c 74494400 
00001e40 be03          10805 	.byte	190,3
00001e42 0f            10806 	.byte	15
00001e43 01            10807 	.byte	1
00001e44 00000000*     10808 	.word	.LDW_4946da0
00001e48 00000000*     10809 	.word	_ucSumCtID
00001e4c 00000000*     10810 	.word	___ghs_eofn_ucSumCtID
00001e50 0153          10811 	.byte	1,83
00001e52 828080e00b    10812 	.byte	130,128,128,224,11
00001e57 14            10813 	.byte	20
00001e58 03            10814 	.byte	3
00001e59 14            10815 	.byte	20
00001e5a 00            10816 	.byte	0
00001e5b 00            10817 	.byte	0
00001e5c 00            10818 	.byte	0
00001e5d 01            10819 	.byte	1
00001e5e 01            10820 	.byte	1
00001e5f 00            10821 	.byte	0
00001e60 01            10822 	.byte	1
                       10823 
                       10824 	.section	.debug_frame
                       10825 .LDW_4e7e610:
00000338 00000000*     10826 	.word	.LDW_unq_3a-.LDW_unq_39
                       10827 .LDW_unq_39:
0000033c 00000000*     10828 	.word	.LDW_4da5d48
00000340 00000000*     10829 	.word	_ucSumCtID
00000344 00000000*     10830 	.word	___ghs_eofn_ucSumCtID-_ucSumCtID
00000348 44            10831 	.byte	68
00000349 9f            10832 	.byte	159
0000034a 00            10833 	.byte	0
0000034b 40            10834 	.byte	64
0000034c 9d            10835 	.byte	157
0000034d 04            10836 	.byte	4
0000034e 40            10837 	.byte	64
0000034f 9c            10838 	.byte	156
00000350 08            10839 	.byte	8
00000351 40            10840 	.byte	64
00000352 9b            10841 	.byte	155
00000353 0c            10842 	.byte	12
00000354 40            10843 	.byte	64
00000355 9a            10844 	.byte	154
00000356 10            10845 	.byte	16
00000357 01            10846 	.byte	1
00000358 00000000*     10847 	.word	.LDW56
                       10848 .LDW_unq_3a:
                       10849 	.section	.debug_line
00000a30 000502        10850 	.byte	0,5,2
00000a33 00000000*     10851 	.word	_ucSumCtID
00000a37 03            10852 	.byte	3
00000a38 bf03          10853 	.byte	191,3
00000a3a 02            10854 	.byte	2
00000a3b 00            10855 	.byte	0
00000a3c 01            10856 	.byte	1
00000a3d 06            10857 	.byte	6
00000a3e 3b            10858 	.byte	59
00000a3f 13            10859 	.byte	19

                                                                      Page 194
                                                              C:\Users\nhuliyap\AppData\Local\Temp\gh_00002rs1.s
00000a40 02            10860 	.byte	2
00000a41 02            10861 	.byte	2
00000a42 0b            10862 	.byte	11
00000a43 000502        10863 	.byte	0,5,2
00000a46 00000000*     10864 	.word	.LDWlin73
00000a4a 0c            10865 	.byte	12
00000a4b 0b            10866 	.byte	11
00000a4c 1b            10867 	.byte	27
00000a4d 02            10868 	.byte	2
00000a4e 00            10869 	.byte	0
00000a4f 03            10870 	.byte	3
00000a50 7b            10871 	.byte	123
00000a51 02            10872 	.byte	2
00000a52 00            10873 	.byte	0
00000a53 01            10874 	.byte	1
00000a54 000502        10875 	.byte	0,5,2
00000a57 00000000*     10876 	.word	.LDWlin74
00000a5b 03            10877 	.byte	3
00000a5c 06            10878 	.byte	6
00000a5d 02            10879 	.byte	2
00000a5e 00            10880 	.byte	0
00000a5f 01            10881 	.byte	1
00000a60 0b            10882 	.byte	11
00000a61 06            10883 	.byte	6
00000a62 02            10884 	.byte	2
00000a63 02            10885 	.byte	2
00000a64 02            10886 	.byte	2
00000a65 04            10887 	.byte	4
00000a66 000101        10888 	.byte	0,1,1
                       10889 	.section	.debug_info
                       10890 .LDW_4dce8d0:
00001e61 0f            10891 	.byte	15
00001e62 75634d696e43  10892 	.strz	"ucMinCt"
00001e68 7400 
00001e6a bf03          10893 	.byte	191,3
00001e6c 12            10894 	.byte	18
00001e6d 01            10895 	.byte	1
00001e6e 00000000*     10896 	.word	.LDW_4946da0
00001e72 00            10897 	.byte	0
00001e73 016b          10898 	.byte	1,107
                       10899 
                       10900 .LDW_4dcf168:
00001e75 0f            10901 	.byte	15
00001e76 75634d696e52  10902 	.strz	"ucMinRssi"
00001e7c 73736900 
00001e80 c003          10903 	.byte	192,3
00001e82 12            10904 	.byte	18
00001e83 01            10905 	.byte	1
00001e84 00000000*     10906 	.word	.LDW_4946da0
00001e88 00            10907 	.byte	0
00001e89 016a          10908 	.byte	1,106
                       10909 
                       10910 .LDW_4ddfd80:
00001e8b 1d            10911 	.byte	29
00001e8c 00000000*     10912 	.word	.LDW46
00001e90 00000000*     10913 	.word	.LDW56
                       10914 
                       10915 .LDW_4dcec98:
00001e94 04            10916 	.byte	4
00001e95 6900          10917 	.strz	"i"
00001e97 c103          10918 	.byte	193,3

                                                                      Page 195
                                                              C:\Users\nhuliyap\AppData\Local\Temp\gh_00002rs1.s
00001e99 12            10919 	.byte	18
00001e9a 01            10920 	.byte	1
00001e9b 00000000*     10921 	.word	.LDW_4946da0
00001e9f 00            10922 	.byte	0
00001ea0 00            10923 	.byte	0
00001ea1 016d          10924 	.byte	1,109
                       10925 
                       10926 .LDW_4dce928:
00001ea3 04            10927 	.byte	4
00001ea4 7563437400    10928 	.strz	"ucCt"
00001ea9 c103          10929 	.byte	193,3
00001eab 15            10930 	.byte	21
00001eac 01            10931 	.byte	1
00001ead 00000000*     10932 	.word	.LDW_4946da0
00001eb1 00            10933 	.byte	0
00001eb2 00            10934 	.byte	0
00001eb3 016c          10935 	.byte	1,108
                       10936 
00001eb5 00            10937 	.byte	0
                       10938 
00001eb6 00            10939 	.byte	0
                       10940 
                       10941 .LDW_4dcd5e0:
00001eb7 14            10942 	.byte	20
00001eb8 757368436865  10943 	.strz	"ushCheckERState"
00001ebe 636b45525374 
00001ec4 61746500 
00001ec8 cc03          10944 	.byte	204,3
00001eca 17            10945 	.byte	23
00001ecb 01            10946 	.byte	1
00001ecc 00000000*     10947 	.word	.LDW_4946ac8
00001ed0 00000000*     10948 	.word	_ushCheckERState..C.3A.5C_ECU2.5CECU_Rivian_A1.5CTarget.5Crepo_projects.5CpRealEcu.5CcR_R2023.2E09.2E15.5Cmake.5Coutput.5Cobjects.5CWAlloc.
00001ed4 00000000*     10949 	.word	___ghs_eofn_ushCheckERState
00001ed8 0153          10950 	.byte	1,83
00001eda 828080800a    10951 	.byte	130,128,128,128,10
00001edf 08            10952 	.byte	8
00001ee0 03            10953 	.byte	3
00001ee1 08            10954 	.byte	8
00001ee2 00            10955 	.byte	0
00001ee3 00            10956 	.byte	0
00001ee4 00            10957 	.byte	0
00001ee5 00            10958 	.byte	0
00001ee6 01            10959 	.byte	1
00001ee7 00            10960 	.byte	0
00001ee8 01            10961 	.byte	1
                       10962 
                       10963 	.section	.debug_frame
                       10964 .LDW_4fb77d8:
0000035c 00000000*     10965 	.word	.LDW_unq_3c-.LDW_unq_3b
                       10966 .LDW_unq_3b:
00000360 00000000*     10967 	.word	.LDW_4da5d48
00000364 00000000*     10968 	.word	_ushCheckERState..C.3A.5C_ECU2.5CECU_Rivian_A1.5CTarget.5Crepo_projects.5CpRealEcu.5CcR_R2023.2E09.2E15.5Cmake.5Coutput.5Cobjects.5CWAlloc.
00000368 00000000*     10969 	.word	___ghs_eofn_ushCheckERState-_ushCheckERState..C.3A.5C_ECU2.5CECU_Rivian_A1.5CTarget.5Crepo_projects.5CpRealEcu.5CcR_R2023.2E09.2E15.5Cmake.5Coutput.5Cobjects.5CWAlloc.
0000036c 44            10970 	.byte	68
0000036d 9f            10971 	.byte	159
0000036e 00            10972 	.byte	0
0000036f 40            10973 	.byte	64
00000370 9d            10974 	.byte	157
00000371 04            10975 	.byte	4
00000372 01            10976 	.byte	1
00000373 00000000*     10977 	.word	.LDW77

                                                                      Page 196
                                                              C:\Users\nhuliyap\AppData\Local\Temp\gh_00002rs1.s
00000377 00            10978 	.byte	0
                       10979 .LDW_unq_3c:
                       10980 	.section	.debug_line
00000a69 000502        10981 	.byte	0,5,2
00000a6c 00000000*     10982 	.word	_ushCheckERState..C.3A.5C_ECU2.5CECU_Rivian_A1.5CTarget.5Crepo_projects.5CpRealEcu.5CcR_R2023.2E09.2E15.5Cmake.5Coutput.5Cobjects.5CWAlloc.
00000a70 03            10983 	.byte	3
00000a71 cc03          10984 	.byte	204,3
00000a73 02            10985 	.byte	2
00000a74 00            10986 	.byte	0
00000a75 01            10987 	.byte	1
00000a76 06            10988 	.byte	6
00000a77 25            10989 	.byte	37
00000a78 000502        10990 	.byte	0,5,2
00000a7b 00000000*     10991 	.word	.LDWlin94
00000a7f 0c            10992 	.byte	12
00000a80 000502        10993 	.byte	0,5,2
00000a83 00000000*     10994 	.word	.LDWlin95
00000a87 0b            10995 	.byte	11
00000a88 000502        10996 	.byte	0,5,2
00000a8b 00000000*     10997 	.word	.LDWlin96
00000a8f 0c            10998 	.byte	12
00000a90 0b            10999 	.byte	11
00000a91 000502        11000 	.byte	0,5,2
00000a94 00000000*     11001 	.word	.LDWlin97
00000a98 0c            11002 	.byte	12
00000a99 13            11003 	.byte	19
00000a9a 02            11004 	.byte	2
00000a9b 00            11005 	.byte	0
00000a9c 0b            11006 	.byte	11
00000a9d 000502        11007 	.byte	0,5,2
00000aa0 00000000*     11008 	.word	.LDWlin98
00000aa4 0b            11009 	.byte	11
00000aa5 0b            11010 	.byte	11
00000aa6 000502        11011 	.byte	0,5,2
00000aa9 00000000*     11012 	.word	.LDWlin99
00000aad 0b            11013 	.byte	11
00000aae 000502        11014 	.byte	0,5,2
00000ab1 00000000*     11015 	.word	.LDWlin100
00000ab5 02            11016 	.byte	2
00000ab6 00            11017 	.byte	0
00000ab7 0b            11018 	.byte	11
00000ab8 13            11019 	.byte	19
00000ab9 13            11020 	.byte	19
00000aba 02            11021 	.byte	2
00000abb 00            11022 	.byte	0
00000abc 03            11023 	.byte	3
00000abd 7c            11024 	.byte	124
00000abe 02            11025 	.byte	2
00000abf 00            11026 	.byte	0
00000ac0 01            11027 	.byte	1
00000ac1 000502        11028 	.byte	0,5,2
00000ac4 00000000*     11029 	.word	.LDWlin101
00000ac8 03            11030 	.byte	3
00000ac9 05            11031 	.byte	5
00000aca 02            11032 	.byte	2
00000acb 00            11033 	.byte	0
00000acc 01            11034 	.byte	1
00000acd 0b            11035 	.byte	11
00000ace 0b            11036 	.byte	11
00000acf 0b            11037 	.byte	11
00000ad0 13            11038 	.byte	19

                                                                      Page 197
                                                              C:\Users\nhuliyap\AppData\Local\Temp\gh_00002rs1.s
00000ad1 02            11039 	.byte	2
00000ad2 00            11040 	.byte	0
00000ad3 0b            11041 	.byte	11
00000ad4 06            11042 	.byte	6
00000ad5 02            11043 	.byte	2
00000ad6 02            11044 	.byte	2
00000ad7 02            11045 	.byte	2
00000ad8 04            11046 	.byte	4
00000ad9 000101        11047 	.byte	0,1,1
                       11048 	.section	.debug_info
                       11049 .LDW_4dceda0:
00001ee9 0f            11050 	.byte	15
00001eea 75635a6f6d49  11051 	.strz	"ucZomID"
00001ef0 4400 
00001ef2 cd03          11052 	.byte	205,3
00001ef4 12            11053 	.byte	18
00001ef5 01            11054 	.byte	1
00001ef6 00000000*     11055 	.word	.LDW_4946da0
00001efa 00            11056 	.byte	0
00001efb 0156          11057 	.byte	1,86
                       11058 
                       11059 .LDW_4de01d0:
00001efd 1d            11060 	.byte	29
00001efe 00000000*     11061 	.word	.LDW67
00001f02 00000000*     11062 	.word	.LDW77
                       11063 
                       11064 .LDW_4dce980:
00001f06 04            11065 	.byte	4
00001f07 757368526574  11066 	.strz	"ushRet"
00001f0d 00 
00001f0e ce03          11067 	.byte	206,3
00001f10 13            11068 	.byte	19
00001f11 01            11069 	.byte	1
00001f12 00000000*     11070 	.word	.LDW_4946ac8
00001f16 00            11071 	.byte	0
00001f17 00            11072 	.byte	0
00001f18 016d          11073 	.byte	1,109
                       11074 
                       11075 .LDW_4dce9d8:
00001f1a 04            11076 	.byte	4
00001f1b 6900          11077 	.strz	"i"
00001f1d cf03          11078 	.byte	207,3
00001f1f 12            11079 	.byte	18
00001f20 01            11080 	.byte	1
00001f21 00000000*     11081 	.word	.LDW_4946da0
00001f25 00            11082 	.byte	0
00001f26 00            11083 	.byte	0
00001f27 0162          11084 	.byte	1,98
                       11085 
00001f29 00            11086 	.byte	0
                       11087 
00001f2a 00            11088 	.byte	0
                       11089 
                       11090 .LDW_4dccff0:
00001f2b 13            11091 	.byte	19
00001f2c 436865636b41  11092 	.strz	"CheckAndMarkNewIdER"
00001f32 6e644d61726b 
00001f38 4e6577496445 
00001f3e 5200 
00001f40 e903          11093 	.byte	233,3
00001f42 0d            11094 	.byte	13

                                                                      Page 198
                                                              C:\Users\nhuliyap\AppData\Local\Temp\gh_00002rs1.s
00001f43 01            11095 	.byte	1
00001f44 00000000*     11096 	.word	_CheckAndMarkNewIdER..C.3A.5C_ECU2.5CECU_Rivian_A1.5CTarget.5Crepo_projects.5CpRealEcu.5CcR_R2023.2E09.2E15.5Cmake.5Coutput.5Cobjects.5CWAlloc.
00001f48 00000000*     11097 	.word	___ghs_eofn_CheckAndMarkNewIdER
00001f4c 0153          11098 	.byte	1,83
00001f4e 828080f00b    11099 	.byte	130,128,128,240,11
00001f53 18            11100 	.byte	24
00001f54 03            11101 	.byte	3
00001f55 18            11102 	.byte	24
00001f56 00            11103 	.byte	0
00001f57 00            11104 	.byte	0
00001f58 00            11105 	.byte	0
00001f59 00            11106 	.byte	0
00001f5a 01            11107 	.byte	1
00001f5b 00            11108 	.byte	0
00001f5c 01            11109 	.byte	1
                       11110 
                       11111 	.section	.debug_frame
                       11112 .LDW_4fb7358:
00000378 00000000*     11113 	.word	.LDW_unq_3e-.LDW_unq_3d
                       11114 .LDW_unq_3d:
0000037c 00000000*     11115 	.word	.LDW_4da5d48
00000380 00000000*     11116 	.word	_CheckAndMarkNewIdER..C.3A.5C_ECU2.5CECU_Rivian_A1.5CTarget.5Crepo_projects.5CpRealEcu.5CcR_R2023.2E09.2E15.5Cmake.5Coutput.5Cobjects.5CWAlloc.
00000384 00000000*     11117 	.word	___ghs_eofn_CheckAndMarkNewIdER-_CheckAndMarkNewIdER..C.3A.5C_ECU2.5CECU_Rivian_A1.5CTarget.5Crepo_projects.5CpRealEcu.5CcR_R2023.2E09.2E15.5Cmake.5Coutput.5Cobjects.5CWAlloc.
00000388 44            11118 	.byte	68
00000389 9f            11119 	.byte	159
0000038a 00            11120 	.byte	0
0000038b 40            11121 	.byte	64
0000038c 9d            11122 	.byte	157
0000038d 04            11123 	.byte	4
0000038e 40            11124 	.byte	64
0000038f 9c            11125 	.byte	156
00000390 08            11126 	.byte	8
00000391 40            11127 	.byte	64
00000392 9b            11128 	.byte	155
00000393 0c            11129 	.byte	12
00000394 40            11130 	.byte	64
00000395 9a            11131 	.byte	154
00000396 10            11132 	.byte	16
00000397 40            11133 	.byte	64
00000398 99            11134 	.byte	153
00000399 14            11135 	.byte	20
0000039a 01            11136 	.byte	1
0000039b 00000000*     11137 	.word	.LDW17
0000039f 00            11138 	.byte	0
                       11139 .LDW_unq_3e:
                       11140 	.section	.debug_line
00000adc 000502        11141 	.byte	0,5,2
00000adf 00000000*     11142 	.word	_CheckAndMarkNewIdER..C.3A.5C_ECU2.5CECU_Rivian_A1.5CTarget.5Crepo_projects.5CpRealEcu.5CcR_R2023.2E09.2E15.5Cmake.5Coutput.5Cobjects.5CWAlloc.
00000ae3 03            11143 	.byte	3
00000ae4 e903          11144 	.byte	233,3
00000ae6 02            11145 	.byte	2
00000ae7 00            11146 	.byte	0
00000ae8 01            11147 	.byte	1
00000ae9 06            11148 	.byte	6
00000aea 2d            11149 	.byte	45
00000aeb 02            11150 	.byte	2
00000aec 02            11151 	.byte	2
00000aed 000502        11152 	.byte	0,5,2
00000af0 00000000*     11153 	.word	.LDWlin79
00000af4 0b            11154 	.byte	11
00000af5 000502        11155 	.byte	0,5,2

                                                                      Page 199
                                                              C:\Users\nhuliyap\AppData\Local\Temp\gh_00002rs1.s
00000af8 00000000*     11156 	.word	.LDWlin80
00000afc 0b            11157 	.byte	11
00000afd 0b            11158 	.byte	11
00000afe 000502        11159 	.byte	0,5,2
00000b01 00000000*     11160 	.word	.LDWlin81
00000b05 0b            11161 	.byte	11
00000b06 0b            11162 	.byte	11
00000b07 000502        11163 	.byte	0,5,2
00000b0a 00000000*     11164 	.word	.LDWlin82
00000b0e 0b            11165 	.byte	11
00000b0f 02            11166 	.byte	2
00000b10 00            11167 	.byte	0
00000b11 0d            11168 	.byte	13
00000b12 0b            11169 	.byte	11
00000b13 0c            11170 	.byte	12
00000b14 02            11171 	.byte	2
00000b15 00            11172 	.byte	0
00000b16 03            11173 	.byte	3
00000b17 74            11174 	.byte	116
00000b18 02            11175 	.byte	2
00000b19 00            11176 	.byte	0
00000b1a 01            11177 	.byte	1
00000b1b 000502        11178 	.byte	0,5,2
00000b1e 00000000*     11179 	.word	.LDWlin83
00000b22 03            11180 	.byte	3
00000b23 0d            11181 	.byte	13
00000b24 02            11182 	.byte	2
00000b25 00            11183 	.byte	0
00000b26 01            11184 	.byte	1
00000b27 0b            11185 	.byte	11
00000b28 02            11186 	.byte	2
00000b29 00            11187 	.byte	0
00000b2a 0b            11188 	.byte	11
00000b2b 000502        11189 	.byte	0,5,2
00000b2e 00000000*     11190 	.word	.LDWlin84
00000b32 02            11191 	.byte	2
00000b33 00            11192 	.byte	0
00000b34 0b            11193 	.byte	11
00000b35 0b            11194 	.byte	11
00000b36 3b            11195 	.byte	59
00000b37 000502        11196 	.byte	0,5,2
00000b3a 00000000*     11197 	.word	.LDWlin85
00000b3e 0c            11198 	.byte	12
00000b3f 02            11199 	.byte	2
00000b40 00            11200 	.byte	0
00000b41 0b            11201 	.byte	11
00000b42 02            11202 	.byte	2
00000b43 00            11203 	.byte	0
00000b44 0b            11204 	.byte	11
00000b45 000502        11205 	.byte	0,5,2
00000b48 00000000*     11206 	.word	.LDWlin86
00000b4c 02            11207 	.byte	2
00000b4d 00            11208 	.byte	0
00000b4e 0b            11209 	.byte	11
00000b4f 1b            11210 	.byte	27
00000b50 000502        11211 	.byte	0,5,2
00000b53 00000000*     11212 	.word	.LDWlin87
00000b57 0b            11213 	.byte	11
00000b58 0b            11214 	.byte	11
00000b59 23            11215 	.byte	35
00000b5a 02            11216 	.byte	2

                                                                      Page 200
                                                              C:\Users\nhuliyap\AppData\Local\Temp\gh_00002rs1.s
00000b5b 00            11217 	.byte	0
00000b5c 0b            11218 	.byte	11
00000b5d 02            11219 	.byte	2
00000b5e 00            11220 	.byte	0
00000b5f 0b            11221 	.byte	11
00000b60 06            11222 	.byte	6
00000b61 000502        11223 	.byte	0,5,2
00000b64 00000000*     11224 	.word	.LDWlin88
00000b68 03            11225 	.byte	3
00000b69 76            11226 	.byte	118
00000b6a 02            11227 	.byte	2
00000b6b 00            11228 	.byte	0
00000b6c 01            11229 	.byte	1
00000b6d 06            11230 	.byte	6
00000b6e 03            11231 	.byte	3
00000b6f 0b            11232 	.byte	11
00000b70 02            11233 	.byte	2
00000b71 00            11234 	.byte	0
00000b72 01            11235 	.byte	1
00000b73 0b            11236 	.byte	11
00000b74 1b            11237 	.byte	27
00000b75 02            11238 	.byte	2
00000b76 00            11239 	.byte	0
00000b77 0b            11240 	.byte	11
00000b78 02            11241 	.byte	2
00000b79 00            11242 	.byte	0
00000b7a 03            11243 	.byte	3
00000b7b 6f            11244 	.byte	111
00000b7c 02            11245 	.byte	2
00000b7d 00            11246 	.byte	0
00000b7e 01            11247 	.byte	1
00000b7f 000502        11248 	.byte	0,5,2
00000b82 00000000*     11249 	.word	.LDWlin89
00000b86 03            11250 	.byte	3
00000b87 12            11251 	.byte	18
00000b88 02            11252 	.byte	2
00000b89 00            11253 	.byte	0
00000b8a 01            11254 	.byte	1
00000b8b 0b            11255 	.byte	11
00000b8c 02            11256 	.byte	2
00000b8d 00            11257 	.byte	0
00000b8e 0b            11258 	.byte	11
00000b8f 02            11259 	.byte	2
00000b90 00            11260 	.byte	0
00000b91 0b            11261 	.byte	11
00000b92 02            11262 	.byte	2
00000b93 04            11263 	.byte	4
00000b94 000101        11264 	.byte	0,1,1
                       11265 	.section	.debug_info
                       11266 .LDW_4dcef58:
00001f5d 0f            11267 	.byte	15
00001f5e 7563497800    11268 	.strz	"ucIx"
00001f63 ea03          11269 	.byte	234,3
00001f65 12            11270 	.byte	18
00001f66 01            11271 	.byte	1
00001f67 00000000*     11272 	.word	.LDW_4946da0
00001f6b 00            11273 	.byte	0
00001f6c 016a          11274 	.byte	1,106
                       11275 
                       11276 .LDW_4de0050:
00001f6e 1d            11277 	.byte	29

                                                                      Page 201
                                                              C:\Users\nhuliyap\AppData\Local\Temp\gh_00002rs1.s
00001f6f 00000000*     11278 	.word	.LDW07
00001f73 00000000*     11279 	.word	.LDW17
                       11280 
                       11281 .LDW_4dceea8:
00001f77 04            11282 	.byte	4
00001f78 6900          11283 	.strz	"i"
00001f7a eb03          11284 	.byte	235,3
00001f7c 12            11285 	.byte	18
00001f7d 01            11286 	.byte	1
00001f7e 00000000*     11287 	.word	.LDW_4946da0
00001f82 00            11288 	.byte	0
00001f83 00            11289 	.byte	0
00001f84 016c          11290 	.byte	1,108
                       11291 
                       11292 .LDW_4dcea30:
00001f86 05            11293 	.byte	5
00001f87 756352657400  11294 	.strz	"ucRet"
00001f8d eb03          11295 	.byte	235,3
00001f8f 15            11296 	.byte	21
00001f90 01            11297 	.byte	1
00001f91 00000000*     11298 	.word	.LDW_4946da0
00001f95 00            11299 	.byte	0
00001f96 00            11300 	.byte	0
                       11301 
                       11302 	.section	.debug_abbrev
00000177 05            11303 	.byte	5
00000178 34            11304 	.byte	52
00000179 00            11305 	.byte	0
0000017a 0308          11306 	.byte	3,8
0000017c 3b0f          11307 	.byte	59,15
0000017e 390f          11308 	.byte	57,15
00000180 3a0f          11309 	.byte	58,15
00000182 4910          11310 	.byte	73,16
00000184 3f0c          11311 	.byte	63,12
00000186 3c0c          11312 	.byte	60,12
00000188 0000          11313 	.byte	0,0
                       11314 
                       11315 	.section	.debug_info
                       11316 .LDW_4dcecf0:
00001f97 05            11317 	.byte	5
00001f98 624869737449  11318 	.strz	"bHistID"
00001f9e 4400 
00001fa0 ec03          11319 	.byte	236,3
00001fa2 0c            11320 	.byte	12
00001fa3 01            11321 	.byte	1
00001fa4 00000000*     11322 	.word	.LDW_4dccb18
00001fa8 00            11323 	.byte	0
00001fa9 00            11324 	.byte	0
                       11325 
00001faa 00            11326 	.byte	0
                       11327 
00001fab 00            11328 	.byte	0
                       11329 
                       11330 .LDW_4dcd678:
00001fac 14            11331 	.byte	20
00001fad 75736853756d  11332 	.strz	"ushSumPotenAndERWheels"
00001fb3 506f74656e41 
00001fb9 6e6445525768 
00001fbf 65656c7300 
00001fc4 9404          11333 	.byte	148,4
00001fc6 17            11334 	.byte	23

                                                                      Page 202
                                                              C:\Users\nhuliyap\AppData\Local\Temp\gh_00002rs1.s
00001fc7 01            11335 	.byte	1
00001fc8 00000000*     11336 	.word	.LDW_4946ac8
00001fcc 00000000*     11337 	.word	_ushSumPotenAndERWheels..C.3A.5C_ECU2.5CECU_Rivian_A1.5CTarget.5Crepo_projects.5CpRealEcu.5CcR_R2023.2E09.2E15.5Cmake.5Coutput.5Cobjects.5CWAlloc.
00001fd0 00000000*     11338 	.word	___ghs_eofn_ushSumPotenAndERWheels
00001fd4 0153          11339 	.byte	1,83
00001fd6 828080800b    11340 	.byte	130,128,128,128,11
00001fdb 0c            11341 	.byte	12
00001fdc 03            11342 	.byte	3
00001fdd 0c            11343 	.byte	12
00001fde 00            11344 	.byte	0
00001fdf 00            11345 	.byte	0
00001fe0 00            11346 	.byte	0
00001fe1 00            11347 	.byte	0
00001fe2 01            11348 	.byte	1
00001fe3 00            11349 	.byte	0
00001fe4 01            11350 	.byte	1
                       11351 
                       11352 	.section	.debug_frame
                       11353 .LDW_4fb7718:
000003a0 00000000*     11354 	.word	.LDW_unq_40-.LDW_unq_3f
                       11355 .LDW_unq_3f:
000003a4 00000000*     11356 	.word	.LDW_4da5d48
000003a8 00000000*     11357 	.word	_ushSumPotenAndERWheels..C.3A.5C_ECU2.5CECU_Rivian_A1.5CTarget.5Crepo_projects.5CpRealEcu.5CcR_R2023.2E09.2E15.5Cmake.5Coutput.5Cobjects.5CWAlloc.
000003ac 00000000*     11358 	.word	___ghs_eofn_ushSumPotenAndERWheels-_ushSumPotenAndERWheels..C.3A.5C_ECU2.5CECU_Rivian_A1.5CTarget.5Crepo_projects.5CpRealEcu.5CcR_R2023.2E09.2E15.5Cmake.5Coutput.5Cobjects.5CWAlloc.
000003b0 44            11359 	.byte	68
000003b1 9f            11360 	.byte	159
000003b2 00            11361 	.byte	0
000003b3 40            11362 	.byte	64
000003b4 9d            11363 	.byte	157
000003b5 04            11364 	.byte	4
000003b6 40            11365 	.byte	64
000003b7 9c            11366 	.byte	156
000003b8 08            11367 	.byte	8
000003b9 01            11368 	.byte	1
000003ba 00000000*     11369 	.word	.LDW37
000003be 00            11370 	.byte	0
000003bf 00            11371 	.byte	0
                       11372 .LDW_unq_40:
                       11373 	.section	.debug_line
00000b97 000502        11374 	.byte	0,5,2
00000b9a 00000000*     11375 	.word	_ushSumPotenAndERWheels..C.3A.5C_ECU2.5CECU_Rivian_A1.5CTarget.5Crepo_projects.5CpRealEcu.5CcR_R2023.2E09.2E15.5Cmake.5Coutput.5Cobjects.5CWAlloc.
00000b9e 03            11376 	.byte	3
00000b9f 9404          11377 	.byte	148,4
00000ba1 02            11378 	.byte	2
00000ba2 00            11379 	.byte	0
00000ba3 01            11380 	.byte	1
00000ba4 06            11381 	.byte	6
00000ba5 1c            11382 	.byte	28
00000ba6 13            11383 	.byte	19
00000ba7 02            11384 	.byte	2
00000ba8 02            11385 	.byte	2
00000ba9 0b            11386 	.byte	11
00000baa 000502        11387 	.byte	0,5,2
00000bad 00000000*     11388 	.word	.LDWlin90
00000bb1 0c            11389 	.byte	12
00000bb2 0b            11390 	.byte	11
00000bb3 2b            11391 	.byte	43
00000bb4 02            11392 	.byte	2
00000bb5 00            11393 	.byte	0
00000bb6 03            11394 	.byte	3
00000bb7 7b            11395 	.byte	123

                                                                      Page 203
                                                              C:\Users\nhuliyap\AppData\Local\Temp\gh_00002rs1.s
00000bb8 02            11396 	.byte	2
00000bb9 00            11397 	.byte	0
00000bba 01            11398 	.byte	1
00000bbb 000502        11399 	.byte	0,5,2
00000bbe 00000000*     11400 	.word	.LDWlin91
00000bc2 03            11401 	.byte	3
00000bc3 06            11402 	.byte	6
00000bc4 02            11403 	.byte	2
00000bc5 00            11404 	.byte	0
00000bc6 01            11405 	.byte	1
00000bc7 0b            11406 	.byte	11
00000bc8 06            11407 	.byte	6
00000bc9 02            11408 	.byte	2
00000bca 02            11409 	.byte	2
00000bcb 02            11410 	.byte	2
00000bcc 04            11411 	.byte	4
00000bcd 000101        11412 	.byte	0,1,1
                       11413 	.section	.debug_info
                       11414 .LDW_4de0260:
00001fe5 1d            11415 	.byte	29
00001fe6 00000000*     11416 	.word	.LDW27
00001fea 00000000*     11417 	.word	.LDW37
                       11418 
                       11419 .LDW_4dcefb0:
00001fee 04            11420 	.byte	4
00001fef 6900          11421 	.strz	"i"
00001ff1 9604          11422 	.byte	150,4
00001ff3 12            11423 	.byte	18
00001ff4 01            11424 	.byte	1
00001ff5 00000000*     11425 	.word	.LDW_4946da0
00001ff9 00            11426 	.byte	0
00001ffa 00            11427 	.byte	0
00001ffb 016d          11428 	.byte	1,109
                       11429 
                       11430 .LDW_4dcf218:
00001ffd 04            11431 	.byte	4
00001ffe 757368526574  11432 	.strz	"ushRet"
00002004 00 
00002005 9704          11433 	.byte	151,4
00002007 13            11434 	.byte	19
00002008 01            11435 	.byte	1
00002009 00000000*     11436 	.word	.LDW_4946ac8
0000200d 00            11437 	.byte	0
0000200e 00            11438 	.byte	0
0000200f 016c          11439 	.byte	1,108
                       11440 
00002011 00            11441 	.byte	0
                       11442 
00002012 00            11443 	.byte	0
                       11444 
                       11445 .LDW_4dcde30:
00002013 14            11446 	.byte	20
00002014 756343686563  11447 	.strz	"ucCheckWheelPos"
0000201a 6b576865656c 
00002020 506f7300 
00002024 a204          11448 	.byte	162,4
00002026 16            11449 	.byte	22
00002027 01            11450 	.byte	1
00002028 00000000*     11451 	.word	.LDW_4946da0
0000202c 00000000*     11452 	.word	_ucCheckWheelPos..C.3A.5C_ECU2.5CECU_Rivian_A1.5CTarget.5Crepo_projects.5CpRealEcu.5CcR_R2023.2E09.2E15.5Cmake.5Coutput.5Cobjects.5CWAlloc.
00002030 00000000*     11453 	.word	___ghs_eofn_ucCheckWheelPos

                                                                      Page 204
                                                              C:\Users\nhuliyap\AppData\Local\Temp\gh_00002rs1.s
00002034 0153          11454 	.byte	1,83
00002036 8280808008    11455 	.byte	130,128,128,128,8
0000203b 04            11456 	.byte	4
0000203c 03            11457 	.byte	3
0000203d 04            11458 	.byte	4
0000203e 00            11459 	.byte	0
0000203f 00            11460 	.byte	0
00002040 00            11461 	.byte	0
00002041 00            11462 	.byte	0
00002042 01            11463 	.byte	1
00002043 00            11464 	.byte	0
00002044 01            11465 	.byte	1
                       11466 
                       11467 	.section	.debug_frame
                       11468 .LDW_4fb7818:
000003c0 00000000*     11469 	.word	.LDW_unq_42-.LDW_unq_41
                       11470 .LDW_unq_41:
000003c4 00000000*     11471 	.word	.LDW_4da5d48
000003c8 00000000*     11472 	.word	_ucCheckWheelPos..C.3A.5C_ECU2.5CECU_Rivian_A1.5CTarget.5Crepo_projects.5CpRealEcu.5CcR_R2023.2E09.2E15.5Cmake.5Coutput.5Cobjects.5CWAlloc.
000003cc 00000000*     11473 	.word	___ghs_eofn_ucCheckWheelPos-_ucCheckWheelPos..C.3A.5C_ECU2.5CECU_Rivian_A1.5CTarget.5Crepo_projects.5CpRealEcu.5CcR_R2023.2E09.2E15.5Cmake.5Coutput.5Cobjects.5CWAlloc.
000003d0 44            11474 	.byte	68
000003d1 9f            11475 	.byte	159
000003d2 00            11476 	.byte	0
000003d3 01            11477 	.byte	1
000003d4 00000000*     11478 	.word	.LDW97
                       11479 .LDW_unq_42:
                       11480 	.section	.debug_line
00000bd0 000502        11481 	.byte	0,5,2
00000bd3 00000000*     11482 	.word	_ucCheckWheelPos..C.3A.5C_ECU2.5CECU_Rivian_A1.5CTarget.5Crepo_projects.5CpRealEcu.5CcR_R2023.2E09.2E15.5Cmake.5Coutput.5Cobjects.5CWAlloc.
00000bd7 03            11483 	.byte	3
00000bd8 a204          11484 	.byte	162,4
00000bda 02            11485 	.byte	2
00000bdb 00            11486 	.byte	0
00000bdc 01            11487 	.byte	1
00000bdd 06            11488 	.byte	6
00000bde 1c            11489 	.byte	28
00000bdf 000502        11490 	.byte	0,5,2
00000be2 00000000*     11491 	.word	.LDWlin102
00000be6 0b            11492 	.byte	11
00000be7 000502        11493 	.byte	0,5,2
00000bea 00000000*     11494 	.word	.LDWlin103
00000bee 02            11495 	.byte	2
00000bef 00            11496 	.byte	0
00000bf0 0b            11497 	.byte	11
00000bf1 000502        11498 	.byte	0,5,2
00000bf4 00000000*     11499 	.word	.LDWlin104
00000bf8 0b            11500 	.byte	11
00000bf9 02            11501 	.byte	2
00000bfa 00            11502 	.byte	0
00000bfb 0b            11503 	.byte	11
00000bfc 02            11504 	.byte	2
00000bfd 04            11505 	.byte	4
00000bfe 000101        11506 	.byte	0,1,1
                       11507 	.section	.debug_info
                       11508 .LDW_4ddfff0:
00002045 1d            11509 	.byte	29
00002046 00000000*     11510 	.word	.LDW87
0000204a 00000000*     11511 	.word	.LDW97
                       11512 
                       11513 .LDW_4dceb38:
0000204e 04            11514 	.byte	4

                                                                      Page 205
                                                              C:\Users\nhuliyap\AppData\Local\Temp\gh_00002rs1.s
0000204f 757368526574  11515 	.strz	"ushRet"
00002055 00 
00002056 a404          11516 	.byte	164,4
00002058 13            11517 	.byte	19
00002059 01            11518 	.byte	1
0000205a 00000000*     11519 	.word	.LDW_4946ac8
0000205e 00            11520 	.byte	0
0000205f 00            11521 	.byte	0
00002060 016d          11522 	.byte	1,109
                       11523 
00002062 00            11524 	.byte	0
                       11525 
00002063 00            11526 	.byte	0
                       11527 
                       11528 .LDW_4dcd380:
00002064 14            11529 	.byte	20
00002065 75634e724f66  11530 	.strz	"ucNrOfBitSet"
0000206b 426974536574 
00002071 00 
00002072 ac04          11531 	.byte	172,4
00002074 16            11532 	.byte	22
00002075 01            11533 	.byte	1
00002076 00000000*     11534 	.word	.LDW_4946da0
0000207a 00000000*     11535 	.word	_ucNrOfBitSet..C.3A.5C_ECU2.5CECU_Rivian_A1.5CTarget.5Crepo_projects.5CpRealEcu.5CcR_R2023.2E09.2E15.5Cmake.5Coutput.5Cobjects.5CWAlloc.
0000207e 00000000*     11536 	.word	___ghs_eofn_ucNrOfBitSet
00002082 0153          11537 	.byte	1,83
00002084 02            11538 	.byte	2
00002085 00            11539 	.byte	0
00002086 02            11540 	.byte	2
00002087 00            11541 	.byte	0
00002088 00            11542 	.byte	0
00002089 00            11543 	.byte	0
0000208a 00            11544 	.byte	0
0000208b 00            11545 	.byte	0
0000208c 01            11546 	.byte	1
0000208d 00            11547 	.byte	0
0000208e 01            11548 	.byte	1
                       11549 
                       11550 	.section	.debug_frame
                       11551 .LDW_4fb75d8:
000003d8 00000000*     11552 	.word	.LDW_unq_44-.LDW_unq_43
                       11553 .LDW_unq_43:
000003dc 00000000*     11554 	.word	.LDW_4da5d48
000003e0 00000000*     11555 	.word	_ucNrOfBitSet..C.3A.5C_ECU2.5CECU_Rivian_A1.5CTarget.5Crepo_projects.5CpRealEcu.5CcR_R2023.2E09.2E15.5Cmake.5Coutput.5Cobjects.5CWAlloc.
000003e4 00000000*     11556 	.word	___ghs_eofn_ucNrOfBitSet-_ucNrOfBitSet..C.3A.5C_ECU2.5CECU_Rivian_A1.5CTarget.5Crepo_projects.5CpRealEcu.5CcR_R2023.2E09.2E15.5Cmake.5Coutput.5Cobjects.5CWAlloc.
000003e8 01            11557 	.byte	1
000003e9 00000000*     11558 	.word	.LDW57
000003ed 00            11559 	.byte	0
000003ee 00            11560 	.byte	0
000003ef 00            11561 	.byte	0
                       11562 .LDW_unq_44:
                       11563 	.section	.debug_line
00000c01 000502        11564 	.byte	0,5,2
00000c04 00000000*     11565 	.word	_ucNrOfBitSet..C.3A.5C_ECU2.5CECU_Rivian_A1.5CTarget.5Crepo_projects.5CpRealEcu.5CcR_R2023.2E09.2E15.5Cmake.5Coutput.5Cobjects.5CWAlloc.
00000c08 03            11566 	.byte	3
00000c09 ac04          11567 	.byte	172,4
00000c0b 02            11568 	.byte	2
00000c0c 00            11569 	.byte	0
00000c0d 01            11570 	.byte	1
00000c0e 06            11571 	.byte	6
00000c0f 13            11572 	.byte	19

                                                                      Page 206
                                                              C:\Users\nhuliyap\AppData\Local\Temp\gh_00002rs1.s
00000c10 13            11573 	.byte	19
00000c11 02            11574 	.byte	2
00000c12 02            11575 	.byte	2
00000c13 0b            11576 	.byte	11
00000c14 000502        11577 	.byte	0,5,2
00000c17 00000000*     11578 	.word	.LDWlin92
00000c1b 02            11579 	.byte	2
00000c1c 00            11580 	.byte	0
00000c1d 0b            11581 	.byte	11
00000c1e 1b            11582 	.byte	27
00000c1f 02            11583 	.byte	2
00000c20 00            11584 	.byte	0
00000c21 03            11585 	.byte	3
00000c22 7d            11586 	.byte	125
00000c23 02            11587 	.byte	2
00000c24 00            11588 	.byte	0
00000c25 01            11589 	.byte	1
00000c26 000502        11590 	.byte	0,5,2
00000c29 00000000*     11591 	.word	.LDWlin93
00000c2d 03            11592 	.byte	3
00000c2e 04            11593 	.byte	4
00000c2f 02            11594 	.byte	2
00000c30 00            11595 	.byte	0
00000c31 01            11596 	.byte	1
00000c32 0b            11597 	.byte	11
00000c33 02            11598 	.byte	2
00000c34 02            11599 	.byte	2
00000c35 000101        11600 	.byte	0,1,1
                       11601 	.section	.debug_info
                       11602 .LDW_4dceb90:
0000208f 0f            11603 	.byte	15
00002090 757368546172  11604 	.strz	"ushTarget"
00002096 67657400 
0000209a ad04          11605 	.byte	173,4
0000209c 13            11606 	.byte	19
0000209d 01            11607 	.byte	1
0000209e 00000000*     11608 	.word	.LDW_4946ac8
000020a2 00            11609 	.byte	0
000020a3 0156          11610 	.byte	1,86
                       11611 
                       11612 .LDW_4ddff60:
000020a5 1d            11613 	.byte	29
000020a6 00000000*     11614 	.word	.LDW47
000020aa 00000000*     11615 	.word	.LDW57
                       11616 
                       11617 .LDW_4dcebe8:
000020ae 04            11618 	.byte	4
000020af 6900          11619 	.strz	"i"
000020b1 ae04          11620 	.byte	174,4
000020b3 12            11621 	.byte	18
000020b4 01            11622 	.byte	1
000020b5 00000000*     11623 	.word	.LDW_4946da0
000020b9 00            11624 	.byte	0
000020ba 00            11625 	.byte	0
000020bb 0162          11626 	.byte	1,98
                       11627 
                       11628 .LDW_4dce770:
000020bd 04            11629 	.byte	4
000020be 756348697473  11630 	.strz	"ucHits"
000020c4 00 
000020c5 ae04          11631 	.byte	174,4

                                                                      Page 207
                                                              C:\Users\nhuliyap\AppData\Local\Temp\gh_00002rs1.s
000020c7 15            11632 	.byte	21
000020c8 01            11633 	.byte	1
000020c9 00000000*     11634 	.word	.LDW_4946da0
000020cd 00            11635 	.byte	0
000020ce 00            11636 	.byte	0
000020cf 015a          11637 	.byte	1,90
                       11638 
000020d1 00            11639 	.byte	0
                       11640 
000020d2 00            11641 	.byte	0
                       11642 
                       11643 .LDW_4dcd7a8:
000020d3 14            11644 	.byte	20
000020d4 757368494453  11645 	.strz	"ushIDSetInHist"
000020da 6574496e4869 
000020e0 737400 
000020e3 b704          11646 	.byte	183,4
000020e5 17            11647 	.byte	23
000020e6 01            11648 	.byte	1
000020e7 00000000*     11649 	.word	.LDW_4946ac8
000020eb 00000000*     11650 	.word	_ushIDSetInHist..C.3A.5C_ECU2.5CECU_Rivian_A1.5CTarget.5Crepo_projects.5CpRealEcu.5CcR_R2023.2E09.2E15.5Cmake.5Coutput.5Cobjects.5CWAlloc.
000020ef 00000000*     11651 	.word	___ghs_eofn_ushIDSetInHist
000020f3 0153          11652 	.byte	1,83
000020f5 828080fe0b    11653 	.byte	130,128,128,254,11
000020fa 24            11654 	.byte	36
000020fb 03            11655 	.byte	3
000020fc 24            11656 	.byte	36
000020fd 00            11657 	.byte	0
000020fe 00            11658 	.byte	0
000020ff 00            11659 	.byte	0
00002100 00            11660 	.byte	0
00002101 01            11661 	.byte	1
00002102 00            11662 	.byte	0
00002103 01            11663 	.byte	1
                       11664 
                       11665 	.section	.debug_frame
                       11666 .LDW_4fb7698:
000003f0 00000000*     11667 	.word	.LDW_unq_46-.LDW_unq_45
                       11668 .LDW_unq_45:
000003f4 00000000*     11669 	.word	.LDW_4da5d48
000003f8 00000000*     11670 	.word	_ushIDSetInHist..C.3A.5C_ECU2.5CECU_Rivian_A1.5CTarget.5Crepo_projects.5CpRealEcu.5CcR_R2023.2E09.2E15.5Cmake.5Coutput.5Cobjects.5CWAlloc.
000003fc 00000000*     11671 	.word	___ghs_eofn_ushIDSetInHist-_ushIDSetInHist..C.3A.5C_ECU2.5CECU_Rivian_A1.5CTarget.5Crepo_projects.5CpRealEcu.5CcR_R2023.2E09.2E15.5Cmake.5Coutput.5Cobjects.5CWAlloc.
00000400 44            11672 	.byte	68
00000401 9f            11673 	.byte	159
00000402 00            11674 	.byte	0
00000403 40            11675 	.byte	64
00000404 9d            11676 	.byte	157
00000405 04            11677 	.byte	4
00000406 40            11678 	.byte	64
00000407 9c            11679 	.byte	156
00000408 08            11680 	.byte	8
00000409 40            11681 	.byte	64
0000040a 9b            11682 	.byte	155
0000040b 0c            11683 	.byte	12
0000040c 40            11684 	.byte	64
0000040d 9a            11685 	.byte	154
0000040e 10            11686 	.byte	16
0000040f 40            11687 	.byte	64
00000410 99            11688 	.byte	153
00000411 14            11689 	.byte	20
00000412 40            11690 	.byte	64

                                                                      Page 208
                                                              C:\Users\nhuliyap\AppData\Local\Temp\gh_00002rs1.s
00000413 98            11691 	.byte	152
00000414 18            11692 	.byte	24
00000415 40            11693 	.byte	64
00000416 97            11694 	.byte	151
00000417 1c            11695 	.byte	28
00000418 40            11696 	.byte	64
00000419 96            11697 	.byte	150
0000041a 20            11698 	.byte	32
0000041b 01            11699 	.byte	1
0000041c 00000000*     11700 	.word	.LDW18
                       11701 .LDW_unq_46:
                       11702 	.section	.debug_line
00000c38 000502        11703 	.byte	0,5,2
00000c3b 00000000*     11704 	.word	_ushIDSetInHist..C.3A.5C_ECU2.5CECU_Rivian_A1.5CTarget.5Crepo_projects.5CpRealEcu.5CcR_R2023.2E09.2E15.5Cmake.5Coutput.5Cobjects.5CWAlloc.
00000c3f 03            11705 	.byte	3
00000c40 b904          11706 	.byte	185,4
00000c42 02            11707 	.byte	2
00000c43 00            11708 	.byte	0
00000c44 01            11709 	.byte	1
00000c45 06            11710 	.byte	6
00000c46 44            11711 	.byte	68
00000c47 13            11712 	.byte	19
00000c48 02            11713 	.byte	2
00000c49 02            11714 	.byte	2
00000c4a 0b            11715 	.byte	11
00000c4b 02            11716 	.byte	2
00000c4c 08            11717 	.byte	8
00000c4d 0d            11718 	.byte	13
00000c4e 0b            11719 	.byte	11
00000c4f 0b            11720 	.byte	11
00000c50 02            11721 	.byte	2
00000c51 04            11722 	.byte	4
00000c52 000502        11723 	.byte	0,5,2
00000c55 00000000*     11724 	.word	.LDWlin105
00000c59 0b            11725 	.byte	11
00000c5a 000502        11726 	.byte	0,5,2
00000c5d 00000000*     11727 	.word	.LDWlin106
00000c61 0c            11728 	.byte	12
00000c62 0b            11729 	.byte	11
00000c63 33            11730 	.byte	51
00000c64 000502        11731 	.byte	0,5,2
00000c67 00000000*     11732 	.word	.LDWlin107
00000c6b 0b            11733 	.byte	11
00000c6c 0b            11734 	.byte	11
00000c6d 0b            11735 	.byte	11
00000c6e 000502        11736 	.byte	0,5,2
00000c71 00000000*     11737 	.word	.LDWlin108
00000c75 0b            11738 	.byte	11
00000c76 0c            11739 	.byte	12
00000c77 02            11740 	.byte	2
00000c78 00            11741 	.byte	0
00000c79 0b            11742 	.byte	11
00000c7a 02            11743 	.byte	2
00000c7b 00            11744 	.byte	0
00000c7c 03            11745 	.byte	3
00000c7d 74            11746 	.byte	116
00000c7e 02            11747 	.byte	2
00000c7f 00            11748 	.byte	0
00000c80 01            11749 	.byte	1
00000c81 000502        11750 	.byte	0,5,2
00000c84 00000000*     11751 	.word	.LDWlin109

                                                                      Page 209
                                                              C:\Users\nhuliyap\AppData\Local\Temp\gh_00002rs1.s
00000c88 03            11752 	.byte	3
00000c89 0d            11753 	.byte	13
00000c8a 02            11754 	.byte	2
00000c8b 00            11755 	.byte	0
00000c8c 01            11756 	.byte	1
00000c8d 0b            11757 	.byte	11
00000c8e 02            11758 	.byte	2
00000c8f 00            11759 	.byte	0
00000c90 03            11760 	.byte	3
00000c91 6c            11761 	.byte	108
00000c92 02            11762 	.byte	2
00000c93 00            11763 	.byte	0
00000c94 01            11764 	.byte	1
00000c95 000502        11765 	.byte	0,5,2
00000c98 00000000*     11766 	.word	.LDWlin110
00000c9c 03            11767 	.byte	3
00000c9d 15            11768 	.byte	21
00000c9e 02            11769 	.byte	2
00000c9f 00            11770 	.byte	0
00000ca0 01            11771 	.byte	1
00000ca1 0b            11772 	.byte	11
00000ca2 06            11773 	.byte	6
00000ca3 02            11774 	.byte	2
00000ca4 02            11775 	.byte	2
00000ca5 02            11776 	.byte	2
00000ca6 04            11777 	.byte	4
00000ca7 000101        11778 	.byte	0,1,1
                       11779 	.section	.debug_info
                       11780 .LDW_4dcf060:
00002104 0f            11781 	.byte	15
00002105 707448697374  11782 	.strz	"ptHistSet"
0000210b 53657400 
0000210f b804          11783 	.byte	184,4
00002111 13            11784 	.byte	19
00002112 01            11785 	.byte	1
00002113 00000000*     11786 	.word	.LDW_4946e80
00002117 00            11787 	.byte	0
00002118 0168          11788 	.byte	1,104
                       11789 
                       11790 .LDW_4dcf0b8:
0000211a 0f            11791 	.byte	15
0000211b 75634d696e50  11792 	.strz	"ucMinProbeCt"
00002121 726f62654374 
00002127 00 
00002128 b904          11793 	.byte	185,4
0000212a 12            11794 	.byte	18
0000212b 01            11795 	.byte	1
0000212c 00000000*     11796 	.word	.LDW_4946da0
00002130 00            11797 	.byte	0
00002131 0167          11798 	.byte	1,103
                       11799 
                       11800 .LDW_4dcec40:
00002133 0f            11801 	.byte	15
00002134 7563536c6f74  11802 	.strz	"ucSlots2Search"
0000213a 733253656172 
00002140 636800 
00002143 ba04          11803 	.byte	186,4
00002145 12            11804 	.byte	18
00002146 01            11805 	.byte	1
00002147 00000000*     11806 	.word	.LDW_4946da0
0000214b 00            11807 	.byte	0

                                                                      Page 210
                                                              C:\Users\nhuliyap\AppData\Local\Temp\gh_00002rs1.s
0000214c 0166          11808 	.byte	1,102
                       11809 
                       11810 .LDW_4de0320:
0000214e 1d            11811 	.byte	29
0000214f 00000000*     11812 	.word	.LDW08
00002153 00000000*     11813 	.word	.LDW18
                       11814 
                       11815 .LDW_4dcf110:
00002157 04            11816 	.byte	4
00002158 6900          11817 	.strz	"i"
0000215a bb04          11818 	.byte	187,4
0000215c 12            11819 	.byte	18
0000215d 01            11820 	.byte	1
0000215e 00000000*     11821 	.word	.LDW_4946da0
00002162 00            11822 	.byte	0
00002163 00            11823 	.byte	0
00002164 016b          11824 	.byte	1,107
                       11825 
                       11826 .LDW_4dcf1c0:
00002166 04            11827 	.byte	4
00002167 6a00          11828 	.strz	"j"
00002169 bb04          11829 	.byte	187,4
0000216b 15            11830 	.byte	21
0000216c 01            11831 	.byte	1
0000216d 00000000*     11832 	.word	.LDW_4946da0
00002171 00            11833 	.byte	0
00002172 00            11834 	.byte	0
00002173 016d          11835 	.byte	1,109
                       11836 
                       11837 .LDW_4dce820:
00002175 04            11838 	.byte	4
00002176 757368526574  11839 	.strz	"ushRet"
0000217c 00 
0000217d bc04          11840 	.byte	188,4
0000217f 13            11841 	.byte	19
00002180 01            11842 	.byte	1
00002181 00000000*     11843 	.word	.LDW_4946ac8
00002185 00            11844 	.byte	0
00002186 00            11845 	.byte	0
00002187 016c          11846 	.byte	1,108
                       11847 
00002189 00            11848 	.byte	0
                       11849 
0000218a 00            11850 	.byte	0
                       11851 
                       11852 .LDW_4dcdbd0:
0000218b 13            11853 	.byte	19
0000218c 536166654461  11854 	.strz	"SafeData"
00002192 746100 
00002195 d604          11855 	.byte	214,4
00002197 0d            11856 	.byte	13
00002198 01            11857 	.byte	1
00002199 00000000*     11858 	.word	_SafeData..C.3A.5C_ECU2.5CECU_Rivian_A1.5CTarget.5Crepo_projects.5CpRealEcu.5CcR_R2023.2E09.2E15.5Cmake.5Coutput.5Cobjects.5CWAlloc.
0000219d 00000000*     11859 	.word	___ghs_eofn_SafeData
000021a1 0153          11860 	.byte	1,83
000021a3 02            11861 	.byte	2
000021a4 00            11862 	.byte	0
000021a5 02            11863 	.byte	2
000021a6 00            11864 	.byte	0
000021a7 00            11865 	.byte	0
000021a8 00            11866 	.byte	0

                                                                      Page 211
                                                              C:\Users\nhuliyap\AppData\Local\Temp\gh_00002rs1.s
000021a9 00            11867 	.byte	0
000021aa 00            11868 	.byte	0
000021ab 01            11869 	.byte	1
000021ac 00            11870 	.byte	0
000021ad 01            11871 	.byte	1
                       11872 
                       11873 	.section	.debug_frame
                       11874 .LDW_4fb7498:
00000420 00000000*     11875 	.word	.LDW_unq_48-.LDW_unq_47
                       11876 .LDW_unq_47:
00000424 00000000*     11877 	.word	.LDW_4da5d48
00000428 00000000*     11878 	.word	_SafeData..C.3A.5C_ECU2.5CECU_Rivian_A1.5CTarget.5Crepo_projects.5CpRealEcu.5CcR_R2023.2E09.2E15.5Cmake.5Coutput.5Cobjects.5CWAlloc.
0000042c 00000000*     11879 	.word	___ghs_eofn_SafeData-_SafeData..C.3A.5C_ECU2.5CECU_Rivian_A1.5CTarget.5Crepo_projects.5CpRealEcu.5CcR_R2023.2E09.2E15.5Cmake.5Coutput.5Cobjects.5CWAlloc.
00000430 01            11880 	.byte	1
00000431 00000000*     11881 	.word	.LDW38
00000435 00            11882 	.byte	0
00000436 00            11883 	.byte	0
00000437 00            11884 	.byte	0
                       11885 .LDW_unq_48:
                       11886 	.section	.debug_line
00000caa 000502        11887 	.byte	0,5,2
00000cad 00000000*     11888 	.word	_SafeData..C.3A.5C_ECU2.5CECU_Rivian_A1.5CTarget.5Crepo_projects.5CpRealEcu.5CcR_R2023.2E09.2E15.5Cmake.5Coutput.5Cobjects.5CWAlloc.
00000cb1 03            11889 	.byte	3
00000cb2 d704          11890 	.byte	215,4
00000cb4 02            11891 	.byte	2
00000cb5 00            11892 	.byte	0
00000cb6 01            11893 	.byte	1
00000cb7 06            11894 	.byte	6
00000cb8 13            11895 	.byte	19
00000cb9 000502        11896 	.byte	0,5,2
00000cbc 00000000*     11897 	.word	.LDWlin111
00000cc0 02            11898 	.byte	2
00000cc1 00            11899 	.byte	0
00000cc2 0b            11900 	.byte	11
00000cc3 000502        11901 	.byte	0,5,2
00000cc6 00000000*     11902 	.word	.LDWlin112
00000cca 02            11903 	.byte	2
00000ccb 00            11904 	.byte	0
00000ccc 0b            11905 	.byte	11
00000ccd 000502        11906 	.byte	0,5,2
00000cd0 00000000*     11907 	.word	.LDWlin113
00000cd4 0c            11908 	.byte	12
00000cd5 0b            11909 	.byte	11
00000cd6 0b            11910 	.byte	11
00000cd7 23            11911 	.byte	35
00000cd8 02            11912 	.byte	2
00000cd9 00            11913 	.byte	0
00000cda 0b            11914 	.byte	11
00000cdb 1c            11915 	.byte	28
00000cdc 03            11916 	.byte	3
00000cdd 7f            11917 	.byte	127
00000cde 02            11918 	.byte	2
00000cdf 02            11919 	.byte	2
00000ce0 01            11920 	.byte	1
00000ce1 000502        11921 	.byte	0,5,2
00000ce4 00000000*     11922 	.word	.LDWlin114
00000ce8 0b            11923 	.byte	11
00000ce9 0b            11924 	.byte	11
00000cea 000502        11925 	.byte	0,5,2
00000ced 00000000*     11926 	.word	.LDWlin115
00000cf1 0c            11927 	.byte	12

                                                                      Page 212
                                                              C:\Users\nhuliyap\AppData\Local\Temp\gh_00002rs1.s
00000cf2 03            11928 	.byte	3
00000cf3 7e            11929 	.byte	126
00000cf4 02            11930 	.byte	2
00000cf5 02            11931 	.byte	2
00000cf6 01            11932 	.byte	1
00000cf7 0b            11933 	.byte	11
00000cf8 2c            11934 	.byte	44
00000cf9 06            11935 	.byte	6
00000cfa 000502        11936 	.byte	0,5,2
00000cfd 00000000*     11937 	.word	.LDWlin116
00000d01 0b            11938 	.byte	11
00000d02 03            11939 	.byte	3
00000d03 04            11940 	.byte	4
00000d04 02            11941 	.byte	2
00000d05 00            11942 	.byte	0
00000d06 01            11943 	.byte	1
00000d07 06            11944 	.byte	6
00000d08 0b            11945 	.byte	11
00000d09 02            11946 	.byte	2
00000d0a 00            11947 	.byte	0
00000d0b 0b            11948 	.byte	11
00000d0c 0b            11949 	.byte	11
00000d0d 0b            11950 	.byte	11
00000d0e 000502        11951 	.byte	0,5,2
00000d11 00000000*     11952 	.word	.LDWlin117
00000d15 0b            11953 	.byte	11
00000d16 02            11954 	.byte	2
00000d17 00            11955 	.byte	0
00000d18 0b            11956 	.byte	11
00000d19 0b            11957 	.byte	11
00000d1a 0b            11958 	.byte	11
00000d1b 02            11959 	.byte	2
00000d1c 00            11960 	.byte	0
00000d1d 0b            11961 	.byte	11
00000d1e 02            11962 	.byte	2
00000d1f 02            11963 	.byte	2
00000d20 000101        11964 	.byte	0,1,1
                       11965 	.section	.debug_info
                       11966 .LDW_4dcf428:
000021ae 0f            11967 	.byte	15
000021af 7074496e7075  11968 	.strz	"ptInputWA"
000021b5 74574100 
000021b9 d704          11969 	.byte	215,4
000021bb 14            11970 	.byte	20
000021bc 01            11971 	.byte	1
000021bd 00000000*     11972 	.word	.LDW_4dce080
000021c1 00            11973 	.byte	0
000021c2 0156          11974 	.byte	1,86
                       11975 
                       11976 .LDW_4dcf690:
000021c4 0f            11977 	.byte	15
000021c5 7563497800    11978 	.strz	"ucIx"
000021ca d804          11979 	.byte	216,4
000021cc 12            11980 	.byte	18
000021cd 01            11981 	.byte	1
000021ce 00000000*     11982 	.word	.LDW_4946da0
000021d2 00            11983 	.byte	0
000021d3 0157          11984 	.byte	1,87
                       11985 
                       11986 .LDW_4ddff30:
000021d5 1d            11987 	.byte	29

                                                                      Page 213
                                                              C:\Users\nhuliyap\AppData\Local\Temp\gh_00002rs1.s
000021d6 00000000*     11988 	.word	.LDW28
000021da 00000000*     11989 	.word	.LDW38
                       11990 
000021de 00            11991 	.byte	0
                       11992 
000021df 00            11993 	.byte	0
                       11994 
                       11995 .LDW_4dcd840:
000021e0 13            11996 	.byte	19
000021e1 447269766544  11997 	.strz	"DriveDir"
000021e7 697200 
000021ea f704          11998 	.byte	247,4
000021ec 0d            11999 	.byte	13
000021ed 01            12000 	.byte	1
000021ee 00000000*     12001 	.word	_DriveDir..C.3A.5C_ECU2.5CECU_Rivian_A1.5CTarget.5Crepo_projects.5CpRealEcu.5CcR_R2023.2E09.2E15.5Cmake.5Coutput.5Cobjects.5CWAlloc.
000021f2 00000000*     12002 	.word	___ghs_eofn_DriveDir
000021f6 0153          12003 	.byte	1,83
000021f8 02            12004 	.byte	2
000021f9 00            12005 	.byte	0
000021fa 02            12006 	.byte	2
000021fb 00            12007 	.byte	0
000021fc 00            12008 	.byte	0
000021fd 00            12009 	.byte	0
000021fe 00            12010 	.byte	0
000021ff 00            12011 	.byte	0
00002200 01            12012 	.byte	1
00002201 00            12013 	.byte	0
00002202 01            12014 	.byte	1
                       12015 
                       12016 	.section	.debug_frame
                       12017 .LDW_4fb7d58:
00000438 00000000*     12018 	.word	.LDW_unq_4a-.LDW_unq_49
                       12019 .LDW_unq_49:
0000043c 00000000*     12020 	.word	.LDW_4da5d48
00000440 00000000*     12021 	.word	_DriveDir..C.3A.5C_ECU2.5CECU_Rivian_A1.5CTarget.5Crepo_projects.5CpRealEcu.5CcR_R2023.2E09.2E15.5Cmake.5Coutput.5Cobjects.5CWAlloc.
00000444 00000000*     12022 	.word	___ghs_eofn_DriveDir-_DriveDir..C.3A.5C_ECU2.5CECU_Rivian_A1.5CTarget.5Crepo_projects.5CpRealEcu.5CcR_R2023.2E09.2E15.5Cmake.5Coutput.5Cobjects.5CWAlloc.
00000448 01            12023 	.byte	1
00000449 00000000*     12024 	.word	.LDW58
0000044d 00            12025 	.byte	0
0000044e 00            12026 	.byte	0
0000044f 00            12027 	.byte	0
                       12028 .LDW_unq_4a:
                       12029 	.section	.debug_line
00000d23 000502        12030 	.byte	0,5,2
00000d26 00000000*     12031 	.word	_DriveDir..C.3A.5C_ECU2.5CECU_Rivian_A1.5CTarget.5Crepo_projects.5CpRealEcu.5CcR_R2023.2E09.2E15.5Cmake.5Coutput.5Cobjects.5CWAlloc.
00000d2a 03            12032 	.byte	3
00000d2b f704          12033 	.byte	247,4
00000d2d 02            12034 	.byte	2
00000d2e 00            12035 	.byte	0
00000d2f 01            12036 	.byte	1
00000d30 06            12037 	.byte	6
00000d31 13            12038 	.byte	19
00000d32 000502        12039 	.byte	0,5,2
00000d35 00000000*     12040 	.word	.LDWlin118
00000d39 02            12041 	.byte	2
00000d3a 00            12042 	.byte	0
00000d3b 0b            12043 	.byte	11
00000d3c 000502        12044 	.byte	0,5,2
00000d3f 00000000*     12045 	.word	.LDWlin119
00000d43 02            12046 	.byte	2
00000d44 00            12047 	.byte	0

                                                                      Page 214
                                                              C:\Users\nhuliyap\AppData\Local\Temp\gh_00002rs1.s
00000d45 0b            12048 	.byte	11
00000d46 02            12049 	.byte	2
00000d47 04            12050 	.byte	4
00000d48 0b            12051 	.byte	11
00000d49 000502        12052 	.byte	0,5,2
00000d4c 00000000*     12053 	.word	.LDWlin120
00000d50 0b            12054 	.byte	11
00000d51 0b            12055 	.byte	11
00000d52 0b            12056 	.byte	11
00000d53 000502        12057 	.byte	0,5,2
00000d56 00000000*     12058 	.word	.LDWlin121
00000d5a 02            12059 	.byte	2
00000d5b 00            12060 	.byte	0
00000d5c 0b            12061 	.byte	11
00000d5d 13            12062 	.byte	19
00000d5e 02            12063 	.byte	2
00000d5f 00            12064 	.byte	0
00000d60 0b            12065 	.byte	11
00000d61 02            12066 	.byte	2
00000d62 00            12067 	.byte	0
00000d63 0b            12068 	.byte	11
00000d64 02            12069 	.byte	2
00000d65 00            12070 	.byte	0
00000d66 0b            12071 	.byte	11
00000d67 02            12072 	.byte	2
00000d68 00            12073 	.byte	0
00000d69 0b            12074 	.byte	11
00000d6a 23            12075 	.byte	35
00000d6b 02            12076 	.byte	2
00000d6c 02            12077 	.byte	2
00000d6d 000101        12078 	.byte	0,1,1
                       12079 	.section	.debug_info
                       12080 .LDW_4dcf378:
00002203 0f            12081 	.byte	15
00002204 707563537461  12082 	.strz	"pucStatus"
0000220a 74757300 
0000220e f804          12083 	.byte	248,4
00002210 13            12084 	.byte	19
00002211 01            12085 	.byte	1
00002212 00000000*     12086 	.word	.LDW_4dce0b8
00002216 00            12087 	.byte	0
00002217 016e          12088 	.byte	1,110
                       12089 
                       12090 .LDW_4de01a0:
00002219 1d            12091 	.byte	29
0000221a 00000000*     12092 	.word	.LDW48
0000221e 00000000*     12093 	.word	.LDW58
                       12094 
00002222 00            12095 	.byte	0
                       12096 
00002223 00            12097 	.byte	0
                       12098 
                       12099 .LDW_4dcdd00:
00002224 14            12100 	.byte	20
00002225 756341637475  12101 	.strz	"ucActualize"
0000222b 616c697a6500 
00002231 8805          12102 	.byte	136,5
00002233 16            12103 	.byte	22
00002234 01            12104 	.byte	1
00002235 00000000*     12105 	.word	.LDW_4946da0
00002239 00000000*     12106 	.word	_ucActualize..C.3A.5C_ECU2.5CECU_Rivian_A1.5CTarget.5Crepo_projects.5CpRealEcu.5CcR_R2023.2E09.2E15.5Cmake.5Coutput.5Cobjects.5CWAlloc.

                                                                      Page 215
                                                              C:\Users\nhuliyap\AppData\Local\Temp\gh_00002rs1.s
0000223d 00000000*     12107 	.word	___ghs_eofn_ucActualize
00002241 0153          12108 	.byte	1,83
00002243 828080f00b    12109 	.byte	130,128,128,240,11
00002248 18            12110 	.byte	24
00002249 03            12111 	.byte	3
0000224a 18            12112 	.byte	24
0000224b 00            12113 	.byte	0
0000224c 00            12114 	.byte	0
0000224d 00            12115 	.byte	0
0000224e 00            12116 	.byte	0
0000224f 01            12117 	.byte	1
00002250 00            12118 	.byte	0
00002251 01            12119 	.byte	1
                       12120 
                       12121 	.section	.debug_frame
                       12122 .LDW_4fb8018:
00000450 00000000*     12123 	.word	.LDW_unq_4c-.LDW_unq_4b
                       12124 .LDW_unq_4b:
00000454 00000000*     12125 	.word	.LDW_4da5d48
00000458 00000000*     12126 	.word	_ucActualize..C.3A.5C_ECU2.5CECU_Rivian_A1.5CTarget.5Crepo_projects.5CpRealEcu.5CcR_R2023.2E09.2E15.5Cmake.5Coutput.5Cobjects.5CWAlloc.
0000045c 00000000*     12127 	.word	___ghs_eofn_ucActualize-_ucActualize..C.3A.5C_ECU2.5CECU_Rivian_A1.5CTarget.5Crepo_projects.5CpRealEcu.5CcR_R2023.2E09.2E15.5Cmake.5Coutput.5Cobjects.5CWAlloc.
00000460 44            12128 	.byte	68
00000461 9f            12129 	.byte	159
00000462 00            12130 	.byte	0
00000463 40            12131 	.byte	64
00000464 9d            12132 	.byte	157
00000465 04            12133 	.byte	4
00000466 40            12134 	.byte	64
00000467 9c            12135 	.byte	156
00000468 08            12136 	.byte	8
00000469 40            12137 	.byte	64
0000046a 9b            12138 	.byte	155
0000046b 0c            12139 	.byte	12
0000046c 40            12140 	.byte	64
0000046d 9a            12141 	.byte	154
0000046e 10            12142 	.byte	16
0000046f 40            12143 	.byte	64
00000470 99            12144 	.byte	153
00000471 14            12145 	.byte	20
00000472 01            12146 	.byte	1
00000473 00000000*     12147 	.word	.LDW98
00000477 00            12148 	.byte	0
                       12149 .LDW_unq_4c:
                       12150 	.section	.debug_line
00000d70 000502        12151 	.byte	0,5,2
00000d73 00000000*     12152 	.word	_ucActualize..C.3A.5C_ECU2.5CECU_Rivian_A1.5CTarget.5Crepo_projects.5CpRealEcu.5CcR_R2023.2E09.2E15.5Cmake.5Coutput.5Cobjects.5CWAlloc.
00000d77 03            12153 	.byte	3
00000d78 8905          12154 	.byte	137,5
00000d7a 02            12155 	.byte	2
00000d7b 00            12156 	.byte	0
00000d7c 01            12157 	.byte	1
00000d7d 06            12158 	.byte	6
00000d7e 03            12159 	.byte	3
00000d7f 04            12160 	.byte	4
00000d80 02            12161 	.byte	2
00000d81 08            12162 	.byte	8
00000d82 01            12163 	.byte	1
00000d83 13            12164 	.byte	19
00000d84 000502        12165 	.byte	0,5,2
00000d87 00000000*     12166 	.word	.LDWlin128
00000d8b 0c            12167 	.byte	12

                                                                      Page 216
                                                              C:\Users\nhuliyap\AppData\Local\Temp\gh_00002rs1.s
00000d8c 000502        12168 	.byte	0,5,2
00000d8f 00000000*     12169 	.word	.LDWlin129
00000d93 0d            12170 	.byte	13
00000d94 000502        12171 	.byte	0,5,2
00000d97 00000000*     12172 	.word	.LDWlin130
00000d9b 02            12173 	.byte	2
00000d9c 00            12174 	.byte	0
00000d9d 0b            12175 	.byte	11
00000d9e 000502        12176 	.byte	0,5,2
00000da1 00000000*     12177 	.word	.LDWlin131
00000da5 0c            12178 	.byte	12
00000da6 000502        12179 	.byte	0,5,2
00000da9 00000000*     12180 	.word	.LDWlin132
00000dad 02            12181 	.byte	2
00000dae 00            12182 	.byte	0
00000daf 0b            12183 	.byte	11
00000db0 06            12184 	.byte	6
00000db1 000502        12185 	.byte	0,5,2
00000db4 00000000*     12186 	.word	.LDWlin133
00000db8 03            12187 	.byte	3
00000db9 06            12188 	.byte	6
00000dba 02            12189 	.byte	2
00000dbb 00            12190 	.byte	0
00000dbc 01            12191 	.byte	1
00000dbd 03            12192 	.byte	3
00000dbe 0c            12193 	.byte	12
00000dbf 02            12194 	.byte	2
00000dc0 00            12195 	.byte	0
00000dc1 01            12196 	.byte	1
00000dc2 03            12197 	.byte	3
00000dc3 12            12198 	.byte	18
00000dc4 02            12199 	.byte	2
00000dc5 00            12200 	.byte	0
00000dc6 01            12201 	.byte	1
00000dc7 03            12202 	.byte	3
00000dc8 04            12203 	.byte	4
00000dc9 02            12204 	.byte	2
00000dca 00            12205 	.byte	0
00000dcb 01            12206 	.byte	1
00000dcc 06            12207 	.byte	6
00000dcd 0b            12208 	.byte	11
00000dce 02            12209 	.byte	2
00000dcf 00            12210 	.byte	0
00000dd0 0b            12211 	.byte	11
00000dd1 02            12212 	.byte	2
00000dd2 00            12213 	.byte	0
00000dd3 0b            12214 	.byte	11
00000dd4 02            12215 	.byte	2
00000dd5 00            12216 	.byte	0
00000dd6 0b            12217 	.byte	11
00000dd7 0b            12218 	.byte	11
00000dd8 0b            12219 	.byte	11
00000dd9 000502        12220 	.byte	0,5,2
00000ddc 00000000*     12221 	.word	.LDWlin134
00000de0 03            12222 	.byte	3
00000de1 59            12223 	.byte	89
00000de2 02            12224 	.byte	2
00000de3 00            12225 	.byte	0
00000de4 01            12226 	.byte	1
00000de5 02            12227 	.byte	2
00000de6 00            12228 	.byte	0

                                                                      Page 217
                                                              C:\Users\nhuliyap\AppData\Local\Temp\gh_00002rs1.s
00000de7 0b            12229 	.byte	11
00000de8 0b            12230 	.byte	11
00000de9 0b            12231 	.byte	11
00000dea 000502        12232 	.byte	0,5,2
00000ded 00000000*     12233 	.word	.LDWlin135
00000df1 0b            12234 	.byte	11
00000df2 000502        12235 	.byte	0,5,2
00000df5 00000000*     12236 	.word	.LDWlin136
00000df9 02            12237 	.byte	2
00000dfa 00            12238 	.byte	0
00000dfb 0b            12239 	.byte	11
00000dfc 06            12240 	.byte	6
00000dfd 000502        12241 	.byte	0,5,2
00000e00 00000000*     12242 	.word	.LDWlin137
00000e04 03            12243 	.byte	3
00000e05 75            12244 	.byte	117
00000e06 02            12245 	.byte	2
00000e07 00            12246 	.byte	0
00000e08 01            12247 	.byte	1
00000e09 06            12248 	.byte	6
00000e0a 03            12249 	.byte	3
00000e0b 0b            12250 	.byte	11
00000e0c 02            12251 	.byte	2
00000e0d 00            12252 	.byte	0
00000e0e 01            12253 	.byte	1
00000e0f 0b            12254 	.byte	11
00000e10 000502        12255 	.byte	0,5,2
00000e13 00000000*     12256 	.word	.LDWlin138
00000e17 03            12257 	.byte	3
00000e18 06            12258 	.byte	6
00000e19 02            12259 	.byte	2
00000e1a 00            12260 	.byte	0
00000e1b 01            12261 	.byte	1
00000e1c 02            12262 	.byte	2
00000e1d 00            12263 	.byte	0
00000e1e 0b            12264 	.byte	11
00000e1f 0b            12265 	.byte	11
00000e20 0b            12266 	.byte	11
00000e21 000502        12267 	.byte	0,5,2
00000e24 00000000*     12268 	.word	.LDWlin139
00000e28 02            12269 	.byte	2
00000e29 00            12270 	.byte	0
00000e2a 0b            12271 	.byte	11
00000e2b 000502        12272 	.byte	0,5,2
00000e2e 00000000*     12273 	.word	.LDWlin140
00000e32 03            12274 	.byte	3
00000e33 05            12275 	.byte	5
00000e34 02            12276 	.byte	2
00000e35 00            12277 	.byte	0
00000e36 01            12278 	.byte	1
00000e37 000502        12279 	.byte	0,5,2
00000e3a 00000000*     12280 	.word	.LDWlin141
00000e3e 02            12281 	.byte	2
00000e3f 00            12282 	.byte	0
00000e40 0b            12283 	.byte	11
00000e41 000502        12284 	.byte	0,5,2
00000e44 00000000*     12285 	.word	.LDWlin142
00000e48 0c            12286 	.byte	12
00000e49 000502        12287 	.byte	0,5,2
00000e4c 00000000*     12288 	.word	.LDWlin143
00000e50 03            12289 	.byte	3

                                                                      Page 218
                                                              C:\Users\nhuliyap\AppData\Local\Temp\gh_00002rs1.s
00000e51 10            12290 	.byte	16
00000e52 02            12291 	.byte	2
00000e53 00            12292 	.byte	0
00000e54 01            12293 	.byte	1
00000e55 02            12294 	.byte	2
00000e56 00            12295 	.byte	0
00000e57 0b            12296 	.byte	11
00000e58 000502        12297 	.byte	0,5,2
00000e5b 00000000*     12298 	.word	.LDWlin144
00000e5f 02            12299 	.byte	2
00000e60 00            12300 	.byte	0
00000e61 0b            12301 	.byte	11
00000e62 000502        12302 	.byte	0,5,2
00000e65 00000000*     12303 	.word	.LDWlin145
00000e69 0d            12304 	.byte	13
00000e6a 0b            12305 	.byte	11
00000e6b 0b            12306 	.byte	11
00000e6c 02            12307 	.byte	2
00000e6d 00            12308 	.byte	0
00000e6e 0b            12309 	.byte	11
00000e6f 06            12310 	.byte	6
00000e70 000502        12311 	.byte	0,5,2
00000e73 00000000*     12312 	.word	.LDWlin146
00000e77 02            12313 	.byte	2
00000e78 00            12314 	.byte	0
00000e79 06            12315 	.byte	6
00000e7a 000502        12316 	.byte	0,5,2
00000e7d 00000000*     12317 	.word	.LDWlin147
00000e81 02            12318 	.byte	2
00000e82 00            12319 	.byte	0
00000e83 0c            12320 	.byte	12
00000e84 0b            12321 	.byte	11
00000e85 0b            12322 	.byte	11
00000e86 13            12323 	.byte	19
00000e87 02            12324 	.byte	2
00000e88 00            12325 	.byte	0
00000e89 0b            12326 	.byte	11
00000e8a 02            12327 	.byte	2
00000e8b 04            12328 	.byte	4
00000e8c 000101        12329 	.byte	0,1,1
                       12330 	.section	.debug_info
                       12331 .LDW_4dcf480:
00002252 0f            12332 	.byte	15
00002253 7074496e7075  12333 	.strz	"ptInputWA"
00002259 74574100 
0000225d 8905          12334 	.byte	137,5
0000225f 14            12335 	.byte	20
00002260 01            12336 	.byte	1
00002261 00000000*     12337 	.word	.LDW_4dce080
00002265 00            12338 	.byte	0
00002266 016c          12339 	.byte	1,108
                       12340 
                       12341 .LDW_4dcf6e8:
00002268 0f            12342 	.byte	15
00002269 707457415061  12343 	.strz	"ptWAPar"
0000226f 7200 
00002271 8a05          12344 	.byte	138,5
00002273 11            12345 	.byte	17
00002274 01            12346 	.byte	1
00002275 00000000*     12347 	.word	.LDW_4dce400
00002279 00            12348 	.byte	0

                                                                      Page 219
                                                              C:\Users\nhuliyap\AppData\Local\Temp\gh_00002rs1.s
0000227a 0169          12349 	.byte	1,105
                       12350 
                       12351 .LDW_4de0350:
0000227c 1d            12352 	.byte	29
0000227d 00000000*     12353 	.word	.LDW88
00002281 00000000*     12354 	.word	.LDW98
                       12355 
                       12356 .LDW_4dcf588:
00002285 04            12357 	.byte	4
00002286 756352657456  12358 	.strz	"ucRetVal"
0000228c 616c00 
0000228f 8b05          12359 	.byte	139,5
00002291 12            12360 	.byte	18
00002292 01            12361 	.byte	1
00002293 00000000*     12362 	.word	.LDW_4946da0
00002297 00            12363 	.byte	0
00002298 00            12364 	.byte	0
00002299 015a          12365 	.byte	1,90
                       12366 
                       12367 .LDW_4dcf638:
0000229b 04            12368 	.byte	4
0000229c 7563497800    12369 	.strz	"ucIx"
000022a1 8c05          12370 	.byte	140,5
000022a3 12            12371 	.byte	18
000022a4 01            12372 	.byte	1
000022a5 00000000*     12373 	.word	.LDW_4946da0
000022a9 00            12374 	.byte	0
000022aa 00            12375 	.byte	0
000022ab 016d          12376 	.byte	1,109
                       12377 
                       12378 .LDW_4dcf2c8:
000022ad 04            12379 	.byte	4
000022ae 6254656c416c  12380 	.strz	"bTelAllowed"
000022b4 6c6f77656400 
000022ba 8d05          12381 	.byte	141,5
000022bc 0c            12382 	.byte	12
000022bd 01            12383 	.byte	1
000022be 00000000*     12384 	.word	.LDW_4dccb18
000022c2 00            12385 	.byte	0
000022c3 00            12386 	.byte	0
000022c4 016b          12387 	.byte	1,107
                       12388 
                       12389 .LDW_4dcf320:
000022c6 04            12390 	.byte	4
000022c7 75634e657741  12391 	.strz	"ucNewAPCData"
000022cd 504344617461 
000022d3 00 
000022d4 8e05          12392 	.byte	142,5
000022d6 12            12393 	.byte	18
000022d7 01            12394 	.byte	1
000022d8 00000000*     12395 	.word	.LDW_4946da0
000022dc 00            12396 	.byte	0
000022dd 00            12397 	.byte	0
000022de 016a          12398 	.byte	1,106
                       12399 
000022e0 00            12400 	.byte	0
                       12401 
000022e1 00            12402 	.byte	0
                       12403 
                       12404 .LDW_4dcd1b8:
000022e2 14            12405 	.byte	20

                                                                      Page 220
                                                              C:\Users\nhuliyap\AppData\Local\Temp\gh_00002rs1.s
000022e3 756353657448  12406 	.strz	"ucSetHistory"
000022e9 6973746f7279 
000022ef 00 
000022f0 d805          12407 	.byte	216,5
000022f2 0f            12408 	.byte	15
000022f3 01            12409 	.byte	1
000022f4 00000000*     12410 	.word	.LDW_4946da0
000022f8 00000000*     12411 	.word	_ucSetHistory
000022fc 00000000*     12412 	.word	___ghs_eofn_ucSetHistory
00002300 0153          12413 	.byte	1,83
00002302 828080fc0b    12414 	.byte	130,128,128,252,11
00002307 20            12415 	.byte	32
00002308 03            12416 	.byte	3
00002309 20            12417 	.byte	32
0000230a 00            12418 	.byte	0
0000230b 00            12419 	.byte	0
0000230c 00            12420 	.byte	0
0000230d 01            12421 	.byte	1
0000230e 01            12422 	.byte	1
0000230f 00            12423 	.byte	0
00002310 01            12424 	.byte	1
                       12425 
                       12426 	.section	.debug_frame
                       12427 .LDW_4fb7898:
00000478 00000000*     12428 	.word	.LDW_unq_4e-.LDW_unq_4d
                       12429 .LDW_unq_4d:
0000047c 00000000*     12430 	.word	.LDW_4da5d48
00000480 00000000*     12431 	.word	_ucSetHistory
00000484 00000000*     12432 	.word	___ghs_eofn_ucSetHistory-_ucSetHistory
00000488 44            12433 	.byte	68
00000489 9f            12434 	.byte	159
0000048a 00            12435 	.byte	0
0000048b 40            12436 	.byte	64
0000048c 9d            12437 	.byte	157
0000048d 04            12438 	.byte	4
0000048e 40            12439 	.byte	64
0000048f 9c            12440 	.byte	156
00000490 08            12441 	.byte	8
00000491 40            12442 	.byte	64
00000492 9b            12443 	.byte	155
00000493 0c            12444 	.byte	12
00000494 40            12445 	.byte	64
00000495 9a            12446 	.byte	154
00000496 10            12447 	.byte	16
00000497 40            12448 	.byte	64
00000498 99            12449 	.byte	153
00000499 14            12450 	.byte	20
0000049a 40            12451 	.byte	64
0000049b 98            12452 	.byte	152
0000049c 18            12453 	.byte	24
0000049d 40            12454 	.byte	64
0000049e 97            12455 	.byte	151
0000049f 1c            12456 	.byte	28
000004a0 01            12457 	.byte	1
000004a1 00000000*     12458 	.word	.LDW19
000004a5 00            12459 	.byte	0
000004a6 00            12460 	.byte	0
000004a7 00            12461 	.byte	0
                       12462 .LDW_unq_4e:
                       12463 	.section	.debug_line
00000e8f 000502        12464 	.byte	0,5,2

                                                                      Page 221
                                                              C:\Users\nhuliyap\AppData\Local\Temp\gh_00002rs1.s
00000e92 00000000*     12465 	.word	_ucSetHistory
00000e96 03            12466 	.byte	3
00000e97 d805          12467 	.byte	216,5
00000e99 02            12468 	.byte	2
00000e9a 00            12469 	.byte	0
00000e9b 01            12470 	.byte	1
00000e9c 06            12471 	.byte	6
00000e9d 000502        12472 	.byte	0,5,2
00000ea0 00000000*     12473 	.word	.LDWlin148
00000ea4 0c            12474 	.byte	12
00000ea5 03            12475 	.byte	3
00000ea6 7f            12476 	.byte	127
00000ea7 02            12477 	.byte	2
00000ea8 04            12478 	.byte	4
00000ea9 01            12479 	.byte	1
00000eaa 000502        12480 	.byte	0,5,2
00000ead 00000000*     12481 	.word	.LDWlin149
00000eb1 03            12482 	.byte	3
00000eb2 04            12483 	.byte	4
00000eb3 02            12484 	.byte	2
00000eb4 00            12485 	.byte	0
00000eb5 01            12486 	.byte	1
00000eb6 000502        12487 	.byte	0,5,2
00000eb9 00000000*     12488 	.word	.LDWlin150
00000ebd 0d            12489 	.byte	13
00000ebe 02            12490 	.byte	2
00000ebf 02            12491 	.byte	2
00000ec0 0b            12492 	.byte	11
00000ec1 02            12493 	.byte	2
00000ec2 02            12494 	.byte	2
00000ec3 0b            12495 	.byte	11
00000ec4 000502        12496 	.byte	0,5,2
00000ec7 00000000*     12497 	.word	.LDWlin151
00000ecb 0b            12498 	.byte	11
00000ecc 0b            12499 	.byte	11
00000ecd 34            12500 	.byte	52
00000ece 000502        12501 	.byte	0,5,2
00000ed1 00000000*     12502 	.word	.LDWlin152
00000ed5 02            12503 	.byte	2
00000ed6 00            12504 	.byte	0
00000ed7 0b            12505 	.byte	11
00000ed8 000502        12506 	.byte	0,5,2
00000edb 00000000*     12507 	.word	.LDWlin153
00000edf 03            12508 	.byte	3
00000ee0 06            12509 	.byte	6
00000ee1 02            12510 	.byte	2
00000ee2 00            12511 	.byte	0
00000ee3 01            12512 	.byte	1
00000ee4 03            12513 	.byte	3
00000ee5 7b            12514 	.byte	123
00000ee6 02            12515 	.byte	2
00000ee7 0a            12516 	.byte	10
00000ee8 01            12517 	.byte	1
00000ee9 0b            12518 	.byte	11
00000eea 0b            12519 	.byte	11
00000eeb 0b            12520 	.byte	11
00000eec 03            12521 	.byte	3
00000eed 07            12522 	.byte	7
00000eee 02            12523 	.byte	2
00000eef 04            12524 	.byte	4
00000ef0 01            12525 	.byte	1

                                                                      Page 222
                                                              C:\Users\nhuliyap\AppData\Local\Temp\gh_00002rs1.s
00000ef1 0b            12526 	.byte	11
00000ef2 000502        12527 	.byte	0,5,2
00000ef5 00000000*     12528 	.word	.LDWlin154
00000ef9 03            12529 	.byte	3
00000efa 7b            12530 	.byte	123
00000efb 02            12531 	.byte	2
00000efc 00            12532 	.byte	0
00000efd 01            12533 	.byte	1
00000efe 02            12534 	.byte	2
00000eff 00            12535 	.byte	0
00000f00 0b            12536 	.byte	11
00000f01 02            12537 	.byte	2
00000f02 00            12538 	.byte	0
00000f03 0c            12539 	.byte	12
00000f04 02            12540 	.byte	2
00000f05 00            12541 	.byte	0
00000f06 03            12542 	.byte	3
00000f07 70            12543 	.byte	112
00000f08 02            12544 	.byte	2
00000f09 00            12545 	.byte	0
00000f0a 01            12546 	.byte	1
00000f0b 000502        12547 	.byte	0,5,2
00000f0e 00000000*     12548 	.word	.LDWlin155
00000f12 03            12549 	.byte	3
00000f13 12            12550 	.byte	18
00000f14 02            12551 	.byte	2
00000f15 00            12552 	.byte	0
00000f16 01            12553 	.byte	1
00000f17 0b            12554 	.byte	11
00000f18 000502        12555 	.byte	0,5,2
00000f1b 00000000*     12556 	.word	.LDWlin156
00000f1f 0c            12557 	.byte	12
00000f20 4b            12558 	.byte	75
00000f21 02            12559 	.byte	2
00000f22 00            12560 	.byte	0
00000f23 03            12561 	.byte	3
00000f24 69            12562 	.byte	105
00000f25 02            12563 	.byte	2
00000f26 00            12564 	.byte	0
00000f27 01            12565 	.byte	1
00000f28 000502        12566 	.byte	0,5,2
00000f2b 00000000*     12567 	.word	.LDWlin157
00000f2f 03            12568 	.byte	3
00000f30 18            12569 	.byte	24
00000f31 02            12570 	.byte	2
00000f32 00            12571 	.byte	0
00000f33 01            12572 	.byte	1
00000f34 0b            12573 	.byte	11
00000f35 000502        12574 	.byte	0,5,2
00000f38 00000000*     12575 	.word	.LDWlin158
00000f3c 02            12576 	.byte	2
00000f3d 00            12577 	.byte	0
00000f3e 0b            12578 	.byte	11
00000f3f 000502        12579 	.byte	0,5,2
00000f42 00000000*     12580 	.word	.LDWlin159
00000f46 02            12581 	.byte	2
00000f47 00            12582 	.byte	0
00000f48 0b            12583 	.byte	11
00000f49 000502        12584 	.byte	0,5,2
00000f4c 00000000*     12585 	.word	.LDWlin160
00000f50 0b            12586 	.byte	11

                                                                      Page 223
                                                              C:\Users\nhuliyap\AppData\Local\Temp\gh_00002rs1.s
00000f51 0b            12587 	.byte	11
00000f52 0b            12588 	.byte	11
00000f53 1b            12589 	.byte	27
00000f54 02            12590 	.byte	2
00000f55 02            12591 	.byte	2
00000f56 0b            12592 	.byte	11
00000f57 02            12593 	.byte	2
00000f58 0a            12594 	.byte	10
00000f59 0b            12595 	.byte	11
00000f5a 02            12596 	.byte	2
00000f5b 02            12597 	.byte	2
00000f5c 000502        12598 	.byte	0,5,2
00000f5f 00000000*     12599 	.word	.LDWlin161
00000f63 0b            12600 	.byte	11
00000f64 000502        12601 	.byte	0,5,2
00000f67 00000000*     12602 	.word	.LDWlin162
00000f6b 02            12603 	.byte	2
00000f6c 00            12604 	.byte	0
00000f6d 0b            12605 	.byte	11
00000f6e 000502        12606 	.byte	0,5,2
00000f71 00000000*     12607 	.word	.LDWlin163
00000f75 0b            12608 	.byte	11
00000f76 0d            12609 	.byte	13
00000f77 0b            12610 	.byte	11
00000f78 0c            12611 	.byte	12
00000f79 02            12612 	.byte	2
00000f7a 00            12613 	.byte	0
00000f7b 0b            12614 	.byte	11
00000f7c 3c            12615 	.byte	60
00000f7d 000502        12616 	.byte	0,5,2
00000f80 00000000*     12617 	.word	.LDWlin164
00000f84 0b            12618 	.byte	11
00000f85 02            12619 	.byte	2
00000f86 00            12620 	.byte	0
00000f87 03            12621 	.byte	3
00000f88 73            12622 	.byte	115
00000f89 02            12623 	.byte	2
00000f8a 00            12624 	.byte	0
00000f8b 01            12625 	.byte	1
00000f8c 000502        12626 	.byte	0,5,2
00000f8f 00000000*     12627 	.word	.LDWlin165
00000f93 03            12628 	.byte	3
00000f94 0e            12629 	.byte	14
00000f95 02            12630 	.byte	2
00000f96 00            12631 	.byte	0
00000f97 01            12632 	.byte	1
00000f98 0b            12633 	.byte	11
00000f99 02            12634 	.byte	2
00000f9a 00            12635 	.byte	0
00000f9b 03            12636 	.byte	3
00000f9c 6f            12637 	.byte	111
00000f9d 02            12638 	.byte	2
00000f9e 00            12639 	.byte	0
00000f9f 01            12640 	.byte	1
00000fa0 03            12641 	.byte	3
00000fa1 12            12642 	.byte	18
00000fa2 02            12643 	.byte	2
00000fa3 04            12644 	.byte	4
00000fa4 01            12645 	.byte	1
00000fa5 0b            12646 	.byte	11
00000fa6 000502        12647 	.byte	0,5,2

                                                                      Page 224
                                                              C:\Users\nhuliyap\AppData\Local\Temp\gh_00002rs1.s
00000fa9 00000000*     12648 	.word	.LDWlin166
00000fad 0b            12649 	.byte	11
00000fae 02            12650 	.byte	2
00000faf 00            12651 	.byte	0
00000fb0 0b            12652 	.byte	11
00000fb1 000502        12653 	.byte	0,5,2
00000fb4 00000000*     12654 	.word	.LDWlin167
00000fb8 0d            12655 	.byte	13
00000fb9 000502        12656 	.byte	0,5,2
00000fbc 00000000*     12657 	.word	.LDWlin168
00000fc0 0d            12658 	.byte	13
00000fc1 02            12659 	.byte	2
00000fc2 00            12660 	.byte	0
00000fc3 0b            12661 	.byte	11
00000fc4 06            12662 	.byte	6
00000fc5 02            12663 	.byte	2
00000fc6 02            12664 	.byte	2
00000fc7 02            12665 	.byte	2
00000fc8 04            12666 	.byte	4
00000fc9 000101        12667 	.byte	0,1,1
                       12668 	.section	.debug_info
                       12669 .LDW_4dcf4d8:
00002311 0f            12670 	.byte	15
00002312 756354797065  12671 	.strz	"ucType"
00002318 00 
00002319 d905          12672 	.byte	217,5
0000231b 12            12673 	.byte	18
0000231c 01            12674 	.byte	1
0000231d 00000000*     12675 	.word	.LDW_4946da0
00002321 00            12676 	.byte	0
00002322 016a          12677 	.byte	1,106
                       12678 
                       12679 .LDW_4ddfe70:
00002324 1d            12680 	.byte	29
00002325 00000000*     12681 	.word	.LDW09
00002329 00000000*     12682 	.word	.LDW19
                       12683 
                       12684 .LDW_4dcf530:
0000232d 04            12685 	.byte	4
0000232e 6900          12686 	.strz	"i"
00002330 da05          12687 	.byte	218,5
00002332 12            12688 	.byte	18
00002333 01            12689 	.byte	1
00002334 00000000*     12690 	.word	.LDW_4946da0
00002338 00            12691 	.byte	0
00002339 00            12692 	.byte	0
0000233a 016d          12693 	.byte	1,109
                       12694 
                       12695 .LDW_4dcf5e0:
0000233c 04            12696 	.byte	4
0000233d 6a00          12697 	.strz	"j"
0000233f da05          12698 	.byte	218,5
00002341 15            12699 	.byte	21
00002342 01            12700 	.byte	1
00002343 00000000*     12701 	.word	.LDW_4946da0
00002347 00            12702 	.byte	0
00002348 00            12703 	.byte	0
00002349 016b          12704 	.byte	1,107
                       12705 
                       12706 .LDW_4de0af8:
0000234b 04            12707 	.byte	4

                                                                      Page 225
                                                              C:\Users\nhuliyap\AppData\Local\Temp\gh_00002rs1.s
0000234c 756352657400  12708 	.strz	"ucRet"
00002352 da05          12709 	.byte	218,5
00002354 18            12710 	.byte	24
00002355 01            12711 	.byte	1
00002356 00000000*     12712 	.word	.LDW_4946da0
0000235a 00            12713 	.byte	0
0000235b 00            12714 	.byte	0
0000235c 016c          12715 	.byte	1,108
                       12716 
0000235e 00            12717 	.byte	0
                       12718 
0000235f 00            12719 	.byte	0
                       12720 
                       12721 .LDW_4dcdd98:
00002360 13            12722 	.byte	19
00002361 526573746f72  12723 	.strz	"RestoreHistory"
00002367 65486973746f 
0000236d 727900 
00002370 9f06          12724 	.byte	159,6
00002372 0d            12725 	.byte	13
00002373 01            12726 	.byte	1
00002374 00000000*     12727 	.word	_RestoreHistory..C.3A.5C_ECU2.5CECU_Rivian_A1.5CTarget.5Crepo_projects.5CpRealEcu.5CcR_R2023.2E09.2E15.5Cmake.5Coutput.5Cobjects.5CWAlloc.
00002378 00000000*     12728 	.word	___ghs_eofn_RestoreHistory
0000237c 0153          12729 	.byte	1,83
0000237e 828080fc0b    12730 	.byte	130,128,128,252,11
00002383 20            12731 	.byte	32
00002384 03            12732 	.byte	3
00002385 20            12733 	.byte	32
00002386 00            12734 	.byte	0
00002387 00            12735 	.byte	0
00002388 00            12736 	.byte	0
00002389 00            12737 	.byte	0
0000238a 01            12738 	.byte	1
0000238b 00            12739 	.byte	0
0000238c 01            12740 	.byte	1
                       12741 
                       12742 	.section	.debug_frame
                       12743 .LDW_4fb7c98:
000004a8 00000000*     12744 	.word	.LDW_unq_50-.LDW_unq_4f
                       12745 .LDW_unq_4f:
000004ac 00000000*     12746 	.word	.LDW_4da5d48
000004b0 00000000*     12747 	.word	_RestoreHistory..C.3A.5C_ECU2.5CECU_Rivian_A1.5CTarget.5Crepo_projects.5CpRealEcu.5CcR_R2023.2E09.2E15.5Cmake.5Coutput.5Cobjects.5CWAlloc.
000004b4 00000000*     12748 	.word	___ghs_eofn_RestoreHistory-_RestoreHistory..C.3A.5C_ECU2.5CECU_Rivian_A1.5CTarget.5Crepo_projects.5CpRealEcu.5CcR_R2023.2E09.2E15.5Cmake.5Coutput.5Cobjects.5CWAlloc.
000004b8 44            12749 	.byte	68
000004b9 9f            12750 	.byte	159
000004ba 00            12751 	.byte	0
000004bb 40            12752 	.byte	64
000004bc 9d            12753 	.byte	157
000004bd 04            12754 	.byte	4
000004be 40            12755 	.byte	64
000004bf 9c            12756 	.byte	156
000004c0 08            12757 	.byte	8
000004c1 40            12758 	.byte	64
000004c2 9b            12759 	.byte	155
000004c3 0c            12760 	.byte	12
000004c4 40            12761 	.byte	64
000004c5 9a            12762 	.byte	154
000004c6 10            12763 	.byte	16
000004c7 40            12764 	.byte	64
000004c8 99            12765 	.byte	153
000004c9 14            12766 	.byte	20

                                                                      Page 226
                                                              C:\Users\nhuliyap\AppData\Local\Temp\gh_00002rs1.s
000004ca 40            12767 	.byte	64
000004cb 98            12768 	.byte	152
000004cc 18            12769 	.byte	24
000004cd 40            12770 	.byte	64
000004ce 97            12771 	.byte	151
000004cf 1c            12772 	.byte	28
000004d0 01            12773 	.byte	1
000004d1 00000000*     12774 	.word	.LDW39
000004d5 00            12775 	.byte	0
000004d6 00            12776 	.byte	0
000004d7 00            12777 	.byte	0
                       12778 .LDW_unq_50:
                       12779 	.section	.debug_line
00000fcc 000502        12780 	.byte	0,5,2
00000fcf 00000000*     12781 	.word	_RestoreHistory..C.3A.5C_ECU2.5CECU_Rivian_A1.5CTarget.5Crepo_projects.5CpRealEcu.5CcR_R2023.2E09.2E15.5Cmake.5Coutput.5Cobjects.5CWAlloc.
00000fd3 03            12782 	.byte	3
00000fd4 9f06          12783 	.byte	159,6
00000fd6 02            12784 	.byte	2
00000fd7 00            12785 	.byte	0
00000fd8 01            12786 	.byte	1
00000fd9 06            12787 	.byte	6
00000fda 000502        12788 	.byte	0,5,2
00000fdd 00000000*     12789 	.word	.LDWlin169
00000fe1 0c            12790 	.byte	12
00000fe2 03            12791 	.byte	3
00000fe3 7f            12792 	.byte	127
00000fe4 02            12793 	.byte	2
00000fe5 04            12794 	.byte	4
00000fe6 01            12795 	.byte	1
00000fe7 000502        12796 	.byte	0,5,2
00000fea 00000000*     12797 	.word	.LDWlin170
00000fee 0b            12798 	.byte	11
00000fef 0b            12799 	.byte	11
00000ff0 06            12800 	.byte	6
00000ff1 000502        12801 	.byte	0,5,2
00000ff4 00000000*     12802 	.word	.LDWlin171
00000ff8 03            12803 	.byte	3
00000ff9 0e            12804 	.byte	14
00000ffa 02            12805 	.byte	2
00000ffb 00            12806 	.byte	0
00000ffc 01            12807 	.byte	1
00000ffd 03            12808 	.byte	3
00000ffe 73            12809 	.byte	115
00000fff 02            12810 	.byte	2
00001000 00            12811 	.byte	0
00001001 01            12812 	.byte	1
00001002 03            12813 	.byte	3
00001003 7f            12814 	.byte	127
00001004 02            12815 	.byte	2
00001005 00            12816 	.byte	0
00001006 01            12817 	.byte	1
00001007 06            12818 	.byte	6
00001008 000502        12819 	.byte	0,5,2
0000100b 00000000*     12820 	.word	.LDWlin172
0000100f 0b            12821 	.byte	11
00001010 0b            12822 	.byte	11
00001011 02            12823 	.byte	2
00001012 02            12824 	.byte	2
00001013 0b            12825 	.byte	11
00001014 000502        12826 	.byte	0,5,2
00001017 00000000*     12827 	.word	.LDWlin173

                                                                      Page 227
                                                              C:\Users\nhuliyap\AppData\Local\Temp\gh_00002rs1.s
0000101b 0b            12828 	.byte	11
0000101c 0b            12829 	.byte	11
0000101d 000502        12830 	.byte	0,5,2
00001020 00000000*     12831 	.word	.LDWlin174
00001024 0d            12832 	.byte	13
00001025 1b            12833 	.byte	27
00001026 02            12834 	.byte	2
00001027 00            12835 	.byte	0
00001028 03            12836 	.byte	3
00001029 79            12837 	.byte	121
0000102a 02            12838 	.byte	2
0000102b 00            12839 	.byte	0
0000102c 01            12840 	.byte	1
0000102d 000502        12841 	.byte	0,5,2
00001030 00000000*     12842 	.word	.LDWlin175
00001034 03            12843 	.byte	3
00001035 08            12844 	.byte	8
00001036 02            12845 	.byte	2
00001037 00            12846 	.byte	0
00001038 01            12847 	.byte	1
00001039 03            12848 	.byte	3
0000103a 77            12849 	.byte	119
0000103b 02            12850 	.byte	2
0000103c 00            12851 	.byte	0
0000103d 01            12852 	.byte	1
0000103e 000502        12853 	.byte	0,5,2
00001041 00000000*     12854 	.word	.LDWlin176
00001045 03            12855 	.byte	3
00001046 0d            12856 	.byte	13
00001047 02            12857 	.byte	2
00001048 00            12858 	.byte	0
00001049 01            12859 	.byte	1
0000104a 0b            12860 	.byte	11
0000104b 000502        12861 	.byte	0,5,2
0000104e 00000000*     12862 	.word	.LDWlin177
00001052 0d            12863 	.byte	13
00001053 000502        12864 	.byte	0,5,2
00001056 00000000*     12865 	.word	.LDWlin178
0000105a 02            12866 	.byte	2
0000105b 00            12867 	.byte	0
0000105c 0b            12868 	.byte	11
0000105d 000502        12869 	.byte	0,5,2
00001060 00000000*     12870 	.word	.LDWlin179
00001064 0d            12871 	.byte	13
00001065 1b            12872 	.byte	27
00001066 02            12873 	.byte	2
00001067 00            12874 	.byte	0
00001068 03            12875 	.byte	3
00001069 77            12876 	.byte	119
0000106a 02            12877 	.byte	2
0000106b 00            12878 	.byte	0
0000106c 01            12879 	.byte	1
0000106d 000502        12880 	.byte	0,5,2
00001070 00000000*     12881 	.word	.LDWlin180
00001074 03            12882 	.byte	3
00001075 0a            12883 	.byte	10
00001076 02            12884 	.byte	2
00001077 00            12885 	.byte	0
00001078 01            12886 	.byte	1
00001079 0b            12887 	.byte	11
0000107a 000502        12888 	.byte	0,5,2

                                                                      Page 228
                                                              C:\Users\nhuliyap\AppData\Local\Temp\gh_00002rs1.s
0000107d 00000000*     12889 	.word	.LDWlin181
00001081 0c            12890 	.byte	12
00001082 02            12891 	.byte	2
00001083 00            12892 	.byte	0
00001084 0b            12893 	.byte	11
00001085 02            12894 	.byte	2
00001086 02            12895 	.byte	2
00001087 0b            12896 	.byte	11
00001088 02            12897 	.byte	2
00001089 02            12898 	.byte	2
0000108a 000502        12899 	.byte	0,5,2
0000108d 00000000*     12900 	.word	.LDWlin182
00001091 0b            12901 	.byte	11
00001092 000502        12902 	.byte	0,5,2
00001095 00000000*     12903 	.word	.LDWlin183
00001099 03            12904 	.byte	3
0000109a 7f            12905 	.byte	127
0000109b 02            12906 	.byte	2
0000109c 00            12907 	.byte	0
0000109d 01            12908 	.byte	1
0000109e 000502        12909 	.byte	0,5,2
000010a1 00000000*     12910 	.word	.LDWlin184
000010a5 03            12911 	.byte	3
000010a6 04            12912 	.byte	4
000010a7 02            12913 	.byte	2
000010a8 00            12914 	.byte	0
000010a9 01            12915 	.byte	1
000010aa 0b            12916 	.byte	11
000010ab 0b            12917 	.byte	11
000010ac 0b            12918 	.byte	11
000010ad 000502        12919 	.byte	0,5,2
000010b0 00000000*     12920 	.word	.LDWlin185
000010b4 0c            12921 	.byte	12
000010b5 02            12922 	.byte	2
000010b6 00            12923 	.byte	0
000010b7 0b            12924 	.byte	11
000010b8 02            12925 	.byte	2
000010b9 00            12926 	.byte	0
000010ba 0b            12927 	.byte	11
000010bb 02            12928 	.byte	2
000010bc 04            12929 	.byte	4
000010bd 000101        12930 	.byte	0,1,1
                       12931 	.section	.debug_info
                       12932 .LDW_4ddfdb0:
0000238d 1d            12933 	.byte	29
0000238e 00000000*     12934 	.word	.LDW29
00002392 00000000*     12935 	.word	.LDW39
                       12936 
                       12937 .LDW_4de0cb0:
00002396 04            12938 	.byte	4
00002397 6900          12939 	.strz	"i"
00002399 a106          12940 	.byte	161,6
0000239b 12            12941 	.byte	18
0000239c 01            12942 	.byte	1
0000239d 00000000*     12943 	.word	.LDW_4946da0
000023a1 00            12944 	.byte	0
000023a2 00            12945 	.byte	0
000023a3 016c          12946 	.byte	1,108
                       12947 
                       12948 .LDW_4de1078:
000023a5 04            12949 	.byte	4

                                                                      Page 229
                                                              C:\Users\nhuliyap\AppData\Local\Temp\gh_00002rs1.s
000023a6 6a00          12950 	.strz	"j"
000023a8 a106          12951 	.byte	161,6
000023aa 15            12952 	.byte	21
000023ab 01            12953 	.byte	1
000023ac 00000000*     12954 	.word	.LDW_4946da0
000023b0 00            12955 	.byte	0
000023b1 00            12956 	.byte	0
000023b2 016a          12957 	.byte	1,106
                       12958 
                       12959 .LDW_4de0f70:
000023b4 04            12960 	.byte	4
000023b5 7563437400    12961 	.strz	"ucCt"
000023ba a106          12962 	.byte	161,6
000023bc 18            12963 	.byte	24
000023bd 01            12964 	.byte	1
000023be 00000000*     12965 	.word	.LDW_4946da0
000023c2 00            12966 	.byte	0
000023c3 00            12967 	.byte	0
000023c4 016b          12968 	.byte	1,107
                       12969 
000023c6 00            12970 	.byte	0
                       12971 
000023c7 00            12972 	.byte	0
                       12973 
                       12974 .LDW_4dcd088:
000023c8 14            12975 	.byte	20
000023c9 75634c656172  12976 	.strz	"ucLearnID"
000023cf 6e494400 
000023d3 cd06          12977 	.byte	205,6
000023d5 0f            12978 	.byte	15
000023d6 01            12979 	.byte	1
000023d7 00000000*     12980 	.word	.LDW_4946da0
000023db 00000000*     12981 	.word	_ucLearnID
000023df 00000000*     12982 	.word	___ghs_eofn_ucLearnID
000023e3 0153          12983 	.byte	1,83
000023e5 828080c00b    12984 	.byte	130,128,128,192,11
000023ea 10            12985 	.byte	16
000023eb 03            12986 	.byte	3
000023ec 10            12987 	.byte	16
000023ed 00            12988 	.byte	0
000023ee 00            12989 	.byte	0
000023ef 00            12990 	.byte	0
000023f0 01            12991 	.byte	1
000023f1 01            12992 	.byte	1
000023f2 00            12993 	.byte	0
000023f3 01            12994 	.byte	1
                       12995 
                       12996 	.section	.debug_frame
                       12997 .LDW_4fb7cd8:
000004d8 00000000*     12998 	.word	.LDW_unq_52-.LDW_unq_51
                       12999 .LDW_unq_51:
000004dc 00000000*     13000 	.word	.LDW_4da5d48
000004e0 00000000*     13001 	.word	_ucLearnID
000004e4 00000000*     13002 	.word	___ghs_eofn_ucLearnID-_ucLearnID
000004e8 44            13003 	.byte	68
000004e9 9f            13004 	.byte	159
000004ea 00            13005 	.byte	0
000004eb 40            13006 	.byte	64
000004ec 9d            13007 	.byte	157
000004ed 04            13008 	.byte	4
000004ee 40            13009 	.byte	64

                                                                      Page 230
                                                              C:\Users\nhuliyap\AppData\Local\Temp\gh_00002rs1.s
000004ef 9c            13010 	.byte	156
000004f0 08            13011 	.byte	8
000004f1 40            13012 	.byte	64
000004f2 9b            13013 	.byte	155
000004f3 0c            13014 	.byte	12
000004f4 01            13015 	.byte	1
000004f5 00000000*     13016 	.word	.LDW59
000004f9 00            13017 	.byte	0
000004fa 00            13018 	.byte	0
000004fb 00            13019 	.byte	0
                       13020 .LDW_unq_52:
                       13021 	.section	.debug_line
000010c0 000502        13022 	.byte	0,5,2
000010c3 00000000*     13023 	.word	_ucLearnID
000010c7 03            13024 	.byte	3
000010c8 cd06          13025 	.byte	205,6
000010ca 02            13026 	.byte	2
000010cb 00            13027 	.byte	0
000010cc 01            13028 	.byte	1
000010cd 06            13029 	.byte	6
000010ce 000502        13030 	.byte	0,5,2
000010d1 00000000*     13031 	.word	.LDWlin186
000010d5 0d            13032 	.byte	13
000010d6 000502        13033 	.byte	0,5,2
000010d9 00000000*     13034 	.word	.LDWlin187
000010dd 02            13035 	.byte	2
000010de 00            13036 	.byte	0
000010df 0b            13037 	.byte	11
000010e0 0b            13038 	.byte	11
000010e1 0b            13039 	.byte	11
000010e2 000502        13040 	.byte	0,5,2
000010e5 00000000*     13041 	.word	.LDWlin188
000010e9 02            13042 	.byte	2
000010ea 00            13043 	.byte	0
000010eb 0b            13044 	.byte	11
000010ec 000502        13045 	.byte	0,5,2
000010ef 00000000*     13046 	.word	.LDWlin189
000010f3 0b            13047 	.byte	11
000010f4 0b            13048 	.byte	11
000010f5 0b            13049 	.byte	11
000010f6 000502        13050 	.byte	0,5,2
000010f9 00000000*     13051 	.word	.LDWlin190
000010fd 02            13052 	.byte	2
000010fe 00            13053 	.byte	0
000010ff 0b            13054 	.byte	11
00001100 000502        13055 	.byte	0,5,2
00001103 00000000*     13056 	.word	.LDWlin191
00001107 0d            13057 	.byte	13
00001108 000502        13058 	.byte	0,5,2
0000110b 00000000*     13059 	.word	.LDWlin192
0000110f 02            13060 	.byte	2
00001110 00            13061 	.byte	0
00001111 0b            13062 	.byte	11
00001112 000502        13063 	.byte	0,5,2
00001115 00000000*     13064 	.word	.LDWlin193
00001119 02            13065 	.byte	2
0000111a 00            13066 	.byte	0
0000111b 0b            13067 	.byte	11
0000111c 000502        13068 	.byte	0,5,2
0000111f 00000000*     13069 	.word	.LDWlin194
00001123 02            13070 	.byte	2

                                                                      Page 231
                                                              C:\Users\nhuliyap\AppData\Local\Temp\gh_00002rs1.s
00001124 00            13071 	.byte	0
00001125 0b            13072 	.byte	11
00001126 000502        13073 	.byte	0,5,2
00001129 00000000*     13074 	.word	.LDWlin195
0000112d 0c            13075 	.byte	12
0000112e 000502        13076 	.byte	0,5,2
00001131 00000000*     13077 	.word	.LDWlin196
00001135 0c            13078 	.byte	12
00001136 02            13079 	.byte	2
00001137 00            13080 	.byte	0
00001138 0b            13081 	.byte	11
00001139 02            13082 	.byte	2
0000113a 00            13083 	.byte	0
0000113b 0b            13084 	.byte	11
0000113c 000502        13085 	.byte	0,5,2
0000113f 00000000*     13086 	.word	.LDWlin197
00001143 02            13087 	.byte	2
00001144 00            13088 	.byte	0
00001145 0b            13089 	.byte	11
00001146 000502        13090 	.byte	0,5,2
00001149 00000000*     13091 	.word	.LDWlin198
0000114d 0c            13092 	.byte	12
0000114e 000502        13093 	.byte	0,5,2
00001151 00000000*     13094 	.word	.LDWlin199
00001155 02            13095 	.byte	2
00001156 00            13096 	.byte	0
00001157 0b            13097 	.byte	11
00001158 000502        13098 	.byte	0,5,2
0000115b 00000000*     13099 	.word	.LDWlin200
0000115f 0c            13100 	.byte	12
00001160 000502        13101 	.byte	0,5,2
00001163 00000000*     13102 	.word	.LDWlin201
00001167 0c            13103 	.byte	12
00001168 000502        13104 	.byte	0,5,2
0000116b 00000000*     13105 	.word	.LDWlin202
0000116f 0d            13106 	.byte	13
00001170 06            13107 	.byte	6
00001171 000502        13108 	.byte	0,5,2
00001174 00000000*     13109 	.word	.LDWlin203
00001178 0d            13110 	.byte	13
00001179 02            13111 	.byte	2
0000117a 00            13112 	.byte	0
0000117b 06            13113 	.byte	6
0000117c 03            13114 	.byte	3
0000117d 07            13115 	.byte	7
0000117e 02            13116 	.byte	2
0000117f 00            13117 	.byte	0
00001180 01            13118 	.byte	1
00001181 02            13119 	.byte	2
00001182 00            13120 	.byte	0
00001183 0b            13121 	.byte	11
00001184 02            13122 	.byte	2
00001185 00            13123 	.byte	0
00001186 0b            13124 	.byte	11
00001187 0b            13125 	.byte	11
00001188 0b            13126 	.byte	11
00001189 06            13127 	.byte	6
0000118a 000502        13128 	.byte	0,5,2
0000118d 00000000*     13129 	.word	.LDWlin204
00001191 03            13130 	.byte	3
00001192 76            13131 	.byte	118

                                                                      Page 232
                                                              C:\Users\nhuliyap\AppData\Local\Temp\gh_00002rs1.s
00001193 02            13132 	.byte	2
00001194 00            13133 	.byte	0
00001195 01            13134 	.byte	1
00001196 06            13135 	.byte	6
00001197 03            13136 	.byte	3
00001198 0a            13137 	.byte	10
00001199 02            13138 	.byte	2
0000119a 00            13139 	.byte	0
0000119b 01            13140 	.byte	1
0000119c 0b            13141 	.byte	11
0000119d 06            13142 	.byte	6
0000119e 000502        13143 	.byte	0,5,2
000011a1 00000000*     13144 	.word	.LDWlin205
000011a5 03            13145 	.byte	3
000011a6 76            13146 	.byte	118
000011a7 02            13147 	.byte	2
000011a8 00            13148 	.byte	0
000011a9 01            13149 	.byte	1
000011aa 06            13150 	.byte	6
000011ab 03            13151 	.byte	3
000011ac 0b            13152 	.byte	11
000011ad 02            13153 	.byte	2
000011ae 00            13154 	.byte	0
000011af 01            13155 	.byte	1
000011b0 06            13156 	.byte	6
000011b1 000502        13157 	.byte	0,5,2
000011b4 00000000*     13158 	.word	.LDWlin206
000011b8 03            13159 	.byte	3
000011b9 78            13160 	.byte	120
000011ba 02            13161 	.byte	2
000011bb 00            13162 	.byte	0
000011bc 01            13163 	.byte	1
000011bd 06            13164 	.byte	6
000011be 03            13165 	.byte	3
000011bf 0b            13166 	.byte	11
000011c0 02            13167 	.byte	2
000011c1 00            13168 	.byte	0
000011c2 01            13169 	.byte	1
000011c3 000502        13170 	.byte	0,5,2
000011c6 00000000*     13171 	.word	.LDWlin207
000011ca 0c            13172 	.byte	12
000011cb 02            13173 	.byte	2
000011cc 00            13174 	.byte	0
000011cd 0b            13175 	.byte	11
000011ce 02            13176 	.byte	2
000011cf 00            13177 	.byte	0
000011d0 0b            13178 	.byte	11
000011d1 0b            13179 	.byte	11
000011d2 0b            13180 	.byte	11
000011d3 02            13181 	.byte	2
000011d4 00            13182 	.byte	0
000011d5 0b            13183 	.byte	11
000011d6 02            13184 	.byte	2
000011d7 00            13185 	.byte	0
000011d8 0b            13186 	.byte	11
000011d9 02            13187 	.byte	2
000011da 00            13188 	.byte	0
000011db 0b            13189 	.byte	11
000011dc 02            13190 	.byte	2
000011dd 00            13191 	.byte	0
000011de 0b            13192 	.byte	11

                                                                      Page 233
                                                              C:\Users\nhuliyap\AppData\Local\Temp\gh_00002rs1.s
000011df 06            13193 	.byte	6
000011e0 02            13194 	.byte	2
000011e1 04            13195 	.byte	4
000011e2 02            13196 	.byte	2
000011e3 04            13197 	.byte	4
000011e4 000101        13198 	.byte	0,1,1
                       13199 	.section	.debug_info
                       13200 .LDW_4de0d60:
000023f4 0f            13201 	.byte	15
000023f5 7074496e7075  13202 	.strz	"ptInputWA"
000023fb 74574100 
000023ff ce06          13203 	.byte	206,6
00002401 14            13204 	.byte	20
00002402 01            13205 	.byte	1
00002403 00000000*     13206 	.word	.LDW_4dce080
00002407 00            13207 	.byte	0
00002408 016b          13208 	.byte	1,107
                       13209 
                       13210 .LDW_4de0020:
0000240a 1d            13211 	.byte	29
0000240b 00000000*     13212 	.word	.LDW49
0000240f 00000000*     13213 	.word	.LDW59
                       13214 
                       13215 .LDW_4de09f0:
00002413 04            13216 	.byte	4
00002414 75736848656c  13217 	.strz	"ushHelp"
0000241a 7000 
0000241c cf06          13218 	.byte	207,6
0000241e 13            13219 	.byte	19
0000241f 01            13220 	.byte	1
00002420 00000000*     13221 	.word	.LDW_4946ac8
00002424 00            13222 	.byte	0
00002425 00            13223 	.byte	0
00002426 016c          13224 	.byte	1,108
                       13225 
                       13226 .LDW_4de0788:
00002428 04            13227 	.byte	4
00002429 756343757249  13228 	.strz	"ucCurID"
0000242f 4400 
00002431 d006          13229 	.byte	208,6
00002433 12            13230 	.byte	18
00002434 01            13231 	.byte	1
00002435 00000000*     13232 	.word	.LDW_4946da0
00002439 00            13233 	.byte	0
0000243a 00            13234 	.byte	0
0000243b 016b          13235 	.byte	1,107
                       13236 
0000243d 00            13237 	.byte	0
                       13238 
0000243e 00            13239 	.byte	0
                       13240 
                       13241 .LDW_4dcd250:
0000243f 14            13242 	.byte	20
00002440 75635741544f  13243 	.strz	"ucWATO"
00002446 00 
00002447 9007          13244 	.byte	144,7
00002449 0f            13245 	.byte	15
0000244a 01            13246 	.byte	1
0000244b 00000000*     13247 	.word	.LDW_4946da0
0000244f 00000000*     13248 	.word	_ucWATO
00002453 00000000*     13249 	.word	___ghs_eofn_ucWATO

                                                                      Page 234
                                                              C:\Users\nhuliyap\AppData\Local\Temp\gh_00002rs1.s
00002457 0153          13250 	.byte	1,83
00002459 828080e00b    13251 	.byte	130,128,128,224,11
0000245e 14            13252 	.byte	20
0000245f 03            13253 	.byte	3
00002460 14            13254 	.byte	20
00002461 00            13255 	.byte	0
00002462 00            13256 	.byte	0
00002463 00            13257 	.byte	0
00002464 01            13258 	.byte	1
00002465 01            13259 	.byte	1
00002466 00            13260 	.byte	0
00002467 01            13261 	.byte	1
                       13262 
                       13263 	.section	.debug_frame
                       13264 .LDW_4fb7ad8:
000004fc 00000000*     13265 	.word	.LDW_unq_54-.LDW_unq_53
                       13266 .LDW_unq_53:
00000500 00000000*     13267 	.word	.LDW_4da5d48
00000504 00000000*     13268 	.word	_ucWATO
00000508 00000000*     13269 	.word	___ghs_eofn_ucWATO-_ucWATO
0000050c 44            13270 	.byte	68
0000050d 9f            13271 	.byte	159
0000050e 00            13272 	.byte	0
0000050f 40            13273 	.byte	64
00000510 9d            13274 	.byte	157
00000511 04            13275 	.byte	4
00000512 40            13276 	.byte	64
00000513 9c            13277 	.byte	156
00000514 08            13278 	.byte	8
00000515 40            13279 	.byte	64
00000516 9b            13280 	.byte	155
00000517 0c            13281 	.byte	12
00000518 40            13282 	.byte	64
00000519 9a            13283 	.byte	154
0000051a 10            13284 	.byte	16
0000051b 01            13285 	.byte	1
0000051c 00000000*     13286 	.word	.LDW99
                       13287 .LDW_unq_54:
                       13288 	.section	.debug_line
000011e7 000502        13289 	.byte	0,5,2
000011ea 00000000*     13290 	.word	_ucWATO
000011ee 03            13291 	.byte	3
000011ef 9007          13292 	.byte	144,7
000011f1 02            13293 	.byte	2
000011f2 00            13294 	.byte	0
000011f3 01            13295 	.byte	1
000011f4 06            13296 	.byte	6
000011f5 000502        13297 	.byte	0,5,2
000011f8 00000000*     13298 	.word	.LDWlin215
000011fc 0c            13299 	.byte	12
000011fd 13            13300 	.byte	19
000011fe 000502        13301 	.byte	0,5,2
00001201 00000000*     13302 	.word	.LDWlin216
00001205 02            13303 	.byte	2
00001206 00            13304 	.byte	0
00001207 0b            13305 	.byte	11
00001208 000502        13306 	.byte	0,5,2
0000120b 00000000*     13307 	.word	.LDWlin217
0000120f 03            13308 	.byte	3
00001210 04            13309 	.byte	4
00001211 02            13310 	.byte	2

                                                                      Page 235
                                                              C:\Users\nhuliyap\AppData\Local\Temp\gh_00002rs1.s
00001212 00            13311 	.byte	0
00001213 01            13312 	.byte	1
00001214 000502        13313 	.byte	0,5,2
00001217 00000000*     13314 	.word	.LDWlin218
0000121b 0b            13315 	.byte	11
0000121c 0b            13316 	.byte	11
0000121d 000502        13317 	.byte	0,5,2
00001220 00000000*     13318 	.word	.LDWlin219
00001224 02            13319 	.byte	2
00001225 00            13320 	.byte	0
00001226 0b            13321 	.byte	11
00001227 000502        13322 	.byte	0,5,2
0000122a 00000000*     13323 	.word	.LDWlin220
0000122e 0c            13324 	.byte	12
0000122f 000502        13325 	.byte	0,5,2
00001232 00000000*     13326 	.word	.LDWlin221
00001236 0c            13327 	.byte	12
00001237 02            13328 	.byte	2
00001238 00            13329 	.byte	0
00001239 0b            13330 	.byte	11
0000123a 000502        13331 	.byte	0,5,2
0000123d 00000000*     13332 	.word	.LDWlin222
00001241 02            13333 	.byte	2
00001242 00            13334 	.byte	0
00001243 0b            13335 	.byte	11
00001244 000502        13336 	.byte	0,5,2
00001247 00000000*     13337 	.word	.LDWlin223
0000124b 0b            13338 	.byte	11
0000124c 02            13339 	.byte	2
0000124d 00            13340 	.byte	0
0000124e 0b            13341 	.byte	11
0000124f 02            13342 	.byte	2
00001250 00            13343 	.byte	0
00001251 0b            13344 	.byte	11
00001252 000502        13345 	.byte	0,5,2
00001255 00000000*     13346 	.word	.LDWlin224
00001259 02            13347 	.byte	2
0000125a 00            13348 	.byte	0
0000125b 0b            13349 	.byte	11
0000125c 000502        13350 	.byte	0,5,2
0000125f 00000000*     13351 	.word	.LDWlin225
00001263 0b            13352 	.byte	11
00001264 000502        13353 	.byte	0,5,2
00001267 00000000*     13354 	.word	.LDWlin226
0000126b 0c            13355 	.byte	12
0000126c 0b            13356 	.byte	11
0000126d 0b            13357 	.byte	11
0000126e 000502        13358 	.byte	0,5,2
00001271 00000000*     13359 	.word	.LDWlin227
00001275 02            13360 	.byte	2
00001276 00            13361 	.byte	0
00001277 0b            13362 	.byte	11
00001278 000502        13363 	.byte	0,5,2
0000127b 00000000*     13364 	.word	.LDWlin228
0000127f 02            13365 	.byte	2
00001280 00            13366 	.byte	0
00001281 0b            13367 	.byte	11
00001282 000502        13368 	.byte	0,5,2
00001285 00000000*     13369 	.word	.LDWlin229
00001289 02            13370 	.byte	2
0000128a 00            13371 	.byte	0

                                                                      Page 236
                                                              C:\Users\nhuliyap\AppData\Local\Temp\gh_00002rs1.s
0000128b 0c            13372 	.byte	12
0000128c 0b            13373 	.byte	11
0000128d 0b            13374 	.byte	11
0000128e 02            13375 	.byte	2
0000128f 00            13376 	.byte	0
00001290 0c            13377 	.byte	12
00001291 0b            13378 	.byte	11
00001292 0c            13379 	.byte	12
00001293 02            13380 	.byte	2
00001294 00            13381 	.byte	0
00001295 0b            13382 	.byte	11
00001296 02            13383 	.byte	2
00001297 00            13384 	.byte	0
00001298 0b            13385 	.byte	11
00001299 0b            13386 	.byte	11
0000129a 0b            13387 	.byte	11
0000129b 000502        13388 	.byte	0,5,2
0000129e 00000000*     13389 	.word	.LDWlin230
000012a2 0b            13390 	.byte	11
000012a3 02            13391 	.byte	2
000012a4 00            13392 	.byte	0
000012a5 0b            13393 	.byte	11
000012a6 0b            13394 	.byte	11
000012a7 0b            13395 	.byte	11
000012a8 000502        13396 	.byte	0,5,2
000012ab 00000000*     13397 	.word	.LDWlin231
000012af 0c            13398 	.byte	12
000012b0 02            13399 	.byte	2
000012b1 00            13400 	.byte	0
000012b2 0b            13401 	.byte	11
000012b3 02            13402 	.byte	2
000012b4 00            13403 	.byte	0
000012b5 0b            13404 	.byte	11
000012b6 0b            13405 	.byte	11
000012b7 0b            13406 	.byte	11
000012b8 000502        13407 	.byte	0,5,2
000012bb 00000000*     13408 	.word	.LDWlin232
000012bf 0b            13409 	.byte	11
000012c0 02            13410 	.byte	2
000012c1 00            13411 	.byte	0
000012c2 0b            13412 	.byte	11
000012c3 000502        13413 	.byte	0,5,2
000012c6 00000000*     13414 	.word	.LDWlin233
000012ca 02            13415 	.byte	2
000012cb 00            13416 	.byte	0
000012cc 0b            13417 	.byte	11
000012cd 2b            13418 	.byte	43
000012ce 02            13419 	.byte	2
000012cf 00            13420 	.byte	0
000012d0 0b            13421 	.byte	11
000012d1 06            13422 	.byte	6
000012d2 02            13423 	.byte	2
000012d3 02            13424 	.byte	2
000012d4 02            13425 	.byte	2
000012d5 04            13426 	.byte	4
000012d6 000101        13427 	.byte	0,1,1
                       13428 	.section	.debug_info
                       13429 .LDW_4de0080:
00002468 1d            13430 	.byte	29
00002469 00000000*     13431 	.word	.LDW89
0000246d 00000000*     13432 	.word	.LDW99

                                                                      Page 237
                                                              C:\Users\nhuliyap\AppData\Local\Temp\gh_00002rs1.s
                       13433 
                       13434 .LDW_4de0c00:
00002471 04            13435 	.byte	4
00002472 75736848656c  13436 	.strz	"ushHelp"
00002478 7000 
0000247a 9207          13437 	.byte	146,7
0000247c 13            13438 	.byte	19
0000247d 01            13439 	.byte	1
0000247e 00000000*     13440 	.word	.LDW_4946ac8
00002482 00            13441 	.byte	0
00002483 00            13442 	.byte	0
00002484 016a          13443 	.byte	1,106
                       13444 
                       13445 .LDW_4de0b50:
00002486 04            13446 	.byte	4
00002487 756352657400  13447 	.strz	"ucRet"
0000248d 9307          13448 	.byte	147,7
0000248f 12            13449 	.byte	18
00002490 01            13450 	.byte	1
00002491 00000000*     13451 	.word	.LDW_4946da0
00002495 00            13452 	.byte	0
00002496 00            13453 	.byte	0
00002497 016b          13454 	.byte	1,107
                       13455 
00002499 00            13456 	.byte	0
                       13457 
0000249a 00            13458 	.byte	0
                       13459 
                       13460 .LDW_4dcd2e8:
0000249b 14            13461 	.byte	20
0000249c 756353657449  13462 	.strz	"ucSetID"
000024a2 4400 
000024a4 cc07          13463 	.byte	204,7
000024a6 07            13464 	.byte	7
000024a7 01            13465 	.byte	1
000024a8 00000000*     13466 	.word	.LDW_4987d30
000024ac 00000000*     13467 	.word	_ucSetID
000024b0 00000000*     13468 	.word	___ghs_eofn_ucSetID
000024b4 0153          13469 	.byte	1,83
000024b6 828080f80b    13470 	.byte	130,128,128,248,11
000024bb 1c            13471 	.byte	28
000024bc 03            13472 	.byte	3
000024bd 1c            13473 	.byte	28
000024be 00            13474 	.byte	0
000024bf 00            13475 	.byte	0
000024c0 00            13476 	.byte	0
000024c1 01            13477 	.byte	1
000024c2 01            13478 	.byte	1
000024c3 00            13479 	.byte	0
000024c4 01            13480 	.byte	1
                       13481 
                       13482 	.section	.debug_frame
                       13483 .LDW_4fb7fd8:
00000520 00000000*     13484 	.word	.LDW_unq_56-.LDW_unq_55
                       13485 .LDW_unq_55:
00000524 00000000*     13486 	.word	.LDW_4da5d48
00000528 00000000*     13487 	.word	_ucSetID
0000052c 00000000*     13488 	.word	___ghs_eofn_ucSetID-_ucSetID
00000530 44            13489 	.byte	68
00000531 9f            13490 	.byte	159
00000532 00            13491 	.byte	0

                                                                      Page 238
                                                              C:\Users\nhuliyap\AppData\Local\Temp\gh_00002rs1.s
00000533 40            13492 	.byte	64
00000534 9d            13493 	.byte	157
00000535 04            13494 	.byte	4
00000536 40            13495 	.byte	64
00000537 9c            13496 	.byte	156
00000538 08            13497 	.byte	8
00000539 40            13498 	.byte	64
0000053a 9b            13499 	.byte	155
0000053b 0c            13500 	.byte	12
0000053c 40            13501 	.byte	64
0000053d 9a            13502 	.byte	154
0000053e 10            13503 	.byte	16
0000053f 40            13504 	.byte	64
00000540 99            13505 	.byte	153
00000541 14            13506 	.byte	20
00000542 40            13507 	.byte	64
00000543 98            13508 	.byte	152
00000544 18            13509 	.byte	24
00000545 01            13510 	.byte	1
00000546 00000000*     13511 	.word	.LDW701
0000054a 00            13512 	.byte	0
0000054b 00            13513 	.byte	0
                       13514 .LDW_unq_56:
                       13515 	.section	.debug_line
000012d9 000502        13516 	.byte	0,5,2
000012dc 00000000*     13517 	.word	_ucSetID
000012e0 03            13518 	.byte	3
000012e1 cd07          13519 	.byte	205,7
000012e3 02            13520 	.byte	2
000012e4 00            13521 	.byte	0
000012e5 01            13522 	.byte	1
000012e6 06            13523 	.byte	6
000012e7 000502        13524 	.byte	0,5,2
000012ea 00000000*     13525 	.word	.LDWlin262
000012ee 0d            13526 	.byte	13
000012ef 03            13527 	.byte	3
000012f0 7f            13528 	.byte	127
000012f1 02            13529 	.byte	2
000012f2 04            13530 	.byte	4
000012f3 01            13531 	.byte	1
000012f4 000502        13532 	.byte	0,5,2
000012f7 00000000*     13533 	.word	.LDWlin263
000012fb 0b            13534 	.byte	11
000012fc 0b            13535 	.byte	11
000012fd 000502        13536 	.byte	0,5,2
00001300 00000000*     13537 	.word	.LDWlin264
00001304 0b            13538 	.byte	11
00001305 000502        13539 	.byte	0,5,2
00001308 00000000*     13540 	.word	.LDWlin265
0000130c 0b            13541 	.byte	11
0000130d 000502        13542 	.byte	0,5,2
00001310 00000000*     13543 	.word	.LDWlin266
00001314 0b            13544 	.byte	11
00001315 0b            13545 	.byte	11
00001316 0b            13546 	.byte	11
00001317 000502        13547 	.byte	0,5,2
0000131a 00000000*     13548 	.word	.LDWlin267
0000131e 0d            13549 	.byte	13
0000131f 000502        13550 	.byte	0,5,2
00001322 00000000*     13551 	.word	.LDWlin268
00001326 0d            13552 	.byte	13

                                                                      Page 239
                                                              C:\Users\nhuliyap\AppData\Local\Temp\gh_00002rs1.s
00001327 000502        13553 	.byte	0,5,2
0000132a 00000000*     13554 	.word	.LDWlin269
0000132e 02            13555 	.byte	2
0000132f 00            13556 	.byte	0
00001330 0b            13557 	.byte	11
00001331 000502        13558 	.byte	0,5,2
00001334 00000000*     13559 	.word	.LDWlin270
00001338 0c            13560 	.byte	12
00001339 02            13561 	.byte	2
0000133a 02            13562 	.byte	2
0000133b 0b            13563 	.byte	11
0000133c 02            13564 	.byte	2
0000133d 02            13565 	.byte	2
0000133e 000502        13566 	.byte	0,5,2
00001341 00000000*     13567 	.word	.LDWlin271
00001345 0b            13568 	.byte	11
00001346 000502        13569 	.byte	0,5,2
00001349 00000000*     13570 	.word	.LDWlin272
0000134d 02            13571 	.byte	2
0000134e 00            13572 	.byte	0
0000134f 0c            13573 	.byte	12
00001350 02            13574 	.byte	2
00001351 00            13575 	.byte	0
00001352 03            13576 	.byte	3
00001353 7d            13577 	.byte	125
00001354 02            13578 	.byte	2
00001355 00            13579 	.byte	0
00001356 01            13580 	.byte	1
00001357 000502        13581 	.byte	0,5,2
0000135a 00000000*     13582 	.word	.LDWlin273
0000135e 03            13583 	.byte	3
0000135f 0a            13584 	.byte	10
00001360 02            13585 	.byte	2
00001361 00            13586 	.byte	0
00001362 01            13587 	.byte	1
00001363 0b            13588 	.byte	11
00001364 0b            13589 	.byte	11
00001365 3b            13590 	.byte	59
00001366 000502        13591 	.byte	0,5,2
00001369 00000000*     13592 	.word	.LDWlin274
0000136d 03            13593 	.byte	3
0000136e 77            13594 	.byte	119
0000136f 02            13595 	.byte	2
00001370 00            13596 	.byte	0
00001371 01            13597 	.byte	1
00001372 0b            13598 	.byte	11
00001373 000502        13599 	.byte	0,5,2
00001376 00000000*     13600 	.word	.LDWlin275
0000137a 02            13601 	.byte	2
0000137b 00            13602 	.byte	0
0000137c 0c            13603 	.byte	12
0000137d 3b            13604 	.byte	59
0000137e 000502        13605 	.byte	0,5,2
00001381 00000000*     13606 	.word	.LDWlin276
00001385 03            13607 	.byte	3
00001386 1f            13608 	.byte	31
00001387 02            13609 	.byte	2
00001388 00            13610 	.byte	0
00001389 01            13611 	.byte	1
0000138a 0b            13612 	.byte	11
0000138b 02            13613 	.byte	2

                                                                      Page 240
                                                              C:\Users\nhuliyap\AppData\Local\Temp\gh_00002rs1.s
0000138c 00            13614 	.byte	0
0000138d 0c            13615 	.byte	12
0000138e 1b            13616 	.byte	27
0000138f 000502        13617 	.byte	0,5,2
00001392 00000000*     13618 	.word	.LDWlin277
00001396 03            13619 	.byte	3
00001397 70            13620 	.byte	112
00001398 02            13621 	.byte	2
00001399 00            13622 	.byte	0
0000139a 01            13623 	.byte	1
0000139b 02            13624 	.byte	2
0000139c 00            13625 	.byte	0
0000139d 0b            13626 	.byte	11
0000139e 0b            13627 	.byte	11
0000139f 0b            13628 	.byte	11
000013a0 2c            13629 	.byte	44
000013a1 0b            13630 	.byte	11
000013a2 0b            13631 	.byte	11
000013a3 000502        13632 	.byte	0,5,2
000013a6 00000000*     13633 	.word	.LDWlin278
000013aa 0c            13634 	.byte	12
000013ab 000502        13635 	.byte	0,5,2
000013ae 00000000*     13636 	.word	.LDWlin279
000013b2 02            13637 	.byte	2
000013b3 00            13638 	.byte	0
000013b4 0c            13639 	.byte	12
000013b5 02            13640 	.byte	2
000013b6 00            13641 	.byte	0
000013b7 03            13642 	.byte	3
000013b8 7c            13643 	.byte	124
000013b9 02            13644 	.byte	2
000013ba 00            13645 	.byte	0
000013bb 01            13646 	.byte	1
000013bc 000502        13647 	.byte	0,5,2
000013bf 00000000*     13648 	.word	.LDWlin280
000013c3 03            13649 	.byte	3
000013c4 0b            13650 	.byte	11
000013c5 02            13651 	.byte	2
000013c6 00            13652 	.byte	0
000013c7 01            13653 	.byte	1
000013c8 0b            13654 	.byte	11
000013c9 0b            13655 	.byte	11
000013ca 000502        13656 	.byte	0,5,2
000013cd 00000000*     13657 	.word	.LDWlin281
000013d1 02            13658 	.byte	2
000013d2 00            13659 	.byte	0
000013d3 0b            13660 	.byte	11
000013d4 06            13661 	.byte	6
000013d5 03            13662 	.byte	3
000013d6 60            13663 	.byte	96
000013d7 02            13664 	.byte	2
000013d8 04            13665 	.byte	4
000013d9 01            13666 	.byte	1
000013da 03            13667 	.byte	3
000013db 79            13668 	.byte	121
000013dc 02            13669 	.byte	2
000013dd 00            13670 	.byte	0
000013de 01            13671 	.byte	1
000013df 03            13672 	.byte	3
000013e0 05            13673 	.byte	5
000013e1 02            13674 	.byte	2

                                                                      Page 241
                                                              C:\Users\nhuliyap\AppData\Local\Temp\gh_00002rs1.s
000013e2 00            13675 	.byte	0
000013e3 01            13676 	.byte	1
000013e4 03            13677 	.byte	3
000013e5 23            13678 	.byte	35
000013e6 02            13679 	.byte	2
000013e7 00            13680 	.byte	0
000013e8 01            13681 	.byte	1
000013e9 03            13682 	.byte	3
000013ea 7b            13683 	.byte	123
000013eb 02            13684 	.byte	2
000013ec 00            13685 	.byte	0
000013ed 01            13686 	.byte	1
000013ee 03            13687 	.byte	3
000013ef 04            13688 	.byte	4
000013f0 02            13689 	.byte	2
000013f1 00            13690 	.byte	0
000013f2 01            13691 	.byte	1
000013f3 06            13692 	.byte	6
000013f4 3c            13693 	.byte	60
000013f5 02            13694 	.byte	2
000013f6 00            13695 	.byte	0
000013f7 0b            13696 	.byte	11
000013f8 02            13697 	.byte	2
000013f9 00            13698 	.byte	0
000013fa 0b            13699 	.byte	11
000013fb 06            13700 	.byte	6
000013fc 000502        13701 	.byte	0,5,2
000013ff 00000000*     13702 	.word	.LDWlin282
00001403 03            13703 	.byte	3
00001404 5d            13704 	.byte	93
00001405 02            13705 	.byte	2
00001406 00            13706 	.byte	0
00001407 01            13707 	.byte	1
00001408 06            13708 	.byte	6
00001409 03            13709 	.byte	3
0000140a 23            13710 	.byte	35
0000140b 02            13711 	.byte	2
0000140c 00            13712 	.byte	0
0000140d 01            13713 	.byte	1
0000140e 0b            13714 	.byte	11
0000140f 06            13715 	.byte	6
00001410 000502        13716 	.byte	0,5,2
00001413 00000000*     13717 	.word	.LDWlin283
00001417 03            13718 	.byte	3
00001418 5e            13719 	.byte	94
00001419 02            13720 	.byte	2
0000141a 00            13721 	.byte	0
0000141b 01            13722 	.byte	1
0000141c 06            13723 	.byte	6
0000141d 03            13724 	.byte	3
0000141e 24            13725 	.byte	36
0000141f 02            13726 	.byte	2
00001420 00            13727 	.byte	0
00001421 01            13728 	.byte	1
00001422 06            13729 	.byte	6
00001423 000502        13730 	.byte	0,5,2
00001426 00000000*     13731 	.word	.LDWlin284
0000142a 03            13732 	.byte	3
0000142b 5d            13733 	.byte	93
0000142c 02            13734 	.byte	2
0000142d 00            13735 	.byte	0

                                                                      Page 242
                                                              C:\Users\nhuliyap\AppData\Local\Temp\gh_00002rs1.s
0000142e 01            13736 	.byte	1
0000142f 06            13737 	.byte	6
00001430 03            13738 	.byte	3
00001431 24            13739 	.byte	36
00001432 02            13740 	.byte	2
00001433 00            13741 	.byte	0
00001434 01            13742 	.byte	1
00001435 06            13743 	.byte	6
00001436 000502        13744 	.byte	0,5,2
00001439 00000000*     13745 	.word	.LDWlin285
0000143d 03            13746 	.byte	3
0000143e 5f            13747 	.byte	95
0000143f 02            13748 	.byte	2
00001440 00            13749 	.byte	0
00001441 01            13750 	.byte	1
00001442 06            13751 	.byte	6
00001443 0d            13752 	.byte	13
00001444 03            13753 	.byte	3
00001445 22            13754 	.byte	34
00001446 02            13755 	.byte	2
00001447 00            13756 	.byte	0
00001448 01            13757 	.byte	1
00001449 0b            13758 	.byte	11
0000144a 0c            13759 	.byte	12
0000144b 02            13760 	.byte	2
0000144c 00            13761 	.byte	0
0000144d 0b            13762 	.byte	11
0000144e 02            13763 	.byte	2
0000144f 00            13764 	.byte	0
00001450 0b            13765 	.byte	11
00001451 02            13766 	.byte	2
00001452 00            13767 	.byte	0
00001453 0b            13768 	.byte	11
00001454 000502        13769 	.byte	0,5,2
00001457 00000000*     13770 	.word	.LDWlin286
0000145b 02            13771 	.byte	2
0000145c 00            13772 	.byte	0
0000145d 0b            13773 	.byte	11
0000145e 000502        13774 	.byte	0,5,2
00001461 00000000*     13775 	.word	.LDWlin287
00001465 0d            13776 	.byte	13
00001466 06            13777 	.byte	6
00001467 000502        13778 	.byte	0,5,2
0000146a 00000000*     13779 	.word	.LDWlin288
0000146e 03            13780 	.byte	3
0000146f 59            13781 	.byte	89
00001470 02            13782 	.byte	2
00001471 00            13783 	.byte	0
00001472 01            13784 	.byte	1
00001473 06            13785 	.byte	6
00001474 03            13786 	.byte	3
00001475 2a            13787 	.byte	42
00001476 02            13788 	.byte	2
00001477 00            13789 	.byte	0
00001478 01            13790 	.byte	1
00001479 02            13791 	.byte	2
0000147a 00            13792 	.byte	0
0000147b 0b            13793 	.byte	11
0000147c 0b            13794 	.byte	11
0000147d 0c            13795 	.byte	12
0000147e 02            13796 	.byte	2

                                                                      Page 243
                                                              C:\Users\nhuliyap\AppData\Local\Temp\gh_00002rs1.s
0000147f 00            13797 	.byte	0
00001480 0b            13798 	.byte	11
00001481 02            13799 	.byte	2
00001482 00            13800 	.byte	0
00001483 0b            13801 	.byte	11
00001484 06            13802 	.byte	6
00001485 02            13803 	.byte	2
00001486 02            13804 	.byte	2
00001487 02            13805 	.byte	2
00001488 04            13806 	.byte	4
00001489 000101        13807 	.byte	0,1,1
                       13808 	.section	.debug_info
                       13809 .LDW_4de0db8:
000024c5 0f            13810 	.byte	15
000024c6 707432494400  13811 	.strz	"pt2ID"
000024cc cd07          13812 	.byte	205,7
000024ce 0c            13813 	.byte	12
000024cf 01            13814 	.byte	1
000024d0 00000000*     13815 	.word	.LDW_4dce240
000024d4 00            13816 	.byte	0
000024d5 016a          13817 	.byte	1,106
                       13818 
                       13819 .LDW_4de0a48:
000024d7 0f            13820 	.byte	15
000024d8 707432506f73  13821 	.strz	"pt2Pos"
000024de 00 
000024df ce07          13822 	.byte	206,7
000024e1 0b            13823 	.byte	11
000024e2 01            13824 	.byte	1
000024e3 00000000*     13825 	.word	.LDW_4dce278
000024e7 00            13826 	.byte	0
000024e8 0169          13827 	.byte	1,105
                       13828 
                       13829 .LDW_4de0560:
000024ea 1d            13830 	.byte	29
000024eb 00000000*     13831 	.word	.LDW601
000024ef 00000000*     13832 	.word	.LDW701
                       13833 
                       13834 .LDW_4de07e0:
000024f3 04            13835 	.byte	4
000024f4 7538496e6465  13836 	.strz	"u8IndexFromPos"
000024fa 7846726f6d50 
00002500 6f7300 
00002503 cf07          13837 	.byte	207,7
00002505 0a            13838 	.byte	10
00002506 01            13839 	.byte	1
00002507 00000000*     13840 	.word	.LDW_4987d30
0000250b 00            13841 	.byte	0
0000250c 00            13842 	.byte	0
0000250d 0162          13843 	.byte	1,98
                       13844 
                       13845 .LDW_4de0aa0:
0000250f 04            13846 	.byte	4
00002510 7538496e6465  13847 	.strz	"u8IndexFromID"
00002516 7846726f6d49 
0000251c 4400 
0000251e cf07          13848 	.byte	207,7
00002520 1a            13849 	.byte	26
00002521 01            13850 	.byte	1
00002522 00000000*     13851 	.word	.LDW_4987d30
00002526 00            13852 	.byte	0

                                                                      Page 244
                                                              C:\Users\nhuliyap\AppData\Local\Temp\gh_00002rs1.s
00002527 00            13853 	.byte	0
00002528 015a          13854 	.byte	1,90
                       13855 
                       13856 .LDW_4de0998:
0000252a 04            13857 	.byte	4
0000252b 756353746f72  13858 	.strz	"ucStoredIDPosition"
00002531 65644944506f 
00002537 736974696f6e 
0000253d 00 
0000253e cf07          13859 	.byte	207,7
00002540 29            13860 	.byte	41
00002541 01            13861 	.byte	1
00002542 00000000*     13862 	.word	.LDW_4987d30
00002546 00            13863 	.byte	0
00002547 00            13864 	.byte	0
00002548 016d          13865 	.byte	1,109
                       13866 
                       13867 .LDW_4de10d0:
0000254a 04            13868 	.byte	4
0000254b 753852657475  13869 	.strz	"u8ReturnValue"
00002551 726e56616c75 
00002557 6500 
00002559 cf07          13870 	.byte	207,7
0000255b 3d            13871 	.byte	61
0000255c 01            13872 	.byte	1
0000255d 00000000*     13873 	.word	.LDW_4987d30
00002561 00            13874 	.byte	0
00002562 00            13875 	.byte	0
00002563 016c          13876 	.byte	1,108
                       13877 
00002565 00            13878 	.byte	0
                       13879 
00002566 00            13880 	.byte	0
                       13881 
                       13882 .LDW_4dcd8d8:
00002567 14            13883 	.byte	20
00002568 756347657448  13884 	.strz	"ucGetHistoryState"
0000256e 6973746f7279 
00002574 537461746500 
0000257a b308          13885 	.byte	179,8
0000257c 16            13886 	.byte	22
0000257d 01            13887 	.byte	1
0000257e 00000000*     13888 	.word	.LDW_4946da0
00002582 00000000*     13889 	.word	_ucGetHistoryState..C.3A.5C_ECU2.5CECU_Rivian_A1.5CTarget.5Crepo_projects.5CpRealEcu.5CcR_R2023.2E09.2E15.5Cmake.5Coutput.5Cobjects.5CWAlloc.
00002586 00000000*     13890 	.word	___ghs_eofn_ucGetHistoryState
0000258a 0153          13891 	.byte	1,83
0000258c 02            13892 	.byte	2
0000258d 00            13893 	.byte	0
0000258e 02            13894 	.byte	2
0000258f 00            13895 	.byte	0
00002590 00            13896 	.byte	0
00002591 00            13897 	.byte	0
00002592 00            13898 	.byte	0
00002593 00            13899 	.byte	0
00002594 01            13900 	.byte	1
00002595 00            13901 	.byte	0
00002596 01            13902 	.byte	1
                       13903 
                       13904 	.section	.debug_frame
                       13905 .LDW_4fb7558:
0000054c 00000000*     13906 	.word	.LDW_unq_58-.LDW_unq_57

                                                                      Page 245
                                                              C:\Users\nhuliyap\AppData\Local\Temp\gh_00002rs1.s
                       13907 .LDW_unq_57:
00000550 00000000*     13908 	.word	.LDW_4da5d48
00000554 00000000*     13909 	.word	_ucGetHistoryState..C.3A.5C_ECU2.5CECU_Rivian_A1.5CTarget.5Crepo_projects.5CpRealEcu.5CcR_R2023.2E09.2E15.5Cmake.5Coutput.5Cobjects.5CWAlloc.
00000558 00000000*     13910 	.word	___ghs_eofn_ucGetHistoryState-_ucGetHistoryState..C.3A.5C_ECU2.5CECU_Rivian_A1.5CTarget.5Crepo_projects.5CpRealEcu.5CcR_R2023.2E09.2E15.5Cmake.5Coutput.5Cobjects.5CWAlloc.
0000055c 01            13911 	.byte	1
0000055d 00000000*     13912 	.word	.LDW76
00000561 00            13913 	.byte	0
00000562 00            13914 	.byte	0
00000563 00            13915 	.byte	0
                       13916 .LDW_unq_58:
                       13917 	.section	.debug_line
0000148c 000502        13918 	.byte	0,5,2
0000148f 00000000*     13919 	.word	_ucGetHistoryState..C.3A.5C_ECU2.5CECU_Rivian_A1.5CTarget.5Crepo_projects.5CpRealEcu.5CcR_R2023.2E09.2E15.5Cmake.5Coutput.5Cobjects.5CWAlloc.
00001493 03            13920 	.byte	3
00001494 b308          13921 	.byte	179,8
00001496 02            13922 	.byte	2
00001497 00            13923 	.byte	0
00001498 01            13924 	.byte	1
00001499 06            13925 	.byte	6
0000149a 000502        13926 	.byte	0,5,2
0000149d 00000000*     13927 	.word	.LDWlin75
000014a1 0c            13928 	.byte	12
000014a2 1c            13929 	.byte	28
000014a3 03            13930 	.byte	3
000014a4 7e            13931 	.byte	126
000014a5 02            13932 	.byte	2
000014a6 04            13933 	.byte	4
000014a7 01            13934 	.byte	1
000014a8 0b            13935 	.byte	11
000014a9 1b            13936 	.byte	27
000014aa 000502        13937 	.byte	0,5,2
000014ad 00000000*     13938 	.word	.LDWlin76
000014b1 0b            13939 	.byte	11
000014b2 02            13940 	.byte	2
000014b3 08            13941 	.byte	8
000014b4 0b            13942 	.byte	11
000014b5 1b            13943 	.byte	27
000014b6 02            13944 	.byte	2
000014b7 00            13945 	.byte	0
000014b8 03            13946 	.byte	3
000014b9 7d            13947 	.byte	125
000014ba 02            13948 	.byte	2
000014bb 00            13949 	.byte	0
000014bc 01            13950 	.byte	1
000014bd 000502        13951 	.byte	0,5,2
000014c0 00000000*     13952 	.word	.LDWlin77
000014c4 03            13953 	.byte	3
000014c5 04            13954 	.byte	4
000014c6 02            13955 	.byte	2
000014c7 00            13956 	.byte	0
000014c8 01            13957 	.byte	1
000014c9 0b            13958 	.byte	11
000014ca 02            13959 	.byte	2
000014cb 00            13960 	.byte	0
000014cc 0b            13961 	.byte	11
000014cd 02            13962 	.byte	2
000014ce 02            13963 	.byte	2
000014cf 000101        13964 	.byte	0,1,1
                       13965 	.section	.debug_info
                       13966 .LDW_4de0590:
00002597 1d            13967 	.byte	29

                                                                      Page 246
                                                              C:\Users\nhuliyap\AppData\Local\Temp\gh_00002rs1.s
00002598 00000000*     13968 	.word	.LDW66
0000259c 00000000*     13969 	.word	.LDW76
                       13970 
                       13971 .LDW_4de0940:
000025a0 04            13972 	.byte	4
000025a1 6900          13973 	.strz	"i"
000025a3 b508          13974 	.byte	181,8
000025a5 12            13975 	.byte	18
000025a6 01            13976 	.byte	1
000025a7 00000000*     13977 	.word	.LDW_4946da0
000025ab 00            13978 	.byte	0
000025ac 00            13979 	.byte	0
000025ad 0159          13980 	.byte	1,89
                       13981 
                       13982 .LDW_4de08e8:
000025af 04            13983 	.byte	4
000025b0 756352657400  13984 	.strz	"ucRet"
000025b6 b508          13985 	.byte	181,8
000025b8 15            13986 	.byte	21
000025b9 01            13987 	.byte	1
000025ba 00000000*     13988 	.word	.LDW_4946da0
000025be 00            13989 	.byte	0
000025bf 00            13990 	.byte	0
000025c0 015a          13991 	.byte	1,90
                       13992 
000025c2 00            13993 	.byte	0
                       13994 
000025c3 00            13995 	.byte	0
                       13996 
                       13997 .LDW_4e19888:
000025c4 14            13998 	.byte	20
000025c5 5741496e6974  13999 	.strz	"WAInit"
000025cb 00 
000025cc c108          14000 	.byte	193,8
000025ce 0f            14001 	.byte	15
000025cf 01            14002 	.byte	1
000025d0 00000000*     14003 	.word	.LDW_4946da0
000025d4 00000000*     14004 	.word	_WAInit
000025d8 00000000*     14005 	.word	___ghs_eofn_WAInit
000025dc 0153          14006 	.byte	1,83
000025de 828080900b    14007 	.byte	130,128,128,144,11
000025e3 10            14008 	.byte	16
000025e4 03            14009 	.byte	3
000025e5 10            14010 	.byte	16
000025e6 00            14011 	.byte	0
000025e7 00            14012 	.byte	0
000025e8 00            14013 	.byte	0
000025e9 01            14014 	.byte	1
000025ea 01            14015 	.byte	1
000025eb 00            14016 	.byte	0
000025ec 01            14017 	.byte	1
                       14018 
                       14019 	.section	.debug_frame
                       14020 .LDW_4fb7f58:
00000564 00000000*     14021 	.word	.LDW_unq_5a-.LDW_unq_59
                       14022 .LDW_unq_59:
00000568 00000000*     14023 	.word	.LDW_4da5d48
0000056c 00000000*     14024 	.word	_WAInit
00000570 00000000*     14025 	.word	___ghs_eofn_WAInit-_WAInit
00000574 44            14026 	.byte	68
00000575 9f            14027 	.byte	159

                                                                      Page 247
                                                              C:\Users\nhuliyap\AppData\Local\Temp\gh_00002rs1.s
00000576 00            14028 	.byte	0
00000577 40            14029 	.byte	64
00000578 9d            14030 	.byte	157
00000579 04            14031 	.byte	4
0000057a 40            14032 	.byte	64
0000057b 9c            14033 	.byte	156
0000057c 08            14034 	.byte	8
0000057d 40            14035 	.byte	64
0000057e 99            14036 	.byte	153
0000057f 0c            14037 	.byte	12
00000580 01            14038 	.byte	1
00000581 00000000*     14039 	.word	.LDW501
00000585 00            14040 	.byte	0
00000586 00            14041 	.byte	0
00000587 00            14042 	.byte	0
                       14043 .LDW_unq_5a:
                       14044 	.section	.debug_line
000014d2 000502        14045 	.byte	0,5,2
000014d5 00000000*     14046 	.word	_WAInit
000014d9 03            14047 	.byte	3
000014da c108          14048 	.byte	193,8
000014dc 02            14049 	.byte	2
000014dd 00            14050 	.byte	0
000014de 01            14051 	.byte	1
000014df 06            14052 	.byte	6
000014e0 000502        14053 	.byte	0,5,2
000014e3 00000000*     14054 	.word	.LDWlin239
000014e7 0c            14055 	.byte	12
000014e8 000502        14056 	.byte	0,5,2
000014eb 00000000*     14057 	.word	.LDWlin240
000014ef 0c            14058 	.byte	12
000014f0 000502        14059 	.byte	0,5,2
000014f3 00000000*     14060 	.word	.LDWlin241
000014f7 0c            14061 	.byte	12
000014f8 000502        14062 	.byte	0,5,2
000014fb 00000000*     14063 	.word	.LDWlin242
000014ff 0c            14064 	.byte	12
00001500 000502        14065 	.byte	0,5,2
00001503 00000000*     14066 	.word	.LDWlin243
00001507 0c            14067 	.byte	12
00001508 000502        14068 	.byte	0,5,2
0000150b 00000000*     14069 	.word	.LDWlin244
0000150f 0b            14070 	.byte	11
00001510 000502        14071 	.byte	0,5,2
00001513 00000000*     14072 	.word	.LDWlin245
00001517 0c            14073 	.byte	12
00001518 000502        14074 	.byte	0,5,2
0000151b 00000000*     14075 	.word	.LDWlin246
0000151f 0b            14076 	.byte	11
00001520 000502        14077 	.byte	0,5,2
00001523 00000000*     14078 	.word	.LDWlin247
00001527 0b            14079 	.byte	11
00001528 000502        14080 	.byte	0,5,2
0000152b 00000000*     14081 	.word	.LDWlin248
0000152f 0d            14082 	.byte	13
00001530 000502        14083 	.byte	0,5,2
00001533 00000000*     14084 	.word	.LDWlin249
00001537 0d            14085 	.byte	13
00001538 000502        14086 	.byte	0,5,2
0000153b 00000000*     14087 	.word	.LDWlin250
0000153f 02            14088 	.byte	2

                                                                      Page 248
                                                              C:\Users\nhuliyap\AppData\Local\Temp\gh_00002rs1.s
00001540 00            14089 	.byte	0
00001541 0b            14090 	.byte	11
00001542 000502        14091 	.byte	0,5,2
00001545 00000000*     14092 	.word	.LDWlin251
00001549 03            14093 	.byte	3
0000154a 09            14094 	.byte	9
0000154b 02            14095 	.byte	2
0000154c 00            14096 	.byte	0
0000154d 01            14097 	.byte	1
0000154e 23            14098 	.byte	35
0000154f 1b            14099 	.byte	27
00001550 13            14100 	.byte	19
00001551 13            14101 	.byte	19
00001552 13            14102 	.byte	19
00001553 15            14103 	.byte	21
00001554 15            14104 	.byte	21
00001555 1b            14105 	.byte	27
00001556 1c            14106 	.byte	28
00001557 13            14107 	.byte	19
00001558 03            14108 	.byte	3
00001559 77            14109 	.byte	119
0000155a 02            14110 	.byte	2
0000155b 0e            14111 	.byte	14
0000155c 01            14112 	.byte	1
0000155d 13            14113 	.byte	19
0000155e 1c            14114 	.byte	28
0000155f 13            14115 	.byte	19
00001560 25            14116 	.byte	37
00001561 25            14117 	.byte	37
00001562 02            14118 	.byte	2
00001563 02            14119 	.byte	2
00001564 0b            14120 	.byte	11
00001565 33            14121 	.byte	51
00001566 03            14122 	.byte	3
00001567 7e            14123 	.byte	126
00001568 02            14124 	.byte	2
00001569 06            14125 	.byte	6
0000156a 01            14126 	.byte	1
0000156b 000502        14127 	.byte	0,5,2
0000156e 00000000*     14128 	.word	.LDWlin252
00001572 0d            14129 	.byte	13
00001573 0b            14130 	.byte	11
00001574 000502        14131 	.byte	0,5,2
00001577 00000000*     14132 	.word	.LDWlin253
0000157b 0d            14133 	.byte	13
0000157c 000502        14134 	.byte	0,5,2
0000157f 00000000*     14135 	.word	.LDWlin254
00001583 0d            14136 	.byte	13
00001584 000502        14137 	.byte	0,5,2
00001587 00000000*     14138 	.word	.LDWlin255
0000158b 0d            14139 	.byte	13
0000158c 0b            14140 	.byte	11
0000158d 0b            14141 	.byte	11
0000158e 000502        14142 	.byte	0,5,2
00001591 00000000*     14143 	.word	.LDWlin256
00001595 0d            14144 	.byte	13
00001596 000502        14145 	.byte	0,5,2
00001599 00000000*     14146 	.word	.LDWlin257
0000159d 0d            14147 	.byte	13
0000159e 000502        14148 	.byte	0,5,2
000015a1 00000000*     14149 	.word	.LDWlin258

                                                                      Page 249
                                                              C:\Users\nhuliyap\AppData\Local\Temp\gh_00002rs1.s
000015a5 02            14150 	.byte	2
000015a6 00            14151 	.byte	0
000015a7 0b            14152 	.byte	11
000015a8 000502        14153 	.byte	0,5,2
000015ab 00000000*     14154 	.word	.LDWlin259
000015af 0b            14155 	.byte	11
000015b0 02            14156 	.byte	2
000015b1 00            14157 	.byte	0
000015b2 0b            14158 	.byte	11
000015b3 1b            14159 	.byte	27
000015b4 02            14160 	.byte	2
000015b5 00            14161 	.byte	0
000015b6 0b            14162 	.byte	11
000015b7 1b            14163 	.byte	27
000015b8 14            14164 	.byte	20
000015b9 000502        14165 	.byte	0,5,2
000015bc 00000000*     14166 	.word	.LDWlin260
000015c0 0c            14167 	.byte	12
000015c1 06            14168 	.byte	6
000015c2 000502        14169 	.byte	0,5,2
000015c5 00000000*     14170 	.word	.LDWlin261
000015c9 02            14171 	.byte	2
000015ca 00            14172 	.byte	0
000015cb 02            14173 	.byte	2
000015cc 04            14174 	.byte	4
000015cd 000101        14175 	.byte	0,1,1
                       14176 	.section	.debug_info
                       14177 .LDW_4de0410:
000025ed 1d            14178 	.byte	29
000025ee 00000000*     14179 	.word	.LDW401
000025f2 00000000*     14180 	.word	.LDW501
                       14181 
                       14182 .LDW_4de1180:
000025f6 04            14183 	.byte	4
000025f7 6900          14184 	.strz	"i"
000025f9 c308          14185 	.byte	195,8
000025fb 12            14186 	.byte	18
000025fc 01            14187 	.byte	1
000025fd 00000000*     14188 	.word	.LDW_4946da0
00002601 00            14189 	.byte	0
00002602 00            14190 	.byte	0
00002603 0161          14191 	.byte	1,97
                       14192 
00002605 00            14193 	.byte	0
                       14194 
00002606 00            14195 	.byte	0
                       14196 
                       14197 .LDW_4e19920:
00002607 14            14198 	.byte	20
00002608 474554707563  14199 	.strz	"GETpucStartAdrWP"
0000260e 537461727441 
00002614 6472575000 
00002619 9309          14200 	.byte	147,9
0000261b 10            14201 	.byte	16
0000261c 01            14202 	.byte	1
0000261d 00000000*     14203 	.word	.LDW_4dce0b8
00002621 00000000*     14204 	.word	_GETpucStartAdrWP
00002625 00000000*     14205 	.word	___ghs_eofn_GETpucStartAdrWP
00002629 0153          14206 	.byte	1,83
0000262b 02            14207 	.byte	2
0000262c 00            14208 	.byte	0

                                                                      Page 250
                                                              C:\Users\nhuliyap\AppData\Local\Temp\gh_00002rs1.s
0000262d 02            14209 	.byte	2
0000262e 00            14210 	.byte	0
0000262f 00            14211 	.byte	0
00002630 00            14212 	.byte	0
00002631 00            14213 	.byte	0
00002632 01            14214 	.byte	1
00002633 01            14215 	.byte	1
00002634 00            14216 	.byte	0
00002635 01            14217 	.byte	1
                       14218 
                       14219 	.section	.debug_frame
                       14220 .LDW_4fb7998:
00000588 00000000*     14221 	.word	.LDW_unq_5c-.LDW_unq_5b
                       14222 .LDW_unq_5b:
0000058c 00000000*     14223 	.word	.LDW_4da5d48
00000590 00000000*     14224 	.word	_GETpucStartAdrWP
00000594 00000000*     14225 	.word	___ghs_eofn_GETpucStartAdrWP-_GETpucStartAdrWP
00000598 01            14226 	.byte	1
00000599 00000000*     14227 	.word	.LDW901
0000059d 00            14228 	.byte	0
0000059e 00            14229 	.byte	0
0000059f 00            14230 	.byte	0
                       14231 .LDW_unq_5c:
                       14232 	.section	.debug_line
000015d0 000502        14233 	.byte	0,5,2
000015d3 00000000*     14234 	.word	_GETpucStartAdrWP
000015d7 06            14235 	.byte	6
000015d8 03            14236 	.byte	3
000015d9 9409          14237 	.byte	148,9
000015db 02            14238 	.byte	2
000015dc 00            14239 	.byte	0
000015dd 01            14240 	.byte	1
000015de 06            14241 	.byte	6
000015df 000502        14242 	.byte	0,5,2
000015e2 00000000*     14243 	.word	.LDWlin289
000015e6 02            14244 	.byte	2
000015e7 00            14245 	.byte	0
000015e8 02            14246 	.byte	2
000015e9 02            14247 	.byte	2
000015ea 000101        14248 	.byte	0,1,1
                       14249 	.section	.debug_info
                       14250 .LDW_4de0620:
00002636 1d            14251 	.byte	29
00002637 00000000*     14252 	.word	.LDW801
0000263b 00000000*     14253 	.word	.LDW901
                       14254 
0000263f 00            14255 	.byte	0
                       14256 
00002640 00            14257 	.byte	0
                       14258 
                       14259 .LDW_4e1a338:
00002641 13            14260 	.byte	19
00002642 53657457414d  14261 	.strz	"SetWAModeFix"
00002648 6f6465466978 
0000264e 00 
0000264f 9809          14262 	.byte	152,9
00002651 06            14263 	.byte	6
00002652 01            14264 	.byte	1
00002653 00000000*     14265 	.word	_SetWAModeFix
00002657 00000000*     14266 	.word	___ghs_eofn_SetWAModeFix
0000265b 0153          14267 	.byte	1,83

                                                                      Page 251
                                                              C:\Users\nhuliyap\AppData\Local\Temp\gh_00002rs1.s
0000265d 02            14268 	.byte	2
0000265e 00            14269 	.byte	0
0000265f 02            14270 	.byte	2
00002660 00            14271 	.byte	0
00002661 00            14272 	.byte	0
00002662 00            14273 	.byte	0
00002663 00            14274 	.byte	0
00002664 01            14275 	.byte	1
00002665 01            14276 	.byte	1
00002666 00            14277 	.byte	0
00002667 01            14278 	.byte	1
                       14279 
                       14280 	.section	.debug_frame
                       14281 .LDW_4fb3ba8:
000005a0 00000000*     14282 	.word	.LDW_unq_5e-.LDW_unq_5d
                       14283 .LDW_unq_5d:
000005a4 00000000*     14284 	.word	.LDW_4da5d48
000005a8 00000000*     14285 	.word	_SetWAModeFix
000005ac 00000000*     14286 	.word	___ghs_eofn_SetWAModeFix-_SetWAModeFix
000005b0 01            14287 	.byte	1
000005b1 00000000*     14288 	.word	.LDW111
000005b5 00            14289 	.byte	0
000005b6 00            14290 	.byte	0
000005b7 00            14291 	.byte	0
                       14292 .LDW_unq_5e:
                       14293 	.section	.debug_line
000015ed 000502        14294 	.byte	0,5,2
000015f0 00000000*     14295 	.word	_SetWAModeFix
000015f4 06            14296 	.byte	6
000015f5 03            14297 	.byte	3
000015f6 9909          14298 	.byte	153,9
000015f8 02            14299 	.byte	2
000015f9 00            14300 	.byte	0
000015fa 01            14301 	.byte	1
000015fb 000502        14302 	.byte	0,5,2
000015fe 00000000*     14303 	.word	.LDWlin290
00001602 0b            14304 	.byte	11
00001603 02            14305 	.byte	2
00001604 06            14306 	.byte	6
00001605 000101        14307 	.byte	0,1,1
                       14308 	.section	.debug_info
                       14309 .LDW_4de0440:
00002668 1d            14310 	.byte	29
00002669 00000000*     14311 	.word	.LDW011
0000266d 00000000*     14312 	.word	.LDW111
                       14313 
00002671 00            14314 	.byte	0
                       14315 
00002672 00            14316 	.byte	0
                       14317 
                       14318 .LDW_4e1a7f8:
00002673 13            14319 	.byte	19
00002674 53657457414d  14320 	.strz	"SetWAModeLearn"
0000267a 6f64654c6561 
00002680 726e00 
00002683 a009          14321 	.byte	160,9
00002685 06            14322 	.byte	6
00002686 01            14323 	.byte	1
00002687 00000000*     14324 	.word	_SetWAModeLearn
0000268b 00000000*     14325 	.word	___ghs_eofn_SetWAModeLearn
0000268f 0153          14326 	.byte	1,83

                                                                      Page 252
                                                              C:\Users\nhuliyap\AppData\Local\Temp\gh_00002rs1.s
00002691 02            14327 	.byte	2
00002692 00            14328 	.byte	0
00002693 02            14329 	.byte	2
00002694 00            14330 	.byte	0
00002695 00            14331 	.byte	0
00002696 00            14332 	.byte	0
00002697 00            14333 	.byte	0
00002698 01            14334 	.byte	1
00002699 01            14335 	.byte	1
0000269a 00            14336 	.byte	0
0000269b 01            14337 	.byte	1
                       14338 
                       14339 	.section	.debug_frame
                       14340 .LDW_4fb3aa8:
000005b8 00000000*     14341 	.word	.LDW_unq_60-.LDW_unq_5f
                       14342 .LDW_unq_5f:
000005bc 00000000*     14343 	.word	.LDW_4da5d48
000005c0 00000000*     14344 	.word	_SetWAModeLearn
000005c4 00000000*     14345 	.word	___ghs_eofn_SetWAModeLearn-_SetWAModeLearn
000005c8 01            14346 	.byte	1
000005c9 00000000*     14347 	.word	.LDW311
000005cd 00            14348 	.byte	0
000005ce 00            14349 	.byte	0
000005cf 00            14350 	.byte	0
                       14351 .LDW_unq_60:
                       14352 	.section	.debug_line
00001608 000502        14353 	.byte	0,5,2
0000160b 00000000*     14354 	.word	_SetWAModeLearn
0000160f 06            14355 	.byte	6
00001610 03            14356 	.byte	3
00001611 a109          14357 	.byte	161,9
00001613 02            14358 	.byte	2
00001614 00            14359 	.byte	0
00001615 01            14360 	.byte	1
00001616 000502        14361 	.byte	0,5,2
00001619 00000000*     14362 	.word	.LDWlin291
0000161d 0b            14363 	.byte	11
0000161e 02            14364 	.byte	2
0000161f 06            14365 	.byte	6
00001620 000101        14366 	.byte	0,1,1
                       14367 	.section	.debug_info
                       14368 .LDW_4de0530:
0000269c 1d            14369 	.byte	29
0000269d 00000000*     14370 	.word	.LDW211
000026a1 00000000*     14371 	.word	.LDW311
                       14372 
000026a5 00            14373 	.byte	0
                       14374 
000026a6 00            14375 	.byte	0
                       14376 
                       14377 .LDW_4e19c18:
000026a7 13            14378 	.byte	19
000026a8 496e63417869  14379 	.strz	"IncAxisDetectionError"
000026ae 734465746563 
000026b4 74696f6e4572 
000026ba 726f7200 
000026be a909          14380 	.byte	169,9
000026c0 06            14381 	.byte	6
000026c1 01            14382 	.byte	1
000026c2 00000000*     14383 	.word	_IncAxisDetectionError
000026c6 00000000*     14384 	.word	___ghs_eofn_IncAxisDetectionError

                                                                      Page 253
                                                              C:\Users\nhuliyap\AppData\Local\Temp\gh_00002rs1.s
000026ca 0153          14385 	.byte	1,83
000026cc 02            14386 	.byte	2
000026cd 00            14387 	.byte	0
000026ce 02            14388 	.byte	2
000026cf 00            14389 	.byte	0
000026d0 00            14390 	.byte	0
000026d1 00            14391 	.byte	0
000026d2 00            14392 	.byte	0
000026d3 01            14393 	.byte	1
000026d4 01            14394 	.byte	1
000026d5 00            14395 	.byte	0
000026d6 01            14396 	.byte	1
                       14397 
                       14398 	.section	.debug_frame
                       14399 .LDW_4fb3968:
000005d0 00000000*     14400 	.word	.LDW_unq_62-.LDW_unq_61
                       14401 .LDW_unq_61:
000005d4 00000000*     14402 	.word	.LDW_4da5d48
000005d8 00000000*     14403 	.word	_IncAxisDetectionError
000005dc 00000000*     14404 	.word	___ghs_eofn_IncAxisDetectionError-_IncAxisDetectionError
000005e0 01            14405 	.byte	1
000005e1 00000000*     14406 	.word	.LDW511
000005e5 00            14407 	.byte	0
000005e6 00            14408 	.byte	0
000005e7 00            14409 	.byte	0
                       14410 .LDW_unq_62:
                       14411 	.section	.debug_line
00001623 000502        14412 	.byte	0,5,2
00001626 00000000*     14413 	.word	_IncAxisDetectionError
0000162a 03            14414 	.byte	3
0000162b a909          14415 	.byte	169,9
0000162d 02            14416 	.byte	2
0000162e 00            14417 	.byte	0
0000162f 01            14418 	.byte	1
00001630 06            14419 	.byte	6
00001631 000502        14420 	.byte	0,5,2
00001634 00000000*     14421 	.word	.LDWlin292
00001638 0b            14422 	.byte	11
00001639 000502        14423 	.byte	0,5,2
0000163c 00000000*     14424 	.word	.LDWlin293
00001640 02            14425 	.byte	2
00001641 00            14426 	.byte	0
00001642 0b            14427 	.byte	11
00001643 2b            14428 	.byte	43
00001644 02            14429 	.byte	2
00001645 00            14430 	.byte	0
00001646 0b            14431 	.byte	11
00001647 02            14432 	.byte	2
00001648 02            14433 	.byte	2
00001649 000101        14434 	.byte	0,1,1
                       14435 	.section	.debug_info
                       14436 .LDW_4de0650:
000026d7 1d            14437 	.byte	29
000026d8 00000000*     14438 	.word	.LDW411
000026dc 00000000*     14439 	.word	.LDW511
                       14440 
000026e0 00            14441 	.byte	0
                       14442 
000026e1 00            14443 	.byte	0
                       14444 
                       14445 .LDW_4e1a9c0:

                                                                      Page 254
                                                              C:\Users\nhuliyap\AppData\Local\Temp\gh_00002rs1.s
000026e2 14            14446 	.byte	20
000026e3 436865636b46  14447 	.strz	"CheckForDetailed_ZO_Error"
000026e9 6f7244657461 
000026ef 696c65645f5a 
000026f5 4f5f4572726f 
000026fb 7200 
000026fd b009          14448 	.byte	176,9
000026ff 07            14449 	.byte	7
00002700 01            14450 	.byte	1
00002701 00000000*     14451 	.word	.LDW_4987d30
00002705 00000000*     14452 	.word	_CheckForDetailed_ZO_Error
00002709 00000000*     14453 	.word	___ghs_eofn_CheckForDetailed_ZO_Error
0000270d 0153          14454 	.byte	1,83
0000270f 02            14455 	.byte	2
00002710 00            14456 	.byte	0
00002711 02            14457 	.byte	2
00002712 00            14458 	.byte	0
00002713 00            14459 	.byte	0
00002714 00            14460 	.byte	0
00002715 00            14461 	.byte	0
00002716 01            14462 	.byte	1
00002717 01            14463 	.byte	1
00002718 00            14464 	.byte	0
00002719 01            14465 	.byte	1
                       14466 
                       14467 	.section	.debug_frame
                       14468 .LDW_4fb7bd8:
000005e8 00000000*     14469 	.word	.LDW_unq_64-.LDW_unq_63
                       14470 .LDW_unq_63:
000005ec 00000000*     14471 	.word	.LDW_4da5d48
000005f0 00000000*     14472 	.word	_CheckForDetailed_ZO_Error
000005f4 00000000*     14473 	.word	___ghs_eofn_CheckForDetailed_ZO_Error-_CheckForDetailed_ZO_Error
000005f8 01            14474 	.byte	1
000005f9 00000000*     14475 	.word	.LDW79
000005fd 00            14476 	.byte	0
000005fe 00            14477 	.byte	0
000005ff 00            14478 	.byte	0
                       14479 .LDW_unq_64:
                       14480 	.section	.debug_line
0000164c 000502        14481 	.byte	0,5,2
0000164f 00000000*     14482 	.word	_CheckForDetailed_ZO_Error
00001653 03            14483 	.byte	3
00001654 b009          14484 	.byte	176,9
00001656 02            14485 	.byte	2
00001657 00            14486 	.byte	0
00001658 01            14487 	.byte	1
00001659 06            14488 	.byte	6
0000165a 000502        14489 	.byte	0,5,2
0000165d 00000000*     14490 	.word	.LDWlin208
00001661 0c            14491 	.byte	12
00001662 03            14492 	.byte	3
00001663 7f            14493 	.byte	127
00001664 02            14494 	.byte	2
00001665 04            14495 	.byte	4
00001666 01            14496 	.byte	1
00001667 000502        14497 	.byte	0,5,2
0000166a 00000000*     14498 	.word	.LDWlin209
0000166e 0b            14499 	.byte	11
0000166f 0b            14500 	.byte	11
00001670 000502        14501 	.byte	0,5,2
00001673 00000000*     14502 	.word	.LDWlin210

                                                                      Page 255
                                                              C:\Users\nhuliyap\AppData\Local\Temp\gh_00002rs1.s
00001677 0b            14503 	.byte	11
00001678 0b            14504 	.byte	11
00001679 02            14505 	.byte	2
0000167a 00            14506 	.byte	0
0000167b 000502        14507 	.byte	0,5,2
0000167e 00000000*     14508 	.word	.LDWlin211
00001682 02            14509 	.byte	2
00001683 00            14510 	.byte	0
00001684 0b            14511 	.byte	11
00001685 06            14512 	.byte	6
00001686 000502        14513 	.byte	0,5,2
00001689 00000000*     14514 	.word	.LDWlin212
0000168d 0d            14515 	.byte	13
0000168e 06            14516 	.byte	6
0000168f 03            14517 	.byte	3
00001690 06            14518 	.byte	6
00001691 02            14519 	.byte	2
00001692 00            14520 	.byte	0
00001693 01            14521 	.byte	1
00001694 0b            14522 	.byte	11
00001695 0b            14523 	.byte	11
00001696 000502        14524 	.byte	0,5,2
00001699 00000000*     14525 	.word	.LDWlin213
0000169d 03            14526 	.byte	3
0000169e 79            14527 	.byte	121
0000169f 02            14528 	.byte	2
000016a0 00            14529 	.byte	0
000016a1 01            14530 	.byte	1
000016a2 02            14531 	.byte	2
000016a3 00            14532 	.byte	0
000016a4 0b            14533 	.byte	11
000016a5 0b            14534 	.byte	11
000016a6 0b            14535 	.byte	11
000016a7 02            14536 	.byte	2
000016a8 02            14537 	.byte	2
000016a9 0b            14538 	.byte	11
000016aa 000502        14539 	.byte	0,5,2
000016ad 00000000*     14540 	.word	.LDWlin214
000016b1 03            14541 	.byte	3
000016b2 04            14542 	.byte	4
000016b3 02            14543 	.byte	2
000016b4 00            14544 	.byte	0
000016b5 01            14545 	.byte	1
000016b6 02            14546 	.byte	2
000016b7 00            14547 	.byte	0
000016b8 0b            14548 	.byte	11
000016b9 02            14549 	.byte	2
000016ba 00            14550 	.byte	0
000016bb 02            14551 	.byte	2
000016bc 00            14552 	.byte	0
000016bd 02            14553 	.byte	2
000016be 00            14554 	.byte	0
000016bf 0b            14555 	.byte	11
000016c0 02            14556 	.byte	2
000016c1 02            14557 	.byte	2
000016c2 000101        14558 	.byte	0,1,1
                       14559 	.section	.debug_info
                       14560 .LDW_4de0680:
0000271a 1d            14561 	.byte	29
0000271b 00000000*     14562 	.word	.LDW69
0000271f 00000000*     14563 	.word	.LDW79

                                                                      Page 256
                                                              C:\Users\nhuliyap\AppData\Local\Temp\gh_00002rs1.s
                       14564 
                       14565 .LDW_4de0e10:
00002723 04            14566 	.byte	4
00002724 6c5f75635265  14567 	.strz	"l_ucRet"
0000272a 7400 
0000272c b209          14568 	.byte	178,9
0000272e 0a            14569 	.byte	10
0000272f 01            14570 	.byte	1
00002730 00000000*     14571 	.word	.LDW_4987d30
00002734 00            14572 	.byte	0
00002735 00            14573 	.byte	0
00002736 015a          14574 	.byte	1,90
                       14575 
00002738 00            14576 	.byte	0
                       14577 
00002739 00            14578 	.byte	0
                       14579 
                       14580 .LDW_4e1a760:
0000273a 13            14581 	.byte	19
0000273b 496e63724869  14582 	.strz	"IncrHistProtectTimer"
00002741 737450726f74 
00002747 65637454696d 
0000274d 657200 
00002750 c909          14583 	.byte	201,9
00002752 06            14584 	.byte	6
00002753 01            14585 	.byte	1
00002754 00000000*     14586 	.word	_IncrHistProtectTimer
00002758 00000000*     14587 	.word	___ghs_eofn_IncrHistProtectTimer
0000275c 0153          14588 	.byte	1,83
0000275e 02            14589 	.byte	2
0000275f 00            14590 	.byte	0
00002760 02            14591 	.byte	2
00002761 00            14592 	.byte	0
00002762 00            14593 	.byte	0
00002763 00            14594 	.byte	0
00002764 00            14595 	.byte	0
00002765 01            14596 	.byte	1
00002766 01            14597 	.byte	1
00002767 00            14598 	.byte	0
00002768 01            14599 	.byte	1
                       14600 
                       14601 	.section	.debug_frame
                       14602 .LDW_4fb3be8:
00000600 00000000*     14603 	.word	.LDW_unq_66-.LDW_unq_65
                       14604 .LDW_unq_65:
00000604 00000000*     14605 	.word	.LDW_4da5d48
00000608 00000000*     14606 	.word	_IncrHistProtectTimer
0000060c 00000000*     14607 	.word	___ghs_eofn_IncrHistProtectTimer-_IncrHistProtectTimer
00000610 01            14608 	.byte	1
00000611 00000000*     14609 	.word	.LDW711
00000615 00            14610 	.byte	0
00000616 00            14611 	.byte	0
00000617 00            14612 	.byte	0
                       14613 .LDW_unq_66:
                       14614 	.section	.debug_line
000016c5 000502        14615 	.byte	0,5,2
000016c8 00000000*     14616 	.word	_IncrHistProtectTimer
000016cc 03            14617 	.byte	3
000016cd c909          14618 	.byte	201,9
000016cf 02            14619 	.byte	2
000016d0 00            14620 	.byte	0

                                                                      Page 257
                                                              C:\Users\nhuliyap\AppData\Local\Temp\gh_00002rs1.s
000016d1 01            14621 	.byte	1
000016d2 06            14622 	.byte	6
000016d3 000502        14623 	.byte	0,5,2
000016d6 00000000*     14624 	.word	.LDWlin294
000016da 0b            14625 	.byte	11
000016db 000502        14626 	.byte	0,5,2
000016de 00000000*     14627 	.word	.LDWlin295
000016e2 02            14628 	.byte	2
000016e3 00            14629 	.byte	0
000016e4 0b            14630 	.byte	11
000016e5 000502        14631 	.byte	0,5,2
000016e8 00000000*     14632 	.word	.LDWlin296
000016ec 02            14633 	.byte	2
000016ed 00            14634 	.byte	0
000016ee 0b            14635 	.byte	11
000016ef 2b            14636 	.byte	43
000016f0 02            14637 	.byte	2
000016f1 00            14638 	.byte	0
000016f2 0b            14639 	.byte	11
000016f3 02            14640 	.byte	2
000016f4 00            14641 	.byte	0
000016f5 0b            14642 	.byte	11
000016f6 02            14643 	.byte	2
000016f7 02            14644 	.byte	2
000016f8 000101        14645 	.byte	0,1,1
                       14646 	.section	.debug_info
                       14647 .LDW_4de0710:
00002769 1d            14648 	.byte	29
0000276a 00000000*     14649 	.word	.LDW611
0000276e 00000000*     14650 	.word	.LDW711
                       14651 
00002772 00            14652 	.byte	0
                       14653 
00002773 00            14654 	.byte	0
                       14655 
                       14656 .LDW_4e1a468:
00002774 14            14657 	.byte	20
00002775 624765744869  14658 	.strz	"bGetHistProtecTimeOver"
0000277b 737450726f74 
00002781 656354696d65 
00002787 4f76657200 
0000278c d209          14659 	.byte	210,9
0000278e 09            14660 	.byte	9
0000278f 01            14661 	.byte	1
00002790 00000000*     14662 	.word	.LDW_4dccb18
00002794 00000000*     14663 	.word	_bGetHistProtecTimeOver
00002798 00000000*     14664 	.word	___ghs_eofn_bGetHistProtecTimeOver
0000279c 0153          14665 	.byte	1,83
0000279e 02            14666 	.byte	2
0000279f 00            14667 	.byte	0
000027a0 02            14668 	.byte	2
000027a1 00            14669 	.byte	0
000027a2 00            14670 	.byte	0
000027a3 00            14671 	.byte	0
000027a4 00            14672 	.byte	0
000027a5 01            14673 	.byte	1
000027a6 01            14674 	.byte	1
000027a7 00            14675 	.byte	0
000027a8 01            14676 	.byte	1
                       14677 
                       14678 	.section	.debug_frame

                                                                      Page 258
                                                              C:\Users\nhuliyap\AppData\Local\Temp\gh_00002rs1.s
                       14679 .LDW_4fb7158:
00000618 00000000*     14680 	.word	.LDW_unq_68-.LDW_unq_67
                       14681 .LDW_unq_67:
0000061c 00000000*     14682 	.word	.LDW_4da5d48
00000620 00000000*     14683 	.word	_bGetHistProtecTimeOver
00000624 00000000*     14684 	.word	___ghs_eofn_bGetHistProtecTimeOver-_bGetHistProtecTimeOver
00000628 01            14685 	.byte	1
00000629 00000000*     14686 	.word	.LDW96
0000062d 00            14687 	.byte	0
0000062e 00            14688 	.byte	0
0000062f 00            14689 	.byte	0
                       14690 .LDW_unq_68:
                       14691 	.section	.debug_line
000016fb 000502        14692 	.byte	0,5,2
000016fe 00000000*     14693 	.word	_bGetHistProtecTimeOver
00001702 06            14694 	.byte	6
00001703 03            14695 	.byte	3
00001704 d309          14696 	.byte	211,9
00001706 02            14697 	.byte	2
00001707 00            14698 	.byte	0
00001708 01            14699 	.byte	1
00001709 000502        14700 	.byte	0,5,2
0000170c 00000000*     14701 	.word	.LDWlin78
00001710 03            14702 	.byte	3
00001711 05            14703 	.byte	5
00001712 02            14704 	.byte	2
00001713 00            14705 	.byte	0
00001714 01            14706 	.byte	1
00001715 02            14707 	.byte	2
00001716 00            14708 	.byte	0
00001717 06            14709 	.byte	6
00001718 02            14710 	.byte	2
00001719 00            14711 	.byte	0
0000171a 02            14712 	.byte	2
0000171b 02            14713 	.byte	2
0000171c 000101        14714 	.byte	0,1,1
                       14715 	.section	.debug_info
                       14716 .LDW_4de06e0:
000027a9 1d            14717 	.byte	29
000027aa 00000000*     14718 	.word	.LDW86
000027ae 00000000*     14719 	.word	.LDW96
                       14720 
000027b2 00            14721 	.byte	0
                       14722 
000027b3 00            14723 	.byte	0
                       14724 
                       14725 .LDW_4e19d48:
000027b4 14            14726 	.byte	20
000027b5 62436865636b  14727 	.strz	"bCheckIfNewTelAllowed"
000027bb 49664e657754 
000027c1 656c416c6c6f 
000027c7 77656400 
000027cb dc09          14728 	.byte	220,9
000027cd 10            14729 	.byte	16
000027ce 01            14730 	.byte	1
000027cf 00000000*     14731 	.word	.LDW_4dccb18
000027d3 00000000*     14732 	.word	_bCheckIfNewTelAllowed..C.3A.5C_ECU2.5CECU_Rivian_A1.5CTarget.5Crepo_projects.5CpRealEcu.5CcR_R2023.2E09.2E15.5Cmake.5Coutput.5Cobjects.5CWAlloc.
000027d7 00000000*     14733 	.word	___ghs_eofn_bCheckIfNewTelAllowed
000027db 0153          14734 	.byte	1,83
000027dd 828080c00a    14735 	.byte	130,128,128,192,10
000027e2 0c            14736 	.byte	12

                                                                      Page 259
                                                              C:\Users\nhuliyap\AppData\Local\Temp\gh_00002rs1.s
000027e3 03            14737 	.byte	3
000027e4 0c            14738 	.byte	12
000027e5 00            14739 	.byte	0
000027e6 00            14740 	.byte	0
000027e7 00            14741 	.byte	0
000027e8 00            14742 	.byte	0
000027e9 01            14743 	.byte	1
000027ea 00            14744 	.byte	0
000027eb 01            14745 	.byte	1
                       14746 
                       14747 	.section	.debug_frame
                       14748 .LDW_4fb7c18:
00000630 00000000*     14749 	.word	.LDW_unq_6a-.LDW_unq_69
                       14750 .LDW_unq_69:
00000634 00000000*     14751 	.word	.LDW_4da5d48
00000638 00000000*     14752 	.word	_bCheckIfNewTelAllowed..C.3A.5C_ECU2.5CECU_Rivian_A1.5CTarget.5Crepo_projects.5CpRealEcu.5CcR_R2023.2E09.2E15.5Cmake.5Coutput.5Cobjects.5CWAlloc.
0000063c 00000000*     14753 	.word	___ghs_eofn_bCheckIfNewTelAllowed-_bCheckIfNewTelAllowed..C.3A.5C_ECU2.5CECU_Rivian_A1.5CTarget.5Crepo_projects.5CpRealEcu.5CcR_R2023.2E09.2E15.5Cmake.5Coutput.5Cobjects.5CWAlloc.
00000640 44            14754 	.byte	68
00000641 9f            14755 	.byte	159
00000642 00            14756 	.byte	0
00000643 40            14757 	.byte	64
00000644 9d            14758 	.byte	157
00000645 04            14759 	.byte	4
00000646 40            14760 	.byte	64
00000647 9b            14761 	.byte	155
00000648 08            14762 	.byte	8
00000649 01            14763 	.byte	1
0000064a 00000000*     14764 	.word	.LDW78
0000064e 00            14765 	.byte	0
0000064f 00            14766 	.byte	0
                       14767 .LDW_unq_6a:
                       14768 	.section	.debug_line
0000171f 000502        14769 	.byte	0,5,2
00001722 00000000*     14770 	.word	_bCheckIfNewTelAllowed..C.3A.5C_ECU2.5CECU_Rivian_A1.5CTarget.5Crepo_projects.5CpRealEcu.5CcR_R2023.2E09.2E15.5Cmake.5Coutput.5Cobjects.5CWAlloc.
00001726 03            14771 	.byte	3
00001727 dd09          14772 	.byte	221,9
00001729 02            14773 	.byte	2
0000172a 00            14774 	.byte	0
0000172b 01            14775 	.byte	1
0000172c 06            14776 	.byte	6
0000172d 33            14777 	.byte	51
0000172e 13            14778 	.byte	19
0000172f 000502        14779 	.byte	0,5,2
00001732 00000000*     14780 	.word	.LDWlin122
00001736 0b            14781 	.byte	11
00001737 0b            14782 	.byte	11
00001738 06            14783 	.byte	6
00001739 000502        14784 	.byte	0,5,2
0000173c 00000000*     14785 	.word	.LDWlin123
00001740 0b            14786 	.byte	11
00001741 03            14787 	.byte	3
00001742 07            14788 	.byte	7
00001743 02            14789 	.byte	2
00001744 00            14790 	.byte	0
00001745 01            14791 	.byte	1
00001746 06            14792 	.byte	6
00001747 03            14793 	.byte	3
00001748 06            14794 	.byte	6
00001749 02            14795 	.byte	2
0000174a 00            14796 	.byte	0
0000174b 01            14797 	.byte	1

                                                                      Page 260
                                                              C:\Users\nhuliyap\AppData\Local\Temp\gh_00002rs1.s
0000174c 0b            14798 	.byte	11
0000174d 000502        14799 	.byte	0,5,2
00001750 00000000*     14800 	.word	.LDWlin124
00001754 03            14801 	.byte	3
00001755 73            14802 	.byte	115
00001756 02            14803 	.byte	2
00001757 00            14804 	.byte	0
00001758 01            14805 	.byte	1
00001759 0b            14806 	.byte	11
0000175a 0b            14807 	.byte	11
0000175b 02            14808 	.byte	2
0000175c 00            14809 	.byte	0
0000175d 0b            14810 	.byte	11
0000175e 0b            14811 	.byte	11
0000175f 0b            14812 	.byte	11
00001760 000502        14813 	.byte	0,5,2
00001763 00000000*     14814 	.word	.LDWlin125
00001767 0c            14815 	.byte	12
00001768 0b            14816 	.byte	11
00001769 0b            14817 	.byte	11
0000176a 02            14818 	.byte	2
0000176b 00            14819 	.byte	0
0000176c 0b            14820 	.byte	11
0000176d 02            14821 	.byte	2
0000176e 00            14822 	.byte	0
0000176f 0b            14823 	.byte	11
00001770 000502        14824 	.byte	0,5,2
00001773 00000000*     14825 	.word	.LDWlin126
00001777 02            14826 	.byte	2
00001778 00            14827 	.byte	0
00001779 0b            14828 	.byte	11
0000177a 000502        14829 	.byte	0,5,2
0000177d 00000000*     14830 	.word	.LDWlin127
00001781 0c            14831 	.byte	12
00001782 02            14832 	.byte	2
00001783 00            14833 	.byte	0
00001784 0b            14834 	.byte	11
00001785 02            14835 	.byte	2
00001786 00            14836 	.byte	0
00001787 0b            14837 	.byte	11
00001788 06            14838 	.byte	6
00001789 02            14839 	.byte	2
0000178a 02            14840 	.byte	2
0000178b 02            14841 	.byte	2
0000178c 04            14842 	.byte	4
0000178d 000101        14843 	.byte	0,1,1
                       14844 	.section	.debug_info
                       14845 .LDW_4de1020:
000027ec 0f            14846 	.byte	15
000027ed 7074496e7075  14847 	.strz	"ptInputWA"
000027f3 74574100 
000027f7 dd09          14848 	.byte	221,9
000027f9 14            14849 	.byte	20
000027fa 01            14850 	.byte	1
000027fb 00000000*     14851 	.word	.LDW_4dce080
000027ff 00            14852 	.byte	0
00002800 016c          14853 	.byte	1,108
                       14854 
                       14855 .LDW_4de0fc8:
00002802 0f            14856 	.byte	15
00002803 7563497800    14857 	.strz	"ucIx"

                                                                      Page 261
                                                              C:\Users\nhuliyap\AppData\Local\Temp\gh_00002rs1.s
00002808 de09          14858 	.byte	222,9
0000280a 12            14859 	.byte	18
0000280b 01            14860 	.byte	1
0000280c 00000000*     14861 	.word	.LDW_4946da0
00002810 00            14862 	.byte	0
00002811 016b          14863 	.byte	1,107
                       14864 
                       14865 .LDW_4de04a0:
00002813 1d            14866 	.byte	29
00002814 00000000*     14867 	.word	.LDW68
00002818 00000000*     14868 	.word	.LDW78
                       14869 
                       14870 .LDW_4de1128:
0000281c 04            14871 	.byte	4
0000281d 6254656c416c  14872 	.strz	"bTelAllowed"
00002823 6c6f77656400 
00002829 df09          14873 	.byte	223,9
0000282b 0c            14874 	.byte	12
0000282c 01            14875 	.byte	1
0000282d 00000000*     14876 	.word	.LDW_4dccb18
00002831 00            14877 	.byte	0
00002832 00            14878 	.byte	0
00002833 016d          14879 	.byte	1,109
                       14880 
00002835 00            14881 	.byte	0
                       14882 
00002836 00            14883 	.byte	0
                       14884 
                       14885 .LDW_4e19f10:
00002837 13            14886 	.byte	19
00002838 57414c4c4f43  14887 	.strz	"WALLOC_UpdateTelegramSkipTimer"
0000283e 5f5570646174 
00002844 6554656c6567 
0000284a 72616d536b69 
00002850 7054696d6572 
00002856 00 
00002857 f709          14888 	.byte	247,9
00002859 06            14889 	.byte	6
0000285a 01            14890 	.byte	1
0000285b 00000000*     14891 	.word	_WALLOC_UpdateTelegramSkipTimer
0000285f 00000000*     14892 	.word	___ghs_eofn_WALLOC_UpdateTelegramSkipTimer
00002863 0153          14893 	.byte	1,83
00002865 02            14894 	.byte	2
00002866 00            14895 	.byte	0
00002867 02            14896 	.byte	2
00002868 00            14897 	.byte	0
00002869 00            14898 	.byte	0
0000286a 00            14899 	.byte	0
0000286b 00            14900 	.byte	0
0000286c 01            14901 	.byte	1
0000286d 01            14902 	.byte	1
0000286e 00            14903 	.byte	0
0000286f 01            14904 	.byte	1
                       14905 
                       14906 	.section	.debug_frame
                       14907 .LDW_4fb3f68:
00000650 00000000*     14908 	.word	.LDW_unq_6c-.LDW_unq_6b
                       14909 .LDW_unq_6b:
00000654 00000000*     14910 	.word	.LDW_4da5d48
00000658 00000000*     14911 	.word	_WALLOC_UpdateTelegramSkipTimer
0000065c 00000000*     14912 	.word	___ghs_eofn_WALLOC_UpdateTelegramSkipTimer-_WALLOC_UpdateTelegramSkipTimer

                                                                      Page 262
                                                              C:\Users\nhuliyap\AppData\Local\Temp\gh_00002rs1.s
00000660 01            14913 	.byte	1
00000661 00000000*     14914 	.word	.LDW911
00000665 00            14915 	.byte	0
00000666 00            14916 	.byte	0
00000667 00            14917 	.byte	0
                       14918 .LDW_unq_6c:
                       14919 	.section	.debug_line
00001790 000502        14920 	.byte	0,5,2
00001793 00000000*     14921 	.word	_WALLOC_UpdateTelegramSkipTimer
00001797 06            14922 	.byte	6
00001798 03            14923 	.byte	3
00001799 f909          14924 	.byte	249,9
0000179b 02            14925 	.byte	2
0000179c 00            14926 	.byte	0
0000179d 01            14927 	.byte	1
0000179e 02            14928 	.byte	2
0000179f 02            14929 	.byte	2
000017a0 0b            14930 	.byte	11
000017a1 000502        14931 	.byte	0,5,2
000017a4 00000000*     14932 	.word	.LDWlin297
000017a8 02            14933 	.byte	2
000017a9 00            14934 	.byte	0
000017aa 0b            14935 	.byte	11
000017ab 23            14936 	.byte	35
000017ac 02            14937 	.byte	2
000017ad 00            14938 	.byte	0
000017ae 03            14939 	.byte	3
000017af 7d            14940 	.byte	125
000017b0 02            14941 	.byte	2
000017b1 00            14942 	.byte	0
000017b2 01            14943 	.byte	1
000017b3 000502        14944 	.byte	0,5,2
000017b6 00000000*     14945 	.word	.LDWlin298
000017ba 03            14946 	.byte	3
000017bb 04            14947 	.byte	4
000017bc 02            14948 	.byte	2
000017bd 00            14949 	.byte	0
000017be 01            14950 	.byte	1
000017bf 0b            14951 	.byte	11
000017c0 02            14952 	.byte	2
000017c1 02            14953 	.byte	2
000017c2 000101        14954 	.byte	0,1,1
                       14955 	.section	.debug_info
                       14956 .LDW_4de06b0:
00002870 1d            14957 	.byte	29
00002871 00000000*     14958 	.word	.LDW811
00002875 00000000*     14959 	.word	.LDW911
                       14960 
                       14961 .LDW_4de11d8:
00002879 04            14962 	.byte	4
0000287a 756349647800  14963 	.strz	"ucIdx"
00002880 f909          14964 	.byte	249,9
00002882 12            14965 	.byte	18
00002883 01            14966 	.byte	1
00002884 00000000*     14967 	.word	.LDW_4946da0
00002888 00            14968 	.byte	0
00002889 00            14969 	.byte	0
0000288a 0162          14970 	.byte	1,98
                       14971 
0000288c 00            14972 	.byte	0
                       14973 

                                                                      Page 263
                                                              C:\Users\nhuliyap\AppData\Local\Temp\gh_00002rs1.s
0000288d 00            14974 	.byte	0
                       14975 
                       14976 .LDW_4e1a890:
0000288e 14            14977 	.byte	20
0000288f 57414c4c4f43  14978 	.strz	"WALLOC_ucGetMinSpeedAutoLearnStart"
00002895 5f7563476574 
0000289b 4d696e537065 
000028a1 65644175746f 
000028a7 4c6561726e53 
000028ad 7461727400 
000028b2 810a          14979 	.byte	129,10
000028b4 0f            14980 	.byte	15
000028b5 01            14981 	.byte	1
000028b6 00000000*     14982 	.word	.LDW_4946da0
000028ba 00000000*     14983 	.word	_WALLOC_ucGetMinSpeedAutoLearnStart
000028be 00000000*     14984 	.word	___ghs_eofn_WALLOC_ucGetMinSpeedAutoLearnStart
000028c2 0153          14985 	.byte	1,83
000028c4 02            14986 	.byte	2
000028c5 00            14987 	.byte	0
000028c6 02            14988 	.byte	2
000028c7 00            14989 	.byte	0
000028c8 00            14990 	.byte	0
000028c9 00            14991 	.byte	0
000028ca 00            14992 	.byte	0
000028cb 01            14993 	.byte	1
000028cc 01            14994 	.byte	1
000028cd 00            14995 	.byte	0
000028ce 01            14996 	.byte	1
                       14997 
                       14998 	.section	.debug_frame
                       14999 .LDW_4fb38e8:
00000668 00000000*     15000 	.word	.LDW_unq_6e-.LDW_unq_6d
                       15001 .LDW_unq_6d:
0000066c 00000000*     15002 	.word	.LDW_4da5d48
00000670 00000000*     15003 	.word	_WALLOC_ucGetMinSpeedAutoLearnStart
00000674 00000000*     15004 	.word	___ghs_eofn_WALLOC_ucGetMinSpeedAutoLearnStart-_WALLOC_ucGetMinSpeedAutoLearnStart
00000678 01            15005 	.byte	1
00000679 00000000*     15006 	.word	.LDW121
0000067d 00            15007 	.byte	0
0000067e 00            15008 	.byte	0
0000067f 00            15009 	.byte	0
                       15010 .LDW_unq_6e:
                       15011 	.section	.debug_line
000017c5 000502        15012 	.byte	0,5,2
000017c8 00000000*     15013 	.word	_WALLOC_ucGetMinSpeedAutoLearnStart
000017cc 06            15014 	.byte	6
000017cd 03            15015 	.byte	3
000017ce 820a          15016 	.byte	130,10
000017d0 02            15017 	.byte	2
000017d1 00            15018 	.byte	0
000017d2 01            15019 	.byte	1
000017d3 06            15020 	.byte	6
000017d4 000502        15021 	.byte	0,5,2
000017d7 00000000*     15022 	.word	.LDWlin299
000017db 02            15023 	.byte	2
000017dc 00            15024 	.byte	0
000017dd 02            15025 	.byte	2
000017de 02            15026 	.byte	2
000017df 000101        15027 	.byte	0,1,1
                       15028 	.section	.debug_info
                       15029 .LDW_4de0380:

                                                                      Page 264
                                                              C:\Users\nhuliyap\AppData\Local\Temp\gh_00002rs1.s
000028cf 1d            15030 	.byte	29
000028d0 00000000*     15031 	.word	.LDW021
000028d4 00000000*     15032 	.word	.LDW121
                       15033 
000028d8 00            15034 	.byte	0
                       15035 
000028d9 00            15036 	.byte	0
                       15037 
                       15038 .LDW_4e1a500:
000028da 13            15039 	.byte	19
000028db 526573657448  15040 	.strz	"ResetHistoryToDefault"
000028e1 6973746f7279 
000028e7 546f44656661 
000028ed 756c7400 
000028f1 860a          15041 	.byte	134,10
000028f3 06            15042 	.byte	6
000028f4 01            15043 	.byte	1
000028f5 00000000*     15044 	.word	_ResetHistoryToDefault
000028f9 00000000*     15045 	.word	___ghs_eofn_ResetHistoryToDefault
000028fd 0153          15046 	.byte	1,83
000028ff 828080800a    15047 	.byte	130,128,128,128,10
00002904 08            15048 	.byte	8
00002905 03            15049 	.byte	3
00002906 08            15050 	.byte	8
00002907 00            15051 	.byte	0
00002908 00            15052 	.byte	0
00002909 00            15053 	.byte	0
0000290a 01            15054 	.byte	1
0000290b 01            15055 	.byte	1
0000290c 00            15056 	.byte	0
0000290d 01            15057 	.byte	1
                       15058 
                       15059 	.section	.debug_frame
                       15060 .LDW_4fb78d8:
00000680 00000000*     15061 	.word	.LDW_unq_70-.LDW_unq_6f
                       15062 .LDW_unq_6f:
00000684 00000000*     15063 	.word	.LDW_4da5d48
00000688 00000000*     15064 	.word	_ResetHistoryToDefault
0000068c 00000000*     15065 	.word	___ghs_eofn_ResetHistoryToDefault-_ResetHistoryToDefault
00000690 44            15066 	.byte	68
00000691 9f            15067 	.byte	159
00000692 00            15068 	.byte	0
00000693 40            15069 	.byte	64
00000694 9d            15070 	.byte	157
00000695 04            15071 	.byte	4
00000696 01            15072 	.byte	1
00000697 00000000*     15073 	.word	.LDW101
0000069b 00            15074 	.byte	0
                       15075 .LDW_unq_70:
                       15076 	.section	.debug_line
000017e2 000502        15077 	.byte	0,5,2
000017e5 00000000*     15078 	.word	_ResetHistoryToDefault
000017e9 03            15079 	.byte	3
000017ea 860a          15080 	.byte	134,10
000017ec 02            15081 	.byte	2
000017ed 00            15082 	.byte	0
000017ee 01            15083 	.byte	1
000017ef 06            15084 	.byte	6
000017f0 000502        15085 	.byte	0,5,2
000017f3 00000000*     15086 	.word	.LDWlin234
000017f7 0c            15087 	.byte	12

                                                                      Page 265
                                                              C:\Users\nhuliyap\AppData\Local\Temp\gh_00002rs1.s
000017f8 02            15088 	.byte	2
000017f9 02            15089 	.byte	2
000017fa 0b            15090 	.byte	11
000017fb 33            15091 	.byte	51
000017fc 03            15092 	.byte	3
000017fd 7e            15093 	.byte	126
000017fe 02            15094 	.byte	2
000017ff 06            15095 	.byte	6
00001800 01            15096 	.byte	1
00001801 000502        15097 	.byte	0,5,2
00001804 00000000*     15098 	.word	.LDWlin235
00001808 0d            15099 	.byte	13
00001809 0b            15100 	.byte	11
0000180a 000502        15101 	.byte	0,5,2
0000180d 00000000*     15102 	.word	.LDWlin236
00001811 0d            15103 	.byte	13
00001812 000502        15104 	.byte	0,5,2
00001815 00000000*     15105 	.word	.LDWlin237
00001819 0d            15106 	.byte	13
0000181a 02            15107 	.byte	2
0000181b 04            15108 	.byte	4
0000181c 000101        15109 	.byte	0,1,1
                       15110 	.section	.debug_info
                       15111 .LDW_4de03b0:
0000290e 1d            15112 	.byte	29
0000290f 00000000*     15113 	.word	.LDW001
00002913 00000000*     15114 	.word	.LDW101
                       15115 
                       15116 .LDW_4de0e68:
00002917 04            15117 	.byte	4
00002918 4c6f63616c4c  15118 	.strz	"LocalLoopCnt"
0000291e 6f6f70436e74 
00002924 00 
00002925 880a          15119 	.byte	136,10
00002927 0a            15120 	.byte	10
00002928 01            15121 	.byte	1
00002929 00000000*     15122 	.word	.LDW_4987d30
0000292d 00            15123 	.byte	0
0000292e 00            15124 	.byte	0
0000292f 0161          15125 	.byte	1,97
                       15126 
00002931 00            15127 	.byte	0
                       15128 
00002932 00            15129 	.byte	0
                       15130 
                       15131 .LDW_4e19fa8:
00002933 14            15132 	.byte	20
00002934 756347657441  15133 	.strz	"ucGetABSTicksFullRevolFrontAx"
0000293a 42535469636b 
00002940 7346756c6c52 
00002946 65766f6c4672 
0000294c 6f6e74417800 
00002952 950a          15134 	.byte	149,10
00002954 0f            15135 	.byte	15
00002955 01            15136 	.byte	1
00002956 00000000*     15137 	.word	.LDW_4946da0
0000295a 00000000*     15138 	.word	_ucGetABSTicksFullRevolFrontAx
0000295e 00000000*     15139 	.word	___ghs_eofn_ucGetABSTicksFullRevolFrontAx
00002962 0153          15140 	.byte	1,83
00002964 02            15141 	.byte	2
00002965 00            15142 	.byte	0

                                                                      Page 266
                                                              C:\Users\nhuliyap\AppData\Local\Temp\gh_00002rs1.s
00002966 02            15143 	.byte	2
00002967 00            15144 	.byte	0
00002968 00            15145 	.byte	0
00002969 00            15146 	.byte	0
0000296a 00            15147 	.byte	0
0000296b 01            15148 	.byte	1
0000296c 01            15149 	.byte	1
0000296d 00            15150 	.byte	0
0000296e 01            15151 	.byte	1
                       15152 
                       15153 	.section	.debug_frame
                       15154 .LDW_4fb3c68:
0000069c 00000000*     15155 	.word	.LDW_unq_72-.LDW_unq_71
                       15156 .LDW_unq_71:
000006a0 00000000*     15157 	.word	.LDW_4da5d48
000006a4 00000000*     15158 	.word	_ucGetABSTicksFullRevolFrontAx
000006a8 00000000*     15159 	.word	___ghs_eofn_ucGetABSTicksFullRevolFrontAx-_ucGetABSTicksFullRevolFrontAx
000006ac 01            15160 	.byte	1
000006ad 00000000*     15161 	.word	.LDW321
000006b1 00            15162 	.byte	0
000006b2 00            15163 	.byte	0
000006b3 00            15164 	.byte	0
                       15165 .LDW_unq_72:
                       15166 	.section	.debug_line
0000181f 000502        15167 	.byte	0,5,2
00001822 00000000*     15168 	.word	_ucGetABSTicksFullRevolFrontAx
00001826 06            15169 	.byte	6
00001827 03            15170 	.byte	3
00001828 960a          15171 	.byte	150,10
0000182a 02            15172 	.byte	2
0000182b 00            15173 	.byte	0
0000182c 01            15174 	.byte	1
0000182d 000502        15175 	.byte	0,5,2
00001830 00000000*     15176 	.word	.LDWlin300
00001834 0c            15177 	.byte	12
00001835 0b            15178 	.byte	11
00001836 0b            15179 	.byte	11
00001837 1b            15180 	.byte	27
00001838 02            15181 	.byte	2
00001839 00            15182 	.byte	0
0000183a 06            15183 	.byte	6
0000183b 02            15184 	.byte	2
0000183c 00            15185 	.byte	0
0000183d 02            15186 	.byte	2
0000183e 02            15187 	.byte	2
0000183f 000101        15188 	.byte	0,1,1
                       15189 	.section	.debug_info
                       15190 .LDW_4de03e0:
0000296f 1d            15191 	.byte	29
00002970 00000000*     15192 	.word	.LDW221
00002974 00000000*     15193 	.word	.LDW321
                       15194 
00002978 00            15195 	.byte	0
                       15196 
00002979 00            15197 	.byte	0
                       15198 
                       15199 .LDW_4e1a928:
0000297a 14            15200 	.byte	20
0000297b 756347657441  15201 	.strz	"ucGetABSTicksFullRevolRearAx"
00002981 42535469636b 
00002987 7346756c6c52 

                                                                      Page 267
                                                              C:\Users\nhuliyap\AppData\Local\Temp\gh_00002rs1.s
0000298d 65766f6c5265 
00002993 6172417800 
00002998 9f0a          15202 	.byte	159,10
0000299a 0f            15203 	.byte	15
0000299b 01            15204 	.byte	1
0000299c 00000000*     15205 	.word	.LDW_4946da0
000029a0 00000000*     15206 	.word	_ucGetABSTicksFullRevolRearAx
000029a4 00000000*     15207 	.word	___ghs_eofn_ucGetABSTicksFullRevolRearAx
000029a8 0153          15208 	.byte	1,83
000029aa 02            15209 	.byte	2
000029ab 00            15210 	.byte	0
000029ac 02            15211 	.byte	2
000029ad 00            15212 	.byte	0
000029ae 00            15213 	.byte	0
000029af 00            15214 	.byte	0
000029b0 00            15215 	.byte	0
000029b1 01            15216 	.byte	1
000029b2 01            15217 	.byte	1
000029b3 00            15218 	.byte	0
000029b4 01            15219 	.byte	1
                       15220 
                       15221 	.section	.debug_frame
                       15222 .LDW_4fb3de8:
000006b4 00000000*     15223 	.word	.LDW_unq_74-.LDW_unq_73
                       15224 .LDW_unq_73:
000006b8 00000000*     15225 	.word	.LDW_4da5d48
000006bc 00000000*     15226 	.word	_ucGetABSTicksFullRevolRearAx
000006c0 00000000*     15227 	.word	___ghs_eofn_ucGetABSTicksFullRevolRearAx-_ucGetABSTicksFullRevolRearAx
000006c4 01            15228 	.byte	1
000006c5 00000000*     15229 	.word	.LDW521
000006c9 00            15230 	.byte	0
000006ca 00            15231 	.byte	0
000006cb 00            15232 	.byte	0
                       15233 .LDW_unq_74:
                       15234 	.section	.debug_line
00001842 000502        15235 	.byte	0,5,2
00001845 00000000*     15236 	.word	_ucGetABSTicksFullRevolRearAx
00001849 06            15237 	.byte	6
0000184a 03            15238 	.byte	3
0000184b a00a          15239 	.byte	160,10
0000184d 02            15240 	.byte	2
0000184e 00            15241 	.byte	0
0000184f 01            15242 	.byte	1
00001850 000502        15243 	.byte	0,5,2
00001853 00000000*     15244 	.word	.LDWlin301
00001857 0c            15245 	.byte	12
00001858 0b            15246 	.byte	11
00001859 0b            15247 	.byte	11
0000185a 1b            15248 	.byte	27
0000185b 02            15249 	.byte	2
0000185c 00            15250 	.byte	0
0000185d 06            15251 	.byte	6
0000185e 02            15252 	.byte	2
0000185f 00            15253 	.byte	0
00001860 02            15254 	.byte	2
00001861 02            15255 	.byte	2
00001862 000101        15256 	.byte	0,1,1
                       15257 	.section	.debug_info
                       15258 .LDW_4de0470:
000029b5 1d            15259 	.byte	29
000029b6 00000000*     15260 	.word	.LDW421

                                                                      Page 268
                                                              C:\Users\nhuliyap\AppData\Local\Temp\gh_00002rs1.s
000029ba 00000000*     15261 	.word	.LDW521
                       15262 
000029be 00            15263 	.byte	0
                       15264 
000029bf 00            15265 	.byte	0
                       15266 
                       15267 .LDW_4e1a6c8:
000029c0 14            15268 	.byte	20
000029c1 44434d5f496e  15269 	.strz	"DCM_InvIf_ZomStatusGetFromMemory"
000029c7 7649665f5a6f 
000029cd 6d5374617475 
000029d3 734765744672 
000029d9 6f6d4d656d6f 
000029df 727900 
000029e2 a90a          15270 	.byte	169,10
000029e4 07            15271 	.byte	7
000029e5 01            15272 	.byte	1
000029e6 00000000*     15273 	.word	.LDW_4987d30
000029ea 00000000*     15274 	.word	_DCM_InvIf_ZomStatusGetFromMemory
000029ee 00000000*     15275 	.word	___ghs_eofn_DCM_InvIf_ZomStatusGetFromMemory
000029f2 0153          15276 	.byte	1,83
000029f4 02            15277 	.byte	2
000029f5 00            15278 	.byte	0
000029f6 02            15279 	.byte	2
000029f7 00            15280 	.byte	0
000029f8 00            15281 	.byte	0
000029f9 00            15282 	.byte	0
000029fa 00            15283 	.byte	0
000029fb 01            15284 	.byte	1
000029fc 01            15285 	.byte	1
000029fd 00            15286 	.byte	0
000029fe 01            15287 	.byte	1
                       15288 
                       15289 	.section	.debug_frame
                       15290 .LDW_5002e10:
000006cc 00000000*     15291 	.word	.LDW_unq_76-.LDW_unq_75
                       15292 .LDW_unq_75:
000006d0 00000000*     15293 	.word	.LDW_4da5d48
000006d4 00000000*     15294 	.word	_DCM_InvIf_ZomStatusGetFromMemory
000006d8 00000000*     15295 	.word	___ghs_eofn_DCM_InvIf_ZomStatusGetFromMemory-_DCM_InvIf_ZomStatusGetFromMemory
000006dc 01            15296 	.byte	1
000006dd 00000000*     15297 	.word	.LDW721
000006e1 00            15298 	.byte	0
000006e2 00            15299 	.byte	0
000006e3 00            15300 	.byte	0
                       15301 .LDW_unq_76:
                       15302 	.section	.debug_line
00001865 000502        15303 	.byte	0,5,2
00001868 00000000*     15304 	.word	_DCM_InvIf_ZomStatusGetFromMemory
0000186c 03            15305 	.byte	3
0000186d a90a          15306 	.byte	169,10
0000186f 02            15307 	.byte	2
00001870 00            15308 	.byte	0
00001871 01            15309 	.byte	1
00001872 06            15310 	.byte	6
00001873 13            15311 	.byte	19
00001874 000502        15312 	.byte	0,5,2
00001877 00000000*     15313 	.word	.LDWlin302
0000187b 02            15314 	.byte	2
0000187c 00            15315 	.byte	0
0000187d 0b            15316 	.byte	11

                                                                      Page 269
                                                              C:\Users\nhuliyap\AppData\Local\Temp\gh_00002rs1.s
0000187e 000502        15317 	.byte	0,5,2
00001881 00000000*     15318 	.word	.LDWlin303
00001885 03            15319 	.byte	3
00001886 04            15320 	.byte	4
00001887 02            15321 	.byte	2
00001888 00            15322 	.byte	0
00001889 01            15323 	.byte	1
0000188a 02            15324 	.byte	2
0000188b 00            15325 	.byte	0
0000188c 06            15326 	.byte	6
0000188d 02            15327 	.byte	2
0000188e 00            15328 	.byte	0
0000188f 02            15329 	.byte	2
00001890 02            15330 	.byte	2
00001891 000101        15331 	.byte	0,1,1
                       15332 	.section	.debug_info
                       15333 .LDW_4de0ba8:
000029ff 0f            15334 	.byte	15
00002a00 75385f5a6f6d  15335 	.strz	"u8_ZomPossition"
00002a06 506f73736974 
00002a0c 696f6e00 
00002a10 aa0a          15336 	.byte	170,10
00002a12 0a            15337 	.byte	10
00002a13 01            15338 	.byte	1
00002a14 00000000*     15339 	.word	.LDW_4987d30
00002a18 00            15340 	.byte	0
00002a19 0156          15341 	.byte	1,86
                       15342 
                       15343 .LDW_4ddfbd0:
00002a1b 1d            15344 	.byte	29
00002a1c 00000000*     15345 	.word	.LDW621
00002a20 00000000*     15346 	.word	.LDW721
                       15347 
00002a24 00            15348 	.byte	0
                       15349 
00002a25 00            15350 	.byte	0
                       15351 
                       15352 .LDW_4e1aa58:
00002a26 13            15353 	.byte	19
00002a27 44434d5f496e  15354 	.strz	"DCM_InvIf_ZomWuIDGetFromMemory"
00002a2d 7649665f5a6f 
00002a33 6d5775494447 
00002a39 657446726f6d 
00002a3f 4d656d6f7279 
00002a45 00 
00002a46 b30a          15355 	.byte	179,10
00002a48 06            15356 	.byte	6
00002a49 01            15357 	.byte	1
00002a4a 00000000*     15358 	.word	_DCM_InvIf_ZomWuIDGetFromMemory
00002a4e 00000000*     15359 	.word	___ghs_eofn_DCM_InvIf_ZomWuIDGetFromMemory
00002a52 0153          15360 	.byte	1,83
00002a54 8280808008    15361 	.byte	130,128,128,128,8
00002a59 04            15362 	.byte	4
00002a5a 03            15363 	.byte	3
00002a5b 04            15364 	.byte	4
00002a5c 00            15365 	.byte	0
00002a5d 00            15366 	.byte	0
00002a5e 00            15367 	.byte	0
00002a5f 01            15368 	.byte	1
00002a60 01            15369 	.byte	1
00002a61 00            15370 	.byte	0

                                                                      Page 270
                                                              C:\Users\nhuliyap\AppData\Local\Temp\gh_00002rs1.s
00002a62 01            15371 	.byte	1
                       15372 
                       15373 	.section	.debug_frame
                       15374 .LDW_50028d0:
000006e4 00000000*     15375 	.word	.LDW_unq_78-.LDW_unq_77
                       15376 .LDW_unq_77:
000006e8 00000000*     15377 	.word	.LDW_4da5d48
000006ec 00000000*     15378 	.word	_DCM_InvIf_ZomWuIDGetFromMemory
000006f0 00000000*     15379 	.word	___ghs_eofn_DCM_InvIf_ZomWuIDGetFromMemory-_DCM_InvIf_ZomWuIDGetFromMemory
000006f4 44            15380 	.byte	68
000006f5 9f            15381 	.byte	159
000006f6 00            15382 	.byte	0
000006f7 01            15383 	.byte	1
000006f8 00000000*     15384 	.word	.LDW921
000006fc 44            15385 	.byte	68
000006fd df            15386 	.byte	223
000006fe 00            15387 	.byte	0
000006ff 00            15388 	.byte	0
                       15389 .LDW_unq_78:
                       15390 	.section	.debug_line
00001894 000502        15391 	.byte	0,5,2
00001897 00000000*     15392 	.word	_DCM_InvIf_ZomWuIDGetFromMemory
0000189b 03            15393 	.byte	3
0000189c b40a          15394 	.byte	180,10
0000189e 02            15395 	.byte	2
0000189f 00            15396 	.byte	0
000018a0 01            15397 	.byte	1
000018a1 06            15398 	.byte	6
000018a2 24            15399 	.byte	36
000018a3 000502        15400 	.byte	0,5,2
000018a6 00000000*     15401 	.word	.LDWlin304
000018aa 0c            15402 	.byte	12
000018ab 13            15403 	.byte	19
000018ac 13            15404 	.byte	19
000018ad 4b            15405 	.byte	75
000018ae 13            15406 	.byte	19
000018af 02            15407 	.byte	2
000018b0 04            15408 	.byte	4
000018b1 000101        15409 	.byte	0,1,1
                       15410 	.section	.debug_info
                       15411 .LDW_4de0c58:
00002a63 0f            15412 	.byte	15
00002a64 75385f5a6f6d  15413 	.strz	"u8_ZomPossition"
00002a6a 506f73736974 
00002a70 696f6e00 
00002a74 b40a          15414 	.byte	180,10
00002a76 0a            15415 	.byte	10
00002a77 01            15416 	.byte	1
00002a78 00000000*     15417 	.word	.LDW_4987d30
00002a7c 00            15418 	.byte	0
00002a7d 0156          15419 	.byte	1,86
                       15420 
                       15421 .LDW_4de0ec0:
00002a7f 0f            15422 	.byte	15
00002a80 75385f494456  15423 	.strz	"u8_IDValue"
00002a86 616c756500 
00002a8b b50a          15424 	.byte	181,10
00002a8d 0b            15425 	.byte	11
00002a8e 01            15426 	.byte	1
00002a8f 00000000*     15427 	.word	.LDW_4dce278
00002a93 00            15428 	.byte	0

                                                                      Page 271
                                                              C:\Users\nhuliyap\AppData\Local\Temp\gh_00002rs1.s
00002a94 016d          15429 	.byte	1,109
                       15430 
                       15431 .LDW_4ddf870:
00002a96 1d            15432 	.byte	29
00002a97 00000000*     15433 	.word	.LDW821
00002a9b 00000000*     15434 	.word	.LDW921
                       15435 
                       15436 .LDW_4de0890:
00002a9f 05            15437 	.byte	5
00002aa0 4c6f63616c5a  15438 	.strz	"LocalZomIDValue"
00002aa6 6f6d49445661 
00002aac 6c756500 
00002ab0 b60a          15439 	.byte	182,10
00002ab2 0b            15440 	.byte	11
00002ab3 01            15441 	.byte	1
00002ab4 00000000*     15442 	.word	.LDW_4de0d08
00002ab8 00            15443 	.byte	0
00002ab9 00            15444 	.byte	0
                       15445 
00002aba 00            15446 	.byte	0
                       15447 
00002abb 00            15448 	.byte	0
                       15449 
                       15450 .LDW_4e19cb0:
00002abc 13            15451 	.byte	19
00002abd 44434d5f496e  15452 	.strz	"DCM_InvIf_HistoryIDReadValue"
00002ac3 7649665f4869 
00002ac9 73746f727949 
00002acf 445265616456 
00002ad5 616c756500 
00002ada bf0a          15453 	.byte	191,10
00002adc 06            15454 	.byte	6
00002add 01            15455 	.byte	1
00002ade 00000000*     15456 	.word	_DCM_InvIf_HistoryIDReadValue
00002ae2 00000000*     15457 	.word	___ghs_eofn_DCM_InvIf_HistoryIDReadValue
00002ae6 0153          15458 	.byte	1,83
00002ae8 8280808008    15459 	.byte	130,128,128,128,8
00002aed 04            15460 	.byte	4
00002aee 03            15461 	.byte	3
00002aef 04            15462 	.byte	4
00002af0 00            15463 	.byte	0
00002af1 00            15464 	.byte	0
00002af2 00            15465 	.byte	0
00002af3 01            15466 	.byte	1
00002af4 01            15467 	.byte	1
00002af5 00            15468 	.byte	0
00002af6 01            15469 	.byte	1
                       15470 
                       15471 	.section	.debug_frame
                       15472 .LDW_5002bd0:
00000700 00000000*     15473 	.word	.LDW_unq_7a-.LDW_unq_79
                       15474 .LDW_unq_79:
00000704 00000000*     15475 	.word	.LDW_4da5d48
00000708 00000000*     15476 	.word	_DCM_InvIf_HistoryIDReadValue
0000070c 00000000*     15477 	.word	___ghs_eofn_DCM_InvIf_HistoryIDReadValue-_DCM_InvIf_HistoryIDReadValue
00000710 44            15478 	.byte	68
00000711 9f            15479 	.byte	159
00000712 00            15480 	.byte	0
00000713 01            15481 	.byte	1
00000714 00000000*     15482 	.word	.LDW131
00000718 44            15483 	.byte	68

                                                                      Page 272
                                                              C:\Users\nhuliyap\AppData\Local\Temp\gh_00002rs1.s
00000719 df            15484 	.byte	223
0000071a 00            15485 	.byte	0
0000071b 00            15486 	.byte	0
                       15487 .LDW_unq_7a:
                       15488 	.section	.debug_line
000018b4 000502        15489 	.byte	0,5,2
000018b7 00000000*     15490 	.word	_DCM_InvIf_HistoryIDReadValue
000018bb 03            15491 	.byte	3
000018bc c00a          15492 	.byte	192,10
000018be 02            15493 	.byte	2
000018bf 00            15494 	.byte	0
000018c0 01            15495 	.byte	1
000018c1 06            15496 	.byte	6
000018c2 24            15497 	.byte	36
000018c3 000502        15498 	.byte	0,5,2
000018c6 00000000*     15499 	.word	.LDWlin305
000018ca 0c            15500 	.byte	12
000018cb 13            15501 	.byte	19
000018cc 13            15502 	.byte	19
000018cd 4b            15503 	.byte	75
000018ce 13            15504 	.byte	19
000018cf 02            15505 	.byte	2
000018d0 04            15506 	.byte	4
000018d1 000101        15507 	.byte	0,1,1
                       15508 	.section	.debug_info
                       15509 .LDW_4de0f18:
00002af7 0f            15510 	.byte	15
00002af8 75385f506f73  15511 	.strz	"u8_Possition"
00002afe 736974696f6e 
00002b04 00 
00002b05 c00a          15512 	.byte	192,10
00002b07 0a            15513 	.byte	10
00002b08 01            15514 	.byte	1
00002b09 00000000*     15515 	.word	.LDW_4987d30
00002b0d 00            15516 	.byte	0
00002b0e 0156          15517 	.byte	1,86
                       15518 
                       15519 .LDW_4de1230:
00002b10 0f            15520 	.byte	15
00002b11 75385f494456  15521 	.strz	"u8_IDValue"
00002b17 616c756500 
00002b1c c10a          15522 	.byte	193,10
00002b1e 0b            15523 	.byte	11
00002b1f 01            15524 	.byte	1
00002b20 00000000*     15525 	.word	.LDW_4dce278
00002b24 00            15526 	.byte	0
00002b25 016d          15527 	.byte	1,109
                       15528 
                       15529 .LDW_4ddfc00:
00002b27 1d            15530 	.byte	29
00002b28 00000000*     15531 	.word	.LDW031
00002b2c 00000000*     15532 	.word	.LDW131
                       15533 
                       15534 .LDW_4de0838:
00002b30 05            15535 	.byte	5
00002b31 4c6f63616c48  15536 	.strz	"LocalHistIDValue"
00002b37 697374494456 
00002b3d 616c756500 
00002b42 c20a          15537 	.byte	194,10
00002b44 0b            15538 	.byte	11
00002b45 01            15539 	.byte	1

                                                                      Page 273
                                                              C:\Users\nhuliyap\AppData\Local\Temp\gh_00002rs1.s
00002b46 00000000*     15540 	.word	.LDW_4de0d08
00002b4a 00            15541 	.byte	0
00002b4b 00            15542 	.byte	0
                       15543 
00002b4c 00            15544 	.byte	0
                       15545 
00002b4d 00            15546 	.byte	0
                       15547 
                       15548 .LDW_4e1aaf0:
00002b4e 14            15549 	.byte	20
00002b4f 44434d5f496e  15550 	.strz	"DCM_InvIf_AutoLocGetTimeoutCntValue"
00002b55 7649665f4175 
00002b5b 746f4c6f6347 
00002b61 657454696d65 
00002b67 6f7574436e74 
00002b6d 56616c756500 
00002b73 cb0a          15551 	.byte	203,10
00002b75 07            15552 	.byte	7
00002b76 01            15553 	.byte	1
00002b77 00000000*     15554 	.word	.LDW_4987d30
00002b7b 00000000*     15555 	.word	_DCM_InvIf_AutoLocGetTimeoutCntValue
00002b7f 00000000*     15556 	.word	___ghs_eofn_DCM_InvIf_AutoLocGetTimeoutCntValue
00002b83 0153          15557 	.byte	1,83
00002b85 02            15558 	.byte	2
00002b86 00            15559 	.byte	0
00002b87 02            15560 	.byte	2
00002b88 00            15561 	.byte	0
00002b89 00            15562 	.byte	0
00002b8a 00            15563 	.byte	0
00002b8b 00            15564 	.byte	0
00002b8c 01            15565 	.byte	1
00002b8d 01            15566 	.byte	1
00002b8e 00            15567 	.byte	0
00002b8f 01            15568 	.byte	1
                       15569 
                       15570 	.section	.debug_frame
                       15571 .LDW_5002950:
0000071c 00000000*     15572 	.word	.LDW_unq_7c-.LDW_unq_7b
                       15573 .LDW_unq_7b:
00000720 00000000*     15574 	.word	.LDW_4da5d48
00000724 00000000*     15575 	.word	_DCM_InvIf_AutoLocGetTimeoutCntValue
00000728 00000000*     15576 	.word	___ghs_eofn_DCM_InvIf_AutoLocGetTimeoutCntValue-_DCM_InvIf_AutoLocGetTimeoutCntValue
0000072c 01            15577 	.byte	1
0000072d 00000000*     15578 	.word	.LDW331
00000731 00            15579 	.byte	0
00000732 00            15580 	.byte	0
00000733 00            15581 	.byte	0
                       15582 .LDW_unq_7c:
                       15583 	.section	.debug_line
000018d4 000502        15584 	.byte	0,5,2
000018d7 00000000*     15585 	.word	_DCM_InvIf_AutoLocGetTimeoutCntValue
000018db 06            15586 	.byte	6
000018dc 03            15587 	.byte	3
000018dd cc0a          15588 	.byte	204,10
000018df 02            15589 	.byte	2
000018e0 00            15590 	.byte	0
000018e1 01            15591 	.byte	1
000018e2 06            15592 	.byte	6
000018e3 000502        15593 	.byte	0,5,2
000018e6 00000000*     15594 	.word	.LDWlin306
000018ea 02            15595 	.byte	2

                                                                      Page 274
                                                              C:\Users\nhuliyap\AppData\Local\Temp\gh_00002rs1.s
000018eb 00            15596 	.byte	0
000018ec 02            15597 	.byte	2
000018ed 02            15598 	.byte	2
000018ee 000101        15599 	.byte	0,1,1
                       15600 	.section	.debug_info
                       15601 .LDW_4ddfb40:
00002b90 1d            15602 	.byte	29
00002b91 00000000*     15603 	.word	.LDW231
00002b95 00000000*     15604 	.word	.LDW331
                       15605 
00002b99 00            15606 	.byte	0
                       15607 
00002b9a 00            15608 	.byte	0
                       15609 
                       15610 .LDW_4e19b80:
00002b9b 13            15611 	.byte	19
00002b9c 44434d5f496e  15612 	.strz	"DCM_InvIf_HistoryWPReadValue"
00002ba2 7649665f4869 
00002ba8 73746f727957 
00002bae 505265616456 
00002bb4 616c756500 
00002bb9 d00a          15613 	.byte	208,10
00002bbb 06            15614 	.byte	6
00002bbc 01            15615 	.byte	1
00002bbd 00000000*     15616 	.word	_DCM_InvIf_HistoryWPReadValue
00002bc1 00000000*     15617 	.word	___ghs_eofn_DCM_InvIf_HistoryWPReadValue
00002bc5 0153          15618 	.byte	1,83
00002bc7 8280808008    15619 	.byte	130,128,128,128,8
00002bcc 04            15620 	.byte	4
00002bcd 03            15621 	.byte	3
00002bce 04            15622 	.byte	4
00002bcf 00            15623 	.byte	0
00002bd0 00            15624 	.byte	0
00002bd1 00            15625 	.byte	0
00002bd2 01            15626 	.byte	1
00002bd3 01            15627 	.byte	1
00002bd4 00            15628 	.byte	0
00002bd5 01            15629 	.byte	1
                       15630 
                       15631 	.section	.debug_frame
                       15632 .LDW_5002f90:
00000734 00000000*     15633 	.word	.LDW_unq_7e-.LDW_unq_7d
                       15634 .LDW_unq_7d:
00000738 00000000*     15635 	.word	.LDW_4da5d48
0000073c 00000000*     15636 	.word	_DCM_InvIf_HistoryWPReadValue
00000740 00000000*     15637 	.word	___ghs_eofn_DCM_InvIf_HistoryWPReadValue-_DCM_InvIf_HistoryWPReadValue
00000744 44            15638 	.byte	68
00000745 9f            15639 	.byte	159
00000746 00            15640 	.byte	0
00000747 01            15641 	.byte	1
00000748 00000000*     15642 	.word	.LDW531
0000074c 44            15643 	.byte	68
0000074d df            15644 	.byte	223
0000074e 00            15645 	.byte	0
0000074f 00            15646 	.byte	0
                       15647 .LDW_unq_7e:
                       15648 	.section	.debug_line
000018f1 000502        15649 	.byte	0,5,2
000018f4 00000000*     15650 	.word	_DCM_InvIf_HistoryWPReadValue
000018f8 03            15651 	.byte	3
000018f9 d10a          15652 	.byte	209,10

                                                                      Page 275
                                                              C:\Users\nhuliyap\AppData\Local\Temp\gh_00002rs1.s
000018fb 02            15653 	.byte	2
000018fc 00            15654 	.byte	0
000018fd 01            15655 	.byte	1
000018fe 06            15656 	.byte	6
000018ff 23            15657 	.byte	35
00001900 000502        15658 	.byte	0,5,2
00001903 00000000*     15659 	.word	.LDWlin307
00001907 0c            15660 	.byte	12
00001908 02            15661 	.byte	2
00001909 04            15662 	.byte	4
0000190a 000101        15663 	.byte	0,1,1
                       15664 	.section	.debug_info
                       15665 .LDW_4de1548:
00002bd6 0f            15666 	.byte	15
00002bd7 75385f506f73  15667 	.strz	"u8_Possition"
00002bdd 736974696f6e 
00002be3 00 
00002be4 d10a          15668 	.byte	209,10
00002be6 0a            15669 	.byte	10
00002be7 01            15670 	.byte	1
00002be8 00000000*     15671 	.word	.LDW_4987d30
00002bec 00            15672 	.byte	0
00002bed 0156          15673 	.byte	1,86
                       15674 
                       15675 .LDW_4de16a8:
00002bef 0f            15676 	.byte	15
00002bf0 75385f575056  15677 	.strz	"u8_WPValue"
00002bf6 616c756500 
00002bfb d20a          15678 	.byte	210,10
00002bfd 0b            15679 	.byte	11
00002bfe 01            15680 	.byte	1
00002bff 00000000*     15681 	.word	.LDW_4dce278
00002c03 00            15682 	.byte	0
00002c04 016d          15683 	.byte	1,109
                       15684 
                       15685 .LDW_4ddfcc0:
00002c06 1d            15686 	.byte	29
00002c07 00000000*     15687 	.word	.LDW431
00002c0b 00000000*     15688 	.word	.LDW531
                       15689 
00002c0f 00            15690 	.byte	0
                       15691 
00002c10 00            15692 	.byte	0
                       15693 
                       15694 .LDW_4e1a598:
00002c11 14            15695 	.byte	20
00002c12 44434d5f496e  15696 	.strz	"DCM_InvIf_ZomTelCntGetFromMemory"
00002c18 7649665f5a6f 
00002c1e 6d54656c436e 
00002c24 744765744672 
00002c2a 6f6d4d656d6f 
00002c30 727900 
00002c33 d70a          15697 	.byte	215,10
00002c35 07            15698 	.byte	7
00002c36 01            15699 	.byte	1
00002c37 00000000*     15700 	.word	.LDW_4987d30
00002c3b 00000000*     15701 	.word	_DCM_InvIf_ZomTelCntGetFromMemory
00002c3f 00000000*     15702 	.word	___ghs_eofn_DCM_InvIf_ZomTelCntGetFromMemory
00002c43 0153          15703 	.byte	1,83
00002c45 02            15704 	.byte	2
00002c46 00            15705 	.byte	0

                                                                      Page 276
                                                              C:\Users\nhuliyap\AppData\Local\Temp\gh_00002rs1.s
00002c47 02            15706 	.byte	2
00002c48 00            15707 	.byte	0
00002c49 00            15708 	.byte	0
00002c4a 00            15709 	.byte	0
00002c4b 00            15710 	.byte	0
00002c4c 01            15711 	.byte	1
00002c4d 01            15712 	.byte	1
00002c4e 00            15713 	.byte	0
00002c4f 01            15714 	.byte	1
                       15715 
                       15716 	.section	.debug_frame
                       15717 .LDW_5002c50:
00000750 00000000*     15718 	.word	.LDW_unq_80-.LDW_unq_7f
                       15719 .LDW_unq_7f:
00000754 00000000*     15720 	.word	.LDW_4da5d48
00000758 00000000*     15721 	.word	_DCM_InvIf_ZomTelCntGetFromMemory
0000075c 00000000*     15722 	.word	___ghs_eofn_DCM_InvIf_ZomTelCntGetFromMemory-_DCM_InvIf_ZomTelCntGetFromMemory
00000760 01            15723 	.byte	1
00000761 00000000*     15724 	.word	.LDW731
00000765 00            15725 	.byte	0
00000766 00            15726 	.byte	0
00000767 00            15727 	.byte	0
                       15728 .LDW_unq_80:
                       15729 	.section	.debug_line
0000190d 000502        15730 	.byte	0,5,2
00001910 00000000*     15731 	.word	_DCM_InvIf_ZomTelCntGetFromMemory
00001914 03            15732 	.byte	3
00001915 d70a          15733 	.byte	215,10
00001917 02            15734 	.byte	2
00001918 00            15735 	.byte	0
00001919 01            15736 	.byte	1
0000191a 06            15737 	.byte	6
0000191b 13            15738 	.byte	19
0000191c 02            15739 	.byte	2
0000191d 04            15740 	.byte	4
0000191e 000101        15741 	.byte	0,1,1
                       15742 	.section	.debug_info
                       15743 .LDW_4de1440:
00002c50 0f            15744 	.byte	15
00002c51 75385f5a6f6d  15745 	.strz	"u8_ZomPossition"
00002c57 506f73736974 
00002c5d 696f6e00 
00002c61 d80a          15746 	.byte	216,10
00002c63 0a            15747 	.byte	10
00002c64 01            15748 	.byte	1
00002c65 00000000*     15749 	.word	.LDW_4987d30
00002c69 00            15750 	.byte	0
00002c6a 0156          15751 	.byte	1,86
                       15752 
                       15753 .LDW_4ddfcf0:
00002c6c 1d            15754 	.byte	29
00002c6d 00000000*     15755 	.word	.LDW631
00002c71 00000000*     15756 	.word	.LDW731
                       15757 
00002c75 00            15758 	.byte	0
                       15759 
00002c76 00            15760 	.byte	0
                       15761 
                       15762 .LDW_4e1a3d0:
00002c77 14            15763 	.byte	20
00002c78 44434d5f496e  15764 	.strz	"DCM_InvIf_ZomPosCurrIDGetValue"

                                                                      Page 277
                                                              C:\Users\nhuliyap\AppData\Local\Temp\gh_00002rs1.s
00002c7e 7649665f5a6f 
00002c84 6d506f734375 
00002c8a 727249444765 
00002c90 7456616c7565 
00002c96 00 
00002c97 dd0a          15765 	.byte	221,10
00002c99 07            15766 	.byte	7
00002c9a 01            15767 	.byte	1
00002c9b 00000000*     15768 	.word	.LDW_4987d30
00002c9f 00000000*     15769 	.word	_DCM_InvIf_ZomPosCurrIDGetValue
00002ca3 00000000*     15770 	.word	___ghs_eofn_DCM_InvIf_ZomPosCurrIDGetValue
00002ca7 0153          15771 	.byte	1,83
00002ca9 8280808008    15772 	.byte	130,128,128,128,8
00002cae 04            15773 	.byte	4
00002caf 03            15774 	.byte	3
00002cb0 08            15775 	.byte	8
00002cb1 00            15776 	.byte	0
00002cb2 00            15777 	.byte	0
00002cb3 00            15778 	.byte	0
00002cb4 01            15779 	.byte	1
00002cb5 01            15780 	.byte	1
00002cb6 00            15781 	.byte	0
00002cb7 01            15782 	.byte	1
                       15783 
                       15784 	.section	.debug_frame
                       15785 .LDW_50029d0:
00000768 00000000*     15786 	.word	.LDW_unq_82-.LDW_unq_81
                       15787 .LDW_unq_81:
0000076c 00000000*     15788 	.word	.LDW_4da5d48
00000770 00000000*     15789 	.word	_DCM_InvIf_ZomPosCurrIDGetValue
00000774 00000000*     15790 	.word	___ghs_eofn_DCM_InvIf_ZomPosCurrIDGetValue-_DCM_InvIf_ZomPosCurrIDGetValue
00000778 44            15791 	.byte	68
00000779 9f            15792 	.byte	159
0000077a 03            15793 	.byte	3
0000077b 01            15794 	.byte	1
0000077c 00000000*     15795 	.word	.LDW931
00000780 44            15796 	.byte	68
00000781 df            15797 	.byte	223
00000782 00            15798 	.byte	0
00000783 00            15799 	.byte	0
                       15800 .LDW_unq_82:
                       15801 	.section	.debug_line
00001921 000502        15802 	.byte	0,5,2
00001924 00000000*     15803 	.word	_DCM_InvIf_ZomPosCurrIDGetValue
00001928 03            15804 	.byte	3
00001929 dd0a          15805 	.byte	221,10
0000192b 02            15806 	.byte	2
0000192c 00            15807 	.byte	0
0000192d 01            15808 	.byte	1
0000192e 06            15809 	.byte	6
0000192f 1c            15810 	.byte	28
00001930 000502        15811 	.byte	0,5,2
00001933 00000000*     15812 	.word	.LDWlin308
00001937 0b            15813 	.byte	11
00001938 06            15814 	.byte	6
00001939 000502        15815 	.byte	0,5,2
0000193c 00000000*     15816 	.word	.LDWlin309
00001940 02            15817 	.byte	2
00001941 00            15818 	.byte	0
00001942 02            15819 	.byte	2
00001943 04            15820 	.byte	4

                                                                      Page 278
                                                              C:\Users\nhuliyap\AppData\Local\Temp\gh_00002rs1.s
00001944 000101        15821 	.byte	0,1,1
                       15822 	.section	.debug_info
                       15823 .LDW_4ddf960:
00002cb8 1d            15824 	.byte	29
00002cb9 00000000*     15825 	.word	.LDW831
00002cbd 00000000*     15826 	.word	.LDW931
                       15827 
                       15828 .LDW_4de1338:
00002cc1 04            15829 	.byte	4
00002cc2 4c6f63616c49  15830 	.strz	"LocalIdValue"
00002cc8 6456616c7565 
00002cce 00 
00002ccf df0a          15831 	.byte	223,10
00002cd1 0b            15832 	.byte	11
00002cd2 01            15833 	.byte	1
00002cd3 00000000*     15834 	.word	.LDW_4de0d08
00002cd7 00            15835 	.byte	0
00002cd8 00            15836 	.byte	0
00002cd9 0273          15837 	.byte	2,115
00002cdb 00            15838 	.byte	0
                       15839 
00002cdc 00            15840 	.byte	0
                       15841 
00002cdd 00            15842 	.byte	0
                       15843 
                       15844 .LDW_4e1a040:
00002cde 13            15845 	.byte	19
00002cdf 557064617465  15846 	.strz	"UpdateHistoryFromRAMWIthTheOneFromNVM"
00002ce5 486973746f72 
00002ceb 7946726f6d52 
00002cf1 414d57497468 
00002cf7 5468654f6e65 
00002cfd 46726f6d4e56 
00002d03 4d00 
00002d05 e50a          15847 	.byte	229,10
00002d07 06            15848 	.byte	6
00002d08 01            15849 	.byte	1
00002d09 00000000*     15850 	.word	_UpdateHistoryFromRAMWIthTheOneFromNVM
00002d0d 00000000*     15851 	.word	___ghs_eofn_UpdateHistoryFromRAMWIthTheOneFromNVM
00002d11 0153          15852 	.byte	1,83
00002d13 828080800a    15853 	.byte	130,128,128,128,10
00002d18 08            15854 	.byte	8
00002d19 03            15855 	.byte	3
00002d1a 08            15856 	.byte	8
00002d1b 00            15857 	.byte	0
00002d1c 00            15858 	.byte	0
00002d1d 00            15859 	.byte	0
00002d1e 01            15860 	.byte	1
00002d1f 01            15861 	.byte	1
00002d20 00            15862 	.byte	0
00002d21 01            15863 	.byte	1
                       15864 
                       15865 	.section	.debug_frame
                       15866 .LDW_5002c10:
00000784 00000000*     15867 	.word	.LDW_unq_84-.LDW_unq_83
                       15868 .LDW_unq_83:
00000788 00000000*     15869 	.word	.LDW_4da5d48
0000078c 00000000*     15870 	.word	_UpdateHistoryFromRAMWIthTheOneFromNVM
00000790 00000000*     15871 	.word	___ghs_eofn_UpdateHistoryFromRAMWIthTheOneFromNVM-_UpdateHistoryFromRAMWIthTheOneFromNVM
00000794 44            15872 	.byte	68
00000795 9f            15873 	.byte	159

                                                                      Page 279
                                                              C:\Users\nhuliyap\AppData\Local\Temp\gh_00002rs1.s
00000796 00            15874 	.byte	0
00000797 40            15875 	.byte	64
00000798 9d            15876 	.byte	157
00000799 04            15877 	.byte	4
0000079a 01            15878 	.byte	1
0000079b 00000000*     15879 	.word	.LDW141
0000079f 44            15880 	.byte	68
000007a0 df            15881 	.byte	223
000007a1 40            15882 	.byte	64
000007a2 dd            15883 	.byte	221
000007a3 00            15884 	.byte	0
                       15885 .LDW_unq_84:
                       15886 	.section	.debug_line
00001947 000502        15887 	.byte	0,5,2
0000194a 00000000*     15888 	.word	_UpdateHistoryFromRAMWIthTheOneFromNVM
0000194e 03            15889 	.byte	3
0000194f e50a          15890 	.byte	229,10
00001951 02            15891 	.byte	2
00001952 00            15892 	.byte	0
00001953 01            15893 	.byte	1
00001954 06            15894 	.byte	6
00001955 000502        15895 	.byte	0,5,2
00001958 00000000*     15896 	.word	.LDWlin310
0000195c 0b            15897 	.byte	11
0000195d 000502        15898 	.byte	0,5,2
00001960 00000000*     15899 	.word	.LDWlin311
00001964 0d            15900 	.byte	13
00001965 000502        15901 	.byte	0,5,2
00001968 00000000*     15902 	.word	.LDWlin312
0000196c 0d            15903 	.byte	13
0000196d 02            15904 	.byte	2
0000196e 04            15905 	.byte	4
0000196f 000101        15906 	.byte	0,1,1
                       15907 	.section	.debug_info
                       15908 .LDW_4ddf900:
00002d22 1d            15909 	.byte	29
00002d23 00000000*     15910 	.word	.LDW041
00002d27 00000000*     15911 	.word	.LDW141
                       15912 
00002d2b 00            15913 	.byte	0
                       15914 
00002d2c 00            15915 	.byte	0
                       15916 
                       15917 .LDW_4e199b8:
00002d2d 13            15918 	.byte	19
00002d2e 52657365744e  15919 	.strz	"ResetNrOfTOs"
00002d34 724f66544f73 
00002d3a 00 
00002d3b ef0a          15920 	.byte	239,10
00002d3d 06            15921 	.byte	6
00002d3e 01            15922 	.byte	1
00002d3f 00000000*     15923 	.word	_ResetNrOfTOs
00002d43 00000000*     15924 	.word	___ghs_eofn_ResetNrOfTOs
00002d47 0153          15925 	.byte	1,83
00002d49 02            15926 	.byte	2
00002d4a 00            15927 	.byte	0
00002d4b 02            15928 	.byte	2
00002d4c 00            15929 	.byte	0
00002d4d 00            15930 	.byte	0
00002d4e 00            15931 	.byte	0
00002d4f 00            15932 	.byte	0

                                                                      Page 280
                                                              C:\Users\nhuliyap\AppData\Local\Temp\gh_00002rs1.s
00002d50 01            15933 	.byte	1
00002d51 01            15934 	.byte	1
00002d52 00            15935 	.byte	0
00002d53 01            15936 	.byte	1
                       15937 
                       15938 	.section	.debug_frame
                       15939 .LDW_50025d0:
000007a4 00000000*     15940 	.word	.LDW_unq_86-.LDW_unq_85
                       15941 .LDW_unq_85:
000007a8 00000000*     15942 	.word	.LDW_4da5d48
000007ac 00000000*     15943 	.word	_ResetNrOfTOs
000007b0 00000000*     15944 	.word	___ghs_eofn_ResetNrOfTOs-_ResetNrOfTOs
000007b4 01            15945 	.byte	1
000007b5 00000000*     15946 	.word	.LDW341
000007b9 00            15947 	.byte	0
000007ba 00            15948 	.byte	0
000007bb 00            15949 	.byte	0
                       15950 .LDW_unq_86:
                       15951 	.section	.debug_line
00001972 000502        15952 	.byte	0,5,2
00001975 00000000*     15953 	.word	_ResetNrOfTOs
00001979 06            15954 	.byte	6
0000197a 03            15955 	.byte	3
0000197b f00a          15956 	.byte	240,10
0000197d 02            15957 	.byte	2
0000197e 00            15958 	.byte	0
0000197f 01            15959 	.byte	1
00001980 000502        15960 	.byte	0,5,2
00001983 00000000*     15961 	.word	.LDWlin313
00001987 0b            15962 	.byte	11
00001988 02            15963 	.byte	2
00001989 02            15964 	.byte	2
0000198a 000101        15965 	.byte	0,1,1
                       15966 	.section	.debug_info
                       15967 .LDW_4ddfd20:
00002d54 1d            15968 	.byte	29
00002d55 00000000*     15969 	.word	.LDW241
00002d59 00000000*     15970 	.word	.LDW341
                       15971 
00002d5d 00            15972 	.byte	0
                       15973 
00002d5e 00            15974 	.byte	0
                       15975 
                       15976 .LDW_4e19a50:
00002d5f 14            15977 	.byte	20
00002d60 756343686563  15978 	.strz	"ucCheckPotentialErInZom"
00002d66 6b506f74656e 
00002d6c 7469616c4572 
00002d72 496e5a6f6d00 
00002d78 f40a          15979 	.byte	244,10
00002d7a 0f            15980 	.byte	15
00002d7b 01            15981 	.byte	1
00002d7c 00000000*     15982 	.word	.LDW_4946da0
00002d80 00000000*     15983 	.word	_ucCheckPotentialErInZom
00002d84 00000000*     15984 	.word	___ghs_eofn_ucCheckPotentialErInZom
00002d88 0153          15985 	.byte	1,83
00002d8a 828080f80b    15986 	.byte	130,128,128,248,11
00002d8f 1c            15987 	.byte	28
00002d90 03            15988 	.byte	3
00002d91 1c            15989 	.byte	28
00002d92 00            15990 	.byte	0

                                                                      Page 281
                                                              C:\Users\nhuliyap\AppData\Local\Temp\gh_00002rs1.s
00002d93 00            15991 	.byte	0
00002d94 00            15992 	.byte	0
00002d95 01            15993 	.byte	1
00002d96 01            15994 	.byte	1
00002d97 00            15995 	.byte	0
00002d98 01            15996 	.byte	1
                       15997 
                       15998 	.section	.debug_frame
                       15999 .LDW_5002190:
000007bc 00000000*     16000 	.word	.LDW_unq_88-.LDW_unq_87
                       16001 .LDW_unq_87:
000007c0 00000000*     16002 	.word	.LDW_4da5d48
000007c4 00000000*     16003 	.word	_ucCheckPotentialErInZom
000007c8 00000000*     16004 	.word	___ghs_eofn_ucCheckPotentialErInZom-_ucCheckPotentialErInZom
000007cc 44            16005 	.byte	68
000007cd 9f            16006 	.byte	159
000007ce 00            16007 	.byte	0
000007cf 40            16008 	.byte	64
000007d0 9d            16009 	.byte	157
000007d1 04            16010 	.byte	4
000007d2 40            16011 	.byte	64
000007d3 9c            16012 	.byte	156
000007d4 08            16013 	.byte	8
000007d5 40            16014 	.byte	64
000007d6 9b            16015 	.byte	155
000007d7 0c            16016 	.byte	12
000007d8 40            16017 	.byte	64
000007d9 9a            16018 	.byte	154
000007da 10            16019 	.byte	16
000007db 40            16020 	.byte	64
000007dc 99            16021 	.byte	153
000007dd 14            16022 	.byte	20
000007de 40            16023 	.byte	64
000007df 98            16024 	.byte	152
000007e0 18            16025 	.byte	24
000007e1 01            16026 	.byte	1
000007e2 00000000*     16027 	.word	.LDW541
000007e6 00            16028 	.byte	0
000007e7 00            16029 	.byte	0
                       16030 .LDW_unq_88:
                       16031 	.section	.debug_line
0000198d 000502        16032 	.byte	0,5,2
00001990 00000000*     16033 	.word	_ucCheckPotentialErInZom
00001994 03            16034 	.byte	3
00001995 f40a          16035 	.byte	244,10
00001997 02            16036 	.byte	2
00001998 00            16037 	.byte	0
00001999 01            16038 	.byte	1
0000199a 06            16039 	.byte	6
0000199b 1c            16040 	.byte	28
0000199c 14            16041 	.byte	20
0000199d 13            16042 	.byte	19
0000199e 000502        16043 	.byte	0,5,2
000019a1 00000000*     16044 	.word	.LDWlin314
000019a5 0c            16045 	.byte	12
000019a6 02            16046 	.byte	2
000019a7 02            16047 	.byte	2
000019a8 0b            16048 	.byte	11
000019a9 02            16049 	.byte	2
000019aa 02            16050 	.byte	2
000019ab 0b            16051 	.byte	11

                                                                      Page 282
                                                              C:\Users\nhuliyap\AppData\Local\Temp\gh_00002rs1.s
000019ac 000502        16052 	.byte	0,5,2
000019af 00000000*     16053 	.word	.LDWlin315
000019b3 0b            16054 	.byte	11
000019b4 0b            16055 	.byte	11
000019b5 1b            16056 	.byte	27
000019b6 02            16057 	.byte	2
000019b7 00            16058 	.byte	0
000019b8 03            16059 	.byte	3
000019b9 7c            16060 	.byte	124
000019ba 02            16061 	.byte	2
000019bb 00            16062 	.byte	0
000019bc 01            16063 	.byte	1
000019bd 000502        16064 	.byte	0,5,2
000019c0 00000000*     16065 	.word	.LDWlin316
000019c4 03            16066 	.byte	3
000019c5 05            16067 	.byte	5
000019c6 02            16068 	.byte	2
000019c7 00            16069 	.byte	0
000019c8 01            16070 	.byte	1
000019c9 03            16071 	.byte	3
000019ca 7a            16072 	.byte	122
000019cb 02            16073 	.byte	2
000019cc 00            16074 	.byte	0
000019cd 01            16075 	.byte	1
000019ce 000502        16076 	.byte	0,5,2
000019d1 00000000*     16077 	.word	.LDWlin317
000019d5 03            16078 	.byte	3
000019d6 07            16079 	.byte	7
000019d7 02            16080 	.byte	2
000019d8 00            16081 	.byte	0
000019d9 01            16082 	.byte	1
000019da 0b            16083 	.byte	11
000019db 000502        16084 	.byte	0,5,2
000019de 00000000*     16085 	.word	.LDWlin318
000019e2 02            16086 	.byte	2
000019e3 00            16087 	.byte	0
000019e4 0b            16088 	.byte	11
000019e5 02            16089 	.byte	2
000019e6 02            16090 	.byte	2
000019e7 0b            16091 	.byte	11
000019e8 1b            16092 	.byte	27
000019e9 02            16093 	.byte	2
000019ea 00            16094 	.byte	0
000019eb 0b            16095 	.byte	11
000019ec 02            16096 	.byte	2
000019ed 00            16097 	.byte	0
000019ee 0b            16098 	.byte	11
000019ef 06            16099 	.byte	6
000019f0 02            16100 	.byte	2
000019f1 02            16101 	.byte	2
000019f2 02            16102 	.byte	2
000019f3 04            16103 	.byte	4
000019f4 000101        16104 	.byte	0,1,1
                       16105 	.section	.debug_info
                       16106 .LDW_4ddfba0:
00002d99 1d            16107 	.byte	29
00002d9a 00000000*     16108 	.word	.LDW441
00002d9e 00000000*     16109 	.word	.LDW541
                       16110 
                       16111 .LDW_4de1390:
00002da2 04            16112 	.byte	4

                                                                      Page 283
                                                              C:\Users\nhuliyap\AppData\Local\Temp\gh_00002rs1.s
00002da3 6900          16113 	.strz	"i"
00002da5 f60a          16114 	.byte	246,10
00002da7 12            16115 	.byte	18
00002da8 01            16116 	.byte	1
00002da9 00000000*     16117 	.word	.LDW_4946da0
00002dad 00            16118 	.byte	0
00002dae 00            16119 	.byte	0
00002daf 016b          16120 	.byte	1,107
                       16121 
                       16122 .LDW_4de13e8:
00002db1 04            16123 	.byte	4
00002db2 6a00          16124 	.strz	"j"
00002db4 f60a          16125 	.byte	246,10
00002db6 15            16126 	.byte	21
00002db7 01            16127 	.byte	1
00002db8 00000000*     16128 	.word	.LDW_4946da0
00002dbc 00            16129 	.byte	0
00002dbd 00            16130 	.byte	0
00002dbe 016a          16131 	.byte	1,106
                       16132 
                       16133 .LDW_4de15a0:
00002dc0 04            16134 	.byte	4
00002dc1 756352657400  16135 	.strz	"ucRet"
00002dc7 f70a          16136 	.byte	247,10
00002dc9 12            16137 	.byte	18
00002dca 01            16138 	.byte	1
00002dcb 00000000*     16139 	.word	.LDW_4946da0
00002dcf 00            16140 	.byte	0
00002dd0 00            16141 	.byte	0
00002dd1 0169          16142 	.byte	1,105
                       16143 
                       16144 .LDW_4de15f8:
00002dd3 04            16145 	.byte	4
00002dd4 75634e72506f  16146 	.strz	"ucNrPotentialErZom"
00002dda 74656e746961 
00002de0 6c45725a6f6d 
00002de6 00 
00002de7 f80a          16147 	.byte	248,10
00002de9 12            16148 	.byte	18
00002dea 01            16149 	.byte	1
00002deb 00000000*     16150 	.word	.LDW_4946da0
00002def 00            16151 	.byte	0
00002df0 00            16152 	.byte	0
00002df1 0168          16153 	.byte	1,104
                       16154 
                       16155 .LDW_4de1288:
00002df3 04            16156 	.byte	4
00002df4 75634e724869  16157 	.strz	"ucNrHistoryErZom"
00002dfa 73746f727945 
00002e00 725a6f6d00 
00002e05 f90a          16158 	.byte	249,10
00002e07 12            16159 	.byte	18
00002e08 01            16160 	.byte	1
00002e09 00000000*     16161 	.word	.LDW_4946da0
00002e0d 00            16162 	.byte	0
00002e0e 00            16163 	.byte	0
00002e0f 016d          16164 	.byte	1,109
                       16165 
00002e11 00            16166 	.byte	0
                       16167 
00002e12 00            16168 	.byte	0

                                                                      Page 284
                                                              C:\Users\nhuliyap\AppData\Local\Temp\gh_00002rs1.s
                       16169 
                       16170 .LDW_4e19ae8:
00002e13 13            16171 	.byte	19
00002e14 526573657441  16172 	.strz	"ResetAllocErrorCnt"
00002e1a 6c6c6f634572 
00002e20 726f72436e74 
00002e26 00 
00002e27 8c0b          16173 	.byte	140,11
00002e29 06            16174 	.byte	6
00002e2a 01            16175 	.byte	1
00002e2b 00000000*     16176 	.word	_ResetAllocErrorCnt
00002e2f 00000000*     16177 	.word	___ghs_eofn_ResetAllocErrorCnt
00002e33 0153          16178 	.byte	1,83
00002e35 02            16179 	.byte	2
00002e36 00            16180 	.byte	0
00002e37 02            16181 	.byte	2
00002e38 00            16182 	.byte	0
00002e39 00            16183 	.byte	0
00002e3a 00            16184 	.byte	0
00002e3b 00            16185 	.byte	0
00002e3c 01            16186 	.byte	1
00002e3d 01            16187 	.byte	1
00002e3e 00            16188 	.byte	0
00002e3f 01            16189 	.byte	1
                       16190 
                       16191 	.section	.debug_frame
                       16192 .LDW_4fb7a98:
000007e8 00000000*     16193 	.word	.LDW_unq_8a-.LDW_unq_89
                       16194 .LDW_unq_89:
000007ec 00000000*     16195 	.word	.LDW_4da5d48
000007f0 00000000*     16196 	.word	_ResetAllocErrorCnt
000007f4 00000000*     16197 	.word	___ghs_eofn_ResetAllocErrorCnt-_ResetAllocErrorCnt
000007f8 01            16198 	.byte	1
000007f9 00000000*     16199 	.word	.LDW301
000007fd 00            16200 	.byte	0
000007fe 00            16201 	.byte	0
000007ff 00            16202 	.byte	0
                       16203 .LDW_unq_8a:
                       16204 	.section	.debug_line
000019f7 000502        16205 	.byte	0,5,2
000019fa 00000000*     16206 	.word	_ResetAllocErrorCnt
000019fe 03            16207 	.byte	3
000019ff 8c0b          16208 	.byte	140,11
00001a01 02            16209 	.byte	2
00001a02 00            16210 	.byte	0
00001a03 01            16211 	.byte	1
00001a04 06            16212 	.byte	6
00001a05 000502        16213 	.byte	0,5,2
00001a08 00000000*     16214 	.word	.LDWlin238
00001a0c 0b            16215 	.byte	11
00001a0d 13            16216 	.byte	19
00001a0e 13            16217 	.byte	19
00001a0f 13            16218 	.byte	19
00001a10 02            16219 	.byte	2
00001a11 02            16220 	.byte	2
00001a12 000101        16221 	.byte	0,1,1
                       16222 	.section	.debug_info
                       16223 .LDW_4ddf8a0:
00002e40 1d            16224 	.byte	29
00002e41 00000000*     16225 	.word	.LDW201
00002e45 00000000*     16226 	.word	.LDW301

                                                                      Page 285
                                                              C:\Users\nhuliyap\AppData\Local\Temp\gh_00002rs1.s
                       16227 
00002e49 00            16228 	.byte	0
                       16229 
00002e4a 00            16230 	.byte	0
                       16231 
00002e4b 00            16232 	.byte	0
                       16233 
                       16234 	.section	.debug_line
                       16235 .Ldw_line_end:
                       16236 	.section	.debug_macinfo
00000000 01            16237 	.byte	1
00000001 00            16238 	.byte	0
00000002 5f5f6768735f  16239 	.strz	"__ghs__ 1"
00000008 5f203100 
0000000c 01            16240 	.byte	1
0000000d 00            16241 	.byte	0
0000000e 5f5f4c4c4f4e  16242 	.strz	"__LLONG_BIT 64"
00000014 475f42495420 
0000001a 363400 
0000001d 03            16243 	.byte	3
0000001e 00            16244 	.byte	0
0000001f 01            16245 	.byte	1
00000020 03            16246 	.byte	3
00000021 03            16247 	.byte	3
00000022 02            16248 	.byte	2
00000023 03            16249 	.byte	3
00000024 1c            16250 	.byte	28
00000025 03            16251 	.byte	3
00000026 01            16252 	.byte	1
00000027 3c            16253 	.byte	60
00000028 545255452031  16254 	.strz	"TRUE 1u"
0000002e 7500 
00000030 01            16255 	.byte	1
00000031 40            16256 	.byte	64
00000032 46414c534520  16257 	.strz	"FALSE 0u"
00000038 307500 
0000003b 04            16258 	.byte	4
0000003c 03            16259 	.byte	3
0000003d 1d            16260 	.byte	29
0000003e 04            16261 	.byte	4
0000003f 03            16262 	.byte	3
00000040 1b            16263 	.byte	27
00000041 05            16264 	.byte	5
00000042 03            16265 	.byte	3
00000043 54            16266 	.byte	84
00000044 06            16267 	.byte	6
00000045 04            16268 	.byte	4
00000046 04            16269 	.byte	4
00000047 04            16270 	.byte	4
00000048 04            16271 	.byte	4
00000049 03            16272 	.byte	3
0000004a 05            16273 	.byte	5
0000004b 07            16274 	.byte	7
0000004c 03            16275 	.byte	3
0000004d 04            16276 	.byte	4
0000004e 08            16277 	.byte	8
0000004f 03            16278 	.byte	3
00000050 04            16279 	.byte	4
00000051 09            16280 	.byte	9
00000052 04            16281 	.byte	4
00000053 01            16282 	.byte	1

                                                                      Page 286
                                                              C:\Users\nhuliyap\AppData\Local\Temp\gh_00002rs1.s
00000054 0e            16283 	.byte	14
00000055 50524f445543  16284 	.strz	"PRODUCTION_SW 0x0"
0000005b 54494f4e5f53 
00000061 572030783000 
00000067 01            16285 	.byte	1
00000068 0f            16286 	.byte	15
00000069 444556454c4f  16287 	.strz	"DEVELOPMENT_SW 0x1"
0000006f 504d454e545f 
00000075 535720307831 
0000007b 00 
0000007c 01            16288 	.byte	1
0000007d 10            16289 	.byte	16
0000007e 53575f434154  16290 	.strz	"SW_CATEGORY PRODUCTION_SW"
00000084 45474f525920 
0000008a 50524f445543 
00000090 54494f4e5f53 
00000096 5700 
00000098 04            16291 	.byte	4
00000099 01            16292 	.byte	1
0000009a 06            16293 	.byte	6
0000009b 4d41585f5349  16294 	.strz	"MAX_SIZE_WS_TELEGRAM 16U"
000000a1 5a455f57535f 
000000a7 54454c454752 
000000ad 414d20313655 
000000b3 00 
000000b4 01            16295 	.byte	1
000000b5 0e            16296 	.byte	14
000000b6 4e564d5f424c  16297 	.strz	"NVM_BLOCK_TYPE uint32"
000000bc 4f434b5f5459 
000000c2 50452075696e 
000000c8 74333200 
000000cc 04            16298 	.byte	4
000000cd 03            16299 	.byte	3
000000ce 06            16300 	.byte	6
000000cf 0a            16301 	.byte	10
000000d0 03            16302 	.byte	3
000000d1 06            16303 	.byte	6
000000d2 0b            16304 	.byte	11
000000d3 04            16305 	.byte	4
000000d4 01            16306 	.byte	1
000000d5 18            16307 	.byte	24
000000d6 53454e534f52  16308 	.strz	"SENSOR_AUFLOESUNG_25MBAR "
000000dc 5f4155464c4f 
000000e2 4553554e475f 
000000e8 32354d424152 
000000ee 2000 
000000f0 04            16309 	.byte	4
000000f1 03            16310 	.byte	3
000000f2 07            16311 	.byte	7
000000f3 0c            16312 	.byte	12
000000f4 01            16313 	.byte	1
000000f5 2d            16314 	.byte	45
000000f6 6353756d5745  16315 	.strz	"cSumWE 8"
000000fc 203800 
000000ff 01            16316 	.byte	1
00000100 2e            16317 	.byte	46
00000101 634d61784c52  16318 	.strz	"cMaxLR 4"
00000107 203400 
0000010a 01            16319 	.byte	1
0000010b 2f            16320 	.byte	47
0000010c 634869537461  16321 	.strz	"cHiStateZG (unsigned char) 2"

                                                                      Page 287
                                                              C:\Users\nhuliyap\AppData\Local\Temp\gh_00002rs1.s
00000112 74655a472028 
00000118 756e7369676e 
0000011e 656420636861 
00000124 7229203200 
00000129 01            16322 	.byte	1
0000012a 30            16323 	.byte	48
0000012b 634869537461  16324 	.strz	"cHiStateER (unsigned char) 1"
00000131 746545522028 
00000137 756e7369676e 
0000013d 656420636861 
00000143 7229203100 
00000148 01            16325 	.byte	1
00000149 34            16326 	.byte	52
0000014a 63576865656c  16327 	.strz	"cWheelPos_RR 0x03"
00000150 506f735f5252 
00000156 203078303300 
0000015c 01            16328 	.byte	1
0000015d 35            16329 	.byte	53
0000015e 634944537461  16330 	.strz	"cIDStateSpinning 0x28"
00000164 74655370696e 
0000016a 6e696e672030 
00000170 78323800 
00000174 01            16331 	.byte	1
00000175 38            16332 	.byte	56
00000176 634944537461  16333 	.strz	"cIDStateDrive 0x02"
0000017c 746544726976 
00000182 652030783032 
00000188 00 
00000189 01            16334 	.byte	1
0000018a 3a            16335 	.byte	58
0000018b 634944537461  16336 	.strz	"cIDStateDrvBack 0x40"
00000191 746544727642 
00000197 61636b203078 
0000019d 343000 
000001a0 01            16337 	.byte	1
000001a1 3b            16338 	.byte	59
000001a2 634944537461  16339 	.strz	"cIDStateNoDrvInfo 0x80"
000001a8 74654e6f4472 
000001ae 76496e666f20 
000001b4 3078383000 
000001b9 01            16340 	.byte	1
000001ba 3c            16341 	.byte	60
000001bb 634944537461  16342 	.strz	"cIDStateM4 0x04"
000001c1 74654d342030 
000001c7 78303400 
000001cb 01            16343 	.byte	1
000001cc 3f            16344 	.byte	63
000001cd 635741537461  16345 	.strz	"cWAStateZO 0x04"
000001d3 74655a4f2030 
000001d9 78303400 
000001dd 01            16346 	.byte	1
000001de 40            16347 	.byte	64
000001df 635741537461  16348 	.strz	"cWAStateER 0x02"
000001e5 746545522030 
000001eb 78303200 
000001ef 01            16349 	.byte	1
000001f0 41            16350 	.byte	65
000001f1 635741537461  16351 	.strz	"cWAStateActive 0x01"
000001f7 746541637469 
000001fd 766520307830 
00000203 3100 

                                                                      Page 288
                                                              C:\Users\nhuliyap\AppData\Local\Temp\gh_00002rs1.s
00000205 01            16352 	.byte	1
00000206 42            16353 	.byte	66
00000207 756344656657  16354 	.strz	"ucDefWACtrl (unsigned char) 0"
0000020d 414374726c20 
00000213 28756e736967 
00000219 6e6564206368 
0000021f 617229203000 
00000225 01            16355 	.byte	1
00000226 43            16356 	.byte	67
00000227 75634465664d  16357 	.strz	"ucDefMinRssiLevel (unsigned char) 0"
0000022d 696e52737369 
00000233 4c6576656c20 
00000239 28756e736967 
0000023f 6e6564206368 
00000245 617229203000 
0000024b 01            16358 	.byte	1
0000024c 44            16359 	.byte	68
0000024d 75634465664d  16360 	.strz	"ucDefMinRssiDistance (unsigned char) 10"
00000253 696e52737369 
00000259 44697374616e 
0000025f 63652028756e 
00000265 7369676e6564 
0000026b 206368617229 
00000271 20313000 
00000275 01            16361 	.byte	1
00000276 45            16362 	.byte	69
00000277 75634465664d  16363 	.strz	"ucDefMinVariationDistance (unsigned char) 10"
0000027d 696e56617269 
00000283 6174696f6e44 
00000289 697374616e63 
0000028f 652028756e73 
00000295 69676e656420 
0000029b 636861722920 
000002a1 313000 
000002a4 01            16364 	.byte	1
000002a5 46            16365 	.byte	70
000002a6 75634465664c  16366 	.strz	"ucDefLeRiMinDistance (unsigned char) 1"
000002ac 6552694d696e 
000002b2 44697374616e 
000002b8 63652028756e 
000002be 7369676e6564 
000002c4 206368617229 
000002ca 203100 
000002cd 01            16367 	.byte	1
000002ce 47            16368 	.byte	71
000002cf 756345435550  16369 	.strz	"ucECUPosFront (unsigned char) 0x55"
000002d5 6f7346726f6e 
000002db 742028756e73 
000002e1 69676e656420 
000002e7 636861722920 
000002ed 3078353500 
000002f2 01            16370 	.byte	1
000002f3 48            16371 	.byte	72
000002f4 756345435550  16372 	.strz	"ucECUPosRear (unsigned char) 0xAA"
000002fa 6f7352656172 
00000300 2028756e7369 
00000306 676e65642063 
0000030c 686172292030 
00000312 78414100 
00000316 01            16373 	.byte	1
00000317 49            16374 	.byte	73

                                                                      Page 289
                                                              C:\Users\nhuliyap\AppData\Local\Temp\gh_00002rs1.s
00000318 756345435550  16375 	.strz	"ucECUPosNeutral (unsigned char) 0xFF"
0000031e 6f734e657574 
00000324 72616c202875 
0000032a 6e7369676e65 
00000330 642063686172 
00000336 292030784646 
0000033c 00 
0000033d 01            16376 	.byte	1
0000033e 4a            16377 	.byte	74
0000033f 75634465664d  16378 	.strz	"ucDefMinCt4ER (unsigned char) 9"
00000345 696e43743445 
0000034b 522028756e73 
00000351 69676e656420 
00000357 636861722920 
0000035d 3900 
0000035f 01            16379 	.byte	1
00000360 4b            16380 	.byte	75
00000361 75634465664d  16381 	.strz	"ucDefMinCt4HistER (unsigned char) 2"
00000367 696e43743448 
0000036d 697374455220 
00000373 28756e736967 
00000379 6e6564206368 
0000037f 617229203200 
00000385 01            16382 	.byte	1
00000386 4c            16383 	.byte	76
00000387 75634465664d  16384 	.strz	"ucDefMinCt4ZomReset (unsigned char) 8"
0000038d 696e4374345a 
00000393 6f6d52657365 
00000399 742028756e73 
0000039f 69676e656420 
000003a5 636861722920 
000003ab 3800 
000003ad 01            16385 	.byte	1
000003ae 4d            16386 	.byte	77
000003af 75634465664d  16387 	.strz	"ucDefMinERMeanRssiLevel (unsigned char) 28"
000003b5 696e45524d65 
000003bb 616e52737369 
000003c1 4c6576656c20 
000003c7 28756e736967 
000003cd 6e6564206368 
000003d3 617229203238 
000003d9 00 
000003da 01            16388 	.byte	1
000003db 4e            16389 	.byte	78
000003dc 756344656657  16390 	.strz	"ucDefWATOTimeInSec (unsigned char) 60"
000003e2 41544f54696d 
000003e8 65496e536563 
000003ee 2028756e7369 
000003f4 676e65642063 
000003fa 686172292036 
00000400 3000 
00000402 01            16391 	.byte	1
00000403 4f            16392 	.byte	79
00000404 756344656654  16393 	.strz	"ucDefTimeoutAutoLoc (unsigned char) 9"
0000040a 696d656f7574 
00000410 4175746f4c6f 
00000416 632028756e73 
0000041c 69676e656420 
00000422 636861722920 
00000428 3900 
0000042a 01            16394 	.byte	1

                                                                      Page 290
                                                              C:\Users\nhuliyap\AppData\Local\Temp\gh_00002rs1.s
0000042b 50            16395 	.byte	80
0000042c 75634465664e  16396 	.strz	"ucDefNewMinCntEvt (unsigned char) 5"
00000432 65774d696e43 
00000438 6e7445767420 
0000043e 28756e736967 
00000444 6e6564206368 
0000044a 617229203500 
00000450 01            16397 	.byte	1
00000451 51            16398 	.byte	81
00000452 75634465664d  16399 	.strz	"ucDefMinTimeProtectER (unsigned char) 3"
00000458 696e54696d65 
0000045e 50726f746563 
00000464 744552202875 
0000046a 6e7369676e65 
00000470 642063686172 
00000476 29203300 
0000047a 01            16400 	.byte	1
0000047b 52            16401 	.byte	82
0000047c 75636e446566  16402 	.strz	"ucnDefMinRxTGRF (unsigned char) 15"
00000482 4d696e527854 
00000488 475246202875 
0000048e 6e7369676e65 
00000494 642063686172 
0000049a 2920313500 
0000049f 01            16403 	.byte	1
000004a0 53            16404 	.byte	83
000004a1 75634465666e  16405 	.strz	"ucDefnRelValMinDiff (unsigned char) 5"
000004a7 52656c56616c 
000004ad 4d696e446966 
000004b3 662028756e73 
000004b9 69676e656420 
000004bf 636861722920 
000004c5 3500 
000004c7 01            16406 	.byte	1
000004c8 54            16407 	.byte	84
000004c9 75634465666e  16408 	.strz	"ucDefnRelValMidDiff (unsigned char) 5"
000004cf 52656c56616c 
000004d5 4d6964446966 
000004db 662028756e73 
000004e1 69676e656420 
000004e7 636861722920 
000004ed 3500 
000004ef 01            16409 	.byte	1
000004f0 55            16410 	.byte	85
000004f1 75634465666e  16411 	.strz	"ucDefnRelValCompetDiff (unsigned char) 10"
000004f7 52656c56616c 
000004fd 436f6d706574 
00000503 446966662028 
00000509 756e7369676e 
0000050f 656420636861 
00000515 722920313000 
0000051b 01            16412 	.byte	1
0000051c 56            16413 	.byte	86
0000051d 75634465664d  16414 	.strz	"ucDefMaxZOnorm (unsigned char) 15"
00000523 61785a4f6e6f 
00000529 726d2028756e 
0000052f 7369676e6564 
00000535 206368617229 
0000053b 20313500 
0000053f 01            16415 	.byte	1
00000540 57            16416 	.byte	87

                                                                      Page 291
                                                              C:\Users\nhuliyap\AppData\Local\Temp\gh_00002rs1.s
00000541 75634465666e  16417 	.strz	"ucDefnMinA (unsigned char) 10"
00000547 4d696e412028 
0000054d 756e7369676e 
00000553 656420636861 
00000559 722920313000 
0000055f 01            16418 	.byte	1
00000560 58            16419 	.byte	88
00000561 75634465664d  16420 	.strz	"ucDefMinSpeedAutoLearnStart 30"
00000567 696e53706565 
0000056d 644175746f4c 
00000573 6561726e5374 
00000579 617274203330 
0000057f 00 
00000580 01            16421 	.byte	1
00000581 5a            16422 	.byte	90
00000582 75634465666e  16423 	.strz	"ucDefnVweight (unsigned char) 60"
00000588 567765696768 
0000058e 742028756e73 
00000594 69676e656420 
0000059a 636861722920 
000005a0 363000 
000005a3 01            16424 	.byte	1
000005a4 5b            16425 	.byte	91
000005a5 75634465664d  16426 	.strz	"ucDefMinOffsetGXe (unsigned char) 1"
000005ab 696e4f666673 
000005b1 657447586520 
000005b7 28756e736967 
000005bd 6e6564206368 
000005c3 617229203100 
000005c9 01            16427 	.byte	1
000005ca 5c            16428 	.byte	92
000005cb 756344656653  16429 	.strz	"ucDefSufficientRssiDistance (unsigned char) 12"
000005d1 756666696369 
000005d7 656e74527373 
000005dd 694469737461 
000005e3 6e6365202875 
000005e9 6e7369676e65 
000005ef 642063686172 
000005f5 2920313200 
000005fa 01            16430 	.byte	1
000005fb 5d            16431 	.byte	93
000005fc 75634465664f  16432 	.strz	"ucDefOffsetOverlapsGXe 55U"
00000602 66667365744f 
00000608 7665726c6170 
0000060e 734758652035 
00000614 355500 
00000617 01            16433 	.byte	1
00000618 6d            16434 	.byte	109
00000619 63496e697448  16435 	.strz	"cInitHistID ((unsigned long) 0xFFFFFFFFU)"
0000061f 697374494420 
00000625 2828756e7369 
0000062b 676e6564206c 
00000631 6f6e67292030 
00000637 784646464646 
0000063d 464646552900 
00000643 01            16436 	.byte	1
00000644 71            16437 	.byte	113
00000645 6353756d4142  16438 	.strz	"cSumABSig (unsigned char) 4"
0000064b 536967202875 
00000651 6e7369676e65 
00000657 642063686172 

                                                                      Page 292
                                                              C:\Users\nhuliyap\AppData\Local\Temp\gh_00002rs1.s
0000065d 29203400 
00000661 01            16439 	.byte	1
00000662 76            16440 	.byte	118
00000663 634465666175  16441 	.strz	"cDefaultABSCountNr 96"
00000669 6c7441425343 
0000066f 6f756e744e72 
00000675 20393600 
00000679 01            16442 	.byte	1
0000067a 7b            16443 	.byte	123
0000067b 4650412000    16444 	.strz	"FPA "
00000680 01            16445 	.byte	1
00000681 7c            16446 	.byte	124
00000682 4142535f5465  16447 	.strz	"ABS_Test_LOG_ENABLE "
00000688 73745f4c4f47 
0000068e 5f454e41424c 
00000694 452000 
00000697 04            16448 	.byte	4
00000698 03            16449 	.byte	3
00000699 08            16450 	.byte	8
0000069a 0d            16451 	.byte	13
0000069b 03            16452 	.byte	3
0000069c 06            16453 	.byte	6
0000069d 0e            16454 	.byte	14
0000069e 01            16455 	.byte	1
0000069f 0f            16456 	.byte	15
000006a0 634d6178414b  16457 	.strz	"cMaxAK35DataBytes 14U"
000006a6 333544617461 
000006ac 427974657320 
000006b2 31345500 
000006b6 04            16458 	.byte	4
000006b7 04            16459 	.byte	4
000006b8 03            16460 	.byte	3
000006b9 09            16461 	.byte	9
000006ba 0f            16462 	.byte	15
000006bb 01            16463 	.byte	1
000006bc 13            16464 	.byte	19
000006bd 634e6f57506f  16465 	.strz	"cNoWPos (unsigned char) 0xF0"
000006c3 732028756e73 
000006c9 69676e656420 
000006cf 636861722920 
000006d5 3078463000 
000006da 04            16466 	.byte	4
000006db 03            16467 	.byte	3
000006dc 0a            16468 	.byte	10
000006dd 10            16469 	.byte	16
000006de 04            16470 	.byte	4
000006df 03            16471 	.byte	3
000006e0 0b            16472 	.byte	11
000006e1 11            16473 	.byte	17
000006e2 01            16474 	.byte	1
000006e3 04            16475 	.byte	4
000006e4 46494c544552  16476 	.strz	"FILTER_SYMC_CAN_MSGS "
000006ea 5f53594d435f 
000006f0 43414e5f4d53 
000006f6 47532000 
000006fa 01            16477 	.byte	1
000006fb 05            16478 	.byte	5
000006fc 444554454354  16479 	.strz	"DETECT_SYMC_WALLOC_DTC "
00000702 5f53594d435f 
00000708 57414c4c4f43 
0000070e 5f4454432000 

                                                                      Page 293
                                                              C:\Users\nhuliyap\AppData\Local\Temp\gh_00002rs1.s
00000714 04            16480 	.byte	4
00000715 03            16481 	.byte	3
00000716 0c            16482 	.byte	12
00000717 12            16483 	.byte	18
00000718 03            16484 	.byte	3
00000719 04            16485 	.byte	4
0000071a 13            16486 	.byte	19
0000071b 04            16487 	.byte	4
0000071c 04            16488 	.byte	4
0000071d 03            16489 	.byte	3
0000071e 0d            16490 	.byte	13
0000071f 14            16491 	.byte	20
00000720 04            16492 	.byte	4
00000721 03            16493 	.byte	3
00000722 0e            16494 	.byte	14
00000723 15            16495 	.byte	21
00000724 04            16496 	.byte	4
00000725 03            16497 	.byte	3
00000726 0f            16498 	.byte	15
00000727 16            16499 	.byte	22
00000728 01            16500 	.byte	1
00000729 0e            16501 	.byte	14
0000072a 70625f514143  16502 	.strz	"pb_QACStatic_160503 "
00000730 537461746963 
00000736 5f3136303530 
0000073c 332000 
0000073f 01            16503 	.byte	1
00000740 16            16504 	.byte	22
00000741 75634d617850  16505 	.strz	"ucMaxPosc 4"
00000747 6f7363203400 
0000074d 01            16506 	.byte	1
0000074e 17            16507 	.byte	23
0000074f 756353756d57  16508 	.strz	"ucSumWEc (unsigned char) 4"
00000755 45632028756e 
0000075b 7369676e6564 
00000761 206368617229 
00000767 203400 
0000076a 01            16509 	.byte	1
0000076b 26            16510 	.byte	38
0000076c 4e4547415445  16511 	.strz	"NEGATE_UCHAR(x) ( (uint8) ( 0xFF&(~(x)) ) )"
00000772 5f5543484152 
00000778 287829202820 
0000077e 2875696e7438 
00000784 292028203078 
0000078a 464626287e28 
00000790 782929202920 
00000796 2900 
00000798 04            16512 	.byte	4
00000799 03            16513 	.byte	3
0000079a 10            16514 	.byte	16
0000079b 17            16515 	.byte	23
0000079c 03            16516 	.byte	3
0000079d 04            16517 	.byte	4
0000079e 18            16518 	.byte	24
0000079f 04            16519 	.byte	4
000007a0 04            16520 	.byte	4
000007a1 03            16521 	.byte	3
000007a2 11            16522 	.byte	17
000007a3 19            16523 	.byte	25
000007a4 01            16524 	.byte	1
000007a5 1d            16525 	.byte	29

                                                                      Page 294
                                                              C:\Users\nhuliyap\AppData\Local\Temp\gh_00002rs1.s
000007a6 63486973746f  16526 	.strz	"cHistorySet1 1U"
000007ac 727953657431 
000007b2 20315500 
000007b6 01            16527 	.byte	1
000007b7 1e            16528 	.byte	30
000007b8 63486973746f  16529 	.strz	"cHistoryWPSet1 2U"
000007be 727957505365 
000007c4 743120325500 
000007ca 01            16530 	.byte	1
000007cb 1f            16531 	.byte	31
000007cc 635741506172  16532 	.strz	"cWAParameter 3U"
000007d2 616d65746572 
000007d8 20335500 
000007dc 01            16533 	.byte	1
000007dd 20            16534 	.byte	32
000007de 635741414253  16535 	.strz	"cWAABSTicksInOneRevolution 4U"
000007e4 5469636b7349 
000007ea 6e4f6e655265 
000007f0 766f6c757469 
000007f6 6f6e20345500 
000007fc 04            16536 	.byte	4
000007fd 03            16537 	.byte	3
000007fe 12            16538 	.byte	18
000007ff 1a            16539 	.byte	26
00000800 04            16540 	.byte	4
00000801 01            16541 	.byte	1
00000802 14            16542 	.byte	20
00000803 635750455220  16543 	.strz	"cWPER 0x10"
00000809 3078313000 
0000080e 04            16544 	.byte	4
0000080f 00            16545 	.byte	0
                       16546 	.section	.debug_abbrev
0000018a 00            16547 	.byte	0
                       16548 	.section	.debug_info
                       16549 .Ldw_end:
                       16550 .rh850_flags REGMODE32,DATA_ALIGN8,GP_FIX,EP_NONFIX,TP_FIX,REG2_RESERVE,G3K,GHS_MISALIGN,SDA_EXTRA_REGS_0
