                                                                      Page 1
                                                              C:\Users\nhuliyap\AppData\Local\Temp\gh_0000en81.s
Command Line: C:\ghs\comp_201517\ease850.exe -w -elf -b0 -I../source/common -I../source/ProjectCompiler -I../source/ProjectCfg -I../source/SwcApplTpms -I../source/SwcApplEcuM -I../source/SwcServiceBswM -I../source/SwcServiceEcuM -I../source/SwcServiceNvM -I../source/SwcServiceOs -I../source/SwcServiceStartUp -I../source/McalAdc -I../source/McalDio -I../source/McalGpt -I../source/McalMcu -I../source/McalWdg -I../source/wrappers -I../source/wrappers/McalAta -I../source/McalLin -I../source/McalCan -I../source/wrappers/OS -I../source/McalFls -I../source/EcuabFee -I../source/EcuabMemIf -I../source/wrappers/VStdLib -I../source/wrappers/Crc -I../source/wrappers/FBL_APPL -I../source/wrappers/NVM_MANAGER -I../source/wrappers/DEM_MANAGER -I../source/wrappers/RDC_MANAGER -I../source/wrappers/ENV_MANAGER -I../source/wrappers/SYS_MANAGER -I../source/wrappers/EcuabCanIf -I../source/EcuabCanTrcv -I../source/wrappers/SwcServiceCanSM -I../source/wrappers/SwcServiceCanTp -I../source/wrappers/SwcServiceCanTp_PreCompile -I../source/wrappers/SwcServiceCom -I../source/wrappers/SwcServiceComM -I../source/wrappers/SwcServiceDcm -I../source/wrappers/SwcServicePduR -I../source/wrappers/SwcServiceEcuM -I../source/wrappers/Bfx -I../source/wrappers/SwcServiceDem -I../source/SwcServiceCom -I../source/SwcServiceDet -I../source/SwcServiceFiM -I../source/SwcServicePduR -I../source/SwcServiceSchM -I../source/wrappers/LibAutosarDiag -I../source/wrappers/rba_BswSrv -IC:\ghs\comp_201517\lib\rh850 -cg_underscore -cpu=rh850g3k -no_v850_simd -rh850_fpsimd=none -nomacro -patch_dbo=C:\_ECU2\ECU_Rivian_A1\Target\repo_projects\pRealEcu\cR_LATEST\make\output\objects\busmsg.dbo -source=busmsg.c -o output\objects\gh_0000en81.o -list=output\list\busmsg.lst C:\Users\nhuliyap\AppData\Local\Temp\gh_0000en81.s 
Original File: C:\Users\nhuliyap\AppData\Local\Temp\gh_0000en81.s
Source File: busmsg.c
Directory: C:\_ECU2\ECU_Rivian_A1\Target\repo_projects\pRealEcu\cR_LATEST\make
Host OS: Windows
EASE: Copyright (C) 1983-2015 Green Hills Software.  All Rights Reserved.
Release: Compiler v2015.1.7
Build Directory: [Directory] BTOWORKER6:c:/build_2015_1_bto/2015-10-21.2100-2015_1_bto/win32-comp-ecom
Revision: [VCInfo] http://toolsvc/branches/release-branch-70-bto/src@544153 (built by build)
Revision Date: Thu Oct 22 07:50:13 2015

Release Date: Thu Oct 22 09:32:32 2015

                           1 --Driver Command: ccv850 ../source/SwcApplTpms/busmsg.c -cpu=rh850 -fhard
                           2 --		-ignore_callt_state_in_interrupts -large_sda -misalign_pack
                           3 --		-nofarcalls -nofloatio -no_callt -Ogeneral -Onounroll
                           4 --		-prepare_dispose -registermode=32 -reserve_r2 -sda=0
                           5 --		-shorten_loads -Wshadow --brief_diagnostics --no_commons
                           6 --		--no_wrap_diagnostics --prototype_errors --short_enum -list -G
                           7 --		-dual_debug -dwarf -X5523 -lnk=-no_xda_modifications -D
                           8 --		NOT_READY_FOR_TESTING_OR_DEPLOYMENT -D IBTCM_SW_ANPASSUNGEN -D
                           9 --		BUILD_RIVIAN -c -inline_prologue -I../source/common
                          10 --		-I../source/ProjectCompiler -I../source/ProjectCfg
                          11 --		-I../source/SwcApplTpms -I../source/SwcApplEcuM
                          12 --		-I../source/SwcServiceBswM -I../source/SwcServiceEcuM
                          13 --		-I../source/SwcServiceNvM -I../source/SwcServiceOs
                          14 --		-I../source/SwcServiceStartUp -I../source/McalAdc
                          15 --		-I../source/McalDio -I../source/McalGpt -I../source/McalMcu
                          16 --		-I../source/McalWdg -I../source/wrappers
                          17 --		-I../source/wrappers/McalAta -I../source/McalLin
                          18 --		-I../source/McalCan -I../source/wrappers/OS -I../source/McalFls
                          19 --		-I../source/EcuabFee -I../source/EcuabMemIf
                          20 --		-I../source/wrappers/VStdLib -I../source/wrappers
                          21 --		-I../source/wrappers/Crc -I../source/wrappers/FBL_APPL
                          22 --		-I../source/wrappers/NVM_MANAGER -I../source/wrappers/DEM_MANAGER
                          23 --		-I../source/wrappers/RDC_MANAGER -I../source/wrappers/ENV_MANAGER
                          24 --		-I../source/wrappers/SYS_MANAGER -I../source/wrappers/EcuabCanIf
                          25 --		-I../source/EcuabCanTrcv -I../source/wrappers/SwcServiceCanSM
                          26 --		-I../source/wrappers/SwcServiceCanTp
                          27 --		-I../source/wrappers/SwcServiceCanTp_PreCompile
                          28 --		-I../source/wrappers/SwcServiceCom
                          29 --		-I../source/wrappers/SwcServiceComM
                          30 --		-I../source/wrappers/SwcServiceDcm
                          31 --		-I../source/wrappers/SwcServicePduR
                          32 --		-I../source/wrappers/SwcServiceEcuM -I../source/wrappers/Bfx
                          33 --		-I../source/wrappers/SwcServiceDem -I../source/SwcServiceCom
                          34 --		-I../source/SwcServiceDet -I../source/SwcServiceFiM
                          35 --		-I../source/SwcServicePduR -I../source/SwcServiceSchM
                          36 --		-I../source/wrappers/LibAutosarDiag
                          37 --		-I../source/wrappers/rba_BswSrv -object_dir=output/objects
                          38 --		-list_dir=output/list
                          39 --Source File:   ../source/SwcApplTpms/busmsg.c
                          40 --Directory:     
                          41 --		C:\_ECU2\ECU_Rivian_A1\Target\repo_projects\pRealEcu\cR_LATEST\make
                          42 --Compile Date:  Fri Sep 15 14:00:22 2023
                          43 --Host OS:       Win32
                          44 --Version:       C-RH850 2015.1.7 RELEASE VERSION
                          45 --Release:       Compiler v2015.1.7
                          46 --Revision Date: Thu Oct 22 08:06:12 2015
                          47 --Release Date:  Thu Oct 22 09:34:32 2015
                          48 -- ecom  -g -w -OM
                          49 	.text
                          50 ..bof.C.3A.5C_ECU2.5CECU_Rivian_A1.5CTarget.5Crepo_projects.5CpRealEcu.5CcR_LATEST.5Cmake.5Coutput.5Cobjects.5Cbusmsg...43.3A.5C_ECU2.5CECU_Rivian_A1.5CTarget.5Crepo_projects.5CpRealEcu.5CcR_LATEST.5Cmake..65044756..0::

                                                                      Page 2
                                                              C:\Users\nhuliyap\AppData\Local\Temp\gh_0000en81.s
                          51 	.align	2
                          52 ..gh.f.f.1.e.0:
                          53 	.type	..gh.f.f.1.e.0,@object
                          54 	.size	..gh.f.f.1.e.0,0
                          55 	.global	_BusMsgInit
                          56 _BusMsgInit:
                          57 --	    .bf
                          58 .LDW01:
00000000 008a             59 	mov	0,r17
                          60 .L6:
00000002 320600000000*    61 	mov	.L48,r18
                          62 --line45
                          63 ..lin.C.3A.5C_ECU2.5CECU_Rivian_A1.5CTarget.5Crepo_projects.5CpRealEcu.5CcR_LATEST.5Cmake.5Coutput.5Cobjects.5Cbusmsg.1::
                          64 .LDWlin1:
00000008 11f0             65 	mov	r17,ep
0000000a d2f1             66 	add	r18,ep
0000000c 1f7a             67 	mov	-1,r15
0000000e 418a             68 	add	1,r17
00000010 847b             69 	sst.b	r15,4[ep]
00000012 8803             70 	sst.b	zero,8[ep]
00000014 807b             71 	sst.b	r15,0[ep]
00000016 648a             72 	cmp	4,r17
00000018 d1f5*            73 	bl	.L6
                          74 --line49
                          75 ..lin.C.3A.5C_ECU2.5CECU_Rivian_A1.5CTarget.5Crepo_projects.5CpRealEcu.5CcR_LATEST.5Cmake.5Coutput.5Cobjects.5Cbusmsg.2::
                          76 .LDWlin2:
0000001a 0182             77 	mov	1,r16
0000001c 12f0             78 	mov	r18,ep
0000001e 9583             79 	sst.b	r16,21[ep]
00000020 9683             80 	sst.b	r16,22[ep]
00000022 9783             81 	sst.b	r16,23[ep]
00000024 9883             82 	sst.b	r16,24[ep]
00000026 9403             83 	sst.b	zero,20[ep]
00000028 008a             84 	mov	0,r17
                          85 .L9:
0000002a 11f0             86 	mov	r17,ep
0000002c d2f1             87 	add	r18,ep
0000002e 418a             88 	add	1,r17
00000030 8c03             89 	sst.b	zero,12[ep]
00000032 668a             90 	cmp	6,r17
00000034 b1fd*            91 	bl	.L9
                          92 --	    .ef
                          93 .LDW11:
                          94 --line57
                          95 ..lin.C.3A.5C_ECU2.5CECU_Rivian_A1.5CTarget.5Crepo_projects.5CpRealEcu.5CcR_LATEST.5Cmake.5Coutput.5Cobjects.5Cbusmsg.3::
                          96 .LDWlin3:
00000036 7f00             97 	jmp	[lp]
                          98 	.global	___ghs_eofn_BusMsgInit
                          99 ___ghs_eofn_BusMsgInit:
                         100 	.type	_BusMsgInit,@function
                         101 	.size	_BusMsgInit,.-_BusMsgInit
                         102 	.align	2
                         103 --_i	r17	local
                         104 
                         105 	.section ".bss","awb"
                         106 	.align	4
                         107 .L48:
                         108 	.type	.L48,@object
                         109 	.size	.L48,0
                         110 	.global	_ucTyreTemperature..C.3A.5C_ECU2.5CECU_Rivian_A1.5CTarget.5Crepo_projects.5CpRealEcu.5CcR_LATEST.5Cmake.5Coutput.5Cobjects.5Cbusmsg.
                         111 _ucTyreTemperature..C.3A.5C_ECU2.5CECU_Rivian_A1.5CTarget.5Crepo_projects.5CpRealEcu.5CcR_LATEST.5Cmake.5Coutput.5Cobjects.5Cbusmsg.:

                                                                      Page 3
                                                              C:\Users\nhuliyap\AppData\Local\Temp\gh_0000en81.s
00000000 00000000        112 _ucTyreTemperature:	.space	4
                         113 	.type	_ucTyreTemperature..C.3A.5C_ECU2.5CECU_Rivian_A1.5CTarget.5Crepo_projects.5CpRealEcu.5CcR_LATEST.5Cmake.5Coutput.5Cobjects.5Cbusmsg.,@object
                         114 	.size	_ucTyreTemperature..C.3A.5C_ECU2.5CECU_Rivian_A1.5CTarget.5Crepo_projects.5CpRealEcu.5CcR_LATEST.5Cmake.5Coutput.5Cobjects.5Cbusmsg.,4
                         115 	.type	_ucTyreTemperature,@object
                         116 	.size	_ucTyreTemperature,4
                         117 	.global	_ucTyrePressUncomp..C.3A.5C_ECU2.5CECU_Rivian_A1.5CTarget.5Crepo_projects.5CpRealEcu.5CcR_LATEST.5Cmake.5Coutput.5Cobjects.5Cbusmsg.
                         118 _ucTyrePressUncomp..C.3A.5C_ECU2.5CECU_Rivian_A1.5CTarget.5Crepo_projects.5CpRealEcu.5CcR_LATEST.5Cmake.5Coutput.5Cobjects.5Cbusmsg.:
00000004 00000000        119 _ucTyrePressUncomp:	.space	4
                         120 	.type	_ucTyrePressUncomp..C.3A.5C_ECU2.5CECU_Rivian_A1.5CTarget.5Crepo_projects.5CpRealEcu.5CcR_LATEST.5Cmake.5Coutput.5Cobjects.5Cbusmsg.,@object
                         121 	.size	_ucTyrePressUncomp..C.3A.5C_ECU2.5CECU_Rivian_A1.5CTarget.5Crepo_projects.5CpRealEcu.5CcR_LATEST.5Cmake.5Coutput.5Cobjects.5Cbusmsg.,4
                         122 	.type	_ucTyrePressUncomp,@object
                         123 	.size	_ucTyrePressUncomp,4
                         124 	.global	_ucTyreWarning..C.3A.5C_ECU2.5CECU_Rivian_A1.5CTarget.5Crepo_projects.5CpRealEcu.5CcR_LATEST.5Cmake.5Coutput.5Cobjects.5Cbusmsg.
                         125 _ucTyreWarning..C.3A.5C_ECU2.5CECU_Rivian_A1.5CTarget.5Crepo_projects.5CpRealEcu.5CcR_LATEST.5Cmake.5Coutput.5Cobjects.5Cbusmsg.:
00000008 00000000        126 _ucTyreWarning:	.space	4
                         127 	.type	_ucTyreWarning..C.3A.5C_ECU2.5CECU_Rivian_A1.5CTarget.5Crepo_projects.5CpRealEcu.5CcR_LATEST.5Cmake.5Coutput.5Cobjects.5Cbusmsg.,@object
                         128 	.size	_ucTyreWarning..C.3A.5C_ECU2.5CECU_Rivian_A1.5CTarget.5Crepo_projects.5CpRealEcu.5CcR_LATEST.5Cmake.5Coutput.5Cobjects.5Cbusmsg.,4
                         129 	.type	_ucTyreWarning,@object
                         130 	.size	_ucTyreWarning,4
                         131 	.global	_bTextFlags..C.3A.5C_ECU2.5CECU_Rivian_A1.5CTarget.5Crepo_projects.5CpRealEcu.5CcR_LATEST.5Cmake.5Coutput.5Cobjects.5Cbusmsg.
                         132 _bTextFlags..C.3A.5C_ECU2.5CECU_Rivian_A1.5CTarget.5Crepo_projects.5CpRealEcu.5CcR_LATEST.5Cmake.5Coutput.5Cobjects.5Cbusmsg.:
0000000c 000000000000    133 _bTextFlags:	.space	6
00000012 0000            134 	.space	2
                         135 	.type	_bTextFlags..C.3A.5C_ECU2.5CECU_Rivian_A1.5CTarget.5Crepo_projects.5CpRealEcu.5CcR_LATEST.5Cmake.5Coutput.5Cobjects.5Cbusmsg.,@object
                         136 	.size	_bTextFlags..C.3A.5C_ECU2.5CECU_Rivian_A1.5CTarget.5Crepo_projects.5CpRealEcu.5CcR_LATEST.5Cmake.5Coutput.5Cobjects.5Cbusmsg.,8
                         137 	.type	_bTextFlags,@object
                         138 	.size	_bTextFlags,8
                         139 	.global	_ucTyreTemperatureWarning..C.3A.5C_ECU2.5CECU_Rivian_A1.5CTarget.5Crepo_projects.5CpRealEcu.5CcR_LATEST.5Cmake.5Coutput.5Cobjects.5Cbusmsg.
                         140 _ucTyreTemperatureWarning..C.3A.5C_ECU2.5CECU_Rivian_A1.5CTarget.5Crepo_projects.5CpRealEcu.5CcR_LATEST.5Cmake.5Coutput.5Cobjects.5Cbusmsg.:
00000014 00              141 _ucTyreTemperatureWarning:	.space	1
                         142 	.type	_ucTyreTemperatureWarning..C.3A.5C_ECU2.5CECU_Rivian_A1.5CTarget.5Crepo_projects.5CpRealEcu.5CcR_LATEST.5Cmake.5Coutput.5Cobjects.5Cbusmsg.,@object
                         143 	.size	_ucTyreTemperatureWarning..C.3A.5C_ECU2.5CECU_Rivian_A1.5CTarget.5Crepo_projects.5CpRealEcu.5CcR_LATEST.5Cmake.5Coutput.5Cobjects.5Cbusmsg.,1
                         144 	.type	_ucTyreTemperatureWarning,@object
                         145 	.size	_ucTyreTemperatureWarning,1
                         146 	.global	_bTyreValidVL..C.3A.5C_ECU2.5CECU_Rivian_A1.5CTarget.5Crepo_projects.5CpRealEcu.5CcR_LATEST.5Cmake.5Coutput.5Cobjects.5Cbusmsg.
                         147 _bTyreValidVL..C.3A.5C_ECU2.5CECU_Rivian_A1.5CTarget.5Crepo_projects.5CpRealEcu.5CcR_LATEST.5Cmake.5Coutput.5Cobjects.5Cbusmsg.:
00000015 00              148 _bTyreValidVL:	.space	1
                         149 	.type	_bTyreValidVL..C.3A.5C_ECU2.5CECU_Rivian_A1.5CTarget.5Crepo_projects.5CpRealEcu.5CcR_LATEST.5Cmake.5Coutput.5Cobjects.5Cbusmsg.,@object
                         150 	.size	_bTyreValidVL..C.3A.5C_ECU2.5CECU_Rivian_A1.5CTarget.5Crepo_projects.5CpRealEcu.5CcR_LATEST.5Cmake.5Coutput.5Cobjects.5Cbusmsg.,1
                         151 	.type	_bTyreValidVL,@object
                         152 	.size	_bTyreValidVL,1
                         153 	.global	_bTyreValidVR..C.3A.5C_ECU2.5CECU_Rivian_A1.5CTarget.5Crepo_projects.5CpRealEcu.5CcR_LATEST.5Cmake.5Coutput.5Cobjects.5Cbusmsg.
                         154 _bTyreValidVR..C.3A.5C_ECU2.5CECU_Rivian_A1.5CTarget.5Crepo_projects.5CpRealEcu.5CcR_LATEST.5Cmake.5Coutput.5Cobjects.5Cbusmsg.:
00000016 00              155 _bTyreValidVR:	.space	1
                         156 	.type	_bTyreValidVR..C.3A.5C_ECU2.5CECU_Rivian_A1.5CTarget.5Crepo_projects.5CpRealEcu.5CcR_LATEST.5Cmake.5Coutput.5Cobjects.5Cbusmsg.,@object
                         157 	.size	_bTyreValidVR..C.3A.5C_ECU2.5CECU_Rivian_A1.5CTarget.5Crepo_projects.5CpRealEcu.5CcR_LATEST.5Cmake.5Coutput.5Cobjects.5Cbusmsg.,1
                         158 	.type	_bTyreValidVR,@object
                         159 	.size	_bTyreValidVR,1
                         160 	.global	_bTyreValidHL..C.3A.5C_ECU2.5CECU_Rivian_A1.5CTarget.5Crepo_projects.5CpRealEcu.5CcR_LATEST.5Cmake.5Coutput.5Cobjects.5Cbusmsg.
                         161 _bTyreValidHL..C.3A.5C_ECU2.5CECU_Rivian_A1.5CTarget.5Crepo_projects.5CpRealEcu.5CcR_LATEST.5Cmake.5Coutput.5Cobjects.5Cbusmsg.:
00000017 00              162 _bTyreValidHL:	.space	1
                         163 	.type	_bTyreValidHL..C.3A.5C_ECU2.5CECU_Rivian_A1.5CTarget.5Crepo_projects.5CpRealEcu.5CcR_LATEST.5Cmake.5Coutput.5Cobjects.5Cbusmsg.,@object
                         164 	.size	_bTyreValidHL..C.3A.5C_ECU2.5CECU_Rivian_A1.5CTarget.5Crepo_projects.5CpRealEcu.5CcR_LATEST.5Cmake.5Coutput.5Cobjects.5Cbusmsg.,1
                         165 	.type	_bTyreValidHL,@object
                         166 	.size	_bTyreValidHL,1
                         167 	.global	_bTyreValidHR..C.3A.5C_ECU2.5CECU_Rivian_A1.5CTarget.5Crepo_projects.5CpRealEcu.5CcR_LATEST.5Cmake.5Coutput.5Cobjects.5Cbusmsg.
                         168 _bTyreValidHR..C.3A.5C_ECU2.5CECU_Rivian_A1.5CTarget.5Crepo_projects.5CpRealEcu.5CcR_LATEST.5Cmake.5Coutput.5Cobjects.5Cbusmsg.:
00000018 00              169 _bTyreValidHR:	.space	1
                         170 	.type	_bTyreValidHR..C.3A.5C_ECU2.5CECU_Rivian_A1.5CTarget.5Crepo_projects.5CpRealEcu.5CcR_LATEST.5Cmake.5Coutput.5Cobjects.5Cbusmsg.,@object
                         171 	.size	_bTyreValidHR..C.3A.5C_ECU2.5CECU_Rivian_A1.5CTarget.5Crepo_projects.5CpRealEcu.5CcR_LATEST.5Cmake.5Coutput.5Cobjects.5Cbusmsg.,1
                         172 	.type	_bTyreValidHR,@object

                                                                      Page 4
                                                              C:\Users\nhuliyap\AppData\Local\Temp\gh_0000en81.s
                         173 	.size	_bTyreValidHR,1
                         174 	.data
                         175 	.text
                         176 	.align	2
                         177 	.align	2
                         178 ..gh.f.f.1.e.1:
                         179 	.type	..gh.f.f.1.e.1,@object
                         180 	.size	..gh.f.f.1.e.1,0
                         181 	.global	_BusMsgClr
                         182 _BusMsgClr:
                         183 --	    .bf
                         184 .LDW21:
00000038 008a            185 	mov	0,r17
                         186 .L104:
0000003a 320600000000*   187 	mov	_ucTyrePressUncomp,r18
                         188 --line62
                         189 ..lin.C.3A.5C_ECU2.5CECU_Rivian_A1.5CTarget.5Crepo_projects.5CpRealEcu.5CcR_LATEST.5Cmake.5Coutput.5Cobjects.5Cbusmsg.4::
                         190 .LDWlin4:
00000040 11f0            191 	mov	r17,ep
00000042 d2f1            192 	add	r18,ep
00000044 1f72            193 	mov	-1,r14
00000046 418a            194 	add	1,r17
00000048 8073            195 	sst.b	r14,0[ep]
0000004a 8403            196 	sst.b	zero,4[ep]
0000004c 648a            197 	cmp	4,r17
0000004e e1f5*           198 	bl	.L104
                         199 --line65
                         200 ..lin.C.3A.5C_ECU2.5CECU_Rivian_A1.5CTarget.5Crepo_projects.5CpRealEcu.5CcR_LATEST.5Cmake.5Coutput.5Cobjects.5Cbusmsg.5::
                         201 .LDWlin5:
00000050 0182            202 	mov	1,r16
00000052 12f0            203 	mov	r18,ep
00000054 9183            204 	sst.b	r16,17[ep]
00000056 9283            205 	sst.b	r16,18[ep]
00000058 9383            206 	sst.b	r16,19[ep]
0000005a 9483            207 	sst.b	r16,20[ep]
0000005c 008a            208 	mov	0,r17
                         209 .L107:
0000005e 11f0            210 	mov	r17,ep
00000060 d2f1            211 	add	r18,ep
00000062 418a            212 	add	1,r17
00000064 8803            213 	sst.b	zero,8[ep]
00000066 668a            214 	cmp	6,r17
00000068 b1fd*           215 	bl	.L107
                         216 --line72
                         217 ..lin.C.3A.5C_ECU2.5CECU_Rivian_A1.5CTarget.5Crepo_projects.5CpRealEcu.5CcR_LATEST.5Cmake.5Coutput.5Cobjects.5Cbusmsg.6::
                         218 .LDWlin6:
0000006a 0932            219 	mov	9,r6
0000006c 80070000*       220 	jr	_SilaPutState
                         221 --	    .ef
                         222 .LDW31:
                         223 	.global	___ghs_eofn_BusMsgClr
                         224 ___ghs_eofn_BusMsgClr:
                         225 	.type	_BusMsgClr,@function
                         226 	.size	_BusMsgClr,.-_BusMsgClr
                         227 	.align	2
                         228 --_i	r17	local
                         229 
                         230 	.data
                         231 	.text
                         232 	.align	2
                         233 	.align	2

                                                                      Page 5
                                                              C:\Users\nhuliyap\AppData\Local\Temp\gh_0000en81.s
                         234 ..gh.f.f.1.e.2:
                         235 	.type	..gh.f.f.1.e.2,@object
                         236 	.size	..gh.f.f.1.e.2,0
                         237 	.global	_BusMsgTemperatureClear
                         238 _BusMsgTemperatureClear:
                         239 --	    .bf
                         240 .LDW41:
00000070 008a            241 	mov	0,r17
                         242 .L212:
00000072 320600000000*   243 	mov	_ucTyreTemperature,r18
                         244 --line79
                         245 ..lin.C.3A.5C_ECU2.5CECU_Rivian_A1.5CTarget.5Crepo_projects.5CpRealEcu.5CcR_LATEST.5Cmake.5Coutput.5Cobjects.5Cbusmsg.7::
                         246 .LDWlin7:
00000078 11f0            247 	mov	r17,ep
0000007a d2f1            248 	add	r18,ep
0000007c 1f7a            249 	mov	-1,r15
0000007e 418a            250 	add	1,r17
00000080 807b            251 	sst.b	r15,0[ep]
00000082 648a            252 	cmp	4,r17
00000084 f1f5*           253 	bl	.L212
00000086 008a            254 	mov	0,r17
                         255 .L215:
                         256 --line82
                         257 ..lin.C.3A.5C_ECU2.5CECU_Rivian_A1.5CTarget.5Crepo_projects.5CpRealEcu.5CcR_LATEST.5Cmake.5Coutput.5Cobjects.5Cbusmsg.8::
                         258 .LDWlin8:
00000088 11f0            259 	mov	r17,ep
0000008a d2f1            260 	add	r18,ep
0000008c 418a            261 	add	1,r17
0000008e 8c03            262 	sst.b	zero,12[ep]
00000090 668a            263 	cmp	6,r17
00000092 b1fd*           264 	bl	.L215
                         265 --	    .ef
                         266 .LDW51:
                         267 --line84
                         268 ..lin.C.3A.5C_ECU2.5CECU_Rivian_A1.5CTarget.5Crepo_projects.5CpRealEcu.5CcR_LATEST.5Cmake.5Coutput.5Cobjects.5Cbusmsg.9::
                         269 .LDWlin9:
00000094 7f00            270 	jmp	[lp]
                         271 	.global	___ghs_eofn_BusMsgTemperatureClear
                         272 ___ghs_eofn_BusMsgTemperatureClear:
                         273 	.type	_BusMsgTemperatureClear,@function
                         274 	.size	_BusMsgTemperatureClear,.-_BusMsgTemperatureClear
                         275 	.align	2
                         276 --_U8_Counter	r17	local
                         277 
                         278 	.data
                         279 	.text
                         280 	.align	2
                         281 	.align	2
                         282 ..gh.f.f.1.e.3:
                         283 	.type	..gh.f.f.1.e.3,@object
                         284 	.size	..gh.f.f.1.e.3,0
                         285 	.global	_BusMsgPutTemperature
                         286 _BusMsgPutTemperature:
00000096 8600            287 	zxb	r6
                         288 --	    .bf
                         289 .LDW61:
00000098 6432            290 	cmp	4,r6
0000009a e905*           291 	bnl	.L303
                         292 --line90
                         293 ..lin.C.3A.5C_ECU2.5CECU_Rivian_A1.5CTarget.5Crepo_projects.5CpRealEcu.5CcR_LATEST.5Cmake.5Coutput.5Cobjects.5Cbusmsg.10::
                         294 .LDWlin10:

                                                                      Page 6
                                                              C:\Users\nhuliyap\AppData\Local\Temp\gh_0000en81.s
0000009c 3e0600000000*   295 	mov	_ucTyreTemperature,ep
000000a2 c6f1            296 	add	r6,ep
000000a4 803b            297 	sst.b	r7,0[ep]
                         298 .L303:
                         299 --	    .ef
                         300 .LDW71:
                         301 --line92
                         302 ..lin.C.3A.5C_ECU2.5CECU_Rivian_A1.5CTarget.5Crepo_projects.5CpRealEcu.5CcR_LATEST.5Cmake.5Coutput.5Cobjects.5Cbusmsg.11::
                         303 .LDWlin11:
000000a6 7f00            304 	jmp	[lp]
                         305 	.global	___ghs_eofn_BusMsgPutTemperature
                         306 ___ghs_eofn_BusMsgPutTemperature:
                         307 	.type	_BusMsgPutTemperature,@function
                         308 	.size	_BusMsgPutTemperature,.-_BusMsgPutTemperature
                         309 	.align	2
                         310 
                         311 --_ucId	r6	param
                         312 --_ucTemperature	r7	param
                         313 
                         314 	.data
                         315 	.text
                         316 	.align	2
                         317 	.align	2
                         318 ..gh.f.f.1.e.4:
                         319 	.type	..gh.f.f.1.e.4,@object
                         320 	.size	..gh.f.f.1.e.4,0
                         321 	.global	_BusMsgGetTemperature
                         322 _BusMsgGetTemperature:
000000a8 8600            323 	zxb	r6
                         324 --	    .bf
                         325 .LDW81:
000000aa 6432            326 	cmp	4,r6
000000ac f905*           327 	bnl	.L379
                         328 --line98
                         329 ..lin.C.3A.5C_ECU2.5CECU_Rivian_A1.5CTarget.5Crepo_projects.5CpRealEcu.5CcR_LATEST.5Cmake.5Coutput.5Cobjects.5Cbusmsg.12::
                         330 .LDWlin12:
000000ae 3e0600000000*   331 	mov	_ucTyreTemperature,ep
000000b4 c6f1            332 	add	r6,ep
000000b6 6050            333 	sld.bu	0[ep],r10
000000b8 7f00            334 	jmp	[lp]
                         335 .L379:
000000ba 2056ff00        336 	movea	255,zero,r10
                         337 --	    .ef
                         338 .LDW91:
                         339 --line102
                         340 ..lin.C.3A.5C_ECU2.5CECU_Rivian_A1.5CTarget.5Crepo_projects.5CpRealEcu.5CcR_LATEST.5Cmake.5Coutput.5Cobjects.5Cbusmsg.13::
                         341 .LDWlin13:
000000be 7f00            342 	jmp	[lp]
                         343 	.global	___ghs_eofn_BusMsgGetTemperature
                         344 ___ghs_eofn_BusMsgGetTemperature:
                         345 	.type	_BusMsgGetTemperature,@function
                         346 	.size	_BusMsgGetTemperature,.-_BusMsgGetTemperature
                         347 	.align	2
                         348 --_U8_Temperature	r10	local
                         349 
                         350 --_ucId	r6	param
                         351 
                         352 	.data
                         353 	.text
                         354 	.align	2
                         355 	.align	2

                                                                      Page 7
                                                              C:\Users\nhuliyap\AppData\Local\Temp\gh_0000en81.s
                         356 ..gh.f.f.1.e.5:
                         357 	.type	..gh.f.f.1.e.5,@object
                         358 	.size	..gh.f.f.1.e.5,0
                         359 	.global	_BusMsgPutTyrePressUncomp
                         360 _BusMsgPutTyrePressUncomp:
000000c0 8600            361 	zxb	r6
                         362 --	    .bf
                         363 .LDW02:
000000c2 6432            364 	cmp	4,r6
000000c4 e905*           365 	bnl	.L458
                         366 --line109
                         367 ..lin.C.3A.5C_ECU2.5CECU_Rivian_A1.5CTarget.5Crepo_projects.5CpRealEcu.5CcR_LATEST.5Cmake.5Coutput.5Cobjects.5Cbusmsg.14::
                         368 .LDWlin14:
000000c6 3e0600000000*   369 	mov	_ucTyrePressUncomp,ep
000000cc c6f1            370 	add	r6,ep
000000ce 803b            371 	sst.b	r7,0[ep]
                         372 .L458:
                         373 --	    .ef
                         374 .LDW12:
                         375 --line111
                         376 ..lin.C.3A.5C_ECU2.5CECU_Rivian_A1.5CTarget.5Crepo_projects.5CpRealEcu.5CcR_LATEST.5Cmake.5Coutput.5Cobjects.5Cbusmsg.15::
                         377 .LDWlin15:
000000d0 7f00            378 	jmp	[lp]
                         379 	.global	___ghs_eofn_BusMsgPutTyrePressUncomp
                         380 ___ghs_eofn_BusMsgPutTyrePressUncomp:
                         381 	.type	_BusMsgPutTyrePressUncomp,@function
                         382 	.size	_BusMsgPutTyrePressUncomp,.-_BusMsgPutTyrePressUncomp
                         383 	.align	2
                         384 
                         385 --_ucId	r6	param
                         386 --_ucpress	r7	param
                         387 
                         388 	.data
                         389 	.text
                         390 	.align	2
                         391 	.align	2
                         392 ..gh.f.f.1.e.6:
                         393 	.type	..gh.f.f.1.e.6,@object
                         394 	.size	..gh.f.f.1.e.6,0
                         395 	.global	_BusMsgGetTyrePressUncomp
                         396 _BusMsgGetTyrePressUncomp:
000000d2 8600            397 	zxb	r6
                         398 --	    .bf
                         399 .LDW22:
000000d4 2056ff00        400 	movea	255,zero,r10
000000d8 6432            401 	cmp	4,r6
000000da e905*           402 	bnl	.L519
                         403 --line116
                         404 ..lin.C.3A.5C_ECU2.5CECU_Rivian_A1.5CTarget.5Crepo_projects.5CpRealEcu.5CcR_LATEST.5Cmake.5Coutput.5Cobjects.5Cbusmsg.16::
                         405 .LDWlin16:
000000dc 3e0600000000*   406 	mov	_ucTyrePressUncomp,ep
000000e2 c6f1            407 	add	r6,ep
000000e4 6050            408 	sld.bu	0[ep],r10
                         409 .L519:
                         410 --	    .ef
                         411 .LDW32:
                         412 --line120
                         413 ..lin.C.3A.5C_ECU2.5CECU_Rivian_A1.5CTarget.5Crepo_projects.5CpRealEcu.5CcR_LATEST.5Cmake.5Coutput.5Cobjects.5Cbusmsg.17::
                         414 .LDWlin17:
000000e6 7f00            415 	jmp	[lp]
                         416 	.global	___ghs_eofn_BusMsgGetTyrePressUncomp

                                                                      Page 8
                                                              C:\Users\nhuliyap\AppData\Local\Temp\gh_0000en81.s
                         417 ___ghs_eofn_BusMsgGetTyrePressUncomp:
                         418 	.type	_BusMsgGetTyrePressUncomp,@function
                         419 	.size	_BusMsgGetTyrePressUncomp,.-_BusMsgGetTyrePressUncomp
                         420 	.align	2
                         421 
                         422 --_ucId	r6	param
                         423 
                         424 	.data
                         425 	.text
                         426 	.align	2
                         427 	.align	2
                         428 ..gh.f.f.1.e.7:
                         429 	.type	..gh.f.f.1.e.7,@object
                         430 	.size	..gh.f.f.1.e.7,0
                         431 	.global	_BusMsgPutTemperatureWarning
                         432 _BusMsgPutTemperatureWarning:
000000e8 320600000000*   433 	mov	_ucTyreTemperatureWarning,r18
                         434 --	    .bf
                         435 .LDW42:
                         436 --line126
                         437 ..lin.C.3A.5C_ECU2.5CECU_Rivian_A1.5CTarget.5Crepo_projects.5CpRealEcu.5CcR_LATEST.5Cmake.5Coutput.5Cobjects.5Cbusmsg.18::
                         438 .LDWlin18:
000000ee 019a            439 	mov	1,r19
000000f0 928f0100        440 	ld.bu	0[r18],r17
000000f4 d83a            441 	shl	24,r7
000000f6 d205*           442 	be	.L599
                         443 --line127
                         444 ..lin.C.3A.5C_ECU2.5CECU_Rivian_A1.5CTarget.5Crepo_projects.5CpRealEcu.5CcR_LATEST.5Cmake.5Coutput.5Cobjects.5Cbusmsg.19::
                         445 .LDWlin19:
000000f8 e69fc230        446 	shl	r6,r19,r6
000000fc 0689            447 	or	r6,r17
000000fe d505*           448 	br	.L597
                         449 .L599:
                         450 --line130
                         451 ..lin.C.3A.5C_ECU2.5CECU_Rivian_A1.5CTarget.5Crepo_projects.5CpRealEcu.5CcR_LATEST.5Cmake.5Coutput.5Cobjects.5Cbusmsg.20::
                         452 .LDWlin20:
00000100 e69fc298        453 	shl	r6,r19,r19
00000104 3380            454 	not	r19,r16
00000106 5089            455 	and	r16,r17
                         456 .L597:
00000108 528f0000        457 	st.b	r17,0[r18]
                         458 --	    .ef
                         459 .LDW52:
0000010c 7f00            460 	jmp	[lp]
                         461 	.global	___ghs_eofn_BusMsgPutTemperatureWarning
                         462 ___ghs_eofn_BusMsgPutTemperatureWarning:
                         463 	.type	_BusMsgPutTemperatureWarning,@function
                         464 	.size	_BusMsgPutTemperatureWarning,.-_BusMsgPutTemperatureWarning
                         465 	.align	2
                         466 
                         467 --_ucId	r6	param
                         468 --_BO_IsTemperatureWarningActive	r7	param
                         469 
                         470 	.data
                         471 	.text
                         472 	.align	2
                         473 	.align	2
                         474 ..gh.f.f.1.e.8:
                         475 	.type	..gh.f.f.1.e.8,@object
                         476 	.size	..gh.f.f.1.e.8,0
                         477 	.global	_BusMsgGetTemperatureWarning

                                                                      Page 9
                                                              C:\Users\nhuliyap\AppData\Local\Temp\gh_0000en81.s
                         478 _BusMsgGetTemperatureWarning:
                         479 --	    .bf
                         480 .LDW62:
0000010e 40960000*       481 	movhi	hi(_ucTyreTemperatureWarning),zero,r18
00000112 92970100*       482 	ld.bu	lo(_ucTyreTemperatureWarning)[r18],r18
00000116 e697a298        483 	sar	r6,r18,r19
0000011a d3560100        484 	andi	1,r19,r10
                         485 --	    .ef
                         486 .LDW72:
                         487 --line135
                         488 ..lin.C.3A.5C_ECU2.5CECU_Rivian_A1.5CTarget.5Crepo_projects.5CpRealEcu.5CcR_LATEST.5Cmake.5Coutput.5Cobjects.5Cbusmsg.21::
                         489 .LDWlin21:
0000011e 7f00            490 	jmp	[lp]
                         491 	.global	___ghs_eofn_BusMsgGetTemperatureWarning
                         492 ___ghs_eofn_BusMsgGetTemperatureWarning:
                         493 	.type	_BusMsgGetTemperatureWarning,@function
                         494 	.size	_BusMsgGetTemperatureWarning,.-_BusMsgGetTemperatureWarning
                         495 	.align	2
                         496 
                         497 --_ucId	r6	param
                         498 
                         499 	.data
                         500 	.text
                         501 	.align	2
                         502 	.align	2
                         503 ..gh.f.f.1.e.9:
                         504 	.type	..gh.f.f.1.e.9,@object
                         505 	.size	..gh.f.f.1.e.9,0
                         506 	.global	_BusMsgPutWarning
                         507 _BusMsgPutWarning:
00000120 8600            508 	zxb	r6
                         509 --	    .bf
                         510 .LDW82:
00000122 6432            511 	cmp	4,r6
00000124 e905*           512 	bnl	.L725
                         513 --line145
                         514 ..lin.C.3A.5C_ECU2.5CECU_Rivian_A1.5CTarget.5Crepo_projects.5CpRealEcu.5CcR_LATEST.5Cmake.5Coutput.5Cobjects.5Cbusmsg.22::
                         515 .LDWlin22:
00000126 3e0600000000*   516 	mov	_ucTyreWarning,ep
0000012c c6f1            517 	add	r6,ep
0000012e 803b            518 	sst.b	r7,0[ep]
                         519 .L725:
                         520 --	    .ef
                         521 .LDW92:
                         522 --line147
                         523 ..lin.C.3A.5C_ECU2.5CECU_Rivian_A1.5CTarget.5Crepo_projects.5CpRealEcu.5CcR_LATEST.5Cmake.5Coutput.5Cobjects.5Cbusmsg.23::
                         524 .LDWlin23:
00000130 7f00            525 	jmp	[lp]
                         526 	.global	___ghs_eofn_BusMsgPutWarning
                         527 ___ghs_eofn_BusMsgPutWarning:
                         528 	.type	_BusMsgPutWarning,@function
                         529 	.size	_BusMsgPutWarning,.-_BusMsgPutWarning
                         530 	.align	2
                         531 
                         532 --_ucId	r6	param
                         533 --_ucwarning	r7	param
                         534 
                         535 	.data
                         536 	.text
                         537 	.align	2
                         538 	.align	2

                                                                      Page 10
                                                              C:\Users\nhuliyap\AppData\Local\Temp\gh_0000en81.s
                         539 ..gh.f.f.1.e.10:
                         540 	.type	..gh.f.f.1.e.10,@object
                         541 	.size	..gh.f.f.1.e.10,0
                         542 	.global	_BusMsgGetWarning
                         543 _BusMsgGetWarning:
00000132 8600            544 	zxb	r6
                         545 --	    .bf
                         546 .LDW03:
00000134 6432            547 	cmp	4,r6
00000136 f905*           548 	bnl	.L793
                         549 --line154
                         550 ..lin.C.3A.5C_ECU2.5CECU_Rivian_A1.5CTarget.5Crepo_projects.5CpRealEcu.5CcR_LATEST.5Cmake.5Coutput.5Cobjects.5Cbusmsg.24::
                         551 .LDWlin24:
00000138 3e0600000000*   552 	mov	_ucTyreWarning,ep
0000013e c6f1            553 	add	r6,ep
00000140 6050            554 	sld.bu	0[ep],r10
00000142 7f00            555 	jmp	[lp]
                         556 .L793:
00000144 0052            557 	mov	0,r10
                         558 --	    .ef
                         559 .LDW13:
                         560 --line156
                         561 ..lin.C.3A.5C_ECU2.5CECU_Rivian_A1.5CTarget.5Crepo_projects.5CpRealEcu.5CcR_LATEST.5Cmake.5Coutput.5Cobjects.5Cbusmsg.25::
                         562 .LDWlin25:
00000146 7f00            563 	jmp	[lp]
                         564 	.global	___ghs_eofn_BusMsgGetWarning
                         565 ___ghs_eofn_BusMsgGetWarning:
                         566 	.type	_BusMsgGetWarning,@function
                         567 	.size	_BusMsgGetWarning,.-_BusMsgGetWarning
                         568 	.align	2
                         569 --_ucHelp	r10	local
                         570 
                         571 --_ucId	r6	param
                         572 
                         573 	.data
                         574 	.text
                         575 	.align	2
                         576 	.align	2
                         577 ..gh.f.f.1.e.11:
                         578 	.type	..gh.f.f.1.e.11,@object
                         579 	.size	..gh.f.f.1.e.11,0
                         580 	.global	_BusMsgPutTyrePressValidVL
                         581 _BusMsgPutTyrePressValidVL:
                         582 --	    .bf
                         583 .LDW23:
00000148 405e0000*       584 	movhi	hi(_bTyreValidVL),zero,r11
0000014c 4b370000*       585 	st.b	r6,lo(_bTyreValidVL)[r11]
                         586 --	    .ef
                         587 .LDW33:
                         588 --line162
                         589 ..lin.C.3A.5C_ECU2.5CECU_Rivian_A1.5CTarget.5Crepo_projects.5CpRealEcu.5CcR_LATEST.5Cmake.5Coutput.5Cobjects.5Cbusmsg.26::
                         590 .LDWlin26:
00000150 7f00            591 	jmp	[lp]
                         592 	.global	___ghs_eofn_BusMsgPutTyrePressValidVL
                         593 ___ghs_eofn_BusMsgPutTyrePressValidVL:
                         594 	.type	_BusMsgPutTyrePressValidVL,@function
                         595 	.size	_BusMsgPutTyrePressValidVL,.-_BusMsgPutTyrePressValidVL
                         596 	.align	2
                         597 
                         598 --_bstate	r6	param
                         599 

                                                                      Page 11
                                                              C:\Users\nhuliyap\AppData\Local\Temp\gh_0000en81.s
                         600 	.data
                         601 	.text
                         602 	.align	2
                         603 	.align	2
                         604 ..gh.f.f.1.e.12:
                         605 	.type	..gh.f.f.1.e.12,@object
                         606 	.size	..gh.f.f.1.e.12,0
                         607 	.global	_BusMsgGetTyrePressValidVL
                         608 _BusMsgGetTyrePressValidVL:
                         609 --	    .bf
                         610 .LDW43:
00000152 40560000*       611 	movhi	hi(_bTyreValidVL),zero,r10
00000156 8a570100*       612 	ld.bu	lo(_bTyreValidVL)[r10],r10
                         613 --	    .ef
                         614 .LDW53:
                         615 --line164
                         616 ..lin.C.3A.5C_ECU2.5CECU_Rivian_A1.5CTarget.5Crepo_projects.5CpRealEcu.5CcR_LATEST.5Cmake.5Coutput.5Cobjects.5Cbusmsg.27::
                         617 .LDWlin27:
0000015a 7f00            618 	jmp	[lp]
                         619 	.global	___ghs_eofn_BusMsgGetTyrePressValidVL
                         620 ___ghs_eofn_BusMsgGetTyrePressValidVL:
                         621 	.type	_BusMsgGetTyrePressValidVL,@function
                         622 	.size	_BusMsgGetTyrePressValidVL,.-_BusMsgGetTyrePressValidVL
                         623 	.align	2
                         624 
                         625 	.data
                         626 	.text
                         627 	.align	2
                         628 	.align	2
                         629 ..gh.f.f.1.e.13:
                         630 	.type	..gh.f.f.1.e.13,@object
                         631 	.size	..gh.f.f.1.e.13,0
                         632 	.global	_BusMsgPutTyrePressValidVR
                         633 _BusMsgPutTyrePressValidVR:
                         634 --	    .bf
                         635 .LDW63:
0000015c 405e0000*       636 	movhi	hi(_bTyreValidVR),zero,r11
00000160 4b370000*       637 	st.b	r6,lo(_bTyreValidVR)[r11]
                         638 --	    .ef
                         639 .LDW73:
                         640 --line171
                         641 ..lin.C.3A.5C_ECU2.5CECU_Rivian_A1.5CTarget.5Crepo_projects.5CpRealEcu.5CcR_LATEST.5Cmake.5Coutput.5Cobjects.5Cbusmsg.28::
                         642 .LDWlin28:
00000164 7f00            643 	jmp	[lp]
                         644 	.global	___ghs_eofn_BusMsgPutTyrePressValidVR
                         645 ___ghs_eofn_BusMsgPutTyrePressValidVR:
                         646 	.type	_BusMsgPutTyrePressValidVR,@function
                         647 	.size	_BusMsgPutTyrePressValidVR,.-_BusMsgPutTyrePressValidVR
                         648 	.align	2
                         649 
                         650 --_bstate	r6	param
                         651 
                         652 	.data
                         653 	.text
                         654 	.align	2
                         655 	.align	2
                         656 ..gh.f.f.1.e.14:
                         657 	.type	..gh.f.f.1.e.14,@object
                         658 	.size	..gh.f.f.1.e.14,0
                         659 	.global	_BusMsgGetTyrePressValidVR
                         660 _BusMsgGetTyrePressValidVR:

                                                                      Page 12
                                                              C:\Users\nhuliyap\AppData\Local\Temp\gh_0000en81.s
                         661 --	    .bf
                         662 .LDW83:
00000166 40560000*       663 	movhi	hi(_bTyreValidVR),zero,r10
0000016a 8a570100*       664 	ld.bu	lo(_bTyreValidVR)[r10],r10
                         665 --	    .ef
                         666 .LDW93:
                         667 --line173
                         668 ..lin.C.3A.5C_ECU2.5CECU_Rivian_A1.5CTarget.5Crepo_projects.5CpRealEcu.5CcR_LATEST.5Cmake.5Coutput.5Cobjects.5Cbusmsg.29::
                         669 .LDWlin29:
0000016e 7f00            670 	jmp	[lp]
                         671 	.global	___ghs_eofn_BusMsgGetTyrePressValidVR
                         672 ___ghs_eofn_BusMsgGetTyrePressValidVR:
                         673 	.type	_BusMsgGetTyrePressValidVR,@function
                         674 	.size	_BusMsgGetTyrePressValidVR,.-_BusMsgGetTyrePressValidVR
                         675 	.align	2
                         676 
                         677 	.data
                         678 	.text
                         679 	.align	2
                         680 	.align	2
                         681 ..gh.f.f.1.e.15:
                         682 	.type	..gh.f.f.1.e.15,@object
                         683 	.size	..gh.f.f.1.e.15,0
                         684 	.global	_BusMsgPutTyrePressValidHL
                         685 _BusMsgPutTyrePressValidHL:
                         686 --	    .bf
                         687 .LDW04:
00000170 405e0000*       688 	movhi	hi(_bTyreValidHL),zero,r11
00000174 4b370000*       689 	st.b	r6,lo(_bTyreValidHL)[r11]
                         690 --	    .ef
                         691 .LDW14:
                         692 --line180
                         693 ..lin.C.3A.5C_ECU2.5CECU_Rivian_A1.5CTarget.5Crepo_projects.5CpRealEcu.5CcR_LATEST.5Cmake.5Coutput.5Cobjects.5Cbusmsg.30::
                         694 .LDWlin30:
00000178 7f00            695 	jmp	[lp]
                         696 	.global	___ghs_eofn_BusMsgPutTyrePressValidHL
                         697 ___ghs_eofn_BusMsgPutTyrePressValidHL:
                         698 	.type	_BusMsgPutTyrePressValidHL,@function
                         699 	.size	_BusMsgPutTyrePressValidHL,.-_BusMsgPutTyrePressValidHL
                         700 	.align	2
                         701 
                         702 --_bstate	r6	param
                         703 
                         704 	.data
                         705 	.text
                         706 	.align	2
                         707 	.align	2
                         708 ..gh.f.f.1.e.16:
                         709 	.type	..gh.f.f.1.e.16,@object
                         710 	.size	..gh.f.f.1.e.16,0
                         711 	.global	_BusMsgGetTyrePressValidHL
                         712 _BusMsgGetTyrePressValidHL:
                         713 --	    .bf
                         714 .LDW24:
0000017a 40560000*       715 	movhi	hi(_bTyreValidHL),zero,r10
0000017e 8a570100*       716 	ld.bu	lo(_bTyreValidHL)[r10],r10
                         717 --	    .ef
                         718 .LDW34:
                         719 --line182
                         720 ..lin.C.3A.5C_ECU2.5CECU_Rivian_A1.5CTarget.5Crepo_projects.5CpRealEcu.5CcR_LATEST.5Cmake.5Coutput.5Cobjects.5Cbusmsg.31::
                         721 .LDWlin31:

                                                                      Page 13
                                                              C:\Users\nhuliyap\AppData\Local\Temp\gh_0000en81.s
00000182 7f00            722 	jmp	[lp]
                         723 	.global	___ghs_eofn_BusMsgGetTyrePressValidHL
                         724 ___ghs_eofn_BusMsgGetTyrePressValidHL:
                         725 	.type	_BusMsgGetTyrePressValidHL,@function
                         726 	.size	_BusMsgGetTyrePressValidHL,.-_BusMsgGetTyrePressValidHL
                         727 	.align	2
                         728 
                         729 	.data
                         730 	.text
                         731 	.align	2
                         732 	.align	2
                         733 ..gh.f.f.1.e.17:
                         734 	.type	..gh.f.f.1.e.17,@object
                         735 	.size	..gh.f.f.1.e.17,0
                         736 	.global	_BusMsgPutTyrePressValidHR
                         737 _BusMsgPutTyrePressValidHR:
                         738 --	    .bf
                         739 .LDW44:
00000184 405e0000*       740 	movhi	hi(_bTyreValidHR),zero,r11
00000188 4b370000*       741 	st.b	r6,lo(_bTyreValidHR)[r11]
                         742 --	    .ef
                         743 .LDW54:
                         744 --line189
                         745 ..lin.C.3A.5C_ECU2.5CECU_Rivian_A1.5CTarget.5Crepo_projects.5CpRealEcu.5CcR_LATEST.5Cmake.5Coutput.5Cobjects.5Cbusmsg.32::
                         746 .LDWlin32:
0000018c 7f00            747 	jmp	[lp]
                         748 	.global	___ghs_eofn_BusMsgPutTyrePressValidHR
                         749 ___ghs_eofn_BusMsgPutTyrePressValidHR:
                         750 	.type	_BusMsgPutTyrePressValidHR,@function
                         751 	.size	_BusMsgPutTyrePressValidHR,.-_BusMsgPutTyrePressValidHR
                         752 	.align	2
                         753 
                         754 --_bstate	r6	param
                         755 
                         756 	.data
                         757 	.text
                         758 	.align	2
                         759 	.align	2
                         760 ..gh.f.f.1.e.18:
                         761 	.type	..gh.f.f.1.e.18,@object
                         762 	.size	..gh.f.f.1.e.18,0
                         763 	.global	_BusMsgGetTyrePressValidHR
                         764 _BusMsgGetTyrePressValidHR:
                         765 --	    .bf
                         766 .LDW64:
0000018e 40560000*       767 	movhi	hi(_bTyreValidHR),zero,r10
00000192 8a570100*       768 	ld.bu	lo(_bTyreValidHR)[r10],r10
                         769 --	    .ef
                         770 .LDW74:
                         771 --line191
                         772 ..lin.C.3A.5C_ECU2.5CECU_Rivian_A1.5CTarget.5Crepo_projects.5CpRealEcu.5CcR_LATEST.5Cmake.5Coutput.5Cobjects.5Cbusmsg.33::
                         773 .LDWlin33:
00000196 7f00            774 	jmp	[lp]
                         775 	.global	___ghs_eofn_BusMsgGetTyrePressValidHR
                         776 ___ghs_eofn_BusMsgGetTyrePressValidHR:
                         777 	.type	_BusMsgGetTyrePressValidHR,@function
                         778 	.size	_BusMsgGetTyrePressValidHR,.-_BusMsgGetTyrePressValidHR
                         779 	.align	2
                         780 
                         781 	.data
                         782 	.text

                                                                      Page 14
                                                              C:\Users\nhuliyap\AppData\Local\Temp\gh_0000en81.s
                         783 	.align	2
                         784 	.align	2
                         785 ..gh.f.f.1.e.19:
                         786 	.type	..gh.f.f.1.e.19,@object
                         787 	.size	..gh.f.f.1.e.19,0
                         788 	.global	_BusMsgPutTextflag
                         789 _BusMsgPutTextflag:
00000198 8600            790 	zxb	r6
                         791 --	    .bf
                         792 .LDW84:
0000019a 6632            793 	cmp	6,r6
0000019c e905*           794 	bnl	.L1253
                         795 --line199
                         796 ..lin.C.3A.5C_ECU2.5CECU_Rivian_A1.5CTarget.5Crepo_projects.5CpRealEcu.5CcR_LATEST.5Cmake.5Coutput.5Cobjects.5Cbusmsg.34::
                         797 .LDWlin34:
0000019e 3e0600000000*   798 	mov	_bTextFlags,ep
000001a4 c6f1            799 	add	r6,ep
000001a6 803b            800 	sst.b	r7,0[ep]
                         801 .L1253:
                         802 --	    .ef
                         803 .LDW94:
                         804 --line201
                         805 ..lin.C.3A.5C_ECU2.5CECU_Rivian_A1.5CTarget.5Crepo_projects.5CpRealEcu.5CcR_LATEST.5Cmake.5Coutput.5Cobjects.5Cbusmsg.35::
                         806 .LDWlin35:
000001a8 7f00            807 	jmp	[lp]
                         808 	.global	___ghs_eofn_BusMsgPutTextflag
                         809 ___ghs_eofn_BusMsgPutTextflag:
                         810 	.type	_BusMsgPutTextflag,@function
                         811 	.size	_BusMsgPutTextflag,.-_BusMsgPutTextflag
                         812 	.align	2
                         813 
                         814 --_ucId	r6	param
                         815 --_bstate	r7	param
                         816 
                         817 	.data
                         818 	.text
                         819 	.align	2
                         820 	.align	2
                         821 ..gh.f.f.1.e.20:
                         822 	.type	..gh.f.f.1.e.20,@object
                         823 	.size	..gh.f.f.1.e.20,0
                         824 	.global	_BusMsgGetTextflag
                         825 _BusMsgGetTextflag:
000001aa 8600            826 	zxb	r6
                         827 --	    .bf
                         828 .LDW05:
000001ac 6632            829 	cmp	6,r6
000001ae f905*           830 	bnl	.L1321
                         831 --line208
                         832 ..lin.C.3A.5C_ECU2.5CECU_Rivian_A1.5CTarget.5Crepo_projects.5CpRealEcu.5CcR_LATEST.5Cmake.5Coutput.5Cobjects.5Cbusmsg.36::
                         833 .LDWlin36:
000001b0 3e0600000000*   834 	mov	_bTextFlags,ep
000001b6 c6f1            835 	add	r6,ep
000001b8 6050            836 	sld.bu	0[ep],r10
000001ba 7f00            837 	jmp	[lp]
                         838 .L1321:
000001bc 0052            839 	mov	0,r10
                         840 --	    .ef
                         841 .LDW15:
                         842 --line210
                         843 ..lin.C.3A.5C_ECU2.5CECU_Rivian_A1.5CTarget.5Crepo_projects.5CpRealEcu.5CcR_LATEST.5Cmake.5Coutput.5Cobjects.5Cbusmsg.37::

                                                                      Page 15
                                                              C:\Users\nhuliyap\AppData\Local\Temp\gh_0000en81.s
                         844 .LDWlin37:
000001be 7f00            845 	jmp	[lp]
                         846 	.global	___ghs_eofn_BusMsgGetTextflag
                         847 ___ghs_eofn_BusMsgGetTextflag:
                         848 	.type	_BusMsgGetTextflag,@function
                         849 	.size	_BusMsgGetTextflag,.-_BusMsgGetTextflag
                         850 	.align	2
                         851 --_bHelp	r10	local
                         852 
                         853 --_ucId	r6	param
                         854 
                         855 	.data
                         856 	.text
                         857 	.align	2
                         858 	.align	2
                         859 ..gh.f.f.1.e.21:
                         860 	.type	..gh.f.f.1.e.21,@object
                         861 	.size	..gh.f.f.1.e.21,0
                         862 	.global	_GETbNoWarnPartSurv..C.3A.5C_ECU2.5CECU_Rivian_A1.5CTarget.5Crepo_projects.5CpRealEcu.5CcR_LATEST.5Cmake.5Coutput.5Cobjects.5Cbusmsg.
                         863 _GETbNoWarnPartSurv..C.3A.5C_ECU2.5CECU_Rivian_A1.5CTarget.5Crepo_projects.5CpRealEcu.5CcR_LATEST.5Cmake.5Coutput.5Cobjects.5Cbusmsg.:
                         864 _GETbNoWarnPartSurv:
000001c0 8007e110        865 	prepare	{r27,r28,r29,r31},0
000001c4 06d8            866 	mov	r6,r27
000001c6 9b00            867 	zxb	r27
                         868 --	    .bf
                         869 .LDW25:
000001c8 00ea            870 	mov	0,r29
000001ca 64da            871 	cmp	4,r27
000001cc f91d*           872 	bnl	.L1404
                         873 --line516
                         874 ..lin.C.3A.5C_ECU2.5CECU_Rivian_A1.5CTarget.5Crepo_projects.5CpRealEcu.5CcR_LATEST.5Cmake.5Coutput.5Cobjects.5Cbusmsg.38::
                         875 .LDWlin38:
                         876 	jarl	_GETucReErrorStatusEE,lp
                         876 <EXPANSION BEGIN>
                         876 jarl22 _GETucReErrorStatusEE , lp 
000001ce 80ff0000*       876 <EXPANSION END>
000001d2 0172            877 	mov	1,r14
000001d4 fb77c2e0        878 	shl	r27,r14,r28
000001d8 9c00            879 	zxb	r28
000001da 1c90            880 	mov	r28,r18
000001dc 4a91            881 	and	r10,r18
000001de fc91            882 	cmp	r28,r18
000001e0 e2ef0000        883 	setfe	r29
                         884 --line519
                         885 ..lin.C.3A.5C_ECU2.5CECU_Rivian_A1.5CTarget.5Crepo_projects.5CpRealEcu.5CcR_LATEST.5Cmake.5Coutput.5Cobjects.5Cbusmsg.39::
                         886 .LDWlin39:
                         887 	jarl	_GETucReErrorStatusEE,lp
                         887 <EXPANSION BEGIN>
                         887 jarl22 _GETucReErrorStatusEE , lp 
000001e4 80ff0000*       887 <EXPANSION END>
000001e8 20761000        888 	movea	16,zero,r14
000001ec fb77c278        889 	shl	r27,r14,r15
000001f0 8f00            890 	zxb	r15
000001f2 0f88            891 	mov	r15,r17
000001f4 4a89            892 	and	r10,r17
000001f6 ef89            893 	cmp	r15,r17
000001f8 e1ef04eb        894 	cmove	1,r29,r29
                         895 --line522
                         896 ..lin.C.3A.5C_ECU2.5CECU_Rivian_A1.5CTarget.5Crepo_projects.5CpRealEcu.5CcR_LATEST.5Cmake.5Coutput.5Cobjects.5Cbusmsg.40::
                         897 .LDWlin40:
                         898 	jarl	_GETucReHeatUpStatusEE,lp

                                                                      Page 16
                                                              C:\Users\nhuliyap\AppData\Local\Temp\gh_0000en81.s
                         898 <EXPANSION BEGIN>
                         898 jarl22 _GETucReHeatUpStatusEE , lp 
000001fc 80ff0000*       898 <EXPANSION END>
00000200 1c80            899 	mov	r28,r16
00000202 4a81            900 	and	r10,r16
00000204 fc81            901 	cmp	r28,r16
                         902 --line523
                         903 ..lin.C.3A.5C_ECU2.5CECU_Rivian_A1.5CTarget.5Crepo_projects.5CpRealEcu.5CcR_LATEST.5Cmake.5Coutput.5Cobjects.5Cbusmsg.41::
                         904 .LDWlin41:
00000206 e1ef04eb        905 	cmove	1,r29,r29
                         906 .L1404:
0000020a 1d50            907 	mov	r29,r10
                         908 --	    .ef
                         909 .LDW35:
0000020c 4006ff10        910 	dispose	0,{r27,r28,r29,r31},[lp]
                         911 ___ghs_eofn_GETbNoWarnPartSurv:
                         912 	.type	_GETbNoWarnPartSurv,@function
                         913 	.size	_GETbNoWarnPartSurv,.-_GETbNoWarnPartSurv
                         914 	.type	_GETbNoWarnPartSurv..C.3A.5C_ECU2.5CECU_Rivian_A1.5CTarget.5Crepo_projects.5CpRealEcu.5CcR_LATEST.5Cmake.5Coutput.5Cobjects.5Cbusmsg.,@function
                         915 	.size	_GETbNoWarnPartSurv..C.3A.5C_ECU2.5CECU_Rivian_A1.5CTarget.5Crepo_projects.5CpRealEcu.5CcR_LATEST.5Cmake.5Coutput.5Cobjects.5Cbusmsg.,.-_GETbNoWarnPartSurv..C.3A.5C_ECU2.5CECU_Rivian_A1.5CTarget.5Crepo_projects.5CpRealEcu.5CcR_LATEST.5Cmake.5Coutput.5Cobjects.5Cbusmsg.
                         916 	.align	2
                         917 --_ucRet	r29	local
                         918 
                         919 --_ucPos	r27	param
                         920 
                         921 	.section ".bss","awb"
                         922 .L1484:
                         923 	.type	.L1484,@object
                         924 	.size	.L1484,0
                         925 	.data
                         926 	.text
                         927 	.align	2
                         928 	.align	2
                         929 ..gh.f.f.1.e.22:
                         930 	.type	..gh.f.f.1.e.22,@object
                         931 	.size	..gh.f.f.1.e.22,0
                         932 	.global	_BusMsgDetermineErrCounter..C.3A.5C_ECU2.5CECU_Rivian_A1.5CTarget.5Crepo_projects.5CpRealEcu.5CcR_LATEST.5Cmake.5Coutput.5Cobjects.5Cbusmsg.
                         933 _BusMsgDetermineErrCounter..C.3A.5C_ECU2.5CECU_Rivian_A1.5CTarget.5Crepo_projects.5CpRealEcu.5CcR_LATEST.5Cmake.5Coutput.5Cobjects.5Cbusmsg.:
                         934 _BusMsgDetermineErrCounter:
00000210 80076100        935 	prepare	{r29,r31},0
                         936 --	    .bf
                         937 .LDW45:
00000214 0032            938 	mov	0,r6
                         939 	jarl	_GETbNoWarnPartSurv,lp
                         939 <EXPANSION BEGIN>
                         939 jarl22 _GETbNoWarnPartSurv , lp 
00000216 bfffaaff*       939 <EXPANSION END>
0000021a 6152            940 	cmp	1,r10
0000021c e05714eb        941 	cmovne	0,r10,r29
                         942 --line886
                         943 ..lin.C.3A.5C_ECU2.5CECU_Rivian_A1.5CTarget.5Crepo_projects.5CpRealEcu.5CcR_LATEST.5Cmake.5Coutput.5Cobjects.5Cbusmsg.42::
                         944 .LDWlin42:
00000220 0232            945 	mov	2,r6
                         946 	jarl	_GETbNoWarnPartSurv,lp
                         946 <EXPANSION BEGIN>
                         946 jarl22 _GETbNoWarnPartSurv , lp 
00000222 bfff9eff*       946 <EXPANSION END>
00000226 6152            947 	cmp	1,r10
00000228 ba05*           948 	bne	.L1535
                         949 --line887
                         950 ..lin.C.3A.5C_ECU2.5CECU_Rivian_A1.5CTarget.5Crepo_projects.5CpRealEcu.5CcR_LATEST.5Cmake.5Coutput.5Cobjects.5Cbusmsg.43::

                                                                      Page 17
                                                              C:\Users\nhuliyap\AppData\Local\Temp\gh_0000en81.s
                         951 .LDWlin43:
0000022a cae9            952 	add	r10,r29
0000022c 9d00            953 	zxb	r29
                         954 .L1535:
0000022e 0132            955 	mov	1,r6
                         956 	jarl	_GETbNoWarnPartSurv,lp
                         956 <EXPANSION BEGIN>
                         956 jarl22 _GETbNoWarnPartSurv , lp 
00000230 bfff90ff*       956 <EXPANSION END>
00000234 6152            957 	cmp	1,r10
00000236 ba05*           958 	bne	.L1537
                         959 --line890
                         960 ..lin.C.3A.5C_ECU2.5CECU_Rivian_A1.5CTarget.5Crepo_projects.5CpRealEcu.5CcR_LATEST.5Cmake.5Coutput.5Cobjects.5Cbusmsg.44::
                         961 .LDWlin44:
00000238 cae9            962 	add	r10,r29
0000023a 9d00            963 	zxb	r29
                         964 .L1537:
0000023c 0332            965 	mov	3,r6
                         966 	jarl	_GETbNoWarnPartSurv,lp
                         966 <EXPANSION BEGIN>
                         966 jarl22 _GETbNoWarnPartSurv , lp 
0000023e bfff82ff*       966 <EXPANSION END>
00000242 6152            967 	cmp	1,r10
00000244 ba05*           968 	bne	.L1539
                         969 --line893
                         970 ..lin.C.3A.5C_ECU2.5CECU_Rivian_A1.5CTarget.5Crepo_projects.5CpRealEcu.5CcR_LATEST.5Cmake.5Coutput.5Cobjects.5Cbusmsg.45::
                         971 .LDWlin45:
00000246 cae9            972 	add	r10,r29
00000248 9d00            973 	zxb	r29
                         974 .L1539:
0000024a 1d50            975 	mov	r29,r10
                         976 --	    .ef
                         977 .LDW55:
0000024c 40067f00        978 	dispose	0,{r29,r31},[lp]
                         979 ___ghs_eofn_BusMsgDetermineErrCounter:
                         980 	.type	_BusMsgDetermineErrCounter,@function
                         981 	.size	_BusMsgDetermineErrCounter,.-_BusMsgDetermineErrCounter
                         982 	.type	_BusMsgDetermineErrCounter..C.3A.5C_ECU2.5CECU_Rivian_A1.5CTarget.5Crepo_projects.5CpRealEcu.5CcR_LATEST.5Cmake.5Coutput.5Cobjects.5Cbusmsg.,@function
                         983 	.size	_BusMsgDetermineErrCounter..C.3A.5C_ECU2.5CECU_Rivian_A1.5CTarget.5Crepo_projects.5CpRealEcu.5CcR_LATEST.5Cmake.5Coutput.5Cobjects.5Cbusmsg.,.-_BusMsgDetermineErrCounter..C.3A.5C_ECU2.5CECU_Rivian_A1.5CTarget.5Crepo_projects.5CpRealEcu.5CcR_LATEST.5Cmake.5Coutput.5Cobjects.5Cbusmsg.
                         984 	.align	2
                         985 --_ucReErrCount	r29	local
                         986 
                         987 	.section ".bss","awb"
                         988 .L1639:
                         989 	.type	.L1639,@object
                         990 	.size	.L1639,0
                         991 	.data
                         992 	.text
                         993 	.align	2
                         994 	.align	2
                         995 ..gh.f.f.1.e.23:
                         996 	.type	..gh.f.f.1.e.23,@object
                         997 	.size	..gh.f.f.1.e.23,0
                         998 	.global	_BusMsgCheckWarningsFrontLeft..C.3A.5C_ECU2.5CECU_Rivian_A1.5CTarget.5Crepo_projects.5CpRealEcu.5CcR_LATEST.5Cmake.5Coutput.5Cobjects.5Cbusmsg.
                         999 _BusMsgCheckWarningsFrontLeft..C.3A.5C_ECU2.5CECU_Rivian_A1.5CTarget.5Crepo_projects.5CpRealEcu.5CcR_LATEST.5Cmake.5Coutput.5Cobjects.5Cbusmsg.:
                        1000 _BusMsgCheckWarningsFrontLeft:
00000250 80076100       1001 	prepare	{r29,r31},0
                        1002 --	    .bf
                        1003 .LDW65:
00000254 0032           1004 	mov	0,r6
                        1005 	jarl	_GETbNoWarnPartSurv,lp

                                                                      Page 18
                                                              C:\Users\nhuliyap\AppData\Local\Temp\gh_0000en81.s
                        1005 <EXPANSION BEGIN>
                        1005 jarl22 _GETbNoWarnPartSurv , lp 
00000256 bfff6aff*      1005 <EXPANSION END>
0000025a 6152           1006 	cmp	1,r10
0000025c e205*          1007 	be	.L1717
0000025e 0032           1008 	mov	0,r6
                        1009 	jarl	_BusMsgGetTextflag,lp
                        1009 <EXPANSION BEGIN>
                        1009 jarl22 _BusMsgGetTextflag , lp 
00000260 bfff4aff*      1009 <EXPANSION END>
00000264 6152           1010 	cmp	1,r10
00000266 aa0d*          1011 	bne	.L1716
                        1012 .L1717:
                        1013 --line533
                        1014 ..lin.C.3A.5C_ECU2.5CECU_Rivian_A1.5CTarget.5Crepo_projects.5CpRealEcu.5CcR_LATEST.5Cmake.5Coutput.5Cobjects.5Cbusmsg.46::
                        1015 .LDWlin46:
00000268 0032           1016 	mov	0,r6
0000026a 0638           1017 	mov	r6,r7
                        1018 	jarl	_BusMsgPutWarning,lp
                        1018 <EXPANSION BEGIN>
                        1018 jarl22 _BusMsgPutWarning , lp 
0000026c bfffb4fe*      1018 <EXPANSION END>
                        1019 --line536
                        1020 ..lin.C.3A.5C_ECU2.5CECU_Rivian_A1.5CTarget.5Crepo_projects.5CpRealEcu.5CcR_LATEST.5Cmake.5Coutput.5Cobjects.5Cbusmsg.47::
                        1021 .LDWlin47:
00000270 0b32           1022 	mov	11,r6
                        1023 	jarl	_SilaPutState,lp
                        1023 <EXPANSION BEGIN>
                        1023 jarl22 _SilaPutState , lp 
00000272 80ff0000*      1023 <EXPANSION END>
00000276 40067f00       1024 	dispose	0,{r29,r31},[lp]
                        1025 .L1716:
                        1026 --line540
                        1027 ..lin.C.3A.5C_ECU2.5CECU_Rivian_A1.5CTarget.5Crepo_projects.5CpRealEcu.5CcR_LATEST.5Cmake.5Coutput.5Cobjects.5Cbusmsg.48::
                        1028 .LDWlin48:
0000027a 3d0600000000*  1029 	mov	_aucWheelPosWarn,r29
00000280 9d970100       1030 	ld.bu	0[r29],r18
00000284 0032           1031 	mov	0,r6
00000286 d2060100       1032 	andi	1,r18,zero
0000028a 820d*          1033 	be	.L1720
                        1034 --line542
                        1035 ..lin.C.3A.5C_ECU2.5CECU_Rivian_A1.5CTarget.5Crepo_projects.5CpRealEcu.5CcR_LATEST.5Cmake.5Coutput.5Cobjects.5Cbusmsg.49::
                        1036 .LDWlin49:
0000028c 023a           1037 	mov	2,r7
                        1038 	jarl	_BusMsgPutWarning,lp
                        1038 <EXPANSION BEGIN>
                        1038 jarl22 _BusMsgPutWarning , lp 
0000028e bfff92fe*      1038 <EXPANSION END>
                        1039 --line545
                        1040 ..lin.C.3A.5C_ECU2.5CECU_Rivian_A1.5CTarget.5Crepo_projects.5CpRealEcu.5CcR_LATEST.5Cmake.5Coutput.5Cobjects.5Cbusmsg.50::
                        1041 .LDWlin50:
00000292 0a32           1042 	mov	10,r6
                        1043 	jarl	_SilaPutState,lp
                        1043 <EXPANSION BEGIN>
                        1043 jarl22 _SilaPutState , lp 
00000294 80ff0000*      1043 <EXPANSION END>
00000298 f515*          1044 	br	.L1722
                        1045 .L1720:
                        1046 --line549
                        1047 ..lin.C.3A.5C_ECU2.5CECU_Rivian_A1.5CTarget.5Crepo_projects.5CpRealEcu.5CcR_LATEST.5Cmake.5Coutput.5Cobjects.5Cbusmsg.51::
                        1048 .LDWlin51:

                                                                      Page 19
                                                              C:\Users\nhuliyap\AppData\Local\Temp\gh_0000en81.s
0000029a d2060800       1049 	andi	8,r18,zero
0000029e 820d*          1050 	be	.L1723
                        1051 --line551
                        1052 ..lin.C.3A.5C_ECU2.5CECU_Rivian_A1.5CTarget.5Crepo_projects.5CpRealEcu.5CcR_LATEST.5Cmake.5Coutput.5Cobjects.5Cbusmsg.52::
                        1053 .LDWlin52:
000002a0 043a           1054 	mov	4,r7
                        1055 	jarl	_BusMsgPutWarning,lp
                        1055 <EXPANSION BEGIN>
                        1055 jarl22 _BusMsgPutWarning , lp 
000002a2 bfff7efe*      1055 <EXPANSION END>
                        1056 --line554
                        1057 ..lin.C.3A.5C_ECU2.5CECU_Rivian_A1.5CTarget.5Crepo_projects.5CpRealEcu.5CcR_LATEST.5Cmake.5Coutput.5Cobjects.5Cbusmsg.53::
                        1058 .LDWlin53:
000002a6 0a32           1059 	mov	10,r6
                        1060 	jarl	_SilaPutState,lp
                        1060 <EXPANSION BEGIN>
                        1060 jarl22 _SilaPutState , lp 
000002a8 80ff0000*      1060 <EXPANSION END>
000002ac d50d*          1061 	br	.L1722
                        1062 .L1723:
                        1063 --line558
                        1064 ..lin.C.3A.5C_ECU2.5CECU_Rivian_A1.5CTarget.5Crepo_projects.5CpRealEcu.5CcR_LATEST.5Cmake.5Coutput.5Cobjects.5Cbusmsg.54::
                        1065 .LDWlin54:
000002ae 8892           1066 	shr	8,r18
000002b0 890d*          1067 	bnl	.L1726
                        1068 --line560
                        1069 ..lin.C.3A.5C_ECU2.5CECU_Rivian_A1.5CTarget.5Crepo_projects.5CpRealEcu.5CcR_LATEST.5Cmake.5Coutput.5Cobjects.5Cbusmsg.55::
                        1070 .LDWlin55:
000002b2 033a           1071 	mov	3,r7
                        1072 	jarl	_BusMsgPutWarning,lp
                        1072 <EXPANSION BEGIN>
                        1072 jarl22 _BusMsgPutWarning , lp 
000002b4 bfff6cfe*      1072 <EXPANSION END>
                        1073 --line563
                        1074 ..lin.C.3A.5C_ECU2.5CECU_Rivian_A1.5CTarget.5Crepo_projects.5CpRealEcu.5CcR_LATEST.5Cmake.5Coutput.5Cobjects.5Cbusmsg.56::
                        1075 .LDWlin56:
000002b8 0a32           1076 	mov	10,r6
                        1077 	jarl	_SilaPutState,lp
                        1077 <EXPANSION BEGIN>
                        1077 jarl22 _SilaPutState , lp 
000002ba 80ff0000*      1077 <EXPANSION END>
000002be c505*          1078 	br	.L1722
                        1079 .L1726:
                        1080 --line567
                        1081 ..lin.C.3A.5C_ECU2.5CECU_Rivian_A1.5CTarget.5Crepo_projects.5CpRealEcu.5CcR_LATEST.5Cmake.5Coutput.5Cobjects.5Cbusmsg.57::
                        1082 .LDWlin57:
000002c0 013a           1083 	mov	1,r7
                        1084 	jarl	_BusMsgPutWarning,lp
                        1084 <EXPANSION BEGIN>
                        1084 jarl22 _BusMsgPutWarning , lp 
000002c2 bfff5efe*      1084 <EXPANSION END>
                        1085 .L1722:
                        1086 --line573
                        1087 ..lin.C.3A.5C_ECU2.5CECU_Rivian_A1.5CTarget.5Crepo_projects.5CpRealEcu.5CcR_LATEST.5Cmake.5Coutput.5Cobjects.5Cbusmsg.58::
                        1088 .LDWlin58:
000002c6 ddf70000       1089 	tst1	6,0[r29]
000002ca 0032           1090 	mov	0,r6
000002cc ea3f0000       1091 	setfne	r7
                        1092 	jarl	_BusMsgPutTemperatureWarning,lp
                        1092 <EXPANSION BEGIN>
                        1092 jarl22 _BusMsgPutTemperatureWarning , lp 

                                                                      Page 20
                                                              C:\Users\nhuliyap\AppData\Local\Temp\gh_0000en81.s
000002d0 bfff18fe*      1092 <EXPANSION END>
                        1093 --	    .ef
                        1094 .LDW75:
                        1095 --line585
                        1096 ..lin.C.3A.5C_ECU2.5CECU_Rivian_A1.5CTarget.5Crepo_projects.5CpRealEcu.5CcR_LATEST.5Cmake.5Coutput.5Cobjects.5Cbusmsg.59::
                        1097 .LDWlin59:
000002d4 40067f00       1098 	dispose	0,{r29,r31},[lp]
                        1099 ___ghs_eofn_BusMsgCheckWarningsFrontLeft:
                        1100 	.type	_BusMsgCheckWarningsFrontLeft,@function
                        1101 	.size	_BusMsgCheckWarningsFrontLeft,.-_BusMsgCheckWarningsFrontLeft
                        1102 	.type	_BusMsgCheckWarningsFrontLeft..C.3A.5C_ECU2.5CECU_Rivian_A1.5CTarget.5Crepo_projects.5CpRealEcu.5CcR_LATEST.5Cmake.5Coutput.5Cobjects.5Cbusmsg.,@function
                        1103 	.size	_BusMsgCheckWarningsFrontLeft..C.3A.5C_ECU2.5CECU_Rivian_A1.5CTarget.5Crepo_projects.5CpRealEcu.5CcR_LATEST.5Cmake.5Coutput.5Cobjects.5Cbusmsg.,.-_BusMsgCheckWarningsFrontLeft..C.3A.5C_ECU2.5CECU_Rivian_A1.5CTarget.5Crepo_projects.5CpRealEcu.5CcR_LATEST.5Cmake.5Coutput.5Cobjects.5Cbusmsg.
                        1104 	.align	2
                        1105 
                        1106 	.section ".bss","awb"
                        1107 .L1821:
                        1108 	.type	.L1821,@object
                        1109 	.size	.L1821,0
                        1110 	.data
                        1111 	.text
                        1112 	.align	2
                        1113 	.align	2
                        1114 ..gh.f.f.1.e.24:
                        1115 	.type	..gh.f.f.1.e.24,@object
                        1116 	.size	..gh.f.f.1.e.24,0
                        1117 	.global	_BusMsgCheckWarningsFrontRight..C.3A.5C_ECU2.5CECU_Rivian_A1.5CTarget.5Crepo_projects.5CpRealEcu.5CcR_LATEST.5Cmake.5Coutput.5Cobjects.5Cbusmsg.
                        1118 _BusMsgCheckWarningsFrontRight..C.3A.5C_ECU2.5CECU_Rivian_A1.5CTarget.5Crepo_projects.5CpRealEcu.5CcR_LATEST.5Cmake.5Coutput.5Cobjects.5Cbusmsg.:
                        1119 _BusMsgCheckWarningsFrontRight:
000002d8 80076100       1120 	prepare	{r29,r31},0
                        1121 --	    .bf
                        1122 .LDW85:
000002dc 0132           1123 	mov	1,r6
                        1124 	jarl	_GETbNoWarnPartSurv,lp
                        1124 <EXPANSION BEGIN>
                        1124 jarl22 _GETbNoWarnPartSurv , lp 
000002de bfffe2fe*      1124 <EXPANSION END>
000002e2 6152           1125 	cmp	1,r10
000002e4 e205*          1126 	be	.L1948
000002e6 0032           1127 	mov	0,r6
                        1128 	jarl	_BusMsgGetTextflag,lp
                        1128 <EXPANSION BEGIN>
                        1128 jarl22 _BusMsgGetTextflag , lp 
000002e8 bfffc2fe*      1128 <EXPANSION END>
000002ec 6152           1129 	cmp	1,r10
000002ee aa0d*          1130 	bne	.L1947
                        1131 .L1948:
                        1132 --line591
                        1133 ..lin.C.3A.5C_ECU2.5CECU_Rivian_A1.5CTarget.5Crepo_projects.5CpRealEcu.5CcR_LATEST.5Cmake.5Coutput.5Cobjects.5Cbusmsg.60::
                        1134 .LDWlin60:
000002f0 0a30           1135 	mov	r10,r6
000002f2 003a           1136 	mov	0,r7
                        1137 	jarl	_BusMsgPutWarning,lp
                        1137 <EXPANSION BEGIN>
                        1137 jarl22 _BusMsgPutWarning , lp 
000002f4 bfff2cfe*      1137 <EXPANSION END>
                        1138 --line594
                        1139 ..lin.C.3A.5C_ECU2.5CECU_Rivian_A1.5CTarget.5Crepo_projects.5CpRealEcu.5CcR_LATEST.5Cmake.5Coutput.5Cobjects.5Cbusmsg.61::
                        1140 .LDWlin61:
000002f8 0b32           1141 	mov	11,r6
                        1142 	jarl	_SilaPutState,lp
                        1142 <EXPANSION BEGIN>

                                                                      Page 21
                                                              C:\Users\nhuliyap\AppData\Local\Temp\gh_0000en81.s
                        1142 jarl22 _SilaPutState , lp 
000002fa 80ff0000*      1142 <EXPANSION END>
000002fe 40067f00       1143 	dispose	0,{r29,r31},[lp]
                        1144 .L1947:
                        1145 --line598
                        1146 ..lin.C.3A.5C_ECU2.5CECU_Rivian_A1.5CTarget.5Crepo_projects.5CpRealEcu.5CcR_LATEST.5Cmake.5Coutput.5Cobjects.5Cbusmsg.62::
                        1147 .LDWlin62:
00000302 3d0600000000*  1148 	mov	_aucWheelPosWarn+1,r29
00000308 9d970100       1149 	ld.bu	0[r29],r18
0000030c 0132           1150 	mov	1,r6
0000030e d2060100       1151 	andi	1,r18,zero
00000312 820d*          1152 	be	.L1951
                        1153 --line600
                        1154 ..lin.C.3A.5C_ECU2.5CECU_Rivian_A1.5CTarget.5Crepo_projects.5CpRealEcu.5CcR_LATEST.5Cmake.5Coutput.5Cobjects.5Cbusmsg.63::
                        1155 .LDWlin63:
00000314 023a           1156 	mov	2,r7
                        1157 	jarl	_BusMsgPutWarning,lp
                        1157 <EXPANSION BEGIN>
                        1157 jarl22 _BusMsgPutWarning , lp 
00000316 bfff0afe*      1157 <EXPANSION END>
                        1158 --line603
                        1159 ..lin.C.3A.5C_ECU2.5CECU_Rivian_A1.5CTarget.5Crepo_projects.5CpRealEcu.5CcR_LATEST.5Cmake.5Coutput.5Cobjects.5Cbusmsg.64::
                        1160 .LDWlin64:
0000031a 0a32           1161 	mov	10,r6
                        1162 	jarl	_SilaPutState,lp
                        1162 <EXPANSION BEGIN>
                        1162 jarl22 _SilaPutState , lp 
0000031c 80ff0000*      1162 <EXPANSION END>
00000320 f515*          1163 	br	.L1953
                        1164 .L1951:
                        1165 --line607
                        1166 ..lin.C.3A.5C_ECU2.5CECU_Rivian_A1.5CTarget.5Crepo_projects.5CpRealEcu.5CcR_LATEST.5Cmake.5Coutput.5Cobjects.5Cbusmsg.65::
                        1167 .LDWlin65:
00000322 d2060800       1168 	andi	8,r18,zero
00000326 820d*          1169 	be	.L1954
                        1170 --line609
                        1171 ..lin.C.3A.5C_ECU2.5CECU_Rivian_A1.5CTarget.5Crepo_projects.5CpRealEcu.5CcR_LATEST.5Cmake.5Coutput.5Cobjects.5Cbusmsg.66::
                        1172 .LDWlin66:
00000328 043a           1173 	mov	4,r7
                        1174 	jarl	_BusMsgPutWarning,lp
                        1174 <EXPANSION BEGIN>
                        1174 jarl22 _BusMsgPutWarning , lp 
0000032a bffff6fd*      1174 <EXPANSION END>
                        1175 --line612
                        1176 ..lin.C.3A.5C_ECU2.5CECU_Rivian_A1.5CTarget.5Crepo_projects.5CpRealEcu.5CcR_LATEST.5Cmake.5Coutput.5Cobjects.5Cbusmsg.67::
                        1177 .LDWlin67:
0000032e 0a32           1178 	mov	10,r6
                        1179 	jarl	_SilaPutState,lp
                        1179 <EXPANSION BEGIN>
                        1179 jarl22 _SilaPutState , lp 
00000330 80ff0000*      1179 <EXPANSION END>
00000334 d50d*          1180 	br	.L1953
                        1181 .L1954:
                        1182 --line616
                        1183 ..lin.C.3A.5C_ECU2.5CECU_Rivian_A1.5CTarget.5Crepo_projects.5CpRealEcu.5CcR_LATEST.5Cmake.5Coutput.5Cobjects.5Cbusmsg.68::
                        1184 .LDWlin68:
00000336 8892           1185 	shr	8,r18
00000338 890d*          1186 	bnl	.L1957
                        1187 --line618
                        1188 ..lin.C.3A.5C_ECU2.5CECU_Rivian_A1.5CTarget.5Crepo_projects.5CpRealEcu.5CcR_LATEST.5Cmake.5Coutput.5Cobjects.5Cbusmsg.69::
                        1189 .LDWlin69:

                                                                      Page 22
                                                              C:\Users\nhuliyap\AppData\Local\Temp\gh_0000en81.s
0000033a 033a           1190 	mov	3,r7
                        1191 	jarl	_BusMsgPutWarning,lp
                        1191 <EXPANSION BEGIN>
                        1191 jarl22 _BusMsgPutWarning , lp 
0000033c bfffe4fd*      1191 <EXPANSION END>
                        1192 --line621
                        1193 ..lin.C.3A.5C_ECU2.5CECU_Rivian_A1.5CTarget.5Crepo_projects.5CpRealEcu.5CcR_LATEST.5Cmake.5Coutput.5Cobjects.5Cbusmsg.70::
                        1194 .LDWlin70:
00000340 0a32           1195 	mov	10,r6
                        1196 	jarl	_SilaPutState,lp
                        1196 <EXPANSION BEGIN>
                        1196 jarl22 _SilaPutState , lp 
00000342 80ff0000*      1196 <EXPANSION END>
00000346 c505*          1197 	br	.L1953
                        1198 .L1957:
                        1199 --line625
                        1200 ..lin.C.3A.5C_ECU2.5CECU_Rivian_A1.5CTarget.5Crepo_projects.5CpRealEcu.5CcR_LATEST.5Cmake.5Coutput.5Cobjects.5Cbusmsg.71::
                        1201 .LDWlin71:
00000348 0638           1202 	mov	r6,r7
                        1203 	jarl	_BusMsgPutWarning,lp
                        1203 <EXPANSION BEGIN>
                        1203 jarl22 _BusMsgPutWarning , lp 
0000034a bfffd6fd*      1203 <EXPANSION END>
                        1204 .L1953:
                        1205 --line631
                        1206 ..lin.C.3A.5C_ECU2.5CECU_Rivian_A1.5CTarget.5Crepo_projects.5CpRealEcu.5CcR_LATEST.5Cmake.5Coutput.5Cobjects.5Cbusmsg.72::
                        1207 .LDWlin72:
0000034e 9d970100       1208 	ld.bu	0[r29],r18
00000352 0132           1209 	mov	1,r6
00000354 d29e4000       1210 	andi	64,r18,r19
00000358 e19f143b       1211 	cmovne	1,r19,r7
                        1212 	jarl	_BusMsgPutTemperatureWarning,lp
                        1212 <EXPANSION BEGIN>
                        1212 jarl22 _BusMsgPutTemperatureWarning , lp 
0000035c bfff8cfd*      1212 <EXPANSION END>
                        1213 --	    .ef
                        1214 .LDW95:
                        1215 --line643
                        1216 ..lin.C.3A.5C_ECU2.5CECU_Rivian_A1.5CTarget.5Crepo_projects.5CpRealEcu.5CcR_LATEST.5Cmake.5Coutput.5Cobjects.5Cbusmsg.73::
                        1217 .LDWlin73:
00000360 40067f00       1218 	dispose	0,{r29,r31},[lp]
                        1219 ___ghs_eofn_BusMsgCheckWarningsFrontRight:
                        1220 	.type	_BusMsgCheckWarningsFrontRight,@function
                        1221 	.size	_BusMsgCheckWarningsFrontRight,.-_BusMsgCheckWarningsFrontRight
                        1222 	.type	_BusMsgCheckWarningsFrontRight..C.3A.5C_ECU2.5CECU_Rivian_A1.5CTarget.5Crepo_projects.5CpRealEcu.5CcR_LATEST.5Cmake.5Coutput.5Cobjects.5Cbusmsg.,@function
                        1223 	.size	_BusMsgCheckWarningsFrontRight..C.3A.5C_ECU2.5CECU_Rivian_A1.5CTarget.5Crepo_projects.5CpRealEcu.5CcR_LATEST.5Cmake.5Coutput.5Cobjects.5Cbusmsg.,.-_BusMsgCheckWarningsFrontRight..C.3A.5C_ECU2.5CECU_Rivian_A1.5CTarget.5Crepo_projects.5CpRealEcu.5CcR_LATEST.5Cmake.5Coutput.5Cobjects.5Cbusmsg.
                        1224 	.align	2
                        1225 
                        1226 	.section ".bss","awb"
                        1227 .L2045:
                        1228 	.type	.L2045,@object
                        1229 	.size	.L2045,0
                        1230 	.data
                        1231 	.text
                        1232 	.align	2
                        1233 	.align	2
                        1234 ..gh.f.f.1.e.25:
                        1235 	.type	..gh.f.f.1.e.25,@object
                        1236 	.size	..gh.f.f.1.e.25,0
                        1237 	.global	_BusMsgCheckWarningsRearLeft..C.3A.5C_ECU2.5CECU_Rivian_A1.5CTarget.5Crepo_projects.5CpRealEcu.5CcR_LATEST.5Cmake.5Coutput.5Cobjects.5Cbusmsg.
                        1238 _BusMsgCheckWarningsRearLeft..C.3A.5C_ECU2.5CECU_Rivian_A1.5CTarget.5Crepo_projects.5CpRealEcu.5CcR_LATEST.5Cmake.5Coutput.5Cobjects.5Cbusmsg.:

                                                                      Page 23
                                                              C:\Users\nhuliyap\AppData\Local\Temp\gh_0000en81.s
                        1239 _BusMsgCheckWarningsRearLeft:
00000364 80076100       1240 	prepare	{r29,r31},0
                        1241 --	    .bf
                        1242 .LDW06:
00000368 0232           1243 	mov	2,r6
                        1244 	jarl	_GETbNoWarnPartSurv,lp
                        1244 <EXPANSION BEGIN>
                        1244 jarl22 _GETbNoWarnPartSurv , lp 
0000036a bfff56fe*      1244 <EXPANSION END>
0000036e 6152           1245 	cmp	1,r10
00000370 e205*          1246 	be	.L2172
00000372 0032           1247 	mov	0,r6
                        1248 	jarl	_BusMsgGetTextflag,lp
                        1248 <EXPANSION BEGIN>
                        1248 jarl22 _BusMsgGetTextflag , lp 
00000374 bfff36fe*      1248 <EXPANSION END>
00000378 6152           1249 	cmp	1,r10
0000037a aa0d*          1250 	bne	.L2171
                        1251 .L2172:
                        1252 --line649
                        1253 ..lin.C.3A.5C_ECU2.5CECU_Rivian_A1.5CTarget.5Crepo_projects.5CpRealEcu.5CcR_LATEST.5Cmake.5Coutput.5Cobjects.5Cbusmsg.74::
                        1254 .LDWlin74:
0000037c 0232           1255 	mov	2,r6
0000037e 003a           1256 	mov	0,r7
                        1257 	jarl	_BusMsgPutWarning,lp
                        1257 <EXPANSION BEGIN>
                        1257 jarl22 _BusMsgPutWarning , lp 
00000380 bfffa0fd*      1257 <EXPANSION END>
                        1258 --line652
                        1259 ..lin.C.3A.5C_ECU2.5CECU_Rivian_A1.5CTarget.5Crepo_projects.5CpRealEcu.5CcR_LATEST.5Cmake.5Coutput.5Cobjects.5Cbusmsg.75::
                        1260 .LDWlin75:
00000384 0b32           1261 	mov	11,r6
                        1262 	jarl	_SilaPutState,lp
                        1262 <EXPANSION BEGIN>
                        1262 jarl22 _SilaPutState , lp 
00000386 80ff0000*      1262 <EXPANSION END>
0000038a 40067f00       1263 	dispose	0,{r29,r31},[lp]
                        1264 .L2171:
                        1265 --line656
                        1266 ..lin.C.3A.5C_ECU2.5CECU_Rivian_A1.5CTarget.5Crepo_projects.5CpRealEcu.5CcR_LATEST.5Cmake.5Coutput.5Cobjects.5Cbusmsg.76::
                        1267 .LDWlin76:
0000038e 3d0600000000*  1268 	mov	_aucWheelPosWarn+2,r29
00000394 9d970100       1269 	ld.bu	0[r29],r18
00000398 0232           1270 	mov	2,r6
0000039a d2060100       1271 	andi	1,r18,zero
0000039e 820d*          1272 	be	.L2175
                        1273 --line658
                        1274 ..lin.C.3A.5C_ECU2.5CECU_Rivian_A1.5CTarget.5Crepo_projects.5CpRealEcu.5CcR_LATEST.5Cmake.5Coutput.5Cobjects.5Cbusmsg.77::
                        1275 .LDWlin77:
000003a0 0638           1276 	mov	r6,r7
                        1277 	jarl	_BusMsgPutWarning,lp
                        1277 <EXPANSION BEGIN>
                        1277 jarl22 _BusMsgPutWarning , lp 
000003a2 bfff7efd*      1277 <EXPANSION END>
                        1278 --line661
                        1279 ..lin.C.3A.5C_ECU2.5CECU_Rivian_A1.5CTarget.5Crepo_projects.5CpRealEcu.5CcR_LATEST.5Cmake.5Coutput.5Cobjects.5Cbusmsg.78::
                        1280 .LDWlin78:
000003a6 0a32           1281 	mov	10,r6
                        1282 	jarl	_SilaPutState,lp
                        1282 <EXPANSION BEGIN>
                        1282 jarl22 _SilaPutState , lp 

                                                                      Page 24
                                                              C:\Users\nhuliyap\AppData\Local\Temp\gh_0000en81.s
000003a8 80ff0000*      1282 <EXPANSION END>
000003ac f515*          1283 	br	.L2177
                        1284 .L2175:
                        1285 --line665
                        1286 ..lin.C.3A.5C_ECU2.5CECU_Rivian_A1.5CTarget.5Crepo_projects.5CpRealEcu.5CcR_LATEST.5Cmake.5Coutput.5Cobjects.5Cbusmsg.79::
                        1287 .LDWlin79:
000003ae d2060800       1288 	andi	8,r18,zero
000003b2 820d*          1289 	be	.L2178
                        1290 --line667
                        1291 ..lin.C.3A.5C_ECU2.5CECU_Rivian_A1.5CTarget.5Crepo_projects.5CpRealEcu.5CcR_LATEST.5Cmake.5Coutput.5Cobjects.5Cbusmsg.80::
                        1292 .LDWlin80:
000003b4 043a           1293 	mov	4,r7
                        1294 	jarl	_BusMsgPutWarning,lp
                        1294 <EXPANSION BEGIN>
                        1294 jarl22 _BusMsgPutWarning , lp 
000003b6 bfff6afd*      1294 <EXPANSION END>
                        1295 --line670
                        1296 ..lin.C.3A.5C_ECU2.5CECU_Rivian_A1.5CTarget.5Crepo_projects.5CpRealEcu.5CcR_LATEST.5Cmake.5Coutput.5Cobjects.5Cbusmsg.81::
                        1297 .LDWlin81:
000003ba 0a32           1298 	mov	10,r6
                        1299 	jarl	_SilaPutState,lp
                        1299 <EXPANSION BEGIN>
                        1299 jarl22 _SilaPutState , lp 
000003bc 80ff0000*      1299 <EXPANSION END>
000003c0 d50d*          1300 	br	.L2177
                        1301 .L2178:
                        1302 --line674
                        1303 ..lin.C.3A.5C_ECU2.5CECU_Rivian_A1.5CTarget.5Crepo_projects.5CpRealEcu.5CcR_LATEST.5Cmake.5Coutput.5Cobjects.5Cbusmsg.82::
                        1304 .LDWlin82:
000003c2 8892           1305 	shr	8,r18
000003c4 890d*          1306 	bnl	.L2181
                        1307 --line676
                        1308 ..lin.C.3A.5C_ECU2.5CECU_Rivian_A1.5CTarget.5Crepo_projects.5CpRealEcu.5CcR_LATEST.5Cmake.5Coutput.5Cobjects.5Cbusmsg.83::
                        1309 .LDWlin83:
000003c6 033a           1310 	mov	3,r7
                        1311 	jarl	_BusMsgPutWarning,lp
                        1311 <EXPANSION BEGIN>
                        1311 jarl22 _BusMsgPutWarning , lp 
000003c8 bfff58fd*      1311 <EXPANSION END>
                        1312 --line679
                        1313 ..lin.C.3A.5C_ECU2.5CECU_Rivian_A1.5CTarget.5Crepo_projects.5CpRealEcu.5CcR_LATEST.5Cmake.5Coutput.5Cobjects.5Cbusmsg.84::
                        1314 .LDWlin84:
000003cc 0a32           1315 	mov	10,r6
                        1316 	jarl	_SilaPutState,lp
                        1316 <EXPANSION BEGIN>
                        1316 jarl22 _SilaPutState , lp 
000003ce 80ff0000*      1316 <EXPANSION END>
000003d2 c505*          1317 	br	.L2177
                        1318 .L2181:
                        1319 --line683
                        1320 ..lin.C.3A.5C_ECU2.5CECU_Rivian_A1.5CTarget.5Crepo_projects.5CpRealEcu.5CcR_LATEST.5Cmake.5Coutput.5Cobjects.5Cbusmsg.85::
                        1321 .LDWlin85:
000003d4 013a           1322 	mov	1,r7
                        1323 	jarl	_BusMsgPutWarning,lp
                        1323 <EXPANSION BEGIN>
                        1323 jarl22 _BusMsgPutWarning , lp 
000003d6 bfff4afd*      1323 <EXPANSION END>
                        1324 .L2177:
                        1325 --line689
                        1326 ..lin.C.3A.5C_ECU2.5CECU_Rivian_A1.5CTarget.5Crepo_projects.5CpRealEcu.5CcR_LATEST.5Cmake.5Coutput.5Cobjects.5Cbusmsg.86::
                        1327 .LDWlin86:

                                                                      Page 25
                                                              C:\Users\nhuliyap\AppData\Local\Temp\gh_0000en81.s
000003da 9d970100       1328 	ld.bu	0[r29],r18
000003de 0232           1329 	mov	2,r6
000003e0 d29e4000       1330 	andi	64,r18,r19
000003e4 e19f143b       1331 	cmovne	1,r19,r7
                        1332 	jarl	_BusMsgPutTemperatureWarning,lp
                        1332 <EXPANSION BEGIN>
                        1332 jarl22 _BusMsgPutTemperatureWarning , lp 
000003e8 bfff00fd*      1332 <EXPANSION END>
                        1333 --	    .ef
                        1334 .LDW16:
                        1335 --line701
                        1336 ..lin.C.3A.5C_ECU2.5CECU_Rivian_A1.5CTarget.5Crepo_projects.5CpRealEcu.5CcR_LATEST.5Cmake.5Coutput.5Cobjects.5Cbusmsg.87::
                        1337 .LDWlin87:
000003ec 40067f00       1338 	dispose	0,{r29,r31},[lp]
                        1339 ___ghs_eofn_BusMsgCheckWarningsRearLeft:
                        1340 	.type	_BusMsgCheckWarningsRearLeft,@function
                        1341 	.size	_BusMsgCheckWarningsRearLeft,.-_BusMsgCheckWarningsRearLeft
                        1342 	.type	_BusMsgCheckWarningsRearLeft..C.3A.5C_ECU2.5CECU_Rivian_A1.5CTarget.5Crepo_projects.5CpRealEcu.5CcR_LATEST.5Cmake.5Coutput.5Cobjects.5Cbusmsg.,@function
                        1343 	.size	_BusMsgCheckWarningsRearLeft..C.3A.5C_ECU2.5CECU_Rivian_A1.5CTarget.5Crepo_projects.5CpRealEcu.5CcR_LATEST.5Cmake.5Coutput.5Cobjects.5Cbusmsg.,.-_BusMsgCheckWarningsRearLeft..C.3A.5C_ECU2.5CECU_Rivian_A1.5CTarget.5Crepo_projects.5CpRealEcu.5CcR_LATEST.5Cmake.5Coutput.5Cobjects.5Cbusmsg.
                        1344 	.align	2
                        1345 
                        1346 	.section ".bss","awb"
                        1347 .L2269:
                        1348 	.type	.L2269,@object
                        1349 	.size	.L2269,0
                        1350 	.data
                        1351 	.text
                        1352 	.align	2
                        1353 	.align	2
                        1354 ..gh.f.f.1.e.26:
                        1355 	.type	..gh.f.f.1.e.26,@object
                        1356 	.size	..gh.f.f.1.e.26,0
                        1357 	.global	_BusMsgCheckWarningsRearRight..C.3A.5C_ECU2.5CECU_Rivian_A1.5CTarget.5Crepo_projects.5CpRealEcu.5CcR_LATEST.5Cmake.5Coutput.5Cobjects.5Cbusmsg.
                        1358 _BusMsgCheckWarningsRearRight..C.3A.5C_ECU2.5CECU_Rivian_A1.5CTarget.5Crepo_projects.5CpRealEcu.5CcR_LATEST.5Cmake.5Coutput.5Cobjects.5Cbusmsg.:
                        1359 _BusMsgCheckWarningsRearRight:
000003f0 80076100       1360 	prepare	{r29,r31},0
                        1361 --	    .bf
                        1362 .LDW26:
000003f4 0332           1363 	mov	3,r6
                        1364 	jarl	_GETbNoWarnPartSurv,lp
                        1364 <EXPANSION BEGIN>
                        1364 jarl22 _GETbNoWarnPartSurv , lp 
000003f6 bfffcafd*      1364 <EXPANSION END>
000003fa 6152           1365 	cmp	1,r10
000003fc e205*          1366 	be	.L2396
000003fe 0032           1367 	mov	0,r6
                        1368 	jarl	_BusMsgGetTextflag,lp
                        1368 <EXPANSION BEGIN>
                        1368 jarl22 _BusMsgGetTextflag , lp 
00000400 bfffaafd*      1368 <EXPANSION END>
00000404 6152           1369 	cmp	1,r10
00000406 aa0d*          1370 	bne	.L2395
                        1371 .L2396:
                        1372 --line707
                        1373 ..lin.C.3A.5C_ECU2.5CECU_Rivian_A1.5CTarget.5Crepo_projects.5CpRealEcu.5CcR_LATEST.5Cmake.5Coutput.5Cobjects.5Cbusmsg.88::
                        1374 .LDWlin88:
00000408 0332           1375 	mov	3,r6
0000040a 003a           1376 	mov	0,r7
                        1377 	jarl	_BusMsgPutWarning,lp
                        1377 <EXPANSION BEGIN>
                        1377 jarl22 _BusMsgPutWarning , lp 

                                                                      Page 26
                                                              C:\Users\nhuliyap\AppData\Local\Temp\gh_0000en81.s
0000040c bfff14fd*      1377 <EXPANSION END>
                        1378 --line710
                        1379 ..lin.C.3A.5C_ECU2.5CECU_Rivian_A1.5CTarget.5Crepo_projects.5CpRealEcu.5CcR_LATEST.5Cmake.5Coutput.5Cobjects.5Cbusmsg.89::
                        1380 .LDWlin89:
00000410 0b32           1381 	mov	11,r6
                        1382 	jarl	_SilaPutState,lp
                        1382 <EXPANSION BEGIN>
                        1382 jarl22 _SilaPutState , lp 
00000412 80ff0000*      1382 <EXPANSION END>
00000416 40067f00       1383 	dispose	0,{r29,r31},[lp]
                        1384 .L2395:
                        1385 --line714
                        1386 ..lin.C.3A.5C_ECU2.5CECU_Rivian_A1.5CTarget.5Crepo_projects.5CpRealEcu.5CcR_LATEST.5Cmake.5Coutput.5Cobjects.5Cbusmsg.90::
                        1387 .LDWlin90:
0000041a 3d0600000000*  1388 	mov	_aucWheelPosWarn+3,r29
00000420 9d970100       1389 	ld.bu	0[r29],r18
00000424 0332           1390 	mov	3,r6
00000426 d2060100       1391 	andi	1,r18,zero
0000042a 820d*          1392 	be	.L2399
                        1393 --line716
                        1394 ..lin.C.3A.5C_ECU2.5CECU_Rivian_A1.5CTarget.5Crepo_projects.5CpRealEcu.5CcR_LATEST.5Cmake.5Coutput.5Cobjects.5Cbusmsg.91::
                        1395 .LDWlin91:
0000042c 023a           1396 	mov	2,r7
                        1397 	jarl	_BusMsgPutWarning,lp
                        1397 <EXPANSION BEGIN>
                        1397 jarl22 _BusMsgPutWarning , lp 
0000042e bffff2fc*      1397 <EXPANSION END>
                        1398 --line719
                        1399 ..lin.C.3A.5C_ECU2.5CECU_Rivian_A1.5CTarget.5Crepo_projects.5CpRealEcu.5CcR_LATEST.5Cmake.5Coutput.5Cobjects.5Cbusmsg.92::
                        1400 .LDWlin92:
00000432 0a32           1401 	mov	10,r6
                        1402 	jarl	_SilaPutState,lp
                        1402 <EXPANSION BEGIN>
                        1402 jarl22 _SilaPutState , lp 
00000434 80ff0000*      1402 <EXPANSION END>
00000438 f515*          1403 	br	.L2401
                        1404 .L2399:
                        1405 --line723
                        1406 ..lin.C.3A.5C_ECU2.5CECU_Rivian_A1.5CTarget.5Crepo_projects.5CpRealEcu.5CcR_LATEST.5Cmake.5Coutput.5Cobjects.5Cbusmsg.93::
                        1407 .LDWlin93:
0000043a d2060800       1408 	andi	8,r18,zero
0000043e 820d*          1409 	be	.L2402
                        1410 --line725
                        1411 ..lin.C.3A.5C_ECU2.5CECU_Rivian_A1.5CTarget.5Crepo_projects.5CpRealEcu.5CcR_LATEST.5Cmake.5Coutput.5Cobjects.5Cbusmsg.94::
                        1412 .LDWlin94:
00000440 043a           1413 	mov	4,r7
                        1414 	jarl	_BusMsgPutWarning,lp
                        1414 <EXPANSION BEGIN>
                        1414 jarl22 _BusMsgPutWarning , lp 
00000442 bfffdefc*      1414 <EXPANSION END>
                        1415 --line728
                        1416 ..lin.C.3A.5C_ECU2.5CECU_Rivian_A1.5CTarget.5Crepo_projects.5CpRealEcu.5CcR_LATEST.5Cmake.5Coutput.5Cobjects.5Cbusmsg.95::
                        1417 .LDWlin95:
00000446 0a32           1418 	mov	10,r6
                        1419 	jarl	_SilaPutState,lp
                        1419 <EXPANSION BEGIN>
                        1419 jarl22 _SilaPutState , lp 
00000448 80ff0000*      1419 <EXPANSION END>
0000044c d50d*          1420 	br	.L2401
                        1421 .L2402:
                        1422 --line732

                                                                      Page 27
                                                              C:\Users\nhuliyap\AppData\Local\Temp\gh_0000en81.s
                        1423 ..lin.C.3A.5C_ECU2.5CECU_Rivian_A1.5CTarget.5Crepo_projects.5CpRealEcu.5CcR_LATEST.5Cmake.5Coutput.5Cobjects.5Cbusmsg.96::
                        1424 .LDWlin96:
0000044e 8892           1425 	shr	8,r18
00000450 890d*          1426 	bnl	.L2405
                        1427 --line734
                        1428 ..lin.C.3A.5C_ECU2.5CECU_Rivian_A1.5CTarget.5Crepo_projects.5CpRealEcu.5CcR_LATEST.5Cmake.5Coutput.5Cobjects.5Cbusmsg.97::
                        1429 .LDWlin97:
00000452 0638           1430 	mov	r6,r7
                        1431 	jarl	_BusMsgPutWarning,lp
                        1431 <EXPANSION BEGIN>
                        1431 jarl22 _BusMsgPutWarning , lp 
00000454 bfffccfc*      1431 <EXPANSION END>
                        1432 --line737
                        1433 ..lin.C.3A.5C_ECU2.5CECU_Rivian_A1.5CTarget.5Crepo_projects.5CpRealEcu.5CcR_LATEST.5Cmake.5Coutput.5Cobjects.5Cbusmsg.98::
                        1434 .LDWlin98:
00000458 0a32           1435 	mov	10,r6
                        1436 	jarl	_SilaPutState,lp
                        1436 <EXPANSION BEGIN>
                        1436 jarl22 _SilaPutState , lp 
0000045a 80ff0000*      1436 <EXPANSION END>
0000045e c505*          1437 	br	.L2401
                        1438 .L2405:
                        1439 --line741
                        1440 ..lin.C.3A.5C_ECU2.5CECU_Rivian_A1.5CTarget.5Crepo_projects.5CpRealEcu.5CcR_LATEST.5Cmake.5Coutput.5Cobjects.5Cbusmsg.99::
                        1441 .LDWlin99:
00000460 013a           1442 	mov	1,r7
                        1443 	jarl	_BusMsgPutWarning,lp
                        1443 <EXPANSION BEGIN>
                        1443 jarl22 _BusMsgPutWarning , lp 
00000462 bfffbefc*      1443 <EXPANSION END>
                        1444 .L2401:
                        1445 --line747
                        1446 ..lin.C.3A.5C_ECU2.5CECU_Rivian_A1.5CTarget.5Crepo_projects.5CpRealEcu.5CcR_LATEST.5Cmake.5Coutput.5Cobjects.5Cbusmsg.100::
                        1447 .LDWlin100:
00000466 9d970100       1448 	ld.bu	0[r29],r18
0000046a 0332           1449 	mov	3,r6
0000046c d29e4000       1450 	andi	64,r18,r19
00000470 e19f143b       1451 	cmovne	1,r19,r7
                        1452 	jarl	_BusMsgPutTemperatureWarning,lp
                        1452 <EXPANSION BEGIN>
                        1452 jarl22 _BusMsgPutTemperatureWarning , lp 
00000474 bfff74fc*      1452 <EXPANSION END>
                        1453 --	    .ef
                        1454 .LDW36:
                        1455 --line759
                        1456 ..lin.C.3A.5C_ECU2.5CECU_Rivian_A1.5CTarget.5Crepo_projects.5CpRealEcu.5CcR_LATEST.5Cmake.5Coutput.5Cobjects.5Cbusmsg.101::
                        1457 .LDWlin101:
00000478 40067f00       1458 	dispose	0,{r29,r31},[lp]
                        1459 ___ghs_eofn_BusMsgCheckWarningsRearRight:
                        1460 	.type	_BusMsgCheckWarningsRearRight,@function
                        1461 	.size	_BusMsgCheckWarningsRearRight,.-_BusMsgCheckWarningsRearRight
                        1462 	.type	_BusMsgCheckWarningsRearRight..C.3A.5C_ECU2.5CECU_Rivian_A1.5CTarget.5Crepo_projects.5CpRealEcu.5CcR_LATEST.5Cmake.5Coutput.5Cobjects.5Cbusmsg.,@function
                        1463 	.size	_BusMsgCheckWarningsRearRight..C.3A.5C_ECU2.5CECU_Rivian_A1.5CTarget.5Crepo_projects.5CpRealEcu.5CcR_LATEST.5Cmake.5Coutput.5Cobjects.5Cbusmsg.,.-_BusMsgCheckWarningsRearRight..C.3A.5C_ECU2.5CECU_Rivian_A1.5CTarget.5Crepo_projects.5CpRealEcu.5CcR_LATEST.5Cmake.5Coutput.5Cobjects.5Cbusmsg.
                        1464 	.align	2
                        1465 
                        1466 	.section ".bss","awb"
                        1467 .L2493:
                        1468 	.type	.L2493,@object
                        1469 	.size	.L2493,0
                        1470 	.data
                        1471 	.text

                                                                      Page 28
                                                              C:\Users\nhuliyap\AppData\Local\Temp\gh_0000en81.s
                        1472 	.align	2
                        1473 	.align	2
                        1474 ..gh.f.f.1.e.27:
                        1475 	.type	..gh.f.f.1.e.27,@object
                        1476 	.size	..gh.f.f.1.e.27,0
                        1477 	.global	_BusMsgCheckWarningsUnknownPos..C.3A.5C_ECU2.5CECU_Rivian_A1.5CTarget.5Crepo_projects.5CpRealEcu.5CcR_LATEST.5Cmake.5Coutput.5Cobjects.5Cbusmsg.
                        1478 _BusMsgCheckWarningsUnknownPos..C.3A.5C_ECU2.5CECU_Rivian_A1.5CTarget.5Crepo_projects.5CpRealEcu.5CcR_LATEST.5Cmake.5Coutput.5Cobjects.5Cbusmsg.:
                        1479 _BusMsgCheckWarningsUnknownPos:
0000047c 80076100       1480 	prepare	{r29,r31},0
                        1481 --	    .bf
                        1482 .LDW46:
00000480 0032           1483 	mov	0,r6
                        1484 	jarl	_BusMsgGetTextflag,lp
                        1484 <EXPANSION BEGIN>
                        1484 jarl22 _BusMsgGetTextflag , lp 
00000482 bfff28fd*      1484 <EXPANSION END>
00000486 0032           1485 	mov	0,r6
00000488 6152           1486 	cmp	1,r10
0000048a aa15*          1487 	bne	.L2619
                        1488 --line764
                        1489 ..lin.C.3A.5C_ECU2.5CECU_Rivian_A1.5CTarget.5Crepo_projects.5CpRealEcu.5CcR_LATEST.5Cmake.5Coutput.5Cobjects.5Cbusmsg.102::
                        1490 .LDWlin102:
0000048c 0638           1491 	mov	r6,r7
                        1492 	jarl	_BusMsgPutWarning,lp
                        1492 <EXPANSION BEGIN>
                        1492 jarl22 _BusMsgPutWarning , lp 
0000048e bfff92fc*      1492 <EXPANSION END>
                        1493 --line767
                        1494 ..lin.C.3A.5C_ECU2.5CECU_Rivian_A1.5CTarget.5Crepo_projects.5CpRealEcu.5CcR_LATEST.5Cmake.5Coutput.5Cobjects.5Cbusmsg.103::
                        1495 .LDWlin103:
00000492 0a30           1496 	mov	r10,r6
                        1497 	jarl	_BusMsgPutWarning,lp
                        1497 <EXPANSION BEGIN>
                        1497 jarl22 _BusMsgPutWarning , lp 
00000494 bfff8cfc*      1497 <EXPANSION END>
                        1498 --line770
                        1499 ..lin.C.3A.5C_ECU2.5CECU_Rivian_A1.5CTarget.5Crepo_projects.5CpRealEcu.5CcR_LATEST.5Cmake.5Coutput.5Cobjects.5Cbusmsg.104::
                        1500 .LDWlin104:
00000498 0232           1501 	mov	2,r6
                        1502 	jarl	_BusMsgPutWarning,lp
                        1502 <EXPANSION BEGIN>
                        1502 jarl22 _BusMsgPutWarning , lp 
0000049a bfff86fc*      1502 <EXPANSION END>
                        1503 --line773
                        1504 ..lin.C.3A.5C_ECU2.5CECU_Rivian_A1.5CTarget.5Crepo_projects.5CpRealEcu.5CcR_LATEST.5Cmake.5Coutput.5Cobjects.5Cbusmsg.105::
                        1505 .LDWlin105:
0000049e 0332           1506 	mov	3,r6
                        1507 	jarl	_BusMsgPutWarning,lp
                        1507 <EXPANSION BEGIN>
                        1507 jarl22 _BusMsgPutWarning , lp 
000004a0 bfff80fc*      1507 <EXPANSION END>
                        1508 --line776
                        1509 ..lin.C.3A.5C_ECU2.5CECU_Rivian_A1.5CTarget.5Crepo_projects.5CpRealEcu.5CcR_LATEST.5Cmake.5Coutput.5Cobjects.5Cbusmsg.106::
                        1510 .LDWlin106:
000004a4 0b32           1511 	mov	11,r6
                        1512 	jarl	_SilaPutState,lp
                        1512 <EXPANSION BEGIN>
                        1512 jarl22 _SilaPutState , lp 
000004a6 80ff0000*      1512 <EXPANSION END>
000004aa 40067f00       1513 	dispose	0,{r29,r31},[lp]
                        1514 .L2619:

                                                                      Page 29
                                                              C:\Users\nhuliyap\AppData\Local\Temp\gh_0000en81.s
                        1515 --line780
                        1516 ..lin.C.3A.5C_ECU2.5CECU_Rivian_A1.5CTarget.5Crepo_projects.5CpRealEcu.5CcR_LATEST.5Cmake.5Coutput.5Cobjects.5Cbusmsg.107::
                        1517 .LDWlin107:
000004ae 3d0600000000*  1518 	mov	_aucWheelPosWarn+4,r29
000004b4 9d970100       1519 	ld.bu	0[r29],r18
000004b8 d2060100       1520 	andi	1,r18,zero
000004bc 9215*          1521 	be	.L2622
                        1522 --line782
                        1523 ..lin.C.3A.5C_ECU2.5CECU_Rivian_A1.5CTarget.5Crepo_projects.5CpRealEcu.5CcR_LATEST.5Cmake.5Coutput.5Cobjects.5Cbusmsg.108::
                        1524 .LDWlin108:
000004be 023a           1525 	mov	2,r7
                        1526 	jarl	_BusMsgPutWarning,lp
                        1526 <EXPANSION BEGIN>
                        1526 jarl22 _BusMsgPutWarning , lp 
000004c0 bfff60fc*      1526 <EXPANSION END>
                        1527 --line785
                        1528 ..lin.C.3A.5C_ECU2.5CECU_Rivian_A1.5CTarget.5Crepo_projects.5CpRealEcu.5CcR_LATEST.5Cmake.5Coutput.5Cobjects.5Cbusmsg.109::
                        1529 .LDWlin109:
000004c4 0132           1530 	mov	1,r6
                        1531 	jarl	_BusMsgPutWarning,lp
                        1531 <EXPANSION BEGIN>
                        1531 jarl22 _BusMsgPutWarning , lp 
000004c6 bfff5afc*      1531 <EXPANSION END>
                        1532 --line788
                        1533 ..lin.C.3A.5C_ECU2.5CECU_Rivian_A1.5CTarget.5Crepo_projects.5CpRealEcu.5CcR_LATEST.5Cmake.5Coutput.5Cobjects.5Cbusmsg.110::
                        1534 .LDWlin110:
000004ca 0730           1535 	mov	r7,r6
                        1536 	jarl	_BusMsgPutWarning,lp
                        1536 <EXPANSION BEGIN>
                        1536 jarl22 _BusMsgPutWarning , lp 
000004cc bfff54fc*      1536 <EXPANSION END>
                        1537 --line791
                        1538 ..lin.C.3A.5C_ECU2.5CECU_Rivian_A1.5CTarget.5Crepo_projects.5CpRealEcu.5CcR_LATEST.5Cmake.5Coutput.5Cobjects.5Cbusmsg.111::
                        1539 .LDWlin111:
000004d0 0332           1540 	mov	3,r6
                        1541 	jarl	_BusMsgPutWarning,lp
                        1541 <EXPANSION BEGIN>
                        1541 jarl22 _BusMsgPutWarning , lp 
000004d2 bfff4efc*      1541 <EXPANSION END>
                        1542 --line794
                        1543 ..lin.C.3A.5C_ECU2.5CECU_Rivian_A1.5CTarget.5Crepo_projects.5CpRealEcu.5CcR_LATEST.5Cmake.5Coutput.5Cobjects.5Cbusmsg.112::
                        1544 .LDWlin112:
000004d6 0a32           1545 	mov	10,r6
                        1546 	jarl	_SilaPutState,lp
                        1546 <EXPANSION BEGIN>
                        1546 jarl22 _SilaPutState , lp 
000004d8 80ff0000*      1546 <EXPANSION END>
000004dc a535*          1547 	br	.L2624
                        1548 .L2622:
                        1549 --line798
                        1550 ..lin.C.3A.5C_ECU2.5CECU_Rivian_A1.5CTarget.5Crepo_projects.5CpRealEcu.5CcR_LATEST.5Cmake.5Coutput.5Cobjects.5Cbusmsg.113::
                        1551 .LDWlin113:
000004de d2060800       1552 	andi	8,r18,zero
000004e2 9215*          1553 	be	.L2625
                        1554 --line800
                        1555 ..lin.C.3A.5C_ECU2.5CECU_Rivian_A1.5CTarget.5Crepo_projects.5CpRealEcu.5CcR_LATEST.5Cmake.5Coutput.5Cobjects.5Cbusmsg.114::
                        1556 .LDWlin114:
000004e4 043a           1557 	mov	4,r7
                        1558 	jarl	_BusMsgPutWarning,lp
                        1558 <EXPANSION BEGIN>
                        1558 jarl22 _BusMsgPutWarning , lp 

                                                                      Page 30
                                                              C:\Users\nhuliyap\AppData\Local\Temp\gh_0000en81.s
000004e6 bfff3afc*      1558 <EXPANSION END>
                        1559 --line803
                        1560 ..lin.C.3A.5C_ECU2.5CECU_Rivian_A1.5CTarget.5Crepo_projects.5CpRealEcu.5CcR_LATEST.5Cmake.5Coutput.5Cobjects.5Cbusmsg.115::
                        1561 .LDWlin115:
000004ea 0132           1562 	mov	1,r6
                        1563 	jarl	_BusMsgPutWarning,lp
                        1563 <EXPANSION BEGIN>
                        1563 jarl22 _BusMsgPutWarning , lp 
000004ec bfff34fc*      1563 <EXPANSION END>
                        1564 --line806
                        1565 ..lin.C.3A.5C_ECU2.5CECU_Rivian_A1.5CTarget.5Crepo_projects.5CpRealEcu.5CcR_LATEST.5Cmake.5Coutput.5Cobjects.5Cbusmsg.116::
                        1566 .LDWlin116:
000004f0 0232           1567 	mov	2,r6
                        1568 	jarl	_BusMsgPutWarning,lp
                        1568 <EXPANSION BEGIN>
                        1568 jarl22 _BusMsgPutWarning , lp 
000004f2 bfff2efc*      1568 <EXPANSION END>
                        1569 --line809
                        1570 ..lin.C.3A.5C_ECU2.5CECU_Rivian_A1.5CTarget.5Crepo_projects.5CpRealEcu.5CcR_LATEST.5Cmake.5Coutput.5Cobjects.5Cbusmsg.117::
                        1571 .LDWlin117:
000004f6 0332           1572 	mov	3,r6
                        1573 	jarl	_BusMsgPutWarning,lp
                        1573 <EXPANSION BEGIN>
                        1573 jarl22 _BusMsgPutWarning , lp 
000004f8 bfff28fc*      1573 <EXPANSION END>
                        1574 --line812
                        1575 ..lin.C.3A.5C_ECU2.5CECU_Rivian_A1.5CTarget.5Crepo_projects.5CpRealEcu.5CcR_LATEST.5Cmake.5Coutput.5Cobjects.5Cbusmsg.118::
                        1576 .LDWlin118:
000004fc 0a32           1577 	mov	10,r6
                        1578 	jarl	_SilaPutState,lp
                        1578 <EXPANSION BEGIN>
                        1578 jarl22 _SilaPutState , lp 
000004fe 80ff0000*      1578 <EXPANSION END>
00000502 f51d*          1579 	br	.L2624
                        1580 .L2625:
                        1581 --line816
                        1582 ..lin.C.3A.5C_ECU2.5CECU_Rivian_A1.5CTarget.5Crepo_projects.5CpRealEcu.5CcR_LATEST.5Cmake.5Coutput.5Cobjects.5Cbusmsg.119::
                        1583 .LDWlin119:
00000504 8892           1584 	shr	8,r18
00000506 9915*          1585 	bnl	.L2628
                        1586 --line818
                        1587 ..lin.C.3A.5C_ECU2.5CECU_Rivian_A1.5CTarget.5Crepo_projects.5CpRealEcu.5CcR_LATEST.5Cmake.5Coutput.5Cobjects.5Cbusmsg.120::
                        1588 .LDWlin120:
00000508 033a           1589 	mov	3,r7
                        1590 	jarl	_BusMsgPutWarning,lp
                        1590 <EXPANSION BEGIN>
                        1590 jarl22 _BusMsgPutWarning , lp 
0000050a bfff16fc*      1590 <EXPANSION END>
                        1591 --line821
                        1592 ..lin.C.3A.5C_ECU2.5CECU_Rivian_A1.5CTarget.5Crepo_projects.5CpRealEcu.5CcR_LATEST.5Cmake.5Coutput.5Cobjects.5Cbusmsg.121::
                        1593 .LDWlin121:
0000050e 0132           1594 	mov	1,r6
                        1595 	jarl	_BusMsgPutWarning,lp
                        1595 <EXPANSION BEGIN>
                        1595 jarl22 _BusMsgPutWarning , lp 
00000510 bfff10fc*      1595 <EXPANSION END>
                        1596 --line824
                        1597 ..lin.C.3A.5C_ECU2.5CECU_Rivian_A1.5CTarget.5Crepo_projects.5CpRealEcu.5CcR_LATEST.5Cmake.5Coutput.5Cobjects.5Cbusmsg.122::
                        1598 .LDWlin122:
00000514 0232           1599 	mov	2,r6
                        1600 	jarl	_BusMsgPutWarning,lp

                                                                      Page 31
                                                              C:\Users\nhuliyap\AppData\Local\Temp\gh_0000en81.s
                        1600 <EXPANSION BEGIN>
                        1600 jarl22 _BusMsgPutWarning , lp 
00000516 bfff0afc*      1600 <EXPANSION END>
                        1601 --line827
                        1602 ..lin.C.3A.5C_ECU2.5CECU_Rivian_A1.5CTarget.5Crepo_projects.5CpRealEcu.5CcR_LATEST.5Cmake.5Coutput.5Cobjects.5Cbusmsg.123::
                        1603 .LDWlin123:
0000051a 0730           1604 	mov	r7,r6
                        1605 	jarl	_BusMsgPutWarning,lp
                        1605 <EXPANSION BEGIN>
                        1605 jarl22 _BusMsgPutWarning , lp 
0000051c bfff04fc*      1605 <EXPANSION END>
                        1606 --line830
                        1607 ..lin.C.3A.5C_ECU2.5CECU_Rivian_A1.5CTarget.5Crepo_projects.5CpRealEcu.5CcR_LATEST.5Cmake.5Coutput.5Cobjects.5Cbusmsg.124::
                        1608 .LDWlin124:
00000520 0a32           1609 	mov	10,r6
                        1610 	jarl	_SilaPutState,lp
                        1610 <EXPANSION BEGIN>
                        1610 jarl22 _SilaPutState , lp 
00000522 80ff0000*      1610 <EXPANSION END>
00000526 d50d*          1611 	br	.L2624
                        1612 .L2628:
                        1613 --line834
                        1614 ..lin.C.3A.5C_ECU2.5CECU_Rivian_A1.5CTarget.5Crepo_projects.5CpRealEcu.5CcR_LATEST.5Cmake.5Coutput.5Cobjects.5Cbusmsg.125::
                        1615 .LDWlin125:
00000528 013a           1616 	mov	1,r7
                        1617 	jarl	_BusMsgPutWarning,lp
                        1617 <EXPANSION BEGIN>
                        1617 jarl22 _BusMsgPutWarning , lp 
0000052a bffff6fb*      1617 <EXPANSION END>
                        1618 --line837
                        1619 ..lin.C.3A.5C_ECU2.5CECU_Rivian_A1.5CTarget.5Crepo_projects.5CpRealEcu.5CcR_LATEST.5Cmake.5Coutput.5Cobjects.5Cbusmsg.126::
                        1620 .LDWlin126:
0000052e 0730           1621 	mov	r7,r6
                        1622 	jarl	_BusMsgPutWarning,lp
                        1622 <EXPANSION BEGIN>
                        1622 jarl22 _BusMsgPutWarning , lp 
00000530 bffff0fb*      1622 <EXPANSION END>
                        1623 --line840
                        1624 ..lin.C.3A.5C_ECU2.5CECU_Rivian_A1.5CTarget.5Crepo_projects.5CpRealEcu.5CcR_LATEST.5Cmake.5Coutput.5Cobjects.5Cbusmsg.127::
                        1625 .LDWlin127:
00000534 0232           1626 	mov	2,r6
                        1627 	jarl	_BusMsgPutWarning,lp
                        1627 <EXPANSION BEGIN>
                        1627 jarl22 _BusMsgPutWarning , lp 
00000536 bfffeafb*      1627 <EXPANSION END>
                        1628 --line843
                        1629 ..lin.C.3A.5C_ECU2.5CECU_Rivian_A1.5CTarget.5Crepo_projects.5CpRealEcu.5CcR_LATEST.5Cmake.5Coutput.5Cobjects.5Cbusmsg.128::
                        1630 .LDWlin128:
0000053a 0332           1631 	mov	3,r6
                        1632 	jarl	_BusMsgPutWarning,lp
                        1632 <EXPANSION BEGIN>
                        1632 jarl22 _BusMsgPutWarning , lp 
0000053c bfffe4fb*      1632 <EXPANSION END>
                        1633 .L2624:
                        1634 --line849
                        1635 ..lin.C.3A.5C_ECU2.5CECU_Rivian_A1.5CTarget.5Crepo_projects.5CpRealEcu.5CcR_LATEST.5Cmake.5Coutput.5Cobjects.5Cbusmsg.129::
                        1636 .LDWlin129:
00000540 0032           1637 	mov	0,r6
00000542 ddf70000       1638 	tst1	6,0[r29]
00000546 a215*          1639 	be	.L2631
                        1640 --line851

                                                                      Page 32
                                                              C:\Users\nhuliyap\AppData\Local\Temp\gh_0000en81.s
                        1641 ..lin.C.3A.5C_ECU2.5CECU_Rivian_A1.5CTarget.5Crepo_projects.5CpRealEcu.5CcR_LATEST.5Cmake.5Coutput.5Cobjects.5Cbusmsg.130::
                        1642 .LDWlin130:
00000548 013a           1643 	mov	1,r7
                        1644 	jarl	_BusMsgPutTemperatureWarning,lp
                        1644 <EXPANSION BEGIN>
                        1644 jarl22 _BusMsgPutTemperatureWarning , lp 
0000054a bfff9efb*      1644 <EXPANSION END>
                        1645 --line854
                        1646 ..lin.C.3A.5C_ECU2.5CECU_Rivian_A1.5CTarget.5Crepo_projects.5CpRealEcu.5CcR_LATEST.5Cmake.5Coutput.5Cobjects.5Cbusmsg.131::
                        1647 .LDWlin131:
0000054e 0132           1648 	mov	1,r6
00000550 0638           1649 	mov	r6,r7
                        1650 	jarl	_BusMsgPutTemperatureWarning,lp
                        1650 <EXPANSION BEGIN>
                        1650 jarl22 _BusMsgPutTemperatureWarning , lp 
00000552 bfff96fb*      1650 <EXPANSION END>
                        1651 --line857
                        1652 ..lin.C.3A.5C_ECU2.5CECU_Rivian_A1.5CTarget.5Crepo_projects.5CpRealEcu.5CcR_LATEST.5Cmake.5Coutput.5Cobjects.5Cbusmsg.132::
                        1653 .LDWlin132:
00000556 0232           1654 	mov	2,r6
00000558 013a           1655 	mov	1,r7
                        1656 	jarl	_BusMsgPutTemperatureWarning,lp
                        1656 <EXPANSION BEGIN>
                        1656 jarl22 _BusMsgPutTemperatureWarning , lp 
0000055a bfff8efb*      1656 <EXPANSION END>
                        1657 --line860
                        1658 ..lin.C.3A.5C_ECU2.5CECU_Rivian_A1.5CTarget.5Crepo_projects.5CpRealEcu.5CcR_LATEST.5Cmake.5Coutput.5Cobjects.5Cbusmsg.133::
                        1659 .LDWlin133:
0000055e 0332           1660 	mov	3,r6
00000560 013a           1661 	mov	1,r7
                        1662 	jarl	_BusMsgPutTemperatureWarning,lp
                        1662 <EXPANSION BEGIN>
                        1662 jarl22 _BusMsgPutTemperatureWarning , lp 
00000562 bfff86fb*      1662 <EXPANSION END>
00000566 40067f00       1663 	dispose	0,{r29,r31},[lp]
                        1664 .L2631:
                        1665 --line865
                        1666 ..lin.C.3A.5C_ECU2.5CECU_Rivian_A1.5CTarget.5Crepo_projects.5CpRealEcu.5CcR_LATEST.5Cmake.5Coutput.5Cobjects.5Cbusmsg.134::
                        1667 .LDWlin134:
0000056a 0638           1668 	mov	r6,r7
                        1669 	jarl	_BusMsgPutTemperatureWarning,lp
                        1669 <EXPANSION BEGIN>
                        1669 jarl22 _BusMsgPutTemperatureWarning , lp 
0000056c bfff7cfb*      1669 <EXPANSION END>
                        1670 --line868
                        1671 ..lin.C.3A.5C_ECU2.5CECU_Rivian_A1.5CTarget.5Crepo_projects.5CpRealEcu.5CcR_LATEST.5Cmake.5Coutput.5Cobjects.5Cbusmsg.135::
                        1672 .LDWlin135:
00000570 0132           1673 	mov	1,r6
00000572 003a           1674 	mov	0,r7
                        1675 	jarl	_BusMsgPutTemperatureWarning,lp
                        1675 <EXPANSION BEGIN>
                        1675 jarl22 _BusMsgPutTemperatureWarning , lp 
00000574 bfff74fb*      1675 <EXPANSION END>
                        1676 --line871
                        1677 ..lin.C.3A.5C_ECU2.5CECU_Rivian_A1.5CTarget.5Crepo_projects.5CpRealEcu.5CcR_LATEST.5Cmake.5Coutput.5Cobjects.5Cbusmsg.136::
                        1678 .LDWlin136:
00000578 0232           1679 	mov	2,r6
0000057a 003a           1680 	mov	0,r7
                        1681 	jarl	_BusMsgPutTemperatureWarning,lp
                        1681 <EXPANSION BEGIN>
                        1681 jarl22 _BusMsgPutTemperatureWarning , lp 

                                                                      Page 33
                                                              C:\Users\nhuliyap\AppData\Local\Temp\gh_0000en81.s
0000057c bfff6cfb*      1681 <EXPANSION END>
                        1682 --line874
                        1683 ..lin.C.3A.5C_ECU2.5CECU_Rivian_A1.5CTarget.5Crepo_projects.5CpRealEcu.5CcR_LATEST.5Cmake.5Coutput.5Cobjects.5Cbusmsg.137::
                        1684 .LDWlin137:
00000580 0332           1685 	mov	3,r6
00000582 003a           1686 	mov	0,r7
                        1687 	jarl	_BusMsgPutTemperatureWarning,lp
                        1687 <EXPANSION BEGIN>
                        1687 jarl22 _BusMsgPutTemperatureWarning , lp 
00000584 bfff64fb*      1687 <EXPANSION END>
                        1688 --	    .ef
                        1689 .LDW56:
                        1690 --line879
                        1691 ..lin.C.3A.5C_ECU2.5CECU_Rivian_A1.5CTarget.5Crepo_projects.5CpRealEcu.5CcR_LATEST.5Cmake.5Coutput.5Cobjects.5Cbusmsg.138::
                        1692 .LDWlin138:
00000588 40067f00       1693 	dispose	0,{r29,r31},[lp]
                        1694 ___ghs_eofn_BusMsgCheckWarningsUnknownPos:
                        1695 	.type	_BusMsgCheckWarningsUnknownPos,@function
                        1696 	.size	_BusMsgCheckWarningsUnknownPos,.-_BusMsgCheckWarningsUnknownPos
                        1697 	.type	_BusMsgCheckWarningsUnknownPos..C.3A.5C_ECU2.5CECU_Rivian_A1.5CTarget.5Crepo_projects.5CpRealEcu.5CcR_LATEST.5Cmake.5Coutput.5Cobjects.5Cbusmsg.,@function
                        1698 	.size	_BusMsgCheckWarningsUnknownPos..C.3A.5C_ECU2.5CECU_Rivian_A1.5CTarget.5Crepo_projects.5CpRealEcu.5CcR_LATEST.5Cmake.5Coutput.5Cobjects.5Cbusmsg.,.-_BusMsgCheckWarningsUnknownPos..C.3A.5C_ECU2.5CECU_Rivian_A1.5CTarget.5Crepo_projects.5CpRealEcu.5CcR_LATEST.5Cmake.5Coutput.5Cobjects.5Cbusmsg.
                        1699 	.align	2
                        1700 
                        1701 	.section ".bss","awb"
                        1702 .L2712:
                        1703 	.type	.L2712,@object
                        1704 	.size	.L2712,0
                        1705 	.data
                        1706 	.text
                        1707 	.align	2
                        1708 	.align	2
                        1709 ..gh.f.f.1.e.28:
                        1710 	.type	..gh.f.f.1.e.28,@object
                        1711 	.size	..gh.f.f.1.e.28,0
                        1712 	.global	_BusMsgDoTeleFinished
                        1713 _BusMsgDoTeleFinished:
0000058c 80076100       1714 	prepare	{r29,r31},0
                        1715 --	    .bf
                        1716 .LDW66:
                        1717 	jarl	_BusMsgClr,lp
                        1717 <EXPANSION BEGIN>
                        1717 jarl22 _BusMsgClr , lp 
00000590 bfffa8fa*      1717 <EXPANSION END>
                        1718 --line218
                        1719 ..lin.C.3A.5C_ECU2.5CECU_Rivian_A1.5CTarget.5Crepo_projects.5CpRealEcu.5CcR_LATEST.5Cmake.5Coutput.5Cobjects.5Cbusmsg.139::
                        1720 .LDWlin139:
                        1721 	jarl	_GetSystem_DefectECUState,lp
                        1721 <EXPANSION BEGIN>
                        1721 jarl22 _GetSystem_DefectECUState , lp 
00000594 80ff0000*      1721 <EXPANSION END>
00000598 6152           1722 	cmp	1,r10
0000059a c21d*          1723 	be	.L2838
0000059c 20360110       1724 	movea	4097,zero,r6
                        1725 	jarl	_ushGetBetriebszustandBZ,lp
                        1725 <EXPANSION BEGIN>
                        1725 jarl22 _ushGetBetriebszustandBZ , lp 
000005a0 80ff0000*      1725 <EXPANSION END>
000005a4 0a0600f0       1726 	addi	-4096,r10,zero
000005a8 d215*          1727 	be	.L2838
000005aa 20361300       1728 	movea	19,zero,r6
                        1729 	jarl	_DTC_GetActiveStatusOfDTC,lp

                                                                      Page 34
                                                              C:\Users\nhuliyap\AppData\Local\Temp\gh_0000en81.s
                        1729 <EXPANSION BEGIN>
                        1729 jarl22 _DTC_GetActiveStatusOfDTC , lp 
000005ae 80ff0000*      1729 <EXPANSION END>
000005b2 6152           1730 	cmp	1,r10
000005b4 e2370433       1731 	cmove	2,r6,r6
000005b8 8215*          1732 	be	.L3032
                        1733 --line228
                        1734 ..lin.C.3A.5C_ECU2.5CECU_Rivian_A1.5CTarget.5Crepo_projects.5CpRealEcu.5CcR_LATEST.5Cmake.5Coutput.5Cobjects.5Cbusmsg.140::
                        1735 .LDWlin140:
                        1736 	jarl	_GETbHfIntLatchEE,lp
                        1736 <EXPANSION BEGIN>
                        1736 jarl22 _GETbHfIntLatchEE , lp 
000005ba 80ff0000*      1736 <EXPANSION END>
000005be 6152           1737 	cmp	1,r10
000005c0 b20d*          1738 	be	.L2843
000005c2 20361700       1739 	movea	23,zero,r6
                        1740 	jarl	_DTC_GetActiveStatusOfDTC,lp
                        1740 <EXPANSION BEGIN>
                        1740 jarl22 _DTC_GetActiveStatusOfDTC , lp 
000005c6 80ff0000*      1740 <EXPANSION END>
000005ca 6152           1741 	cmp	1,r10
000005cc ca0d*          1742 	bne	.L2841
000005ce 0332           1743 	mov	3,r6
000005d0 c505*          1744 	br	.L3032
                        1745 .L2838:
                        1746 --line221
                        1747 ..lin.C.3A.5C_ECU2.5CECU_Rivian_A1.5CTarget.5Crepo_projects.5CpRealEcu.5CcR_LATEST.5Cmake.5Coutput.5Cobjects.5Cbusmsg.141::
                        1748 .LDWlin141:
000005d2 0232           1749 	mov	2,r6
000005d4 a505*          1750 	br	.L3032
                        1751 .L2843:
                        1752 --line230
                        1753 ..lin.C.3A.5C_ECU2.5CECU_Rivian_A1.5CTarget.5Crepo_projects.5CpRealEcu.5CcR_LATEST.5Cmake.5Coutput.5Cobjects.5Cbusmsg.142::
                        1754 .LDWlin142:
000005d6 0332           1755 	mov	3,r6
                        1756 .L3032:
000005d8 013a           1757 	mov	1,r7
                        1758 	jarl	_BusMsgPutTextflag,lp
                        1758 <EXPANSION BEGIN>
                        1758 jarl22 _BusMsgPutTextflag , lp 
000005da bfffbefb*      1758 <EXPANSION END>
000005de 0b32           1759 	mov	11,r6
                        1760 	jarl	_SilaPutState,lp
                        1760 <EXPANSION BEGIN>
                        1760 jarl22 _SilaPutState , lp 
000005e0 80ff0000*      1760 <EXPANSION END>
                        1761 .L2841:
                        1762 --line237
                        1763 ..lin.C.3A.5C_ECU2.5CECU_Rivian_A1.5CTarget.5Crepo_projects.5CpRealEcu.5CcR_LATEST.5Cmake.5Coutput.5Cobjects.5Cbusmsg.143::
                        1764 .LDWlin143:
000005e4 20361000       1765 	movea	16,zero,r6
                        1766 	jarl	_bGetBitBetriebszustandBZ,lp
                        1766 <EXPANSION BEGIN>
                        1766 jarl22 _bGetBitBetriebszustandBZ , lp 
000005e8 80ff0000*      1766 <EXPANSION END>
000005ec 6152           1767 	cmp	1,r10
000005ee aa15*          1768 	bne	.L2845
                        1769 --line239
                        1770 ..lin.C.3A.5C_ECU2.5CECU_Rivian_A1.5CTarget.5Crepo_projects.5CpRealEcu.5CcR_LATEST.5Cmake.5Coutput.5Cobjects.5Cbusmsg.144::
                        1771 .LDWlin144:
                        1772 	jarl	_BusMsgDetermineErrCounter,lp

                                                                      Page 35
                                                              C:\Users\nhuliyap\AppData\Local\Temp\gh_0000en81.s
                        1772 <EXPANSION BEGIN>
                        1772 jarl22 _BusMsgDetermineErrCounter , lp 
000005f0 bfff20fc*      1772 <EXPANSION END>
                        1773 --line240
                        1774 ..lin.C.3A.5C_ECU2.5CECU_Rivian_A1.5CTarget.5Crepo_projects.5CpRealEcu.5CcR_LATEST.5Cmake.5Coutput.5Cobjects.5Cbusmsg.145::
                        1775 .LDWlin145:
000005f4 6152           1776 	cmp	1,r10
000005f6 d305*          1777 	bnh	.L2847
                        1778 --line241
                        1779 ..lin.C.3A.5C_ECU2.5CECU_Rivian_A1.5CTarget.5Crepo_projects.5CpRealEcu.5CcR_LATEST.5Cmake.5Coutput.5Cobjects.5Cbusmsg.146::
                        1780 .LDWlin146:
000005f8 0032           1781 	mov	0,r6
000005fa 013a           1782 	mov	1,r7
                        1783 	jarl	_BusMsgPutTextflag,lp
                        1783 <EXPANSION BEGIN>
                        1783 jarl22 _BusMsgPutTextflag , lp 
000005fc bfff9cfb*      1783 <EXPANSION END>
                        1784 .L2847:
                        1785 --line245
                        1786 ..lin.C.3A.5C_ECU2.5CECU_Rivian_A1.5CTarget.5Crepo_projects.5CpRealEcu.5CcR_LATEST.5Cmake.5Coutput.5Cobjects.5Cbusmsg.147::
                        1787 .LDWlin147:
                        1788 	jarl	_BusMsgCheckWarningsFrontLeft,lp
                        1788 <EXPANSION BEGIN>
                        1788 jarl22 _BusMsgCheckWarningsFrontLeft , lp 
00000600 bfff50fc*      1788 <EXPANSION END>
                        1789 --line246
                        1790 ..lin.C.3A.5C_ECU2.5CECU_Rivian_A1.5CTarget.5Crepo_projects.5CpRealEcu.5CcR_LATEST.5Cmake.5Coutput.5Cobjects.5Cbusmsg.148::
                        1791 .LDWlin148:
                        1792 	jarl	_BusMsgCheckWarningsFrontRight,lp
                        1792 <EXPANSION BEGIN>
                        1792 jarl22 _BusMsgCheckWarningsFrontRight , lp 
00000604 bfffd4fc*      1792 <EXPANSION END>
                        1793 --line247
                        1794 ..lin.C.3A.5C_ECU2.5CECU_Rivian_A1.5CTarget.5Crepo_projects.5CpRealEcu.5CcR_LATEST.5Cmake.5Coutput.5Cobjects.5Cbusmsg.149::
                        1795 .LDWlin149:
                        1796 	jarl	_BusMsgCheckWarningsRearLeft,lp
                        1796 <EXPANSION BEGIN>
                        1796 jarl22 _BusMsgCheckWarningsRearLeft , lp 
00000608 bfff5cfd*      1796 <EXPANSION END>
                        1797 --line248
                        1798 ..lin.C.3A.5C_ECU2.5CECU_Rivian_A1.5CTarget.5Crepo_projects.5CpRealEcu.5CcR_LATEST.5Cmake.5Coutput.5Cobjects.5Cbusmsg.150::
                        1799 .LDWlin150:
                        1800 	jarl	_BusMsgCheckWarningsRearRight,lp
                        1800 <EXPANSION BEGIN>
                        1800 jarl22 _BusMsgCheckWarningsRearRight , lp 
0000060c bfffe4fd*      1800 <EXPANSION END>
00000610 b51d*          1801 	br	.L2849
                        1802 .L2845:
                        1803 --line251
                        1804 ..lin.C.3A.5C_ECU2.5CECU_Rivian_A1.5CTarget.5Crepo_projects.5CpRealEcu.5CcR_LATEST.5Cmake.5Coutput.5Cobjects.5Cbusmsg.151::
                        1805 .LDWlin151:
00000612 0132           1806 	mov	1,r6
                        1807 	jarl	_bGetBitBetriebszustandBZ,lp
                        1807 <EXPANSION BEGIN>
                        1807 jarl22 _bGetBitBetriebszustandBZ , lp 
00000614 80ff0000*      1807 <EXPANSION END>
00000618 6152           1808 	cmp	1,r10
0000061a c20d*          1809 	be	.L2851
0000061c 0832           1810 	mov	8,r6
                        1811 	jarl	_bGetBitBetriebszustandBZ,lp
                        1811 <EXPANSION BEGIN>

                                                                      Page 36
                                                              C:\Users\nhuliyap\AppData\Local\Temp\gh_0000en81.s
                        1811 jarl22 _bGetBitBetriebszustandBZ , lp 
0000061e 80ff0000*      1811 <EXPANSION END>
00000622 6152           1812 	cmp	1,r10
00000624 9a15*          1813 	bne	.L2849
00000626 20364000       1814 	movea	64,zero,r6
                        1815 	jarl	_bGetBitBetriebszustandBZ,lp
                        1815 <EXPANSION BEGIN>
                        1815 jarl22 _bGetBitBetriebszustandBZ , lp 
0000062a 80ff0000*      1815 <EXPANSION END>
0000062e 6152           1816 	cmp	1,r10
00000630 ba0d*          1817 	bne	.L2849
                        1818 .L2851:
                        1819 --line255
                        1820 ..lin.C.3A.5C_ECU2.5CECU_Rivian_A1.5CTarget.5Crepo_projects.5CpRealEcu.5CcR_LATEST.5Cmake.5Coutput.5Cobjects.5Cbusmsg.152::
                        1821 .LDWlin152:
                        1822 	jarl	_BusMsgDetermineErrCounter,lp
                        1822 <EXPANSION BEGIN>
                        1822 jarl22 _BusMsgDetermineErrCounter , lp 
00000632 bfffdefb*      1822 <EXPANSION END>
                        1823 --line256
                        1824 ..lin.C.3A.5C_ECU2.5CECU_Rivian_A1.5CTarget.5Crepo_projects.5CpRealEcu.5CcR_LATEST.5Cmake.5Coutput.5Cobjects.5Cbusmsg.153::
                        1825 .LDWlin153:
00000636 6152           1826 	cmp	1,r10
00000638 d305*          1827 	bnh	.L2854
                        1828 --line257
                        1829 ..lin.C.3A.5C_ECU2.5CECU_Rivian_A1.5CTarget.5Crepo_projects.5CpRealEcu.5CcR_LATEST.5Cmake.5Coutput.5Cobjects.5Cbusmsg.154::
                        1830 .LDWlin154:
0000063a 0032           1831 	mov	0,r6
0000063c 013a           1832 	mov	1,r7
                        1833 	jarl	_BusMsgPutTextflag,lp
                        1833 <EXPANSION BEGIN>
                        1833 jarl22 _BusMsgPutTextflag , lp 
0000063e bfff5afb*      1833 <EXPANSION END>
                        1834 .L2854:
                        1835 --line261
                        1836 ..lin.C.3A.5C_ECU2.5CECU_Rivian_A1.5CTarget.5Crepo_projects.5CpRealEcu.5CcR_LATEST.5Cmake.5Coutput.5Cobjects.5Cbusmsg.155::
                        1837 .LDWlin155:
                        1838 	jarl	_BusMsgCheckWarningsUnknownPos,lp
                        1838 <EXPANSION BEGIN>
                        1838 jarl22 _BusMsgCheckWarningsUnknownPos , lp 
00000642 bfff3afe*      1838 <EXPANSION END>
                        1839 .L2849:
                        1840 --line266
                        1841 ..lin.C.3A.5C_ECU2.5CECU_Rivian_A1.5CTarget.5Crepo_projects.5CpRealEcu.5CcR_LATEST.5Cmake.5Coutput.5Cobjects.5Cbusmsg.156::
                        1842 .LDWlin156:
00000646 0032           1843 	mov	0,r6
                        1844 	jarl	_ucGetIndexOfHistoryWP,lp
                        1844 <EXPANSION BEGIN>
                        1844 jarl22 _ucGetIndexOfHistoryWP , lp 
00000648 80ff0000*      1844 <EXPANSION END>
0000064c 0a30           1845 	mov	r10,r6
                        1846 	jarl	_GETusFolgeAusfallCntSTATISTICS,lp
                        1846 <EXPANSION BEGIN>
                        1846 jarl22 _GETusFolgeAusfallCntSTATISTICS , lp 
0000064e 80ff0000*      1846 <EXPANSION END>
00000652 0ae8           1847 	mov	r10,r29
                        1848 --line269
                        1849 ..lin.C.3A.5C_ECU2.5CECU_Rivian_A1.5CTarget.5Crepo_projects.5CpRealEcu.5CcR_LATEST.5Cmake.5Coutput.5Cobjects.5Cbusmsg.157::
                        1850 .LDWlin157:
00000654 0032           1851 	mov	0,r6
                        1852 	jarl	_GETbNoWarnPartSurv,lp

                                                                      Page 37
                                                              C:\Users\nhuliyap\AppData\Local\Temp\gh_0000en81.s
                        1852 <EXPANSION BEGIN>
                        1852 jarl22 _GETbNoWarnPartSurv , lp 
00000656 bfff6afb*      1852 <EXPANSION END>
0000065a 6152           1853 	cmp	1,r10
0000065c e215*          1854 	be	.L2858
0000065e 0032           1855 	mov	0,r6
                        1856 	jarl	_BusMsgGetTextflag,lp
                        1856 <EXPANSION BEGIN>
                        1856 jarl22 _BusMsgGetTextflag , lp 
00000660 bfff4afb*      1856 <EXPANSION END>
00000664 6152           1857 	cmp	1,r10
00000666 9215*          1858 	be	.L2858
00000668 0232           1859 	mov	2,r6
                        1860 	jarl	_BusMsgGetTextflag,lp
                        1860 <EXPANSION BEGIN>
                        1860 jarl22 _BusMsgGetTextflag , lp 
0000066a bfff40fb*      1860 <EXPANSION END>
0000066e 6152           1861 	cmp	1,r10
00000670 ca05*          1862 	bne	.L2859
00000672 1d067bff       1863 	addi	-133,r29,zero
00000676 910d*          1864 	bl	.L2858
                        1865 .L2859:
00000678 0332           1866 	mov	3,r6
                        1867 	jarl	_BusMsgGetTextflag,lp
                        1867 <EXPANSION BEGIN>
                        1867 jarl22 _BusMsgGetTextflag , lp 
0000067a bfff30fb*      1867 <EXPANSION END>
0000067e 6152           1868 	cmp	1,r10
00000680 9a15*          1869 	bne	.L2857
00000682 1d067bff       1870 	addi	-133,r29,zero
00000686 e90d*          1871 	bnl	.L2857
                        1872 .L2858:
                        1873 --line274
                        1874 ..lin.C.3A.5C_ECU2.5CECU_Rivian_A1.5CTarget.5Crepo_projects.5CpRealEcu.5CcR_LATEST.5Cmake.5Coutput.5Cobjects.5Cbusmsg.158::
                        1875 .LDWlin158:
00000688 0032           1876 	mov	0,r6
0000068a 203eff00       1877 	movea	255,zero,r7
                        1878 	jarl	_BusMsgPutTyrePressUncomp,lp
                        1878 <EXPANSION BEGIN>
                        1878 jarl22 _BusMsgPutTyrePressUncomp , lp 
0000068e bfff32fa*      1878 <EXPANSION END>
                        1879 --line277
                        1880 ..lin.C.3A.5C_ECU2.5CECU_Rivian_A1.5CTarget.5Crepo_projects.5CpRealEcu.5CcR_LATEST.5Cmake.5Coutput.5Cobjects.5Cbusmsg.159::
                        1881 .LDWlin159:
00000692 0a30           1882 	mov	r10,r6
                        1883 	jarl	_BusMsgPutTyrePressValidVL,lp
                        1883 <EXPANSION BEGIN>
                        1883 jarl22 _BusMsgPutTyrePressValidVL , lp 
00000694 bfffb4fa*      1883 <EXPANSION END>
                        1884 --line279
                        1885 ..lin.C.3A.5C_ECU2.5CECU_Rivian_A1.5CTarget.5Crepo_projects.5CpRealEcu.5CcR_LATEST.5Cmake.5Coutput.5Cobjects.5Cbusmsg.160::
                        1886 .LDWlin160:
00000698 0032           1887 	mov	0,r6
0000069a 0638           1888 	mov	r6,r7
                        1889 	jarl	_BusMsgPutWarning,lp
                        1889 <EXPANSION BEGIN>
                        1889 jarl22 _BusMsgPutWarning , lp 
0000069c bfff84fa*      1889 <EXPANSION END>
000006a0 e515*          1890 	br	.L2864
                        1891 .L2857:
                        1892 --line284

                                                                      Page 38
                                                              C:\Users\nhuliyap\AppData\Local\Temp\gh_0000en81.s
                        1893 ..lin.C.3A.5C_ECU2.5CECU_Rivian_A1.5CTarget.5Crepo_projects.5CpRealEcu.5CcR_LATEST.5Cmake.5Coutput.5Cobjects.5Cbusmsg.161::
                        1894 .LDWlin161:
000006a2 0032           1895 	mov	0,r6
                        1896 	jarl	_ucGetValidTyrePressureRelAtPosPD,lp
                        1896 <EXPANSION BEGIN>
                        1896 jarl22 _ucGetValidTyrePressureRelAtPosPD , lp 
000006a4 80ff0000*      1896 <EXPANSION END>
                        1897 --line286
                        1898 ..lin.C.3A.5C_ECU2.5CECU_Rivian_A1.5CTarget.5Crepo_projects.5CpRealEcu.5CcR_LATEST.5Cmake.5Coutput.5Cobjects.5Cbusmsg.162::
                        1899 .LDWlin162:
000006a8 0032           1900 	mov	0,r6
000006aa 0a0601ff       1901 	addi	-255,r10,zero
000006ae 990d*          1902 	bnl	.L2865
                        1903 --line287
                        1904 ..lin.C.3A.5C_ECU2.5CECU_Rivian_A1.5CTarget.5Crepo_projects.5CpRealEcu.5CcR_LATEST.5Cmake.5Coutput.5Cobjects.5Cbusmsg.163::
                        1905 .LDWlin163:
000006b0 203eff00       1906 	movea	255,zero,r7
                        1907 	jarl	_BusMsgPutTyrePressUncomp,lp
                        1907 <EXPANSION BEGIN>
                        1907 jarl22 _BusMsgPutTyrePressUncomp , lp 
000006b4 bfff0cfa*      1907 <EXPANSION END>
                        1908 --line290
                        1909 ..lin.C.3A.5C_ECU2.5CECU_Rivian_A1.5CTarget.5Crepo_projects.5CpRealEcu.5CcR_LATEST.5Cmake.5Coutput.5Cobjects.5Cbusmsg.164::
                        1910 .LDWlin164:
000006b8 0132           1911 	mov	1,r6
                        1912 	jarl	_BusMsgPutTyrePressValidVL,lp
                        1912 <EXPANSION BEGIN>
                        1912 jarl22 _BusMsgPutTyrePressValidVL , lp 
000006ba bfff8efa*      1912 <EXPANSION END>
000006be f505*          1913 	br	.L2864
                        1914 .L2865:
000006c0 0a38           1915 	mov	r10,r7
                        1916 --line294
                        1917 ..lin.C.3A.5C_ECU2.5CECU_Rivian_A1.5CTarget.5Crepo_projects.5CpRealEcu.5CcR_LATEST.5Cmake.5Coutput.5Cobjects.5Cbusmsg.165::
                        1918 .LDWlin165:
                        1919 	jarl	_BusMsgPutTyrePressUncomp,lp
                        1919 <EXPANSION BEGIN>
                        1919 jarl22 _BusMsgPutTyrePressUncomp , lp 
000006c2 bffffef9*      1919 <EXPANSION END>
                        1920 --line297
                        1921 ..lin.C.3A.5C_ECU2.5CECU_Rivian_A1.5CTarget.5Crepo_projects.5CpRealEcu.5CcR_LATEST.5Cmake.5Coutput.5Cobjects.5Cbusmsg.166::
                        1922 .LDWlin166:
000006c6 0032           1923 	mov	0,r6
                        1924 	jarl	_BusMsgPutTyrePressValidVL,lp
                        1924 <EXPANSION BEGIN>
                        1924 jarl22 _BusMsgPutTyrePressValidVL , lp 
000006c8 bfff80fa*      1924 <EXPANSION END>
                        1925 .L2864:
                        1926 --line301
                        1927 ..lin.C.3A.5C_ECU2.5CECU_Rivian_A1.5CTarget.5Crepo_projects.5CpRealEcu.5CcR_LATEST.5Cmake.5Coutput.5Cobjects.5Cbusmsg.167::
                        1928 .LDWlin167:
000006cc 0132           1929 	mov	1,r6
                        1930 	jarl	_ucGetIndexOfHistoryWP,lp
                        1930 <EXPANSION BEGIN>
                        1930 jarl22 _ucGetIndexOfHistoryWP , lp 
000006ce 80ff0000*      1930 <EXPANSION END>
000006d2 0a30           1931 	mov	r10,r6
                        1932 	jarl	_GETusFolgeAusfallCntSTATISTICS,lp
                        1932 <EXPANSION BEGIN>
                        1932 jarl22 _GETusFolgeAusfallCntSTATISTICS , lp 
000006d4 80ff0000*      1932 <EXPANSION END>

                                                                      Page 39
                                                              C:\Users\nhuliyap\AppData\Local\Temp\gh_0000en81.s
000006d8 0ae8           1933 	mov	r10,r29
                        1934 --line304
                        1935 ..lin.C.3A.5C_ECU2.5CECU_Rivian_A1.5CTarget.5Crepo_projects.5CpRealEcu.5CcR_LATEST.5Cmake.5Coutput.5Cobjects.5Cbusmsg.168::
                        1936 .LDWlin168:
000006da 0132           1937 	mov	1,r6
                        1938 	jarl	_GETbNoWarnPartSurv,lp
                        1938 <EXPANSION BEGIN>
                        1938 jarl22 _GETbNoWarnPartSurv , lp 
000006dc bfffe4fa*      1938 <EXPANSION END>
000006e0 6152           1939 	cmp	1,r10
000006e2 e215*          1940 	be	.L2869
000006e4 0032           1941 	mov	0,r6
                        1942 	jarl	_BusMsgGetTextflag,lp
                        1942 <EXPANSION BEGIN>
                        1942 jarl22 _BusMsgGetTextflag , lp 
000006e6 bfffc4fa*      1942 <EXPANSION END>
000006ea 6152           1943 	cmp	1,r10
000006ec 9215*          1944 	be	.L2869
000006ee 0232           1945 	mov	2,r6
                        1946 	jarl	_BusMsgGetTextflag,lp
                        1946 <EXPANSION BEGIN>
                        1946 jarl22 _BusMsgGetTextflag , lp 
000006f0 bfffbafa*      1946 <EXPANSION END>
000006f4 6152           1947 	cmp	1,r10
000006f6 ca05*          1948 	bne	.L2870
000006f8 1d067bff       1949 	addi	-133,r29,zero
000006fc 910d*          1950 	bl	.L2869
                        1951 .L2870:
000006fe 0332           1952 	mov	3,r6
                        1953 	jarl	_BusMsgGetTextflag,lp
                        1953 <EXPANSION BEGIN>
                        1953 jarl22 _BusMsgGetTextflag , lp 
00000700 bfffaafa*      1953 <EXPANSION END>
00000704 6152           1954 	cmp	1,r10
00000706 8a15*          1955 	bne	.L2868
00000708 1d067bff       1956 	addi	-133,r29,zero
0000070c d90d*          1957 	bnl	.L2868
                        1958 .L2869:
                        1959 --line309
                        1960 ..lin.C.3A.5C_ECU2.5CECU_Rivian_A1.5CTarget.5Crepo_projects.5CpRealEcu.5CcR_LATEST.5Cmake.5Coutput.5Cobjects.5Cbusmsg.169::
                        1961 .LDWlin169:
0000070e 0a30           1962 	mov	r10,r6
00000710 203eff00       1963 	movea	255,zero,r7
                        1964 	jarl	_BusMsgPutTyrePressUncomp,lp
                        1964 <EXPANSION BEGIN>
                        1964 jarl22 _BusMsgPutTyrePressUncomp , lp 
00000714 bfffacf9*      1964 <EXPANSION END>
                        1965 --line312
                        1966 ..lin.C.3A.5C_ECU2.5CECU_Rivian_A1.5CTarget.5Crepo_projects.5CpRealEcu.5CcR_LATEST.5Cmake.5Coutput.5Cobjects.5Cbusmsg.170::
                        1967 .LDWlin170:
00000718 0a30           1968 	mov	r10,r6
                        1969 	jarl	_BusMsgPutTyrePressValidVR,lp
                        1969 <EXPANSION BEGIN>
                        1969 jarl22 _BusMsgPutTyrePressValidVR , lp 
0000071a bfff42fa*      1969 <EXPANSION END>
                        1970 --line314
                        1971 ..lin.C.3A.5C_ECU2.5CECU_Rivian_A1.5CTarget.5Crepo_projects.5CpRealEcu.5CcR_LATEST.5Cmake.5Coutput.5Cobjects.5Cbusmsg.171::
                        1972 .LDWlin171:
0000071e 003a           1973 	mov	0,r7
                        1974 	jarl	_BusMsgPutWarning,lp
                        1974 <EXPANSION BEGIN>

                                                                      Page 40
                                                              C:\Users\nhuliyap\AppData\Local\Temp\gh_0000en81.s
                        1974 jarl22 _BusMsgPutWarning , lp 
00000720 bfff00fa*      1974 <EXPANSION END>
00000724 e515*          1975 	br	.L2875
                        1976 .L2868:
                        1977 --line319
                        1978 ..lin.C.3A.5C_ECU2.5CECU_Rivian_A1.5CTarget.5Crepo_projects.5CpRealEcu.5CcR_LATEST.5Cmake.5Coutput.5Cobjects.5Cbusmsg.172::
                        1979 .LDWlin172:
00000726 0132           1980 	mov	1,r6
                        1981 	jarl	_ucGetValidTyrePressureRelAtPosPD,lp
                        1981 <EXPANSION BEGIN>
                        1981 jarl22 _ucGetValidTyrePressureRelAtPosPD , lp 
00000728 80ff0000*      1981 <EXPANSION END>
                        1982 --line321
                        1983 ..lin.C.3A.5C_ECU2.5CECU_Rivian_A1.5CTarget.5Crepo_projects.5CpRealEcu.5CcR_LATEST.5Cmake.5Coutput.5Cobjects.5Cbusmsg.173::
                        1984 .LDWlin173:
0000072c 0132           1985 	mov	1,r6
0000072e 0a0601ff       1986 	addi	-255,r10,zero
00000732 990d*          1987 	bnl	.L2876
                        1988 --line322
                        1989 ..lin.C.3A.5C_ECU2.5CECU_Rivian_A1.5CTarget.5Crepo_projects.5CpRealEcu.5CcR_LATEST.5Cmake.5Coutput.5Cobjects.5Cbusmsg.174::
                        1990 .LDWlin174:
00000734 203eff00       1991 	movea	255,zero,r7
                        1992 	jarl	_BusMsgPutTyrePressUncomp,lp
                        1992 <EXPANSION BEGIN>
                        1992 jarl22 _BusMsgPutTyrePressUncomp , lp 
00000738 bfff88f9*      1992 <EXPANSION END>
                        1993 --line325
                        1994 ..lin.C.3A.5C_ECU2.5CECU_Rivian_A1.5CTarget.5Crepo_projects.5CpRealEcu.5CcR_LATEST.5Cmake.5Coutput.5Cobjects.5Cbusmsg.175::
                        1995 .LDWlin175:
0000073c 0132           1996 	mov	1,r6
                        1997 	jarl	_BusMsgPutTyrePressValidVR,lp
                        1997 <EXPANSION BEGIN>
                        1997 jarl22 _BusMsgPutTyrePressValidVR , lp 
0000073e bfff1efa*      1997 <EXPANSION END>
00000742 f505*          1998 	br	.L2875
                        1999 .L2876:
00000744 0a38           2000 	mov	r10,r7
                        2001 --line329
                        2002 ..lin.C.3A.5C_ECU2.5CECU_Rivian_A1.5CTarget.5Crepo_projects.5CpRealEcu.5CcR_LATEST.5Cmake.5Coutput.5Cobjects.5Cbusmsg.176::
                        2003 .LDWlin176:
                        2004 	jarl	_BusMsgPutTyrePressUncomp,lp
                        2004 <EXPANSION BEGIN>
                        2004 jarl22 _BusMsgPutTyrePressUncomp , lp 
00000746 bfff7af9*      2004 <EXPANSION END>
                        2005 --line332
                        2006 ..lin.C.3A.5C_ECU2.5CECU_Rivian_A1.5CTarget.5Crepo_projects.5CpRealEcu.5CcR_LATEST.5Cmake.5Coutput.5Cobjects.5Cbusmsg.177::
                        2007 .LDWlin177:
0000074a 0032           2008 	mov	0,r6
                        2009 	jarl	_BusMsgPutTyrePressValidVR,lp
                        2009 <EXPANSION BEGIN>
                        2009 jarl22 _BusMsgPutTyrePressValidVR , lp 
0000074c bfff10fa*      2009 <EXPANSION END>
                        2010 .L2875:
                        2011 --line336
                        2012 ..lin.C.3A.5C_ECU2.5CECU_Rivian_A1.5CTarget.5Crepo_projects.5CpRealEcu.5CcR_LATEST.5Cmake.5Coutput.5Cobjects.5Cbusmsg.178::
                        2013 .LDWlin178:
00000750 0232           2014 	mov	2,r6
                        2015 	jarl	_ucGetIndexOfHistoryWP,lp
                        2015 <EXPANSION BEGIN>
                        2015 jarl22 _ucGetIndexOfHistoryWP , lp 
00000752 80ff0000*      2015 <EXPANSION END>

                                                                      Page 41
                                                              C:\Users\nhuliyap\AppData\Local\Temp\gh_0000en81.s
00000756 0a30           2016 	mov	r10,r6
                        2017 	jarl	_GETusFolgeAusfallCntSTATISTICS,lp
                        2017 <EXPANSION BEGIN>
                        2017 jarl22 _GETusFolgeAusfallCntSTATISTICS , lp 
00000758 80ff0000*      2017 <EXPANSION END>
0000075c 0ae8           2018 	mov	r10,r29
                        2019 --line339
                        2020 ..lin.C.3A.5C_ECU2.5CECU_Rivian_A1.5CTarget.5Crepo_projects.5CpRealEcu.5CcR_LATEST.5Cmake.5Coutput.5Cobjects.5Cbusmsg.179::
                        2021 .LDWlin179:
0000075e 0232           2022 	mov	2,r6
                        2023 	jarl	_GETbNoWarnPartSurv,lp
                        2023 <EXPANSION BEGIN>
                        2023 jarl22 _GETbNoWarnPartSurv , lp 
00000760 bfff60fa*      2023 <EXPANSION END>
00000764 6152           2024 	cmp	1,r10
00000766 e215*          2025 	be	.L2880
00000768 0032           2026 	mov	0,r6
                        2027 	jarl	_BusMsgGetTextflag,lp
                        2027 <EXPANSION BEGIN>
                        2027 jarl22 _BusMsgGetTextflag , lp 
0000076a bfff40fa*      2027 <EXPANSION END>
0000076e 6152           2028 	cmp	1,r10
00000770 9215*          2029 	be	.L2880
00000772 0232           2030 	mov	2,r6
                        2031 	jarl	_BusMsgGetTextflag,lp
                        2031 <EXPANSION BEGIN>
                        2031 jarl22 _BusMsgGetTextflag , lp 
00000774 bfff36fa*      2031 <EXPANSION END>
00000778 6152           2032 	cmp	1,r10
0000077a ca05*          2033 	bne	.L2881
0000077c 1d067bff       2034 	addi	-133,r29,zero
00000780 910d*          2035 	bl	.L2880
                        2036 .L2881:
00000782 0332           2037 	mov	3,r6
                        2038 	jarl	_BusMsgGetTextflag,lp
                        2038 <EXPANSION BEGIN>
                        2038 jarl22 _BusMsgGetTextflag , lp 
00000784 bfff26fa*      2038 <EXPANSION END>
00000788 6152           2039 	cmp	1,r10
0000078a 9a15*          2040 	bne	.L2879
0000078c 1d067bff       2041 	addi	-133,r29,zero
00000790 e90d*          2042 	bnl	.L2879
                        2043 .L2880:
                        2044 --line344
                        2045 ..lin.C.3A.5C_ECU2.5CECU_Rivian_A1.5CTarget.5Crepo_projects.5CpRealEcu.5CcR_LATEST.5Cmake.5Coutput.5Cobjects.5Cbusmsg.180::
                        2046 .LDWlin180:
00000792 0232           2047 	mov	2,r6
00000794 203eff00       2048 	movea	255,zero,r7
                        2049 	jarl	_BusMsgPutTyrePressUncomp,lp
                        2049 <EXPANSION BEGIN>
                        2049 jarl22 _BusMsgPutTyrePressUncomp , lp 
00000798 bfff28f9*      2049 <EXPANSION END>
                        2050 --line347
                        2051 ..lin.C.3A.5C_ECU2.5CECU_Rivian_A1.5CTarget.5Crepo_projects.5CpRealEcu.5CcR_LATEST.5Cmake.5Coutput.5Cobjects.5Cbusmsg.181::
                        2052 .LDWlin181:
0000079c 0a30           2053 	mov	r10,r6
                        2054 	jarl	_BusMsgPutTyrePressValidHL,lp
                        2054 <EXPANSION BEGIN>
                        2054 jarl22 _BusMsgPutTyrePressValidHL , lp 
0000079e bfffd2f9*      2054 <EXPANSION END>
                        2055 --line349

                                                                      Page 42
                                                              C:\Users\nhuliyap\AppData\Local\Temp\gh_0000en81.s
                        2056 ..lin.C.3A.5C_ECU2.5CECU_Rivian_A1.5CTarget.5Crepo_projects.5CpRealEcu.5CcR_LATEST.5Cmake.5Coutput.5Cobjects.5Cbusmsg.182::
                        2057 .LDWlin182:
000007a2 0232           2058 	mov	2,r6
000007a4 003a           2059 	mov	0,r7
                        2060 	jarl	_BusMsgPutWarning,lp
                        2060 <EXPANSION BEGIN>
                        2060 jarl22 _BusMsgPutWarning , lp 
000007a6 bfff7af9*      2060 <EXPANSION END>
000007aa e515*          2061 	br	.L2886
                        2062 .L2879:
                        2063 --line354
                        2064 ..lin.C.3A.5C_ECU2.5CECU_Rivian_A1.5CTarget.5Crepo_projects.5CpRealEcu.5CcR_LATEST.5Cmake.5Coutput.5Cobjects.5Cbusmsg.183::
                        2065 .LDWlin183:
000007ac 0232           2066 	mov	2,r6
                        2067 	jarl	_ucGetValidTyrePressureRelAtPosPD,lp
                        2067 <EXPANSION BEGIN>
                        2067 jarl22 _ucGetValidTyrePressureRelAtPosPD , lp 
000007ae 80ff0000*      2067 <EXPANSION END>
                        2068 --line356
                        2069 ..lin.C.3A.5C_ECU2.5CECU_Rivian_A1.5CTarget.5Crepo_projects.5CpRealEcu.5CcR_LATEST.5Cmake.5Coutput.5Cobjects.5Cbusmsg.184::
                        2070 .LDWlin184:
000007b2 0232           2071 	mov	2,r6
000007b4 0a0601ff       2072 	addi	-255,r10,zero
000007b8 990d*          2073 	bnl	.L2887
                        2074 --line357
                        2075 ..lin.C.3A.5C_ECU2.5CECU_Rivian_A1.5CTarget.5Crepo_projects.5CpRealEcu.5CcR_LATEST.5Cmake.5Coutput.5Cobjects.5Cbusmsg.185::
                        2076 .LDWlin185:
000007ba 203eff00       2077 	movea	255,zero,r7
                        2078 	jarl	_BusMsgPutTyrePressUncomp,lp
                        2078 <EXPANSION BEGIN>
                        2078 jarl22 _BusMsgPutTyrePressUncomp , lp 
000007be bfff02f9*      2078 <EXPANSION END>
                        2079 --line360
                        2080 ..lin.C.3A.5C_ECU2.5CECU_Rivian_A1.5CTarget.5Crepo_projects.5CpRealEcu.5CcR_LATEST.5Cmake.5Coutput.5Cobjects.5Cbusmsg.186::
                        2081 .LDWlin186:
000007c2 0132           2082 	mov	1,r6
                        2083 	jarl	_BusMsgPutTyrePressValidHL,lp
                        2083 <EXPANSION BEGIN>
                        2083 jarl22 _BusMsgPutTyrePressValidHL , lp 
000007c4 bfffacf9*      2083 <EXPANSION END>
000007c8 f505*          2084 	br	.L2886
                        2085 .L2887:
000007ca 0a38           2086 	mov	r10,r7
                        2087 --line364
                        2088 ..lin.C.3A.5C_ECU2.5CECU_Rivian_A1.5CTarget.5Crepo_projects.5CpRealEcu.5CcR_LATEST.5Cmake.5Coutput.5Cobjects.5Cbusmsg.187::
                        2089 .LDWlin187:
                        2090 	jarl	_BusMsgPutTyrePressUncomp,lp
                        2090 <EXPANSION BEGIN>
                        2090 jarl22 _BusMsgPutTyrePressUncomp , lp 
000007cc bffff4f8*      2090 <EXPANSION END>
                        2091 --line367
                        2092 ..lin.C.3A.5C_ECU2.5CECU_Rivian_A1.5CTarget.5Crepo_projects.5CpRealEcu.5CcR_LATEST.5Cmake.5Coutput.5Cobjects.5Cbusmsg.188::
                        2093 .LDWlin188:
000007d0 0032           2094 	mov	0,r6
                        2095 	jarl	_BusMsgPutTyrePressValidHL,lp
                        2095 <EXPANSION BEGIN>
                        2095 jarl22 _BusMsgPutTyrePressValidHL , lp 
000007d2 bfff9ef9*      2095 <EXPANSION END>
                        2096 .L2886:
                        2097 --line371
                        2098 ..lin.C.3A.5C_ECU2.5CECU_Rivian_A1.5CTarget.5Crepo_projects.5CpRealEcu.5CcR_LATEST.5Cmake.5Coutput.5Cobjects.5Cbusmsg.189::

                                                                      Page 43
                                                              C:\Users\nhuliyap\AppData\Local\Temp\gh_0000en81.s
                        2099 .LDWlin189:
000007d6 0332           2100 	mov	3,r6
                        2101 	jarl	_ucGetIndexOfHistoryWP,lp
                        2101 <EXPANSION BEGIN>
                        2101 jarl22 _ucGetIndexOfHistoryWP , lp 
000007d8 80ff0000*      2101 <EXPANSION END>
000007dc 0a30           2102 	mov	r10,r6
                        2103 	jarl	_GETusFolgeAusfallCntSTATISTICS,lp
                        2103 <EXPANSION BEGIN>
                        2103 jarl22 _GETusFolgeAusfallCntSTATISTICS , lp 
000007de 80ff0000*      2103 <EXPANSION END>
000007e2 0ae8           2104 	mov	r10,r29
                        2105 --line374
                        2106 ..lin.C.3A.5C_ECU2.5CECU_Rivian_A1.5CTarget.5Crepo_projects.5CpRealEcu.5CcR_LATEST.5Cmake.5Coutput.5Cobjects.5Cbusmsg.190::
                        2107 .LDWlin190:
000007e4 0332           2108 	mov	3,r6
                        2109 	jarl	_GETbNoWarnPartSurv,lp
                        2109 <EXPANSION BEGIN>
                        2109 jarl22 _GETbNoWarnPartSurv , lp 
000007e6 bfffdaf9*      2109 <EXPANSION END>
000007ea 6152           2110 	cmp	1,r10
000007ec e215*          2111 	be	.L2891
000007ee 0032           2112 	mov	0,r6
                        2113 	jarl	_BusMsgGetTextflag,lp
                        2113 <EXPANSION BEGIN>
                        2113 jarl22 _BusMsgGetTextflag , lp 
000007f0 bfffbaf9*      2113 <EXPANSION END>
000007f4 6152           2114 	cmp	1,r10
000007f6 9215*          2115 	be	.L2891
000007f8 0232           2116 	mov	2,r6
                        2117 	jarl	_BusMsgGetTextflag,lp
                        2117 <EXPANSION BEGIN>
                        2117 jarl22 _BusMsgGetTextflag , lp 
000007fa bfffb0f9*      2117 <EXPANSION END>
000007fe 6152           2118 	cmp	1,r10
00000800 ca05*          2119 	bne	.L2892
00000802 1d067bff       2120 	addi	-133,r29,zero
00000806 910d*          2121 	bl	.L2891
                        2122 .L2892:
00000808 0332           2123 	mov	3,r6
                        2124 	jarl	_BusMsgGetTextflag,lp
                        2124 <EXPANSION BEGIN>
                        2124 jarl22 _BusMsgGetTextflag , lp 
0000080a bfffa0f9*      2124 <EXPANSION END>
0000080e 6152           2125 	cmp	1,r10
00000810 aa15*          2126 	bne	.L2890
00000812 1d067bff       2127 	addi	-133,r29,zero
00000816 f90d*          2128 	bnl	.L2890
                        2129 .L2891:
                        2130 --line379
                        2131 ..lin.C.3A.5C_ECU2.5CECU_Rivian_A1.5CTarget.5Crepo_projects.5CpRealEcu.5CcR_LATEST.5Cmake.5Coutput.5Cobjects.5Cbusmsg.191::
                        2132 .LDWlin191:
00000818 0332           2133 	mov	3,r6
0000081a 203eff00       2134 	movea	255,zero,r7
                        2135 	jarl	_BusMsgPutTyrePressUncomp,lp
                        2135 <EXPANSION BEGIN>
                        2135 jarl22 _BusMsgPutTyrePressUncomp , lp 
0000081e bfffa2f8*      2135 <EXPANSION END>
                        2136 --line382
                        2137 ..lin.C.3A.5C_ECU2.5CECU_Rivian_A1.5CTarget.5Crepo_projects.5CpRealEcu.5CcR_LATEST.5Cmake.5Coutput.5Cobjects.5Cbusmsg.192::
                        2138 .LDWlin192:

                                                                      Page 44
                                                              C:\Users\nhuliyap\AppData\Local\Temp\gh_0000en81.s
00000822 0a30           2139 	mov	r10,r6
                        2140 	jarl	_BusMsgPutTyrePressValidHR,lp
                        2140 <EXPANSION BEGIN>
                        2140 jarl22 _BusMsgPutTyrePressValidHR , lp 
00000824 bfff60f9*      2140 <EXPANSION END>
                        2141 --line384
                        2142 ..lin.C.3A.5C_ECU2.5CECU_Rivian_A1.5CTarget.5Crepo_projects.5CpRealEcu.5CcR_LATEST.5Cmake.5Coutput.5Cobjects.5Cbusmsg.193::
                        2143 .LDWlin193:
00000828 0332           2144 	mov	3,r6
0000082a 003a           2145 	mov	0,r7
                        2146 	jarl	_BusMsgPutWarning,lp
                        2146 <EXPANSION BEGIN>
                        2146 jarl22 _BusMsgPutWarning , lp 
0000082c bffff4f8*      2146 <EXPANSION END>
00000830 40067f00       2147 	dispose	0,{r29,r31},[lp]
                        2148 .L2890:
                        2149 --line389
                        2150 ..lin.C.3A.5C_ECU2.5CECU_Rivian_A1.5CTarget.5Crepo_projects.5CpRealEcu.5CcR_LATEST.5Cmake.5Coutput.5Cobjects.5Cbusmsg.194::
                        2151 .LDWlin194:
00000834 0332           2152 	mov	3,r6
                        2153 	jarl	_ucGetValidTyrePressureRelAtPosPD,lp
                        2153 <EXPANSION BEGIN>
                        2153 jarl22 _ucGetValidTyrePressureRelAtPosPD , lp 
00000836 80ff0000*      2153 <EXPANSION END>
                        2154 --line391
                        2155 ..lin.C.3A.5C_ECU2.5CECU_Rivian_A1.5CTarget.5Crepo_projects.5CpRealEcu.5CcR_LATEST.5Cmake.5Coutput.5Cobjects.5Cbusmsg.195::
                        2156 .LDWlin195:
0000083a 0332           2157 	mov	3,r6
0000083c 0a0601ff       2158 	addi	-255,r10,zero
00000840 a90d*          2159 	bnl	.L2898
                        2160 --line392
                        2161 ..lin.C.3A.5C_ECU2.5CECU_Rivian_A1.5CTarget.5Crepo_projects.5CpRealEcu.5CcR_LATEST.5Cmake.5Coutput.5Cobjects.5Cbusmsg.196::
                        2162 .LDWlin196:
00000842 203eff00       2163 	movea	255,zero,r7
                        2164 	jarl	_BusMsgPutTyrePressUncomp,lp
                        2164 <EXPANSION BEGIN>
                        2164 jarl22 _BusMsgPutTyrePressUncomp , lp 
00000846 bfff7af8*      2164 <EXPANSION END>
                        2165 --line395
                        2166 ..lin.C.3A.5C_ECU2.5CECU_Rivian_A1.5CTarget.5Crepo_projects.5CpRealEcu.5CcR_LATEST.5Cmake.5Coutput.5Cobjects.5Cbusmsg.197::
                        2167 .LDWlin197:
0000084a 0132           2168 	mov	1,r6
                        2169 	jarl	_BusMsgPutTyrePressValidHR,lp
                        2169 <EXPANSION BEGIN>
                        2169 jarl22 _BusMsgPutTyrePressValidHR , lp 
0000084c bfff38f9*      2169 <EXPANSION END>
00000850 40067f00       2170 	dispose	0,{r29,r31},[lp]
                        2171 .L2898:
00000854 0a38           2172 	mov	r10,r7
                        2173 --line399
                        2174 ..lin.C.3A.5C_ECU2.5CECU_Rivian_A1.5CTarget.5Crepo_projects.5CpRealEcu.5CcR_LATEST.5Cmake.5Coutput.5Cobjects.5Cbusmsg.198::
                        2175 .LDWlin198:
                        2176 	jarl	_BusMsgPutTyrePressUncomp,lp
                        2176 <EXPANSION BEGIN>
                        2176 jarl22 _BusMsgPutTyrePressUncomp , lp 
00000856 bfff6af8*      2176 <EXPANSION END>
                        2177 --line402
                        2178 ..lin.C.3A.5C_ECU2.5CECU_Rivian_A1.5CTarget.5Crepo_projects.5CpRealEcu.5CcR_LATEST.5Cmake.5Coutput.5Cobjects.5Cbusmsg.199::
                        2179 .LDWlin199:
0000085a 0032           2180 	mov	0,r6
                        2181 	jarl	_BusMsgPutTyrePressValidHR,lp

                                                                      Page 45
                                                              C:\Users\nhuliyap\AppData\Local\Temp\gh_0000en81.s
                        2181 <EXPANSION BEGIN>
                        2181 jarl22 _BusMsgPutTyrePressValidHR , lp 
0000085c bfff28f9*      2181 <EXPANSION END>
                        2182 --	    .ef
                        2183 .LDW76:
                        2184 --line406
                        2185 ..lin.C.3A.5C_ECU2.5CECU_Rivian_A1.5CTarget.5Crepo_projects.5CpRealEcu.5CcR_LATEST.5Cmake.5Coutput.5Cobjects.5Cbusmsg.200::
                        2186 .LDWlin200:
00000860 40067f00       2187 	dispose	0,{r29,r31},[lp]
                        2188 	.global	___ghs_eofn_BusMsgDoTeleFinished
                        2189 ___ghs_eofn_BusMsgDoTeleFinished:
                        2190 	.type	_BusMsgDoTeleFinished,@function
                        2191 	.size	_BusMsgDoTeleFinished,.-_BusMsgDoTeleFinished
                        2192 	.align	2
                        2193 --_ucTemp1	r7	local
                        2194 --_usTempNoRxTime	r29	local
                        2195 
                        2196 	.section ".bss","awb"
                        2197 .L3273:
                        2198 	.type	.L3273,@object
                        2199 	.size	.L3273,0
                        2200 	.data
                        2201 	.text
                        2202 	.align	2
                        2203 	.align	2
                        2204 ..gh.f.f.1.e.29:
                        2205 	.type	..gh.f.f.1.e.29,@object
                        2206 	.size	..gh.f.f.1.e.29,0
                        2207 	.global	_BusMsgDetermineTemperatures
                        2208 _BusMsgDetermineTemperatures:
00000864 80076100       2209 	prepare	{r29,r31},0
                        2210 --	    .bf
                        2211 .LDW86:
                        2212 	jarl	_BusMsgTemperatureClear,lp
                        2212 <EXPANSION BEGIN>
                        2212 jarl22 _BusMsgTemperatureClear , lp 
00000868 bfff08f8*      2212 <EXPANSION END>
                        2213 --line413
                        2214 ..lin.C.3A.5C_ECU2.5CECU_Rivian_A1.5CTarget.5Crepo_projects.5CpRealEcu.5CcR_LATEST.5Cmake.5Coutput.5Cobjects.5Cbusmsg.201::
                        2215 .LDWlin201:
                        2216 	jarl	_GetSystem_DefectECUState,lp
                        2216 <EXPANSION BEGIN>
                        2216 jarl22 _GetSystem_DefectECUState , lp 
0000086c 80ff0000*      2216 <EXPANSION END>
00000870 6152           2217 	cmp	1,r10
00000872 c21d*          2218 	be	.L3815
00000874 20360110       2219 	movea	4097,zero,r6
                        2220 	jarl	_ushGetBetriebszustandBZ,lp
                        2220 <EXPANSION BEGIN>
                        2220 jarl22 _ushGetBetriebszustandBZ , lp 
00000878 80ff0000*      2220 <EXPANSION END>
0000087c 0a0600f0       2221 	addi	-4096,r10,zero
00000880 d215*          2222 	be	.L3815
00000882 20361300       2223 	movea	19,zero,r6
                        2224 	jarl	_DTC_GetActiveStatusOfDTC,lp
                        2224 <EXPANSION BEGIN>
                        2224 jarl22 _DTC_GetActiveStatusOfDTC , lp 
00000886 80ff0000*      2224 <EXPANSION END>
0000088a 6152           2225 	cmp	1,r10
0000088c e2370433       2226 	cmove	2,r6,r6
00000890 8215*          2227 	be	.L3944

                                                                      Page 46
                                                              C:\Users\nhuliyap\AppData\Local\Temp\gh_0000en81.s
                        2228 --line421
                        2229 ..lin.C.3A.5C_ECU2.5CECU_Rivian_A1.5CTarget.5Crepo_projects.5CpRealEcu.5CcR_LATEST.5Cmake.5Coutput.5Cobjects.5Cbusmsg.202::
                        2230 .LDWlin202:
                        2231 	jarl	_GETbHfIntLatchEE,lp
                        2231 <EXPANSION BEGIN>
                        2231 jarl22 _GETbHfIntLatchEE , lp 
00000892 80ff0000*      2231 <EXPANSION END>
00000896 6152           2232 	cmp	1,r10
00000898 b20d*          2233 	be	.L3820
0000089a 20361700       2234 	movea	23,zero,r6
                        2235 	jarl	_DTC_GetActiveStatusOfDTC,lp
                        2235 <EXPANSION BEGIN>
                        2235 jarl22 _DTC_GetActiveStatusOfDTC , lp 
0000089e 80ff0000*      2235 <EXPANSION END>
000008a2 6152           2236 	cmp	1,r10
000008a4 9a0d*          2237 	bne	.L3818
000008a6 0332           2238 	mov	3,r6
000008a8 c505*          2239 	br	.L3944
                        2240 .L3815:
                        2241 --line416
                        2242 ..lin.C.3A.5C_ECU2.5CECU_Rivian_A1.5CTarget.5Crepo_projects.5CpRealEcu.5CcR_LATEST.5Cmake.5Coutput.5Cobjects.5Cbusmsg.203::
                        2243 .LDWlin203:
000008aa 0232           2244 	mov	2,r6
000008ac a505*          2245 	br	.L3944
                        2246 .L3820:
                        2247 --line423
                        2248 ..lin.C.3A.5C_ECU2.5CECU_Rivian_A1.5CTarget.5Crepo_projects.5CpRealEcu.5CcR_LATEST.5Cmake.5Coutput.5Cobjects.5Cbusmsg.204::
                        2249 .LDWlin204:
000008ae 0332           2250 	mov	3,r6
                        2251 .L3944:
000008b0 013a           2252 	mov	1,r7
                        2253 	jarl	_BusMsgPutTextflag,lp
                        2253 <EXPANSION BEGIN>
                        2253 jarl22 _BusMsgPutTextflag , lp 
000008b2 bfffe6f8*      2253 <EXPANSION END>
                        2254 .L3818:
                        2255 --line428
                        2256 ..lin.C.3A.5C_ECU2.5CECU_Rivian_A1.5CTarget.5Crepo_projects.5CpRealEcu.5CcR_LATEST.5Cmake.5Coutput.5Cobjects.5Cbusmsg.205::
                        2257 .LDWlin205:
                        2258 	jarl	_BusMsgDetermineErrCounter,lp
                        2258 <EXPANSION BEGIN>
                        2258 jarl22 _BusMsgDetermineErrCounter , lp 
000008b6 bfff5af9*      2258 <EXPANSION END>
                        2259 --line429
                        2260 ..lin.C.3A.5C_ECU2.5CECU_Rivian_A1.5CTarget.5Crepo_projects.5CpRealEcu.5CcR_LATEST.5Cmake.5Coutput.5Cobjects.5Cbusmsg.206::
                        2261 .LDWlin206:
000008ba 6152           2262 	cmp	1,r10
000008bc d305*          2263 	bnh	.L3822
                        2264 --line430
                        2265 ..lin.C.3A.5C_ECU2.5CECU_Rivian_A1.5CTarget.5Crepo_projects.5CpRealEcu.5CcR_LATEST.5Cmake.5Coutput.5Cobjects.5Cbusmsg.207::
                        2266 .LDWlin207:
000008be 0032           2267 	mov	0,r6
000008c0 013a           2268 	mov	1,r7
                        2269 	jarl	_BusMsgPutTextflag,lp
                        2269 <EXPANSION BEGIN>
                        2269 jarl22 _BusMsgPutTextflag , lp 
000008c2 bfffd6f8*      2269 <EXPANSION END>
                        2270 .L3822:
                        2271 --line434
                        2272 ..lin.C.3A.5C_ECU2.5CECU_Rivian_A1.5CTarget.5Crepo_projects.5CpRealEcu.5CcR_LATEST.5Cmake.5Coutput.5Cobjects.5Cbusmsg.208::
                        2273 .LDWlin208:

                                                                      Page 47
                                                              C:\Users\nhuliyap\AppData\Local\Temp\gh_0000en81.s
000008c6 0032           2274 	mov	0,r6
                        2275 	jarl	_ucGetIndexOfHistoryWP,lp
                        2275 <EXPANSION BEGIN>
                        2275 jarl22 _ucGetIndexOfHistoryWP , lp 
000008c8 80ff0000*      2275 <EXPANSION END>
000008cc 0a30           2276 	mov	r10,r6
                        2277 	jarl	_GETusFolgeAusfallCntSTATISTICS,lp
                        2277 <EXPANSION BEGIN>
                        2277 jarl22 _GETusFolgeAusfallCntSTATISTICS , lp 
000008ce 80ff0000*      2277 <EXPANSION END>
000008d2 0ae8           2278 	mov	r10,r29
                        2279 --line437
                        2280 ..lin.C.3A.5C_ECU2.5CECU_Rivian_A1.5CTarget.5Crepo_projects.5CpRealEcu.5CcR_LATEST.5Cmake.5Coutput.5Cobjects.5Cbusmsg.209::
                        2281 .LDWlin209:
000008d4 0032           2282 	mov	0,r6
                        2283 	jarl	_GETbNoWarnPartSurv,lp
                        2283 <EXPANSION BEGIN>
                        2283 jarl22 _GETbNoWarnPartSurv , lp 
000008d6 bfffeaf8*      2283 <EXPANSION END>
000008da 6152           2284 	cmp	1,r10
000008dc e215*          2285 	be	.L3825
000008de 0032           2286 	mov	0,r6
                        2287 	jarl	_BusMsgGetTextflag,lp
                        2287 <EXPANSION BEGIN>
                        2287 jarl22 _BusMsgGetTextflag , lp 
000008e0 bfffcaf8*      2287 <EXPANSION END>
000008e4 6152           2288 	cmp	1,r10
000008e6 9215*          2289 	be	.L3825
000008e8 0232           2290 	mov	2,r6
                        2291 	jarl	_BusMsgGetTextflag,lp
                        2291 <EXPANSION BEGIN>
                        2291 jarl22 _BusMsgGetTextflag , lp 
000008ea bfffc0f8*      2291 <EXPANSION END>
000008ee 6152           2292 	cmp	1,r10
000008f0 ca05*          2293 	bne	.L3826
000008f2 1d067bff       2294 	addi	-133,r29,zero
000008f6 910d*          2295 	bl	.L3825
                        2296 .L3826:
000008f8 0332           2297 	mov	3,r6
                        2298 	jarl	_BusMsgGetTextflag,lp
                        2298 <EXPANSION BEGIN>
                        2298 jarl22 _BusMsgGetTextflag , lp 
000008fa bfffb0f8*      2298 <EXPANSION END>
000008fe 6152           2299 	cmp	1,r10
00000900 fa05*          2300 	bne	.L3824
00000902 1d067bff       2301 	addi	-133,r29,zero
00000906 c905*          2302 	bnl	.L3824
                        2303 .L3825:
                        2304 --line442
                        2305 ..lin.C.3A.5C_ECU2.5CECU_Rivian_A1.5CTarget.5Crepo_projects.5CpRealEcu.5CcR_LATEST.5Cmake.5Coutput.5Cobjects.5Cbusmsg.210::
                        2306 .LDWlin210:
00000908 203eff00       2307 	movea	255,zero,r7
0000090c d505*          2308 	br	.L3831
                        2309 .L3824:
                        2310 --line447
                        2311 ..lin.C.3A.5C_ECU2.5CECU_Rivian_A1.5CTarget.5Crepo_projects.5CpRealEcu.5CcR_LATEST.5Cmake.5Coutput.5Cobjects.5Cbusmsg.211::
                        2312 .LDWlin211:
0000090e 0032           2313 	mov	0,r6
                        2314 	jarl	_ucGetValidTemperatureRelAtPosPD,lp
                        2314 <EXPANSION BEGIN>
                        2314 jarl22 _ucGetValidTemperatureRelAtPosPD , lp 

                                                                      Page 48
                                                              C:\Users\nhuliyap\AppData\Local\Temp\gh_0000en81.s
00000910 80ff0000*      2314 <EXPANSION END>
                        2315 --line449
                        2316 ..lin.C.3A.5C_ECU2.5CECU_Rivian_A1.5CTarget.5Crepo_projects.5CpRealEcu.5CcR_LATEST.5Cmake.5Coutput.5Cobjects.5Cbusmsg.212::
                        2317 .LDWlin212:
00000914 0a38           2318 	mov	r10,r7
                        2319 .L3831:
00000916 0032           2320 	mov	0,r6
                        2321 	jarl	_BusMsgPutTemperature,lp
                        2321 <EXPANSION BEGIN>
                        2321 jarl22 _BusMsgPutTemperature , lp 
00000918 bfff7ef7*      2321 <EXPANSION END>
0000091c 0132           2322 	mov	1,r6
                        2323 	jarl	_ucGetIndexOfHistoryWP,lp
                        2323 <EXPANSION BEGIN>
                        2323 jarl22 _ucGetIndexOfHistoryWP , lp 
0000091e 80ff0000*      2323 <EXPANSION END>
00000922 0a30           2324 	mov	r10,r6
                        2325 	jarl	_GETusFolgeAusfallCntSTATISTICS,lp
                        2325 <EXPANSION BEGIN>
                        2325 jarl22 _GETusFolgeAusfallCntSTATISTICS , lp 
00000924 80ff0000*      2325 <EXPANSION END>
00000928 0ae8           2326 	mov	r10,r29
                        2327 --line456
                        2328 ..lin.C.3A.5C_ECU2.5CECU_Rivian_A1.5CTarget.5Crepo_projects.5CpRealEcu.5CcR_LATEST.5Cmake.5Coutput.5Cobjects.5Cbusmsg.213::
                        2329 .LDWlin213:
0000092a 0132           2330 	mov	1,r6
                        2331 	jarl	_GETbNoWarnPartSurv,lp
                        2331 <EXPANSION BEGIN>
                        2331 jarl22 _GETbNoWarnPartSurv , lp 
0000092c bfff94f8*      2331 <EXPANSION END>
00000930 6152           2332 	cmp	1,r10
00000932 e215*          2333 	be	.L3833
00000934 0032           2334 	mov	0,r6
                        2335 	jarl	_BusMsgGetTextflag,lp
                        2335 <EXPANSION BEGIN>
                        2335 jarl22 _BusMsgGetTextflag , lp 
00000936 bfff74f8*      2335 <EXPANSION END>
0000093a 6152           2336 	cmp	1,r10
0000093c 9215*          2337 	be	.L3833
0000093e 0232           2338 	mov	2,r6
                        2339 	jarl	_BusMsgGetTextflag,lp
                        2339 <EXPANSION BEGIN>
                        2339 jarl22 _BusMsgGetTextflag , lp 
00000940 bfff6af8*      2339 <EXPANSION END>
00000944 6152           2340 	cmp	1,r10
00000946 ca05*          2341 	bne	.L3834
00000948 1d067bff       2342 	addi	-133,r29,zero
0000094c 910d*          2343 	bl	.L3833
                        2344 .L3834:
0000094e 0332           2345 	mov	3,r6
                        2346 	jarl	_BusMsgGetTextflag,lp
                        2346 <EXPANSION BEGIN>
                        2346 jarl22 _BusMsgGetTextflag , lp 
00000950 bfff5af8*      2346 <EXPANSION END>
00000954 6152           2347 	cmp	1,r10
00000956 fa05*          2348 	bne	.L3832
00000958 1d067bff       2349 	addi	-133,r29,zero
0000095c c905*          2350 	bnl	.L3832
                        2351 .L3833:
                        2352 --line461
                        2353 ..lin.C.3A.5C_ECU2.5CECU_Rivian_A1.5CTarget.5Crepo_projects.5CpRealEcu.5CcR_LATEST.5Cmake.5Coutput.5Cobjects.5Cbusmsg.214::

                                                                      Page 49
                                                              C:\Users\nhuliyap\AppData\Local\Temp\gh_0000en81.s
                        2354 .LDWlin214:
0000095e 203eff00       2355 	movea	255,zero,r7
00000962 d505*          2356 	br	.L3839
                        2357 .L3832:
                        2358 --line466
                        2359 ..lin.C.3A.5C_ECU2.5CECU_Rivian_A1.5CTarget.5Crepo_projects.5CpRealEcu.5CcR_LATEST.5Cmake.5Coutput.5Cobjects.5Cbusmsg.215::
                        2360 .LDWlin215:
00000964 0132           2361 	mov	1,r6
                        2362 	jarl	_ucGetValidTemperatureRelAtPosPD,lp
                        2362 <EXPANSION BEGIN>
                        2362 jarl22 _ucGetValidTemperatureRelAtPosPD , lp 
00000966 80ff0000*      2362 <EXPANSION END>
                        2363 --line468
                        2364 ..lin.C.3A.5C_ECU2.5CECU_Rivian_A1.5CTarget.5Crepo_projects.5CpRealEcu.5CcR_LATEST.5Cmake.5Coutput.5Cobjects.5Cbusmsg.216::
                        2365 .LDWlin216:
0000096a 0a38           2366 	mov	r10,r7
                        2367 .L3839:
0000096c 0132           2368 	mov	1,r6
                        2369 	jarl	_BusMsgPutTemperature,lp
                        2369 <EXPANSION BEGIN>
                        2369 jarl22 _BusMsgPutTemperature , lp 
0000096e bfff28f7*      2369 <EXPANSION END>
00000972 0232           2370 	mov	2,r6
                        2371 	jarl	_ucGetIndexOfHistoryWP,lp
                        2371 <EXPANSION BEGIN>
                        2371 jarl22 _ucGetIndexOfHistoryWP , lp 
00000974 80ff0000*      2371 <EXPANSION END>
00000978 0a30           2372 	mov	r10,r6
                        2373 	jarl	_GETusFolgeAusfallCntSTATISTICS,lp
                        2373 <EXPANSION BEGIN>
                        2373 jarl22 _GETusFolgeAusfallCntSTATISTICS , lp 
0000097a 80ff0000*      2373 <EXPANSION END>
0000097e 0ae8           2374 	mov	r10,r29
                        2375 --line475
                        2376 ..lin.C.3A.5C_ECU2.5CECU_Rivian_A1.5CTarget.5Crepo_projects.5CpRealEcu.5CcR_LATEST.5Cmake.5Coutput.5Cobjects.5Cbusmsg.217::
                        2377 .LDWlin217:
00000980 0232           2378 	mov	2,r6
                        2379 	jarl	_GETbNoWarnPartSurv,lp
                        2379 <EXPANSION BEGIN>
                        2379 jarl22 _GETbNoWarnPartSurv , lp 
00000982 bfff3ef8*      2379 <EXPANSION END>
00000986 6152           2380 	cmp	1,r10
00000988 e215*          2381 	be	.L3841
0000098a 0032           2382 	mov	0,r6
                        2383 	jarl	_BusMsgGetTextflag,lp
                        2383 <EXPANSION BEGIN>
                        2383 jarl22 _BusMsgGetTextflag , lp 
0000098c bfff1ef8*      2383 <EXPANSION END>
00000990 6152           2384 	cmp	1,r10
00000992 9215*          2385 	be	.L3841
00000994 0232           2386 	mov	2,r6
                        2387 	jarl	_BusMsgGetTextflag,lp
                        2387 <EXPANSION BEGIN>
                        2387 jarl22 _BusMsgGetTextflag , lp 
00000996 bfff14f8*      2387 <EXPANSION END>
0000099a 6152           2388 	cmp	1,r10
0000099c ca05*          2389 	bne	.L3842
0000099e 1d067bff       2390 	addi	-133,r29,zero
000009a2 910d*          2391 	bl	.L3841
                        2392 .L3842:
000009a4 0332           2393 	mov	3,r6

                                                                      Page 50
                                                              C:\Users\nhuliyap\AppData\Local\Temp\gh_0000en81.s
                        2394 	jarl	_BusMsgGetTextflag,lp
                        2394 <EXPANSION BEGIN>
                        2394 jarl22 _BusMsgGetTextflag , lp 
000009a6 bfff04f8*      2394 <EXPANSION END>
000009aa 6152           2395 	cmp	1,r10
000009ac fa05*          2396 	bne	.L3840
000009ae 1d067bff       2397 	addi	-133,r29,zero
000009b2 c905*          2398 	bnl	.L3840
                        2399 .L3841:
                        2400 --line480
                        2401 ..lin.C.3A.5C_ECU2.5CECU_Rivian_A1.5CTarget.5Crepo_projects.5CpRealEcu.5CcR_LATEST.5Cmake.5Coutput.5Cobjects.5Cbusmsg.218::
                        2402 .LDWlin218:
000009b4 203eff00       2403 	movea	255,zero,r7
000009b8 d505*          2404 	br	.L3847
                        2405 .L3840:
                        2406 --line485
                        2407 ..lin.C.3A.5C_ECU2.5CECU_Rivian_A1.5CTarget.5Crepo_projects.5CpRealEcu.5CcR_LATEST.5Cmake.5Coutput.5Cobjects.5Cbusmsg.219::
                        2408 .LDWlin219:
000009ba 0232           2409 	mov	2,r6
                        2410 	jarl	_ucGetValidTemperatureRelAtPosPD,lp
                        2410 <EXPANSION BEGIN>
                        2410 jarl22 _ucGetValidTemperatureRelAtPosPD , lp 
000009bc 80ff0000*      2410 <EXPANSION END>
                        2411 --line487
                        2412 ..lin.C.3A.5C_ECU2.5CECU_Rivian_A1.5CTarget.5Crepo_projects.5CpRealEcu.5CcR_LATEST.5Cmake.5Coutput.5Cobjects.5Cbusmsg.220::
                        2413 .LDWlin220:
000009c0 0a38           2414 	mov	r10,r7
                        2415 .L3847:
000009c2 0232           2416 	mov	2,r6
                        2417 	jarl	_BusMsgPutTemperature,lp
                        2417 <EXPANSION BEGIN>
                        2417 jarl22 _BusMsgPutTemperature , lp 
000009c4 bfffd2f6*      2417 <EXPANSION END>
000009c8 0332           2418 	mov	3,r6
                        2419 	jarl	_ucGetIndexOfHistoryWP,lp
                        2419 <EXPANSION BEGIN>
                        2419 jarl22 _ucGetIndexOfHistoryWP , lp 
000009ca 80ff0000*      2419 <EXPANSION END>
000009ce 0a30           2420 	mov	r10,r6
                        2421 	jarl	_GETusFolgeAusfallCntSTATISTICS,lp
                        2421 <EXPANSION BEGIN>
                        2421 jarl22 _GETusFolgeAusfallCntSTATISTICS , lp 
000009d0 80ff0000*      2421 <EXPANSION END>
000009d4 0ae8           2422 	mov	r10,r29
                        2423 --line494
                        2424 ..lin.C.3A.5C_ECU2.5CECU_Rivian_A1.5CTarget.5Crepo_projects.5CpRealEcu.5CcR_LATEST.5Cmake.5Coutput.5Cobjects.5Cbusmsg.221::
                        2425 .LDWlin221:
000009d6 0332           2426 	mov	3,r6
                        2427 	jarl	_GETbNoWarnPartSurv,lp
                        2427 <EXPANSION BEGIN>
                        2427 jarl22 _GETbNoWarnPartSurv , lp 
000009d8 bfffe8f7*      2427 <EXPANSION END>
000009dc 6152           2428 	cmp	1,r10
000009de e215*          2429 	be	.L3849
000009e0 0032           2430 	mov	0,r6
                        2431 	jarl	_BusMsgGetTextflag,lp
                        2431 <EXPANSION BEGIN>
                        2431 jarl22 _BusMsgGetTextflag , lp 
000009e2 bfffc8f7*      2431 <EXPANSION END>
000009e6 6152           2432 	cmp	1,r10
000009e8 9215*          2433 	be	.L3849

                                                                      Page 51
                                                              C:\Users\nhuliyap\AppData\Local\Temp\gh_0000en81.s
000009ea 0232           2434 	mov	2,r6
                        2435 	jarl	_BusMsgGetTextflag,lp
                        2435 <EXPANSION BEGIN>
                        2435 jarl22 _BusMsgGetTextflag , lp 
000009ec bfffbef7*      2435 <EXPANSION END>
000009f0 6152           2436 	cmp	1,r10
000009f2 ca05*          2437 	bne	.L3850
000009f4 1d067bff       2438 	addi	-133,r29,zero
000009f8 910d*          2439 	bl	.L3849
                        2440 .L3850:
000009fa 0332           2441 	mov	3,r6
                        2442 	jarl	_BusMsgGetTextflag,lp
                        2442 <EXPANSION BEGIN>
                        2442 jarl22 _BusMsgGetTextflag , lp 
000009fc bfffaef7*      2442 <EXPANSION END>
00000a00 6152           2443 	cmp	1,r10
00000a02 fa05*          2444 	bne	.L3848
00000a04 1d067bff       2445 	addi	-133,r29,zero
00000a08 c905*          2446 	bnl	.L3848
                        2447 .L3849:
                        2448 --line499
                        2449 ..lin.C.3A.5C_ECU2.5CECU_Rivian_A1.5CTarget.5Crepo_projects.5CpRealEcu.5CcR_LATEST.5Cmake.5Coutput.5Cobjects.5Cbusmsg.222::
                        2450 .LDWlin222:
00000a0a 203eff00       2451 	movea	255,zero,r7
00000a0e d505*          2452 	br	.L3945
                        2453 .L3848:
                        2454 --line504
                        2455 ..lin.C.3A.5C_ECU2.5CECU_Rivian_A1.5CTarget.5Crepo_projects.5CpRealEcu.5CcR_LATEST.5Cmake.5Coutput.5Cobjects.5Cbusmsg.223::
                        2456 .LDWlin223:
00000a10 0332           2457 	mov	3,r6
                        2458 	jarl	_ucGetValidTemperatureRelAtPosPD,lp
                        2458 <EXPANSION BEGIN>
                        2458 jarl22 _ucGetValidTemperatureRelAtPosPD , lp 
00000a12 80ff0000*      2458 <EXPANSION END>
                        2459 --line506
                        2460 ..lin.C.3A.5C_ECU2.5CECU_Rivian_A1.5CTarget.5Crepo_projects.5CpRealEcu.5CcR_LATEST.5Cmake.5Coutput.5Cobjects.5Cbusmsg.224::
                        2461 .LDWlin224:
00000a16 0a38           2462 	mov	r10,r7
                        2463 .L3945:
00000a18 0332           2464 	mov	3,r6
                        2465 	jarl	_BusMsgPutTemperature,lp
                        2465 <EXPANSION BEGIN>
                        2465 jarl22 _BusMsgPutTemperature , lp 
00000a1a bfff7cf6*      2465 <EXPANSION END>
                        2466 --	    .ef
                        2467 .LDW96:
                        2468 --line510
                        2469 ..lin.C.3A.5C_ECU2.5CECU_Rivian_A1.5CTarget.5Crepo_projects.5CpRealEcu.5CcR_LATEST.5Cmake.5Coutput.5Cobjects.5Cbusmsg.225::
                        2470 .LDWlin225:
00000a1e 40067f00       2471 	dispose	0,{r29,r31},[lp]
                        2472 	.global	___ghs_eofn_BusMsgDetermineTemperatures
                        2473 ___ghs_eofn_BusMsgDetermineTemperatures:
                        2474 	.type	_BusMsgDetermineTemperatures,@function
                        2475 	.size	_BusMsgDetermineTemperatures,.-_BusMsgDetermineTemperatures
                        2476 	.align	2
                        2477 --_usTempNoRxTime	r29	local
                        2478 
                        2479 	.section ".bss","awb"
                        2480 .L4126:
                        2481 	.type	.L4126,@object
                        2482 	.size	.L4126,0

                                                                      Page 52
                                                              C:\Users\nhuliyap\AppData\Local\Temp\gh_0000en81.s
                        2483 	.data
                        2484 	.text
                        2485 	.align	2
                        2486 --_aucWheelPosWarn	_aucWheelPosWarn	import
                        2487 --_ucTyreTemperature	_ucTyreTemperature	static
                        2488 --_ucTyrePressUncomp	_ucTyrePressUncomp	static
                        2489 --_ucTyreWarning	_ucTyreWarning	static
                        2490 --_ucTyreTemperatureWarning	_ucTyreTemperatureWarning	static
                        2491 --_bTyreValidVL	_bTyreValidVL	static
                        2492 --_bTyreValidVR	_bTyreValidVR	static
                        2493 --_bTyreValidHL	_bTyreValidHL	static
                        2494 --_bTyreValidHR	_bTyreValidHR	static
                        2495 --_bTextFlags	_bTextFlags	static
                        2496 
                        2497 	.data
                        2498 	.ghsnote version,17
                        2499 	.ghsnote tools,3
                        2500 	.ghsnote options,144
                        2501 	.text
                        2502 	.align	2
                        2503 ..eof.C.3A.5C_ECU2.5CECU_Rivian_A1.5CTarget.5Crepo_projects.5CpRealEcu.5CcR_LATEST.5Cmake.5Coutput.5Cobjects.5Cbusmsg...43.3A.5C_ECU2.5CECU_Rivian_A1.5CTarget.5Crepo_projects.5CpRealEcu.5CcR_LATEST.5Cmake..65044756..0::
                        2504 	.section	.debug_info
                        2505 .Ldw_begin:
00000000 a2140000       2506 	.word	.Ldw_end-.Ldw_begin-4
00000004 0200           2507 	.byte	2,0
00000006 00000000*      2508 	.word	.Ldw_abbr_begin
0000000a 04             2509 	.byte	4
                        2510 	.section	.debug_abbrev
                        2511 .Ldw_abbr_begin:
                        2512 	.section	.debug_info
0000000b 01             2513 	.byte	1
0000000c 00000000*      2514 	.word	..bof.C.3A.5C_ECU2.5CECU_Rivian_A1.5CTarget.5Crepo_projects.5CpRealEcu.5CcR_LATEST.5Cmake.5Coutput.5Cobjects.5Cbusmsg...43.3A.5C_ECU2.5CECU_Rivian_A1.5CTarget.5Crepo_projects.5CpRealEcu.5CcR_LATEST.5Cmake..65044756..0
00000010 00000000*      2515 	.word	..eof.C.3A.5C_ECU2.5CECU_Rivian_A1.5CTarget.5Crepo_projects.5CpRealEcu.5CcR_LATEST.5Cmake.5Coutput.5Cobjects.5Cbusmsg...43.3A.5C_ECU2.5CECU_Rivian_A1.5CTarget.5Crepo_projects.5CpRealEcu.5CcR_LATEST.5Cmake..65044756..0
00000014 2e2e2f736f75   2516 	.strz	"../source/SwcApplTpms/busmsg.c"
0000001a 7263652f5377 
00000020 634170706c54 
00000026 706d732f6275 
0000002c 736d73672e63 
00000032 00 
00000033 433a5c5f4543   2517 	.strz	"C:\\_ECU2\\ECU_Rivian_A1\\Target\\repo_projects\\pRealEcu\\cR_LATEST\\make"
00000039 55325c454355 
0000003f 5f5269766961 
00000045 6e5f41315c54 
0000004b 61726765745c 
00000051 7265706f5f70 
00000057 726f6a656374 
0000005d 735c70526561 
00000063 6c4563755c63 
00000069 525f4c415445 
0000006f 53545c6d616b 
00000075 6500 
00000077 474853204320   2518 	.strz	"GHS C 2015.1.7 [dual]"
0000007d 323031352e31 
00000083 2e37205b6475 
00000089 616c5d00 
0000008d 0100           2519 	.byte	1,0
0000008f 00000000*      2520 	.word	.Ldw_line_begin
00000093 00000000*      2521 	.word	.Ldw_macinfo_begin
00000097 00             2522 	.byte	0
                        2523 
                        2524 	.section	.debug_abbrev

                                                                      Page 53
                                                              C:\Users\nhuliyap\AppData\Local\Temp\gh_0000en81.s
00000000 01             2525 	.byte	1
00000001 11             2526 	.byte	17
00000002 01             2527 	.byte	1
00000003 1101           2528 	.byte	17,1
00000005 1201           2529 	.byte	18,1
00000007 0308           2530 	.byte	3,8
00000009 1b08           2531 	.byte	27,8
0000000b 2508           2532 	.byte	37,8
0000000d 1305           2533 	.byte	19,5
0000000f 1006           2534 	.byte	16,6
00000011 4306           2535 	.byte	67,6
00000013 420b           2536 	.byte	66,11
00000015 0000           2537 	.byte	0,0
                        2538 
                        2539 	.section	.debug_line
                        2540 .Ldw_line_begin:
00000000 bb0f0000       2541 	.word	.Ldw_line_end-.Ldw_line_begin-4
00000004 0200           2542 	.byte	2,0
00000006 00000000*      2543 	.word	.Ldw_lpro_end-.Ldw_lpro_begin
                        2544 .Ldw_lpro_begin:
0000000a 01             2545 	.byte	1
0000000b 00             2546 	.byte	0
0000000c 00             2547 	.byte	0
0000000d 04             2548 	.byte	4
0000000e 0a             2549 	.byte	10
0000000f 000101         2550 	.byte	0,1,1
00000012 010100         2551 	.byte	1,1,0
00000015 000001         2552 	.byte	0,0,1
00000018 00             2553 	.byte	0
00000019 2e2e2f736f75   2554 	.strz	"../source/SwcApplTpms/busmsg.c"
0000001f 7263652f5377 
00000025 634170706c54 
0000002b 706d732f6275 
00000031 736d73672e63 
00000037 00 
00000038 000000         2555 	.byte	0,0,0
0000003b 2e2e2f736f75   2556 	.strz	"../source/common/Std_Types.hpp"
00000041 7263652f636f 
00000047 6d6d6f6e2f53 
0000004d 74645f547970 
00000053 65732e687070 
00000059 00 
0000005a 000000         2557 	.byte	0,0,0
0000005d 2e2e2f736f75   2558 	.strz	"../source/common/Platform_Types.hpp"
00000063 7263652f636f 
00000069 6d6d6f6e2f50 
0000006f 6c6174666f72 
00000075 6d5f54797065 
0000007b 732e68707000 
00000081 000000         2559 	.byte	0,0,0
00000084 2e2e2f736f75   2560 	.strz	"../source/common/Compiler.hpp"
0000008a 7263652f636f 
00000090 6d6d6f6e2f43 
00000096 6f6d70696c65 
0000009c 722e68707000 
000000a2 000000         2561 	.byte	0,0,0
000000a5 2e2e2f736f75   2562 	.strz	"../source/ProjectCompiler/Compiler_Cfg.hpp"
000000ab 7263652f5072 
000000b1 6f6a65637443 
000000b7 6f6d70696c65 
000000bd 722f436f6d70 

                                                                      Page 54
                                                              C:\Users\nhuliyap\AppData\Local\Temp\gh_0000en81.s
000000c3 696c65725f43 
000000c9 66672e687070 
000000cf 00 
000000d0 000000         2563 	.byte	0,0,0
000000d3 2e2e2f736f75   2564 	.strz	"../source/ProjectCompiler/CompilerCfg_SwcServiceOs.hpp"
000000d9 7263652f5072 
000000df 6f6a65637443 
000000e5 6f6d70696c65 
000000eb 722f436f6d70 
000000f1 696c65724366 
000000f7 675f53776353 
000000fd 657276696365 
00000103 4f732e687070 
00000109 00 
0000010a 000000         2565 	.byte	0,0,0
0000010d 2e2e2f736f75   2566 	.strz	"../source/SwcApplTpms/iTpms_Interface.hpp"
00000113 7263652f5377 
00000119 634170706c54 
0000011f 706d732f6954 
00000125 706d735f496e 
0000012b 746572666163 
00000131 652e68707000 
00000137 000000         2567 	.byte	0,0,0
0000013a 2e2e2f736f75   2568 	.strz	"../source/SwcApplTpms/Tpms_Rte_Data_Type.hpp"
00000140 7263652f5377 
00000146 634170706c54 
0000014c 706d732f5470 
00000152 6d735f527465 
00000158 5f446174615f 
0000015e 547970652e68 
00000164 707000 
00000167 000000         2569 	.byte	0,0,0
0000016a 2e2e2f736f75   2570 	.strz	"../source/McalMcu/Types.hpp"
00000170 7263652f4d63 
00000176 616c4d63752f 
0000017c 54797065732e 
00000182 68707000 
00000186 000000         2571 	.byte	0,0,0
00000189 2e2e2f736f75   2572 	.strz	"../source/SwcApplTpms/SwcApplTpms_Rte.hpp"
0000018f 7263652f5377 
00000195 634170706c54 
0000019b 706d732f5377 
000001a1 634170706c54 
000001a7 706d735f5274 
000001ad 652e68707000 
000001b3 000000         2573 	.byte	0,0,0
000001b6 2e2e2f736f75   2574 	.strz	"../source/SwcApplTpms/SwcApplTpms_Rte_Type.hpp"
000001bc 7263652f5377 
000001c2 634170706c54 
000001c8 706d732f5377 
000001ce 634170706c54 
000001d4 706d735f5274 
000001da 655f54797065 
000001e0 2e68707000 
000001e5 000000         2575 	.byte	0,0,0
000001e8 2e2e2f736f75   2576 	.strz	"../source/ProjectCfg/SwcApplTpms_NvM_If.hpp"
000001ee 7263652f5072 
000001f4 6f6a65637443 
000001fa 66672f537763 
00000200 4170706c5470 
00000206 6d735f4e764d 

                                                                      Page 55
                                                              C:\Users\nhuliyap\AppData\Local\Temp\gh_0000en81.s
0000020c 5f49662e6870 
00000212 7000 
00000214 000000         2577 	.byte	0,0,0
00000217 2e2e2f736f75   2578 	.strz	"../source/SwcApplTpms/WallocX.hpp"
0000021d 7263652f5377 
00000223 634170706c54 
00000229 706d732f5761 
0000022f 6c6c6f63582e 
00000235 68707000 
00000239 000000         2579 	.byte	0,0,0
0000023c 2e2e2f736f75   2580 	.strz	"../source/SwcApplTpms/busmsgX.hpp"
00000242 7263652f5377 
00000248 634170706c54 
0000024e 706d732f6275 
00000254 736d7367582e 
0000025a 68707000 
0000025e 000000         2581 	.byte	0,0,0
00000261 2e2e2f736f75   2582 	.strz	"../source/SwcApplTpms/busmsg.hpp"
00000267 7263652f5377 
0000026d 634170706c54 
00000273 706d732f6275 
00000279 736d73672e68 
0000027f 707000 
00000282 000000         2583 	.byte	0,0,0
00000285 2e2e2f736f75   2584 	.strz	"../source/SwcApplTpms/silaX.hpp"
0000028b 7263652f5377 
00000291 634170706c54 
00000297 706d732f7369 
0000029d 6c61582e6870 
000002a3 7000 
000002a5 000000         2585 	.byte	0,0,0
000002a8 2e2e2f736f75   2586 	.strz	"../source/SwcApplTpms/ProcDatX.hpp"
000002ae 7263652f5377 
000002b4 634170706c54 
000002ba 706d732f5072 
000002c0 6f6344617458 
000002c6 2e68707000 
000002cb 000000         2587 	.byte	0,0,0
000002ce 2e2e2f736f75   2588 	.strz	"../source/SwcApplTpms/tss_stdx.hpp"
000002d4 7263652f5377 
000002da 634170706c54 
000002e0 706d732f7473 
000002e6 735f73746478 
000002ec 2e68707000 
000002f1 000000         2589 	.byte	0,0,0
000002f4 2e2e2f736f75   2590 	.strz	"../source/ProjectCfg/CfgSwcApplTpms.hpp"
000002fa 7263652f5072 
00000300 6f6a65637443 
00000306 66672f436667 
0000030c 537763417070 
00000312 6c54706d732e 
00000318 68707000 
0000031c 000000         2591 	.byte	0,0,0
0000031f 2e2e2f736f75   2592 	.strz	"../source/SwcApplTpms/cd_decoder_x.hpp"
00000325 7263652f5377 
0000032b 634170706c54 
00000331 706d732f6364 
00000337 5f6465636f64 
0000033d 65725f782e68 
00000343 707000 
00000346 000000         2593 	.byte	0,0,0

                                                                      Page 56
                                                              C:\Users\nhuliyap\AppData\Local\Temp\gh_0000en81.s
00000349 2e2e2f736f75   2594 	.strz	"../source/SwcApplTpms/USWarnX.hpp"
0000034f 7263652f5377 
00000355 634170706c54 
0000035b 706d732f5553 
00000361 5761726e582e 
00000367 68707000 
0000036b 000000         2595 	.byte	0,0,0
0000036e 2e2e2f736f75   2596 	.strz	"../source/SwcApplTpms/global.hpp"
00000374 7263652f5377 
0000037a 634170706c54 
00000380 706d732f676c 
00000386 6f62616c2e68 
0000038c 707000 
0000038f 000000         2597 	.byte	0,0,0
00000392 2e2e2f736f75   2598 	.strz	"../source/SwcApplTpms/state_bzX.hpp"
00000398 7263652f5377 
0000039e 634170706c54 
000003a4 706d732f7374 
000003aa 6174655f627a 
000003b0 582e68707000 
000003b6 000000         2599 	.byte	0,0,0
000003b9 2e2e2f736f75   2600 	.strz	"../source/SwcApplTpms/statisticsX.hpp"
000003bf 7263652f5377 
000003c5 634170706c54 
000003cb 706d732f7374 
000003d1 617469737469 
000003d7 6373582e6870 
000003dd 7000 
000003df 000000         2601 	.byte	0,0,0
000003e2 2e2e2f736f75   2602 	.strz	"../source/ProjectCfg/CfgSwcApplTpms_IDOM.hpp"
000003e8 7263652f5072 
000003ee 6f6a65637443 
000003f4 66672f436667 
000003fa 537763417070 
00000400 6c54706d735f 
00000406 49444f4d2e68 
0000040c 707000 
0000040f 000000         2603 	.byte	0,0,0
00000412 2e2e2f736f75   2604 	.strz	"../source/SwcApplTpms/SwcApplTpms_DTC_If.hpp"
00000418 7263652f5377 
0000041e 634170706c54 
00000424 706d732f5377 
0000042a 634170706c54 
00000430 706d735f4454 
00000436 435f49662e68 
0000043c 707000 
0000043f 000000         2605 	.byte	0,0,0
00000442 00             2606 	.byte	0
                        2607 .Ldw_lpro_end:
                        2608 	.section	.debug_macinfo
                        2609 .Ldw_macinfo_begin:
                        2610 	.section	.debug_frame
                        2611 .LDW_4c0ea58:
00000000 00000000*      2612 	.word	.LDW_unq_2-.LDW_unq_1
                        2613 .LDW_unq_1:
00000004 ffffffff       2614 	.byte	255,255,255,255
00000008 01             2615 	.byte	1
00000009 00             2616 	.byte	0
0000000a 01             2617 	.byte	1
0000000b 01             2618 	.byte	1
0000000c 1f             2619 	.byte	31

                                                                      Page 57
                                                              C:\Users\nhuliyap\AppData\Local\Temp\gh_0000en81.s
0000000d 0c             2620 	.byte	12
0000000e 03             2621 	.byte	3
0000000f 00             2622 	.byte	0
00000010 07             2623 	.byte	7
00000011 00             2624 	.byte	0
00000012 07             2625 	.byte	7
00000013 01             2626 	.byte	1
00000014 07             2627 	.byte	7
00000015 02             2628 	.byte	2
00000016 07             2629 	.byte	7
00000017 03             2630 	.byte	3
00000018 07             2631 	.byte	7
00000019 04             2632 	.byte	4
0000001a 07             2633 	.byte	7
0000001b 05             2634 	.byte	5
0000001c 07             2635 	.byte	7
0000001d 06             2636 	.byte	6
0000001e 07             2637 	.byte	7
0000001f 07             2638 	.byte	7
00000020 07             2639 	.byte	7
00000021 08             2640 	.byte	8
00000022 07             2641 	.byte	7
00000023 09             2642 	.byte	9
00000024 07             2643 	.byte	7
00000025 0a             2644 	.byte	10
00000026 07             2645 	.byte	7
00000027 0b             2646 	.byte	11
00000028 07             2647 	.byte	7
00000029 0c             2648 	.byte	12
0000002a 07             2649 	.byte	7
0000002b 0d             2650 	.byte	13
0000002c 07             2651 	.byte	7
0000002d 0e             2652 	.byte	14
0000002e 07             2653 	.byte	7
0000002f 0f             2654 	.byte	15
00000030 07             2655 	.byte	7
00000031 10             2656 	.byte	16
00000032 07             2657 	.byte	7
00000033 11             2658 	.byte	17
00000034 07             2659 	.byte	7
00000035 12             2660 	.byte	18
00000036 07             2661 	.byte	7
00000037 13             2662 	.byte	19
00000038 08             2663 	.byte	8
00000039 14             2664 	.byte	20
0000003a 08             2665 	.byte	8
0000003b 15             2666 	.byte	21
0000003c 08             2667 	.byte	8
0000003d 16             2668 	.byte	22
0000003e 08             2669 	.byte	8
0000003f 17             2670 	.byte	23
00000040 08             2671 	.byte	8
00000041 18             2672 	.byte	24
00000042 08             2673 	.byte	8
00000043 19             2674 	.byte	25
00000044 08             2675 	.byte	8
00000045 1a             2676 	.byte	26
00000046 08             2677 	.byte	8
00000047 1b             2678 	.byte	27
00000048 08             2679 	.byte	8
00000049 1c             2680 	.byte	28

                                                                      Page 58
                                                              C:\Users\nhuliyap\AppData\Local\Temp\gh_0000en81.s
0000004a 08             2681 	.byte	8
0000004b 1d             2682 	.byte	29
0000004c 07             2683 	.byte	7
0000004d 1e             2684 	.byte	30
0000004e 08             2685 	.byte	8
0000004f 1f             2686 	.byte	31
00000050 07             2687 	.byte	7
00000051 20             2688 	.byte	32
00000052 07             2689 	.byte	7
00000053 21             2690 	.byte	33
00000054 07             2691 	.byte	7
00000055 22             2692 	.byte	34
00000056 07             2693 	.byte	7
00000057 23             2694 	.byte	35
00000058 07             2695 	.byte	7
00000059 24             2696 	.byte	36
0000005a 07             2697 	.byte	7
0000005b 25             2698 	.byte	37
0000005c 07             2699 	.byte	7
0000005d 26             2700 	.byte	38
0000005e 07             2701 	.byte	7
0000005f 27             2702 	.byte	39
00000060 07             2703 	.byte	7
00000061 28             2704 	.byte	40
00000062 07             2705 	.byte	7
00000063 29             2706 	.byte	41
00000064 07             2707 	.byte	7
00000065 2a             2708 	.byte	42
00000066 07             2709 	.byte	7
00000067 2b             2710 	.byte	43
00000068 07             2711 	.byte	7
00000069 2c             2712 	.byte	44
0000006a 07             2713 	.byte	7
0000006b 2d             2714 	.byte	45
0000006c 07             2715 	.byte	7
0000006d 2e             2716 	.byte	46
0000006e 07             2717 	.byte	7
0000006f 2f             2718 	.byte	47
00000070 07             2719 	.byte	7
00000071 30             2720 	.byte	48
00000072 07             2721 	.byte	7
00000073 31             2722 	.byte	49
00000074 07             2723 	.byte	7
00000075 32             2724 	.byte	50
00000076 07             2725 	.byte	7
00000077 33             2726 	.byte	51
00000078 07             2727 	.byte	7
00000079 34             2728 	.byte	52
0000007a 07             2729 	.byte	7
0000007b 35             2730 	.byte	53
0000007c 07             2731 	.byte	7
0000007d 36             2732 	.byte	54
0000007e 07             2733 	.byte	7
0000007f 37             2734 	.byte	55
00000080 07             2735 	.byte	7
00000081 38             2736 	.byte	56
00000082 07             2737 	.byte	7
00000083 39             2738 	.byte	57
00000084 07             2739 	.byte	7
00000085 3a             2740 	.byte	58
00000086 07             2741 	.byte	7

                                                                      Page 59
                                                              C:\Users\nhuliyap\AppData\Local\Temp\gh_0000en81.s
00000087 3b             2742 	.byte	59
00000088 07             2743 	.byte	7
00000089 3c             2744 	.byte	60
0000008a 07             2745 	.byte	7
0000008b 3d             2746 	.byte	61
0000008c 07             2747 	.byte	7
0000008d 3e             2748 	.byte	62
0000008e 07             2749 	.byte	7
0000008f 3f             2750 	.byte	63
                        2751 .LDW_unq_2:
                        2752 	.section	.debug_info
                        2753 .LDW_47c6f10:
00000098 45             2754 	.byte	69
00000099 01             2755 	.byte	1
                        2756 
                        2757 	.section	.debug_abbrev
00000017 45             2758 	.byte	69
00000018 15             2759 	.byte	21
00000019 01             2760 	.byte	1
0000001a 270c           2761 	.byte	39,12
0000001c 0000           2762 	.byte	0,0
                        2763 
                        2764 	.section	.debug_info
0000009a 00             2765 	.byte	0
                        2766 
                        2767 .LDW_47c6ca8:
0000009b 25             2768 	.byte	37
0000009c 756e7369676e   2769 	.strz	"unsigned char"
000000a2 656420636861 
000000a8 7200 
000000aa 08             2770 	.byte	8
000000ab 01             2771 	.byte	1
                        2772 
                        2773 	.section	.debug_abbrev
0000001e 25             2774 	.byte	37
0000001f 24             2775 	.byte	36
00000020 00             2776 	.byte	0
00000021 0308           2777 	.byte	3,8
00000023 3e0b           2778 	.byte	62,11
00000025 0b0b           2779 	.byte	11,11
00000027 0000           2780 	.byte	0,0
                        2781 
                        2782 	.section	.debug_info
                        2783 .LDW_47c6e30:
000000ac 45             2784 	.byte	69
000000ad 01             2785 	.byte	1
                        2786 
000000ae 00             2787 	.byte	0
                        2788 
                        2789 .LDW_47c6ce0:
000000af 45             2790 	.byte	69
000000b0 01             2791 	.byte	1
                        2792 
000000b1 00             2793 	.byte	0
                        2794 
                        2795 .LDW_47c71e8:
000000b2 45             2796 	.byte	69
000000b3 01             2797 	.byte	1
                        2798 
                        2799 .LDW_47c1b20:
000000b4 12             2800 	.byte	18

                                                                      Page 60
                                                              C:\Users\nhuliyap\AppData\Local\Temp\gh_0000en81.s
000000b5 00000000*      2801 	.word	.LDW_480ee30
000000b9 00             2802 	.byte	0
                        2803 
                        2804 	.section	.debug_abbrev
00000029 12             2805 	.byte	18
0000002a 05             2806 	.byte	5
0000002b 00             2807 	.byte	0
0000002c 4910           2808 	.byte	73,16
0000002e 4b0c           2809 	.byte	75,12
00000030 0000           2810 	.byte	0,0
                        2811 
                        2812 	.section	.debug_info
                        2813 .LDW_47c1a90:
000000ba 12             2814 	.byte	18
000000bb 00000000*      2815 	.word	.LDW_480ee30
000000bf 00             2816 	.byte	0
                        2817 
000000c0 00             2818 	.byte	0
                        2819 
                        2820 .LDW_47c6f48:
000000c1 44             2821 	.byte	68
000000c2 00000000*      2822 	.word	.LDW_480ee30
000000c6 01             2823 	.byte	1
                        2824 
                        2825 	.section	.debug_abbrev
00000032 44             2826 	.byte	68
00000033 15             2827 	.byte	21
00000034 01             2828 	.byte	1
00000035 4910           2829 	.byte	73,16
00000037 270c           2830 	.byte	39,12
00000039 0000           2831 	.byte	0,0
                        2832 
                        2833 	.section	.debug_info
                        2834 .LDW_47c1af0:
000000c7 12             2835 	.byte	18
000000c8 00000000*      2836 	.word	.LDW_480ee30
000000cc 00             2837 	.byte	0
                        2838 
000000cd 00             2839 	.byte	0
                        2840 
                        2841 .LDW_47c7258:
000000ce 45             2842 	.byte	69
000000cf 01             2843 	.byte	1
                        2844 
                        2845 .LDW_47c1bb0:
000000d0 12             2846 	.byte	18
000000d1 00000000*      2847 	.word	.LDW_480ee30
000000d5 00             2848 	.byte	0
                        2849 
                        2850 .LDW_47c1be0:
000000d6 12             2851 	.byte	18
000000d7 00000000*      2852 	.word	.LDW_480ee30
000000db 00             2853 	.byte	0
                        2854 
000000dc 00             2855 	.byte	0
                        2856 
                        2857 .LDW_47c7290:
000000dd 44             2858 	.byte	68
000000de 00000000*      2859 	.word	.LDW_480ee30
000000e2 01             2860 	.byte	1
                        2861 

                                                                      Page 61
                                                              C:\Users\nhuliyap\AppData\Local\Temp\gh_0000en81.s
                        2862 .LDW_4be2278:
000000e3 12             2863 	.byte	18
000000e4 00000000*      2864 	.word	.LDW_480ee30
000000e8 00             2865 	.byte	0
                        2866 
000000e9 00             2867 	.byte	0
                        2868 
                        2869 .LDW_47c6bc8:
000000ea 45             2870 	.byte	69
000000eb 01             2871 	.byte	1
                        2872 
                        2873 .LDW_4be2338:
000000ec 12             2874 	.byte	18
000000ed 00000000*      2875 	.word	.LDW_480ee30
000000f1 00             2876 	.byte	0
                        2877 
                        2878 .LDW_4be24e8:
000000f2 12             2879 	.byte	18
000000f3 00000000*      2880 	.word	.LDW_4b34810
000000f7 00             2881 	.byte	0
                        2882 
000000f8 00             2883 	.byte	0
                        2884 
                        2885 .LDW_47c6c00:
000000f9 44             2886 	.byte	68
000000fa 00000000*      2887 	.word	.LDW_4b34810
000000fe 01             2888 	.byte	1
                        2889 
                        2890 .LDW_4be2188:
000000ff 12             2891 	.byte	18
00000100 00000000*      2892 	.word	.LDW_480ee30
00000104 00             2893 	.byte	0
                        2894 
00000105 00             2895 	.byte	0
                        2896 
                        2897 .LDW_47c6c38:
00000106 45             2898 	.byte	69
00000107 01             2899 	.byte	1
                        2900 
                        2901 .LDW_4be2308:
00000108 12             2902 	.byte	18
00000109 00000000*      2903 	.word	.LDW_480ee30
0000010d 00             2904 	.byte	0
                        2905 
                        2906 .LDW_4be2218:
0000010e 12             2907 	.byte	18
0000010f 00000000*      2908 	.word	.LDW_480ee30
00000113 00             2909 	.byte	0
                        2910 
00000114 00             2911 	.byte	0
                        2912 
                        2913 .LDW_47c6c70:
00000115 44             2914 	.byte	68
00000116 00000000*      2915 	.word	.LDW_480ee30
0000011a 01             2916 	.byte	1
                        2917 
                        2918 .LDW_4be2248:
0000011b 12             2919 	.byte	18
0000011c 00000000*      2920 	.word	.LDW_480ee30
00000120 00             2921 	.byte	0
                        2922 

                                                                      Page 62
                                                              C:\Users\nhuliyap\AppData\Local\Temp\gh_0000en81.s
00000121 00             2923 	.byte	0
                        2924 
                        2925 .LDW_47c6df8:
00000122 45             2926 	.byte	69
00000123 01             2927 	.byte	1
                        2928 
                        2929 .LDW_4be20f8:
00000124 12             2930 	.byte	18
00000125 00000000*      2931 	.word	.LDW_4b34810
00000129 00             2932 	.byte	0
                        2933 
0000012a 00             2934 	.byte	0
                        2935 
                        2936 .LDW_47c6d18:
0000012b 44             2937 	.byte	68
0000012c 00000000*      2938 	.word	.LDW_4b34810
00000130 01             2939 	.byte	1
                        2940 
00000131 00             2941 	.byte	0
                        2942 
                        2943 .LDW_47c6d50:
00000132 45             2944 	.byte	69
00000133 01             2945 	.byte	1
                        2946 
                        2947 .LDW_4be21b8:
00000134 12             2948 	.byte	18
00000135 00000000*      2949 	.word	.LDW_4b34810
00000139 00             2950 	.byte	0
                        2951 
0000013a 00             2952 	.byte	0
                        2953 
                        2954 .LDW_47c6d88:
0000013b 44             2955 	.byte	68
0000013c 00000000*      2956 	.word	.LDW_4b34810
00000140 01             2957 	.byte	1
                        2958 
00000141 00             2959 	.byte	0
                        2960 
                        2961 .LDW_47c6dc0:
00000142 45             2962 	.byte	69
00000143 01             2963 	.byte	1
                        2964 
                        2965 .LDW_4be22d8:
00000144 12             2966 	.byte	18
00000145 00000000*      2967 	.word	.LDW_4b34810
00000149 00             2968 	.byte	0
                        2969 
0000014a 00             2970 	.byte	0
                        2971 
                        2972 .LDW_47c72c8:
0000014b 44             2973 	.byte	68
0000014c 00000000*      2974 	.word	.LDW_4b34810
00000150 01             2975 	.byte	1
                        2976 
00000151 00             2977 	.byte	0
                        2978 
                        2979 .LDW_47c7300:
00000152 45             2980 	.byte	69
00000153 01             2981 	.byte	1
                        2982 
                        2983 .LDW_4be2488:

                                                                      Page 63
                                                              C:\Users\nhuliyap\AppData\Local\Temp\gh_0000en81.s
00000154 12             2984 	.byte	18
00000155 00000000*      2985 	.word	.LDW_4b34810
00000159 00             2986 	.byte	0
                        2987 
0000015a 00             2988 	.byte	0
                        2989 
                        2990 .LDW_47c7338:
0000015b 44             2991 	.byte	68
0000015c 00000000*      2992 	.word	.LDW_4b34810
00000160 01             2993 	.byte	1
                        2994 
00000161 00             2995 	.byte	0
                        2996 
                        2997 .LDW_4c42f68:
00000162 45             2998 	.byte	69
00000163 01             2999 	.byte	1
                        3000 
                        3001 .LDW_4be21e8:
00000164 12             3002 	.byte	18
00000165 00000000*      3003 	.word	.LDW_480ee30
00000169 00             3004 	.byte	0
                        3005 
                        3006 .LDW_4be24b8:
0000016a 12             3007 	.byte	18
0000016b 00000000*      3008 	.word	.LDW_4b34810
0000016f 00             3009 	.byte	0
                        3010 
00000170 00             3011 	.byte	0
                        3012 
                        3013 .LDW_4c42fa0:
00000171 44             3014 	.byte	68
00000172 00000000*      3015 	.word	.LDW_4b34810
00000176 01             3016 	.byte	1
                        3017 
                        3018 .LDW_4be25a8:
00000177 12             3019 	.byte	18
00000178 00000000*      3020 	.word	.LDW_480ee30
0000017c 00             3021 	.byte	0
                        3022 
0000017d 00             3023 	.byte	0
                        3024 
                        3025 .LDW_4c42f30:
0000017e 45             3026 	.byte	69
0000017f 01             3027 	.byte	1
                        3028 
00000180 00             3029 	.byte	0
                        3030 
                        3031 .LDW_4c42b78:
00000181 25             3032 	.byte	37
00000182 756e7369676e   3033 	.strz	"unsigned short"
00000188 65642073686f 
0000018e 727400 
00000191 07             3034 	.byte	7
00000192 02             3035 	.byte	2
                        3036 
                        3037 .LDW_4c42d00:
00000193 45             3038 	.byte	69
00000194 01             3039 	.byte	1
                        3040 
00000195 00             3041 	.byte	0
                        3042 

                                                                      Page 64
                                                              C:\Users\nhuliyap\AppData\Local\Temp\gh_0000en81.s
                        3043 .LDW_4c41120:
00000196 29             3044 	.byte	41
00000197 00000000*      3045 	.word	.LDW_480ee30
                        3046 
                        3047 	.section	.debug_abbrev
0000003b 29             3048 	.byte	41
0000003c 26             3049 	.byte	38
0000003d 00             3050 	.byte	0
0000003e 4910           3051 	.byte	73,16
00000040 0000           3052 	.byte	0,0
                        3053 
                        3054 	.section	.debug_info
                        3055 .LDW_4c42de0:
0000019b 44             3056 	.byte	68
0000019c 00000000*      3057 	.word	.LDW_4b34810
000001a0 01             3058 	.byte	1
                        3059 
                        3060 .LDW_4be2038:
000001a1 12             3061 	.byte	18
000001a2 00000000*      3062 	.word	.LDW_4c41120
000001a6 00             3063 	.byte	0
                        3064 
000001a7 00             3065 	.byte	0
                        3066 
                        3067 .LDW_4c42e18:
000001a8 45             3068 	.byte	69
000001a9 01             3069 	.byte	1
                        3070 
000001aa 00             3071 	.byte	0
                        3072 
                        3073 .LDW_4c42b08:
000001ab 45             3074 	.byte	69
000001ac 01             3075 	.byte	1
                        3076 
000001ad 00             3077 	.byte	0
                        3078 
                        3079 .LDW_4c42a60:
000001ae 45             3080 	.byte	69
000001af 01             3081 	.byte	1
                        3082 
000001b0 00             3083 	.byte	0
                        3084 
                        3085 .LDW_4c429b8:
000001b1 45             3086 	.byte	69
000001b2 01             3087 	.byte	1
                        3088 
000001b3 00             3089 	.byte	0
                        3090 
                        3091 .LDW_4c42bb0:
000001b4 45             3092 	.byte	69
000001b5 01             3093 	.byte	1
                        3094 
000001b6 00             3095 	.byte	0
                        3096 
                        3097 .LDW_4c42948:
000001b7 44             3098 	.byte	68
000001b8 00000000*      3099 	.word	.LDW_480ee30
000001bc 01             3100 	.byte	1
                        3101 
000001bd 00             3102 	.byte	0
                        3103 

                                                                      Page 65
                                                              C:\Users\nhuliyap\AppData\Local\Temp\gh_0000en81.s
                        3104 .LDW_4c42980:
000001be 25             3105 	.byte	37
000001bf 756e7369676e   3106 	.strz	"unsigned int"
000001c5 656420696e74 
000001cb 00 
000001cc 07             3107 	.byte	7
000001cd 04             3108 	.byte	4
                        3109 
                        3110 .LDW_4c42b40:
000001ce 25             3111 	.byte	37
000001cf 696e7400       3112 	.strz	"int"
000001d3 05             3113 	.byte	5
000001d4 04             3114 	.byte	4
                        3115 
                        3116 .LDW_4c42ec0:
000001d5 2f             3117 	.byte	47
000001d6 00000000*      3118 	.word	.LDW_480ee30
                        3119 
                        3120 	.section	.debug_abbrev
00000042 2f             3121 	.byte	47
00000043 0f             3122 	.byte	15
00000044 00             3123 	.byte	0
00000045 4910           3124 	.byte	73,16
00000047 0000           3125 	.byte	0,0
                        3126 
                        3127 	.section	.debug_info
                        3128 .LDW_4c64758:
000001da 3a             3129 	.byte	58
000001db 00             3130 	.byte	0
000001dc 05             3131 	.byte	5
000001dd 00000000*      3132 	.word	.LDW_47c6ca8
                        3133 
                        3134 	.section	.debug_abbrev
00000049 3a             3135 	.byte	58
0000004a 01             3136 	.byte	1
0000004b 01             3137 	.byte	1
0000004c 090b           3138 	.byte	9,11
0000004e 0b0f           3139 	.byte	11,15
00000050 4910           3140 	.byte	73,16
00000052 0000           3141 	.byte	0,0
                        3142 
                        3143 	.section	.debug_info
000001e1 32             3144 	.byte	50
000001e2 00000000*      3145 	.word	.LDW_4c42b40
000001e6 04             3146 	.byte	4
000001e7 00             3147 	.byte	0
000001e8 04             3148 	.byte	4
                        3149 
                        3150 	.section	.debug_abbrev
00000054 32             3151 	.byte	50
00000055 21             3152 	.byte	33
00000056 00             3153 	.byte	0
00000057 4910           3154 	.byte	73,16
00000059 0b0f           3155 	.byte	11,15
0000005b 220d           3156 	.byte	34,13
0000005d 2f0d           3157 	.byte	47,13
0000005f 0000           3158 	.byte	0,0
                        3159 
                        3160 	.section	.debug_info
000001e9 00             3161 	.byte	0
                        3162 

                                                                      Page 66
                                                              C:\Users\nhuliyap\AppData\Local\Temp\gh_0000en81.s
                        3163 .LDW_4c64a88:
000001ea 3a             3164 	.byte	58
000001eb 00             3165 	.byte	0
000001ec 04             3166 	.byte	4
000001ed 00000000*      3167 	.word	.LDW_480ee30
                        3168 
000001f1 32             3169 	.byte	50
000001f2 00000000*      3170 	.word	.LDW_4c42b40
000001f6 04             3171 	.byte	4
000001f7 00             3172 	.byte	0
000001f8 03             3173 	.byte	3
                        3174 
000001f9 00             3175 	.byte	0
                        3176 
                        3177 .LDW_4c64b98:
000001fa 3a             3178 	.byte	58
000001fb 00             3179 	.byte	0
000001fc 04             3180 	.byte	4
000001fd 00000000*      3181 	.word	.LDW_480ee30
                        3182 
00000201 32             3183 	.byte	50
00000202 00000000*      3184 	.word	.LDW_4c42b40
00000206 04             3185 	.byte	4
00000207 00             3186 	.byte	0
00000208 03             3187 	.byte	3
                        3188 
00000209 00             3189 	.byte	0
                        3190 
                        3191 .LDW_4c64f50:
0000020a 3a             3192 	.byte	58
0000020b 00             3193 	.byte	0
0000020c 04             3194 	.byte	4
0000020d 00000000*      3195 	.word	.LDW_480ee30
                        3196 
00000211 32             3197 	.byte	50
00000212 00000000*      3198 	.word	.LDW_4c42b40
00000216 04             3199 	.byte	4
00000217 00             3200 	.byte	0
00000218 03             3201 	.byte	3
                        3202 
00000219 00             3203 	.byte	0
                        3204 
                        3205 .LDW_4c64208:
0000021a 3a             3206 	.byte	58
0000021b 00             3207 	.byte	0
0000021c 06             3208 	.byte	6
0000021d 00000000*      3209 	.word	.LDW_4b34810
                        3210 
00000221 32             3211 	.byte	50
00000222 00000000*      3212 	.word	.LDW_4c42b40
00000226 04             3213 	.byte	4
00000227 00             3214 	.byte	0
00000228 05             3215 	.byte	5
                        3216 
00000229 00             3217 	.byte	0
                        3218 
                        3219 .LDW_4c69768:
0000022a 44             3220 	.byte	68
0000022b 00000000*      3221 	.word	.LDW_4b34810
0000022f 01             3222 	.byte	1
                        3223 

                                                                      Page 67
                                                              C:\Users\nhuliyap\AppData\Local\Temp\gh_0000en81.s
00000230 00             3224 	.byte	0
                        3225 
                        3226 .LDW_4c6b8e8:
00000231 44             3227 	.byte	68
00000232 00000000*      3228 	.word	.LDW_47c6ca8
00000236 01             3229 	.byte	1
                        3230 
                        3231 .LDW_4c68a88:
00000237 12             3232 	.byte	18
00000238 00000000*      3233 	.word	.LDW_47c6ca8
0000023c 00             3234 	.byte	0
                        3235 
0000023d 00             3236 	.byte	0
                        3237 
                        3238 .LDW_4c6c128:
0000023e 2f             3239 	.byte	47
0000023f 00000000*      3240 	.word	.LDW_47c6ca8
                        3241 
                        3242 .LDW_4c6ec10:
00000243 44             3243 	.byte	68
00000244 00000000*      3244 	.word	.LDW_480ee30
00000248 01             3245 	.byte	1
                        3246 
00000249 00             3247 	.byte	0
                        3248 
                        3249 .LDW_4c6eba0:
0000024a 44             3250 	.byte	68
0000024b 00000000*      3251 	.word	.LDW_480ee30
0000024f 01             3252 	.byte	1
                        3253 
00000250 00             3254 	.byte	0
                        3255 
                        3256 .LDW_4c6eee8:
00000251 44             3257 	.byte	68
00000252 00000000*      3258 	.word	.LDW_4b34810
00000256 01             3259 	.byte	1
                        3260 
00000257 00             3261 	.byte	0
                        3262 
                        3263 .LDW_4c729c8:
00000258 45             3264 	.byte	69
00000259 01             3265 	.byte	1
                        3266 
                        3267 .LDW_4c6f460:
0000025a 12             3268 	.byte	18
0000025b 00000000*      3269 	.word	.LDW_4c623d8
0000025f 00             3270 	.byte	0
                        3271 
00000260 00             3272 	.byte	0
                        3273 
                        3274 .LDW_4c72920:
00000261 44             3275 	.byte	68
00000262 00000000*      3276 	.word	.LDW_480ee30
00000266 01             3277 	.byte	1
                        3278 
                        3279 .LDW_4c6f190:
00000267 12             3280 	.byte	18
00000268 00000000*      3281 	.word	.LDW_480ee30
0000026c 00             3282 	.byte	0
                        3283 
0000026d 00             3284 	.byte	0

                                                                      Page 68
                                                              C:\Users\nhuliyap\AppData\Local\Temp\gh_0000en81.s
                        3285 
                        3286 .LDW_4c72a00:
0000026e 44             3287 	.byte	68
0000026f 00000000*      3288 	.word	.LDW_480ee30
00000273 01             3289 	.byte	1
                        3290 
                        3291 .LDW_4c6f5b0:
00000274 12             3292 	.byte	18
00000275 00000000*      3293 	.word	.LDW_480ee30
00000279 00             3294 	.byte	0
                        3295 
0000027a 00             3296 	.byte	0
                        3297 
                        3298 .LDW_4c78b70:
0000027b 44             3299 	.byte	68
0000027c 00000000*      3300 	.word	.LDW_4b34810
00000280 01             3301 	.byte	1
                        3302 
                        3303 .LDW_4c759b8:
00000281 12             3304 	.byte	18
00000282 00000000*      3305 	.word	.LDW_4c416f8
00000286 00             3306 	.byte	0
                        3307 
00000287 00             3308 	.byte	0
                        3309 
                        3310 .LDW_4c78ef0:
00000288 44             3311 	.byte	68
00000289 00000000*      3312 	.word	.LDW_4c416f8
0000028d 01             3313 	.byte	1
                        3314 
                        3315 .LDW_4c75928:
0000028e 12             3316 	.byte	18
0000028f 00000000*      3317 	.word	.LDW_4c416f8
00000293 00             3318 	.byte	0
                        3319 
00000294 00             3320 	.byte	0
                        3321 
                        3322 .LDW_4c78ba8:
00000295 44             3323 	.byte	68
00000296 00000000*      3324 	.word	.LDW_4c416f8
0000029a 01             3325 	.byte	1
                        3326 
                        3327 .LDW_4c75c58:
0000029b 12             3328 	.byte	18
0000029c 00000000*      3329 	.word	.LDW_480ee30
000002a0 00             3330 	.byte	0
                        3331 
000002a1 00             3332 	.byte	0
                        3333 
                        3334 .LDW_4c79660:
000002a2 44             3335 	.byte	68
000002a3 00000000*      3336 	.word	.LDW_4b34810
000002a7 01             3337 	.byte	1
                        3338 
                        3339 .LDW_4c75bf8:
000002a8 12             3340 	.byte	18
000002a9 00000000*      3341 	.word	.LDW_480ee30
000002ad 00             3342 	.byte	0
                        3343 
000002ae 00             3344 	.byte	0
                        3345 

                                                                      Page 69
                                                              C:\Users\nhuliyap\AppData\Local\Temp\gh_0000en81.s
                        3346 .LDW_4b34810:
000002af 28             3347 	.byte	40
000002b0 626f6f6c6561   3348 	.strz	"boolean"
000002b6 6e00 
000002b8 4e             3349 	.byte	78
000002b9 49             3350 	.byte	73
000002ba 03             3351 	.byte	3
000002bb 00000000*      3352 	.word	.LDW_47c6ca8
                        3353 
                        3354 	.section	.debug_abbrev
00000061 28             3355 	.byte	40
00000062 16             3356 	.byte	22
00000063 00             3357 	.byte	0
00000064 0308           3358 	.byte	3,8
00000066 3b0f           3359 	.byte	59,15
00000068 390f           3360 	.byte	57,15
0000006a 3a0f           3361 	.byte	58,15
0000006c 4910           3362 	.byte	73,16
0000006e 0000           3363 	.byte	0,0
                        3364 
                        3365 	.section	.debug_info
                        3366 .LDW_480ee30:
000002bf 28             3367 	.byte	40
000002c0 75696e743800   3368 	.strz	"uint8"
000002c6 50             3369 	.byte	80
000002c7 4b             3370 	.byte	75
000002c8 03             3371 	.byte	3
000002c9 00000000*      3372 	.word	.LDW_47c6ca8
                        3373 
                        3374 .LDW_4c416f8:
000002cd 28             3375 	.byte	40
000002ce 75696e743136   3376 	.strz	"uint16"
000002d4 00 
000002d5 52             3377 	.byte	82
000002d6 4a             3378 	.byte	74
000002d7 03             3379 	.byte	3
000002d8 00000000*      3380 	.word	.LDW_4c42b78
                        3381 
                        3382 .LDW_480e0b0:
000002dc 2e             3383 	.byte	46
000002dd 54504d534572   3384 	.strz	"TPMSErrorType"
000002e3 726f72547970 
000002e9 6500 
000002eb 13             3385 	.byte	19
000002ec 0e             3386 	.byte	14
000002ed 07             3387 	.byte	7
000002ee 01             3388 	.byte	1
000002ef 01             3389 	.byte	1
                        3390 
                        3391 	.section	.debug_abbrev
00000070 2e             3392 	.byte	46
00000071 04             3393 	.byte	4
00000072 01             3394 	.byte	1
00000073 0308           3395 	.byte	3,8
00000075 3b0f           3396 	.byte	59,15
00000077 390f           3397 	.byte	57,15
00000079 3a0f           3398 	.byte	58,15
0000007b 0b0f           3399 	.byte	11,15
0000007d 320b           3400 	.byte	50,11
0000007f 0000           3401 	.byte	0,0
                        3402 

                                                                      Page 70
                                                              C:\Users\nhuliyap\AppData\Local\Temp\gh_0000en81.s
                        3403 	.section	.debug_info
                        3404 .LDW_4b34e88:
000002f0 2d             3405 	.byte	45
000002f1 455f54504d53   3406 	.strz	"E_TPMS_ERROR_WS_LIFE_TIME_FL_CNT_LOW"
000002f7 5f4552524f52 
000002fd 5f57535f4c49 
00000303 46455f54494d 
00000309 455f464c5f43 
0000030f 4e545f4c4f57 
00000315 00 
00000316 14             3407 	.byte	20
00000317 07             3408 	.byte	7
00000318 07             3409 	.byte	7
00000319 00             3410 	.byte	0
                        3411 
                        3412 	.section	.debug_abbrev
00000081 2d             3413 	.byte	45
00000082 28             3414 	.byte	40
00000083 00             3415 	.byte	0
00000084 0308           3416 	.byte	3,8
00000086 3b0f           3417 	.byte	59,15
00000088 390f           3418 	.byte	57,15
0000008a 3a0f           3419 	.byte	58,15
0000008c 1c0d           3420 	.byte	28,13
0000008e 0000           3421 	.byte	0,0
                        3422 
                        3423 	.section	.debug_info
                        3424 .LDW_4be2848:
0000031a 2d             3425 	.byte	45
0000031b 455f54504d53   3426 	.strz	"E_TPMS_ERROR_WS_LIFE_TIME_FR_CNT_LOW"
00000321 5f4552524f52 
00000327 5f57535f4c49 
0000032d 46455f54494d 
00000333 455f46525f43 
00000339 4e545f4c4f57 
0000033f 00 
00000340 15             3427 	.byte	21
00000341 07             3428 	.byte	7
00000342 07             3429 	.byte	7
00000343 01             3430 	.byte	1
                        3431 
                        3432 .LDW_4be2888:
00000344 2d             3433 	.byte	45
00000345 455f54504d53   3434 	.strz	"E_TPMS_ERROR_WS_LIFE_TIME_RR_CNT_LOW"
0000034b 5f4552524f52 
00000351 5f57535f4c49 
00000357 46455f54494d 
0000035d 455f52525f43 
00000363 4e545f4c4f57 
00000369 00 
0000036a 16             3435 	.byte	22
0000036b 07             3436 	.byte	7
0000036c 07             3437 	.byte	7
0000036d 02             3438 	.byte	2
                        3439 
                        3440 .LDW_4be28c8:
0000036e 2d             3441 	.byte	45
0000036f 455f54504d53   3442 	.strz	"E_TPMS_ERROR_WS_LIFE_TIME_RL_CNT_LOW"
00000375 5f4552524f52 
0000037b 5f57535f4c49 
00000381 46455f54494d 

                                                                      Page 71
                                                              C:\Users\nhuliyap\AppData\Local\Temp\gh_0000en81.s
00000387 455f524c5f43 
0000038d 4e545f4c4f57 
00000393 00 
00000394 17             3443 	.byte	23
00000395 07             3444 	.byte	7
00000396 07             3445 	.byte	7
00000397 03             3446 	.byte	3
                        3447 
                        3448 .LDW_4be2908:
00000398 2d             3449 	.byte	45
00000399 455f54504d53   3450 	.strz	"E_TPMS_ERROR_WS_DEFECT_FL"
0000039f 5f4552524f52 
000003a5 5f57535f4445 
000003ab 464543545f46 
000003b1 4c00 
000003b3 18             3451 	.byte	24
000003b4 07             3452 	.byte	7
000003b5 07             3453 	.byte	7
000003b6 04             3454 	.byte	4
                        3455 
                        3456 .LDW_4be2948:
000003b7 2d             3457 	.byte	45
000003b8 455f54504d53   3458 	.strz	"E_TPMS_ERROR_WS_DEFECT_FR"
000003be 5f4552524f52 
000003c4 5f57535f4445 
000003ca 464543545f46 
000003d0 5200 
000003d2 19             3459 	.byte	25
000003d3 07             3460 	.byte	7
000003d4 07             3461 	.byte	7
000003d5 05             3462 	.byte	5
                        3463 
                        3464 .LDW_4be2988:
000003d6 2d             3465 	.byte	45
000003d7 455f54504d53   3466 	.strz	"E_TPMS_ERROR_WS_DEFECT_RR"
000003dd 5f4552524f52 
000003e3 5f57535f4445 
000003e9 464543545f52 
000003ef 5200 
000003f1 1a             3467 	.byte	26
000003f2 07             3468 	.byte	7
000003f3 07             3469 	.byte	7
000003f4 06             3470 	.byte	6
                        3471 
                        3472 .LDW_4be29c8:
000003f5 2d             3473 	.byte	45
000003f6 455f54504d53   3474 	.strz	"E_TPMS_ERROR_WS_DEFECT_RL"
000003fc 5f4552524f52 
00000402 5f57535f4445 
00000408 464543545f52 
0000040e 4c00 
00000410 1b             3475 	.byte	27
00000411 07             3476 	.byte	7
00000412 07             3477 	.byte	7
00000413 07             3478 	.byte	7
                        3479 
                        3480 .LDW_4be2a08:
00000414 2d             3481 	.byte	45
00000415 455f54504d53   3482 	.strz	"E_TPMS_ERROR_WS_DEFECT_UNKNOWN_POS"
0000041b 5f4552524f52 
00000421 5f57535f4445 

                                                                      Page 72
                                                              C:\Users\nhuliyap\AppData\Local\Temp\gh_0000en81.s
00000427 464543545f55 
0000042d 4e4b4e4f574e 
00000433 5f504f5300 
00000438 1c             3483 	.byte	28
00000439 07             3484 	.byte	7
0000043a 07             3485 	.byte	7
0000043b 08             3486 	.byte	8
                        3487 
                        3488 .LDW_4b105b8:
0000043c 2d             3489 	.byte	45
0000043d 455f54504d53   3490 	.strz	"E_TPMS_ERROR_WS_MISSING_FL"
00000443 5f4552524f52 
00000449 5f57535f4d49 
0000044f 5353494e475f 
00000455 464c00 
00000458 1d             3491 	.byte	29
00000459 07             3492 	.byte	7
0000045a 07             3493 	.byte	7
0000045b 09             3494 	.byte	9
                        3495 
                        3496 .LDW_4b10378:
0000045c 2d             3497 	.byte	45
0000045d 455f54504d53   3498 	.strz	"E_TPMS_ERROR_WS_MISSING_FR"
00000463 5f4552524f52 
00000469 5f57535f4d49 
0000046f 5353494e475f 
00000475 465200 
00000478 1e             3499 	.byte	30
00000479 07             3500 	.byte	7
0000047a 07             3501 	.byte	7
0000047b 0a             3502 	.byte	10
                        3503 
                        3504 .LDW_4b10178:
0000047c 2d             3505 	.byte	45
0000047d 455f54504d53   3506 	.strz	"E_TPMS_ERROR_WS_MISSING_RR"
00000483 5f4552524f52 
00000489 5f57535f4d49 
0000048f 5353494e475f 
00000495 525200 
00000498 1f             3507 	.byte	31
00000499 07             3508 	.byte	7
0000049a 07             3509 	.byte	7
0000049b 0b             3510 	.byte	11
                        3511 
                        3512 .LDW_4b101b8:
0000049c 2d             3513 	.byte	45
0000049d 455f54504d53   3514 	.strz	"E_TPMS_ERROR_WS_MISSING_RL"
000004a3 5f4552524f52 
000004a9 5f57535f4d49 
000004af 5353494e475f 
000004b5 524c00 
000004b8 20             3515 	.byte	32
000004b9 07             3516 	.byte	7
000004ba 07             3517 	.byte	7
000004bb 0c             3518 	.byte	12
                        3519 
                        3520 .LDW_4b102f8:
000004bc 2d             3521 	.byte	45
000004bd 455f54504d53   3522 	.strz	"E_TPMS_ERROR_WS_MISSING_UNKNOWN_POS"
000004c3 5f4552524f52 
000004c9 5f57535f4d49 

                                                                      Page 73
                                                              C:\Users\nhuliyap\AppData\Local\Temp\gh_0000en81.s
000004cf 5353494e475f 
000004d5 554e4b4e4f57 
000004db 4e5f504f5300 
000004e1 21             3523 	.byte	33
000004e2 07             3524 	.byte	7
000004e3 07             3525 	.byte	7
000004e4 0d             3526 	.byte	13
                        3527 
                        3528 .LDW_4b10778:
000004e5 2d             3529 	.byte	45
000004e6 455f54504d53   3530 	.strz	"E_TPMS_ERROR_WS_OVER_TEMP_FL"
000004ec 5f4552524f52 
000004f2 5f57535f4f56 
000004f8 45525f54454d 
000004fe 505f464c00 
00000503 22             3531 	.byte	34
00000504 07             3532 	.byte	7
00000505 07             3533 	.byte	7
00000506 0e             3534 	.byte	14
                        3535 
                        3536 .LDW_4b101f8:
00000507 2d             3537 	.byte	45
00000508 455f54504d53   3538 	.strz	"E_TPMS_ERROR_WS_OVER_TEMP_FR"
0000050e 5f4552524f52 
00000514 5f57535f4f56 
0000051a 45525f54454d 
00000520 505f465200 
00000525 23             3539 	.byte	35
00000526 07             3540 	.byte	7
00000527 07             3541 	.byte	7
00000528 0f             3542 	.byte	15
                        3543 
                        3544 .LDW_4b10638:
00000529 2d             3545 	.byte	45
0000052a 455f54504d53   3546 	.strz	"E_TPMS_ERROR_WS_OVER_TEMP_RR"
00000530 5f4552524f52 
00000536 5f57535f4f56 
0000053c 45525f54454d 
00000542 505f525200 
00000547 24             3547 	.byte	36
00000548 07             3548 	.byte	7
00000549 07             3549 	.byte	7
0000054a 10             3550 	.byte	16
                        3551 
                        3552 .LDW_4b10338:
0000054b 2d             3553 	.byte	45
0000054c 455f54504d53   3554 	.strz	"E_TPMS_ERROR_WS_OVER_TEMP_RL"
00000552 5f4552524f52 
00000558 5f57535f4f56 
0000055e 45525f54454d 
00000564 505f524c00 
00000569 25             3555 	.byte	37
0000056a 07             3556 	.byte	7
0000056b 07             3557 	.byte	7
0000056c 11             3558 	.byte	17
                        3559 
                        3560 .LDW_4b10078:
0000056d 2d             3561 	.byte	45
0000056e 455f54504d53   3562 	.strz	"E_TPMS_ERROR_AXLE_LOCATE_FAIL"
00000574 5f4552524f52 
0000057a 5f41584c455f 

                                                                      Page 74
                                                              C:\Users\nhuliyap\AppData\Local\Temp\gh_0000en81.s
00000580 4c4f43415445 
00000586 5f4641494c00 
0000058c 26             3563 	.byte	38
0000058d 07             3564 	.byte	7
0000058e 07             3565 	.byte	7
0000058f 12             3566 	.byte	18
                        3567 
                        3568 .LDW_4b10438:
00000590 2d             3569 	.byte	45
00000591 455f54504d53   3570 	.strz	"E_TPMS_ERROR_NO_QUALIFIED_SENSOR_SIGNALS"
00000597 5f4552524f52 
0000059d 5f4e4f5f5155 
000005a3 414c49464945 
000005a9 445f53454e53 
000005af 4f525f534947 
000005b5 4e414c5300 
000005ba 27             3571 	.byte	39
000005bb 07             3572 	.byte	7
000005bc 07             3573 	.byte	7
000005bd 13             3574 	.byte	19
                        3575 
                        3576 .LDW_4b10238:
000005be 2d             3577 	.byte	45
000005bf 455f54504d53   3578 	.strz	"E_TPMS_ERROR_DETECTED_TOO_MANY_SENSORS"
000005c5 5f4552524f52 
000005cb 5f4445544543 
000005d1 5445445f544f 
000005d7 4f5f4d414e59 
000005dd 5f53454e534f 
000005e3 525300 
000005e6 28             3579 	.byte	40
000005e7 07             3580 	.byte	7
000005e8 07             3581 	.byte	7
000005e9 14             3582 	.byte	20
                        3583 
                        3584 .LDW_4b102b8:
000005ea 2d             3585 	.byte	45
000005eb 455f54504d53   3586 	.strz	"E_TPMS_ERROR_NOT_FUNCTIONING_DUE_TO_ECU_INTERNAL_FAULT"
000005f1 5f4552524f52 
000005f7 5f4e4f545f46 
000005fd 554e4354494f 
00000603 4e494e475f44 
00000609 55455f544f5f 
0000060f 4543555f494e 
00000615 5445524e414c 
0000061b 5f4641554c54 
00000621 00 
00000622 29             3587 	.byte	41
00000623 07             3588 	.byte	7
00000624 07             3589 	.byte	7
00000625 15             3590 	.byte	21
                        3591 
                        3592 .LDW_4b10478:
00000626 2d             3593 	.byte	45
00000627 455f54504d53   3594 	.strz	"E_TPMS_ERROR_WS_MISSING_DURING_CONTINUOUS_INVALID_SPEED"
0000062d 5f4552524f52 
00000633 5f57535f4d49 
00000639 5353494e475f 
0000063f 445552494e47 
00000645 5f434f4e5449 
0000064b 4e554f55535f 

                                                                      Page 75
                                                              C:\Users\nhuliyap\AppData\Local\Temp\gh_0000en81.s
00000651 494e56414c49 
00000657 445f53504545 
0000065d 4400 
0000065f 2a             3595 	.byte	42
00000660 07             3596 	.byte	7
00000661 07             3597 	.byte	7
00000662 16             3598 	.byte	22
                        3599 
                        3600 .LDW_4b10278:
00000663 2d             3601 	.byte	45
00000664 455f54504d53   3602 	.strz	"E_TPMS_ERROR_RF_INTERFERENCE"
0000066a 5f4552524f52 
00000670 5f52465f494e 
00000676 544552464552 
0000067c 454e434500 
00000681 2b             3603 	.byte	43
00000682 07             3604 	.byte	7
00000683 07             3605 	.byte	7
00000684 17             3606 	.byte	23
                        3607 
                        3608 .LDW_4b103b8:
00000685 2d             3609 	.byte	45
00000686 455f54504d53   3610 	.strz	"E_TPMS_ERROR_AUTOLOCATION_FAILED"
0000068c 5f4552524f52 
00000692 5f4155544f4c 
00000698 4f434154494f 
0000069e 4e5f4641494c 
000006a4 454400 
000006a7 2c             3611 	.byte	44
000006a8 07             3612 	.byte	7
000006a9 07             3613 	.byte	7
000006aa 18             3614 	.byte	24
                        3615 
                        3616 .LDW_4b103f8:
000006ab 2d             3617 	.byte	45
000006ac 455f54504d53   3618 	.strz	"E_TPMS_ERROR_MAX_NUMBER"
000006b2 5f4552524f52 
000006b8 5f4d41585f4e 
000006be 554d42455200 
000006c4 2d             3619 	.byte	45
000006c5 07             3620 	.byte	7
000006c6 07             3621 	.byte	7
000006c7 19             3622 	.byte	25
                        3623 
000006c8 00             3624 	.byte	0
                        3625 
                        3626 .LDW_4be2f60:
000006c9 2e             3627 	.byte	46
000006ca 00             3628 	.byte	0
000006cb 04             3629 	.byte	4
000006cc 0d             3630 	.byte	13
000006cd 10             3631 	.byte	16
000006ce 01             3632 	.byte	1
000006cf 01             3633 	.byte	1
                        3634 
                        3635 .LDW_4c60ad8:
000006d0 2d             3636 	.byte	45
000006d1 53494c415f53   3637 	.strz	"SILA_STATE_CHECK"
000006d7 544154455f43 
000006dd 4845434b00 
000006e2 05             3638 	.byte	5

                                                                      Page 76
                                                              C:\Users\nhuliyap\AppData\Local\Temp\gh_0000en81.s
000006e3 07             3639 	.byte	7
000006e4 10             3640 	.byte	16
000006e5 00             3641 	.byte	0
                        3642 
                        3643 .LDW_4c60b98:
000006e6 2d             3644 	.byte	45
000006e7 53494c415f53   3645 	.strz	"SILA_STATE_NORMAL_OFF"
000006ed 544154455f4e 
000006f3 4f524d414c5f 
000006f9 4f464600 
000006fd 06             3646 	.byte	6
000006fe 07             3647 	.byte	7
000006ff 10             3648 	.byte	16
00000700 09             3649 	.byte	9
                        3650 
                        3651 .LDW_4c60cd8:
00000701 2d             3652 	.byte	45
00000702 53494c415f53   3653 	.strz	"SILA_STATE_PERMANENT_ON"
00000708 544154455f50 
0000070e 45524d414e45 
00000714 4e545f4f4e00 
0000071a 07             3654 	.byte	7
0000071b 07             3655 	.byte	7
0000071c 10             3656 	.byte	16
0000071d 0a             3657 	.byte	10
                        3658 
                        3659 .LDW_4c60bd8:
0000071e 2d             3660 	.byte	45
0000071f 53494c415f53   3661 	.strz	"SILA_STATE_MALFUNCTIONFLASH"
00000725 544154455f4d 
0000072b 414c46554e43 
00000731 54494f4e464c 
00000737 41534800 
0000073b 08             3662 	.byte	8
0000073c 07             3663 	.byte	7
0000073d 10             3664 	.byte	16
0000073e 0b             3665 	.byte	11
                        3666 
0000073f 00             3667 	.byte	0
                        3668 
                        3669 .LDW_4c623d8:
00000740 28             3670 	.byte	40
00000741 7453696c6153   3671 	.strz	"tSilaStateType"
00000747 746174655479 
0000074d 706500 
00000750 09             3672 	.byte	9
00000751 02             3673 	.byte	2
00000752 10             3674 	.byte	16
00000753 00000000*      3675 	.word	.LDW_4be2f60
                        3676 
                        3677 .LDW_4c679d8:
00000757 05             3678 	.byte	5
00000758 617563576865   3679 	.strz	"aucWheelPosWarn"
0000075e 656c506f7357 
00000764 61726e00 
00000768 8801           3680 	.byte	136,1
0000076a 16             3681 	.byte	22
0000076b 15             3682 	.byte	21
0000076c 00000000*      3683 	.word	.LDW_4c64758
00000770 01             3684 	.byte	1
00000771 01             3685 	.byte	1

                                                                      Page 77
                                                              C:\Users\nhuliyap\AppData\Local\Temp\gh_0000en81.s
                        3686 
                        3687 	.section	.debug_abbrev
00000090 05             3688 	.byte	5
00000091 34             3689 	.byte	52
00000092 00             3690 	.byte	0
00000093 0308           3691 	.byte	3,8
00000095 3b0f           3692 	.byte	59,15
00000097 390f           3693 	.byte	57,15
00000099 3a0f           3694 	.byte	58,15
0000009b 4910           3695 	.byte	73,16
0000009d 3f0c           3696 	.byte	63,12
0000009f 3c0c           3697 	.byte	60,12
000000a1 0000           3698 	.byte	0,0
                        3699 
                        3700 	.section	.debug_info
                        3701 .LDW_4c673a8:
00000772 04             3702 	.byte	4
00000773 756354797265   3703 	.strz	"ucTyreTemperature"
00000779 54656d706572 
0000077f 617475726500 
00000785 18             3704 	.byte	24
00000786 0e             3705 	.byte	14
00000787 01             3706 	.byte	1
00000788 00000000*      3707 	.word	.LDW_4c64a88
0000078c 00             3708 	.byte	0
0000078d 00             3709 	.byte	0
0000078e 0503           3710 	.byte	5,3
00000790 00000000*      3711 	.word	_ucTyreTemperature..C.3A.5C_ECU2.5CECU_Rivian_A1.5CTarget.5Crepo_projects.5CpRealEcu.5CcR_LATEST.5Cmake.5Coutput.5Cobjects.5Cbusmsg.
                        3712 
                        3713 	.section	.debug_abbrev
000000a3 04             3714 	.byte	4
000000a4 34             3715 	.byte	52
000000a5 00             3716 	.byte	0
000000a6 0308           3717 	.byte	3,8
000000a8 3b0f           3718 	.byte	59,15
000000aa 390f           3719 	.byte	57,15
000000ac 3a0f           3720 	.byte	58,15
000000ae 4910           3721 	.byte	73,16
000000b0 3f0c           3722 	.byte	63,12
000000b2 3c0c           3723 	.byte	60,12
000000b4 020a           3724 	.byte	2,10
000000b6 0000           3725 	.byte	0,0
                        3726 
                        3727 	.section	.debug_info
                        3728 .LDW_4c67610:
00000794 04             3729 	.byte	4
00000795 756354797265   3730 	.strz	"ucTyrePressUncomp"
0000079b 507265737355 
000007a1 6e636f6d7000 
000007a7 19             3731 	.byte	25
000007a8 0e             3732 	.byte	14
000007a9 01             3733 	.byte	1
000007aa 00000000*      3734 	.word	.LDW_4c64b98
000007ae 00             3735 	.byte	0
000007af 00             3736 	.byte	0
000007b0 0503           3737 	.byte	5,3
000007b2 00000000*      3738 	.word	_ucTyrePressUncomp..C.3A.5C_ECU2.5CECU_Rivian_A1.5CTarget.5Crepo_projects.5CpRealEcu.5CcR_LATEST.5Cmake.5Coutput.5Cobjects.5Cbusmsg.
                        3739 
                        3740 .LDW_4c67560:
000007b6 04             3741 	.byte	4
000007b7 756354797265   3742 	.strz	"ucTyreWarning"

                                                                      Page 78
                                                              C:\Users\nhuliyap\AppData\Local\Temp\gh_0000en81.s
000007bd 5761726e696e 
000007c3 6700 
000007c5 1a             3743 	.byte	26
000007c6 0e             3744 	.byte	14
000007c7 01             3745 	.byte	1
000007c8 00000000*      3746 	.word	.LDW_4c64f50
000007cc 00             3747 	.byte	0
000007cd 00             3748 	.byte	0
000007ce 0503           3749 	.byte	5,3
000007d0 00000000*      3750 	.word	_ucTyreWarning..C.3A.5C_ECU2.5CECU_Rivian_A1.5CTarget.5Crepo_projects.5CpRealEcu.5CcR_LATEST.5Cmake.5Coutput.5Cobjects.5Cbusmsg.
                        3751 
                        3752 .LDW_4c672f8:
000007d4 04             3753 	.byte	4
000007d5 756354797265   3754 	.strz	"ucTyreTemperatureWarning"
000007db 54656d706572 
000007e1 617475726557 
000007e7 61726e696e67 
000007ed 00 
000007ee 1b             3755 	.byte	27
000007ef 0e             3756 	.byte	14
000007f0 01             3757 	.byte	1
000007f1 00000000*      3758 	.word	.LDW_480ee30
000007f5 00             3759 	.byte	0
000007f6 00             3760 	.byte	0
000007f7 0503           3761 	.byte	5,3
000007f9 00000000*      3762 	.word	_ucTyreTemperatureWarning..C.3A.5C_ECU2.5CECU_Rivian_A1.5CTarget.5Crepo_projects.5CpRealEcu.5CcR_LATEST.5Cmake.5Coutput.5Cobjects.5Cbusmsg.
                        3763 
                        3764 .LDW_4c67b38:
000007fd 04             3765 	.byte	4
000007fe 625479726556   3766 	.strz	"bTyreValidVL"
00000804 616c6964564c 
0000080a 00 
0000080b 1c             3767 	.byte	28
0000080c 10             3768 	.byte	16
0000080d 01             3769 	.byte	1
0000080e 00000000*      3770 	.word	.LDW_4b34810
00000812 00             3771 	.byte	0
00000813 00             3772 	.byte	0
00000814 0503           3773 	.byte	5,3
00000816 00000000*      3774 	.word	_bTyreValidVL..C.3A.5C_ECU2.5CECU_Rivian_A1.5CTarget.5Crepo_projects.5CpRealEcu.5CcR_LATEST.5Cmake.5Coutput.5Cobjects.5Cbusmsg.
                        3775 
                        3776 .LDW_4c67400:
0000081a 04             3777 	.byte	4
0000081b 625479726556   3778 	.strz	"bTyreValidVR"
00000821 616c69645652 
00000827 00 
00000828 1d             3779 	.byte	29
00000829 10             3780 	.byte	16
0000082a 01             3781 	.byte	1
0000082b 00000000*      3782 	.word	.LDW_4b34810
0000082f 00             3783 	.byte	0
00000830 00             3784 	.byte	0
00000831 0503           3785 	.byte	5,3
00000833 00000000*      3786 	.word	_bTyreValidVR..C.3A.5C_ECU2.5CECU_Rivian_A1.5CTarget.5Crepo_projects.5CpRealEcu.5CcR_LATEST.5Cmake.5Coutput.5Cobjects.5Cbusmsg.
                        3787 
                        3788 .LDW_4c67878:
00000837 04             3789 	.byte	4
00000838 625479726556   3790 	.strz	"bTyreValidHL"
0000083e 616c6964484c 
00000844 00 
00000845 1e             3791 	.byte	30

                                                                      Page 79
                                                              C:\Users\nhuliyap\AppData\Local\Temp\gh_0000en81.s
00000846 10             3792 	.byte	16
00000847 01             3793 	.byte	1
00000848 00000000*      3794 	.word	.LDW_4b34810
0000084c 00             3795 	.byte	0
0000084d 00             3796 	.byte	0
0000084e 0503           3797 	.byte	5,3
00000850 00000000*      3798 	.word	_bTyreValidHL..C.3A.5C_ECU2.5CECU_Rivian_A1.5CTarget.5Crepo_projects.5CpRealEcu.5CcR_LATEST.5Cmake.5Coutput.5Cobjects.5Cbusmsg.
                        3799 
                        3800 .LDW_4c67140:
00000854 04             3801 	.byte	4
00000855 625479726556   3802 	.strz	"bTyreValidHR"
0000085b 616c69644852 
00000861 00 
00000862 1f             3803 	.byte	31
00000863 10             3804 	.byte	16
00000864 01             3805 	.byte	1
00000865 00000000*      3806 	.word	.LDW_4b34810
00000869 00             3807 	.byte	0
0000086a 00             3808 	.byte	0
0000086b 0503           3809 	.byte	5,3
0000086d 00000000*      3810 	.word	_bTyreValidHR..C.3A.5C_ECU2.5CECU_Rivian_A1.5CTarget.5Crepo_projects.5CpRealEcu.5CcR_LATEST.5Cmake.5Coutput.5Cobjects.5Cbusmsg.
                        3811 
                        3812 .LDW_4c67718:
00000871 04             3813 	.byte	4
00000872 625465787446   3814 	.strz	"bTextFlags"
00000878 6c61677300 
0000087d 20             3815 	.byte	32
0000087e 10             3816 	.byte	16
0000087f 01             3817 	.byte	1
00000880 00000000*      3818 	.word	.LDW_4c64208
00000884 00             3819 	.byte	0
00000885 00             3820 	.byte	0
00000886 0503           3821 	.byte	5,3
00000888 00000000*      3822 	.word	_bTextFlags..C.3A.5C_ECU2.5CECU_Rivian_A1.5CTarget.5Crepo_projects.5CpRealEcu.5CcR_LATEST.5Cmake.5Coutput.5Cobjects.5Cbusmsg.
                        3823 
                        3824 .LDW_4c6afd0:
0000088c 16             3825 	.byte	22
0000088d 476574537973   3826 	.strz	"GetSystem_DefectECUState"
00000893 74656d5f4465 
00000899 666563744543 
0000089f 555374617465 
000008a5 00 
000008a6 54             3827 	.byte	84
000008a7 10             3828 	.byte	16
000008a8 0a             3829 	.byte	10
000008a9 00000000*      3830 	.word	.LDW_4b34810
000008ad 01             3831 	.byte	1
000008ae 00             3832 	.byte	0
000008af 01             3833 	.byte	1
000008b0 01             3834 	.byte	1
000008b1 00             3835 	.byte	0
000008b2 01             3836 	.byte	1
                        3837 
                        3838 	.section	.debug_abbrev
000000b8 16             3839 	.byte	22
000000b9 2e             3840 	.byte	46
000000ba 01             3841 	.byte	1
000000bb 0308           3842 	.byte	3,8
000000bd 3b0f           3843 	.byte	59,15
000000bf 390f           3844 	.byte	57,15
000000c1 3a0f           3845 	.byte	58,15

                                                                      Page 80
                                                              C:\Users\nhuliyap\AppData\Local\Temp\gh_0000en81.s
000000c3 4910           3846 	.byte	73,16
000000c5 3c0c           3847 	.byte	60,12
000000c7 200b           3848 	.byte	32,11
000000c9 3f0c           3849 	.byte	63,12
000000cb 320b           3850 	.byte	50,11
000000cd 4c0b           3851 	.byte	76,11
000000cf 270c           3852 	.byte	39,12
000000d1 0000           3853 	.byte	0,0
                        3854 
                        3855 	.section	.debug_info
000008b3 00             3856 	.byte	0
                        3857 
                        3858 .LDW_4c69cd0:
000008b4 16             3859 	.byte	22
000008b5 756347657449   3860 	.strz	"ucGetIndexOfHistoryWP"
000008bb 6e6465784f66 
000008c1 486973746f72 
000008c7 79575000 
000008cb 8f01           3861 	.byte	143,1
000008cd 16             3862 	.byte	22
000008ce 0d             3863 	.byte	13
000008cf 00000000*      3864 	.word	.LDW_47c6ca8
000008d3 01             3865 	.byte	1
000008d4 00             3866 	.byte	0
000008d5 01             3867 	.byte	1
000008d6 01             3868 	.byte	1
000008d7 00             3869 	.byte	0
000008d8 01             3870 	.byte	1
                        3871 
000008d9 00             3872 	.byte	0
                        3873 
                        3874 .LDW_4c6c9f0:
000008da 16             3875 	.byte	22
000008db 474554756352   3876 	.strz	"GETucReErrorStatusEE"
000008e1 654572726f72 
000008e7 537461747573 
000008ed 454500 
000008f0 31             3877 	.byte	49
000008f1 10             3878 	.byte	16
000008f2 0c             3879 	.byte	12
000008f3 00000000*      3880 	.word	.LDW_480ee30
000008f7 01             3881 	.byte	1
000008f8 00             3882 	.byte	0
000008f9 01             3883 	.byte	1
000008fa 01             3884 	.byte	1
000008fb 00             3885 	.byte	0
000008fc 01             3886 	.byte	1
                        3887 
000008fd 00             3888 	.byte	0
                        3889 
                        3890 .LDW_4c6cb20:
000008fe 16             3891 	.byte	22
000008ff 474554756352   3892 	.strz	"GETucReHeatUpStatusEE"
00000905 654865617455 
0000090b 705374617475 
00000911 73454500 
00000915 33             3893 	.byte	51
00000916 10             3894 	.byte	16
00000917 0c             3895 	.byte	12
00000918 00000000*      3896 	.word	.LDW_480ee30
0000091c 01             3897 	.byte	1

                                                                      Page 81
                                                              C:\Users\nhuliyap\AppData\Local\Temp\gh_0000en81.s
0000091d 00             3898 	.byte	0
0000091e 01             3899 	.byte	1
0000091f 01             3900 	.byte	1
00000920 00             3901 	.byte	0
00000921 01             3902 	.byte	1
                        3903 
00000922 00             3904 	.byte	0
                        3905 
                        3906 .LDW_4c6cbb8:
00000923 16             3907 	.byte	22
00000924 474554624866   3908 	.strz	"GETbHfIntLatchEE"
0000092a 496e744c6174 
00000930 6368454500 
00000935 3b             3909 	.byte	59
00000936 10             3910 	.byte	16
00000937 0c             3911 	.byte	12
00000938 00000000*      3912 	.word	.LDW_4b34810
0000093c 01             3913 	.byte	1
0000093d 00             3914 	.byte	0
0000093e 01             3915 	.byte	1
0000093f 01             3916 	.byte	1
00000940 00             3917 	.byte	0
00000941 01             3918 	.byte	1
                        3919 
00000942 00             3920 	.byte	0
                        3921 
                        3922 .LDW_4c753a8:
00000943 15             3923 	.byte	21
00000944 53696c615075   3924 	.strz	"SilaPutState"
0000094a 745374617465 
00000950 00 
00000951 0c             3925 	.byte	12
00000952 0e             3926 	.byte	14
00000953 10             3927 	.byte	16
00000954 01             3928 	.byte	1
00000955 00             3929 	.byte	0
00000956 01             3930 	.byte	1
00000957 01             3931 	.byte	1
00000958 00             3932 	.byte	0
00000959 01             3933 	.byte	1
                        3934 
                        3935 	.section	.debug_abbrev
000000d3 15             3936 	.byte	21
000000d4 2e             3937 	.byte	46
000000d5 01             3938 	.byte	1
000000d6 0308           3939 	.byte	3,8
000000d8 3b0f           3940 	.byte	59,15
000000da 390f           3941 	.byte	57,15
000000dc 3a0f           3942 	.byte	58,15
000000de 3c0c           3943 	.byte	60,12
000000e0 200b           3944 	.byte	32,11
000000e2 3f0c           3945 	.byte	63,12
000000e4 320b           3946 	.byte	50,11
000000e6 4c0b           3947 	.byte	76,11
000000e8 270c           3948 	.byte	39,12
000000ea 0000           3949 	.byte	0,0
                        3950 
                        3951 	.section	.debug_info
0000095a 00             3952 	.byte	0
                        3953 
                        3954 .LDW_4c757d0:

                                                                      Page 82
                                                              C:\Users\nhuliyap\AppData\Local\Temp\gh_0000en81.s
0000095b 16             3955 	.byte	22
0000095c 756347657456   3956 	.strz	"ucGetValidTyrePressureRelAtPosPD"
00000962 616c69645479 
00000968 726550726573 
0000096e 737572655265 
00000974 6c4174506f73 
0000097a 504400 
0000097d 3a             3957 	.byte	58
0000097e 0e             3958 	.byte	14
0000097f 11             3959 	.byte	17
00000980 00000000*      3960 	.word	.LDW_480ee30
00000984 01             3961 	.byte	1
00000985 00             3962 	.byte	0
00000986 01             3963 	.byte	1
00000987 01             3964 	.byte	1
00000988 00             3965 	.byte	0
00000989 01             3966 	.byte	1
                        3967 
0000098a 00             3968 	.byte	0
                        3969 
                        3970 .LDW_4c74db8:
0000098b 16             3971 	.byte	22
0000098c 756347657456   3972 	.strz	"ucGetValidTemperatureRelAtPosPD"
00000992 616c69645465 
00000998 6d7065726174 
0000099e 75726552656c 
000009a4 4174506f7350 
000009aa 4400 
000009ac 3b             3973 	.byte	59
000009ad 0e             3974 	.byte	14
000009ae 11             3975 	.byte	17
000009af 00000000*      3976 	.word	.LDW_480ee30
000009b3 01             3977 	.byte	1
000009b4 00             3978 	.byte	0
000009b5 01             3979 	.byte	1
000009b6 01             3980 	.byte	1
000009b7 00             3981 	.byte	0
000009b8 01             3982 	.byte	1
                        3983 
000009b9 00             3984 	.byte	0
                        3985 
                        3986 .LDW_4c77150:
000009ba 16             3987 	.byte	22
000009bb 624765744269   3988 	.strz	"bGetBitBetriebszustandBZ"
000009c1 744265747269 
000009c7 6562737a7573 
000009cd 74616e64425a 
000009d3 00 
000009d4 1a             3989 	.byte	26
000009d5 10             3990 	.byte	16
000009d6 17             3991 	.byte	23
000009d7 00000000*      3992 	.word	.LDW_4b34810
000009db 01             3993 	.byte	1
000009dc 00             3994 	.byte	0
000009dd 01             3995 	.byte	1
000009de 01             3996 	.byte	1
000009df 00             3997 	.byte	0
000009e0 01             3998 	.byte	1
                        3999 
000009e1 00             4000 	.byte	0
                        4001 

                                                                      Page 83
                                                              C:\Users\nhuliyap\AppData\Local\Temp\gh_0000en81.s
                        4002 .LDW_4c76a30:
000009e2 16             4003 	.byte	22
000009e3 757368476574   4004 	.strz	"ushGetBetriebszustandBZ"
000009e9 426574726965 
000009ef 62737a757374 
000009f5 616e64425a00 
000009fb 1b             4005 	.byte	27
000009fc 0f             4006 	.byte	15
000009fd 17             4007 	.byte	23
000009fe 00000000*      4008 	.word	.LDW_4c416f8
00000a02 01             4009 	.byte	1
00000a03 00             4010 	.byte	0
00000a04 01             4011 	.byte	1
00000a05 01             4012 	.byte	1
00000a06 00             4013 	.byte	0
00000a07 01             4014 	.byte	1
                        4015 
00000a08 00             4016 	.byte	0
                        4017 
                        4018 .LDW_4c774e0:
00000a09 16             4019 	.byte	22
00000a0a 474554757346   4020 	.strz	"GETusFolgeAusfallCntSTATISTICS"
00000a10 6f6c67654175 
00000a16 7366616c6c43 
00000a1c 6e7453544154 
00000a22 495354494353 
00000a28 00 
00000a29 09             4021 	.byte	9
00000a2a 0f             4022 	.byte	15
00000a2b 18             4023 	.byte	24
00000a2c 00000000*      4024 	.word	.LDW_4c416f8
00000a30 01             4025 	.byte	1
00000a31 00             4026 	.byte	0
00000a32 01             4027 	.byte	1
00000a33 01             4028 	.byte	1
00000a34 00             4029 	.byte	0
00000a35 01             4030 	.byte	1
                        4031 
00000a36 00             4032 	.byte	0
                        4033 
                        4034 .LDW_4c7b038:
00000a37 16             4035 	.byte	22
00000a38 4454435f4765   4036 	.strz	"DTC_GetActiveStatusOfDTC"
00000a3e 744163746976 
00000a44 655374617475 
00000a4a 734f66445443 
00000a50 00 
00000a51 77             4037 	.byte	119
00000a52 10             4038 	.byte	16
00000a53 1a             4039 	.byte	26
00000a54 00000000*      4040 	.word	.LDW_4b34810
00000a58 01             4041 	.byte	1
00000a59 00             4042 	.byte	0
00000a5a 01             4043 	.byte	1
00000a5b 01             4044 	.byte	1
00000a5c 00             4045 	.byte	0
00000a5d 01             4046 	.byte	1
                        4047 
00000a5e 00             4048 	.byte	0
                        4049 
                        4050 .LDW_480ed98:

                                                                      Page 84
                                                              C:\Users\nhuliyap\AppData\Local\Temp\gh_0000en81.s
00000a5f 13             4051 	.byte	19
00000a60 4275734d7367   4052 	.strz	"BusMsgInit"
00000a66 496e697400 
00000a6b 2a             4053 	.byte	42
00000a6c 06             4054 	.byte	6
00000a6d 01             4055 	.byte	1
00000a6e 00000000*      4056 	.word	_BusMsgInit
00000a72 00000000*      4057 	.word	___ghs_eofn_BusMsgInit
00000a76 0153           4058 	.byte	1,83
00000a78 02             4059 	.byte	2
00000a79 00             4060 	.byte	0
00000a7a 02             4061 	.byte	2
00000a7b 00             4062 	.byte	0
00000a7c 00             4063 	.byte	0
00000a7d 00             4064 	.byte	0
00000a7e 00             4065 	.byte	0
00000a7f 01             4066 	.byte	1
00000a80 01             4067 	.byte	1
00000a81 00             4068 	.byte	0
00000a82 01             4069 	.byte	1
                        4070 
                        4071 	.section	.debug_abbrev
000000ec 13             4072 	.byte	19
000000ed 2e             4073 	.byte	46
000000ee 01             4074 	.byte	1
000000ef 0308           4075 	.byte	3,8
000000f1 3b0f           4076 	.byte	59,15
000000f3 390f           4077 	.byte	57,15
000000f5 3a0f           4078 	.byte	58,15
000000f7 1101           4079 	.byte	17,1
000000f9 1201           4080 	.byte	18,1
000000fb 400a           4081 	.byte	64,10
000000fd 8341           4082 	.byte	131,65
000000ff 0f             4083 	.byte	15
00000100 8741           4084 	.byte	135,65
00000102 0d             4085 	.byte	13
00000103 8541           4086 	.byte	133,65
00000105 0f             4087 	.byte	15
00000106 8641           4088 	.byte	134,65
00000108 0d             4089 	.byte	13
00000109 9241           4090 	.byte	146,65
0000010b 0f             4091 	.byte	15
0000010c 3c0c           4092 	.byte	60,12
0000010e 200b           4093 	.byte	32,11
00000110 3f0c           4094 	.byte	63,12
00000112 320b           4095 	.byte	50,11
00000114 4c0b           4096 	.byte	76,11
00000116 270c           4097 	.byte	39,12
00000118 0000           4098 	.byte	0,0
                        4099 
                        4100 	.section	.debug_frame
                        4101 .LDW_4c60fd8:
00000090 00000000*      4102 	.word	.LDW_unq_4-.LDW_unq_3
                        4103 .LDW_unq_3:
00000094 00000000*      4104 	.word	.LDW_4c0ea58
00000098 00000000*      4105 	.word	_BusMsgInit
0000009c 00000000*      4106 	.word	___ghs_eofn_BusMsgInit-_BusMsgInit
000000a0 01             4107 	.byte	1
000000a1 00000000*      4108 	.word	.LDW11
000000a5 00             4109 	.byte	0
000000a6 00             4110 	.byte	0

                                                                      Page 85
                                                              C:\Users\nhuliyap\AppData\Local\Temp\gh_0000en81.s
000000a7 00             4111 	.byte	0
                        4112 .LDW_unq_4:
                        4113 	.section	.debug_line
00000443 000502         4114 	.byte	0,5,2
00000446 00000000*      4115 	.word	_BusMsgInit
0000044a 06             4116 	.byte	6
0000044b 03             4117 	.byte	3
0000044c 2b             4118 	.byte	43
0000044d 02             4119 	.byte	2
0000044e 00             4120 	.byte	0
0000044f 01             4121 	.byte	1
00000450 02             4122 	.byte	2
00000451 02             4123 	.byte	2
00000452 000502         4124 	.byte	0,5,2
00000455 00000000*      4125 	.word	.LDWlin1
00000459 0b             4126 	.byte	11
0000045a 03             4127 	.byte	3
0000045b 7f             4128 	.byte	127
0000045c 02             4129 	.byte	2
0000045d 06             4130 	.byte	6
0000045e 01             4131 	.byte	1
0000045f 1c             4132 	.byte	28
00000460 13             4133 	.byte	19
00000461 000502         4134 	.byte	0,5,2
00000464 00000000*      4135 	.word	.LDWlin2
00000468 0b             4136 	.byte	11
00000469 0b             4137 	.byte	11
0000046a 23             4138 	.byte	35
0000046b 13             4139 	.byte	19
0000046c 13             4140 	.byte	19
0000046d 13             4141 	.byte	19
0000046e 13             4142 	.byte	19
0000046f 02             4143 	.byte	2
00000470 02             4144 	.byte	2
00000471 0b             4145 	.byte	11
00000472 03             4146 	.byte	3
00000473 7f             4147 	.byte	127
00000474 02             4148 	.byte	2
00000475 04             4149 	.byte	4
00000476 01             4150 	.byte	1
00000477 000502         4151 	.byte	0,5,2
0000047a 00000000*      4152 	.word	.LDWlin3
0000047e 0c             4153 	.byte	12
0000047f 0b             4154 	.byte	11
00000480 02             4155 	.byte	2
00000481 02             4156 	.byte	2
00000482 000101         4157 	.byte	0,1,1
                        4158 	.section	.debug_info
                        4159 .LDW_47c1910:
00000a83 1d             4160 	.byte	29
00000a84 00000000*      4161 	.word	.LDW01
00000a88 00000000*      4162 	.word	.LDW11
                        4163 
                        4164 	.section	.debug_abbrev
0000011a 1d             4165 	.byte	29
0000011b 0b             4166 	.byte	11
0000011c 01             4167 	.byte	1
0000011d 1101           4168 	.byte	17,1
0000011f 1201           4169 	.byte	18,1
00000121 0000           4170 	.byte	0,0
                        4171 

                                                                      Page 86
                                                              C:\Users\nhuliyap\AppData\Local\Temp\gh_0000en81.s
                        4172 	.section	.debug_info
                        4173 .LDW_480ee88:
00000a8c 04             4174 	.byte	4
00000a8d 6900           4175 	.strz	"i"
00000a8f 2b             4176 	.byte	43
00000a90 0a             4177 	.byte	10
00000a91 01             4178 	.byte	1
00000a92 00000000*      4179 	.word	.LDW_480ee30
00000a96 00             4180 	.byte	0
00000a97 00             4181 	.byte	0
00000a98 0161           4182 	.byte	1,97
                        4183 
00000a9a 00             4184 	.byte	0
                        4185 
00000a9b 00             4186 	.byte	0
                        4187 
                        4188 .LDW_480eee0:
00000a9c 13             4189 	.byte	19
00000a9d 4275734d7367   4190 	.strz	"BusMsgClr"
00000aa3 436c7200 
00000aa7 3b             4191 	.byte	59
00000aa8 06             4192 	.byte	6
00000aa9 01             4193 	.byte	1
00000aaa 00000000*      4194 	.word	_BusMsgClr
00000aae 00000000*      4195 	.word	___ghs_eofn_BusMsgClr
00000ab2 0153           4196 	.byte	1,83
00000ab4 02             4197 	.byte	2
00000ab5 00             4198 	.byte	0
00000ab6 02             4199 	.byte	2
00000ab7 00             4200 	.byte	0
00000ab8 00             4201 	.byte	0
00000ab9 00             4202 	.byte	0
00000aba 00             4203 	.byte	0
00000abb 01             4204 	.byte	1
00000abc 01             4205 	.byte	1
00000abd 00             4206 	.byte	0
00000abe 01             4207 	.byte	1
                        4208 
                        4209 	.section	.debug_frame
                        4210 .LDW_4c609d8:
000000a8 00000000*      4211 	.word	.LDW_unq_6-.LDW_unq_5
                        4212 .LDW_unq_5:
000000ac 00000000*      4213 	.word	.LDW_4c0ea58
000000b0 00000000*      4214 	.word	_BusMsgClr
000000b4 00000000*      4215 	.word	___ghs_eofn_BusMsgClr-_BusMsgClr
000000b8 01             4216 	.byte	1
000000b9 00000000*      4217 	.word	.LDW31
000000bd 00             4218 	.byte	0
000000be 00             4219 	.byte	0
000000bf 00             4220 	.byte	0
                        4221 .LDW_unq_6:
                        4222 	.section	.debug_line
00000485 000502         4223 	.byte	0,5,2
00000488 00000000*      4224 	.word	_BusMsgClr
0000048c 06             4225 	.byte	6
0000048d 03             4226 	.byte	3
0000048e 3c             4227 	.byte	60
0000048f 02             4228 	.byte	2
00000490 00             4229 	.byte	0
00000491 01             4230 	.byte	1
00000492 02             4231 	.byte	2

                                                                      Page 87
                                                              C:\Users\nhuliyap\AppData\Local\Temp\gh_0000en81.s
00000493 02             4232 	.byte	2
00000494 000502         4233 	.byte	0,5,2
00000497 00000000*      4234 	.word	.LDWlin4
0000049b 0b             4235 	.byte	11
0000049c 03             4236 	.byte	3
0000049d 7f             4237 	.byte	127
0000049e 02             4238 	.byte	2
0000049f 06             4239 	.byte	6
000004a0 01             4240 	.byte	1
000004a1 1c             4241 	.byte	28
000004a2 000502         4242 	.byte	0,5,2
000004a5 00000000*      4243 	.word	.LDWlin5
000004a9 0b             4244 	.byte	11
000004aa 0b             4245 	.byte	11
000004ab 23             4246 	.byte	35
000004ac 13             4247 	.byte	19
000004ad 13             4248 	.byte	19
000004ae 13             4249 	.byte	19
000004af 02             4250 	.byte	2
000004b0 02             4251 	.byte	2
000004b1 0b             4252 	.byte	11
000004b2 03             4253 	.byte	3
000004b3 7f             4254 	.byte	127
000004b4 02             4255 	.byte	2
000004b5 04             4256 	.byte	4
000004b6 01             4257 	.byte	1
000004b7 000502         4258 	.byte	0,5,2
000004ba 00000000*      4259 	.word	.LDWlin6
000004be 0c             4260 	.byte	12
000004bf 0b             4261 	.byte	11
000004c0 02             4262 	.byte	2
000004c1 06             4263 	.byte	6
000004c2 000101         4264 	.byte	0,1,1
                        4265 	.section	.debug_info
                        4266 .LDW_47c1940:
00000abf 1d             4267 	.byte	29
00000ac0 00000000*      4268 	.word	.LDW21
00000ac4 00000000*      4269 	.word	.LDW31
                        4270 
                        4271 .LDW_480ef78:
00000ac8 04             4272 	.byte	4
00000ac9 6900           4273 	.strz	"i"
00000acb 3c             4274 	.byte	60
00000acc 0a             4275 	.byte	10
00000acd 01             4276 	.byte	1
00000ace 00000000*      4277 	.word	.LDW_480ee30
00000ad2 00             4278 	.byte	0
00000ad3 00             4279 	.byte	0
00000ad4 0161           4280 	.byte	1,97
                        4281 
00000ad6 00             4282 	.byte	0
                        4283 
00000ad7 00             4284 	.byte	0
                        4285 
                        4286 .LDW_480dc40:
00000ad8 13             4287 	.byte	19
00000ad9 4275734d7367   4288 	.strz	"BusMsgTemperatureClear"
00000adf 54656d706572 
00000ae5 617475726543 
00000aeb 6c65617200 
00000af0 4c             4289 	.byte	76

                                                                      Page 88
                                                              C:\Users\nhuliyap\AppData\Local\Temp\gh_0000en81.s
00000af1 06             4290 	.byte	6
00000af2 01             4291 	.byte	1
00000af3 00000000*      4292 	.word	_BusMsgTemperatureClear
00000af7 00000000*      4293 	.word	___ghs_eofn_BusMsgTemperatureClear
00000afb 0153           4294 	.byte	1,83
00000afd 02             4295 	.byte	2
00000afe 00             4296 	.byte	0
00000aff 02             4297 	.byte	2
00000b00 00             4298 	.byte	0
00000b01 00             4299 	.byte	0
00000b02 00             4300 	.byte	0
00000b03 00             4301 	.byte	0
00000b04 01             4302 	.byte	1
00000b05 01             4303 	.byte	1
00000b06 00             4304 	.byte	0
00000b07 01             4305 	.byte	1
                        4306 
                        4307 	.section	.debug_frame
                        4308 .LDW_4c60298:
000000c0 00000000*      4309 	.word	.LDW_unq_8-.LDW_unq_7
                        4310 .LDW_unq_7:
000000c4 00000000*      4311 	.word	.LDW_4c0ea58
000000c8 00000000*      4312 	.word	_BusMsgTemperatureClear
000000cc 00000000*      4313 	.word	___ghs_eofn_BusMsgTemperatureClear-_BusMsgTemperatureClear
000000d0 01             4314 	.byte	1
000000d1 00000000*      4315 	.word	.LDW51
000000d5 00             4316 	.byte	0
000000d6 00             4317 	.byte	0
000000d7 00             4318 	.byte	0
                        4319 .LDW_unq_8:
                        4320 	.section	.debug_line
000004c5 000502         4321 	.byte	0,5,2
000004c8 00000000*      4322 	.word	_BusMsgTemperatureClear
000004cc 06             4323 	.byte	6
000004cd 03             4324 	.byte	3
000004ce cd00           4325 	.byte	205,0
000004d0 02             4326 	.byte	2
000004d1 00             4327 	.byte	0
000004d2 01             4328 	.byte	1
000004d3 02             4329 	.byte	2
000004d4 02             4330 	.byte	2
000004d5 000502         4331 	.byte	0,5,2
000004d8 00000000*      4332 	.word	.LDWlin7
000004dc 0b             4333 	.byte	11
000004dd 03             4334 	.byte	3
000004de 7f             4335 	.byte	127
000004df 02             4336 	.byte	2
000004e0 06             4337 	.byte	6
000004e1 01             4338 	.byte	1
000004e2 24             4339 	.byte	36
000004e3 0b             4340 	.byte	11
000004e4 000502         4341 	.byte	0,5,2
000004e7 00000000*      4342 	.word	.LDWlin8
000004eb 0b             4343 	.byte	11
000004ec 03             4344 	.byte	3
000004ed 7f             4345 	.byte	127
000004ee 02             4346 	.byte	2
000004ef 04             4347 	.byte	4
000004f0 01             4348 	.byte	1
000004f1 000502         4349 	.byte	0,5,2
000004f4 00000000*      4350 	.word	.LDWlin9

                                                                      Page 89
                                                              C:\Users\nhuliyap\AppData\Local\Temp\gh_0000en81.s
000004f8 0c             4351 	.byte	12
000004f9 0b             4352 	.byte	11
000004fa 02             4353 	.byte	2
000004fb 02             4354 	.byte	2
000004fc 000101         4355 	.byte	0,1,1
                        4356 	.section	.debug_info
                        4357 .LDW_47c1ac0:
00000b08 1d             4358 	.byte	29
00000b09 00000000*      4359 	.word	.LDW41
00000b0d 00000000*      4360 	.word	.LDW51
                        4361 
                        4362 .LDW_480dcd8:
00000b11 04             4363 	.byte	4
00000b12 55385f436f75   4364 	.strz	"U8_Counter"
00000b18 6e74657200 
00000b1d 4d             4365 	.byte	77
00000b1e 0a             4366 	.byte	10
00000b1f 01             4367 	.byte	1
00000b20 00000000*      4368 	.word	.LDW_480ee30
00000b24 00             4369 	.byte	0
00000b25 00             4370 	.byte	0
00000b26 0161           4371 	.byte	1,97
                        4372 
00000b28 00             4373 	.byte	0
                        4374 
00000b29 00             4375 	.byte	0
                        4376 
                        4377 .LDW_480dd30:
00000b2a 13             4378 	.byte	19
00000b2b 4275734d7367   4379 	.strz	"BusMsgPutTemperature"
00000b31 50757454656d 
00000b37 706572617475 
00000b3d 726500 
00000b40 56             4380 	.byte	86
00000b41 06             4381 	.byte	6
00000b42 01             4382 	.byte	1
00000b43 00000000*      4383 	.word	_BusMsgPutTemperature
00000b47 00000000*      4384 	.word	___ghs_eofn_BusMsgPutTemperature
00000b4b 0153           4385 	.byte	1,83
00000b4d 02             4386 	.byte	2
00000b4e 00             4387 	.byte	0
00000b4f 02             4388 	.byte	2
00000b50 00             4389 	.byte	0
00000b51 00             4390 	.byte	0
00000b52 00             4391 	.byte	0
00000b53 00             4392 	.byte	0
00000b54 01             4393 	.byte	1
00000b55 01             4394 	.byte	1
00000b56 00             4395 	.byte	0
00000b57 01             4396 	.byte	1
                        4397 
                        4398 	.section	.debug_frame
                        4399 .LDW_4c60798:
000000d8 00000000*      4400 	.word	.LDW_unq_a-.LDW_unq_9
                        4401 .LDW_unq_9:
000000dc 00000000*      4402 	.word	.LDW_4c0ea58
000000e0 00000000*      4403 	.word	_BusMsgPutTemperature
000000e4 00000000*      4404 	.word	___ghs_eofn_BusMsgPutTemperature-_BusMsgPutTemperature
000000e8 01             4405 	.byte	1
000000e9 00000000*      4406 	.word	.LDW71
000000ed 00             4407 	.byte	0

                                                                      Page 90
                                                              C:\Users\nhuliyap\AppData\Local\Temp\gh_0000en81.s
000000ee 00             4408 	.byte	0
000000ef 00             4409 	.byte	0
                        4410 .LDW_unq_a:
                        4411 	.section	.debug_line
000004ff 000502         4412 	.byte	0,5,2
00000502 00000000*      4413 	.word	_BusMsgPutTemperature
00000506 03             4414 	.byte	3
00000507 d700           4415 	.byte	215,0
00000509 02             4416 	.byte	2
0000050a 00             4417 	.byte	0
0000050b 01             4418 	.byte	1
0000050c 06             4419 	.byte	6
0000050d 13             4420 	.byte	19
0000050e 000502         4421 	.byte	0,5,2
00000511 00000000*      4422 	.word	.LDWlin10
00000515 02             4423 	.byte	2
00000516 00             4424 	.byte	0
00000517 0b             4425 	.byte	11
00000518 000502         4426 	.byte	0,5,2
0000051b 00000000*      4427 	.word	.LDWlin11
0000051f 0b             4428 	.byte	11
00000520 02             4429 	.byte	2
00000521 00             4430 	.byte	0
00000522 0b             4431 	.byte	11
00000523 02             4432 	.byte	2
00000524 02             4433 	.byte	2
00000525 000101         4434 	.byte	0,1,1
                        4435 	.section	.debug_info
                        4436 .LDW_480ddc8:
00000b58 0f             4437 	.byte	15
00000b59 7563496400     4438 	.strz	"ucId"
00000b5e 57             4439 	.byte	87
00000b5f 0a             4440 	.byte	10
00000b60 01             4441 	.byte	1
00000b61 00000000*      4442 	.word	.LDW_480ee30
00000b65 00             4443 	.byte	0
00000b66 0156           4444 	.byte	1,86
                        4445 
                        4446 	.section	.debug_abbrev
00000123 0f             4447 	.byte	15
00000124 05             4448 	.byte	5
00000125 00             4449 	.byte	0
00000126 0308           4450 	.byte	3,8
00000128 3b0f           4451 	.byte	59,15
0000012a 390f           4452 	.byte	57,15
0000012c 3a0f           4453 	.byte	58,15
0000012e 4910           4454 	.byte	73,16
00000130 4b0c           4455 	.byte	75,12
00000132 020a           4456 	.byte	2,10
00000134 0000           4457 	.byte	0,0
                        4458 
                        4459 	.section	.debug_info
                        4460 .LDW_480de20:
00000b68 0f             4461 	.byte	15
00000b69 756354656d70   4462 	.strz	"ucTemperature"
00000b6f 657261747572 
00000b75 6500 
00000b77 58             4463 	.byte	88
00000b78 0a             4464 	.byte	10
00000b79 01             4465 	.byte	1
00000b7a 00000000*      4466 	.word	.LDW_480ee30

                                                                      Page 91
                                                              C:\Users\nhuliyap\AppData\Local\Temp\gh_0000en81.s
00000b7e 00             4467 	.byte	0
00000b7f 0157           4468 	.byte	1,87
                        4469 
                        4470 .LDW_47c1b50:
00000b81 1d             4471 	.byte	29
00000b82 00000000*      4472 	.word	.LDW61
00000b86 00000000*      4473 	.word	.LDW71
                        4474 
00000b8a 00             4475 	.byte	0
                        4476 
00000b8b 00             4477 	.byte	0
                        4478 
                        4479 .LDW_480de78:
00000b8c 14             4480 	.byte	20
00000b8d 4275734d7367   4481 	.strz	"BusMsgGetTemperature"
00000b93 47657454656d 
00000b99 706572617475 
00000b9f 726500 
00000ba2 5e             4482 	.byte	94
00000ba3 07             4483 	.byte	7
00000ba4 01             4484 	.byte	1
00000ba5 00000000*      4485 	.word	.LDW_480ee30
00000ba9 00000000*      4486 	.word	_BusMsgGetTemperature
00000bad 00000000*      4487 	.word	___ghs_eofn_BusMsgGetTemperature
00000bb1 0153           4488 	.byte	1,83
00000bb3 02             4489 	.byte	2
00000bb4 00             4490 	.byte	0
00000bb5 02             4491 	.byte	2
00000bb6 00             4492 	.byte	0
00000bb7 00             4493 	.byte	0
00000bb8 00             4494 	.byte	0
00000bb9 00             4495 	.byte	0
00000bba 01             4496 	.byte	1
00000bbb 01             4497 	.byte	1
00000bbc 00             4498 	.byte	0
00000bbd 01             4499 	.byte	1
                        4500 
                        4501 	.section	.debug_abbrev
00000136 14             4502 	.byte	20
00000137 2e             4503 	.byte	46
00000138 01             4504 	.byte	1
00000139 0308           4505 	.byte	3,8
0000013b 3b0f           4506 	.byte	59,15
0000013d 390f           4507 	.byte	57,15
0000013f 3a0f           4508 	.byte	58,15
00000141 4910           4509 	.byte	73,16
00000143 1101           4510 	.byte	17,1
00000145 1201           4511 	.byte	18,1
00000147 400a           4512 	.byte	64,10
00000149 8341           4513 	.byte	131,65
0000014b 0f             4514 	.byte	15
0000014c 8741           4515 	.byte	135,65
0000014e 0d             4516 	.byte	13
0000014f 8541           4517 	.byte	133,65
00000151 0f             4518 	.byte	15
00000152 8641           4519 	.byte	134,65
00000154 0d             4520 	.byte	13
00000155 9241           4521 	.byte	146,65
00000157 0f             4522 	.byte	15
00000158 3c0c           4523 	.byte	60,12
0000015a 200b           4524 	.byte	32,11

                                                                      Page 92
                                                              C:\Users\nhuliyap\AppData\Local\Temp\gh_0000en81.s
0000015c 3f0c           4525 	.byte	63,12
0000015e 320b           4526 	.byte	50,11
00000160 4c0b           4527 	.byte	76,11
00000162 270c           4528 	.byte	39,12
00000164 0000           4529 	.byte	0,0
                        4530 
                        4531 	.section	.debug_frame
                        4532 .LDW_4c607d8:
000000f0 00000000*      4533 	.word	.LDW_unq_c-.LDW_unq_b
                        4534 .LDW_unq_b:
000000f4 00000000*      4535 	.word	.LDW_4c0ea58
000000f8 00000000*      4536 	.word	_BusMsgGetTemperature
000000fc 00000000*      4537 	.word	___ghs_eofn_BusMsgGetTemperature-_BusMsgGetTemperature
00000100 01             4538 	.byte	1
00000101 00000000*      4539 	.word	.LDW91
00000105 00             4540 	.byte	0
00000106 00             4541 	.byte	0
00000107 00             4542 	.byte	0
                        4543 .LDW_unq_c:
                        4544 	.section	.debug_line
00000528 000502         4545 	.byte	0,5,2
0000052b 00000000*      4546 	.word	_BusMsgGetTemperature
0000052f 03             4547 	.byte	3
00000530 de00           4548 	.byte	222,0
00000532 02             4549 	.byte	2
00000533 00             4550 	.byte	0
00000534 01             4551 	.byte	1
00000535 06             4552 	.byte	6
00000536 14             4553 	.byte	20
00000537 000502         4554 	.byte	0,5,2
0000053a 00000000*      4555 	.word	.LDWlin12
0000053e 02             4556 	.byte	2
0000053f 00             4557 	.byte	0
00000540 0b             4558 	.byte	11
00000541 000502         4559 	.byte	0,5,2
00000544 00000000*      4560 	.word	.LDWlin13
00000548 0b             4561 	.byte	11
00000549 0b             4562 	.byte	11
0000054a 0b             4563 	.byte	11
0000054b 02             4564 	.byte	2
0000054c 00             4565 	.byte	0
0000054d 0b             4566 	.byte	11
0000054e 02             4567 	.byte	2
0000054f 02             4568 	.byte	2
00000550 000101         4569 	.byte	0,1,1
                        4570 	.section	.debug_info
                        4571 .LDW_480df10:
00000bbe 0f             4572 	.byte	15
00000bbf 7563496400     4573 	.strz	"ucId"
00000bc4 5f             4574 	.byte	95
00000bc5 0a             4575 	.byte	10
00000bc6 01             4576 	.byte	1
00000bc7 00000000*      4577 	.word	.LDW_480ee30
00000bcb 00             4578 	.byte	0
00000bcc 0156           4579 	.byte	1,86
                        4580 
                        4581 .LDW_47c1b80:
00000bce 1d             4582 	.byte	29
00000bcf 00000000*      4583 	.word	.LDW81
00000bd3 00000000*      4584 	.word	.LDW91
                        4585 

                                                                      Page 93
                                                              C:\Users\nhuliyap\AppData\Local\Temp\gh_0000en81.s
                        4586 .LDW_480df68:
00000bd7 04             4587 	.byte	4
00000bd8 55385f54656d   4588 	.strz	"U8_Temperature"
00000bde 706572617475 
00000be4 726500 
00000be7 60             4589 	.byte	96
00000be8 0a             4590 	.byte	10
00000be9 01             4591 	.byte	1
00000bea 00000000*      4592 	.word	.LDW_480ee30
00000bee 00             4593 	.byte	0
00000bef 00             4594 	.byte	0
00000bf0 015a           4595 	.byte	1,90
                        4596 
00000bf2 00             4597 	.byte	0
                        4598 
00000bf3 00             4599 	.byte	0
                        4600 
                        4601 .LDW_480dfc0:
00000bf4 13             4602 	.byte	19
00000bf5 4275734d7367   4603 	.strz	"BusMsgPutTyrePressUncomp"
00000bfb 507574547972 
00000c01 655072657373 
00000c07 556e636f6d70 
00000c0d 00 
00000c0e 69             4604 	.byte	105
00000c0f 06             4605 	.byte	6
00000c10 01             4606 	.byte	1
00000c11 00000000*      4607 	.word	_BusMsgPutTyrePressUncomp
00000c15 00000000*      4608 	.word	___ghs_eofn_BusMsgPutTyrePressUncomp
00000c19 0153           4609 	.byte	1,83
00000c1b 02             4610 	.byte	2
00000c1c 00             4611 	.byte	0
00000c1d 02             4612 	.byte	2
00000c1e 00             4613 	.byte	0
00000c1f 00             4614 	.byte	0
00000c20 00             4615 	.byte	0
00000c21 00             4616 	.byte	0
00000c22 01             4617 	.byte	1
00000c23 01             4618 	.byte	1
00000c24 00             4619 	.byte	0
00000c25 01             4620 	.byte	1
                        4621 
                        4622 	.section	.debug_frame
                        4623 .LDW_4c60658:
00000108 00000000*      4624 	.word	.LDW_unq_e-.LDW_unq_d
                        4625 .LDW_unq_d:
0000010c 00000000*      4626 	.word	.LDW_4c0ea58
00000110 00000000*      4627 	.word	_BusMsgPutTyrePressUncomp
00000114 00000000*      4628 	.word	___ghs_eofn_BusMsgPutTyrePressUncomp-_BusMsgPutTyrePressUncomp
00000118 01             4629 	.byte	1
00000119 00000000*      4630 	.word	.LDW12
0000011d 00             4631 	.byte	0
0000011e 00             4632 	.byte	0
0000011f 00             4633 	.byte	0
                        4634 .LDW_unq_e:
                        4635 	.section	.debug_line
00000553 000502         4636 	.byte	0,5,2
00000556 00000000*      4637 	.word	_BusMsgPutTyrePressUncomp
0000055a 03             4638 	.byte	3
0000055b ea00           4639 	.byte	234,0
0000055d 02             4640 	.byte	2

                                                                      Page 94
                                                              C:\Users\nhuliyap\AppData\Local\Temp\gh_0000en81.s
0000055e 00             4641 	.byte	0
0000055f 01             4642 	.byte	1
00000560 06             4643 	.byte	6
00000561 13             4644 	.byte	19
00000562 000502         4645 	.byte	0,5,2
00000565 00000000*      4646 	.word	.LDWlin14
00000569 02             4647 	.byte	2
0000056a 00             4648 	.byte	0
0000056b 0b             4649 	.byte	11
0000056c 000502         4650 	.byte	0,5,2
0000056f 00000000*      4651 	.word	.LDWlin15
00000573 0b             4652 	.byte	11
00000574 02             4653 	.byte	2
00000575 00             4654 	.byte	0
00000576 0b             4655 	.byte	11
00000577 02             4656 	.byte	2
00000578 02             4657 	.byte	2
00000579 000101         4658 	.byte	0,1,1
                        4659 	.section	.debug_info
                        4660 .LDW_480e058:
00000c26 0f             4661 	.byte	15
00000c27 7563496400     4662 	.strz	"ucId"
00000c2c 6a             4663 	.byte	106
00000c2d 0a             4664 	.byte	10
00000c2e 01             4665 	.byte	1
00000c2f 00000000*      4666 	.word	.LDW_480ee30
00000c33 00             4667 	.byte	0
00000c34 0156           4668 	.byte	1,86
                        4669 
                        4670 .LDW_4b346c8:
00000c36 0f             4671 	.byte	15
00000c37 756370726573   4672 	.strz	"ucpress"
00000c3d 7300 
00000c3f 6b             4673 	.byte	107
00000c40 0a             4674 	.byte	10
00000c41 01             4675 	.byte	1
00000c42 00000000*      4676 	.word	.LDW_480ee30
00000c46 00             4677 	.byte	0
00000c47 0157           4678 	.byte	1,87
                        4679 
                        4680 .LDW_47c1a60:
00000c49 1d             4681 	.byte	29
00000c4a 00000000*      4682 	.word	.LDW02
00000c4e 00000000*      4683 	.word	.LDW12
                        4684 
00000c52 00             4685 	.byte	0
                        4686 
00000c53 00             4687 	.byte	0
                        4688 
                        4689 .LDW_4b34720:
00000c54 14             4690 	.byte	20
00000c55 4275734d7367   4691 	.strz	"BusMsgGetTyrePressUncomp"
00000c5b 476574547972 
00000c61 655072657373 
00000c67 556e636f6d70 
00000c6d 00 
00000c6e 71             4692 	.byte	113
00000c6f 07             4693 	.byte	7
00000c70 01             4694 	.byte	1
00000c71 00000000*      4695 	.word	.LDW_480ee30
00000c75 00000000*      4696 	.word	_BusMsgGetTyrePressUncomp

                                                                      Page 95
                                                              C:\Users\nhuliyap\AppData\Local\Temp\gh_0000en81.s
00000c79 00000000*      4697 	.word	___ghs_eofn_BusMsgGetTyrePressUncomp
00000c7d 0153           4698 	.byte	1,83
00000c7f 02             4699 	.byte	2
00000c80 00             4700 	.byte	0
00000c81 02             4701 	.byte	2
00000c82 00             4702 	.byte	0
00000c83 00             4703 	.byte	0
00000c84 00             4704 	.byte	0
00000c85 00             4705 	.byte	0
00000c86 01             4706 	.byte	1
00000c87 01             4707 	.byte	1
00000c88 00             4708 	.byte	0
00000c89 01             4709 	.byte	1
                        4710 
                        4711 	.section	.debug_frame
                        4712 .LDW_4c60358:
00000120 00000000*      4713 	.word	.LDW_unq_10-.LDW_unq_f
                        4714 .LDW_unq_f:
00000124 00000000*      4715 	.word	.LDW_4c0ea58
00000128 00000000*      4716 	.word	_BusMsgGetTyrePressUncomp
0000012c 00000000*      4717 	.word	___ghs_eofn_BusMsgGetTyrePressUncomp-_BusMsgGetTyrePressUncomp
00000130 01             4718 	.byte	1
00000131 00000000*      4719 	.word	.LDW32
00000135 00             4720 	.byte	0
00000136 00             4721 	.byte	0
00000137 00             4722 	.byte	0
                        4723 .LDW_unq_10:
                        4724 	.section	.debug_line
0000057c 000502         4725 	.byte	0,5,2
0000057f 00000000*      4726 	.word	_BusMsgGetTyrePressUncomp
00000583 03             4727 	.byte	3
00000584 f100           4728 	.byte	241,0
00000586 02             4729 	.byte	2
00000587 00             4730 	.byte	0
00000588 01             4731 	.byte	1
00000589 06             4732 	.byte	6
0000058a 13             4733 	.byte	19
0000058b 000502         4734 	.byte	0,5,2
0000058e 00000000*      4735 	.word	.LDWlin16
00000592 02             4736 	.byte	2
00000593 00             4737 	.byte	0
00000594 0b             4738 	.byte	11
00000595 000502         4739 	.byte	0,5,2
00000598 00000000*      4740 	.word	.LDWlin17
0000059c 03             4741 	.byte	3
0000059d 04             4742 	.byte	4
0000059e 02             4743 	.byte	2
0000059f 00             4744 	.byte	0
000005a0 01             4745 	.byte	1
000005a1 02             4746 	.byte	2
000005a2 00             4747 	.byte	0
000005a3 06             4748 	.byte	6
000005a4 02             4749 	.byte	2
000005a5 00             4750 	.byte	0
000005a6 02             4751 	.byte	2
000005a7 02             4752 	.byte	2
000005a8 000101         4753 	.byte	0,1,1
                        4754 	.section	.debug_info
                        4755 .LDW_4b347b8:
00000c8a 0f             4756 	.byte	15
00000c8b 7563496400     4757 	.strz	"ucId"

                                                                      Page 96
                                                              C:\Users\nhuliyap\AppData\Local\Temp\gh_0000en81.s
00000c90 72             4758 	.byte	114
00000c91 0a             4759 	.byte	10
00000c92 01             4760 	.byte	1
00000c93 00000000*      4761 	.word	.LDW_480ee30
00000c97 00             4762 	.byte	0
00000c98 0156           4763 	.byte	1,86
                        4764 
                        4765 .LDW_4be2068:
00000c9a 1d             4766 	.byte	29
00000c9b 00000000*      4767 	.word	.LDW22
00000c9f 00000000*      4768 	.word	.LDW32
                        4769 
00000ca3 00             4770 	.byte	0
                        4771 
00000ca4 00             4772 	.byte	0
                        4773 
                        4774 .LDW_4b34868:
00000ca5 13             4775 	.byte	19
00000ca6 4275734d7367   4776 	.strz	"BusMsgPutTemperatureWarning"
00000cac 50757454656d 
00000cb2 706572617475 
00000cb8 72655761726e 
00000cbe 696e6700 
00000cc2 7b             4777 	.byte	123
00000cc3 06             4778 	.byte	6
00000cc4 01             4779 	.byte	1
00000cc5 00000000*      4780 	.word	_BusMsgPutTemperatureWarning
00000cc9 00000000*      4781 	.word	___ghs_eofn_BusMsgPutTemperatureWarning
00000ccd 0153           4782 	.byte	1,83
00000ccf 02             4783 	.byte	2
00000cd0 00             4784 	.byte	0
00000cd1 02             4785 	.byte	2
00000cd2 00             4786 	.byte	0
00000cd3 00             4787 	.byte	0
00000cd4 00             4788 	.byte	0
00000cd5 00             4789 	.byte	0
00000cd6 01             4790 	.byte	1
00000cd7 01             4791 	.byte	1
00000cd8 00             4792 	.byte	0
00000cd9 01             4793 	.byte	1
                        4794 
                        4795 	.section	.debug_frame
                        4796 .LDW_4c603d8:
00000138 00000000*      4797 	.word	.LDW_unq_12-.LDW_unq_11
                        4798 .LDW_unq_11:
0000013c 00000000*      4799 	.word	.LDW_4c0ea58
00000140 00000000*      4800 	.word	_BusMsgPutTemperatureWarning
00000144 00000000*      4801 	.word	___ghs_eofn_BusMsgPutTemperatureWarning-_BusMsgPutTemperatureWarning
00000148 01             4802 	.byte	1
00000149 00000000*      4803 	.word	.LDW52
0000014d 00             4804 	.byte	0
0000014e 00             4805 	.byte	0
0000014f 00             4806 	.byte	0
                        4807 .LDW_unq_12:
                        4808 	.section	.debug_line
000005ab 000502         4809 	.byte	0,5,2
000005ae 00000000*      4810 	.word	_BusMsgPutTemperatureWarning
000005b2 03             4811 	.byte	3
000005b3 fc00           4812 	.byte	252,0
000005b5 02             4813 	.byte	2
000005b6 00             4814 	.byte	0

                                                                      Page 97
                                                              C:\Users\nhuliyap\AppData\Local\Temp\gh_0000en81.s
000005b7 01             4815 	.byte	1
000005b8 06             4816 	.byte	6
000005b9 000502         4817 	.byte	0,5,2
000005bc 00000000*      4818 	.word	.LDWlin18
000005c0 0b             4819 	.byte	11
000005c1 000502         4820 	.byte	0,5,2
000005c4 00000000*      4821 	.word	.LDWlin19
000005c8 02             4822 	.byte	2
000005c9 00             4823 	.byte	0
000005ca 0b             4824 	.byte	11
000005cb 000502         4825 	.byte	0,5,2
000005ce 00000000*      4826 	.word	.LDWlin20
000005d2 0b             4827 	.byte	11
000005d3 0b             4828 	.byte	11
000005d4 0b             4829 	.byte	11
000005d5 3b             4830 	.byte	59
000005d6 02             4831 	.byte	2
000005d7 00             4832 	.byte	0
000005d8 0b             4833 	.byte	11
000005d9 02             4834 	.byte	2
000005da 02             4835 	.byte	2
000005db 000101         4836 	.byte	0,1,1
                        4837 	.section	.debug_info
                        4838 .LDW_4b34900:
00000cda 0f             4839 	.byte	15
00000cdb 7563496400     4840 	.strz	"ucId"
00000ce0 7c             4841 	.byte	124
00000ce1 0a             4842 	.byte	10
00000ce2 01             4843 	.byte	1
00000ce3 00000000*      4844 	.word	.LDW_480ee30
00000ce7 00             4845 	.byte	0
00000ce8 0156           4846 	.byte	1,86
                        4847 
                        4848 .LDW_4b34958:
00000cea 0f             4849 	.byte	15
00000ceb 424f5f497354   4850 	.strz	"BO_IsTemperatureWarningActive"
00000cf1 656d70657261 
00000cf7 747572655761 
00000cfd 726e696e6741 
00000d03 637469766500 
00000d09 7d             4851 	.byte	125
00000d0a 0c             4852 	.byte	12
00000d0b 01             4853 	.byte	1
00000d0c 00000000*      4854 	.word	.LDW_4b34810
00000d10 00             4855 	.byte	0
00000d11 0157           4856 	.byte	1,87
                        4857 
                        4858 .LDW_4be2548:
00000d13 1d             4859 	.byte	29
00000d14 00000000*      4860 	.word	.LDW42
00000d18 00000000*      4861 	.word	.LDW52
                        4862 
00000d1c 00             4863 	.byte	0
                        4864 
00000d1d 00             4865 	.byte	0
                        4866 
                        4867 .LDW_4b349b0:
00000d1e 14             4868 	.byte	20
00000d1f 4275734d7367   4869 	.strz	"BusMsgGetTemperatureWarning"
00000d25 47657454656d 
00000d2b 706572617475 

                                                                      Page 98
                                                              C:\Users\nhuliyap\AppData\Local\Temp\gh_0000en81.s
00000d31 72655761726e 
00000d37 696e6700 
00000d3b 8601           4870 	.byte	134,1
00000d3d 09             4871 	.byte	9
00000d3e 01             4872 	.byte	1
00000d3f 00000000*      4873 	.word	.LDW_4b34810
00000d43 00000000*      4874 	.word	_BusMsgGetTemperatureWarning
00000d47 00000000*      4875 	.word	___ghs_eofn_BusMsgGetTemperatureWarning
00000d4b 0153           4876 	.byte	1,83
00000d4d 02             4877 	.byte	2
00000d4e 00             4878 	.byte	0
00000d4f 02             4879 	.byte	2
00000d50 00             4880 	.byte	0
00000d51 00             4881 	.byte	0
00000d52 00             4882 	.byte	0
00000d53 00             4883 	.byte	0
00000d54 01             4884 	.byte	1
00000d55 01             4885 	.byte	1
00000d56 00             4886 	.byte	0
00000d57 01             4887 	.byte	1
                        4888 
                        4889 	.section	.debug_frame
                        4890 .LDW_4c600d8:
00000150 00000000*      4891 	.word	.LDW_unq_14-.LDW_unq_13
                        4892 .LDW_unq_13:
00000154 00000000*      4893 	.word	.LDW_4c0ea58
00000158 00000000*      4894 	.word	_BusMsgGetTemperatureWarning
0000015c 00000000*      4895 	.word	___ghs_eofn_BusMsgGetTemperatureWarning-_BusMsgGetTemperatureWarning
00000160 01             4896 	.byte	1
00000161 00000000*      4897 	.word	.LDW72
00000165 00             4898 	.byte	0
00000166 00             4899 	.byte	0
00000167 00             4900 	.byte	0
                        4901 .LDW_unq_14:
                        4902 	.section	.debug_line
000005de 000502         4903 	.byte	0,5,2
000005e1 00000000*      4904 	.word	_BusMsgGetTemperatureWarning
000005e5 06             4905 	.byte	6
000005e6 03             4906 	.byte	3
000005e7 8901           4907 	.byte	137,1
000005e9 02             4908 	.byte	2
000005ea 00             4909 	.byte	0
000005eb 01             4910 	.byte	1
000005ec 06             4911 	.byte	6
000005ed 000502         4912 	.byte	0,5,2
000005f0 00000000*      4913 	.word	.LDWlin21
000005f4 02             4914 	.byte	2
000005f5 00             4915 	.byte	0
000005f6 02             4916 	.byte	2
000005f7 02             4917 	.byte	2
000005f8 000101         4918 	.byte	0,1,1
                        4919 	.section	.debug_info
                        4920 .LDW_4b34a48:
00000d58 0f             4921 	.byte	15
00000d59 7563496400     4922 	.strz	"ucId"
00000d5e 8701           4923 	.byte	135,1
00000d60 0a             4924 	.byte	10
00000d61 01             4925 	.byte	1
00000d62 00000000*      4926 	.word	.LDW_480ee30
00000d66 00             4927 	.byte	0
00000d67 0156           4928 	.byte	1,86

                                                                      Page 99
                                                              C:\Users\nhuliyap\AppData\Local\Temp\gh_0000en81.s
                        4929 
                        4930 .LDW_4be23f8:
00000d69 1d             4931 	.byte	29
00000d6a 00000000*      4932 	.word	.LDW62
00000d6e 00000000*      4933 	.word	.LDW72
                        4934 
                        4935 .LDW_4b34aa0:
00000d72 05             4936 	.byte	5
00000d73 424f5f497354   4937 	.strz	"BO_IsTemperatureWarningActive"
00000d79 656d70657261 
00000d7f 747572655761 
00000d85 726e696e6741 
00000d8b 637469766500 
00000d91 8801           4938 	.byte	136,1
00000d93 0c             4939 	.byte	12
00000d94 01             4940 	.byte	1
00000d95 00000000*      4941 	.word	.LDW_4b34810
00000d99 00             4942 	.byte	0
00000d9a 00             4943 	.byte	0
                        4944 
00000d9b 00             4945 	.byte	0
                        4946 
00000d9c 00             4947 	.byte	0
                        4948 
                        4949 .LDW_4b34af8:
00000d9d 13             4950 	.byte	19
00000d9e 4275734d7367   4951 	.strz	"BusMsgPutWarning"
00000da4 507574576172 
00000daa 6e696e6700 
00000daf 8d01           4952 	.byte	141,1
00000db1 06             4953 	.byte	6
00000db2 01             4954 	.byte	1
00000db3 00000000*      4955 	.word	_BusMsgPutWarning
00000db7 00000000*      4956 	.word	___ghs_eofn_BusMsgPutWarning
00000dbb 0153           4957 	.byte	1,83
00000dbd 02             4958 	.byte	2
00000dbe 00             4959 	.byte	0
00000dbf 02             4960 	.byte	2
00000dc0 00             4961 	.byte	0
00000dc1 00             4962 	.byte	0
00000dc2 00             4963 	.byte	0
00000dc3 00             4964 	.byte	0
00000dc4 01             4965 	.byte	1
00000dc5 01             4966 	.byte	1
00000dc6 00             4967 	.byte	0
00000dc7 01             4968 	.byte	1
                        4969 
                        4970 	.section	.debug_frame
                        4971 .LDW_4c60598:
00000168 00000000*      4972 	.word	.LDW_unq_16-.LDW_unq_15
                        4973 .LDW_unq_15:
0000016c 00000000*      4974 	.word	.LDW_4c0ea58
00000170 00000000*      4975 	.word	_BusMsgPutWarning
00000174 00000000*      4976 	.word	___ghs_eofn_BusMsgPutWarning-_BusMsgPutWarning
00000178 01             4977 	.byte	1
00000179 00000000*      4978 	.word	.LDW92
0000017d 00             4979 	.byte	0
0000017e 00             4980 	.byte	0
0000017f 00             4981 	.byte	0
                        4982 .LDW_unq_16:
                        4983 	.section	.debug_line

                                                                      Page 100
                                                              C:\Users\nhuliyap\AppData\Local\Temp\gh_0000en81.s
000005fb 000502         4984 	.byte	0,5,2
000005fe 00000000*      4985 	.word	_BusMsgPutWarning
00000602 03             4986 	.byte	3
00000603 8e01           4987 	.byte	142,1
00000605 02             4988 	.byte	2
00000606 00             4989 	.byte	0
00000607 01             4990 	.byte	1
00000608 06             4991 	.byte	6
00000609 13             4992 	.byte	19
0000060a 000502         4993 	.byte	0,5,2
0000060d 00000000*      4994 	.word	.LDWlin22
00000611 02             4995 	.byte	2
00000612 00             4996 	.byte	0
00000613 0b             4997 	.byte	11
00000614 000502         4998 	.byte	0,5,2
00000617 00000000*      4999 	.word	.LDWlin23
0000061b 0b             5000 	.byte	11
0000061c 02             5001 	.byte	2
0000061d 00             5002 	.byte	0
0000061e 0b             5003 	.byte	11
0000061f 02             5004 	.byte	2
00000620 02             5005 	.byte	2
00000621 000101         5006 	.byte	0,1,1
                        5007 	.section	.debug_info
                        5008 .LDW_4c41070:
00000dc8 0f             5009 	.byte	15
00000dc9 7563496400     5010 	.strz	"ucId"
00000dce 8e01           5011 	.byte	142,1
00000dd0 0a             5012 	.byte	10
00000dd1 01             5013 	.byte	1
00000dd2 00000000*      5014 	.word	.LDW_480ee30
00000dd6 00             5015 	.byte	0
00000dd7 0156           5016 	.byte	1,86
                        5017 
                        5018 .LDW_4c41438:
00000dd9 0f             5019 	.byte	15
00000dda 75637761726e   5020 	.strz	"ucwarning"
00000de0 696e6700 
00000de4 8f01           5021 	.byte	143,1
00000de6 0a             5022 	.byte	10
00000de7 01             5023 	.byte	1
00000de8 00000000*      5024 	.word	.LDW_480ee30
00000dec 00             5025 	.byte	0
00000ded 0157           5026 	.byte	1,87
                        5027 
                        5028 .LDW_4be23c8:
00000def 1d             5029 	.byte	29
00000df0 00000000*      5030 	.word	.LDW82
00000df4 00000000*      5031 	.word	.LDW92
                        5032 
00000df8 00             5033 	.byte	0
                        5034 
00000df9 00             5035 	.byte	0
                        5036 
                        5037 .LDW_4b34b90:
00000dfa 14             5038 	.byte	20
00000dfb 4275734d7367   5039 	.strz	"BusMsgGetWarning"
00000e01 476574576172 
00000e07 6e696e6700 
00000e0c 9501           5040 	.byte	149,1
00000e0e 07             5041 	.byte	7

                                                                      Page 101
                                                              C:\Users\nhuliyap\AppData\Local\Temp\gh_0000en81.s
00000e0f 01             5042 	.byte	1
00000e10 00000000*      5043 	.word	.LDW_480ee30
00000e14 00000000*      5044 	.word	_BusMsgGetWarning
00000e18 00000000*      5045 	.word	___ghs_eofn_BusMsgGetWarning
00000e1c 0153           5046 	.byte	1,83
00000e1e 02             5047 	.byte	2
00000e1f 00             5048 	.byte	0
00000e20 02             5049 	.byte	2
00000e21 00             5050 	.byte	0
00000e22 00             5051 	.byte	0
00000e23 00             5052 	.byte	0
00000e24 00             5053 	.byte	0
00000e25 01             5054 	.byte	1
00000e26 01             5055 	.byte	1
00000e27 00             5056 	.byte	0
00000e28 01             5057 	.byte	1
                        5058 
                        5059 	.section	.debug_frame
                        5060 .LDW_4c60418:
00000180 00000000*      5061 	.word	.LDW_unq_18-.LDW_unq_17
                        5062 .LDW_unq_17:
00000184 00000000*      5063 	.word	.LDW_4c0ea58
00000188 00000000*      5064 	.word	_BusMsgGetWarning
0000018c 00000000*      5065 	.word	___ghs_eofn_BusMsgGetWarning-_BusMsgGetWarning
00000190 01             5066 	.byte	1
00000191 00000000*      5067 	.word	.LDW13
00000195 00             5068 	.byte	0
00000196 00             5069 	.byte	0
00000197 00             5070 	.byte	0
                        5071 .LDW_unq_18:
                        5072 	.section	.debug_line
00000624 000502         5073 	.byte	0,5,2
00000627 00000000*      5074 	.word	_BusMsgGetWarning
0000062b 03             5075 	.byte	3
0000062c 9501           5076 	.byte	149,1
0000062e 02             5077 	.byte	2
0000062f 00             5078 	.byte	0
00000630 01             5079 	.byte	1
00000631 06             5080 	.byte	6
00000632 15             5081 	.byte	21
00000633 000502         5082 	.byte	0,5,2
00000636 00000000*      5083 	.word	.LDWlin24
0000063a 02             5084 	.byte	2
0000063b 00             5085 	.byte	0
0000063c 0b             5086 	.byte	11
0000063d 000502         5087 	.byte	0,5,2
00000640 00000000*      5088 	.word	.LDWlin25
00000644 0b             5089 	.byte	11
00000645 02             5090 	.byte	2
00000646 00             5091 	.byte	0
00000647 0b             5092 	.byte	11
00000648 02             5093 	.byte	2
00000649 02             5094 	.byte	2
0000064a 000101         5095 	.byte	0,1,1
                        5096 	.section	.debug_info
                        5097 .LDW_4c41330:
00000e29 0f             5098 	.byte	15
00000e2a 7563496400     5099 	.strz	"ucId"
00000e2f 9601           5100 	.byte	150,1
00000e31 0a             5101 	.byte	10
00000e32 01             5102 	.byte	1

                                                                      Page 102
                                                              C:\Users\nhuliyap\AppData\Local\Temp\gh_0000en81.s
00000e33 00000000*      5103 	.word	.LDW_480ee30
00000e37 00             5104 	.byte	0
00000e38 0156           5105 	.byte	1,86
                        5106 
                        5107 .LDW_4be2128:
00000e3a 1d             5108 	.byte	29
00000e3b 00000000*      5109 	.word	.LDW03
00000e3f 00000000*      5110 	.word	.LDW13
                        5111 
                        5112 .LDW_4c413e0:
00000e43 04             5113 	.byte	4
00000e44 756348656c70   5114 	.strz	"ucHelp"
00000e4a 00 
00000e4b 9701           5115 	.byte	151,1
00000e4d 0a             5116 	.byte	10
00000e4e 01             5117 	.byte	1
00000e4f 00000000*      5118 	.word	.LDW_480ee30
00000e53 00             5119 	.byte	0
00000e54 00             5120 	.byte	0
00000e55 015a           5121 	.byte	1,90
                        5122 
00000e57 00             5123 	.byte	0
                        5124 
00000e58 00             5125 	.byte	0
                        5126 
                        5127 .LDW_4b34c28:
00000e59 13             5128 	.byte	19
00000e5a 4275734d7367   5129 	.strz	"BusMsgPutTyrePressValidVL"
00000e60 507574547972 
00000e66 655072657373 
00000e6c 56616c696456 
00000e72 4c00 
00000e74 9f01           5130 	.byte	159,1
00000e76 06             5131 	.byte	6
00000e77 01             5132 	.byte	1
00000e78 00000000*      5133 	.word	_BusMsgPutTyrePressValidVL
00000e7c 00000000*      5134 	.word	___ghs_eofn_BusMsgPutTyrePressValidVL
00000e80 0153           5135 	.byte	1,83
00000e82 02             5136 	.byte	2
00000e83 00             5137 	.byte	0
00000e84 02             5138 	.byte	2
00000e85 00             5139 	.byte	0
00000e86 00             5140 	.byte	0
00000e87 00             5141 	.byte	0
00000e88 00             5142 	.byte	0
00000e89 01             5143 	.byte	1
00000e8a 01             5144 	.byte	1
00000e8b 00             5145 	.byte	0
00000e8c 01             5146 	.byte	1
                        5147 
                        5148 	.section	.debug_frame
                        5149 .LDW_4c605d8:
00000198 00000000*      5150 	.word	.LDW_unq_1a-.LDW_unq_19
                        5151 .LDW_unq_19:
0000019c 00000000*      5152 	.word	.LDW_4c0ea58
000001a0 00000000*      5153 	.word	_BusMsgPutTyrePressValidVL
000001a4 00000000*      5154 	.word	___ghs_eofn_BusMsgPutTyrePressValidVL-_BusMsgPutTyrePressValidVL
000001a8 01             5155 	.byte	1
000001a9 00000000*      5156 	.word	.LDW33
000001ad 00             5157 	.byte	0
000001ae 00             5158 	.byte	0

                                                                      Page 103
                                                              C:\Users\nhuliyap\AppData\Local\Temp\gh_0000en81.s
000001af 00             5159 	.byte	0
                        5160 .LDW_unq_1a:
                        5161 	.section	.debug_line
0000064d 000502         5162 	.byte	0,5,2
00000650 00000000*      5163 	.word	_BusMsgPutTyrePressValidVL
00000654 06             5164 	.byte	6
00000655 03             5165 	.byte	3
00000656 a001           5166 	.byte	160,1
00000658 02             5167 	.byte	2
00000659 00             5168 	.byte	0
0000065a 01             5169 	.byte	1
0000065b 000502         5170 	.byte	0,5,2
0000065e 00000000*      5171 	.word	.LDWlin26
00000662 0b             5172 	.byte	11
00000663 02             5173 	.byte	2
00000664 02             5174 	.byte	2
00000665 000101         5175 	.byte	0,1,1
                        5176 	.section	.debug_info
                        5177 .LDW_4c41490:
00000e8d 0f             5178 	.byte	15
00000e8e 627374617465   5179 	.strz	"bstate"
00000e94 00 
00000e95 a001           5180 	.byte	160,1
00000e97 0c             5181 	.byte	12
00000e98 01             5182 	.byte	1
00000e99 00000000*      5183 	.word	.LDW_4b34810
00000e9d 00             5184 	.byte	0
00000e9e 0156           5185 	.byte	1,86
                        5186 
                        5187 .LDW_4be2578:
00000ea0 1d             5188 	.byte	29
00000ea1 00000000*      5189 	.word	.LDW23
00000ea5 00000000*      5190 	.word	.LDW33
                        5191 
00000ea9 00             5192 	.byte	0
                        5193 
00000eaa 00             5194 	.byte	0
                        5195 
                        5196 .LDW_4b34cc0:
00000eab 14             5197 	.byte	20
00000eac 4275734d7367   5198 	.strz	"BusMsgGetTyrePressValidVL"
00000eb2 476574547972 
00000eb8 655072657373 
00000ebe 56616c696456 
00000ec4 4c00 
00000ec6 a401           5199 	.byte	164,1
00000ec8 09             5200 	.byte	9
00000ec9 01             5201 	.byte	1
00000eca 00000000*      5202 	.word	.LDW_4b34810
00000ece 00000000*      5203 	.word	_BusMsgGetTyrePressValidVL
00000ed2 00000000*      5204 	.word	___ghs_eofn_BusMsgGetTyrePressValidVL
00000ed6 0153           5205 	.byte	1,83
00000ed8 02             5206 	.byte	2
00000ed9 00             5207 	.byte	0
00000eda 02             5208 	.byte	2
00000edb 00             5209 	.byte	0
00000edc 00             5210 	.byte	0
00000edd 00             5211 	.byte	0
00000ede 00             5212 	.byte	0
00000edf 01             5213 	.byte	1
00000ee0 01             5214 	.byte	1

                                                                      Page 104
                                                              C:\Users\nhuliyap\AppData\Local\Temp\gh_0000en81.s
00000ee1 00             5215 	.byte	0
00000ee2 01             5216 	.byte	1
                        5217 
                        5218 	.section	.debug_frame
                        5219 .LDW_4c60518:
000001b0 00000000*      5220 	.word	.LDW_unq_1c-.LDW_unq_1b
                        5221 .LDW_unq_1b:
000001b4 00000000*      5222 	.word	.LDW_4c0ea58
000001b8 00000000*      5223 	.word	_BusMsgGetTyrePressValidVL
000001bc 00000000*      5224 	.word	___ghs_eofn_BusMsgGetTyrePressValidVL-_BusMsgGetTyrePressValidVL
000001c0 01             5225 	.byte	1
000001c1 00000000*      5226 	.word	.LDW53
000001c5 00             5227 	.byte	0
000001c6 00             5228 	.byte	0
000001c7 00             5229 	.byte	0
                        5230 .LDW_unq_1c:
                        5231 	.section	.debug_line
00000668 000502         5232 	.byte	0,5,2
0000066b 00000000*      5233 	.word	_BusMsgGetTyrePressValidVL
0000066f 06             5234 	.byte	6
00000670 03             5235 	.byte	3
00000671 a401           5236 	.byte	164,1
00000673 02             5237 	.byte	2
00000674 00             5238 	.byte	0
00000675 01             5239 	.byte	1
00000676 06             5240 	.byte	6
00000677 000502         5241 	.byte	0,5,2
0000067a 00000000*      5242 	.word	.LDWlin27
0000067e 02             5243 	.byte	2
0000067f 00             5244 	.byte	0
00000680 02             5245 	.byte	2
00000681 02             5246 	.byte	2
00000682 000101         5247 	.byte	0,1,1
                        5248 	.section	.debug_info
                        5249 .LDW_4be22a8:
00000ee3 1d             5250 	.byte	29
00000ee4 00000000*      5251 	.word	.LDW43
00000ee8 00000000*      5252 	.word	.LDW53
                        5253 
00000eec 00             5254 	.byte	0
                        5255 
00000eed 00             5256 	.byte	0
                        5257 
                        5258 .LDW_4b34d58:
00000eee 13             5259 	.byte	19
00000eef 4275734d7367   5260 	.strz	"BusMsgPutTyrePressValidVR"
00000ef5 507574547972 
00000efb 655072657373 
00000f01 56616c696456 
00000f07 5200 
00000f09 a801           5261 	.byte	168,1
00000f0b 06             5262 	.byte	6
00000f0c 01             5263 	.byte	1
00000f0d 00000000*      5264 	.word	_BusMsgPutTyrePressValidVR
00000f11 00000000*      5265 	.word	___ghs_eofn_BusMsgPutTyrePressValidVR
00000f15 0153           5266 	.byte	1,83
00000f17 02             5267 	.byte	2
00000f18 00             5268 	.byte	0
00000f19 02             5269 	.byte	2
00000f1a 00             5270 	.byte	0
00000f1b 00             5271 	.byte	0

                                                                      Page 105
                                                              C:\Users\nhuliyap\AppData\Local\Temp\gh_0000en81.s
00000f1c 00             5272 	.byte	0
00000f1d 00             5273 	.byte	0
00000f1e 01             5274 	.byte	1
00000f1f 01             5275 	.byte	1
00000f20 00             5276 	.byte	0
00000f21 01             5277 	.byte	1
                        5278 
                        5279 	.section	.debug_frame
                        5280 .LDW_4c602d8:
000001c8 00000000*      5281 	.word	.LDW_unq_1e-.LDW_unq_1d
                        5282 .LDW_unq_1d:
000001cc 00000000*      5283 	.word	.LDW_4c0ea58
000001d0 00000000*      5284 	.word	_BusMsgPutTyrePressValidVR
000001d4 00000000*      5285 	.word	___ghs_eofn_BusMsgPutTyrePressValidVR-_BusMsgPutTyrePressValidVR
000001d8 01             5286 	.byte	1
000001d9 00000000*      5287 	.word	.LDW73
000001dd 00             5288 	.byte	0
000001de 00             5289 	.byte	0
000001df 00             5290 	.byte	0
                        5291 .LDW_unq_1e:
                        5292 	.section	.debug_line
00000685 000502         5293 	.byte	0,5,2
00000688 00000000*      5294 	.word	_BusMsgPutTyrePressValidVR
0000068c 06             5295 	.byte	6
0000068d 03             5296 	.byte	3
0000068e a901           5297 	.byte	169,1
00000690 02             5298 	.byte	2
00000691 00             5299 	.byte	0
00000692 01             5300 	.byte	1
00000693 000502         5301 	.byte	0,5,2
00000696 00000000*      5302 	.word	.LDWlin28
0000069a 0b             5303 	.byte	11
0000069b 02             5304 	.byte	2
0000069c 02             5305 	.byte	2
0000069d 000101         5306 	.byte	0,1,1
                        5307 	.section	.debug_info
                        5308 .LDW_4c414e8:
00000f22 0f             5309 	.byte	15
00000f23 627374617465   5310 	.strz	"bstate"
00000f29 00 
00000f2a a901           5311 	.byte	169,1
00000f2c 0c             5312 	.byte	12
00000f2d 01             5313 	.byte	1
00000f2e 00000000*      5314 	.word	.LDW_4b34810
00000f32 00             5315 	.byte	0
00000f33 0156           5316 	.byte	1,86
                        5317 
                        5318 .LDW_4be1fd8:
00000f35 1d             5319 	.byte	29
00000f36 00000000*      5320 	.word	.LDW63
00000f3a 00000000*      5321 	.word	.LDW73
                        5322 
00000f3e 00             5323 	.byte	0
                        5324 
00000f3f 00             5325 	.byte	0
                        5326 
                        5327 .LDW_4b34df0:
00000f40 14             5328 	.byte	20
00000f41 4275734d7367   5329 	.strz	"BusMsgGetTyrePressValidVR"
00000f47 476574547972 
00000f4d 655072657373 

                                                                      Page 106
                                                              C:\Users\nhuliyap\AppData\Local\Temp\gh_0000en81.s
00000f53 56616c696456 
00000f59 5200 
00000f5b ad01           5330 	.byte	173,1
00000f5d 09             5331 	.byte	9
00000f5e 01             5332 	.byte	1
00000f5f 00000000*      5333 	.word	.LDW_4b34810
00000f63 00000000*      5334 	.word	_BusMsgGetTyrePressValidVR
00000f67 00000000*      5335 	.word	___ghs_eofn_BusMsgGetTyrePressValidVR
00000f6b 0153           5336 	.byte	1,83
00000f6d 02             5337 	.byte	2
00000f6e 00             5338 	.byte	0
00000f6f 02             5339 	.byte	2
00000f70 00             5340 	.byte	0
00000f71 00             5341 	.byte	0
00000f72 00             5342 	.byte	0
00000f73 00             5343 	.byte	0
00000f74 01             5344 	.byte	1
00000f75 01             5345 	.byte	1
00000f76 00             5346 	.byte	0
00000f77 01             5347 	.byte	1
                        5348 
                        5349 	.section	.debug_frame
                        5350 .LDW_4b1dfc8:
000001e0 00000000*      5351 	.word	.LDW_unq_20-.LDW_unq_1f
                        5352 .LDW_unq_1f:
000001e4 00000000*      5353 	.word	.LDW_4c0ea58
000001e8 00000000*      5354 	.word	_BusMsgGetTyrePressValidVR
000001ec 00000000*      5355 	.word	___ghs_eofn_BusMsgGetTyrePressValidVR-_BusMsgGetTyrePressValidVR
000001f0 01             5356 	.byte	1
000001f1 00000000*      5357 	.word	.LDW93
000001f5 00             5358 	.byte	0
000001f6 00             5359 	.byte	0
000001f7 00             5360 	.byte	0
                        5361 .LDW_unq_20:
                        5362 	.section	.debug_line
000006a0 000502         5363 	.byte	0,5,2
000006a3 00000000*      5364 	.word	_BusMsgGetTyrePressValidVR
000006a7 06             5365 	.byte	6
000006a8 03             5366 	.byte	3
000006a9 ad01           5367 	.byte	173,1
000006ab 02             5368 	.byte	2
000006ac 00             5369 	.byte	0
000006ad 01             5370 	.byte	1
000006ae 06             5371 	.byte	6
000006af 000502         5372 	.byte	0,5,2
000006b2 00000000*      5373 	.word	.LDWlin29
000006b6 02             5374 	.byte	2
000006b7 00             5375 	.byte	0
000006b8 02             5376 	.byte	2
000006b9 02             5377 	.byte	2
000006ba 000101         5378 	.byte	0,1,1
                        5379 	.section	.debug_info
                        5380 .LDW_4be2458:
00000f78 1d             5381 	.byte	29
00000f79 00000000*      5382 	.word	.LDW83
00000f7d 00000000*      5383 	.word	.LDW93
                        5384 
00000f81 00             5385 	.byte	0
                        5386 
00000f82 00             5387 	.byte	0
                        5388 

                                                                      Page 107
                                                              C:\Users\nhuliyap\AppData\Local\Temp\gh_0000en81.s
                        5389 .LDW_4be27b0:
00000f83 13             5390 	.byte	19
00000f84 4275734d7367   5391 	.strz	"BusMsgPutTyrePressValidHL"
00000f8a 507574547972 
00000f90 655072657373 
00000f96 56616c696448 
00000f9c 4c00 
00000f9e b101           5392 	.byte	177,1
00000fa0 06             5393 	.byte	6
00000fa1 01             5394 	.byte	1
00000fa2 00000000*      5395 	.word	_BusMsgPutTyrePressValidHL
00000fa6 00000000*      5396 	.word	___ghs_eofn_BusMsgPutTyrePressValidHL
00000faa 0153           5397 	.byte	1,83
00000fac 02             5398 	.byte	2
00000fad 00             5399 	.byte	0
00000fae 02             5400 	.byte	2
00000faf 00             5401 	.byte	0
00000fb0 00             5402 	.byte	0
00000fb1 00             5403 	.byte	0
00000fb2 00             5404 	.byte	0
00000fb3 01             5405 	.byte	1
00000fb4 01             5406 	.byte	1
00000fb5 00             5407 	.byte	0
00000fb6 01             5408 	.byte	1
                        5409 
                        5410 	.section	.debug_frame
                        5411 .LDW_4b1e308:
000001f8 00000000*      5412 	.word	.LDW_unq_22-.LDW_unq_21
                        5413 .LDW_unq_21:
000001fc 00000000*      5414 	.word	.LDW_4c0ea58
00000200 00000000*      5415 	.word	_BusMsgPutTyrePressValidHL
00000204 00000000*      5416 	.word	___ghs_eofn_BusMsgPutTyrePressValidHL-_BusMsgPutTyrePressValidHL
00000208 01             5417 	.byte	1
00000209 00000000*      5418 	.word	.LDW14
0000020d 00             5419 	.byte	0
0000020e 00             5420 	.byte	0
0000020f 00             5421 	.byte	0
                        5422 .LDW_unq_22:
                        5423 	.section	.debug_line
000006bd 000502         5424 	.byte	0,5,2
000006c0 00000000*      5425 	.word	_BusMsgPutTyrePressValidHL
000006c4 06             5426 	.byte	6
000006c5 03             5427 	.byte	3
000006c6 b201           5428 	.byte	178,1
000006c8 02             5429 	.byte	2
000006c9 00             5430 	.byte	0
000006ca 01             5431 	.byte	1
000006cb 000502         5432 	.byte	0,5,2
000006ce 00000000*      5433 	.word	.LDWlin30
000006d2 0b             5434 	.byte	11
000006d3 02             5435 	.byte	2
000006d4 02             5436 	.byte	2
000006d5 000101         5437 	.byte	0,1,1
                        5438 	.section	.debug_info
                        5439 .LDW_4c41540:
00000fb7 0f             5440 	.byte	15
00000fb8 627374617465   5441 	.strz	"bstate"
00000fbe 00 
00000fbf b201           5442 	.byte	178,1
00000fc1 0c             5443 	.byte	12
00000fc2 01             5444 	.byte	1

                                                                      Page 108
                                                              C:\Users\nhuliyap\AppData\Local\Temp\gh_0000en81.s
00000fc3 00000000*      5445 	.word	.LDW_4b34810
00000fc7 00             5446 	.byte	0
00000fc8 0156           5447 	.byte	1,86
                        5448 
                        5449 .LDW_4be2098:
00000fca 1d             5450 	.byte	29
00000fcb 00000000*      5451 	.word	.LDW04
00000fcf 00000000*      5452 	.word	.LDW14
                        5453 
00000fd3 00             5454 	.byte	0
                        5455 
00000fd4 00             5456 	.byte	0
                        5457 
                        5458 .LDW_4c41f40:
00000fd5 14             5459 	.byte	20
00000fd6 4275734d7367   5460 	.strz	"BusMsgGetTyrePressValidHL"
00000fdc 476574547972 
00000fe2 655072657373 
00000fe8 56616c696448 
00000fee 4c00 
00000ff0 b601           5461 	.byte	182,1
00000ff2 09             5462 	.byte	9
00000ff3 01             5463 	.byte	1
00000ff4 00000000*      5464 	.word	.LDW_4b34810
00000ff8 00000000*      5465 	.word	_BusMsgGetTyrePressValidHL
00000ffc 00000000*      5466 	.word	___ghs_eofn_BusMsgGetTyrePressValidHL
00001000 0153           5467 	.byte	1,83
00001002 02             5468 	.byte	2
00001003 00             5469 	.byte	0
00001004 02             5470 	.byte	2
00001005 00             5471 	.byte	0
00001006 00             5472 	.byte	0
00001007 00             5473 	.byte	0
00001008 00             5474 	.byte	0
00001009 01             5475 	.byte	1
0000100a 01             5476 	.byte	1
0000100b 00             5477 	.byte	0
0000100c 01             5478 	.byte	1
                        5479 
                        5480 	.section	.debug_frame
                        5481 .LDW_4b1e488:
00000210 00000000*      5482 	.word	.LDW_unq_24-.LDW_unq_23
                        5483 .LDW_unq_23:
00000214 00000000*      5484 	.word	.LDW_4c0ea58
00000218 00000000*      5485 	.word	_BusMsgGetTyrePressValidHL
0000021c 00000000*      5486 	.word	___ghs_eofn_BusMsgGetTyrePressValidHL-_BusMsgGetTyrePressValidHL
00000220 01             5487 	.byte	1
00000221 00000000*      5488 	.word	.LDW34
00000225 00             5489 	.byte	0
00000226 00             5490 	.byte	0
00000227 00             5491 	.byte	0
                        5492 .LDW_unq_24:
                        5493 	.section	.debug_line
000006d8 000502         5494 	.byte	0,5,2
000006db 00000000*      5495 	.word	_BusMsgGetTyrePressValidHL
000006df 06             5496 	.byte	6
000006e0 03             5497 	.byte	3
000006e1 b601           5498 	.byte	182,1
000006e3 02             5499 	.byte	2
000006e4 00             5500 	.byte	0
000006e5 01             5501 	.byte	1

                                                                      Page 109
                                                              C:\Users\nhuliyap\AppData\Local\Temp\gh_0000en81.s
000006e6 06             5502 	.byte	6
000006e7 000502         5503 	.byte	0,5,2
000006ea 00000000*      5504 	.word	.LDWlin31
000006ee 02             5505 	.byte	2
000006ef 00             5506 	.byte	0
000006f0 02             5507 	.byte	2
000006f1 02             5508 	.byte	2
000006f2 000101         5509 	.byte	0,1,1
                        5510 	.section	.debug_info
                        5511 .LDW_4be2368:
0000100d 1d             5512 	.byte	29
0000100e 00000000*      5513 	.word	.LDW24
00001012 00000000*      5514 	.word	.LDW34
                        5515 
00001016 00             5516 	.byte	0
                        5517 
00001017 00             5518 	.byte	0
                        5519 
                        5520 .LDW_4c41950:
00001018 13             5521 	.byte	19
00001019 4275734d7367   5522 	.strz	"BusMsgPutTyrePressValidHR"
0000101f 507574547972 
00001025 655072657373 
0000102b 56616c696448 
00001031 5200 
00001033 ba01           5523 	.byte	186,1
00001035 06             5524 	.byte	6
00001036 01             5525 	.byte	1
00001037 00000000*      5526 	.word	_BusMsgPutTyrePressValidHR
0000103b 00000000*      5527 	.word	___ghs_eofn_BusMsgPutTyrePressValidHR
0000103f 0153           5528 	.byte	1,83
00001041 02             5529 	.byte	2
00001042 00             5530 	.byte	0
00001043 02             5531 	.byte	2
00001044 00             5532 	.byte	0
00001045 00             5533 	.byte	0
00001046 00             5534 	.byte	0
00001047 00             5535 	.byte	0
00001048 01             5536 	.byte	1
00001049 01             5537 	.byte	1
0000104a 00             5538 	.byte	0
0000104b 01             5539 	.byte	1
                        5540 
                        5541 	.section	.debug_frame
                        5542 .LDW_4b1e4c8:
00000228 00000000*      5543 	.word	.LDW_unq_26-.LDW_unq_25
                        5544 .LDW_unq_25:
0000022c 00000000*      5545 	.word	.LDW_4c0ea58
00000230 00000000*      5546 	.word	_BusMsgPutTyrePressValidHR
00000234 00000000*      5547 	.word	___ghs_eofn_BusMsgPutTyrePressValidHR-_BusMsgPutTyrePressValidHR
00000238 01             5548 	.byte	1
00000239 00000000*      5549 	.word	.LDW54
0000023d 00             5550 	.byte	0
0000023e 00             5551 	.byte	0
0000023f 00             5552 	.byte	0
                        5553 .LDW_unq_26:
                        5554 	.section	.debug_line
000006f5 000502         5555 	.byte	0,5,2
000006f8 00000000*      5556 	.word	_BusMsgPutTyrePressValidHR
000006fc 06             5557 	.byte	6
000006fd 03             5558 	.byte	3

                                                                      Page 110
                                                              C:\Users\nhuliyap\AppData\Local\Temp\gh_0000en81.s
000006fe bb01           5559 	.byte	187,1
00000700 02             5560 	.byte	2
00000701 00             5561 	.byte	0
00000702 01             5562 	.byte	1
00000703 000502         5563 	.byte	0,5,2
00000706 00000000*      5564 	.word	.LDWlin32
0000070a 0b             5565 	.byte	11
0000070b 02             5566 	.byte	2
0000070c 02             5567 	.byte	2
0000070d 000101         5568 	.byte	0,1,1
                        5569 	.section	.debug_info
                        5570 .LDW_4c41648:
0000104c 0f             5571 	.byte	15
0000104d 627374617465   5572 	.strz	"bstate"
00001053 00 
00001054 bb01           5573 	.byte	187,1
00001056 0c             5574 	.byte	12
00001057 01             5575 	.byte	1
00001058 00000000*      5576 	.word	.LDW_4b34810
0000105c 00             5577 	.byte	0
0000105d 0156           5578 	.byte	1,86
                        5579 
                        5580 .LDW_4be20c8:
0000105f 1d             5581 	.byte	29
00001060 00000000*      5582 	.word	.LDW44
00001064 00000000*      5583 	.word	.LDW54
                        5584 
00001068 00             5585 	.byte	0
                        5586 
00001069 00             5587 	.byte	0
                        5588 
                        5589 .LDW_4c426f8:
0000106a 14             5590 	.byte	20
0000106b 4275734d7367   5591 	.strz	"BusMsgGetTyrePressValidHR"
00001071 476574547972 
00001077 655072657373 
0000107d 56616c696448 
00001083 5200 
00001085 bf01           5592 	.byte	191,1
00001087 09             5593 	.byte	9
00001088 01             5594 	.byte	1
00001089 00000000*      5595 	.word	.LDW_4b34810
0000108d 00000000*      5596 	.word	_BusMsgGetTyrePressValidHR
00001091 00000000*      5597 	.word	___ghs_eofn_BusMsgGetTyrePressValidHR
00001095 0153           5598 	.byte	1,83
00001097 02             5599 	.byte	2
00001098 00             5600 	.byte	0
00001099 02             5601 	.byte	2
0000109a 00             5602 	.byte	0
0000109b 00             5603 	.byte	0
0000109c 00             5604 	.byte	0
0000109d 00             5605 	.byte	0
0000109e 01             5606 	.byte	1
0000109f 01             5607 	.byte	1
000010a0 00             5608 	.byte	0
000010a1 01             5609 	.byte	1
                        5610 
                        5611 	.section	.debug_frame
                        5612 .LDW_4b1e388:
00000240 00000000*      5613 	.word	.LDW_unq_28-.LDW_unq_27
                        5614 .LDW_unq_27:

                                                                      Page 111
                                                              C:\Users\nhuliyap\AppData\Local\Temp\gh_0000en81.s
00000244 00000000*      5615 	.word	.LDW_4c0ea58
00000248 00000000*      5616 	.word	_BusMsgGetTyrePressValidHR
0000024c 00000000*      5617 	.word	___ghs_eofn_BusMsgGetTyrePressValidHR-_BusMsgGetTyrePressValidHR
00000250 01             5618 	.byte	1
00000251 00000000*      5619 	.word	.LDW74
00000255 00             5620 	.byte	0
00000256 00             5621 	.byte	0
00000257 00             5622 	.byte	0
                        5623 .LDW_unq_28:
                        5624 	.section	.debug_line
00000710 000502         5625 	.byte	0,5,2
00000713 00000000*      5626 	.word	_BusMsgGetTyrePressValidHR
00000717 06             5627 	.byte	6
00000718 03             5628 	.byte	3
00000719 bf01           5629 	.byte	191,1
0000071b 02             5630 	.byte	2
0000071c 00             5631 	.byte	0
0000071d 01             5632 	.byte	1
0000071e 06             5633 	.byte	6
0000071f 000502         5634 	.byte	0,5,2
00000722 00000000*      5635 	.word	.LDWlin33
00000726 02             5636 	.byte	2
00000727 00             5637 	.byte	0
00000728 02             5638 	.byte	2
00000729 02             5639 	.byte	2
0000072a 000101         5640 	.byte	0,1,1
                        5641 	.section	.debug_info
                        5642 .LDW_4be2158:
000010a2 1d             5643 	.byte	29
000010a3 00000000*      5644 	.word	.LDW64
000010a7 00000000*      5645 	.word	.LDW74
                        5646 
000010ab 00             5647 	.byte	0
                        5648 
000010ac 00             5649 	.byte	0
                        5650 
                        5651 .LDW_4c42238:
000010ad 13             5652 	.byte	19
000010ae 4275734d7367   5653 	.strz	"BusMsgPutTextflag"
000010b4 507574546578 
000010ba 74666c616700 
000010c0 c301           5654 	.byte	195,1
000010c2 06             5655 	.byte	6
000010c3 01             5656 	.byte	1
000010c4 00000000*      5657 	.word	_BusMsgPutTextflag
000010c8 00000000*      5658 	.word	___ghs_eofn_BusMsgPutTextflag
000010cc 0153           5659 	.byte	1,83
000010ce 02             5660 	.byte	2
000010cf 00             5661 	.byte	0
000010d0 02             5662 	.byte	2
000010d1 00             5663 	.byte	0
000010d2 00             5664 	.byte	0
000010d3 00             5665 	.byte	0
000010d4 00             5666 	.byte	0
000010d5 01             5667 	.byte	1
000010d6 01             5668 	.byte	1
000010d7 00             5669 	.byte	0
000010d8 01             5670 	.byte	1
                        5671 
                        5672 	.section	.debug_frame
                        5673 .LDW_4b1e3c8:

                                                                      Page 112
                                                              C:\Users\nhuliyap\AppData\Local\Temp\gh_0000en81.s
00000258 00000000*      5674 	.word	.LDW_unq_2a-.LDW_unq_29
                        5675 .LDW_unq_29:
0000025c 00000000*      5676 	.word	.LDW_4c0ea58
00000260 00000000*      5677 	.word	_BusMsgPutTextflag
00000264 00000000*      5678 	.word	___ghs_eofn_BusMsgPutTextflag-_BusMsgPutTextflag
00000268 01             5679 	.byte	1
00000269 00000000*      5680 	.word	.LDW94
0000026d 00             5681 	.byte	0
0000026e 00             5682 	.byte	0
0000026f 00             5683 	.byte	0
                        5684 .LDW_unq_2a:
                        5685 	.section	.debug_line
0000072d 000502         5686 	.byte	0,5,2
00000730 00000000*      5687 	.word	_BusMsgPutTextflag
00000734 03             5688 	.byte	3
00000735 c401           5689 	.byte	196,1
00000737 02             5690 	.byte	2
00000738 00             5691 	.byte	0
00000739 01             5692 	.byte	1
0000073a 06             5693 	.byte	6
0000073b 13             5694 	.byte	19
0000073c 000502         5695 	.byte	0,5,2
0000073f 00000000*      5696 	.word	.LDWlin34
00000743 02             5697 	.byte	2
00000744 00             5698 	.byte	0
00000745 0b             5699 	.byte	11
00000746 000502         5700 	.byte	0,5,2
00000749 00000000*      5701 	.word	.LDWlin35
0000074d 0b             5702 	.byte	11
0000074e 02             5703 	.byte	2
0000074f 00             5704 	.byte	0
00000750 0b             5705 	.byte	11
00000751 02             5706 	.byte	2
00000752 02             5707 	.byte	2
00000753 000101         5708 	.byte	0,1,1
                        5709 	.section	.debug_info
                        5710 .LDW_4c41388:
000010d9 0f             5711 	.byte	15
000010da 7563496400     5712 	.strz	"ucId"
000010df c401           5713 	.byte	196,1
000010e1 0a             5714 	.byte	10
000010e2 01             5715 	.byte	1
000010e3 00000000*      5716 	.word	.LDW_480ee30
000010e7 00             5717 	.byte	0
000010e8 0156           5718 	.byte	1,86
                        5719 
                        5720 .LDW_4c410c8:
000010ea 0f             5721 	.byte	15
000010eb 627374617465   5722 	.strz	"bstate"
000010f1 00 
000010f2 c501           5723 	.byte	197,1
000010f4 0c             5724 	.byte	12
000010f5 01             5725 	.byte	1
000010f6 00000000*      5726 	.word	.LDW_4b34810
000010fa 00             5727 	.byte	0
000010fb 0157           5728 	.byte	1,87
                        5729 
                        5730 .LDW_4be2398:
000010fd 1d             5731 	.byte	29
000010fe 00000000*      5732 	.word	.LDW84
00001102 00000000*      5733 	.word	.LDW94

                                                                      Page 113
                                                              C:\Users\nhuliyap\AppData\Local\Temp\gh_0000en81.s
                        5734 
00001106 00             5735 	.byte	0
                        5736 
00001107 00             5737 	.byte	0
                        5738 
                        5739 .LDW_4c41e10:
00001108 14             5740 	.byte	20
00001109 4275734d7367   5741 	.strz	"BusMsgGetTextflag"
0000110f 476574546578 
00001115 74666c616700 
0000111b cb01           5742 	.byte	203,1
0000111d 09             5743 	.byte	9
0000111e 01             5744 	.byte	1
0000111f 00000000*      5745 	.word	.LDW_4b34810
00001123 00000000*      5746 	.word	_BusMsgGetTextflag
00001127 00000000*      5747 	.word	___ghs_eofn_BusMsgGetTextflag
0000112b 0153           5748 	.byte	1,83
0000112d 02             5749 	.byte	2
0000112e 00             5750 	.byte	0
0000112f 02             5751 	.byte	2
00001130 00             5752 	.byte	0
00001131 00             5753 	.byte	0
00001132 00             5754 	.byte	0
00001133 00             5755 	.byte	0
00001134 01             5756 	.byte	1
00001135 01             5757 	.byte	1
00001136 00             5758 	.byte	0
00001137 01             5759 	.byte	1
                        5760 
                        5761 	.section	.debug_frame
                        5762 .LDW_4b1e408:
00000270 00000000*      5763 	.word	.LDW_unq_2c-.LDW_unq_2b
                        5764 .LDW_unq_2b:
00000274 00000000*      5765 	.word	.LDW_4c0ea58
00000278 00000000*      5766 	.word	_BusMsgGetTextflag
0000027c 00000000*      5767 	.word	___ghs_eofn_BusMsgGetTextflag-_BusMsgGetTextflag
00000280 01             5768 	.byte	1
00000281 00000000*      5769 	.word	.LDW15
00000285 00             5770 	.byte	0
00000286 00             5771 	.byte	0
00000287 00             5772 	.byte	0
                        5773 .LDW_unq_2c:
                        5774 	.section	.debug_line
00000756 000502         5775 	.byte	0,5,2
00000759 00000000*      5776 	.word	_BusMsgGetTextflag
0000075d 03             5777 	.byte	3
0000075e cb01           5778 	.byte	203,1
00000760 02             5779 	.byte	2
00000761 00             5780 	.byte	0
00000762 01             5781 	.byte	1
00000763 06             5782 	.byte	6
00000764 15             5783 	.byte	21
00000765 000502         5784 	.byte	0,5,2
00000768 00000000*      5785 	.word	.LDWlin36
0000076c 02             5786 	.byte	2
0000076d 00             5787 	.byte	0
0000076e 0b             5788 	.byte	11
0000076f 000502         5789 	.byte	0,5,2
00000772 00000000*      5790 	.word	.LDWlin37
00000776 0b             5791 	.byte	11
00000777 02             5792 	.byte	2

                                                                      Page 114
                                                              C:\Users\nhuliyap\AppData\Local\Temp\gh_0000en81.s
00000778 00             5793 	.byte	0
00000779 0b             5794 	.byte	11
0000077a 02             5795 	.byte	2
0000077b 02             5796 	.byte	2
0000077c 000101         5797 	.byte	0,1,1
                        5798 	.section	.debug_info
                        5799 .LDW_4c416a0:
00001138 0f             5800 	.byte	15
00001139 7563496400     5801 	.strz	"ucId"
0000113e cc01           5802 	.byte	204,1
00001140 0a             5803 	.byte	10
00001141 01             5804 	.byte	1
00001142 00000000*      5805 	.word	.LDW_480ee30
00001146 00             5806 	.byte	0
00001147 0156           5807 	.byte	1,86
                        5808 
                        5809 .LDW_4be2428:
00001149 1d             5810 	.byte	29
0000114a 00000000*      5811 	.word	.LDW05
0000114e 00000000*      5812 	.word	.LDW15
                        5813 
                        5814 .LDW_4c41178:
00001152 04             5815 	.byte	4
00001153 6248656c7000   5816 	.strz	"bHelp"
00001159 cd01           5817 	.byte	205,1
0000115b 0c             5818 	.byte	12
0000115c 01             5819 	.byte	1
0000115d 00000000*      5820 	.word	.LDW_4b34810
00001161 00             5821 	.byte	0
00001162 00             5822 	.byte	0
00001163 015a           5823 	.byte	1,90
                        5824 
00001165 00             5825 	.byte	0
                        5826 
00001166 00             5827 	.byte	0
                        5828 
                        5829 .LDW_4c42530:
00001167 13             5830 	.byte	19
00001168 4275734d7367   5831 	.strz	"BusMsgDoTeleFinished"
0000116e 446f54656c65 
00001174 46696e697368 
0000117a 656400 
0000117d d501           5832 	.byte	213,1
0000117f 06             5833 	.byte	6
00001180 01             5834 	.byte	1
00001181 00000000*      5835 	.word	_BusMsgDoTeleFinished
00001185 00000000*      5836 	.word	___ghs_eofn_BusMsgDoTeleFinished
00001189 0153           5837 	.byte	1,83
0000118b 828080800a     5838 	.byte	130,128,128,128,10
00001190 08             5839 	.byte	8
00001191 03             5840 	.byte	3
00001192 08             5841 	.byte	8
00001193 00             5842 	.byte	0
00001194 00             5843 	.byte	0
00001195 00             5844 	.byte	0
00001196 01             5845 	.byte	1
00001197 01             5846 	.byte	1
00001198 00             5847 	.byte	0
00001199 01             5848 	.byte	1
                        5849 
                        5850 	.section	.debug_frame

                                                                      Page 115
                                                              C:\Users\nhuliyap\AppData\Local\Temp\gh_0000en81.s
                        5851 .LDW_4dc82c0:
00000288 00000000*      5852 	.word	.LDW_unq_2e-.LDW_unq_2d
                        5853 .LDW_unq_2d:
0000028c 00000000*      5854 	.word	.LDW_4c0ea58
00000290 00000000*      5855 	.word	_BusMsgDoTeleFinished
00000294 00000000*      5856 	.word	___ghs_eofn_BusMsgDoTeleFinished-_BusMsgDoTeleFinished
00000298 44             5857 	.byte	68
00000299 9f             5858 	.byte	159
0000029a 00             5859 	.byte	0
0000029b 40             5860 	.byte	64
0000029c 9d             5861 	.byte	157
0000029d 04             5862 	.byte	4
0000029e 01             5863 	.byte	1
0000029f 00000000*      5864 	.word	.LDW76
000002a3 00             5865 	.byte	0
                        5866 .LDW_unq_2e:
                        5867 	.section	.debug_line
0000077f 000502         5868 	.byte	0,5,2
00000782 00000000*      5869 	.word	_BusMsgDoTeleFinished
00000786 03             5870 	.byte	3
00000787 d401           5871 	.byte	212,1
00000789 02             5872 	.byte	2
0000078a 00             5873 	.byte	0
0000078b 01             5874 	.byte	1
0000078c 06             5875 	.byte	6
0000078d 03             5876 	.byte	3
0000078e 04             5877 	.byte	4
0000078f 02             5878 	.byte	2
00000790 04             5879 	.byte	4
00000791 01             5880 	.byte	1
00000792 000502         5881 	.byte	0,5,2
00000795 00000000*      5882 	.word	.LDWlin139
00000799 0b             5883 	.byte	11
0000079a 000502         5884 	.byte	0,5,2
0000079d 00000000*      5885 	.word	.LDWlin140
000007a1 03             5886 	.byte	3
000007a2 08             5887 	.byte	8
000007a3 02             5888 	.byte	2
000007a4 00             5889 	.byte	0
000007a5 01             5890 	.byte	1
000007a6 0b             5891 	.byte	11
000007a7 0b             5892 	.byte	11
000007a8 000502         5893 	.byte	0,5,2
000007ab 00000000*      5894 	.word	.LDWlin141
000007af 03             5895 	.byte	3
000007b0 78             5896 	.byte	120
000007b1 02             5897 	.byte	2
000007b2 00             5898 	.byte	0
000007b3 01             5899 	.byte	1
000007b4 0b             5900 	.byte	11
000007b5 000502         5901 	.byte	0,5,2
000007b8 00000000*      5902 	.word	.LDWlin142
000007bc 03             5903 	.byte	3
000007bd 08             5904 	.byte	8
000007be 02             5905 	.byte	2
000007bf 00             5906 	.byte	0
000007c0 01             5907 	.byte	1
000007c1 0b             5908 	.byte	11
000007c2 06             5909 	.byte	6
000007c3 15             5910 	.byte	21
000007c4 03             5911 	.byte	3

                                                                      Page 116
                                                              C:\Users\nhuliyap\AppData\Local\Temp\gh_0000en81.s
000007c5 77             5912 	.byte	119
000007c6 02             5913 	.byte	2
000007c7 00             5914 	.byte	0
000007c8 01             5915 	.byte	1
000007c9 03             5916 	.byte	3
000007ca 06             5917 	.byte	6
000007cb 02             5918 	.byte	2
000007cc 00             5919 	.byte	0
000007cd 01             5920 	.byte	1
000007ce 06             5921 	.byte	6
000007cf 000502         5922 	.byte	0,5,2
000007d2 00000000*      5923 	.word	.LDWlin143
000007d6 03             5924 	.byte	3
000007d7 05             5925 	.byte	5
000007d8 02             5926 	.byte	2
000007d9 00             5927 	.byte	0
000007da 01             5928 	.byte	1
000007db 02             5929 	.byte	2
000007dc 00             5930 	.byte	0
000007dd 0b             5931 	.byte	11
000007de 02             5932 	.byte	2
000007df 00             5933 	.byte	0
000007e0 0b             5934 	.byte	11
000007e1 000502         5935 	.byte	0,5,2
000007e4 00000000*      5936 	.word	.LDWlin144
000007e8 0b             5937 	.byte	11
000007e9 0b             5938 	.byte	11
000007ea 000502         5939 	.byte	0,5,2
000007ed 00000000*      5940 	.word	.LDWlin145
000007f1 0b             5941 	.byte	11
000007f2 000502         5942 	.byte	0,5,2
000007f5 00000000*      5943 	.word	.LDWlin146
000007f9 02             5944 	.byte	2
000007fa 00             5945 	.byte	0
000007fb 0b             5946 	.byte	11
000007fc 000502         5947 	.byte	0,5,2
000007ff 00000000*      5948 	.word	.LDWlin147
00000803 0d             5949 	.byte	13
00000804 02             5950 	.byte	2
00000805 00             5951 	.byte	0
00000806 0b             5952 	.byte	11
00000807 000502         5953 	.byte	0,5,2
0000080a 00000000*      5954 	.word	.LDWlin148
0000080e 0b             5955 	.byte	11
0000080f 000502         5956 	.byte	0,5,2
00000812 00000000*      5957 	.word	.LDWlin149
00000816 0b             5958 	.byte	11
00000817 000502         5959 	.byte	0,5,2
0000081a 00000000*      5960 	.word	.LDWlin150
0000081e 0b             5961 	.byte	11
0000081f 000502         5962 	.byte	0,5,2
00000822 00000000*      5963 	.word	.LDWlin151
00000826 0b             5964 	.byte	11
00000827 0b             5965 	.byte	11
00000828 0b             5966 	.byte	11
00000829 000502         5967 	.byte	0,5,2
0000082c 00000000*      5968 	.word	.LDWlin152
00000830 0d             5969 	.byte	13
00000831 0b             5970 	.byte	11
00000832 000502         5971 	.byte	0,5,2
00000835 00000000*      5972 	.word	.LDWlin153

                                                                      Page 117
                                                              C:\Users\nhuliyap\AppData\Local\Temp\gh_0000en81.s
00000839 0b             5973 	.byte	11
0000083a 000502         5974 	.byte	0,5,2
0000083d 00000000*      5975 	.word	.LDWlin154
00000841 02             5976 	.byte	2
00000842 00             5977 	.byte	0
00000843 0b             5978 	.byte	11
00000844 000502         5979 	.byte	0,5,2
00000847 00000000*      5980 	.word	.LDWlin155
0000084b 0d             5981 	.byte	13
0000084c 02             5982 	.byte	2
0000084d 00             5983 	.byte	0
0000084e 0b             5984 	.byte	11
0000084f 000502         5985 	.byte	0,5,2
00000852 00000000*      5986 	.word	.LDWlin156
00000856 0b             5987 	.byte	11
00000857 0b             5988 	.byte	11
00000858 0b             5989 	.byte	11
00000859 02             5990 	.byte	2
0000085a 00             5991 	.byte	0
0000085b 0b             5992 	.byte	11
0000085c 02             5993 	.byte	2
0000085d 00             5994 	.byte	0
0000085e 0b             5995 	.byte	11
0000085f 000502         5996 	.byte	0,5,2
00000862 00000000*      5997 	.word	.LDWlin157
00000866 0d             5998 	.byte	13
00000867 000502         5999 	.byte	0,5,2
0000086a 00000000*      6000 	.word	.LDWlin158
0000086e 03             6001 	.byte	3
0000086f 04             6002 	.byte	4
00000870 02             6003 	.byte	2
00000871 00             6004 	.byte	0
00000872 01             6005 	.byte	1
00000873 0b             6006 	.byte	11
00000874 000502         6007 	.byte	0,5,2
00000877 00000000*      6008 	.word	.LDWlin159
0000087b 0d             6009 	.byte	13
0000087c 000502         6010 	.byte	0,5,2
0000087f 00000000*      6011 	.word	.LDWlin160
00000883 0c             6012 	.byte	12
00000884 000502         6013 	.byte	0,5,2
00000887 00000000*      6014 	.word	.LDWlin161
0000088b 0d             6015 	.byte	13
0000088c 0b             6016 	.byte	11
0000088d 0b             6017 	.byte	11
0000088e 000502         6018 	.byte	0,5,2
00000891 00000000*      6019 	.word	.LDWlin162
00000895 0c             6020 	.byte	12
00000896 000502         6021 	.byte	0,5,2
00000899 00000000*      6022 	.word	.LDWlin163
0000089d 02             6023 	.byte	2
0000089e 00             6024 	.byte	0
0000089f 0b             6025 	.byte	11
000008a0 000502         6026 	.byte	0,5,2
000008a3 00000000*      6027 	.word	.LDWlin164
000008a7 0d             6028 	.byte	13
000008a8 000502         6029 	.byte	0,5,2
000008ab 00000000*      6030 	.word	.LDWlin165
000008af 0c             6031 	.byte	12
000008b0 0b             6032 	.byte	11
000008b1 0b             6033 	.byte	11

                                                                      Page 118
                                                              C:\Users\nhuliyap\AppData\Local\Temp\gh_0000en81.s
000008b2 000502         6034 	.byte	0,5,2
000008b5 00000000*      6035 	.word	.LDWlin166
000008b9 0d             6036 	.byte	13
000008ba 000502         6037 	.byte	0,5,2
000008bd 00000000*      6038 	.word	.LDWlin167
000008c1 0c             6039 	.byte	12
000008c2 02             6040 	.byte	2
000008c3 00             6041 	.byte	0
000008c4 0b             6042 	.byte	11
000008c5 02             6043 	.byte	2
000008c6 00             6044 	.byte	0
000008c7 0b             6045 	.byte	11
000008c8 000502         6046 	.byte	0,5,2
000008cb 00000000*      6047 	.word	.LDWlin168
000008cf 0d             6048 	.byte	13
000008d0 000502         6049 	.byte	0,5,2
000008d3 00000000*      6050 	.word	.LDWlin169
000008d7 03             6051 	.byte	3
000008d8 04             6052 	.byte	4
000008d9 02             6053 	.byte	2
000008da 00             6054 	.byte	0
000008db 01             6055 	.byte	1
000008dc 0b             6056 	.byte	11
000008dd 000502         6057 	.byte	0,5,2
000008e0 00000000*      6058 	.word	.LDWlin170
000008e4 0d             6059 	.byte	13
000008e5 000502         6060 	.byte	0,5,2
000008e8 00000000*      6061 	.word	.LDWlin171
000008ec 0c             6062 	.byte	12
000008ed 000502         6063 	.byte	0,5,2
000008f0 00000000*      6064 	.word	.LDWlin172
000008f4 0d             6065 	.byte	13
000008f5 0b             6066 	.byte	11
000008f6 0b             6067 	.byte	11
000008f7 000502         6068 	.byte	0,5,2
000008fa 00000000*      6069 	.word	.LDWlin173
000008fe 0c             6070 	.byte	12
000008ff 000502         6071 	.byte	0,5,2
00000902 00000000*      6072 	.word	.LDWlin174
00000906 02             6073 	.byte	2
00000907 00             6074 	.byte	0
00000908 0b             6075 	.byte	11
00000909 000502         6076 	.byte	0,5,2
0000090c 00000000*      6077 	.word	.LDWlin175
00000910 0d             6078 	.byte	13
00000911 000502         6079 	.byte	0,5,2
00000914 00000000*      6080 	.word	.LDWlin176
00000918 0c             6081 	.byte	12
00000919 0b             6082 	.byte	11
0000091a 0b             6083 	.byte	11
0000091b 000502         6084 	.byte	0,5,2
0000091e 00000000*      6085 	.word	.LDWlin177
00000922 0d             6086 	.byte	13
00000923 000502         6087 	.byte	0,5,2
00000926 00000000*      6088 	.word	.LDWlin178
0000092a 0c             6089 	.byte	12
0000092b 02             6090 	.byte	2
0000092c 00             6091 	.byte	0
0000092d 0b             6092 	.byte	11
0000092e 02             6093 	.byte	2
0000092f 00             6094 	.byte	0

                                                                      Page 119
                                                              C:\Users\nhuliyap\AppData\Local\Temp\gh_0000en81.s
00000930 0b             6095 	.byte	11
00000931 000502         6096 	.byte	0,5,2
00000934 00000000*      6097 	.word	.LDWlin179
00000938 0d             6098 	.byte	13
00000939 000502         6099 	.byte	0,5,2
0000093c 00000000*      6100 	.word	.LDWlin180
00000940 03             6101 	.byte	3
00000941 04             6102 	.byte	4
00000942 02             6103 	.byte	2
00000943 00             6104 	.byte	0
00000944 01             6105 	.byte	1
00000945 0b             6106 	.byte	11
00000946 000502         6107 	.byte	0,5,2
00000949 00000000*      6108 	.word	.LDWlin181
0000094d 0d             6109 	.byte	13
0000094e 000502         6110 	.byte	0,5,2
00000951 00000000*      6111 	.word	.LDWlin182
00000955 0c             6112 	.byte	12
00000956 000502         6113 	.byte	0,5,2
00000959 00000000*      6114 	.word	.LDWlin183
0000095d 0d             6115 	.byte	13
0000095e 0b             6116 	.byte	11
0000095f 0b             6117 	.byte	11
00000960 000502         6118 	.byte	0,5,2
00000963 00000000*      6119 	.word	.LDWlin184
00000967 0c             6120 	.byte	12
00000968 000502         6121 	.byte	0,5,2
0000096b 00000000*      6122 	.word	.LDWlin185
0000096f 02             6123 	.byte	2
00000970 00             6124 	.byte	0
00000971 0b             6125 	.byte	11
00000972 000502         6126 	.byte	0,5,2
00000975 00000000*      6127 	.word	.LDWlin186
00000979 0d             6128 	.byte	13
0000097a 000502         6129 	.byte	0,5,2
0000097d 00000000*      6130 	.word	.LDWlin187
00000981 0c             6131 	.byte	12
00000982 0b             6132 	.byte	11
00000983 0b             6133 	.byte	11
00000984 000502         6134 	.byte	0,5,2
00000987 00000000*      6135 	.word	.LDWlin188
0000098b 0d             6136 	.byte	13
0000098c 000502         6137 	.byte	0,5,2
0000098f 00000000*      6138 	.word	.LDWlin189
00000993 0c             6139 	.byte	12
00000994 02             6140 	.byte	2
00000995 00             6141 	.byte	0
00000996 0b             6142 	.byte	11
00000997 02             6143 	.byte	2
00000998 00             6144 	.byte	0
00000999 0b             6145 	.byte	11
0000099a 000502         6146 	.byte	0,5,2
0000099d 00000000*      6147 	.word	.LDWlin190
000009a1 0d             6148 	.byte	13
000009a2 000502         6149 	.byte	0,5,2
000009a5 00000000*      6150 	.word	.LDWlin191
000009a9 03             6151 	.byte	3
000009aa 04             6152 	.byte	4
000009ab 02             6153 	.byte	2
000009ac 00             6154 	.byte	0
000009ad 01             6155 	.byte	1

                                                                      Page 120
                                                              C:\Users\nhuliyap\AppData\Local\Temp\gh_0000en81.s
000009ae 0b             6156 	.byte	11
000009af 000502         6157 	.byte	0,5,2
000009b2 00000000*      6158 	.word	.LDWlin192
000009b6 0d             6159 	.byte	13
000009b7 000502         6160 	.byte	0,5,2
000009ba 00000000*      6161 	.word	.LDWlin193
000009be 0c             6162 	.byte	12
000009bf 000502         6163 	.byte	0,5,2
000009c2 00000000*      6164 	.word	.LDWlin194
000009c6 0d             6165 	.byte	13
000009c7 0b             6166 	.byte	11
000009c8 0b             6167 	.byte	11
000009c9 000502         6168 	.byte	0,5,2
000009cc 00000000*      6169 	.word	.LDWlin195
000009d0 0c             6170 	.byte	12
000009d1 000502         6171 	.byte	0,5,2
000009d4 00000000*      6172 	.word	.LDWlin196
000009d8 02             6173 	.byte	2
000009d9 00             6174 	.byte	0
000009da 0b             6175 	.byte	11
000009db 000502         6176 	.byte	0,5,2
000009de 00000000*      6177 	.word	.LDWlin197
000009e2 0d             6178 	.byte	13
000009e3 000502         6179 	.byte	0,5,2
000009e6 00000000*      6180 	.word	.LDWlin198
000009ea 0c             6181 	.byte	12
000009eb 0b             6182 	.byte	11
000009ec 0b             6183 	.byte	11
000009ed 000502         6184 	.byte	0,5,2
000009f0 00000000*      6185 	.word	.LDWlin199
000009f4 0d             6186 	.byte	13
000009f5 000502         6187 	.byte	0,5,2
000009f8 00000000*      6188 	.word	.LDWlin200
000009fc 0c             6189 	.byte	12
000009fd 02             6190 	.byte	2
000009fe 00             6191 	.byte	0
000009ff 0b             6192 	.byte	11
00000a00 02             6193 	.byte	2
00000a01 00             6194 	.byte	0
00000a02 0b             6195 	.byte	11
00000a03 02             6196 	.byte	2
00000a04 04             6197 	.byte	4
00000a05 000101         6198 	.byte	0,1,1
                        6199 	.section	.debug_info
                        6200 .LDW_4be2518:
0000119a 1d             6201 	.byte	29
0000119b 00000000*      6202 	.word	.LDW66
0000119f 00000000*      6203 	.word	.LDW76
                        6204 
                        6205 .LDW_4c41598:
000011a3 04             6206 	.byte	4
000011a4 756354656d70   6207 	.strz	"ucTemp1"
000011aa 3100 
000011ac d601           6208 	.byte	214,1
000011ae 0a             6209 	.byte	10
000011af 01             6210 	.byte	1
000011b0 00000000*      6211 	.word	.LDW_480ee30
000011b4 00             6212 	.byte	0
000011b5 00             6213 	.byte	0
000011b6 0157           6214 	.byte	1,87
                        6215 

                                                                      Page 121
                                                              C:\Users\nhuliyap\AppData\Local\Temp\gh_0000en81.s
                        6216 .LDW_4c41228:
000011b8 05             6217 	.byte	5
000011b9 756352654572   6218 	.strz	"ucReErrCount"
000011bf 72436f756e74 
000011c5 00 
000011c6 d701           6219 	.byte	215,1
000011c8 0a             6220 	.byte	10
000011c9 01             6221 	.byte	1
000011ca 00000000*      6222 	.word	.LDW_480ee30
000011ce 00             6223 	.byte	0
000011cf 00             6224 	.byte	0
                        6225 
                        6226 .LDW_4c415f0:
000011d0 04             6227 	.byte	4
000011d1 757354656d70   6228 	.strz	"usTempNoRxTime"
000011d7 4e6f52785469 
000011dd 6d6500 
000011e0 d801           6229 	.byte	216,1
000011e2 0b             6230 	.byte	11
000011e3 01             6231 	.byte	1
000011e4 00000000*      6232 	.word	.LDW_4c416f8
000011e8 00             6233 	.byte	0
000011e9 00             6234 	.byte	0
000011ea 016d           6235 	.byte	1,109
                        6236 
000011ec 00             6237 	.byte	0
                        6238 
000011ed 00             6239 	.byte	0
                        6240 
                        6241 .LDW_4c418b8:
000011ee 13             6242 	.byte	19
000011ef 4275734d7367   6243 	.strz	"BusMsgDetermineTemperatures"
000011f5 44657465726d 
000011fb 696e6554656d 
00001201 706572617475 
00001207 72657300 
0000120b 9803           6244 	.byte	152,3
0000120d 06             6245 	.byte	6
0000120e 01             6246 	.byte	1
0000120f 00000000*      6247 	.word	_BusMsgDetermineTemperatures
00001213 00000000*      6248 	.word	___ghs_eofn_BusMsgDetermineTemperatures
00001217 0153           6249 	.byte	1,83
00001219 828080800a     6250 	.byte	130,128,128,128,10
0000121e 08             6251 	.byte	8
0000121f 03             6252 	.byte	3
00001220 08             6253 	.byte	8
00001221 00             6254 	.byte	0
00001222 00             6255 	.byte	0
00001223 00             6256 	.byte	0
00001224 01             6257 	.byte	1
00001225 01             6258 	.byte	1
00001226 00             6259 	.byte	0
00001227 01             6260 	.byte	1
                        6261 
                        6262 	.section	.debug_frame
                        6263 .LDW_4dc8940:
000002a4 00000000*      6264 	.word	.LDW_unq_30-.LDW_unq_2f
                        6265 .LDW_unq_2f:
000002a8 00000000*      6266 	.word	.LDW_4c0ea58
000002ac 00000000*      6267 	.word	_BusMsgDetermineTemperatures
000002b0 00000000*      6268 	.word	___ghs_eofn_BusMsgDetermineTemperatures-_BusMsgDetermineTemperatures

                                                                      Page 122
                                                              C:\Users\nhuliyap\AppData\Local\Temp\gh_0000en81.s
000002b4 44             6269 	.byte	68
000002b5 9f             6270 	.byte	159
000002b6 00             6271 	.byte	0
000002b7 40             6272 	.byte	64
000002b8 9d             6273 	.byte	157
000002b9 04             6274 	.byte	4
000002ba 01             6275 	.byte	1
000002bb 00000000*      6276 	.word	.LDW96
000002bf 00             6277 	.byte	0
                        6278 .LDW_unq_30:
                        6279 	.section	.debug_line
00000a08 000502         6280 	.byte	0,5,2
00000a0b 00000000*      6281 	.word	_BusMsgDetermineTemperatures
00000a0f 03             6282 	.byte	3
00000a10 9703           6283 	.byte	151,3
00000a12 02             6284 	.byte	2
00000a13 00             6285 	.byte	0
00000a14 01             6286 	.byte	1
00000a15 06             6287 	.byte	6
00000a16 03             6288 	.byte	3
00000a17 04             6289 	.byte	4
00000a18 02             6290 	.byte	2
00000a19 04             6291 	.byte	4
00000a1a 01             6292 	.byte	1
00000a1b 000502         6293 	.byte	0,5,2
00000a1e 00000000*      6294 	.word	.LDWlin201
00000a22 0b             6295 	.byte	11
00000a23 000502         6296 	.byte	0,5,2
00000a26 00000000*      6297 	.word	.LDWlin202
00000a2a 03             6298 	.byte	3
00000a2b 06             6299 	.byte	6
00000a2c 02             6300 	.byte	2
00000a2d 00             6301 	.byte	0
00000a2e 01             6302 	.byte	1
00000a2f 0b             6303 	.byte	11
00000a30 0b             6304 	.byte	11
00000a31 000502         6305 	.byte	0,5,2
00000a34 00000000*      6306 	.word	.LDWlin203
00000a38 03             6307 	.byte	3
00000a39 7a             6308 	.byte	122
00000a3a 02             6309 	.byte	2
00000a3b 00             6310 	.byte	0
00000a3c 01             6311 	.byte	1
00000a3d 0b             6312 	.byte	11
00000a3e 000502         6313 	.byte	0,5,2
00000a41 00000000*      6314 	.word	.LDWlin204
00000a45 03             6315 	.byte	3
00000a46 06             6316 	.byte	6
00000a47 02             6317 	.byte	2
00000a48 00             6318 	.byte	0
00000a49 01             6319 	.byte	1
00000a4a 0b             6320 	.byte	11
00000a4b 000502         6321 	.byte	0,5,2
00000a4e 00000000*      6322 	.word	.LDWlin205
00000a52 0d             6323 	.byte	13
00000a53 02             6324 	.byte	2
00000a54 00             6325 	.byte	0
00000a55 0b             6326 	.byte	11
00000a56 02             6327 	.byte	2
00000a57 00             6328 	.byte	0
00000a58 0b             6329 	.byte	11

                                                                      Page 123
                                                              C:\Users\nhuliyap\AppData\Local\Temp\gh_0000en81.s
00000a59 000502         6330 	.byte	0,5,2
00000a5c 00000000*      6331 	.word	.LDWlin206
00000a60 0b             6332 	.byte	11
00000a61 000502         6333 	.byte	0,5,2
00000a64 00000000*      6334 	.word	.LDWlin207
00000a68 02             6335 	.byte	2
00000a69 00             6336 	.byte	0
00000a6a 0b             6337 	.byte	11
00000a6b 000502         6338 	.byte	0,5,2
00000a6e 00000000*      6339 	.word	.LDWlin208
00000a72 0d             6340 	.byte	13
00000a73 02             6341 	.byte	2
00000a74 00             6342 	.byte	0
00000a75 0b             6343 	.byte	11
00000a76 000502         6344 	.byte	0,5,2
00000a79 00000000*      6345 	.word	.LDWlin209
00000a7d 0d             6346 	.byte	13
00000a7e 000502         6347 	.byte	0,5,2
00000a81 00000000*      6348 	.word	.LDWlin210
00000a85 03             6349 	.byte	3
00000a86 04             6350 	.byte	4
00000a87 02             6351 	.byte	2
00000a88 00             6352 	.byte	0
00000a89 01             6353 	.byte	1
00000a8a 0b             6354 	.byte	11
00000a8b 000502         6355 	.byte	0,5,2
00000a8e 00000000*      6356 	.word	.LDWlin211
00000a92 0d             6357 	.byte	13
00000a93 0b             6358 	.byte	11
00000a94 0b             6359 	.byte	11
00000a95 000502         6360 	.byte	0,5,2
00000a98 00000000*      6361 	.word	.LDWlin212
00000a9c 0c             6362 	.byte	12
00000a9d 15             6363 	.byte	21
00000a9e 02             6364 	.byte	2
00000a9f 00             6365 	.byte	0
00000aa0 0b             6366 	.byte	11
00000aa1 000502         6367 	.byte	0,5,2
00000aa4 00000000*      6368 	.word	.LDWlin213
00000aa8 0d             6369 	.byte	13
00000aa9 000502         6370 	.byte	0,5,2
00000aac 00000000*      6371 	.word	.LDWlin214
00000ab0 03             6372 	.byte	3
00000ab1 04             6373 	.byte	4
00000ab2 02             6374 	.byte	2
00000ab3 00             6375 	.byte	0
00000ab4 01             6376 	.byte	1
00000ab5 0b             6377 	.byte	11
00000ab6 000502         6378 	.byte	0,5,2
00000ab9 00000000*      6379 	.word	.LDWlin215
00000abd 0d             6380 	.byte	13
00000abe 0b             6381 	.byte	11
00000abf 0b             6382 	.byte	11
00000ac0 000502         6383 	.byte	0,5,2
00000ac3 00000000*      6384 	.word	.LDWlin216
00000ac7 0c             6385 	.byte	12
00000ac8 15             6386 	.byte	21
00000ac9 02             6387 	.byte	2
00000aca 00             6388 	.byte	0
00000acb 0b             6389 	.byte	11
00000acc 000502         6390 	.byte	0,5,2

                                                                      Page 124
                                                              C:\Users\nhuliyap\AppData\Local\Temp\gh_0000en81.s
00000acf 00000000*      6391 	.word	.LDWlin217
00000ad3 0d             6392 	.byte	13
00000ad4 000502         6393 	.byte	0,5,2
00000ad7 00000000*      6394 	.word	.LDWlin218
00000adb 03             6395 	.byte	3
00000adc 04             6396 	.byte	4
00000add 02             6397 	.byte	2
00000ade 00             6398 	.byte	0
00000adf 01             6399 	.byte	1
00000ae0 0b             6400 	.byte	11
00000ae1 000502         6401 	.byte	0,5,2
00000ae4 00000000*      6402 	.word	.LDWlin219
00000ae8 0d             6403 	.byte	13
00000ae9 0b             6404 	.byte	11
00000aea 0b             6405 	.byte	11
00000aeb 000502         6406 	.byte	0,5,2
00000aee 00000000*      6407 	.word	.LDWlin220
00000af2 0c             6408 	.byte	12
00000af3 15             6409 	.byte	21
00000af4 02             6410 	.byte	2
00000af5 00             6411 	.byte	0
00000af6 0b             6412 	.byte	11
00000af7 000502         6413 	.byte	0,5,2
00000afa 00000000*      6414 	.word	.LDWlin221
00000afe 0d             6415 	.byte	13
00000aff 000502         6416 	.byte	0,5,2
00000b02 00000000*      6417 	.word	.LDWlin222
00000b06 03             6418 	.byte	3
00000b07 04             6419 	.byte	4
00000b08 02             6420 	.byte	2
00000b09 00             6421 	.byte	0
00000b0a 01             6422 	.byte	1
00000b0b 0b             6423 	.byte	11
00000b0c 000502         6424 	.byte	0,5,2
00000b0f 00000000*      6425 	.word	.LDWlin223
00000b13 0d             6426 	.byte	13
00000b14 0b             6427 	.byte	11
00000b15 0b             6428 	.byte	11
00000b16 000502         6429 	.byte	0,5,2
00000b19 00000000*      6430 	.word	.LDWlin224
00000b1d 0c             6431 	.byte	12
00000b1e 000502         6432 	.byte	0,5,2
00000b21 00000000*      6433 	.word	.LDWlin225
00000b25 0d             6434 	.byte	13
00000b26 02             6435 	.byte	2
00000b27 00             6436 	.byte	0
00000b28 0b             6437 	.byte	11
00000b29 02             6438 	.byte	2
00000b2a 04             6439 	.byte	4
00000b2b 000101         6440 	.byte	0,1,1
                        6441 	.section	.debug_info
                        6442 .LDW_4be2008:
00001228 1d             6443 	.byte	29
00001229 00000000*      6444 	.word	.LDW86
0000122d 00000000*      6445 	.word	.LDW96
                        6446 
                        6447 .LDW_4c41280:
00001231 05             6448 	.byte	5
00001232 756354656d70   6449 	.strz	"ucTemperature"
00001238 657261747572 
0000123e 6500 

                                                                      Page 125
                                                              C:\Users\nhuliyap\AppData\Local\Temp\gh_0000en81.s
00001240 9903           6450 	.byte	153,3
00001242 0a             6451 	.byte	10
00001243 01             6452 	.byte	1
00001244 00000000*      6453 	.word	.LDW_480ee30
00001248 00             6454 	.byte	0
00001249 00             6455 	.byte	0
                        6456 
                        6457 .LDW_4c41750:
0000124a 05             6458 	.byte	5
0000124b 756352654572   6459 	.strz	"ucReErrCount"
00001251 72436f756e74 
00001257 00 
00001258 9a03           6460 	.byte	154,3
0000125a 0a             6461 	.byte	10
0000125b 01             6462 	.byte	1
0000125c 00000000*      6463 	.word	.LDW_480ee30
00001260 00             6464 	.byte	0
00001261 00             6465 	.byte	0
                        6466 
                        6467 .LDW_4c41018:
00001262 04             6468 	.byte	4
00001263 757354656d70   6469 	.strz	"usTempNoRxTime"
00001269 4e6f52785469 
0000126f 6d6500 
00001272 9b03           6470 	.byte	155,3
00001274 0b             6471 	.byte	11
00001275 01             6472 	.byte	1
00001276 00000000*      6473 	.word	.LDW_4c416f8
0000127a 00             6474 	.byte	0
0000127b 00             6475 	.byte	0
0000127c 016d           6476 	.byte	1,109
                        6477 
0000127e 00             6478 	.byte	0
                        6479 
0000127f 00             6480 	.byte	0
                        6481 
                        6482 .LDW_4c42070:
00001280 14             6483 	.byte	20
00001281 474554624e6f   6484 	.strz	"GETbNoWarnPartSurv"
00001287 5761726e5061 
0000128d 727453757276 
00001293 00 
00001294 8004           6485 	.byte	128,4
00001296 10             6486 	.byte	16
00001297 01             6487 	.byte	1
00001298 00000000*      6488 	.word	.LDW_4b34810
0000129c 00000000*      6489 	.word	_GETbNoWarnPartSurv..C.3A.5C_ECU2.5CECU_Rivian_A1.5CTarget.5Crepo_projects.5CpRealEcu.5CcR_LATEST.5Cmake.5Coutput.5Cobjects.5Cbusmsg.
000012a0 00000000*      6490 	.word	___ghs_eofn_GETbNoWarnPartSurv
000012a4 0153           6491 	.byte	1,83
000012a6 828080c00b     6492 	.byte	130,128,128,192,11
000012ab 10             6493 	.byte	16
000012ac 03             6494 	.byte	3
000012ad 10             6495 	.byte	16
000012ae 00             6496 	.byte	0
000012af 00             6497 	.byte	0
000012b0 00             6498 	.byte	0
000012b1 00             6499 	.byte	0
000012b2 01             6500 	.byte	1
000012b3 00             6501 	.byte	0
000012b4 01             6502 	.byte	1
                        6503 

                                                                      Page 126
                                                              C:\Users\nhuliyap\AppData\Local\Temp\gh_0000en81.s
                        6504 	.section	.debug_frame
                        6505 .LDW_4b1dd88:
000002c0 00000000*      6506 	.word	.LDW_unq_32-.LDW_unq_31
                        6507 .LDW_unq_31:
000002c4 00000000*      6508 	.word	.LDW_4c0ea58
000002c8 00000000*      6509 	.word	_GETbNoWarnPartSurv..C.3A.5C_ECU2.5CECU_Rivian_A1.5CTarget.5Crepo_projects.5CpRealEcu.5CcR_LATEST.5Cmake.5Coutput.5Cobjects.5Cbusmsg.
000002cc 00000000*      6510 	.word	___ghs_eofn_GETbNoWarnPartSurv-_GETbNoWarnPartSurv..C.3A.5C_ECU2.5CECU_Rivian_A1.5CTarget.5Crepo_projects.5CpRealEcu.5CcR_LATEST.5Cmake.5Coutput.5Cobjects.5Cbusmsg.
000002d0 44             6511 	.byte	68
000002d1 9f             6512 	.byte	159
000002d2 00             6513 	.byte	0
000002d3 40             6514 	.byte	64
000002d4 9d             6515 	.byte	157
000002d5 04             6516 	.byte	4
000002d6 40             6517 	.byte	64
000002d7 9c             6518 	.byte	156
000002d8 08             6519 	.byte	8
000002d9 40             6520 	.byte	64
000002da 9b             6521 	.byte	155
000002db 0c             6522 	.byte	12
000002dc 01             6523 	.byte	1
000002dd 00000000*      6524 	.word	.LDW35
000002e1 00             6525 	.byte	0
000002e2 00             6526 	.byte	0
000002e3 00             6527 	.byte	0
                        6528 .LDW_unq_32:
                        6529 	.section	.debug_line
00000b2e 000502         6530 	.byte	0,5,2
00000b31 00000000*      6531 	.word	_GETbNoWarnPartSurv..C.3A.5C_ECU2.5CECU_Rivian_A1.5CTarget.5Crepo_projects.5CpRealEcu.5CcR_LATEST.5Cmake.5Coutput.5Cobjects.5Cbusmsg.
00000b35 03             6532 	.byte	3
00000b36 8004           6533 	.byte	128,4
00000b38 02             6534 	.byte	2
00000b39 00             6535 	.byte	0
00000b3a 01             6536 	.byte	1
00000b3b 06             6537 	.byte	6
00000b3c 2b             6538 	.byte	43
00000b3d 13             6539 	.byte	19
00000b3e 000502         6540 	.byte	0,5,2
00000b41 00000000*      6541 	.word	.LDWlin38
00000b45 02             6542 	.byte	2
00000b46 00             6543 	.byte	0
00000b47 0b             6544 	.byte	11
00000b48 000502         6545 	.byte	0,5,2
00000b4b 00000000*      6546 	.word	.LDWlin39
00000b4f 02             6547 	.byte	2
00000b50 00             6548 	.byte	0
00000b51 0c             6549 	.byte	12
00000b52 02             6550 	.byte	2
00000b53 00             6551 	.byte	0
00000b54 0b             6552 	.byte	11
00000b55 000502         6553 	.byte	0,5,2
00000b58 00000000*      6554 	.word	.LDWlin40
00000b5c 02             6555 	.byte	2
00000b5d 00             6556 	.byte	0
00000b5e 0c             6557 	.byte	12
00000b5f 02             6558 	.byte	2
00000b60 00             6559 	.byte	0
00000b61 0b             6560 	.byte	11
00000b62 000502         6561 	.byte	0,5,2
00000b65 00000000*      6562 	.word	.LDWlin41
00000b69 02             6563 	.byte	2
00000b6a 00             6564 	.byte	0

                                                                      Page 127
                                                              C:\Users\nhuliyap\AppData\Local\Temp\gh_0000en81.s
00000b6b 0b             6565 	.byte	11
00000b6c 1b             6566 	.byte	27
00000b6d 02             6567 	.byte	2
00000b6e 00             6568 	.byte	0
00000b6f 0b             6569 	.byte	11
00000b70 02             6570 	.byte	2
00000b71 00             6571 	.byte	0
00000b72 0b             6572 	.byte	11
00000b73 06             6573 	.byte	6
00000b74 02             6574 	.byte	2
00000b75 02             6575 	.byte	2
00000b76 02             6576 	.byte	2
00000b77 04             6577 	.byte	4
00000b78 000101         6578 	.byte	0,1,1
                        6579 	.section	.debug_info
                        6580 .LDW_4c411d0:
000012b5 0f             6581 	.byte	15
000012b6 7563506f7300   6582 	.strz	"ucPos"
000012bc 8104           6583 	.byte	129,4
000012be 10             6584 	.byte	16
000012bf 01             6585 	.byte	1
000012c0 00000000*      6586 	.word	.LDW_4c41120
000012c4 00             6587 	.byte	0
000012c5 016b           6588 	.byte	1,107
                        6589 
                        6590 .LDW_4be25d8:
000012c7 1d             6591 	.byte	29
000012c8 00000000*      6592 	.word	.LDW25
000012cc 00000000*      6593 	.word	.LDW35
                        6594 
                        6595 .LDW_4c412d8:
000012d0 04             6596 	.byte	4
000012d1 756352657400   6597 	.strz	"ucRet"
000012d7 8204           6598 	.byte	130,4
000012d9 0a             6599 	.byte	10
000012da 01             6600 	.byte	1
000012db 00000000*      6601 	.word	.LDW_480ee30
000012df 00             6602 	.byte	0
000012e0 00             6603 	.byte	0
000012e1 016d           6604 	.byte	1,109
                        6605 
000012e3 00             6606 	.byte	0
                        6607 
000012e4 00             6608 	.byte	0
                        6609 
                        6610 .LDW_4c422d0:
000012e5 13             6611 	.byte	19
000012e6 4275734d7367   6612 	.strz	"BusMsgCheckWarningsFrontLeft"
000012ec 436865636b57 
000012f2 61726e696e67 
000012f8 7346726f6e74 
000012fe 4c65667400 
00001303 9104           6613 	.byte	145,4
00001305 0d             6614 	.byte	13
00001306 01             6615 	.byte	1
00001307 00000000*      6616 	.word	_BusMsgCheckWarningsFrontLeft..C.3A.5C_ECU2.5CECU_Rivian_A1.5CTarget.5Crepo_projects.5CpRealEcu.5CcR_LATEST.5Cmake.5Coutput.5Cobjects.5Cbusmsg.
0000130b 00000000*      6617 	.word	___ghs_eofn_BusMsgCheckWarningsFrontLeft
0000130f 0153           6618 	.byte	1,83
00001311 828080800a     6619 	.byte	130,128,128,128,10
00001316 08             6620 	.byte	8
00001317 03             6621 	.byte	3

                                                                      Page 128
                                                              C:\Users\nhuliyap\AppData\Local\Temp\gh_0000en81.s
00001318 08             6622 	.byte	8
00001319 00             6623 	.byte	0
0000131a 00             6624 	.byte	0
0000131b 00             6625 	.byte	0
0000131c 00             6626 	.byte	0
0000131d 01             6627 	.byte	1
0000131e 00             6628 	.byte	0
0000131f 01             6629 	.byte	1
                        6630 
                        6631 	.section	.debug_frame
                        6632 .LDW_4b1ea08:
000002e4 00000000*      6633 	.word	.LDW_unq_34-.LDW_unq_33
                        6634 .LDW_unq_33:
000002e8 00000000*      6635 	.word	.LDW_4c0ea58
000002ec 00000000*      6636 	.word	_BusMsgCheckWarningsFrontLeft..C.3A.5C_ECU2.5CECU_Rivian_A1.5CTarget.5Crepo_projects.5CpRealEcu.5CcR_LATEST.5Cmake.5Coutput.5Cobjects.5Cbusmsg.
000002f0 00000000*      6637 	.word	___ghs_eofn_BusMsgCheckWarningsFrontLeft-_BusMsgCheckWarningsFrontLeft..C.3A.5C_ECU2.5CECU_Rivian_A1.5CTarget.5Crepo_projects.5CpRealEcu.5CcR_LATEST.5Cmake.5Coutput.5Cobjects.5Cbusmsg.
000002f4 44             6638 	.byte	68
000002f5 9f             6639 	.byte	159
000002f6 00             6640 	.byte	0
000002f7 40             6641 	.byte	64
000002f8 9d             6642 	.byte	157
000002f9 04             6643 	.byte	4
000002fa 01             6644 	.byte	1
000002fb 00000000*      6645 	.word	.LDW75
000002ff 00             6646 	.byte	0
                        6647 .LDW_unq_34:
                        6648 	.section	.debug_line
00000b7b 000502         6649 	.byte	0,5,2
00000b7e 00000000*      6650 	.word	_BusMsgCheckWarningsFrontLeft..C.3A.5C_ECU2.5CECU_Rivian_A1.5CTarget.5Crepo_projects.5CpRealEcu.5CcR_LATEST.5Cmake.5Coutput.5Cobjects.5Cbusmsg.
00000b82 03             6651 	.byte	3
00000b83 9004           6652 	.byte	144,4
00000b85 02             6653 	.byte	2
00000b86 00             6654 	.byte	0
00000b87 01             6655 	.byte	1
00000b88 06             6656 	.byte	6
00000b89 1b             6657 	.byte	27
00000b8a 000502         6658 	.byte	0,5,2
00000b8d 00000000*      6659 	.word	.LDWlin46
00000b91 0c             6660 	.byte	12
00000b92 0b             6661 	.byte	11
00000b93 000502         6662 	.byte	0,5,2
00000b96 00000000*      6663 	.word	.LDWlin47
00000b9a 0d             6664 	.byte	13
00000b9b 000502         6665 	.byte	0,5,2
00000b9e 00000000*      6666 	.word	.LDWlin48
00000ba2 0c             6667 	.byte	12
00000ba3 0b             6668 	.byte	11
00000ba4 0b             6669 	.byte	11
00000ba5 000502         6670 	.byte	0,5,2
00000ba8 00000000*      6671 	.word	.LDWlin49
00000bac 0b             6672 	.byte	11
00000bad 0b             6673 	.byte	11
00000bae 000502         6674 	.byte	0,5,2
00000bb1 00000000*      6675 	.word	.LDWlin50
00000bb5 0d             6676 	.byte	13
00000bb6 000502         6677 	.byte	0,5,2
00000bb9 00000000*      6678 	.word	.LDWlin51
00000bbd 0c             6679 	.byte	12
00000bbe 0b             6680 	.byte	11
00000bbf 0b             6681 	.byte	11
00000bc0 000502         6682 	.byte	0,5,2

                                                                      Page 129
                                                              C:\Users\nhuliyap\AppData\Local\Temp\gh_0000en81.s
00000bc3 00000000*      6683 	.word	.LDWlin52
00000bc7 0b             6684 	.byte	11
00000bc8 0b             6685 	.byte	11
00000bc9 000502         6686 	.byte	0,5,2
00000bcc 00000000*      6687 	.word	.LDWlin53
00000bd0 0d             6688 	.byte	13
00000bd1 000502         6689 	.byte	0,5,2
00000bd4 00000000*      6690 	.word	.LDWlin54
00000bd8 0c             6691 	.byte	12
00000bd9 0b             6692 	.byte	11
00000bda 0b             6693 	.byte	11
00000bdb 000502         6694 	.byte	0,5,2
00000bde 00000000*      6695 	.word	.LDWlin55
00000be2 0b             6696 	.byte	11
00000be3 0b             6697 	.byte	11
00000be4 000502         6698 	.byte	0,5,2
00000be7 00000000*      6699 	.word	.LDWlin56
00000beb 0d             6700 	.byte	13
00000bec 000502         6701 	.byte	0,5,2
00000bef 00000000*      6702 	.word	.LDWlin57
00000bf3 0c             6703 	.byte	12
00000bf4 0b             6704 	.byte	11
00000bf5 0b             6705 	.byte	11
00000bf6 000502         6706 	.byte	0,5,2
00000bf9 00000000*      6707 	.word	.LDWlin58
00000bfd 0d             6708 	.byte	13
00000bfe 02             6709 	.byte	2
00000bff 00             6710 	.byte	0
00000c00 0b             6711 	.byte	11
00000c01 02             6712 	.byte	2
00000c02 00             6713 	.byte	0
00000c03 0b             6714 	.byte	11
00000c04 02             6715 	.byte	2
00000c05 00             6716 	.byte	0
00000c06 0b             6717 	.byte	11
00000c07 23             6718 	.byte	35
00000c08 03             6719 	.byte	3
00000c09 04             6720 	.byte	4
00000c0a 02             6721 	.byte	2
00000c0b 00             6722 	.byte	0
00000c0c 01             6723 	.byte	1
00000c0d 0b             6724 	.byte	11
00000c0e 0b             6725 	.byte	11
00000c0f 000502         6726 	.byte	0,5,2
00000c12 00000000*      6727 	.word	.LDWlin59
00000c16 0d             6728 	.byte	13
00000c17 02             6729 	.byte	2
00000c18 00             6730 	.byte	0
00000c19 0b             6731 	.byte	11
00000c1a 02             6732 	.byte	2
00000c1b 00             6733 	.byte	0
00000c1c 0b             6734 	.byte	11
00000c1d 02             6735 	.byte	2
00000c1e 04             6736 	.byte	4
00000c1f 000101         6737 	.byte	0,1,1
                        6738 	.section	.debug_info
                        6739 .LDW_4be26c8:
00001320 1d             6740 	.byte	29
00001321 00000000*      6741 	.word	.LDW65
00001325 00000000*      6742 	.word	.LDW75
                        6743 

                                                                      Page 130
                                                              C:\Users\nhuliyap\AppData\Local\Temp\gh_0000en81.s
00001329 00             6744 	.byte	0
                        6745 
0000132a 00             6746 	.byte	0
                        6747 
                        6748 .LDW_4c41ea8:
0000132b 13             6749 	.byte	19
0000132c 4275734d7367   6750 	.strz	"BusMsgCheckWarningsFrontRight"
00001332 436865636b57 
00001338 61726e696e67 
0000133e 7346726f6e74 
00001344 526967687400 
0000134a cb04           6751 	.byte	203,4
0000134c 0d             6752 	.byte	13
0000134d 01             6753 	.byte	1
0000134e 00000000*      6754 	.word	_BusMsgCheckWarningsFrontRight..C.3A.5C_ECU2.5CECU_Rivian_A1.5CTarget.5Crepo_projects.5CpRealEcu.5CcR_LATEST.5Cmake.5Coutput.5Cobjects.5Cbusmsg.
00001352 00000000*      6755 	.word	___ghs_eofn_BusMsgCheckWarningsFrontRight
00001356 0153           6756 	.byte	1,83
00001358 828080800a     6757 	.byte	130,128,128,128,10
0000135d 08             6758 	.byte	8
0000135e 03             6759 	.byte	3
0000135f 08             6760 	.byte	8
00001360 00             6761 	.byte	0
00001361 00             6762 	.byte	0
00001362 00             6763 	.byte	0
00001363 00             6764 	.byte	0
00001364 01             6765 	.byte	1
00001365 00             6766 	.byte	0
00001366 01             6767 	.byte	1
                        6768 
                        6769 	.section	.debug_frame
                        6770 .LDW_4b1e9c8:
00000300 00000000*      6771 	.word	.LDW_unq_36-.LDW_unq_35
                        6772 .LDW_unq_35:
00000304 00000000*      6773 	.word	.LDW_4c0ea58
00000308 00000000*      6774 	.word	_BusMsgCheckWarningsFrontRight..C.3A.5C_ECU2.5CECU_Rivian_A1.5CTarget.5Crepo_projects.5CpRealEcu.5CcR_LATEST.5Cmake.5Coutput.5Cobjects.5Cbusmsg.
0000030c 00000000*      6775 	.word	___ghs_eofn_BusMsgCheckWarningsFrontRight-_BusMsgCheckWarningsFrontRight..C.3A.5C_ECU2.5CECU_Rivian_A1.5CTarget.5Crepo_projects.5CpRealEcu.5CcR_LATEST.5Cmake.5Coutput.5Cobjects.5Cbusmsg.
00000310 44             6776 	.byte	68
00000311 9f             6777 	.byte	159
00000312 00             6778 	.byte	0
00000313 40             6779 	.byte	64
00000314 9d             6780 	.byte	157
00000315 04             6781 	.byte	4
00000316 01             6782 	.byte	1
00000317 00000000*      6783 	.word	.LDW95
0000031b 00             6784 	.byte	0
                        6785 .LDW_unq_36:
                        6786 	.section	.debug_line
00000c22 000502         6787 	.byte	0,5,2
00000c25 00000000*      6788 	.word	_BusMsgCheckWarningsFrontRight..C.3A.5C_ECU2.5CECU_Rivian_A1.5CTarget.5Crepo_projects.5CpRealEcu.5CcR_LATEST.5Cmake.5Coutput.5Cobjects.5Cbusmsg.
00000c29 03             6789 	.byte	3
00000c2a ca04           6790 	.byte	202,4
00000c2c 02             6791 	.byte	2
00000c2d 00             6792 	.byte	0
00000c2e 01             6793 	.byte	1
00000c2f 06             6794 	.byte	6
00000c30 1b             6795 	.byte	27
00000c31 000502         6796 	.byte	0,5,2
00000c34 00000000*      6797 	.word	.LDWlin60
00000c38 0c             6798 	.byte	12
00000c39 0b             6799 	.byte	11
00000c3a 000502         6800 	.byte	0,5,2

                                                                      Page 131
                                                              C:\Users\nhuliyap\AppData\Local\Temp\gh_0000en81.s
00000c3d 00000000*      6801 	.word	.LDWlin61
00000c41 0d             6802 	.byte	13
00000c42 000502         6803 	.byte	0,5,2
00000c45 00000000*      6804 	.word	.LDWlin62
00000c49 0c             6805 	.byte	12
00000c4a 0b             6806 	.byte	11
00000c4b 0b             6807 	.byte	11
00000c4c 000502         6808 	.byte	0,5,2
00000c4f 00000000*      6809 	.word	.LDWlin63
00000c53 0b             6810 	.byte	11
00000c54 0b             6811 	.byte	11
00000c55 000502         6812 	.byte	0,5,2
00000c58 00000000*      6813 	.word	.LDWlin64
00000c5c 0d             6814 	.byte	13
00000c5d 000502         6815 	.byte	0,5,2
00000c60 00000000*      6816 	.word	.LDWlin65
00000c64 0c             6817 	.byte	12
00000c65 0b             6818 	.byte	11
00000c66 0b             6819 	.byte	11
00000c67 000502         6820 	.byte	0,5,2
00000c6a 00000000*      6821 	.word	.LDWlin66
00000c6e 0b             6822 	.byte	11
00000c6f 0b             6823 	.byte	11
00000c70 000502         6824 	.byte	0,5,2
00000c73 00000000*      6825 	.word	.LDWlin67
00000c77 0d             6826 	.byte	13
00000c78 000502         6827 	.byte	0,5,2
00000c7b 00000000*      6828 	.word	.LDWlin68
00000c7f 0c             6829 	.byte	12
00000c80 0b             6830 	.byte	11
00000c81 0b             6831 	.byte	11
00000c82 000502         6832 	.byte	0,5,2
00000c85 00000000*      6833 	.word	.LDWlin69
00000c89 0b             6834 	.byte	11
00000c8a 0b             6835 	.byte	11
00000c8b 000502         6836 	.byte	0,5,2
00000c8e 00000000*      6837 	.word	.LDWlin70
00000c92 0d             6838 	.byte	13
00000c93 000502         6839 	.byte	0,5,2
00000c96 00000000*      6840 	.word	.LDWlin71
00000c9a 0c             6841 	.byte	12
00000c9b 0b             6842 	.byte	11
00000c9c 0b             6843 	.byte	11
00000c9d 000502         6844 	.byte	0,5,2
00000ca0 00000000*      6845 	.word	.LDWlin72
00000ca4 0d             6846 	.byte	13
00000ca5 02             6847 	.byte	2
00000ca6 00             6848 	.byte	0
00000ca7 0b             6849 	.byte	11
00000ca8 02             6850 	.byte	2
00000ca9 00             6851 	.byte	0
00000caa 0b             6852 	.byte	11
00000cab 02             6853 	.byte	2
00000cac 00             6854 	.byte	0
00000cad 0b             6855 	.byte	11
00000cae 33             6856 	.byte	51
00000caf 03             6857 	.byte	3
00000cb0 04             6858 	.byte	4
00000cb1 02             6859 	.byte	2
00000cb2 00             6860 	.byte	0
00000cb3 01             6861 	.byte	1

                                                                      Page 132
                                                              C:\Users\nhuliyap\AppData\Local\Temp\gh_0000en81.s
00000cb4 0b             6862 	.byte	11
00000cb5 0b             6863 	.byte	11
00000cb6 000502         6864 	.byte	0,5,2
00000cb9 00000000*      6865 	.word	.LDWlin73
00000cbd 0d             6866 	.byte	13
00000cbe 02             6867 	.byte	2
00000cbf 00             6868 	.byte	0
00000cc0 0b             6869 	.byte	11
00000cc1 02             6870 	.byte	2
00000cc2 00             6871 	.byte	0
00000cc3 0b             6872 	.byte	11
00000cc4 02             6873 	.byte	2
00000cc5 04             6874 	.byte	4
00000cc6 000101         6875 	.byte	0,1,1
                        6876 	.section	.debug_info
                        6877 .LDW_4be2668:
00001367 1d             6878 	.byte	29
00001368 00000000*      6879 	.word	.LDW85
0000136c 00000000*      6880 	.word	.LDW95
                        6881 
00001370 00             6882 	.byte	0
                        6883 
00001371 00             6884 	.byte	0
                        6885 
                        6886 .LDW_4c41a80:
00001372 13             6887 	.byte	19
00001373 4275734d7367   6888 	.strz	"BusMsgCheckWarningsRearLeft"
00001379 436865636b57 
0000137f 61726e696e67 
00001385 73526561724c 
0000138b 65667400 
0000138f 8505           6889 	.byte	133,5
00001391 0d             6890 	.byte	13
00001392 01             6891 	.byte	1
00001393 00000000*      6892 	.word	_BusMsgCheckWarningsRearLeft..C.3A.5C_ECU2.5CECU_Rivian_A1.5CTarget.5Crepo_projects.5CpRealEcu.5CcR_LATEST.5Cmake.5Coutput.5Cobjects.5Cbusmsg.
00001397 00000000*      6893 	.word	___ghs_eofn_BusMsgCheckWarningsRearLeft
0000139b 0153           6894 	.byte	1,83
0000139d 828080800a     6895 	.byte	130,128,128,128,10
000013a2 08             6896 	.byte	8
000013a3 03             6897 	.byte	3
000013a4 08             6898 	.byte	8
000013a5 00             6899 	.byte	0
000013a6 00             6900 	.byte	0
000013a7 00             6901 	.byte	0
000013a8 00             6902 	.byte	0
000013a9 01             6903 	.byte	1
000013aa 00             6904 	.byte	0
000013ab 01             6905 	.byte	1
                        6906 
                        6907 	.section	.debug_frame
                        6908 .LDW_4b1e7c8:
0000031c 00000000*      6909 	.word	.LDW_unq_38-.LDW_unq_37
                        6910 .LDW_unq_37:
00000320 00000000*      6911 	.word	.LDW_4c0ea58
00000324 00000000*      6912 	.word	_BusMsgCheckWarningsRearLeft..C.3A.5C_ECU2.5CECU_Rivian_A1.5CTarget.5Crepo_projects.5CpRealEcu.5CcR_LATEST.5Cmake.5Coutput.5Cobjects.5Cbusmsg.
00000328 00000000*      6913 	.word	___ghs_eofn_BusMsgCheckWarningsRearLeft-_BusMsgCheckWarningsRearLeft..C.3A.5C_ECU2.5CECU_Rivian_A1.5CTarget.5Crepo_projects.5CpRealEcu.5CcR_LATEST.5Cmake.5Coutput.5Cobjects.5Cbusmsg.
0000032c 44             6914 	.byte	68
0000032d 9f             6915 	.byte	159
0000032e 00             6916 	.byte	0
0000032f 40             6917 	.byte	64
00000330 9d             6918 	.byte	157

                                                                      Page 133
                                                              C:\Users\nhuliyap\AppData\Local\Temp\gh_0000en81.s
00000331 04             6919 	.byte	4
00000332 01             6920 	.byte	1
00000333 00000000*      6921 	.word	.LDW16
00000337 00             6922 	.byte	0
                        6923 .LDW_unq_38:
                        6924 	.section	.debug_line
00000cc9 000502         6925 	.byte	0,5,2
00000ccc 00000000*      6926 	.word	_BusMsgCheckWarningsRearLeft..C.3A.5C_ECU2.5CECU_Rivian_A1.5CTarget.5Crepo_projects.5CpRealEcu.5CcR_LATEST.5Cmake.5Coutput.5Cobjects.5Cbusmsg.
00000cd0 03             6927 	.byte	3
00000cd1 8405           6928 	.byte	132,5
00000cd3 02             6929 	.byte	2
00000cd4 00             6930 	.byte	0
00000cd5 01             6931 	.byte	1
00000cd6 06             6932 	.byte	6
00000cd7 1b             6933 	.byte	27
00000cd8 000502         6934 	.byte	0,5,2
00000cdb 00000000*      6935 	.word	.LDWlin74
00000cdf 0c             6936 	.byte	12
00000ce0 0b             6937 	.byte	11
00000ce1 000502         6938 	.byte	0,5,2
00000ce4 00000000*      6939 	.word	.LDWlin75
00000ce8 0d             6940 	.byte	13
00000ce9 000502         6941 	.byte	0,5,2
00000cec 00000000*      6942 	.word	.LDWlin76
00000cf0 0c             6943 	.byte	12
00000cf1 0b             6944 	.byte	11
00000cf2 0b             6945 	.byte	11
00000cf3 000502         6946 	.byte	0,5,2
00000cf6 00000000*      6947 	.word	.LDWlin77
00000cfa 0b             6948 	.byte	11
00000cfb 0b             6949 	.byte	11
00000cfc 000502         6950 	.byte	0,5,2
00000cff 00000000*      6951 	.word	.LDWlin78
00000d03 0d             6952 	.byte	13
00000d04 000502         6953 	.byte	0,5,2
00000d07 00000000*      6954 	.word	.LDWlin79
00000d0b 0c             6955 	.byte	12
00000d0c 0b             6956 	.byte	11
00000d0d 0b             6957 	.byte	11
00000d0e 000502         6958 	.byte	0,5,2
00000d11 00000000*      6959 	.word	.LDWlin80
00000d15 0b             6960 	.byte	11
00000d16 0b             6961 	.byte	11
00000d17 000502         6962 	.byte	0,5,2
00000d1a 00000000*      6963 	.word	.LDWlin81
00000d1e 0d             6964 	.byte	13
00000d1f 000502         6965 	.byte	0,5,2
00000d22 00000000*      6966 	.word	.LDWlin82
00000d26 0c             6967 	.byte	12
00000d27 0b             6968 	.byte	11
00000d28 0b             6969 	.byte	11
00000d29 000502         6970 	.byte	0,5,2
00000d2c 00000000*      6971 	.word	.LDWlin83
00000d30 0b             6972 	.byte	11
00000d31 0b             6973 	.byte	11
00000d32 000502         6974 	.byte	0,5,2
00000d35 00000000*      6975 	.word	.LDWlin84
00000d39 0d             6976 	.byte	13
00000d3a 000502         6977 	.byte	0,5,2
00000d3d 00000000*      6978 	.word	.LDWlin85
00000d41 0c             6979 	.byte	12

                                                                      Page 134
                                                              C:\Users\nhuliyap\AppData\Local\Temp\gh_0000en81.s
00000d42 0b             6980 	.byte	11
00000d43 0b             6981 	.byte	11
00000d44 000502         6982 	.byte	0,5,2
00000d47 00000000*      6983 	.word	.LDWlin86
00000d4b 0d             6984 	.byte	13
00000d4c 02             6985 	.byte	2
00000d4d 00             6986 	.byte	0
00000d4e 0b             6987 	.byte	11
00000d4f 02             6988 	.byte	2
00000d50 00             6989 	.byte	0
00000d51 0b             6990 	.byte	11
00000d52 02             6991 	.byte	2
00000d53 00             6992 	.byte	0
00000d54 0b             6993 	.byte	11
00000d55 33             6994 	.byte	51
00000d56 03             6995 	.byte	3
00000d57 04             6996 	.byte	4
00000d58 02             6997 	.byte	2
00000d59 00             6998 	.byte	0
00000d5a 01             6999 	.byte	1
00000d5b 0b             7000 	.byte	11
00000d5c 0b             7001 	.byte	11
00000d5d 000502         7002 	.byte	0,5,2
00000d60 00000000*      7003 	.word	.LDWlin87
00000d64 0d             7004 	.byte	13
00000d65 02             7005 	.byte	2
00000d66 00             7006 	.byte	0
00000d67 0b             7007 	.byte	11
00000d68 02             7008 	.byte	2
00000d69 00             7009 	.byte	0
00000d6a 0b             7010 	.byte	11
00000d6b 02             7011 	.byte	2
00000d6c 04             7012 	.byte	4
00000d6d 000101         7013 	.byte	0,1,1
                        7014 	.section	.debug_info
                        7015 .LDW_4be26f8:
000013ac 1d             7016 	.byte	29
000013ad 00000000*      7017 	.word	.LDW06
000013b1 00000000*      7018 	.word	.LDW16
                        7019 
000013b5 00             7020 	.byte	0
                        7021 
000013b6 00             7022 	.byte	0
                        7023 
                        7024 .LDW_4c419e8:
000013b7 13             7025 	.byte	19
000013b8 4275734d7367   7026 	.strz	"BusMsgCheckWarningsRearRight"
000013be 436865636b57 
000013c4 61726e696e67 
000013ca 735265617252 
000013d0 6967687400 
000013d5 bf05           7027 	.byte	191,5
000013d7 0d             7028 	.byte	13
000013d8 01             7029 	.byte	1
000013d9 00000000*      7030 	.word	_BusMsgCheckWarningsRearRight..C.3A.5C_ECU2.5CECU_Rivian_A1.5CTarget.5Crepo_projects.5CpRealEcu.5CcR_LATEST.5Cmake.5Coutput.5Cobjects.5Cbusmsg.
000013dd 00000000*      7031 	.word	___ghs_eofn_BusMsgCheckWarningsRearRight
000013e1 0153           7032 	.byte	1,83
000013e3 828080800a     7033 	.byte	130,128,128,128,10
000013e8 08             7034 	.byte	8
000013e9 03             7035 	.byte	3
000013ea 08             7036 	.byte	8

                                                                      Page 135
                                                              C:\Users\nhuliyap\AppData\Local\Temp\gh_0000en81.s
000013eb 00             7037 	.byte	0
000013ec 00             7038 	.byte	0
000013ed 00             7039 	.byte	0
000013ee 00             7040 	.byte	0
000013ef 01             7041 	.byte	1
000013f0 00             7042 	.byte	0
000013f1 01             7043 	.byte	1
                        7044 
                        7045 	.section	.debug_frame
                        7046 .LDW_4b1e808:
00000338 00000000*      7047 	.word	.LDW_unq_3a-.LDW_unq_39
                        7048 .LDW_unq_39:
0000033c 00000000*      7049 	.word	.LDW_4c0ea58
00000340 00000000*      7050 	.word	_BusMsgCheckWarningsRearRight..C.3A.5C_ECU2.5CECU_Rivian_A1.5CTarget.5Crepo_projects.5CpRealEcu.5CcR_LATEST.5Cmake.5Coutput.5Cobjects.5Cbusmsg.
00000344 00000000*      7051 	.word	___ghs_eofn_BusMsgCheckWarningsRearRight-_BusMsgCheckWarningsRearRight..C.3A.5C_ECU2.5CECU_Rivian_A1.5CTarget.5Crepo_projects.5CpRealEcu.5CcR_LATEST.5Cmake.5Coutput.5Cobjects.5Cbusmsg.
00000348 44             7052 	.byte	68
00000349 9f             7053 	.byte	159
0000034a 00             7054 	.byte	0
0000034b 40             7055 	.byte	64
0000034c 9d             7056 	.byte	157
0000034d 04             7057 	.byte	4
0000034e 01             7058 	.byte	1
0000034f 00000000*      7059 	.word	.LDW36
00000353 00             7060 	.byte	0
                        7061 .LDW_unq_3a:
                        7062 	.section	.debug_line
00000d70 000502         7063 	.byte	0,5,2
00000d73 00000000*      7064 	.word	_BusMsgCheckWarningsRearRight..C.3A.5C_ECU2.5CECU_Rivian_A1.5CTarget.5Crepo_projects.5CpRealEcu.5CcR_LATEST.5Cmake.5Coutput.5Cobjects.5Cbusmsg.
00000d77 03             7065 	.byte	3
00000d78 be05           7066 	.byte	190,5
00000d7a 02             7067 	.byte	2
00000d7b 00             7068 	.byte	0
00000d7c 01             7069 	.byte	1
00000d7d 06             7070 	.byte	6
00000d7e 1b             7071 	.byte	27
00000d7f 000502         7072 	.byte	0,5,2
00000d82 00000000*      7073 	.word	.LDWlin88
00000d86 0c             7074 	.byte	12
00000d87 0b             7075 	.byte	11
00000d88 000502         7076 	.byte	0,5,2
00000d8b 00000000*      7077 	.word	.LDWlin89
00000d8f 0d             7078 	.byte	13
00000d90 000502         7079 	.byte	0,5,2
00000d93 00000000*      7080 	.word	.LDWlin90
00000d97 0c             7081 	.byte	12
00000d98 0b             7082 	.byte	11
00000d99 0b             7083 	.byte	11
00000d9a 000502         7084 	.byte	0,5,2
00000d9d 00000000*      7085 	.word	.LDWlin91
00000da1 0b             7086 	.byte	11
00000da2 0b             7087 	.byte	11
00000da3 000502         7088 	.byte	0,5,2
00000da6 00000000*      7089 	.word	.LDWlin92
00000daa 0d             7090 	.byte	13
00000dab 000502         7091 	.byte	0,5,2
00000dae 00000000*      7092 	.word	.LDWlin93
00000db2 0c             7093 	.byte	12
00000db3 0b             7094 	.byte	11
00000db4 0b             7095 	.byte	11
00000db5 000502         7096 	.byte	0,5,2
00000db8 00000000*      7097 	.word	.LDWlin94

                                                                      Page 136
                                                              C:\Users\nhuliyap\AppData\Local\Temp\gh_0000en81.s
00000dbc 0b             7098 	.byte	11
00000dbd 0b             7099 	.byte	11
00000dbe 000502         7100 	.byte	0,5,2
00000dc1 00000000*      7101 	.word	.LDWlin95
00000dc5 0d             7102 	.byte	13
00000dc6 000502         7103 	.byte	0,5,2
00000dc9 00000000*      7104 	.word	.LDWlin96
00000dcd 0c             7105 	.byte	12
00000dce 0b             7106 	.byte	11
00000dcf 0b             7107 	.byte	11
00000dd0 000502         7108 	.byte	0,5,2
00000dd3 00000000*      7109 	.word	.LDWlin97
00000dd7 0b             7110 	.byte	11
00000dd8 0b             7111 	.byte	11
00000dd9 000502         7112 	.byte	0,5,2
00000ddc 00000000*      7113 	.word	.LDWlin98
00000de0 0d             7114 	.byte	13
00000de1 000502         7115 	.byte	0,5,2
00000de4 00000000*      7116 	.word	.LDWlin99
00000de8 0c             7117 	.byte	12
00000de9 0b             7118 	.byte	11
00000dea 0b             7119 	.byte	11
00000deb 000502         7120 	.byte	0,5,2
00000dee 00000000*      7121 	.word	.LDWlin100
00000df2 0d             7122 	.byte	13
00000df3 02             7123 	.byte	2
00000df4 00             7124 	.byte	0
00000df5 0b             7125 	.byte	11
00000df6 02             7126 	.byte	2
00000df7 00             7127 	.byte	0
00000df8 0b             7128 	.byte	11
00000df9 02             7129 	.byte	2
00000dfa 00             7130 	.byte	0
00000dfb 0b             7131 	.byte	11
00000dfc 33             7132 	.byte	51
00000dfd 03             7133 	.byte	3
00000dfe 04             7134 	.byte	4
00000dff 02             7135 	.byte	2
00000e00 00             7136 	.byte	0
00000e01 01             7137 	.byte	1
00000e02 0b             7138 	.byte	11
00000e03 0b             7139 	.byte	11
00000e04 000502         7140 	.byte	0,5,2
00000e07 00000000*      7141 	.word	.LDWlin101
00000e0b 0d             7142 	.byte	13
00000e0c 02             7143 	.byte	2
00000e0d 00             7144 	.byte	0
00000e0e 0b             7145 	.byte	11
00000e0f 02             7146 	.byte	2
00000e10 00             7147 	.byte	0
00000e11 0b             7148 	.byte	11
00000e12 02             7149 	.byte	2
00000e13 04             7150 	.byte	4
00000e14 000101         7151 	.byte	0,1,1
                        7152 	.section	.debug_info
                        7153 .LDW_4be2698:
000013f2 1d             7154 	.byte	29
000013f3 00000000*      7155 	.word	.LDW26
000013f7 00000000*      7156 	.word	.LDW36
                        7157 
000013fb 00             7158 	.byte	0

                                                                      Page 137
                                                              C:\Users\nhuliyap\AppData\Local\Temp\gh_0000en81.s
                        7159 
000013fc 00             7160 	.byte	0
                        7161 
                        7162 .LDW_4c41fd8:
000013fd 13             7163 	.byte	19
000013fe 4275734d7367   7164 	.strz	"BusMsgCheckWarningsUnknownPos"
00001404 436865636b57 
0000140a 61726e696e67 
00001410 73556e6b6e6f 
00001416 776e506f7300 
0000141c f905           7165 	.byte	249,5
0000141e 0d             7166 	.byte	13
0000141f 01             7167 	.byte	1
00001420 00000000*      7168 	.word	_BusMsgCheckWarningsUnknownPos..C.3A.5C_ECU2.5CECU_Rivian_A1.5CTarget.5Crepo_projects.5CpRealEcu.5CcR_LATEST.5Cmake.5Coutput.5Cobjects.5Cbusmsg.
00001424 00000000*      7169 	.word	___ghs_eofn_BusMsgCheckWarningsUnknownPos
00001428 0153           7170 	.byte	1,83
0000142a 828080800a     7171 	.byte	130,128,128,128,10
0000142f 08             7172 	.byte	8
00001430 03             7173 	.byte	3
00001431 08             7174 	.byte	8
00001432 00             7175 	.byte	0
00001433 00             7176 	.byte	0
00001434 00             7177 	.byte	0
00001435 00             7178 	.byte	0
00001436 01             7179 	.byte	1
00001437 00             7180 	.byte	0
00001438 01             7181 	.byte	1
                        7182 
                        7183 	.section	.debug_frame
                        7184 .LDW_4dc83c0:
00000354 00000000*      7185 	.word	.LDW_unq_3c-.LDW_unq_3b
                        7186 .LDW_unq_3b:
00000358 00000000*      7187 	.word	.LDW_4c0ea58
0000035c 00000000*      7188 	.word	_BusMsgCheckWarningsUnknownPos..C.3A.5C_ECU2.5CECU_Rivian_A1.5CTarget.5Crepo_projects.5CpRealEcu.5CcR_LATEST.5Cmake.5Coutput.5Cobjects.5Cbusmsg.
00000360 00000000*      7189 	.word	___ghs_eofn_BusMsgCheckWarningsUnknownPos-_BusMsgCheckWarningsUnknownPos..C.3A.5C_ECU2.5CECU_Rivian_A1.5CTarget.5Crepo_projects.5CpRealEcu.5CcR_LATEST.5Cmake.5Coutput.5Cobjects.5Cbusmsg.
00000364 44             7190 	.byte	68
00000365 9f             7191 	.byte	159
00000366 00             7192 	.byte	0
00000367 40             7193 	.byte	64
00000368 9d             7194 	.byte	157
00000369 04             7195 	.byte	4
0000036a 01             7196 	.byte	1
0000036b 00000000*      7197 	.word	.LDW56
0000036f 00             7198 	.byte	0
                        7199 .LDW_unq_3c:
                        7200 	.section	.debug_line
00000e17 000502         7201 	.byte	0,5,2
00000e1a 00000000*      7202 	.word	_BusMsgCheckWarningsUnknownPos..C.3A.5C_ECU2.5CECU_Rivian_A1.5CTarget.5Crepo_projects.5CpRealEcu.5CcR_LATEST.5Cmake.5Coutput.5Cobjects.5Cbusmsg.
00000e1e 03             7203 	.byte	3
00000e1f f805           7204 	.byte	248,5
00000e21 02             7205 	.byte	2
00000e22 00             7206 	.byte	0
00000e23 01             7207 	.byte	1
00000e24 06             7208 	.byte	6
00000e25 1b             7209 	.byte	27
00000e26 000502         7210 	.byte	0,5,2
00000e29 00000000*      7211 	.word	.LDWlin102
00000e2d 0b             7212 	.byte	11
00000e2e 0b             7213 	.byte	11
00000e2f 000502         7214 	.byte	0,5,2
00000e32 00000000*      7215 	.word	.LDWlin103

                                                                      Page 138
                                                              C:\Users\nhuliyap\AppData\Local\Temp\gh_0000en81.s
00000e36 0d             7216 	.byte	13
00000e37 000502         7217 	.byte	0,5,2
00000e3a 00000000*      7218 	.word	.LDWlin104
00000e3e 0d             7219 	.byte	13
00000e3f 000502         7220 	.byte	0,5,2
00000e42 00000000*      7221 	.word	.LDWlin105
00000e46 0d             7222 	.byte	13
00000e47 000502         7223 	.byte	0,5,2
00000e4a 00000000*      7224 	.word	.LDWlin106
00000e4e 0d             7225 	.byte	13
00000e4f 000502         7226 	.byte	0,5,2
00000e52 00000000*      7227 	.word	.LDWlin107
00000e56 0c             7228 	.byte	12
00000e57 0b             7229 	.byte	11
00000e58 0b             7230 	.byte	11
00000e59 000502         7231 	.byte	0,5,2
00000e5c 00000000*      7232 	.word	.LDWlin108
00000e60 0b             7233 	.byte	11
00000e61 0b             7234 	.byte	11
00000e62 000502         7235 	.byte	0,5,2
00000e65 00000000*      7236 	.word	.LDWlin109
00000e69 0d             7237 	.byte	13
00000e6a 000502         7238 	.byte	0,5,2
00000e6d 00000000*      7239 	.word	.LDWlin110
00000e71 0d             7240 	.byte	13
00000e72 000502         7241 	.byte	0,5,2
00000e75 00000000*      7242 	.word	.LDWlin111
00000e79 0d             7243 	.byte	13
00000e7a 000502         7244 	.byte	0,5,2
00000e7d 00000000*      7245 	.word	.LDWlin112
00000e81 0d             7246 	.byte	13
00000e82 000502         7247 	.byte	0,5,2
00000e85 00000000*      7248 	.word	.LDWlin113
00000e89 0c             7249 	.byte	12
00000e8a 0b             7250 	.byte	11
00000e8b 0b             7251 	.byte	11
00000e8c 000502         7252 	.byte	0,5,2
00000e8f 00000000*      7253 	.word	.LDWlin114
00000e93 0b             7254 	.byte	11
00000e94 0b             7255 	.byte	11
00000e95 000502         7256 	.byte	0,5,2
00000e98 00000000*      7257 	.word	.LDWlin115
00000e9c 0d             7258 	.byte	13
00000e9d 000502         7259 	.byte	0,5,2
00000ea0 00000000*      7260 	.word	.LDWlin116
00000ea4 0d             7261 	.byte	13
00000ea5 000502         7262 	.byte	0,5,2
00000ea8 00000000*      7263 	.word	.LDWlin117
00000eac 0d             7264 	.byte	13
00000ead 000502         7265 	.byte	0,5,2
00000eb0 00000000*      7266 	.word	.LDWlin118
00000eb4 0d             7267 	.byte	13
00000eb5 000502         7268 	.byte	0,5,2
00000eb8 00000000*      7269 	.word	.LDWlin119
00000ebc 0c             7270 	.byte	12
00000ebd 0b             7271 	.byte	11
00000ebe 0b             7272 	.byte	11
00000ebf 000502         7273 	.byte	0,5,2
00000ec2 00000000*      7274 	.word	.LDWlin120
00000ec6 0b             7275 	.byte	11
00000ec7 0b             7276 	.byte	11

                                                                      Page 139
                                                              C:\Users\nhuliyap\AppData\Local\Temp\gh_0000en81.s
00000ec8 000502         7277 	.byte	0,5,2
00000ecb 00000000*      7278 	.word	.LDWlin121
00000ecf 0d             7279 	.byte	13
00000ed0 000502         7280 	.byte	0,5,2
00000ed3 00000000*      7281 	.word	.LDWlin122
00000ed7 0d             7282 	.byte	13
00000ed8 000502         7283 	.byte	0,5,2
00000edb 00000000*      7284 	.word	.LDWlin123
00000edf 0d             7285 	.byte	13
00000ee0 000502         7286 	.byte	0,5,2
00000ee3 00000000*      7287 	.word	.LDWlin124
00000ee7 0d             7288 	.byte	13
00000ee8 000502         7289 	.byte	0,5,2
00000eeb 00000000*      7290 	.word	.LDWlin125
00000eef 0c             7291 	.byte	12
00000ef0 0b             7292 	.byte	11
00000ef1 0b             7293 	.byte	11
00000ef2 000502         7294 	.byte	0,5,2
00000ef5 00000000*      7295 	.word	.LDWlin126
00000ef9 0d             7296 	.byte	13
00000efa 000502         7297 	.byte	0,5,2
00000efd 00000000*      7298 	.word	.LDWlin127
00000f01 0d             7299 	.byte	13
00000f02 000502         7300 	.byte	0,5,2
00000f05 00000000*      7301 	.word	.LDWlin128
00000f09 0d             7302 	.byte	13
00000f0a 000502         7303 	.byte	0,5,2
00000f0d 00000000*      7304 	.word	.LDWlin129
00000f11 0d             7305 	.byte	13
00000f12 02             7306 	.byte	2
00000f13 00             7307 	.byte	0
00000f14 0b             7308 	.byte	11
00000f15 02             7309 	.byte	2
00000f16 00             7310 	.byte	0
00000f17 0b             7311 	.byte	11
00000f18 02             7312 	.byte	2
00000f19 00             7313 	.byte	0
00000f1a 0b             7314 	.byte	11
00000f1b 000502         7315 	.byte	0,5,2
00000f1e 00000000*      7316 	.word	.LDWlin130
00000f22 0b             7317 	.byte	11
00000f23 0b             7318 	.byte	11
00000f24 000502         7319 	.byte	0,5,2
00000f27 00000000*      7320 	.word	.LDWlin131
00000f2b 0d             7321 	.byte	13
00000f2c 000502         7322 	.byte	0,5,2
00000f2f 00000000*      7323 	.word	.LDWlin132
00000f33 0d             7324 	.byte	13
00000f34 000502         7325 	.byte	0,5,2
00000f37 00000000*      7326 	.word	.LDWlin133
00000f3b 0d             7327 	.byte	13
00000f3c 000502         7328 	.byte	0,5,2
00000f3f 00000000*      7329 	.word	.LDWlin134
00000f43 0d             7330 	.byte	13
00000f44 0b             7331 	.byte	11
00000f45 0b             7332 	.byte	11
00000f46 000502         7333 	.byte	0,5,2
00000f49 00000000*      7334 	.word	.LDWlin135
00000f4d 0d             7335 	.byte	13
00000f4e 000502         7336 	.byte	0,5,2
00000f51 00000000*      7337 	.word	.LDWlin136

                                                                      Page 140
                                                              C:\Users\nhuliyap\AppData\Local\Temp\gh_0000en81.s
00000f55 0d             7338 	.byte	13
00000f56 000502         7339 	.byte	0,5,2
00000f59 00000000*      7340 	.word	.LDWlin137
00000f5d 0d             7341 	.byte	13
00000f5e 000502         7342 	.byte	0,5,2
00000f61 00000000*      7343 	.word	.LDWlin138
00000f65 0d             7344 	.byte	13
00000f66 02             7345 	.byte	2
00000f67 00             7346 	.byte	0
00000f68 0b             7347 	.byte	11
00000f69 02             7348 	.byte	2
00000f6a 00             7349 	.byte	0
00000f6b 0b             7350 	.byte	11
00000f6c 02             7351 	.byte	2
00000f6d 04             7352 	.byte	4
00000f6e 000101         7353 	.byte	0,1,1
                        7354 	.section	.debug_info
                        7355 .LDW_4be2638:
00001439 1d             7356 	.byte	29
0000143a 00000000*      7357 	.word	.LDW46
0000143e 00000000*      7358 	.word	.LDW56
                        7359 
00001442 00             7360 	.byte	0
                        7361 
00001443 00             7362 	.byte	0
                        7363 
                        7364 .LDW_4c41c48:
00001444 14             7365 	.byte	20
00001445 4275734d7367   7366 	.strz	"BusMsgDetermineErrCounter"
0000144b 44657465726d 
00001451 696e65457272 
00001457 436f756e7465 
0000145d 7200 
0000145f f106           7367 	.byte	241,6
00001461 0e             7368 	.byte	14
00001462 01             7369 	.byte	1
00001463 00000000*      7370 	.word	.LDW_480ee30
00001467 00000000*      7371 	.word	_BusMsgDetermineErrCounter..C.3A.5C_ECU2.5CECU_Rivian_A1.5CTarget.5Crepo_projects.5CpRealEcu.5CcR_LATEST.5Cmake.5Coutput.5Cobjects.5Cbusmsg.
0000146b 00000000*      7372 	.word	___ghs_eofn_BusMsgDetermineErrCounter
0000146f 0153           7373 	.byte	1,83
00001471 828080800a     7374 	.byte	130,128,128,128,10
00001476 08             7375 	.byte	8
00001477 03             7376 	.byte	3
00001478 08             7377 	.byte	8
00001479 00             7378 	.byte	0
0000147a 00             7379 	.byte	0
0000147b 00             7380 	.byte	0
0000147c 00             7381 	.byte	0
0000147d 01             7382 	.byte	1
0000147e 00             7383 	.byte	0
0000147f 01             7384 	.byte	1
                        7385 
                        7386 	.section	.debug_frame
                        7387 .LDW_4b1e188:
00000370 00000000*      7388 	.word	.LDW_unq_3e-.LDW_unq_3d
                        7389 .LDW_unq_3d:
00000374 00000000*      7390 	.word	.LDW_4c0ea58
00000378 00000000*      7391 	.word	_BusMsgDetermineErrCounter..C.3A.5C_ECU2.5CECU_Rivian_A1.5CTarget.5Crepo_projects.5CpRealEcu.5CcR_LATEST.5Cmake.5Coutput.5Cobjects.5Cbusmsg.
0000037c 00000000*      7392 	.word	___ghs_eofn_BusMsgDetermineErrCounter-_BusMsgDetermineErrCounter..C.3A.5C_ECU2.5CECU_Rivian_A1.5CTarget.5Crepo_projects.5CpRealEcu.5CcR_LATEST.5Cmake.5Coutput.5Cobjects.5Cbusmsg.
00000380 44             7393 	.byte	68
00000381 9f             7394 	.byte	159

                                                                      Page 141
                                                              C:\Users\nhuliyap\AppData\Local\Temp\gh_0000en81.s
00000382 00             7395 	.byte	0
00000383 40             7396 	.byte	64
00000384 9d             7397 	.byte	157
00000385 04             7398 	.byte	4
00000386 01             7399 	.byte	1
00000387 00000000*      7400 	.word	.LDW55
0000038b 00             7401 	.byte	0
                        7402 .LDW_unq_3e:
                        7403 	.section	.debug_line
00000f71 000502         7404 	.byte	0,5,2
00000f74 00000000*      7405 	.word	_BusMsgDetermineErrCounter..C.3A.5C_ECU2.5CECU_Rivian_A1.5CTarget.5Crepo_projects.5CpRealEcu.5CcR_LATEST.5Cmake.5Coutput.5Cobjects.5Cbusmsg.
00000f78 03             7406 	.byte	3
00000f79 f006           7407 	.byte	240,6
00000f7b 02             7408 	.byte	2
00000f7c 00             7409 	.byte	0
00000f7d 01             7410 	.byte	1
00000f7e 06             7411 	.byte	6
00000f7f 1c             7412 	.byte	28
00000f80 000502         7413 	.byte	0,5,2
00000f83 00000000*      7414 	.word	.LDWlin42
00000f87 02             7415 	.byte	2
00000f88 00             7416 	.byte	0
00000f89 0c             7417 	.byte	12
00000f8a 02             7418 	.byte	2
00000f8b 00             7419 	.byte	0
00000f8c 0b             7420 	.byte	11
00000f8d 000502         7421 	.byte	0,5,2
00000f90 00000000*      7422 	.word	.LDWlin43
00000f94 02             7423 	.byte	2
00000f95 00             7424 	.byte	0
00000f96 0b             7425 	.byte	11
00000f97 1b             7426 	.byte	27
00000f98 02             7427 	.byte	2
00000f99 00             7428 	.byte	0
00000f9a 0b             7429 	.byte	11
00000f9b 000502         7430 	.byte	0,5,2
00000f9e 00000000*      7431 	.word	.LDWlin44
00000fa2 02             7432 	.byte	2
00000fa3 00             7433 	.byte	0
00000fa4 0b             7434 	.byte	11
00000fa5 1b             7435 	.byte	27
00000fa6 02             7436 	.byte	2
00000fa7 00             7437 	.byte	0
00000fa8 0b             7438 	.byte	11
00000fa9 000502         7439 	.byte	0,5,2
00000fac 00000000*      7440 	.word	.LDWlin45
00000fb0 02             7441 	.byte	2
00000fb1 00             7442 	.byte	0
00000fb2 0b             7443 	.byte	11
00000fb3 1b             7444 	.byte	27
00000fb4 02             7445 	.byte	2
00000fb5 00             7446 	.byte	0
00000fb6 0b             7447 	.byte	11
00000fb7 06             7448 	.byte	6
00000fb8 02             7449 	.byte	2
00000fb9 02             7450 	.byte	2
00000fba 02             7451 	.byte	2
00000fbb 04             7452 	.byte	4
00000fbc 000101         7453 	.byte	0,1,1
                        7454 	.section	.debug_info
                        7455 .LDW_4be2608:

                                                                      Page 142
                                                              C:\Users\nhuliyap\AppData\Local\Temp\gh_0000en81.s
00001480 1d             7456 	.byte	29
00001481 00000000*      7457 	.word	.LDW45
00001485 00000000*      7458 	.word	.LDW55
                        7459 
                        7460 .LDW_4c5f0a8:
00001489 04             7461 	.byte	4
0000148a 756352654572   7462 	.strz	"ucReErrCount"
00001490 72436f756e74 
00001496 00 
00001497 f206           7463 	.byte	242,6
00001499 0a             7464 	.byte	10
0000149a 01             7465 	.byte	1
0000149b 00000000*      7466 	.word	.LDW_480ee30
0000149f 00             7467 	.byte	0
000014a0 00             7468 	.byte	0
000014a1 016d           7469 	.byte	1,109
                        7470 
000014a3 00             7471 	.byte	0
                        7472 
000014a4 00             7473 	.byte	0
                        7474 
000014a5 00             7475 	.byte	0
                        7476 
                        7477 	.section	.debug_line
                        7478 .Ldw_line_end:
                        7479 	.section	.debug_macinfo
00000000 01             7480 	.byte	1
00000001 00             7481 	.byte	0
00000002 5f5f6768735f   7482 	.strz	"__ghs__ 1"
00000008 5f203100 
0000000c 01             7483 	.byte	1
0000000d 00             7484 	.byte	0
0000000e 5f5f4c4c4f4e   7485 	.strz	"__LLONG_BIT 64"
00000014 475f42495420 
0000001a 363400 
0000001d 03             7486 	.byte	3
0000001e 00             7487 	.byte	0
0000001f 01             7488 	.byte	1
00000020 03             7489 	.byte	3
00000021 01             7490 	.byte	1
00000022 02             7491 	.byte	2
00000023 03             7492 	.byte	3
00000024 1c             7493 	.byte	28
00000025 03             7494 	.byte	3
00000026 01             7495 	.byte	1
00000027 3c             7496 	.byte	60
00000028 545255452031   7497 	.strz	"TRUE 1u"
0000002e 7500 
00000030 01             7498 	.byte	1
00000031 40             7499 	.byte	64
00000032 46414c534520   7500 	.strz	"FALSE 0u"
00000038 307500 
0000003b 04             7501 	.byte	4
0000003c 03             7502 	.byte	3
0000003d 1d             7503 	.byte	29
0000003e 04             7504 	.byte	4
0000003f 03             7505 	.byte	3
00000040 1b             7506 	.byte	27
00000041 05             7507 	.byte	5
00000042 03             7508 	.byte	3
00000043 54             7509 	.byte	84

                                                                      Page 143
                                                              C:\Users\nhuliyap\AppData\Local\Temp\gh_0000en81.s
00000044 06             7510 	.byte	6
00000045 04             7511 	.byte	4
00000046 04             7512 	.byte	4
00000047 04             7513 	.byte	4
00000048 04             7514 	.byte	4
00000049 03             7515 	.byte	3
0000004a 03             7516 	.byte	3
0000004b 07             7517 	.byte	7
0000004c 03             7518 	.byte	3
0000004d 04             7519 	.byte	4
0000004e 08             7520 	.byte	8
0000004f 03             7521 	.byte	3
00000050 04             7522 	.byte	4
00000051 09             7523 	.byte	9
00000052 04             7524 	.byte	4
00000053 01             7525 	.byte	1
00000054 0e             7526 	.byte	14
00000055 50524f445543   7527 	.strz	"PRODUCTION_SW 0x0"
0000005b 54494f4e5f53 
00000061 572030783000 
00000067 01             7528 	.byte	1
00000068 0f             7529 	.byte	15
00000069 444556454c4f   7530 	.strz	"DEVELOPMENT_SW 0x1"
0000006f 504d454e545f 
00000075 535720307831 
0000007b 00 
0000007c 01             7531 	.byte	1
0000007d 10             7532 	.byte	16
0000007e 53575f434154   7533 	.strz	"SW_CATEGORY PRODUCTION_SW"
00000084 45474f525920 
0000008a 50524f445543 
00000090 54494f4e5f53 
00000096 5700 
00000098 04             7534 	.byte	4
00000099 01             7535 	.byte	1
0000009a 06             7536 	.byte	6
0000009b 4d41585f5349   7537 	.strz	"MAX_SIZE_WS_TELEGRAM 16U"
000000a1 5a455f57535f 
000000a7 54454c454752 
000000ad 414d20313655 
000000b3 00 
000000b4 01             7538 	.byte	1
000000b5 0e             7539 	.byte	14
000000b6 4e564d5f424c   7540 	.strz	"NVM_BLOCK_TYPE uint32"
000000bc 4f434b5f5459 
000000c2 50452075696e 
000000c8 74333200 
000000cc 04             7541 	.byte	4
000000cd 03             7542 	.byte	3
000000ce 04             7543 	.byte	4
000000cf 0a             7544 	.byte	10
000000d0 03             7545 	.byte	3
000000d1 06             7546 	.byte	6
000000d2 0b             7547 	.byte	11
000000d3 04             7548 	.byte	4
000000d4 01             7549 	.byte	1
000000d5 08             7550 	.byte	8
000000d6 535441544943   7551 	.strz	"STATIC static"
000000dc 207374617469 
000000e2 6300 
000000e4 01             7552 	.byte	1

                                                                      Page 144
                                                              C:\Users\nhuliyap\AppData\Local\Temp\gh_0000en81.s
000000e5 18             7553 	.byte	24
000000e6 53454e534f52   7554 	.strz	"SENSOR_AUFLOESUNG_25MBAR "
000000ec 5f4155464c4f 
000000f2 4553554e475f 
000000f8 32354d424152 
000000fe 2000 
00000100 04             7555 	.byte	4
00000101 03             7556 	.byte	3
00000102 05             7557 	.byte	5
00000103 0c             7558 	.byte	12
00000104 03             7559 	.byte	3
00000105 03             7560 	.byte	3
00000106 0d             7561 	.byte	13
00000107 01             7562 	.byte	1
00000108 7b             7563 	.byte	123
00000109 4650412000     7564 	.strz	"FPA "
0000010e 01             7565 	.byte	1
0000010f 7c             7566 	.byte	124
00000110 4142535f5465   7567 	.strz	"ABS_Test_LOG_ENABLE "
00000116 73745f4c4f47 
0000011c 5f454e41424c 
00000122 452000 
00000125 04             7568 	.byte	4
00000126 04             7569 	.byte	4
00000127 03             7570 	.byte	3
00000128 06             7571 	.byte	6
00000129 0e             7572 	.byte	14
0000012a 01             7573 	.byte	1
0000012b 04             7574 	.byte	4
0000012c 4255534d5347   7575 	.strz	"BUSMSG_NUMBER_OF_TYRES ( (uint8) 4 )"
00000132 5f4e554d4245 
00000138 525f4f465f54 
0000013e 595245532028 
00000144 202875696e74 
0000014a 382920342029 
00000150 00 
00000151 01             7576 	.byte	1
00000152 05             7577 	.byte	5
00000153 4255534d5347   7578 	.strz	"BUSMSG_TYRE_VL ( (uint8) 0 )"
00000159 5f545952455f 
0000015f 564c20282028 
00000165 75696e743829 
0000016b 2030202900 
00000170 01             7579 	.byte	1
00000171 06             7580 	.byte	6
00000172 4255534d5347   7581 	.strz	"BUSMSG_TYRE_VR ( (uint8) 1 )"
00000178 5f545952455f 
0000017e 565220282028 
00000184 75696e743829 
0000018a 2031202900 
0000018f 01             7582 	.byte	1
00000190 07             7583 	.byte	7
00000191 4255534d5347   7584 	.strz	"BUSMSG_TYRE_HL ( (uint8) 2 )"
00000197 5f545952455f 
0000019d 484c20282028 
000001a3 75696e743829 
000001a9 2032202900 
000001ae 01             7585 	.byte	1
000001af 08             7586 	.byte	8
000001b0 4255534d5347   7587 	.strz	"BUSMSG_TYRE_HR ( (uint8) 3 )"
000001b6 5f545952455f 

                                                                      Page 145
                                                              C:\Users\nhuliyap\AppData\Local\Temp\gh_0000en81.s
000001bc 485220282028 
000001c2 75696e743829 
000001c8 2033202900 
000001cd 01             7588 	.byte	1
000001ce 09             7589 	.byte	9
000001cf 4255534d5347   7590 	.strz	"BUSMSG_WARN_UNKNOWN ( (uint8) 0 )"
000001d5 5f5741524e5f 
000001db 554e4b4e4f57 
000001e1 4e2028202875 
000001e7 696e74382920 
000001ed 30202900 
000001f1 01             7591 	.byte	1
000001f2 0a             7592 	.byte	10
000001f3 4255534d5347   7593 	.strz	"BUSMSG_WARN_NOMINAL ( (uint8) 1 )"
000001f9 5f5741524e5f 
000001ff 4e4f4d494e41 
00000205 4c2028202875 
0000020b 696e74382920 
00000211 31202900 
00000215 01             7594 	.byte	1
00000216 0b             7595 	.byte	11
00000217 4255534d5347   7596 	.strz	"BUSMSG_WARN_HARD ( (uint8) 2 )"
0000021d 5f5741524e5f 
00000223 484152442028 
00000229 202875696e74 
0000022f 382920322029 
00000235 00 
00000236 01             7597 	.byte	1
00000237 0c             7598 	.byte	12
00000238 4255534d5347   7599 	.strz	"BUSMSG_WARN_SOFT ( (uint8) 3 )"
0000023e 5f5741524e5f 
00000244 534f46542028 
0000024a 202875696e74 
00000250 382920332029 
00000256 00 
00000257 01             7600 	.byte	1
00000258 0d             7601 	.byte	13
00000259 4255534d5347   7602 	.strz	"BUSMSG_WARN_PUNCTURE ( (uint8) 4 )"
0000025f 5f5741524e5f 
00000265 50554e435455 
0000026b 524520282028 
00000271 75696e743829 
00000277 2034202900 
0000027c 01             7603 	.byte	1
0000027d 0e             7604 	.byte	14
0000027e 4255534d5347   7605 	.strz	"BUSMSG_TEMPERATURE_NO_WARNING ((uint8) 0U)"
00000284 5f54454d5045 
0000028a 524154555245 
00000290 5f4e4f5f5741 
00000296 524e494e4720 
0000029c 282875696e74 
000002a2 382920305529 
000002a8 00 
000002a9 01             7606 	.byte	1
000002aa 0f             7607 	.byte	15
000002ab 4255534d5347   7608 	.strz	"BUSMSG_TYREPRESS_VALID ( (uint8) 0 )"
000002b1 5f5459524550 
000002b7 524553535f56 
000002bd 414c49442028 
000002c3 202875696e74 
000002c9 382920302029 

                                                                      Page 146
                                                              C:\Users\nhuliyap\AppData\Local\Temp\gh_0000en81.s
000002cf 00 
000002d0 01             7609 	.byte	1
000002d1 10             7610 	.byte	16
000002d2 4255534d5347   7611 	.strz	"BUSMSG_TYREPRESS_INVALID ( (uint8) 1 )"
000002d8 5f5459524550 
000002de 524553535f49 
000002e4 4e56414c4944 
000002ea 202820287569 
000002f0 6e7438292031 
000002f6 202900 
000002f9 01             7612 	.byte	1
000002fa 11             7613 	.byte	17
000002fb 4255534d5347   7614 	.strz	"BUSMSG_NUMBER_OF_TEXTFLAGS ( (uint8) 6 )"
00000301 5f4e554d4245 
00000307 525f4f465f54 
0000030d 455854464c41 
00000313 475320282028 
00000319 75696e743829 
0000031f 2036202900 
00000324 01             7615 	.byte	1
00000325 12             7616 	.byte	18
00000326 4255534d5347   7617 	.strz	"BUSMSG_TEXTFLAG_1 ( (uint8) 0 )"
0000032c 5f5445585446 
00000332 4c41475f3120 
00000338 28202875696e 
0000033e 743829203020 
00000344 2900 
00000346 01             7618 	.byte	1
00000347 14             7619 	.byte	20
00000348 4255534d5347   7620 	.strz	"BUSMSG_TEXTFLAG_3 ( (uint8) 2 )"
0000034e 5f5445585446 
00000354 4c41475f3320 
0000035a 28202875696e 
00000360 743829203220 
00000366 2900 
00000368 01             7621 	.byte	1
00000369 15             7622 	.byte	21
0000036a 4255534d5347   7623 	.strz	"BUSMSG_TEXTFLAG_4 ( (uint8) 3 )"
00000370 5f5445585446 
00000376 4c41475f3420 
0000037c 28202875696e 
00000382 743829203320 
00000388 2900 
0000038a 01             7624 	.byte	1
0000038b 1b             7625 	.byte	27
0000038c 63496e76616c   7626 	.strz	"cInvalidPressureCAN 0xFF"
00000392 696450726573 
00000398 737572654341 
0000039e 4e2030784646 
000003a4 00 
000003a5 01             7627 	.byte	1
000003a6 1c             7628 	.byte	28
000003a7 63496e76616c   7629 	.strz	"cInvalidTemperatureCAN 0xFF"
000003ad 696454656d70 
000003b3 657261747572 
000003b9 6543414e2030 
000003bf 78464600 
000003c3 04             7630 	.byte	4
000003c4 03             7631 	.byte	3
000003c5 07             7632 	.byte	7
000003c6 0f             7633 	.byte	15

                                                                      Page 147
                                                              C:\Users\nhuliyap\AppData\Local\Temp\gh_0000en81.s
000003c7 01             7634 	.byte	1
000003c8 06             7635 	.byte	6
000003c9 474554624e6f   7636 	.strz	"GETbNoWarnPartSurvVL() ( GETbNoWarnPartSurv(BUSMSG_TYRE_VL) )"
000003cf 5761726e5061 
000003d5 727453757276 
000003db 564c28292028 
000003e1 20474554624e 
000003e7 6f5761726e50 
000003ed 617274537572 
000003f3 76284255534d 
000003f9 53475f545952 
000003ff 455f564c2920 
00000405 2900 
00000407 01             7637 	.byte	1
00000408 07             7638 	.byte	7
00000409 474554624e6f   7639 	.strz	"GETbNoWarnPartSurvVR() ( GETbNoWarnPartSurv(BUSMSG_TYRE_VR) )"
0000040f 5761726e5061 
00000415 727453757276 
0000041b 565228292028 
00000421 20474554624e 
00000427 6f5761726e50 
0000042d 617274537572 
00000433 76284255534d 
00000439 53475f545952 
0000043f 455f56522920 
00000445 2900 
00000447 01             7640 	.byte	1
00000448 08             7641 	.byte	8
00000449 474554624e6f   7642 	.strz	"GETbNoWarnPartSurvHL() ( GETbNoWarnPartSurv(BUSMSG_TYRE_HL) )"
0000044f 5761726e5061 
00000455 727453757276 
0000045b 484c28292028 
00000461 20474554624e 
00000467 6f5761726e50 
0000046d 617274537572 
00000473 76284255534d 
00000479 53475f545952 
0000047f 455f484c2920 
00000485 2900 
00000487 01             7643 	.byte	1
00000488 09             7644 	.byte	9
00000489 474554624e6f   7645 	.strz	"GETbNoWarnPartSurvHR() ( GETbNoWarnPartSurv(BUSMSG_TYRE_HR) )"
0000048f 5761726e5061 
00000495 727453757276 
0000049b 485228292028 
000004a1 20474554624e 
000004a7 6f5761726e50 
000004ad 617274537572 
000004b3 76284255534d 
000004b9 53475f545952 
000004bf 455f48522920 
000004c5 2900 
000004c7 04             7646 	.byte	4
000004c8 03             7647 	.byte	3
000004c9 08             7648 	.byte	8
000004ca 10             7649 	.byte	16
000004cb 04             7650 	.byte	4
000004cc 03             7651 	.byte	3
000004cd 09             7652 	.byte	9
000004ce 11             7653 	.byte	17
000004cf 03             7654 	.byte	3

                                                                      Page 148
                                                              C:\Users\nhuliyap\AppData\Local\Temp\gh_0000en81.s
000004d0 04             7655 	.byte	4
000004d1 12             7656 	.byte	18
000004d2 03             7657 	.byte	3
000004d3 05             7658 	.byte	5
000004d4 13             7659 	.byte	19
000004d5 01             7660 	.byte	1
000004d6 05             7661 	.byte	5
000004d7 444554454354   7662 	.strz	"DETECT_SYMC_WALLOC_DTC "
000004dd 5f53594d435f 
000004e3 57414c4c4f43 
000004e9 5f4454432000 
000004ef 04             7663 	.byte	4
000004f0 01             7664 	.byte	1
000004f1 0a             7665 	.byte	10
000004f2 63526164506f   7666 	.strz	"cRadPosVL ( (uint8) 0 )"
000004f8 73564c202820 
000004fe 2875696e7438 
00000504 292030202900 
0000050a 01             7667 	.byte	1
0000050b 0b             7668 	.byte	11
0000050c 63526164506f   7669 	.strz	"cRadPosVR ( (uint8) 1 )"
00000512 735652202820 
00000518 2875696e7438 
0000051e 292031202900 
00000524 01             7670 	.byte	1
00000525 0c             7671 	.byte	12
00000526 63526164506f   7672 	.strz	"cRadPosHL ( (uint8) 2 )"
0000052c 73484c202820 
00000532 2875696e7438 
00000538 292032202900 
0000053e 01             7673 	.byte	1
0000053f 0d             7674 	.byte	13
00000540 63526164506f   7675 	.strz	"cRadPosHR ( (uint8) 3 )"
00000546 734852202820 
0000054c 2875696e7438 
00000552 292033202900 
00000558 01             7676 	.byte	1
00000559 14             7677 	.byte	20
0000055a 63496e76616c   7678 	.strz	"cInvalidREpressure ( (uint8) 0xff )"
00000560 696452457072 
00000566 657373757265 
0000056c 202820287569 
00000572 6e7438292030 
00000578 786666202900 
0000057e 04             7679 	.byte	4
0000057f 03             7680 	.byte	3
00000580 05             7681 	.byte	5
00000581 14             7682 	.byte	20
00000582 01             7683 	.byte	1
00000583 0f             7684 	.byte	15
00000584 634d6178414b   7685 	.strz	"cMaxAK35DataBytes 14U"
0000058a 333544617461 
00000590 427974657320 
00000596 31345500 
0000059a 04             7686 	.byte	4
0000059b 04             7687 	.byte	4
0000059c 03             7688 	.byte	3
0000059d 0a             7689 	.byte	10
0000059e 15             7690 	.byte	21
0000059f 03             7691 	.byte	3
000005a0 06             7692 	.byte	6

                                                                      Page 149
                                                              C:\Users\nhuliyap\AppData\Local\Temp\gh_0000en81.s
000005a1 16             7693 	.byte	22
000005a2 01             7694 	.byte	1
000005a3 0e             7695 	.byte	14
000005a4 70625f514143   7696 	.strz	"pb_QACStatic_160503 "
000005aa 537461746963 
000005b0 5f3136303530 
000005b6 332000 
000005b9 01             7697 	.byte	1
000005ba 16             7698 	.byte	22
000005bb 75634d617850   7699 	.strz	"ucMaxPosc 4"
000005c1 6f7363203400 
000005c7 01             7700 	.byte	1
000005c8 17             7701 	.byte	23
000005c9 756353756d57   7702 	.strz	"ucSumWEc (unsigned char) 4"
000005cf 45632028756e 
000005d5 7369676e6564 
000005db 206368617229 
000005e1 203400 
000005e4 04             7703 	.byte	4
000005e5 01             7704 	.byte	1
000005e6 2c             7705 	.byte	44
000005e7 7563504d696e   7706 	.strz	"ucPMinc (unsigned char) 0x01"
000005ed 632028756e73 
000005f3 69676e656420 
000005f9 636861722920 
000005ff 3078303100 
00000604 01             7707 	.byte	1
00000605 2f             7708 	.byte	47
00000606 756344485763   7709 	.strz	"ucDHWc (unsigned char) 0x08"
0000060c 2028756e7369 
00000612 676e65642063 
00000618 686172292030 
0000061e 78303800 
00000622 01             7710 	.byte	1
00000623 32             7711 	.byte	50
00000624 756354576320   7712 	.strz	"ucTWc (unsigned char) 0x40"
0000062a 28756e736967 
00000630 6e6564206368 
00000636 617229203078 
0000063c 343000 
0000063f 01             7713 	.byte	1
00000640 33             7714 	.byte	51
00000641 756345754663   7715 	.strz	"ucEuFc (unsigned char) 0x80"
00000647 2028756e7369 
0000064d 676e65642063 
00000653 686172292030 
00000659 78383000 
0000065d 01             7716 	.byte	1
0000065e 4c             7717 	.byte	76
0000065f 75635750464c   7718 	.strz	"ucWPFLc (unsigned char) 0"
00000665 632028756e73 
0000066b 69676e656420 
00000671 636861722920 
00000677 3000 
00000679 01             7719 	.byte	1
0000067a 4d             7720 	.byte	77
0000067b 756357504652   7721 	.strz	"ucWPFRc (unsigned char) 1"
00000681 632028756e73 
00000687 69676e656420 
0000068d 636861722920 
00000693 3100 

                                                                      Page 150
                                                              C:\Users\nhuliyap\AppData\Local\Temp\gh_0000en81.s
00000695 01             7722 	.byte	1
00000696 4e             7723 	.byte	78
00000697 75635750524c   7724 	.strz	"ucWPRLc (unsigned char) 2"
0000069d 632028756e73 
000006a3 69676e656420 
000006a9 636861722920 
000006af 3200 
000006b1 01             7725 	.byte	1
000006b2 4f             7726 	.byte	79
000006b3 756357505252   7727 	.strz	"ucWPRRc (unsigned char) 3"
000006b9 632028756e73 
000006bf 69676e656420 
000006c5 636861722920 
000006cb 3300 
000006cd 01             7728 	.byte	1
000006ce 50             7729 	.byte	80
000006cf 756357504e41   7730 	.strz	"ucWPNAc (unsigned char) 4"
000006d5 632028756e73 
000006db 69676e656420 
000006e1 636861722920 
000006e7 3400 
000006e9 01             7731 	.byte	1
000006ea 8a01           7732 	.byte	138,1
000006ec 47455462504d   7733 	.strz	"GETbPMFL() ( (aucWheelPosWarn[ucWPFLc] & ucPMinc) == ucPMinc )"
000006f2 464c28292028 
000006f8 202861756357 
000006fe 6865656c506f 
00000704 735761726e5b 
0000070a 75635750464c 
00000710 635d20262075 
00000716 63504d696e63 
0000071c 29203d3d2075 
00000722 63504d696e63 
00000728 202900 
0000072b 01             7734 	.byte	1
0000072c 8b01           7735 	.byte	139,1
0000072e 47455462504d   7736 	.strz	"GETbPMFR() ( (aucWheelPosWarn[ucWPFRc] & ucPMinc) == ucPMinc )"
00000734 465228292028 
0000073a 202861756357 
00000740 6865656c506f 
00000746 735761726e5b 
0000074c 756357504652 
00000752 635d20262075 
00000758 63504d696e63 
0000075e 29203d3d2075 
00000764 63504d696e63 
0000076a 202900 
0000076d 01             7737 	.byte	1
0000076e 8c01           7738 	.byte	140,1
00000770 47455462504d   7739 	.strz	"GETbPMRL() ( (aucWheelPosWarn[ucWPRLc] & ucPMinc) == ucPMinc )"
00000776 524c28292028 
0000077c 202861756357 
00000782 6865656c506f 
00000788 735761726e5b 
0000078e 75635750524c 
00000794 635d20262075 
0000079a 63504d696e63 
000007a0 29203d3d2075 
000007a6 63504d696e63 
000007ac 202900 
000007af 01             7740 	.byte	1

                                                                      Page 151
                                                              C:\Users\nhuliyap\AppData\Local\Temp\gh_0000en81.s
000007b0 8d01           7741 	.byte	141,1
000007b2 47455462504d   7742 	.strz	"GETbPMRR() ( (aucWheelPosWarn[ucWPRRc] & ucPMinc) == ucPMinc )"
000007b8 525228292028 
000007be 202861756357 
000007c4 6865656c506f 
000007ca 735761726e5b 
000007d0 756357505252 
000007d6 635d20262075 
000007dc 63504d696e63 
000007e2 29203d3d2075 
000007e8 63504d696e63 
000007ee 202900 
000007f1 01             7743 	.byte	1
000007f2 8e01           7744 	.byte	142,1
000007f4 47455462504d   7745 	.strz	"GETbPMNA() ( (aucWheelPosWarn[ucWPNAc] & ucPMinc) == ucPMinc )"
000007fa 4e4128292028 
00000800 202861756357 
00000806 6865656c506f 
0000080c 735761726e5b 
00000812 756357504e41 
00000818 635d20262075 
0000081e 63504d696e63 
00000824 29203d3d2075 
0000082a 63504d696e63 
00000830 202900 
00000833 01             7746 	.byte	1
00000834 9301           7747 	.byte	147,1
00000836 474554624448   7748 	.strz	"GETbDHWFL() ( (aucWheelPosWarn[ucWPFLc] & ucDHWc) == ucDHWc )"
0000083c 57464c282920 
00000842 282028617563 
00000848 576865656c50 
0000084e 6f735761726e 
00000854 5b7563575046 
0000085a 4c635d202620 
00000860 756344485763 
00000866 29203d3d2075 
0000086c 634448576320 
00000872 2900 
00000874 01             7749 	.byte	1
00000875 9401           7750 	.byte	148,1
00000877 474554624448   7751 	.strz	"GETbDHWFR() ( (aucWheelPosWarn[ucWPFRc] & ucDHWc) == ucDHWc )"
0000087d 574652282920 
00000883 282028617563 
00000889 576865656c50 
0000088f 6f735761726e 
00000895 5b7563575046 
0000089b 52635d202620 
000008a1 756344485763 
000008a7 29203d3d2075 
000008ad 634448576320 
000008b3 2900 
000008b5 01             7752 	.byte	1
000008b6 9501           7753 	.byte	149,1
000008b8 474554624448   7754 	.strz	"GETbDHWRL() ( (aucWheelPosWarn[ucWPRLc] & ucDHWc) == ucDHWc )"
000008be 57524c282920 
000008c4 282028617563 
000008ca 576865656c50 
000008d0 6f735761726e 
000008d6 5b7563575052 
000008dc 4c635d202620 
000008e2 756344485763 

                                                                      Page 152
                                                              C:\Users\nhuliyap\AppData\Local\Temp\gh_0000en81.s
000008e8 29203d3d2075 
000008ee 634448576320 
000008f4 2900 
000008f6 01             7755 	.byte	1
000008f7 9601           7756 	.byte	150,1
000008f9 474554624448   7757 	.strz	"GETbDHWRR() ( (aucWheelPosWarn[ucWPRRc] & ucDHWc) == ucDHWc )"
000008ff 575252282920 
00000905 282028617563 
0000090b 576865656c50 
00000911 6f735761726e 
00000917 5b7563575052 
0000091d 52635d202620 
00000923 756344485763 
00000929 29203d3d2075 
0000092f 634448576320 
00000935 2900 
00000937 01             7758 	.byte	1
00000938 9701           7759 	.byte	151,1
0000093a 474554624448   7760 	.strz	"GETbDHWNA() ( (aucWheelPosWarn[ucWPNAc] & ucDHWc) == ucDHWc )"
00000940 574e41282920 
00000946 282028617563 
0000094c 576865656c50 
00000952 6f735761726e 
00000958 5b756357504e 
0000095e 41635d202620 
00000964 756344485763 
0000096a 29203d3d2075 
00000970 634448576320 
00000976 2900 
00000978 01             7761 	.byte	1
00000979 a501           7762 	.byte	165,1
0000097b 474554625045   7763 	.strz	"GETbPECEFL() ( (aucWheelPosWarn[ucWPFLc] & ucEuFc) == ucEuFc )"
00000981 4345464c2829 
00000987 202820286175 
0000098d 63576865656c 
00000993 506f73576172 
00000999 6e5b75635750 
0000099f 464c635d2026 
000009a5 207563457546 
000009ab 6329203d3d20 
000009b1 756345754663 
000009b7 202900 
000009ba 01             7764 	.byte	1
000009bb a601           7765 	.byte	166,1
000009bd 474554625045   7766 	.strz	"GETbPECEFR() ( (aucWheelPosWarn[ucWPFRc] & ucEuFc) == ucEuFc )"
000009c3 434546522829 
000009c9 202820286175 
000009cf 63576865656c 
000009d5 506f73576172 
000009db 6e5b75635750 
000009e1 4652635d2026 
000009e7 207563457546 
000009ed 6329203d3d20 
000009f3 756345754663 
000009f9 202900 
000009fc 01             7767 	.byte	1
000009fd a701           7768 	.byte	167,1
000009ff 474554625045   7769 	.strz	"GETbPECERL() ( (aucWheelPosWarn[ucWPRLc] & ucEuFc) == ucEuFc )"
00000a05 4345524c2829 
00000a0b 202820286175 
00000a11 63576865656c 

                                                                      Page 153
                                                              C:\Users\nhuliyap\AppData\Local\Temp\gh_0000en81.s
00000a17 506f73576172 
00000a1d 6e5b75635750 
00000a23 524c635d2026 
00000a29 207563457546 
00000a2f 6329203d3d20 
00000a35 756345754663 
00000a3b 202900 
00000a3e 01             7770 	.byte	1
00000a3f a801           7771 	.byte	168,1
00000a41 474554625045   7772 	.strz	"GETbPECERR() ( (aucWheelPosWarn[ucWPRRc] & ucEuFc) == ucEuFc )"
00000a47 434552522829 
00000a4d 202820286175 
00000a53 63576865656c 
00000a59 506f73576172 
00000a5f 6e5b75635750 
00000a65 5252635d2026 
00000a6b 207563457546 
00000a71 6329203d3d20 
00000a77 756345754663 
00000a7d 202900 
00000a80 01             7773 	.byte	1
00000a81 a901           7774 	.byte	169,1
00000a83 474554625045   7775 	.strz	"GETbPECENA() ( (aucWheelPosWarn[ucWPNAc] & ucEuFc) == ucEuFc )"
00000a89 43454e412829 
00000a8f 202820286175 
00000a95 63576865656c 
00000a9b 506f73576172 
00000aa1 6e5b75635750 
00000aa7 4e41635d2026 
00000aad 207563457546 
00000ab3 6329203d3d20 
00000ab9 756345754663 
00000abf 202900 
00000ac2 01             7776 	.byte	1
00000ac3 ab01           7777 	.byte	171,1
00000ac5 474554625457   7778 	.strz	"GETbTWFL() ( (aucWheelPosWarn[ucWPFLc] & ucTWc) == ucTWc )"
00000acb 464c28292028 
00000ad1 202861756357 
00000ad7 6865656c506f 
00000add 735761726e5b 
00000ae3 75635750464c 
00000ae9 635d20262075 
00000aef 635457632920 
00000af5 3d3d20756354 
00000afb 5763202900 
00000b00 01             7779 	.byte	1
00000b01 ac01           7780 	.byte	172,1
00000b03 474554625457   7781 	.strz	"GETbTWFR() ( (aucWheelPosWarn[ucWPFRc] & ucTWc) == ucTWc )"
00000b09 465228292028 
00000b0f 202861756357 
00000b15 6865656c506f 
00000b1b 735761726e5b 
00000b21 756357504652 
00000b27 635d20262075 
00000b2d 635457632920 
00000b33 3d3d20756354 
00000b39 5763202900 
00000b3e 01             7782 	.byte	1
00000b3f ad01           7783 	.byte	173,1
00000b41 474554625457   7784 	.strz	"GETbTWRL() ( (aucWheelPosWarn[ucWPRLc] & ucTWc) == ucTWc )"
00000b47 524c28292028 

                                                                      Page 154
                                                              C:\Users\nhuliyap\AppData\Local\Temp\gh_0000en81.s
00000b4d 202861756357 
00000b53 6865656c506f 
00000b59 735761726e5b 
00000b5f 75635750524c 
00000b65 635d20262075 
00000b6b 635457632920 
00000b71 3d3d20756354 
00000b77 5763202900 
00000b7c 01             7785 	.byte	1
00000b7d ae01           7786 	.byte	174,1
00000b7f 474554625457   7787 	.strz	"GETbTWRR() ( (aucWheelPosWarn[ucWPRRc] & ucTWc) == ucTWc )"
00000b85 525228292028 
00000b8b 202861756357 
00000b91 6865656c506f 
00000b97 735761726e5b 
00000b9d 756357505252 
00000ba3 635d20262075 
00000ba9 635457632920 
00000baf 3d3d20756354 
00000bb5 5763202900 
00000bba 01             7788 	.byte	1
00000bbb af01           7789 	.byte	175,1
00000bbd 474554625457   7790 	.strz	"GETbTWNA() ( (aucWheelPosWarn[ucWPNAc] & ucTWc) == ucTWc )"
00000bc3 4e4128292028 
00000bc9 202861756357 
00000bcf 6865656c506f 
00000bd5 735761726e5b 
00000bdb 756357504e41 
00000be1 635d20262075 
00000be7 635457632920 
00000bed 3d3d20756354 
00000bf3 5763202900 
00000bf8 04             7791 	.byte	4
00000bf9 03             7792 	.byte	3
00000bfa 0b             7793 	.byte	11
00000bfb 17             7794 	.byte	23
00000bfc 01             7795 	.byte	1
00000bfd 04             7796 	.byte	4
00000bfe 6345525f4649   7797 	.strz	"cER_FINISH ((uint16) 0x0001)"
00000c04 4e4953482028 
00000c0a 2875696e7431 
00000c10 362920307830 
00000c16 3030312900 
00000c1b 01             7798 	.byte	1
00000c1c 07             7799 	.byte	7
00000c1d 63454947454e   7800 	.strz	"cEIGENRAD ((uint16) 0x0008)"
00000c23 524144202828 
00000c29 75696e743136 
00000c2f 292030783030 
00000c35 30382900 
00000c39 01             7801 	.byte	1
00000c3a 08             7802 	.byte	8
00000c3b 635a5547454f   7803 	.strz	"cZUGEORDNET ((uint16) 0x0010)"
00000c41 52444e455420 
00000c47 282875696e74 
00000c4d 313629203078 
00000c53 303031302900 
00000c59 01             7804 	.byte	1
00000c5a 0a             7805 	.byte	10
00000c5b 63484953545f   7806 	.strz	"cHIST_PRELOAD ((uint16) 0x0040)"
00000c61 5052454c4f41 

                                                                      Page 155
                                                              C:\Users\nhuliyap\AppData\Local\Temp\gh_0000en81.s
00000c67 442028287569 
00000c6d 6e7431362920 
00000c73 307830303430 
00000c79 2900 
00000c7b 01             7807 	.byte	1
00000c7c 10             7808 	.byte	16
00000c7d 635a4f5f5449   7809 	.strz	"cZO_TIMEOUT ((uint16) 0x1000)"
00000c83 4d454f555420 
00000c89 282875696e74 
00000c8f 313629203078 
00000c95 313030302900 
00000c9b 04             7810 	.byte	4
00000c9c 03             7811 	.byte	3
00000c9d 0d             7812 	.byte	13
00000c9e 18             7813 	.byte	24
00000c9f 04             7814 	.byte	4
00000ca0 03             7815 	.byte	3
00000ca1 0e             7816 	.byte	14
00000ca2 19             7817 	.byte	25
00000ca3 01             7818 	.byte	1
00000ca4 08             7819 	.byte	8
00000ca5 75634d617846   7820 	.strz	"ucMaxFF4RFInterference ((unsigned char)133)"
00000cab 46345246496e 
00000cb1 746572666572 
00000cb7 656e63652028 
00000cbd 28756e736967 
00000cc3 6e6564206368 
00000cc9 617229313333 
00000ccf 2900 
00000cd1 04             7821 	.byte	4
00000cd2 03             7822 	.byte	3
00000cd3 0f             7823 	.byte	15
00000cd4 1a             7824 	.byte	26
00000cd5 01             7825 	.byte	1
00000cd6 11             7826 	.byte	17
00000cd7 635a4f5f4552   7827 	.strz	"cZO_ERR_NO_QUALIFIED_SENSOR_SIGNALS (uint8)E_TPMS_ERROR_NO_QUALIFIED_SENSOR_SIGNALS"
00000cdd 525f4e4f5f51 
00000ce3 55414c494649 
00000ce9 45445f53454e 
00000cef 534f525f5349 
00000cf5 474e414c5320 
00000cfb 2875696e7438 
00000d01 29455f54504d 
00000d07 535f4552524f 
00000d0d 525f4e4f5f51 
00000d13 55414c494649 
00000d19 45445f53454e 
00000d1f 534f525f5349 
00000d25 474e414c5300 
00000d2b 01             7828 	.byte	1
00000d2c 68             7829 	.byte	104
00000d2d 635a4f5f4552   7830 	.strz	"cZO_ERR_RF_INTERFERENCE (uint8)E_TPMS_ERROR_RF_INTERFERENCE"
00000d33 525f52465f49 
00000d39 4e5445524645 
00000d3f 52454e434520 
00000d45 2875696e7438 
00000d4b 29455f54504d 
00000d51 535f4552524f 
00000d57 525f52465f49 
00000d5d 4e5445524645 
00000d63 52454e434500 

                                                                      Page 156
                                                              C:\Users\nhuliyap\AppData\Local\Temp\gh_0000en81.s
00000d69 04             7831 	.byte	4
00000d6a 01             7832 	.byte	1
00000d6b 12             7833 	.byte	18
00000d6c 54455854464c   7834 	.strz	"TEXTFLAGS_INVALID ( (boolean) FALSE )"
00000d72 4147535f494e 
00000d78 56414c494420 
00000d7e 282028626f6f 
00000d84 6c65616e2920 
00000d8a 46414c534520 
00000d90 2900 
00000d92 04             7835 	.byte	4
00000d93 00             7836 	.byte	0
                        7837 	.section	.debug_abbrev
00000166 00             7838 	.byte	0
                        7839 	.section	.debug_info
                        7840 .Ldw_end:
                        7841 .rh850_flags REGMODE32,DATA_ALIGN8,GP_FIX,EP_NONFIX,TP_FIX,REG2_RESERVE,G3K,GHS_MISALIGN,SDA_EXTRA_REGS_0
